ARM GAS  /var/folders/9s/8rp0_f2s1n31qbztm3b5_fdh0000gn/T//ccKcW5Fo.s 			page 1


   1              		.cpu cortex-m7
   2              		.arch armv7e-m
   3              		.fpu fpv5-d16
   4              		.eabi_attribute 28, 1
   5              		.eabi_attribute 20, 1
   6              		.eabi_attribute 21, 1
   7              		.eabi_attribute 23, 3
   8              		.eabi_attribute 24, 1
   9              		.eabi_attribute 25, 1
  10              		.eabi_attribute 26, 1
  11              		.eabi_attribute 30, 4
  12              		.eabi_attribute 34, 1
  13              		.eabi_attribute 18, 4
  14              		.file	"AudioProcessor.cpp"
  15              		.text
  16              	.Ltext0:
  17              		.cfi_sections	.debug_frame
  18              		.section	.text._Z20ProcessUIAndControlsv,"ax",%progbits
  19              		.align	1
  20              		.global	_Z20ProcessUIAndControlsv
  21              		.syntax unified
  22              		.thumb
  23              		.thumb_func
  25              	_Z20ProcessUIAndControlsv:
  26              	.LFB5346:
  27              		.file 1 "AudioProcessor.cpp"
   1:AudioProcessor.cpp **** #include "Thaumazein.h"
   2:AudioProcessor.cpp **** #include "mpr121_daisy.h"
   3:AudioProcessor.cpp **** #include "DelayEffect.h"
   4:AudioProcessor.cpp **** #include "Polyphony.h" // Add include for PolyphonyEngine
   5:AudioProcessor.cpp **** #include <cmath>
   6:AudioProcessor.cpp **** #include <algorithm>
   7:AudioProcessor.cpp **** #include <vector> // Add vector for dynamic list
   8:AudioProcessor.cpp **** 
   9:AudioProcessor.cpp **** // const float MASTER_VOLUME = 0.7f; // Master output level scaler // REMOVED - Defined in Thaumaze
  10:AudioProcessor.cpp **** 
  11:AudioProcessor.cpp **** int  DetermineEngineSettings();
  12:AudioProcessor.cpp **** // void ConfigureDelaySettings(); // Ensure this is removed or commented
  13:AudioProcessor.cpp **** // void ProcessAudioOutput(AudioHandle::InterleavingOutputBuffer out, size_t size, float dry_level)
  14:AudioProcessor.cpp **** void UpdatePerformanceMonitors(size_t size, AudioHandle::InterleavingOutputBuffer out);
  15:AudioProcessor.cpp **** 
  16:AudioProcessor.cpp **** // New helper function declarations
  17:AudioProcessor.cpp **** void ProcessUIAndControls();
  18:AudioProcessor.cpp **** void UpdateArpState(int& engineIndex, bool& poly_mode, int& effective_num_voices, bool& arp_on);
  19:AudioProcessor.cpp **** void RenderVoices(int engineIndex, bool poly_mode, int effective_num_voices, bool arp_on);
  20:AudioProcessor.cpp **** void ApplyEffectsAndOutput(AudioHandle::InterleavingOutputBuffer out, size_t size);
  21:AudioProcessor.cpp **** 
  22:AudioProcessor.cpp **** // Global variables for data sharing between decomposed functions
  23:AudioProcessor.cpp **** 
  24:AudioProcessor.cpp **** extern VoiceEnvelope voice_envelopes[NUM_VOICES];
  25:AudioProcessor.cpp **** 
  26:AudioProcessor.cpp **** extern bool voice_active[NUM_VOICES];
  27:AudioProcessor.cpp **** 
  28:AudioProcessor.cpp **** // Define the CpuLoadMeter instance
  29:AudioProcessor.cpp **** CpuLoadMeter cpu_meter;
  30:AudioProcessor.cpp **** 
  31:AudioProcessor.cpp **** // ADDED: Global variables needed by the new helper functions, formerly local to AudioCallback or i
ARM GAS  /var/folders/9s/8rp0_f2s1n31qbztm3b5_fdh0000gn/T//ccKcW5Fo.s 			page 2


  32:AudioProcessor.cpp **** // These might need refinement based on actual usage after refactoring
  33:AudioProcessor.cpp **** static uint32_t button_press_time = 0; // For panic button
  34:AudioProcessor.cpp **** static bool was_arp_on = false; // For ARP state change detection
  35:AudioProcessor.cpp **** 
  36:AudioProcessor.cpp **** volatile int current_engine_index = 0; // Global engine index controlled by touch pads
  37:AudioProcessor.cpp **** 
  38:AudioProcessor.cpp **** // ADD: flag to indicate engine change so we can retrigger voices even when notes are held
  39:AudioProcessor.cpp **** volatile bool engine_changed_flag = false;
  40:AudioProcessor.cpp **** // 0 = inactive, 2 = send trigger low this block, 1 = send trigger high next block
  41:AudioProcessor.cpp **** volatile int engine_retrigger_phase = 0;
  42:AudioProcessor.cpp **** 
  43:AudioProcessor.cpp **** void AudioCallback(AudioHandle::InterleavingInputBuffer in,
  44:AudioProcessor.cpp ****                  AudioHandle::InterleavingOutputBuffer out,
  45:AudioProcessor.cpp ****                  size_t size) {
  46:AudioProcessor.cpp ****     static bool audio_cb_started = false;
  47:AudioProcessor.cpp ****     if(!audio_cb_started) {
  48:AudioProcessor.cpp ****         hw.PrintLine("[AudioCallback] Enter");
  49:AudioProcessor.cpp ****         audio_cb_started = true;
  50:AudioProcessor.cpp ****     }
  51:AudioProcessor.cpp ****     cpu_meter.OnBlockStart(); // Mark the beginning of the audio block
  52:AudioProcessor.cpp ****     
  53:AudioProcessor.cpp ****     // Variables to be passed between helper functions
  54:AudioProcessor.cpp ****     int engineIndex;
  55:AudioProcessor.cpp ****     bool poly_mode;
  56:AudioProcessor.cpp ****     int effective_num_voices;
  57:AudioProcessor.cpp ****     bool arp_on;
  58:AudioProcessor.cpp **** 
  59:AudioProcessor.cpp ****     ProcessUIAndControls();
  60:AudioProcessor.cpp **** 
  61:AudioProcessor.cpp ****     // React to engine change flag by delegating voice migration to DSP layer.
  62:AudioProcessor.cpp ****     static int prev_engine_index_static = 0;
  63:AudioProcessor.cpp ****     if(engine_changed_flag) {
  64:AudioProcessor.cpp ****         poly_engine.OnEngineChange(prev_engine_index_static, current_engine_index);
  65:AudioProcessor.cpp ****         prev_engine_index_static = current_engine_index;
  66:AudioProcessor.cpp ****         engine_changed_flag = false; // Clear flag after handling
  67:AudioProcessor.cpp ****     }
  68:AudioProcessor.cpp **** 
  69:AudioProcessor.cpp ****     UpdateArpState(engineIndex, poly_mode, effective_num_voices, arp_on);
  70:AudioProcessor.cpp ****     RenderVoices(engineIndex, poly_mode, effective_num_voices, arp_on);
  71:AudioProcessor.cpp ****     ApplyEffectsAndOutput(out, size);
  72:AudioProcessor.cpp **** 
  73:AudioProcessor.cpp ****     cpu_meter.OnBlockEnd(); // Mark the end of the audio block
  74:AudioProcessor.cpp **** }
  75:AudioProcessor.cpp **** 
  76:AudioProcessor.cpp **** void ProcessUIAndControls() {
  28              		.loc 1 76 29 view -0
  29              		.cfi_startproc
  30              		@ args = 0, pretend = 0, frame = 0
  31              		@ frame_needed = 0, uses_anonymous_args = 0
  77:AudioProcessor.cpp ****     ProcessControls();
  32              		.loc 1 77 5 view .LVU1
  76:AudioProcessor.cpp ****     ProcessControls();
  33              		.loc 1 76 29 is_stmt 0 view .LVU2
  34 0000 10B5     		push	{r4, lr}
  35              		.cfi_def_cfa_offset 8
  36              		.cfi_offset 4, -8
  37              		.cfi_offset 14, -4
ARM GAS  /var/folders/9s/8rp0_f2s1n31qbztm3b5_fdh0000gn/T//ccKcW5Fo.s 			page 3


  38              		.loc 1 77 20 view .LVU3
  39 0002 FFF7FEFF 		bl	_Z15ProcessControlsv
  40              	.LVL0:
  78:AudioProcessor.cpp ****     ReadKnobValues();
  41              		.loc 1 78 5 is_stmt 1 view .LVU4
  42              		.loc 1 78 19 is_stmt 0 view .LVU5
  43 0006 FFF7FEFF 		bl	_Z14ReadKnobValuesv
  44              	.LVL1:
  79:AudioProcessor.cpp ****     
  80:AudioProcessor.cpp ****     // Update Arpeggiator Tempo from Delay Time Knob if Arp is enabled
  81:AudioProcessor.cpp ****     if (arp_enabled) {
  45              		.loc 1 81 5 is_stmt 1 view .LVU6
  46              		.loc 1 81 9 is_stmt 0 view .LVU7
  47 000a 204B     		ldr	r3, .L13
  48 000c 1B78     		ldrb	r3, [r3]	@ zero_extendqisi2
  49              		.loc 1 81 5 view .LVU8
  50 000e 2BB1     		cbz	r3, .L2
  82:AudioProcessor.cpp ****         arp.SetMainTempoFromKnob(delay_time_val); // delay_time_val is 0-1 from ReadKnobValues
  51              		.loc 1 82 9 is_stmt 1 view .LVU9
  52              		.loc 1 82 33 is_stmt 0 view .LVU10
  53 0010 1F4B     		ldr	r3, .L13+4
  54 0012 2048     		ldr	r0, .L13+8
  55 0014 93ED000A 		vldr.32	s0, [r3]
  56 0018 FFF7FEFF 		bl	_ZN11Arpeggiator20SetMainTempoFromKnobEf
  57              	.LVL2:
  58              	.L2:
  83:AudioProcessor.cpp ****     }
  84:AudioProcessor.cpp **** 
  85:AudioProcessor.cpp ****     float touch_control = touch_cv_value; 
  59              		.loc 1 85 5 is_stmt 1 view .LVU11
  60              		.loc 1 85 27 is_stmt 0 view .LVU12
  61 001c 1E4B     		ldr	r3, .L13+12
  86:AudioProcessor.cpp ****     
  87:AudioProcessor.cpp ****     float intensity_factor = 0.5f;
  88:AudioProcessor.cpp **** 
  89:AudioProcessor.cpp ****     morph_knob_val   = morph_knob_val   * (1.0f - intensity_factor) + touch_control * intensity_fac
  62              		.loc 1 89 85 view .LVU13
  63 001e B6EE007A 		vmov.f32	s14, #5.0e-1
  85:AudioProcessor.cpp ****     
  64              		.loc 1 85 27 view .LVU14
  65 0022 D3ED007A 		vldr.32	s15, [r3]
  66              	.LVL3:
  87:AudioProcessor.cpp **** 
  67              		.loc 1 87 5 is_stmt 1 view .LVU15
  68              		.loc 1 89 5 view .LVU16
  69              		.loc 1 89 41 is_stmt 0 view .LVU17
  70 0026 1D4B     		ldr	r3, .L13+16
  71              		.loc 1 89 85 view .LVU18
  72 0028 67EE877A 		vmul.f32	s15, s15, s14
  73              	.LVL4:
  74              		.loc 1 89 69 view .LVU19
  75 002c 93ED006A 		vldr.32	s12, [r3]
  76 0030 F0EE676A 		vmov.f32	s13, s15
  77 0034 E6EE076A 		vfma.f32	s13, s12, s14
  78              		.loc 1 89 22 view .LVU20
  79 0038 C3ED006A 		vstr.32	s13, [r3]
  90:AudioProcessor.cpp ****     delay_feedback_val = delay_feedback_val * (1.0f - intensity_factor) + touch_control * intensity
ARM GAS  /var/folders/9s/8rp0_f2s1n31qbztm3b5_fdh0000gn/T//ccKcW5Fo.s 			page 4


  80              		.loc 1 90 5 is_stmt 1 view .LVU21
  81              		.loc 1 90 45 is_stmt 0 view .LVU22
  82 003c 184B     		ldr	r3, .L13+20
  83              		.loc 1 90 73 view .LVU23
  84 003e D3ED006A 		vldr.32	s13, [r3]
  85 0042 E6EE877A 		vfma.f32	s15, s13, s14
  86              		.loc 1 90 24 view .LVU24
  87 0046 C3ED007A 		vstr.32	s15, [r3]
  91:AudioProcessor.cpp **** 
  92:AudioProcessor.cpp ****     if (button.RisingEdge()) {
  88              		.loc 1 92 5 is_stmt 1 view .LVU25
  89              	.LVL5:
  90              	.LBB23:
  91              	.LBB24:
  92              	.LBI24:
  93              		.file 2 "lib/libdaisy/src/hid/switch.h"
   1:lib/libdaisy/src/hid/switch.h **** #pragma once
   2:lib/libdaisy/src/hid/switch.h **** #ifndef DSY_SWITCH_H
   3:lib/libdaisy/src/hid/switch.h **** #define DSY_SWITCH_H
   4:lib/libdaisy/src/hid/switch.h **** #include "daisy_core.h"
   5:lib/libdaisy/src/hid/switch.h **** #include "per/gpio.h"
   6:lib/libdaisy/src/hid/switch.h **** #include "sys/system.h"
   7:lib/libdaisy/src/hid/switch.h **** 
   8:lib/libdaisy/src/hid/switch.h **** namespace daisy
   9:lib/libdaisy/src/hid/switch.h **** {
  10:lib/libdaisy/src/hid/switch.h **** /** 
  11:lib/libdaisy/src/hid/switch.h ****     Generic Class for handling momentary/latching switches \n 
  12:lib/libdaisy/src/hid/switch.h ****     Inspired/influenced by Mutable Instruments (pichenettes) Switch classes
  13:lib/libdaisy/src/hid/switch.h ****     @author Stephen Hensley
  14:lib/libdaisy/src/hid/switch.h ****     @date December 2019
  15:lib/libdaisy/src/hid/switch.h ****     @ingroup controls
  16:lib/libdaisy/src/hid/switch.h **** */
  17:lib/libdaisy/src/hid/switch.h **** class Switch
  18:lib/libdaisy/src/hid/switch.h **** {
  19:lib/libdaisy/src/hid/switch.h ****   public:
  20:lib/libdaisy/src/hid/switch.h ****     /** Specifies the expected behavior of the switch */
  21:lib/libdaisy/src/hid/switch.h ****     enum Type
  22:lib/libdaisy/src/hid/switch.h ****     {
  23:lib/libdaisy/src/hid/switch.h ****         TYPE_TOGGLE,    /**< & */
  24:lib/libdaisy/src/hid/switch.h ****         TYPE_MOMENTARY, /**< & */
  25:lib/libdaisy/src/hid/switch.h ****     };
  26:lib/libdaisy/src/hid/switch.h ****     /** Specifies whether the pressed is HIGH or LOW. */
  27:lib/libdaisy/src/hid/switch.h ****     enum Polarity
  28:lib/libdaisy/src/hid/switch.h ****     {
  29:lib/libdaisy/src/hid/switch.h ****         POLARITY_NORMAL,   /**< & */
  30:lib/libdaisy/src/hid/switch.h ****         POLARITY_INVERTED, /**< & */
  31:lib/libdaisy/src/hid/switch.h ****     };
  32:lib/libdaisy/src/hid/switch.h **** 
  33:lib/libdaisy/src/hid/switch.h ****     /** Specifies whether to use built-in Pull Up/Down resistors to hold button at a given state wh
  34:lib/libdaisy/src/hid/switch.h ****     enum Pull
  35:lib/libdaisy/src/hid/switch.h ****     {
  36:lib/libdaisy/src/hid/switch.h ****         PULL_UP,   /**< & */
  37:lib/libdaisy/src/hid/switch.h ****         PULL_DOWN, /**< & */
  38:lib/libdaisy/src/hid/switch.h ****         PULL_NONE, /**< & */
  39:lib/libdaisy/src/hid/switch.h ****     };
  40:lib/libdaisy/src/hid/switch.h **** 
  41:lib/libdaisy/src/hid/switch.h ****     Switch() {}
ARM GAS  /var/folders/9s/8rp0_f2s1n31qbztm3b5_fdh0000gn/T//ccKcW5Fo.s 			page 5


  42:lib/libdaisy/src/hid/switch.h ****     ~Switch() {}
  43:lib/libdaisy/src/hid/switch.h **** 
  44:lib/libdaisy/src/hid/switch.h ****     /** 
  45:lib/libdaisy/src/hid/switch.h ****     Initializes the switch object with a given port/pin combo.
  46:lib/libdaisy/src/hid/switch.h ****     \param pin port/pin object to tell the switch which hardware pin to use.
  47:lib/libdaisy/src/hid/switch.h ****     \param update_rate Does nothing. Backwards compatibility until next breaking update.
  48:lib/libdaisy/src/hid/switch.h ****     \param t switch type -- Default: TYPE_MOMENTARY
  49:lib/libdaisy/src/hid/switch.h ****     \param pol switch polarity -- Default: POLARITY_INVERTED
  50:lib/libdaisy/src/hid/switch.h ****     \param pu switch pull up/down -- Default: PULL_UP
  51:lib/libdaisy/src/hid/switch.h ****     */
  52:lib/libdaisy/src/hid/switch.h ****     void
  53:lib/libdaisy/src/hid/switch.h ****     Init(dsy_gpio_pin pin, float update_rate, Type t, Polarity pol, Pull pu);
  54:lib/libdaisy/src/hid/switch.h **** 
  55:lib/libdaisy/src/hid/switch.h ****     /**
  56:lib/libdaisy/src/hid/switch.h ****        Simplified Init.
  57:lib/libdaisy/src/hid/switch.h ****        \param pin port/pin object to tell the switch which hardware pin to use.
  58:lib/libdaisy/src/hid/switch.h ****        \param update_rate Left for backwards compatibility until next breaking change.
  59:lib/libdaisy/src/hid/switch.h ****     */
  60:lib/libdaisy/src/hid/switch.h ****     void Init(dsy_gpio_pin pin, float update_rate = 0.f);
  61:lib/libdaisy/src/hid/switch.h **** 
  62:lib/libdaisy/src/hid/switch.h ****     /** 
  63:lib/libdaisy/src/hid/switch.h ****     Called at update_rate to debounce and handle timing for the switch.
  64:lib/libdaisy/src/hid/switch.h ****     In order for events not to be missed, its important that the Edge/Pressed checks
  65:lib/libdaisy/src/hid/switch.h ****     be made at the same rate as the debounce function is being called.
  66:lib/libdaisy/src/hid/switch.h ****     */
  67:lib/libdaisy/src/hid/switch.h ****     void Debounce();
  68:lib/libdaisy/src/hid/switch.h **** 
  69:lib/libdaisy/src/hid/switch.h ****     /** \return true if a button was just pressed. */
  70:lib/libdaisy/src/hid/switch.h ****     inline bool RisingEdge() const { return state_ == 0x7f; }
  94              		.loc 2 70 17 view .LVU26
  95              	.LBB25:
  96              		.loc 2 70 38 view .LVU27
  97              		.loc 2 70 45 is_stmt 0 view .LVU28
  98 004a 164B     		ldr	r3, .L13+24
  99 004c 5B79     		ldrb	r3, [r3, #5]	@ zero_extendqisi2
 100              	.LVL6:
 101              		.loc 2 70 45 view .LVU29
 102              	.LBE25:
 103              	.LBE24:
 104              		.loc 1 92 5 view .LVU30
 105 004e 7F2B     		cmp	r3, #127
 106 0050 04D1     		bne	.L3
  93:AudioProcessor.cpp ****         button_press_time = System::GetNow();
 107              		.loc 1 93 9 is_stmt 1 view .LVU31
 108              		.loc 1 93 43 is_stmt 0 view .LVU32
 109 0052 FFF7FEFF 		bl	_ZN5daisy6System6GetNowEv
 110              	.LVL7:
 111              		.loc 1 93 27 view .LVU33
 112 0056 144B     		ldr	r3, .L13+28
 113 0058 1860     		str	r0, [r3]
 114              	.L1:
 115              	.LBE23:
  94:AudioProcessor.cpp ****     }
  95:AudioProcessor.cpp ****     else if (button.Pressed() && button_press_time > 0) {
  96:AudioProcessor.cpp ****         uint32_t held_time = System::GetNow() - button_press_time;
  97:AudioProcessor.cpp ****         if (held_time > 1000 && held_time < 3000) {
  98:AudioProcessor.cpp ****             poly_engine.ResetVoices();
ARM GAS  /var/folders/9s/8rp0_f2s1n31qbztm3b5_fdh0000gn/T//ccKcW5Fo.s 			page 6


  99:AudioProcessor.cpp ****             button_press_time = 0;
 100:AudioProcessor.cpp ****         }
 101:AudioProcessor.cpp ****     }
 102:AudioProcessor.cpp **** }
 116              		.loc 1 102 1 view .LVU34
 117 005a 10BD     		pop	{r4, pc}
 118              	.L3:
  95:AudioProcessor.cpp ****         uint32_t held_time = System::GetNow() - button_press_time;
 119              		.loc 1 95 10 is_stmt 1 view .LVU35
 120              	.LVL8:
  71:lib/libdaisy/src/hid/switch.h **** 
  72:lib/libdaisy/src/hid/switch.h ****     /** \return true if the button was just released */
  73:lib/libdaisy/src/hid/switch.h ****     inline bool FallingEdge() const { return state_ == 0x80; }
  74:lib/libdaisy/src/hid/switch.h **** 
  75:lib/libdaisy/src/hid/switch.h ****     /** \return true if the button is held down (or if the toggle is on) */
  76:lib/libdaisy/src/hid/switch.h ****     inline bool Pressed() const { return state_ == 0xff; }
 121              		.loc 2 76 35 view .LVU36
 122              	.LBB28:
 123              	.LBB26:
  95:AudioProcessor.cpp ****         uint32_t held_time = System::GetNow() - button_press_time;
 124              		.loc 1 95 31 is_stmt 0 view .LVU37
 125 005c FF2B     		cmp	r3, #255
 126 005e FCD1     		bne	.L1
  95:AudioProcessor.cpp ****         uint32_t held_time = System::GetNow() - button_press_time;
 127              		.loc 1 95 52 discriminator 1 view .LVU38
 128 0060 114C     		ldr	r4, .L13+28
  95:AudioProcessor.cpp ****         uint32_t held_time = System::GetNow() - button_press_time;
 129              		.loc 1 95 31 discriminator 1 view .LVU39
 130 0062 2368     		ldr	r3, [r4]
 131 0064 002B     		cmp	r3, #0
 132 0066 F8D0     		beq	.L1
 133              	.LBB27:
  96:AudioProcessor.cpp ****         if (held_time > 1000 && held_time < 3000) {
 134              		.loc 1 96 9 is_stmt 1 view .LVU40
  96:AudioProcessor.cpp ****         if (held_time > 1000 && held_time < 3000) {
 135              		.loc 1 96 44 is_stmt 0 view .LVU41
 136 0068 FFF7FEFF 		bl	_ZN5daisy6System6GetNowEv
 137              	.LVL9:
  97:AudioProcessor.cpp ****             poly_engine.ResetVoices();
 138              		.loc 1 97 9 is_stmt 1 view .LVU42
  97:AudioProcessor.cpp ****             poly_engine.ResetVoices();
 139              		.loc 1 97 30 is_stmt 0 view .LVU43
 140 006c 2368     		ldr	r3, [r4]
 141 006e C01A     		subs	r0, r0, r3
 142              	.LVL10:
  97:AudioProcessor.cpp ****             poly_engine.ResetVoices();
 143              		.loc 1 97 30 view .LVU44
 144 0070 6FF47A73 		mvn	r3, #1000
 145 0074 1844     		add	r0, r0, r3
  97:AudioProcessor.cpp ****             poly_engine.ResetVoices();
 146              		.loc 1 97 9 view .LVU45
 147 0076 40F2CE73 		movw	r3, #1998
 148 007a 9842     		cmp	r0, r3
 149 007c EDD8     		bhi	.L1
  98:AudioProcessor.cpp ****             button_press_time = 0;
 150              		.loc 1 98 13 is_stmt 1 view .LVU46
  98:AudioProcessor.cpp ****             button_press_time = 0;
ARM GAS  /var/folders/9s/8rp0_f2s1n31qbztm3b5_fdh0000gn/T//ccKcW5Fo.s 			page 7


 151              		.loc 1 98 36 is_stmt 0 view .LVU47
 152 007e 0B48     		ldr	r0, .L13+32
 153 0080 FFF7FEFF 		bl	_ZN15PolyphonyEngine11ResetVoicesEv
 154              	.LVL11:
  99:AudioProcessor.cpp ****         }
 155              		.loc 1 99 13 is_stmt 1 view .LVU48
  99:AudioProcessor.cpp ****         }
 156              		.loc 1 99 31 is_stmt 0 view .LVU49
 157 0084 0023     		movs	r3, #0
 158 0086 2360     		str	r3, [r4]
 159              	.LBE27:
 160              	.LBE26:
 161              	.LBE28:
 162              		.loc 1 102 1 view .LVU50
 163 0088 E7E7     		b	.L1
 164              	.L14:
 165 008a 00BF     		.align	2
 166              	.L13:
 167 008c 00000000 		.word	arp_enabled
 168 0090 00000000 		.word	delay_time_val
 169 0094 00000000 		.word	arp
 170 0098 00000000 		.word	touch_cv_value
 171 009c 00000000 		.word	morph_knob_val
 172 00a0 00000000 		.word	delay_feedback_val
 173 00a4 00000000 		.word	button
 174 00a8 00000000 		.word	.LANCHOR0
 175 00ac 00000000 		.word	poly_engine
 176              		.cfi_endproc
 177              	.LFE5346:
 179              		.section	.text._Z14UpdateArpStateRiRbS_S0_,"ax",%progbits
 180              		.align	1
 181              		.global	_Z14UpdateArpStateRiRbS_S0_
 182              		.syntax unified
 183              		.thumb
 184              		.thumb_func
 186              	_Z14UpdateArpStateRiRbS_S0_:
 187              	.LVL12:
 188              	.LFB5347:
 103:AudioProcessor.cpp **** 
 104:AudioProcessor.cpp **** void UpdateArpState(int& engineIndex, bool& poly_mode, int& effective_num_voices, bool& arp_on_out)
 189              		.loc 1 104 101 is_stmt 1 view -0
 190              		.cfi_startproc
 191              		@ args = 0, pretend = 0, frame = 8
 192              		@ frame_needed = 0, uses_anonymous_args = 0
 105:AudioProcessor.cpp ****     engineIndex = DetermineEngineSettings();
 193              		.loc 1 105 5 view .LVU52
 194              	.LBB29:
 195              	.LBI29:
 106:AudioProcessor.cpp ****     poly_mode = (engineIndex <= 3);
 107:AudioProcessor.cpp ****     effective_num_voices = poly_mode ? NUM_VOICES : 1;
 108:AudioProcessor.cpp **** 
 109:AudioProcessor.cpp ****     bool current_arp_on = arp_enabled;
 110:AudioProcessor.cpp ****     if (!current_arp_on && was_arp_on) {
 111:AudioProcessor.cpp ****         poly_engine.ResetVoices();
 112:AudioProcessor.cpp ****         for (int v = 0; v < NUM_VOICES; ++v) {
 113:AudioProcessor.cpp ****         }
 114:AudioProcessor.cpp ****         poly_engine.UpdateLastTouchState(0);
ARM GAS  /var/folders/9s/8rp0_f2s1n31qbztm3b5_fdh0000gn/T//ccKcW5Fo.s 			page 8


 115:AudioProcessor.cpp ****     }
 116:AudioProcessor.cpp ****     was_arp_on = current_arp_on;
 117:AudioProcessor.cpp ****     arp_on_out = current_arp_on;
 118:AudioProcessor.cpp **** 
 119:AudioProcessor.cpp ****     if (current_arp_on) {
 120:AudioProcessor.cpp ****         arp.UpdateHeldNotes(current_touch_state, poly_engine.GetLastTouchState());
 121:AudioProcessor.cpp ****         arp.Process(BLOCK_SIZE);
 122:AudioProcessor.cpp ****     } else {
 123:AudioProcessor.cpp ****         poly_engine.HandleTouchInput(current_touch_state, poly_engine.GetLastTouchState(), engineIn
 124:AudioProcessor.cpp ****     }
 125:AudioProcessor.cpp ****     
 126:AudioProcessor.cpp ****     poly_engine.UpdateLastTouchState(current_touch_state);
 127:AudioProcessor.cpp **** }
 128:AudioProcessor.cpp **** 
 129:AudioProcessor.cpp **** void RenderVoices(int engineIndex, bool poly_mode, int effective_num_voices, bool arp_on) {
 130:AudioProcessor.cpp ****     poly_engine.RenderBlock(engineIndex, 
 131:AudioProcessor.cpp ****                               poly_mode, 
 132:AudioProcessor.cpp ****                               effective_num_voices, 
 133:AudioProcessor.cpp ****                               arp_on, 
 134:AudioProcessor.cpp ****                               pitch_val, 
 135:AudioProcessor.cpp ****                               harm_knob_val, 
 136:AudioProcessor.cpp ****                               morph_knob_val, 
 137:AudioProcessor.cpp ****                               timbre_knob_val, 
 138:AudioProcessor.cpp ****                               env_attack_val, 
 139:AudioProcessor.cpp ****                               env_release_val,
 140:AudioProcessor.cpp ****                               delay_mix_val,
 141:AudioProcessor.cpp ****                               touch_cv_value
 142:AudioProcessor.cpp ****                               );
 143:AudioProcessor.cpp **** }
 144:AudioProcessor.cpp **** 
 145:AudioProcessor.cpp **** void ApplyEffectsAndOutput(AudioHandle::InterleavingOutputBuffer out, size_t size) {
 146:AudioProcessor.cpp ****     DelayEffect::UpdateDelay();
 147:AudioProcessor.cpp ****     
 148:AudioProcessor.cpp ****     float dry_level = 1.0f - delay_mix_val;
 149:AudioProcessor.cpp ****     DelayEffect::ApplyDelayToOutput(poly_engine.GetMainOutputBuffer(), out, size, dry_level);
 150:AudioProcessor.cpp ****     
 151:AudioProcessor.cpp ****     UpdatePerformanceMonitors(size, out);
 152:AudioProcessor.cpp **** }
 153:AudioProcessor.cpp **** 
 154:AudioProcessor.cpp **** int DetermineEngineSettings() {
 196              		.loc 1 154 5 view .LVU53
 197              	.LBB30:
 155:AudioProcessor.cpp ****     return current_engine_index;
 198              		.loc 1 155 5 view .LVU54
 199              	.LBE30:
 200              	.LBE29:
 104:AudioProcessor.cpp ****     engineIndex = DetermineEngineSettings();
 201              		.loc 1 104 101 is_stmt 0 view .LVU55
 202 0000 2DE9F043 		push	{r4, r5, r6, r7, r8, r9, lr}
 203              		.cfi_def_cfa_offset 28
 204              		.cfi_offset 4, -28
 205              		.cfi_offset 5, -24
 206              		.cfi_offset 6, -20
 207              		.cfi_offset 7, -16
 208              		.cfi_offset 8, -12
 209              		.cfi_offset 9, -8
 210              		.cfi_offset 14, -4
ARM GAS  /var/folders/9s/8rp0_f2s1n31qbztm3b5_fdh0000gn/T//ccKcW5Fo.s 			page 9


 211 0004 9846     		mov	r8, r3
 212              	.LBB33:
 213              	.LBB31:
 214              		.loc 1 155 12 view .LVU56
 215 0006 274B     		ldr	r3, .L24
 216              	.LVL13:
 217              		.loc 1 155 12 view .LVU57
 218              	.LBE31:
 219              	.LBE33:
 104:AudioProcessor.cpp ****     engineIndex = DetermineEngineSettings();
 220              		.loc 1 104 101 view .LVU58
 221 0008 1646     		mov	r6, r2
 222 000a 85B0     		sub	sp, sp, #20
 223              		.cfi_def_cfa_offset 48
 224              	.LBB34:
 225              	.LBB32:
 226              		.loc 1 155 12 view .LVU59
 227 000c 1B68     		ldr	r3, [r3]
 228              	.LBE32:
 229              	.LBE34:
 104:AudioProcessor.cpp ****     engineIndex = DetermineEngineSettings();
 230              		.loc 1 104 101 view .LVU60
 231 000e 0446     		mov	r4, r0
 232 0010 0D46     		mov	r5, r1
 233 0012 DFF8A090 		ldr	r9, .L24+16
 106:AudioProcessor.cpp ****     poly_mode = (engineIndex <= 3);
 234              		.loc 1 106 30 view .LVU61
 235 0016 032B     		cmp	r3, #3
 105:AudioProcessor.cpp ****     poly_mode = (engineIndex <= 3);
 236              		.loc 1 105 17 view .LVU62
 237 0018 0360     		str	r3, [r0]
 106:AudioProcessor.cpp ****     effective_num_voices = poly_mode ? NUM_VOICES : 1;
 238              		.loc 1 106 5 is_stmt 1 view .LVU63
 106:AudioProcessor.cpp ****     effective_num_voices = poly_mode ? NUM_VOICES : 1;
 239              		.loc 1 106 30 is_stmt 0 view .LVU64
 240 001a CCBF     		ite	gt
 241 001c 0022     		movgt	r2, #0
 242              	.LVL14:
 106:AudioProcessor.cpp ****     effective_num_voices = poly_mode ? NUM_VOICES : 1;
 243              		.loc 1 106 30 view .LVU65
 244 001e 0122     		movle	r2, #1
 107:AudioProcessor.cpp **** 
 245              		.loc 1 107 38 view .LVU66
 246 0020 042B     		cmp	r3, #4
 106:AudioProcessor.cpp ****     effective_num_voices = poly_mode ? NUM_VOICES : 1;
 247              		.loc 1 106 30 view .LVU67
 248 0022 0A70     		strb	r2, [r1]
 107:AudioProcessor.cpp **** 
 249              		.loc 1 107 5 is_stmt 1 view .LVU68
 107:AudioProcessor.cpp **** 
 250              		.loc 1 107 38 is_stmt 0 view .LVU69
 251 0024 B4BF     		ite	lt
 252 0026 0423     		movlt	r3, #4
 253 0028 0123     		movge	r3, #1
 107:AudioProcessor.cpp **** 
 254              		.loc 1 107 26 view .LVU70
 255 002a 3360     		str	r3, [r6]
ARM GAS  /var/folders/9s/8rp0_f2s1n31qbztm3b5_fdh0000gn/T//ccKcW5Fo.s 			page 10


 109:AudioProcessor.cpp ****     if (!current_arp_on && was_arp_on) {
 256              		.loc 1 109 5 is_stmt 1 view .LVU71
 109:AudioProcessor.cpp ****     if (!current_arp_on && was_arp_on) {
 257              		.loc 1 109 27 is_stmt 0 view .LVU72
 258 002c 1E4B     		ldr	r3, .L24+4
 259 002e 1B78     		ldrb	r3, [r3]	@ zero_extendqisi2
 260              	.LVL15:
 110:AudioProcessor.cpp ****         poly_engine.ResetVoices();
 261              		.loc 1 110 5 is_stmt 1 view .LVU73
 262              	.LBB35:
 263 0030 03F0FF07 		and	r7, r3, #255
 264 0034 4BB9     		cbnz	r3, .L17
 110:AudioProcessor.cpp ****         poly_engine.ResetVoices();
 265              		.loc 1 110 25 is_stmt 0 discriminator 1 view .LVU74
 266 0036 99F80030 		ldrb	r3, [r9]	@ zero_extendqisi2
 267              	.LVL16:
 110:AudioProcessor.cpp ****         poly_engine.ResetVoices();
 268              		.loc 1 110 25 discriminator 1 view .LVU75
 269 003a 33B1     		cbz	r3, .L17
 270              	.LBB36:
 111:AudioProcessor.cpp ****         for (int v = 0; v < NUM_VOICES; ++v) {
 271              		.loc 1 111 9 is_stmt 1 view .LVU76
 111:AudioProcessor.cpp ****         for (int v = 0; v < NUM_VOICES; ++v) {
 272              		.loc 1 111 32 is_stmt 0 view .LVU77
 273 003c 1B48     		ldr	r0, .L24+8
 274              	.LVL17:
 111:AudioProcessor.cpp ****         for (int v = 0; v < NUM_VOICES; ++v) {
 275              		.loc 1 111 32 view .LVU78
 276 003e FFF7FEFF 		bl	_ZN15PolyphonyEngine11ResetVoicesEv
 277              	.LVL18:
 112:AudioProcessor.cpp ****         }
 278              		.loc 1 112 9 is_stmt 1 view .LVU79
 279              	.LBE36:
 280              	.LBE35:
 112:AudioProcessor.cpp ****         }
 281              		.loc 1 112 27 view .LVU80
 282              	.LBB38:
 283              	.LBB37:
 114:AudioProcessor.cpp ****     }
 284              		.loc 1 114 9 view .LVU81
 114:AudioProcessor.cpp ****     }
 285              		.loc 1 114 41 is_stmt 0 view .LVU82
 286 0042 3946     		mov	r1, r7
 287 0044 1948     		ldr	r0, .L24+8
 288 0046 FFF7FEFF 		bl	_ZN15PolyphonyEngine20UpdateLastTouchStateEt
 289              	.LVL19:
 290              	.L17:
 291              	.LBE37:
 292              	.LBE38:
 116:AudioProcessor.cpp ****     arp_on_out = current_arp_on;
 293              		.loc 1 116 5 is_stmt 1 view .LVU83
 117:AudioProcessor.cpp **** 
 294              		.loc 1 117 16 is_stmt 0 view .LVU84
 295 004a 88F80070 		strb	r7, [r8]
 296 004e DFF86880 		ldr	r8, .L24+20
 297              	.LVL20:
 120:AudioProcessor.cpp ****         arp.Process(BLOCK_SIZE);
ARM GAS  /var/folders/9s/8rp0_f2s1n31qbztm3b5_fdh0000gn/T//ccKcW5Fo.s 			page 11


 298              		.loc 1 120 28 view .LVU85
 299 0052 1648     		ldr	r0, .L24+8
 300 0054 B8F80010 		ldrh	r1, [r8]
 116:AudioProcessor.cpp ****     arp_on_out = current_arp_on;
 301              		.loc 1 116 16 view .LVU86
 302 0058 89F80070 		strb	r7, [r9]
 117:AudioProcessor.cpp **** 
 303              		.loc 1 117 5 is_stmt 1 view .LVU87
 119:AudioProcessor.cpp ****         arp.UpdateHeldNotes(current_touch_state, poly_engine.GetLastTouchState());
 304              		.loc 1 119 5 view .LVU88
 120:AudioProcessor.cpp ****         arp.Process(BLOCK_SIZE);
 305              		.loc 1 120 28 is_stmt 0 view .LVU89
 306 005c 89B2     		uxth	r1, r1
 307 005e 0391     		str	r1, [sp, #12]
 119:AudioProcessor.cpp ****         arp.UpdateHeldNotes(current_touch_state, poly_engine.GetLastTouchState());
 308              		.loc 1 119 5 view .LVU90
 309 0060 9FB1     		cbz	r7, .L18
 120:AudioProcessor.cpp ****         arp.Process(BLOCK_SIZE);
 310              		.loc 1 120 9 is_stmt 1 view .LVU91
 120:AudioProcessor.cpp ****         arp.Process(BLOCK_SIZE);
 311              		.loc 1 120 28 is_stmt 0 view .LVU92
 312 0062 FFF7FEFF 		bl	_ZNK15PolyphonyEngine17GetLastTouchStateEv
 313              	.LVL21:
 314 0066 0399     		ldr	r1, [sp, #12]
 315 0068 0246     		mov	r2, r0
 316 006a 1148     		ldr	r0, .L24+12
 317 006c FFF7FEFF 		bl	_ZN11Arpeggiator15UpdateHeldNotesEtt
 318              	.LVL22:
 121:AudioProcessor.cpp ****     } else {
 319              		.loc 1 121 9 is_stmt 1 view .LVU93
 121:AudioProcessor.cpp ****     } else {
 320              		.loc 1 121 20 is_stmt 0 view .LVU94
 321 0070 1021     		movs	r1, #16
 322 0072 0F48     		ldr	r0, .L24+12
 323 0074 FFF7FEFF 		bl	_ZN11Arpeggiator7ProcessEj
 324              	.LVL23:
 325              	.L19:
 126:AudioProcessor.cpp **** }
 326              		.loc 1 126 5 is_stmt 1 view .LVU95
 126:AudioProcessor.cpp **** }
 327              		.loc 1 126 37 is_stmt 0 view .LVU96
 328 0078 B8F80010 		ldrh	r1, [r8]
 329 007c 0B48     		ldr	r0, .L24+8
 330 007e 89B2     		uxth	r1, r1
 127:AudioProcessor.cpp **** 
 331              		.loc 1 127 1 view .LVU97
 332 0080 05B0     		add	sp, sp, #20
 333              		.cfi_remember_state
 334              		.cfi_def_cfa_offset 28
 335              		@ sp needed
 336 0082 BDE8F043 		pop	{r4, r5, r6, r7, r8, r9, lr}
 337              		.cfi_restore 14
 338              		.cfi_restore 9
 339              		.cfi_restore 8
 340              		.cfi_restore 7
 341              		.cfi_restore 6
 342              		.cfi_restore 5
ARM GAS  /var/folders/9s/8rp0_f2s1n31qbztm3b5_fdh0000gn/T//ccKcW5Fo.s 			page 12


 343              		.cfi_restore 4
 344              		.cfi_def_cfa_offset 0
 345              	.LVL24:
 126:AudioProcessor.cpp **** }
 346              		.loc 1 126 37 view .LVU98
 347 0086 FFF7FEBF 		b	_ZN15PolyphonyEngine20UpdateLastTouchStateEt
 348              	.LVL25:
 349              	.L18:
 350              		.cfi_restore_state
 123:AudioProcessor.cpp ****     }
 351              		.loc 1 123 9 is_stmt 1 view .LVU99
 123:AudioProcessor.cpp ****     }
 352              		.loc 1 123 37 is_stmt 0 view .LVU100
 353 008a FFF7FEFF 		bl	_ZNK15PolyphonyEngine17GetLastTouchStateEv
 354              	.LVL26:
 355 008e 3368     		ldr	r3, [r6]
 356 0090 0246     		mov	r2, r0
 357 0092 0399     		ldr	r1, [sp, #12]
 358 0094 0193     		str	r3, [sp, #4]
 359 0096 2B78     		ldrb	r3, [r5]	@ zero_extendqisi2
 360 0098 0448     		ldr	r0, .L24+8
 361 009a 0093     		str	r3, [sp]
 362 009c 2368     		ldr	r3, [r4]
 363 009e FFF7FEFF 		bl	_ZN15PolyphonyEngine16HandleTouchInputEttibi
 364              	.LVL27:
 365 00a2 E9E7     		b	.L19
 366              	.L25:
 367              		.align	2
 368              	.L24:
 369 00a4 00000000 		.word	.LANCHOR1
 370 00a8 00000000 		.word	arp_enabled
 371 00ac 00000000 		.word	poly_engine
 372 00b0 00000000 		.word	arp
 373 00b4 00000000 		.word	.LANCHOR2
 374 00b8 00000000 		.word	current_touch_state
 375              		.cfi_endproc
 376              	.LFE5347:
 378              		.section	.text._Z12RenderVoicesibib,"ax",%progbits
 379              		.align	1
 380              		.global	_Z12RenderVoicesibib
 381              		.syntax unified
 382              		.thumb
 383              		.thumb_func
 385              	_Z12RenderVoicesibib:
 386              	.LVL28:
 387              	.LFB5348:
 129:AudioProcessor.cpp ****     poly_engine.RenderBlock(engineIndex, 
 388              		.loc 1 129 91 is_stmt 1 view -0
 389              		.cfi_startproc
 390              		@ args = 0, pretend = 0, frame = 0
 391              		@ frame_needed = 0, uses_anonymous_args = 0
 130:AudioProcessor.cpp ****                               poly_mode, 
 392              		.loc 1 130 5 view .LVU102
 129:AudioProcessor.cpp ****     poly_engine.RenderBlock(engineIndex, 
 393              		.loc 1 129 91 is_stmt 0 view .LVU103
 394 0000 13B5     		push	{r0, r1, r4, lr}
 395              		.cfi_def_cfa_offset 16
ARM GAS  /var/folders/9s/8rp0_f2s1n31qbztm3b5_fdh0000gn/T//ccKcW5Fo.s 			page 13


 396              		.cfi_offset 4, -8
 397              		.cfi_offset 14, -4
 130:AudioProcessor.cpp ****                               poly_mode, 
 398              		.loc 1 130 28 view .LVU104
 399 0002 0093     		str	r3, [sp]
 400 0004 0F4B     		ldr	r3, .L27
 401              	.LVL29:
 130:AudioProcessor.cpp ****                               poly_mode, 
 402              		.loc 1 130 28 view .LVU105
 403 0006 104C     		ldr	r4, .L27+4
 404 0008 93ED003A 		vldr.32	s6, [r3]
 405 000c 0F4B     		ldr	r3, .L27+8
 406 000e D4ED003A 		vldr.32	s7, [r4]
 407 0012 D3ED002A 		vldr.32	s5, [r3]
 408 0016 0E4B     		ldr	r3, .L27+12
 409 0018 93ED002A 		vldr.32	s4, [r3]
 410 001c 0D4B     		ldr	r3, .L27+16
 411 001e D3ED001A 		vldr.32	s3, [r3]
 412 0022 0D4B     		ldr	r3, .L27+20
 413 0024 93ED001A 		vldr.32	s2, [r3]
 414 0028 0C4B     		ldr	r3, .L27+24
 415 002a D3ED000A 		vldr.32	s1, [r3]
 416 002e 0C4B     		ldr	r3, .L27+28
 417 0030 93ED000A 		vldr.32	s0, [r3]
 418 0034 1346     		mov	r3, r2
 419 0036 0A46     		mov	r2, r1
 420              	.LVL30:
 130:AudioProcessor.cpp ****                               poly_mode, 
 421              		.loc 1 130 28 view .LVU106
 422 0038 0146     		mov	r1, r0
 423              	.LVL31:
 130:AudioProcessor.cpp ****                               poly_mode, 
 424              		.loc 1 130 28 view .LVU107
 425 003a 0A48     		ldr	r0, .L27+32
 426              	.LVL32:
 130:AudioProcessor.cpp ****                               poly_mode, 
 427              		.loc 1 130 28 view .LVU108
 428 003c FFF7FEFF 		bl	_ZN15PolyphonyEngine11RenderBlockEibibffffffff
 429              	.LVL33:
 143:AudioProcessor.cpp **** 
 430              		.loc 1 143 1 view .LVU109
 431 0040 02B0     		add	sp, sp, #8
 432              		.cfi_def_cfa_offset 8
 433              		@ sp needed
 434 0042 10BD     		pop	{r4, pc}
 435              	.L28:
 436              		.align	2
 437              	.L27:
 438 0044 00000000 		.word	delay_mix_val
 439 0048 00000000 		.word	touch_cv_value
 440 004c 00000000 		.word	env_release_val
 441 0050 00000000 		.word	env_attack_val
 442 0054 00000000 		.word	timbre_knob_val
 443 0058 00000000 		.word	morph_knob_val
 444 005c 00000000 		.word	harm_knob_val
 445 0060 00000000 		.word	pitch_val
 446 0064 00000000 		.word	poly_engine
ARM GAS  /var/folders/9s/8rp0_f2s1n31qbztm3b5_fdh0000gn/T//ccKcW5Fo.s 			page 14


 447              		.cfi_endproc
 448              	.LFE5348:
 450              		.section	.text._Z23DetermineEngineSettingsv,"ax",%progbits
 451              		.align	1
 452              		.global	_Z23DetermineEngineSettingsv
 453              		.syntax unified
 454              		.thumb
 455              		.thumb_func
 457              	_Z23DetermineEngineSettingsv:
 458              	.LFB5350:
 154:AudioProcessor.cpp ****     return current_engine_index;
 459              		.loc 1 154 31 is_stmt 1 view -0
 460              		.cfi_startproc
 461              		@ args = 0, pretend = 0, frame = 0
 462              		@ frame_needed = 0, uses_anonymous_args = 0
 463              		@ link register save eliminated.
 464              		.loc 1 155 5 view .LVU111
 465              		.loc 1 155 12 is_stmt 0 view .LVU112
 466 0000 014B     		ldr	r3, .L30
 467 0002 1868     		ldr	r0, [r3]
 156:AudioProcessor.cpp **** }
 468              		.loc 1 156 1 view .LVU113
 469 0004 7047     		bx	lr
 470              	.L31:
 471 0006 00BF     		.align	2
 472              	.L30:
 473 0008 00000000 		.word	.LANCHOR1
 474              		.cfi_endproc
 475              	.LFE5350:
 477              		.section	.text._Z25UpdatePerformanceMonitorsjPf,"ax",%progbits
 478              		.align	1
 479              		.global	_Z25UpdatePerformanceMonitorsjPf
 480              		.syntax unified
 481              		.thumb
 482              		.thumb_func
 484              	_Z25UpdatePerformanceMonitorsjPf:
 485              	.LVL34:
 486              	.LFB5351:
 157:AudioProcessor.cpp **** 
 158:AudioProcessor.cpp **** void UpdatePerformanceMonitors(size_t size, AudioHandle::InterleavingOutputBuffer out) {
 487              		.loc 1 158 88 is_stmt 1 view -0
 488              		.cfi_startproc
 489              		@ args = 0, pretend = 0, frame = 0
 490              		@ frame_needed = 0, uses_anonymous_args = 0
 159:AudioProcessor.cpp ****     if (size > 0) {
 491              		.loc 1 159 5 view .LVU115
 158:AudioProcessor.cpp ****     if (size > 0) {
 492              		.loc 1 158 88 is_stmt 0 view .LVU116
 493 0000 38B5     		push	{r3, r4, r5, lr}
 494              		.cfi_def_cfa_offset 16
 495              		.cfi_offset 3, -16
 496              		.cfi_offset 4, -12
 497              		.cfi_offset 5, -8
 498              		.cfi_offset 14, -4
 499              	.LBB39:
 500              		.loc 1 159 5 view .LVU117
 501 0002 80B1     		cbz	r0, .L33
ARM GAS  /var/folders/9s/8rp0_f2s1n31qbztm3b5_fdh0000gn/T//ccKcW5Fo.s 			page 15


 502              	.LBB40:
 160:AudioProcessor.cpp ****         float current_level = fabsf(out[0]);
 503              		.loc 1 160 9 is_stmt 1 view .LVU118
 504              	.LVL35:
 161:AudioProcessor.cpp ****         smoothed_output_level = smoothed_output_level * 0.99f + current_level * 0.01f;
 505              		.loc 1 161 9 view .LVU119
 160:AudioProcessor.cpp ****         float current_level = fabsf(out[0]);
 506              		.loc 1 160 15 is_stmt 0 view .LVU120
 507 0004 D1ED007A 		vldr.32	s15, [r1]
 508              		.loc 1 161 79 view .LVU121
 509 0008 9FED1C7A 		vldr.32	s14, .L44
 160:AudioProcessor.cpp ****         float current_level = fabsf(out[0]);
 510              		.loc 1 160 15 view .LVU122
 511 000c F0EEE77A 		vabs.f32	s15, s15
 512              	.LVL36:
 513              		.loc 1 161 33 view .LVU123
 514 0010 1B4B     		ldr	r3, .L44+4
 515 0012 D3ED006A 		vldr.32	s13, [r3]
 516              		.loc 1 161 79 view .LVU124
 517 0016 67EE877A 		vmul.f32	s15, s15, s14
 518              	.LVL37:
 519              		.loc 1 161 63 view .LVU125
 520 001a 9FED1A7A 		vldr.32	s14, .L44+8
 521 001e E6EE877A 		vfma.f32	s15, s13, s14
 522              		.loc 1 161 31 view .LVU126
 523 0022 C3ED007A 		vstr.32	s15, [r3]
 524              	.LVL38:
 525              	.L33:
 526              		.loc 1 161 31 view .LVU127
 527              	.LBE40:
 528              	.LBE39:
 162:AudioProcessor.cpp ****     }
 163:AudioProcessor.cpp **** 
 164:AudioProcessor.cpp ****     static uint32_t display_counter = 0;
 529              		.loc 1 164 5 is_stmt 1 view .LVU128
 165:AudioProcessor.cpp ****     static const uint32_t display_interval_blocks = (uint32_t)(sample_rate / BLOCK_SIZE * 3.0f);
 530              		.loc 1 165 5 view .LVU129
 531              		.loc 1 165 95 is_stmt 0 view .LVU130
 532 0026 184C     		ldr	r4, .L44+12
 533 0028 184D     		ldr	r5, .L44+16
 534 002a 2378     		ldrb	r3, [r4]	@ zero_extendqisi2
 535 002c BFF35B8F 		dmb	ish
 536 0030 13F0010F 		tst	r3, #1
 537 0034 15D1     		bne	.L35
 538              		.loc 1 165 95 discriminator 1 view .LVU131
 539 0036 2046     		mov	r0, r4
 540              	.LVL39:
 541              		.loc 1 165 95 discriminator 1 view .LVU132
 542 0038 FFF7FEFF 		bl	__cxa_guard_acquire
 543              	.LVL40:
 544              		.loc 1 165 95 discriminator 1 view .LVU133
 545 003c 88B1     		cbz	r0, .L35
 546              		.loc 1 165 76 discriminator 2 view .LVU134
 547 003e 144B     		ldr	r3, .L44+20
 548              		.loc 1 165 95 discriminator 2 view .LVU135
 549 0040 2046     		mov	r0, r4
 550              		.loc 1 165 76 discriminator 2 view .LVU136
ARM GAS  /var/folders/9s/8rp0_f2s1n31qbztm3b5_fdh0000gn/T//ccKcW5Fo.s 			page 16


 551 0042 9FED147A 		vldr.32	s14, .L44+24
 552 0046 D3ED007A 		vldr.32	s15, [r3]
 553 004a 67EE877A 		vmul.f32	s15, s15, s14
 554              		.loc 1 165 89 discriminator 2 view .LVU137
 555 004e B0EE087A 		vmov.f32	s14, #3.0e+0
 556 0052 67EE877A 		vmul.f32	s15, s15, s14
 557              		.loc 1 165 53 discriminator 2 view .LVU138
 558 0056 FCEEE77A 		vcvt.u32.f32	s15, s15
 559 005a C5ED007A 		vstr.32	s15, [r5]	@ int
 560              		.loc 1 165 95 discriminator 2 view .LVU139
 561 005e FFF7FEFF 		bl	__cxa_guard_release
 562              	.LVL41:
 563              	.L35:
 166:AudioProcessor.cpp ****     if (++display_counter >= display_interval_blocks) {
 564              		.loc 1 166 5 is_stmt 1 view .LVU140
 565              		.loc 1 166 9 is_stmt 0 view .LVU141
 566 0062 0D4A     		ldr	r2, .L44+28
 567              		.loc 1 166 5 view .LVU142
 568 0064 2968     		ldr	r1, [r5]
 569              		.loc 1 166 9 view .LVU143
 570 0066 1368     		ldr	r3, [r2]
 571 0068 0133     		adds	r3, r3, #1
 572              		.loc 1 166 5 view .LVU144
 573 006a 8B42     		cmp	r3, r1
 574              		.loc 1 166 27 view .LVU145
 575 006c 1360     		str	r3, [r2]
 576              		.loc 1 166 5 view .LVU146
 577 006e 04D3     		bcc	.L32
 167:AudioProcessor.cpp ****         display_counter = 0;
 578              		.loc 1 167 9 is_stmt 1 view .LVU147
 579              		.loc 1 167 25 is_stmt 0 view .LVU148
 580 0070 0023     		movs	r3, #0
 581 0072 1360     		str	r3, [r2]
 168:AudioProcessor.cpp ****         update_display = true;
 582              		.loc 1 168 9 is_stmt 1 view .LVU149
 583              		.loc 1 168 24 is_stmt 0 view .LVU150
 584 0074 0122     		movs	r2, #1
 585 0076 094B     		ldr	r3, .L44+32
 586 0078 1A70     		strb	r2, [r3]
 587              	.L32:
 169:AudioProcessor.cpp ****     }
 170:AudioProcessor.cpp **** } ...
 588              		.loc 1 170 1 view .LVU151
 589 007a 38BD     		pop	{r3, r4, r5, pc}
 590              	.L45:
 591              		.align	2
 592              	.L44:
 593 007c 0AD7233C 		.word	1008981770
 594 0080 00000000 		.word	smoothed_output_level
 595 0084 A4707D3F 		.word	1065185444
 596 0088 00000000 		.word	.LANCHOR3
 597 008c 00000000 		.word	.LANCHOR4
 598 0090 00000000 		.word	sample_rate
 599 0094 0000803D 		.word	1031798784
 600 0098 00000000 		.word	.LANCHOR5
 601 009c 00000000 		.word	update_display
 602              		.cfi_endproc
ARM GAS  /var/folders/9s/8rp0_f2s1n31qbztm3b5_fdh0000gn/T//ccKcW5Fo.s 			page 17


 603              	.LFE5351:
 605              		.section	.text._Z21ApplyEffectsAndOutputPfj,"ax",%progbits
 606              		.align	1
 607              		.global	_Z21ApplyEffectsAndOutputPfj
 608              		.syntax unified
 609              		.thumb
 610              		.thumb_func
 612              	_Z21ApplyEffectsAndOutputPfj:
 613              	.LVL42:
 614              	.LFB5349:
 145:AudioProcessor.cpp **** void ApplyEffectsAndOutput(AudioHandle::InterleavingOutputBuffer out, size_t size) {
 615              		.loc 1 145 84 is_stmt 1 view -0
 616              		.cfi_startproc
 617              		@ args = 0, pretend = 0, frame = 0
 618              		@ frame_needed = 0, uses_anonymous_args = 0
 146:AudioProcessor.cpp ****     DelayEffect::UpdateDelay();
 619              		.loc 1 146 5 view .LVU153
 145:AudioProcessor.cpp **** void ApplyEffectsAndOutput(AudioHandle::InterleavingOutputBuffer out, size_t size) {
 620              		.loc 1 145 84 is_stmt 0 view .LVU154
 621 0000 38B5     		push	{r3, r4, r5, lr}
 622              		.cfi_def_cfa_offset 16
 623              		.cfi_offset 3, -16
 624              		.cfi_offset 4, -12
 625              		.cfi_offset 5, -8
 626              		.cfi_offset 14, -4
 145:AudioProcessor.cpp **** void ApplyEffectsAndOutput(AudioHandle::InterleavingOutputBuffer out, size_t size) {
 627              		.loc 1 145 84 view .LVU155
 628 0002 0546     		mov	r5, r0
 629 0004 0C46     		mov	r4, r1
 146:AudioProcessor.cpp ****     DelayEffect::UpdateDelay();
 630              		.loc 1 146 29 view .LVU156
 631 0006 FFF7FEFF 		bl	_ZN11DelayEffect11UpdateDelayEv
 632              	.LVL43:
 148:AudioProcessor.cpp ****     float dry_level = 1.0f - delay_mix_val;
 633              		.loc 1 148 5 is_stmt 1 view .LVU157
 149:AudioProcessor.cpp ****     DelayEffect::ApplyDelayToOutput(poly_engine.GetMainOutputBuffer(), out, size, dry_level);
 634              		.loc 1 149 5 view .LVU158
 635              	.LBB41:
 636              	.LBI41:
 637              		.file 3 "Polyphony.h"
   1:Polyphony.h   **** #ifndef POLYPHONY_H
   2:Polyphony.h   **** #define POLYPHONY_H
   3:Polyphony.h   **** 
   4:Polyphony.h   **** #include "daisy_seed.h"
   5:Polyphony.h   **** #include "plaits/dsp/voice.h" // For plaits::Voice, plaits::Patch, plaits::Modulations
   6:Polyphony.h   **** #include "VoiceEnvelope.h"    // For VoiceEnvelope
   7:Polyphony.h   **** #include "Thaumazein.h"       // For NUM_VOICES, BLOCK_SIZE, SAMPLE_RATE
   8:Polyphony.h   **** #include "stmlib/utils/buffer_allocator.h" // Trying this again - should be relative to -Ieurorack 
   9:Polyphony.h   **** // #include "stmlib/stmlib.h" // Trying this again - should be relative to -Ieurorack path
  10:Polyphony.h   **** 
  11:Polyphony.h   **** // Forward declaration if Thaumazein.h is not included directly or for specific types
  12:Polyphony.h   **** // class Thaumazein; 
  13:Polyphony.h   **** 
  14:Polyphony.h   **** // Forward declare stmlib namespace and MonoBlockAllocator class
  15:Polyphony.h   **** namespace stmlib {
  16:Polyphony.h   ****     class MonoBlockAllocator;
  17:Polyphony.h   **** }
ARM GAS  /var/folders/9s/8rp0_f2s1n31qbztm3b5_fdh0000gn/T//ccKcW5Fo.s 			page 18


  18:Polyphony.h   **** 
  19:Polyphony.h   **** namespace plaits {
  20:Polyphony.h   ****     class Voice;
  21:Polyphony.h   **** }
  22:Polyphony.h   **** 
  23:Polyphony.h   **** class PolyphonyEngine {
  24:Polyphony.h   **** public:
  25:Polyphony.h   ****     PolyphonyEngine();
  26:Polyphony.h   ****     ~PolyphonyEngine();
  27:Polyphony.h   **** 
  28:Polyphony.h   ****     void Init(daisy::DaisySeed* hw); // Pass hardware reference if needed for initialization (e.g. 
  29:Polyphony.h   ****     void HandleTouchInput(uint16_t current_touch_state, uint16_t last_touch_state, int engine_index
  30:Polyphony.h   ****     void RenderBlock(int engine_index, bool poly_mode, int effective_num_voices, bool arp_on, float
  31:Polyphony.h   ****     void ResetVoices();
  32:Polyphony.h   ****     
  33:Polyphony.h   ****     // Method for Arpeggiator to trigger notes
  34:Polyphony.h   ****     void TriggerArpNote(int voice_index, float note, float strength, int engine_index, bool percuss
  35:Polyphony.h   **** 
  36:Polyphony.h   ****     // Access to mixed output if PolyphonyEngine handles mixing internally
  37:Polyphony.h   ****     // Or methods to get individual voice outputs if mixing happens externally
  38:Polyphony.h   ****     const float* GetMainOutputBuffer() const { return mix_buffer_out_; }
 638              		.loc 3 38 18 view .LVU159
 639              	.LBE41:
 640              		.loc 3 38 48 view .LVU160
 148:AudioProcessor.cpp ****     float dry_level = 1.0f - delay_mix_val;
 641              		.loc 1 148 11 is_stmt 0 view .LVU161
 642 000a 094B     		ldr	r3, .L47
 643              	.LVL44:
 149:AudioProcessor.cpp ****     DelayEffect::ApplyDelayToOutput(poly_engine.GetMainOutputBuffer(), out, size, dry_level);
 644              		.loc 1 149 36 view .LVU162
 645 000c B7EE000A 		vmov.f32	s0, #1.0e+0
 646 0010 2946     		mov	r1, r5
 148:AudioProcessor.cpp ****     float dry_level = 1.0f - delay_mix_val;
 647              		.loc 1 148 11 view .LVU163
 648 0012 D3ED007A 		vldr.32	s15, [r3]
 149:AudioProcessor.cpp ****     DelayEffect::ApplyDelayToOutput(poly_engine.GetMainOutputBuffer(), out, size, dry_level);
 649              		.loc 1 149 36 view .LVU164
 650 0016 2246     		mov	r2, r4
 651 0018 0648     		ldr	r0, .L47+4
 652 001a 30EE670A 		vsub.f32	s0, s0, s15
 653              	.LVL45:
 149:AudioProcessor.cpp ****     DelayEffect::ApplyDelayToOutput(poly_engine.GetMainOutputBuffer(), out, size, dry_level);
 654              		.loc 1 149 36 view .LVU165
 655 001e FFF7FEFF 		bl	_ZN11DelayEffect18ApplyDelayToOutputEPKfPfjf
 656              	.LVL46:
 151:AudioProcessor.cpp ****     UpdatePerformanceMonitors(size, out);
 657              		.loc 1 151 5 is_stmt 1 view .LVU166
 151:AudioProcessor.cpp ****     UpdatePerformanceMonitors(size, out);
 658              		.loc 1 151 30 is_stmt 0 view .LVU167
 659 0022 2946     		mov	r1, r5
 660 0024 2046     		mov	r0, r4
 152:AudioProcessor.cpp **** }
 661              		.loc 1 152 1 view .LVU168
 662 0026 BDE83840 		pop	{r3, r4, r5, lr}
 663              		.cfi_restore 14
 664              		.cfi_restore 5
 665              		.cfi_restore 4
ARM GAS  /var/folders/9s/8rp0_f2s1n31qbztm3b5_fdh0000gn/T//ccKcW5Fo.s 			page 19


 666              		.cfi_restore 3
 667              		.cfi_def_cfa_offset 0
 668              	.LVL47:
 151:AudioProcessor.cpp ****     UpdatePerformanceMonitors(size, out);
 669              		.loc 1 151 30 view .LVU169
 670 002a FFF7FEBF 		b	_Z25UpdatePerformanceMonitorsjPf
 671              	.LVL48:
 672              	.L48:
 151:AudioProcessor.cpp ****     UpdatePerformanceMonitors(size, out);
 673              		.loc 1 151 30 view .LVU170
 674 002e 00BF     		.align	2
 675              	.L47:
 676 0030 00000000 		.word	delay_mix_val
 677 0034 243A0000 		.word	poly_engine+14884
 678              		.cfi_endproc
 679              	.LFE5349:
 681              		.section	.rodata._Z13AudioCallbackPKfPfj.str1.1,"aMS",%progbits,1
 682              	.LC0:
 683 0000 5B417564 		.ascii	"[AudioCallback] Enter\000"
 683      696F4361 
 683      6C6C6261 
 683      636B5D20 
 683      456E7465 
 684              		.section	.text._Z13AudioCallbackPKfPfj,"ax",%progbits
 685              		.align	1
 686              		.global	_Z13AudioCallbackPKfPfj
 687              		.syntax unified
 688              		.thumb
 689              		.thumb_func
 691              	_Z13AudioCallbackPKfPfj:
 692              	.LVL49:
 693              	.LFB5345:
  45:AudioProcessor.cpp ****                  size_t size) {
 694              		.loc 1 45 31 is_stmt 1 view -0
 695              		.cfi_startproc
 696              		@ args = 0, pretend = 0, frame = 16
 697              		@ frame_needed = 0, uses_anonymous_args = 0
  46:AudioProcessor.cpp ****     static bool audio_cb_started = false;
 698              		.loc 1 46 5 view .LVU172
  47:AudioProcessor.cpp ****     if(!audio_cb_started) {
 699              		.loc 1 47 5 view .LVU173
  45:AudioProcessor.cpp ****                  size_t size) {
 700              		.loc 1 45 31 is_stmt 0 view .LVU174
 701 0000 2DE9F043 		push	{r4, r5, r6, r7, r8, r9, lr}
 702              		.cfi_def_cfa_offset 28
 703              		.cfi_offset 4, -28
 704              		.cfi_offset 5, -24
 705              		.cfi_offset 6, -20
 706              		.cfi_offset 7, -16
 707              		.cfi_offset 8, -12
 708              		.cfi_offset 9, -8
 709              		.cfi_offset 14, -4
  47:AudioProcessor.cpp ****     if(!audio_cb_started) {
 710              		.loc 1 47 8 view .LVU175
 711 0004 394C     		ldr	r4, .L63
  45:AudioProcessor.cpp ****                  size_t size) {
 712              		.loc 1 45 31 view .LVU176
ARM GAS  /var/folders/9s/8rp0_f2s1n31qbztm3b5_fdh0000gn/T//ccKcW5Fo.s 			page 20


 713 0006 85B0     		sub	sp, sp, #20
 714              		.cfi_def_cfa_offset 48
  45:AudioProcessor.cpp ****                  size_t size) {
 715              		.loc 1 45 31 view .LVU177
 716 0008 0D46     		mov	r5, r1
 717 000a 1646     		mov	r6, r2
  47:AudioProcessor.cpp ****     if(!audio_cb_started) {
 718              		.loc 1 47 5 view .LVU178
 719 000c 2378     		ldrb	r3, [r4]	@ zero_extendqisi2
 720 000e 23B9     		cbnz	r3, .L50
  48:AudioProcessor.cpp ****         hw.PrintLine("[AudioCallback] Enter");
 721              		.loc 1 48 9 is_stmt 1 view .LVU179
 722              	.LVL50:
 723              	.LBB48:
 724              	.LBI48:
 725              		.file 4 "lib/libdaisy/src/daisy_seed.h"
   1:lib/libdaisy/src/daisy_seed.h **** #pragma once
   2:lib/libdaisy/src/daisy_seed.h **** #ifndef DSY_SEED_H
   3:lib/libdaisy/src/daisy_seed.h **** #define DSY_SEED_H
   4:lib/libdaisy/src/daisy_seed.h **** 
   5:lib/libdaisy/src/daisy_seed.h **** #include "daisy.h"
   6:lib/libdaisy/src/daisy_seed.h **** 
   7:lib/libdaisy/src/daisy_seed.h **** //Uncomment this out if you're still using the rev2 hardware
   8:lib/libdaisy/src/daisy_seed.h **** //#define SEED_REV2
   9:lib/libdaisy/src/daisy_seed.h **** 
  10:lib/libdaisy/src/daisy_seed.h **** namespace daisy
  11:lib/libdaisy/src/daisy_seed.h **** {
  12:lib/libdaisy/src/daisy_seed.h **** /**
  13:lib/libdaisy/src/daisy_seed.h ****    @brief This is the higher-level interface for the Daisy board. \n 
  14:lib/libdaisy/src/daisy_seed.h ****     All basic peripheral configuration/initialization is setup here. \n
  15:lib/libdaisy/src/daisy_seed.h **** 
  16:lib/libdaisy/src/daisy_seed.h ****    @ingroup boards
  17:lib/libdaisy/src/daisy_seed.h **** */
  18:lib/libdaisy/src/daisy_seed.h **** class DaisySeed
  19:lib/libdaisy/src/daisy_seed.h **** {
  20:lib/libdaisy/src/daisy_seed.h ****   public:
  21:lib/libdaisy/src/daisy_seed.h ****     DaisySeed() {}
  22:lib/libdaisy/src/daisy_seed.h ****     ~DaisySeed() {}
  23:lib/libdaisy/src/daisy_seed.h **** 
  24:lib/libdaisy/src/daisy_seed.h ****     /** This function used to provide a pre-initialization configuraiton 
  25:lib/libdaisy/src/daisy_seed.h ****      *  it has since been deprecated, and does nothing.
  26:lib/libdaisy/src/daisy_seed.h ****      */
  27:lib/libdaisy/src/daisy_seed.h ****     void Configure();
  28:lib/libdaisy/src/daisy_seed.h **** 
  29:lib/libdaisy/src/daisy_seed.h ****     /** 
  30:lib/libdaisy/src/daisy_seed.h ****     Initializes the Daisy Seed and the following peripherals:
  31:lib/libdaisy/src/daisy_seed.h ****     SDRAM, QSPI, 24-bit 48kHz Audio via AK4556, Internal USB,
  32:lib/libdaisy/src/daisy_seed.h ****     as well as the built-in LED and Testpoint.
  33:lib/libdaisy/src/daisy_seed.h **** 
  34:lib/libdaisy/src/daisy_seed.h ****     ADCs, DACs, and other special peripherals (such as I2C, SPI, etc.)
  35:lib/libdaisy/src/daisy_seed.h ****     can be initialized using their specific initializers within libdaisy
  36:lib/libdaisy/src/daisy_seed.h ****     for a specific application.
  37:lib/libdaisy/src/daisy_seed.h ****     */
  38:lib/libdaisy/src/daisy_seed.h ****     void Init(bool boost = false);
  39:lib/libdaisy/src/daisy_seed.h **** 
  40:lib/libdaisy/src/daisy_seed.h ****     /** 
  41:lib/libdaisy/src/daisy_seed.h ****     Deinitializes all peripherals automatically handled by `Init`.
ARM GAS  /var/folders/9s/8rp0_f2s1n31qbztm3b5_fdh0000gn/T//ccKcW5Fo.s 			page 21


  42:lib/libdaisy/src/daisy_seed.h ****     */
  43:lib/libdaisy/src/daisy_seed.h ****     void DeInit();
  44:lib/libdaisy/src/daisy_seed.h **** 
  45:lib/libdaisy/src/daisy_seed.h ****     /** 
  46:lib/libdaisy/src/daisy_seed.h ****     Wait some ms before going on.
  47:lib/libdaisy/src/daisy_seed.h ****     \param del Delay time in ms.
  48:lib/libdaisy/src/daisy_seed.h ****     */
  49:lib/libdaisy/src/daisy_seed.h ****     void DelayMs(size_t del);
  50:lib/libdaisy/src/daisy_seed.h **** 
  51:lib/libdaisy/src/daisy_seed.h ****     /** 
  52:lib/libdaisy/src/daisy_seed.h ****     Returns the gpio_pin corresponding to the index 0-31.
  53:lib/libdaisy/src/daisy_seed.h ****     For the given GPIO on the Daisy Seed (labeled 1-32 in docs).
  54:lib/libdaisy/src/daisy_seed.h ****     */
  55:lib/libdaisy/src/daisy_seed.h ****     static dsy_gpio_pin GetPin(uint8_t pin_idx);
  56:lib/libdaisy/src/daisy_seed.h **** 
  57:lib/libdaisy/src/daisy_seed.h ****     /** Begins the audio for the seeds builtin audio.
  58:lib/libdaisy/src/daisy_seed.h ****     the specified callback will get called whenever
  59:lib/libdaisy/src/daisy_seed.h ****     new data is ready to be prepared.
  60:lib/libdaisy/src/daisy_seed.h ****     */
  61:lib/libdaisy/src/daisy_seed.h ****     void StartAudio(AudioHandle::InterleavingAudioCallback cb);
  62:lib/libdaisy/src/daisy_seed.h **** 
  63:lib/libdaisy/src/daisy_seed.h ****     /** Begins the audio for the seeds builtin audio.
  64:lib/libdaisy/src/daisy_seed.h ****     the specified callback will get called whenever
  65:lib/libdaisy/src/daisy_seed.h ****     new data is ready to be prepared.
  66:lib/libdaisy/src/daisy_seed.h ****     This will use the newer non-interleaved callback.
  67:lib/libdaisy/src/daisy_seed.h ****     */
  68:lib/libdaisy/src/daisy_seed.h ****     void StartAudio(AudioHandle::AudioCallback cb);
  69:lib/libdaisy/src/daisy_seed.h **** 
  70:lib/libdaisy/src/daisy_seed.h ****     /** Changes to a new interleaved callback
  71:lib/libdaisy/src/daisy_seed.h ****      */
  72:lib/libdaisy/src/daisy_seed.h ****     void ChangeAudioCallback(AudioHandle::InterleavingAudioCallback cb);
  73:lib/libdaisy/src/daisy_seed.h **** 
  74:lib/libdaisy/src/daisy_seed.h ****     /** Changes to a new multichannel callback
  75:lib/libdaisy/src/daisy_seed.h ****      */
  76:lib/libdaisy/src/daisy_seed.h ****     void ChangeAudioCallback(AudioHandle::AudioCallback cb);
  77:lib/libdaisy/src/daisy_seed.h **** 
  78:lib/libdaisy/src/daisy_seed.h ****     /** Stops the audio if it is running. */
  79:lib/libdaisy/src/daisy_seed.h ****     void StopAudio();
  80:lib/libdaisy/src/daisy_seed.h **** 
  81:lib/libdaisy/src/daisy_seed.h ****     /** Updates the Audio Sample Rate, and reinitializes.
  82:lib/libdaisy/src/daisy_seed.h ****      ** Audio must be stopped for this to work.
  83:lib/libdaisy/src/daisy_seed.h ****      */
  84:lib/libdaisy/src/daisy_seed.h ****     void SetAudioSampleRate(SaiHandle::Config::SampleRate samplerate);
  85:lib/libdaisy/src/daisy_seed.h **** 
  86:lib/libdaisy/src/daisy_seed.h ****     /** Returns the audio sample rate in Hz as a floating point number.
  87:lib/libdaisy/src/daisy_seed.h ****      */
  88:lib/libdaisy/src/daisy_seed.h ****     float AudioSampleRate();
  89:lib/libdaisy/src/daisy_seed.h **** 
  90:lib/libdaisy/src/daisy_seed.h ****     /** Sets the number of samples processed per channel by the audio callback.
  91:lib/libdaisy/src/daisy_seed.h ****      */
  92:lib/libdaisy/src/daisy_seed.h ****     void SetAudioBlockSize(size_t blocksize);
  93:lib/libdaisy/src/daisy_seed.h **** 
  94:lib/libdaisy/src/daisy_seed.h ****     /** Returns the number of samples per channel in a block of audio. */
  95:lib/libdaisy/src/daisy_seed.h ****     size_t AudioBlockSize();
  96:lib/libdaisy/src/daisy_seed.h **** 
  97:lib/libdaisy/src/daisy_seed.h ****     /** Returns the rate in Hz that the Audio callback is called */
  98:lib/libdaisy/src/daisy_seed.h ****     float AudioCallbackRate() const;
ARM GAS  /var/folders/9s/8rp0_f2s1n31qbztm3b5_fdh0000gn/T//ccKcW5Fo.s 			page 22


  99:lib/libdaisy/src/daisy_seed.h **** 
 100:lib/libdaisy/src/daisy_seed.h ****     /** Sets the state of the built in LED
 101:lib/libdaisy/src/daisy_seed.h ****      */
 102:lib/libdaisy/src/daisy_seed.h ****     void SetLed(bool state);
 103:lib/libdaisy/src/daisy_seed.h **** 
 104:lib/libdaisy/src/daisy_seed.h ****     /** Sets the state of the test point near pin 10
 105:lib/libdaisy/src/daisy_seed.h ****      */
 106:lib/libdaisy/src/daisy_seed.h ****     void SetTestPoint(bool state);
 107:lib/libdaisy/src/daisy_seed.h **** 
 108:lib/libdaisy/src/daisy_seed.h ****     /** Print formatted debug log message
 109:lib/libdaisy/src/daisy_seed.h ****      */
 110:lib/libdaisy/src/daisy_seed.h ****     template <typename... VA>
 111:lib/libdaisy/src/daisy_seed.h ****     static void Print(const char* format, VA... va)
 112:lib/libdaisy/src/daisy_seed.h ****     {
 113:lib/libdaisy/src/daisy_seed.h ****         Log::Print(format, va...);
 114:lib/libdaisy/src/daisy_seed.h ****     }
 115:lib/libdaisy/src/daisy_seed.h **** 
 116:lib/libdaisy/src/daisy_seed.h ****     /** Print formatted debug log message with automatic line termination
 117:lib/libdaisy/src/daisy_seed.h ****     */
 118:lib/libdaisy/src/daisy_seed.h ****     template <typename... VA>
 119:lib/libdaisy/src/daisy_seed.h ****     static void PrintLine(const char* format, VA... va)
 726              		.loc 4 119 17 view .LVU180
 727              	.LBB49:
 120:lib/libdaisy/src/daisy_seed.h ****     {
 121:lib/libdaisy/src/daisy_seed.h ****         Log::PrintLine(format, va...);
 728              		.loc 4 121 23 is_stmt 0 view .LVU181
 729 0010 3748     		ldr	r0, .L63+4
 730              	.LVL51:
 731              		.loc 4 121 23 view .LVU182
 732 0012 FFF7FEFF 		bl	_ZN5daisy6LoggerILNS_17LoggerDestinationE1EE9PrintLineEPKcz
 733              	.LVL52:
 734              		.loc 4 121 23 view .LVU183
 735              	.LBE49:
 736              	.LBE48:
  49:AudioProcessor.cpp ****         audio_cb_started = true;
 737              		.loc 1 49 9 is_stmt 1 view .LVU184
  49:AudioProcessor.cpp ****         audio_cb_started = true;
 738              		.loc 1 49 26 is_stmt 0 view .LVU185
 739 0016 0123     		movs	r3, #1
 740 0018 2370     		strb	r3, [r4]
 741              	.L50:
  51:AudioProcessor.cpp ****     cpu_meter.OnBlockStart(); // Mark the beginning of the audio block
 742              		.loc 1 51 5 is_stmt 1 view .LVU186
 743              	.LVL53:
 744              	.LBB50:
 745              	.LBI50:
 746              		.file 5 "lib/libdaisy/src/util/CpuLoadMeter.h"
   1:lib/libdaisy/src/util/CpuLoadMeter.h **** #pragma once
   2:lib/libdaisy/src/util/CpuLoadMeter.h **** 
   3:lib/libdaisy/src/util/CpuLoadMeter.h **** #include "sys/system.h"
   4:lib/libdaisy/src/util/CpuLoadMeter.h **** #include <cmath>
   5:lib/libdaisy/src/util/CpuLoadMeter.h **** 
   6:lib/libdaisy/src/util/CpuLoadMeter.h **** namespace daisy
   7:lib/libdaisy/src/util/CpuLoadMeter.h **** {
   8:lib/libdaisy/src/util/CpuLoadMeter.h **** /** @brief CPU load metering
   9:lib/libdaisy/src/util/CpuLoadMeter.h ****  *  @author jelliesen
  10:lib/libdaisy/src/util/CpuLoadMeter.h ****  *  @addtogroup utility
ARM GAS  /var/folders/9s/8rp0_f2s1n31qbztm3b5_fdh0000gn/T//ccKcW5Fo.s 			page 23


  11:lib/libdaisy/src/util/CpuLoadMeter.h ****  * 
  12:lib/libdaisy/src/util/CpuLoadMeter.h ****  *  To measure the CPU load of your audio processing, create a CpuLoadMeter
  13:lib/libdaisy/src/util/CpuLoadMeter.h ****  *  and initialize it with your block size and sample rate.
  14:lib/libdaisy/src/util/CpuLoadMeter.h ****  *  Then at the beginning of the audio callback, call `OnBlockStart()`, 
  15:lib/libdaisy/src/util/CpuLoadMeter.h ****  *  and at the end of the audio callback, call `OnBlockEnd()`.
  16:lib/libdaisy/src/util/CpuLoadMeter.h ****  *  You can then read out the minimum, maximum and average CPU load.
  17:lib/libdaisy/src/util/CpuLoadMeter.h ****  */
  18:lib/libdaisy/src/util/CpuLoadMeter.h **** class CpuLoadMeter
  19:lib/libdaisy/src/util/CpuLoadMeter.h **** {
  20:lib/libdaisy/src/util/CpuLoadMeter.h ****   public:
  21:lib/libdaisy/src/util/CpuLoadMeter.h ****     CpuLoadMeter(){};
  22:lib/libdaisy/src/util/CpuLoadMeter.h **** 
  23:lib/libdaisy/src/util/CpuLoadMeter.h ****     /** Initializes the CpuLoadMeter for a particular sample rate and block size.
  24:lib/libdaisy/src/util/CpuLoadMeter.h ****      *  @param sampleRateInHz           The sample rate in Hz
  25:lib/libdaisy/src/util/CpuLoadMeter.h ****      *  @param blockSizeInSamples       The block size in samples
  26:lib/libdaisy/src/util/CpuLoadMeter.h ****      *  @param smoothingFilterCutoffHz  The cutoff frequency of the smoothing filter that's used to
  27:lib/libdaisy/src/util/CpuLoadMeter.h ****      *                                  create the average CPU load reading.
  28:lib/libdaisy/src/util/CpuLoadMeter.h ****      */
  29:lib/libdaisy/src/util/CpuLoadMeter.h ****     void Init(float sampleRateInHz,
  30:lib/libdaisy/src/util/CpuLoadMeter.h ****               int   blockSizeInSamples,
  31:lib/libdaisy/src/util/CpuLoadMeter.h ****               float smoothingFilterCutoffHz = 1.0f)
  32:lib/libdaisy/src/util/CpuLoadMeter.h ****     {
  33:lib/libdaisy/src/util/CpuLoadMeter.h ****         const auto secPerBlock = float(blockSizeInSamples) / sampleRateInHz;
  34:lib/libdaisy/src/util/CpuLoadMeter.h ****         const auto ticksPerS   = float(System::GetTickFreq());
  35:lib/libdaisy/src/util/CpuLoadMeter.h ****         ticksPerBlockInv_      = 1.0f / (ticksPerS * secPerBlock);
  36:lib/libdaisy/src/util/CpuLoadMeter.h **** 
  37:lib/libdaisy/src/util/CpuLoadMeter.h ****         // update filter coefficient for smoothing filter (1pole lowpass)
  38:lib/libdaisy/src/util/CpuLoadMeter.h ****         const auto blockRateInHz = sampleRateInHz / float(blockSizeInSamples);
  39:lib/libdaisy/src/util/CpuLoadMeter.h ****         const auto cutoffNormalized
  40:lib/libdaisy/src/util/CpuLoadMeter.h ****             = smoothingFilterCutoffHz * 2.0f * 3.141592653f / blockRateInHz;
  41:lib/libdaisy/src/util/CpuLoadMeter.h ****         // according to
  42:lib/libdaisy/src/util/CpuLoadMeter.h ****         // https://en.wikipedia.org/wiki/Low-pass_filter#Simple_infinite_impulse_response_filter
  43:lib/libdaisy/src/util/CpuLoadMeter.h ****         smoothingConstant_ = cutoffNormalized / (cutoffNormalized + 1.0f);
  44:lib/libdaisy/src/util/CpuLoadMeter.h **** 
  45:lib/libdaisy/src/util/CpuLoadMeter.h ****         Reset();
  46:lib/libdaisy/src/util/CpuLoadMeter.h ****     }
  47:lib/libdaisy/src/util/CpuLoadMeter.h **** 
  48:lib/libdaisy/src/util/CpuLoadMeter.h ****     /** Call this at the beginning of your audio callback */
  49:lib/libdaisy/src/util/CpuLoadMeter.h ****     void OnBlockStart() { currentBlockStartTicks_ = System::GetTick(); }
 747              		.loc 5 49 10 view .LVU187
 748              	.LBB51:
 749              		.loc 5 49 27 view .LVU188
 750              		.loc 5 49 51 is_stmt 0 view .LVU189
 751 001a 364C     		ldr	r4, .L63+8
 752              		.loc 5 49 68 view .LVU190
 753 001c FFF7FEFF 		bl	_ZN5daisy6System7GetTickEv
 754              	.LVL54:
 755              	.LBE51:
 756              	.LBE50:
  63:AudioProcessor.cpp ****     if(engine_changed_flag) {
 757              		.loc 1 63 8 view .LVU191
 758 0020 354F     		ldr	r7, .L63+12
 759              	.LBB53:
 760              	.LBB52:
 761              		.loc 5 49 51 view .LVU192
 762 0022 A060     		str	r0, [r4, #8]
 763              	.LVL55:
ARM GAS  /var/folders/9s/8rp0_f2s1n31qbztm3b5_fdh0000gn/T//ccKcW5Fo.s 			page 24


 764              		.loc 5 49 51 view .LVU193
 765              	.LBE52:
 766              	.LBE53:
  54:AudioProcessor.cpp ****     int engineIndex;
 767              		.loc 1 54 5 is_stmt 1 view .LVU194
  55:AudioProcessor.cpp ****     bool poly_mode;
 768              		.loc 1 55 5 view .LVU195
  56:AudioProcessor.cpp ****     int effective_num_voices;
 769              		.loc 1 56 5 view .LVU196
  57:AudioProcessor.cpp ****     bool arp_on;
 770              		.loc 1 57 5 view .LVU197
  59:AudioProcessor.cpp ****     ProcessUIAndControls();
 771              		.loc 1 59 5 view .LVU198
  59:AudioProcessor.cpp ****     ProcessUIAndControls();
 772              		.loc 1 59 25 is_stmt 0 view .LVU199
 773 0024 FFF7FEFF 		bl	_Z20ProcessUIAndControlsv
 774              	.LVL56:
  62:AudioProcessor.cpp ****     static int prev_engine_index_static = 0;
 775              		.loc 1 62 5 is_stmt 1 view .LVU200
  63:AudioProcessor.cpp ****     if(engine_changed_flag) {
 776              		.loc 1 63 5 view .LVU201
  63:AudioProcessor.cpp ****     if(engine_changed_flag) {
 777              		.loc 1 63 8 is_stmt 0 view .LVU202
 778 0028 3B78     		ldrb	r3, [r7]	@ zero_extendqisi2
  63:AudioProcessor.cpp ****     if(engine_changed_flag) {
 779              		.loc 1 63 5 view .LVU203
 780 002a 83B1     		cbz	r3, .L51
  64:AudioProcessor.cpp ****         poly_engine.OnEngineChange(prev_engine_index_static, current_engine_index);
 781              		.loc 1 64 9 is_stmt 1 view .LVU204
  64:AudioProcessor.cpp ****         poly_engine.OnEngineChange(prev_engine_index_static, current_engine_index);
 782              		.loc 1 64 35 is_stmt 0 view .LVU205
 783 002c DFF8D090 		ldr	r9, .L63+20
 784 0030 DFF8D080 		ldr	r8, .L63+24
 785 0034 D9F80020 		ldr	r2, [r9]
 786 0038 D8F80010 		ldr	r1, [r8]
 787 003c 2F48     		ldr	r0, .L63+16
 788 003e FFF7FEFF 		bl	_ZN15PolyphonyEngine14OnEngineChangeEii
 789              	.LVL57:
  65:AudioProcessor.cpp ****         prev_engine_index_static = current_engine_index;
 790              		.loc 1 65 9 is_stmt 1 view .LVU206
  65:AudioProcessor.cpp ****         prev_engine_index_static = current_engine_index;
 791              		.loc 1 65 34 is_stmt 0 view .LVU207
 792 0042 D9F80030 		ldr	r3, [r9]
 793 0046 C8F80030 		str	r3, [r8]
  66:AudioProcessor.cpp ****         engine_changed_flag = false; // Clear flag after handling
 794              		.loc 1 66 9 is_stmt 1 view .LVU208
  66:AudioProcessor.cpp ****         engine_changed_flag = false; // Clear flag after handling
 795              		.loc 1 66 29 is_stmt 0 view .LVU209
 796 004a 0023     		movs	r3, #0
 797 004c 3B70     		strb	r3, [r7]
 798              	.L51:
  69:AudioProcessor.cpp ****     UpdateArpState(engineIndex, poly_mode, effective_num_voices, arp_on);
 799              		.loc 1 69 5 is_stmt 1 view .LVU210
  69:AudioProcessor.cpp ****     UpdateArpState(engineIndex, poly_mode, effective_num_voices, arp_on);
 800              		.loc 1 69 19 is_stmt 0 view .LVU211
 801 004e 0DF10703 		add	r3, sp, #7
 802 0052 03AA     		add	r2, sp, #12
ARM GAS  /var/folders/9s/8rp0_f2s1n31qbztm3b5_fdh0000gn/T//ccKcW5Fo.s 			page 25


 803 0054 0DF10601 		add	r1, sp, #6
 804 0058 02A8     		add	r0, sp, #8
 805 005a FFF7FEFF 		bl	_Z14UpdateArpStateRiRbS_S0_
 806              	.LVL58:
  70:AudioProcessor.cpp ****     RenderVoices(engineIndex, poly_mode, effective_num_voices, arp_on);
 807              		.loc 1 70 5 is_stmt 1 view .LVU212
  70:AudioProcessor.cpp ****     RenderVoices(engineIndex, poly_mode, effective_num_voices, arp_on);
 808              		.loc 1 70 17 is_stmt 0 view .LVU213
 809 005e 9DF80730 		ldrb	r3, [sp, #7]	@ zero_extendqisi2
 810 0062 039A     		ldr	r2, [sp, #12]
 811 0064 9DF80610 		ldrb	r1, [sp, #6]	@ zero_extendqisi2
 812 0068 0298     		ldr	r0, [sp, #8]
 813 006a FFF7FEFF 		bl	_Z12RenderVoicesibib
 814              	.LVL59:
  71:AudioProcessor.cpp ****     ApplyEffectsAndOutput(out, size);
 815              		.loc 1 71 5 is_stmt 1 view .LVU214
  71:AudioProcessor.cpp ****     ApplyEffectsAndOutput(out, size);
 816              		.loc 1 71 26 is_stmt 0 view .LVU215
 817 006e 3146     		mov	r1, r6
 818 0070 2846     		mov	r0, r5
 819 0072 FFF7FEFF 		bl	_Z21ApplyEffectsAndOutputPfj
 820              	.LVL60:
  73:AudioProcessor.cpp ****     cpu_meter.OnBlockEnd(); // Mark the end of the audio block
 821              		.loc 1 73 5 is_stmt 1 view .LVU216
 822              	.LBB54:
 823              	.LBI54:
  50:lib/libdaisy/src/util/CpuLoadMeter.h **** 
  51:lib/libdaisy/src/util/CpuLoadMeter.h ****     /** Call this at the end of your audio callback */
  52:lib/libdaisy/src/util/CpuLoadMeter.h ****     void OnBlockEnd()
 824              		.loc 5 52 10 view .LVU217
 825              	.LBB55:
  53:lib/libdaisy/src/util/CpuLoadMeter.h ****     {
  54:lib/libdaisy/src/util/CpuLoadMeter.h ****         const auto end         = System::GetTick();
 826              		.loc 5 54 9 view .LVU218
 827              		.loc 5 54 49 is_stmt 0 view .LVU219
 828 0076 FFF7FEFF 		bl	_ZN5daisy6System7GetTickEv
 829              	.LVL61:
  55:lib/libdaisy/src/util/CpuLoadMeter.h ****         const auto ticksPassed = end - currentBlockStartTicks_;
 830              		.loc 5 55 9 is_stmt 1 view .LVU220
  56:lib/libdaisy/src/util/CpuLoadMeter.h ****         const auto currentBlockLoad
 831              		.loc 5 56 9 view .LVU221
  55:lib/libdaisy/src/util/CpuLoadMeter.h ****         const auto ticksPassed = end - currentBlockStartTicks_;
 832              		.loc 5 55 20 is_stmt 0 view .LVU222
 833 007a A368     		ldr	r3, [r4, #8]
 834              		.loc 5 56 20 view .LVU223
 835 007c 94ED017A 		vldr.32	s14, [r4, #4]
  55:lib/libdaisy/src/util/CpuLoadMeter.h ****         const auto ticksPassed = end - currentBlockStartTicks_;
 836              		.loc 5 55 20 view .LVU224
 837 0080 C31A     		subs	r3, r0, r3
 838              	.LVL62:
  55:lib/libdaisy/src/util/CpuLoadMeter.h ****         const auto ticksPassed = end - currentBlockStartTicks_;
 839              		.loc 5 55 20 view .LVU225
 840 0082 07EE903A 		vmov	s15, r3	@ int
  57:lib/libdaisy/src/util/CpuLoadMeter.h ****             = float(ticksPassed) * ticksPerBlockInv_; // usPassed / usPerBlock
  58:lib/libdaisy/src/util/CpuLoadMeter.h **** 
  59:lib/libdaisy/src/util/CpuLoadMeter.h ****         if(firstCycle_)
 841              		.loc 5 59 9 view .LVU226
ARM GAS  /var/folders/9s/8rp0_f2s1n31qbztm3b5_fdh0000gn/T//ccKcW5Fo.s 			page 26


 842 0086 2378     		ldrb	r3, [r4]	@ zero_extendqisi2
 843              	.LVL63:
  57:lib/libdaisy/src/util/CpuLoadMeter.h ****             = float(ticksPassed) * ticksPerBlockInv_; // usPassed / usPerBlock
 844              		.loc 5 57 15 view .LVU227
 845 0088 F8EE677A 		vcvt.f32.u32	s15, s15
 846              	.LVL64:
  56:lib/libdaisy/src/util/CpuLoadMeter.h ****         const auto currentBlockLoad
 847              		.loc 5 56 20 view .LVU228
 848 008c 67EE877A 		vmul.f32	s15, s15, s14
 849              	.LVL65:
 850              		.loc 5 59 9 is_stmt 1 view .LVU229
 851 0090 53B1     		cbz	r3, .L52
  60:lib/libdaisy/src/util/CpuLoadMeter.h ****         {
  61:lib/libdaisy/src/util/CpuLoadMeter.h ****             max_ = min_ = avg_ = currentBlockLoad;
 852              		.loc 5 61 13 view .LVU230
  62:lib/libdaisy/src/util/CpuLoadMeter.h ****             firstCycle_        = false;
 853              		.loc 5 62 32 is_stmt 0 view .LVU231
 854 0092 0023     		movs	r3, #0
  61:lib/libdaisy/src/util/CpuLoadMeter.h ****             firstCycle_        = false;
 855              		.loc 5 61 32 view .LVU232
 856 0094 C4ED057A 		vstr.32	s15, [r4, #20]
  61:lib/libdaisy/src/util/CpuLoadMeter.h ****             firstCycle_        = false;
 857              		.loc 5 61 25 view .LVU233
 858 0098 C4ED037A 		vstr.32	s15, [r4, #12]
  61:lib/libdaisy/src/util/CpuLoadMeter.h ****             firstCycle_        = false;
 859              		.loc 5 61 18 view .LVU234
 860 009c C4ED047A 		vstr.32	s15, [r4, #16]
 861              		.loc 5 62 13 is_stmt 1 view .LVU235
 862              		.loc 5 62 32 is_stmt 0 view .LVU236
 863 00a0 2370     		strb	r3, [r4]
 864              	.LVL66:
 865              	.L49:
 866              		.loc 5 62 32 view .LVU237
 867              	.LBE55:
 868              	.LBE54:
  74:AudioProcessor.cpp **** }
 869              		.loc 1 74 1 view .LVU238
 870 00a2 05B0     		add	sp, sp, #20
 871              		.cfi_remember_state
 872              		.cfi_def_cfa_offset 28
 873              		@ sp needed
 874 00a4 BDE8F083 		pop	{r4, r5, r6, r7, r8, r9, pc}
 875              	.LVL67:
 876              	.L52:
 877              		.cfi_restore_state
 878              	.LBB57:
 879              	.LBB56:
  63:lib/libdaisy/src/util/CpuLoadMeter.h ****         }
  64:lib/libdaisy/src/util/CpuLoadMeter.h ****         else
  65:lib/libdaisy/src/util/CpuLoadMeter.h ****         {
  66:lib/libdaisy/src/util/CpuLoadMeter.h ****             if(currentBlockLoad > max_)
 880              		.loc 5 66 13 is_stmt 1 view .LVU239
 881 00a8 94ED047A 		vldr.32	s14, [r4, #16]
  67:lib/libdaisy/src/util/CpuLoadMeter.h ****                 max_ = currentBlockLoad;
  68:lib/libdaisy/src/util/CpuLoadMeter.h ****             if(currentBlockLoad < min_)
  69:lib/libdaisy/src/util/CpuLoadMeter.h ****                 min_ = currentBlockLoad;
  70:lib/libdaisy/src/util/CpuLoadMeter.h **** 
ARM GAS  /var/folders/9s/8rp0_f2s1n31qbztm3b5_fdh0000gn/T//ccKcW5Fo.s 			page 27


  71:lib/libdaisy/src/util/CpuLoadMeter.h ****             avg_ = smoothingConstant_ * currentBlockLoad
 882              		.loc 5 71 20 is_stmt 0 view .LVU240
 883 00ac D4ED066A 		vldr.32	s13, [r4, #24]
  66:lib/libdaisy/src/util/CpuLoadMeter.h ****                 max_ = currentBlockLoad;
 884              		.loc 5 66 13 view .LVU241
 885 00b0 F4EEC77A 		vcmpe.f32	s15, s14
  68:lib/libdaisy/src/util/CpuLoadMeter.h ****                 min_ = currentBlockLoad;
 886              		.loc 5 68 13 view .LVU242
 887 00b4 94ED037A 		vldr.32	s14, [r4, #12]
  72:lib/libdaisy/src/util/CpuLoadMeter.h ****                    + (1.0f - smoothingConstant_) * avg_;
 888              		.loc 5 72 50 view .LVU243
 889 00b8 94ED056A 		vldr.32	s12, [r4, #20]
  66:lib/libdaisy/src/util/CpuLoadMeter.h ****                 max_ = currentBlockLoad;
 890              		.loc 5 66 13 view .LVU244
 891 00bc F1EE10FA 		vmrs	APSR_nzcv, FPSCR
  67:lib/libdaisy/src/util/CpuLoadMeter.h ****             if(currentBlockLoad < min_)
 892              		.loc 5 67 17 is_stmt 1 view .LVU245
  68:lib/libdaisy/src/util/CpuLoadMeter.h ****                 min_ = currentBlockLoad;
 893              		.loc 5 68 13 is_stmt 0 view .LVU246
 894 00c0 F4EEC77A 		vcmpe.f32	s15, s14
 895              		.loc 5 72 28 view .LVU247
 896 00c4 B7EE007A 		vmov.f32	s14, #1.0e+0
  67:lib/libdaisy/src/util/CpuLoadMeter.h ****             if(currentBlockLoad < min_)
 897              		.loc 5 67 22 view .LVU248
 898 00c8 C8BF     		it	gt
 899 00ca C4ED047A 		vstrgt.32	s15, [r4, #16]
  68:lib/libdaisy/src/util/CpuLoadMeter.h ****                 min_ = currentBlockLoad;
 900              		.loc 5 68 13 is_stmt 1 view .LVU249
 901 00ce F1EE10FA 		vmrs	APSR_nzcv, FPSCR
  69:lib/libdaisy/src/util/CpuLoadMeter.h **** 
 902              		.loc 5 69 17 view .LVU250
 903              		.loc 5 72 28 is_stmt 0 view .LVU251
 904 00d2 37EE667A 		vsub.f32	s14, s14, s13
  69:lib/libdaisy/src/util/CpuLoadMeter.h **** 
 905              		.loc 5 69 22 view .LVU252
 906 00d6 48BF     		it	mi
 907 00d8 C4ED037A 		vstrmi.32	s15, [r4, #12]
  71:lib/libdaisy/src/util/CpuLoadMeter.h ****                    + (1.0f - smoothingConstant_) * avg_;
 908              		.loc 5 71 13 is_stmt 1 view .LVU253
 909              		.loc 5 72 50 is_stmt 0 view .LVU254
 910 00dc 27EE067A 		vmul.f32	s14, s14, s12
 911              		.loc 5 72 20 view .LVU255
 912 00e0 A7EEA67A 		vfma.f32	s14, s15, s13
  71:lib/libdaisy/src/util/CpuLoadMeter.h ****                    + (1.0f - smoothingConstant_) * avg_;
 913              		.loc 5 71 18 view .LVU256
 914 00e4 84ED057A 		vstr.32	s14, [r4, #20]
 915              	.LVL68:
  71:lib/libdaisy/src/util/CpuLoadMeter.h ****                    + (1.0f - smoothingConstant_) * avg_;
 916              		.loc 5 71 18 view .LVU257
 917              	.LBE56:
 918              	.LBE57:
  74:AudioProcessor.cpp **** }
 919              		.loc 1 74 1 view .LVU258
 920 00e8 DBE7     		b	.L49
 921              	.L64:
 922 00ea 00BF     		.align	2
 923              	.L63:
ARM GAS  /var/folders/9s/8rp0_f2s1n31qbztm3b5_fdh0000gn/T//ccKcW5Fo.s 			page 28


 924 00ec 00000000 		.word	.LANCHOR6
 925 00f0 00000000 		.word	.LC0
 926 00f4 00000000 		.word	.LANCHOR7
 927 00f8 00000000 		.word	.LANCHOR8
 928 00fc 00000000 		.word	poly_engine
 929 0100 00000000 		.word	.LANCHOR1
 930 0104 00000000 		.word	.LANCHOR9
 931              		.cfi_endproc
 932              	.LFE5345:
 934              		.global	engine_retrigger_phase
 935              		.global	engine_changed_flag
 936              		.global	current_engine_index
 937              		.global	cpu_meter
 938              		.section	.bss._ZGVZ25UpdatePerformanceMonitorsjPfE23display_interval_blocks,"aw",%nobits
 939              		.align	2
 940              		.set	.LANCHOR3,. + 0
 943              	_ZGVZ25UpdatePerformanceMonitorsjPfE23display_interval_blocks:
 944 0000 00000000 		.space	4
 945              		.section	.bss._ZL10was_arp_on,"aw",%nobits
 946              		.set	.LANCHOR2,. + 0
 949              	_ZL10was_arp_on:
 950 0000 00       		.space	1
 951              		.section	.bss._ZL17button_press_time,"aw",%nobits
 952              		.align	2
 953              		.set	.LANCHOR0,. + 0
 956              	_ZL17button_press_time:
 957 0000 00000000 		.space	4
 958              		.section	.bss._ZZ13AudioCallbackPKfPfjE16audio_cb_started,"aw",%nobits
 959              		.set	.LANCHOR6,. + 0
 962              	_ZZ13AudioCallbackPKfPfjE16audio_cb_started:
 963 0000 00       		.space	1
 964              		.section	.bss._ZZ13AudioCallbackPKfPfjE24prev_engine_index_static,"aw",%nobits
 965              		.align	2
 966              		.set	.LANCHOR9,. + 0
 969              	_ZZ13AudioCallbackPKfPfjE24prev_engine_index_static:
 970 0000 00000000 		.space	4
 971              		.section	.bss._ZZ25UpdatePerformanceMonitorsjPfE15display_counter,"aw",%nobits
 972              		.align	2
 973              		.set	.LANCHOR5,. + 0
 976              	_ZZ25UpdatePerformanceMonitorsjPfE15display_counter:
 977 0000 00000000 		.space	4
 978              		.section	.bss._ZZ25UpdatePerformanceMonitorsjPfE23display_interval_blocks,"aw",%nobits
 979              		.align	2
 980              		.set	.LANCHOR4,. + 0
 983              	_ZZ25UpdatePerformanceMonitorsjPfE23display_interval_blocks:
 984 0000 00000000 		.space	4
 985              		.section	.bss.cpu_meter,"aw",%nobits
 986              		.align	2
 987              		.set	.LANCHOR7,. + 0
 990              	cpu_meter:
 991 0000 00000000 		.space	28
 991      00000000 
 991      00000000 
 991      00000000 
 991      00000000 
 992              		.section	.bss.current_engine_index,"aw",%nobits
 993              		.align	2
ARM GAS  /var/folders/9s/8rp0_f2s1n31qbztm3b5_fdh0000gn/T//ccKcW5Fo.s 			page 29


 994              		.set	.LANCHOR1,. + 0
 997              	current_engine_index:
 998 0000 00000000 		.space	4
 999              		.section	.bss.engine_changed_flag,"aw",%nobits
 1000              		.set	.LANCHOR8,. + 0
 1003              	engine_changed_flag:
 1004 0000 00       		.space	1
 1005              		.section	.bss.engine_retrigger_phase,"aw",%nobits
 1006              		.align	2
 1009              	engine_retrigger_phase:
 1010 0000 00000000 		.space	4
 1011              		.text
 1012              	.Letext0:
 1013              		.file 6 "/Library/DaisyToolchain/0.2.0/arm/arm-none-eabi/include/machine/_default_types.h"
 1014              		.file 7 "/Library/DaisyToolchain/0.2.0/arm/arm-none-eabi/include/sys/_stdint.h"
 1015              		.file 8 "/Library/DaisyToolchain/0.2.0/arm/arm-none-eabi/include/stdint.h"
 1016              		.file 9 "/Library/DaisyToolchain/0.2.0/arm/lib/gcc/arm-none-eabi/10.3.1/include/stddef.h"
 1017              		.file 10 "/Library/DaisyToolchain/0.2.0/arm/arm-none-eabi/include/c++/10.3.1/cmath"
 1018              		.file 11 "/Library/DaisyToolchain/0.2.0/arm/arm-none-eabi/include/c++/10.3.1/bits/std_abs.h"
 1019              		.file 12 "/Library/DaisyToolchain/0.2.0/arm/arm-none-eabi/include/c++/10.3.1/cstdlib"
 1020              		.file 13 "/Library/DaisyToolchain/0.2.0/arm/arm-none-eabi/include/c++/10.3.1/cstdint"
 1021              		.file 14 "/Library/DaisyToolchain/0.2.0/arm/arm-none-eabi/include/c++/10.3.1/type_traits"
 1022              		.file 15 "/Library/DaisyToolchain/0.2.0/arm/arm-none-eabi/include/c++/10.3.1/arm-none-eabi/thumb/v
 1023              		.file 16 "/Library/DaisyToolchain/0.2.0/arm/arm-none-eabi/include/c++/10.3.1/bits/stl_pair.h"
 1024              		.file 17 "/Library/DaisyToolchain/0.2.0/arm/arm-none-eabi/include/c++/10.3.1/debug/debug.h"
 1025              		.file 18 "/Library/DaisyToolchain/0.2.0/arm/arm-none-eabi/include/c++/10.3.1/bits/algorithmfwd.h"
 1026              		.file 19 "/Library/DaisyToolchain/0.2.0/arm/arm-none-eabi/include/c++/10.3.1/bits/exception_ptr.h"
 1027              		.file 20 "/Library/DaisyToolchain/0.2.0/arm/arm-none-eabi/include/c++/10.3.1/cstdarg"
 1028              		.file 21 "/Library/DaisyToolchain/0.2.0/arm/arm-none-eabi/include/c++/10.3.1/cstdio"
 1029              		.file 22 "/Library/DaisyToolchain/0.2.0/arm/arm-none-eabi/include/c++/10.3.1/cstring"
 1030              		.file 23 "/Library/DaisyToolchain/0.2.0/arm/arm-none-eabi/include/c++/10.3.1/cwchar"
 1031              		.file 24 "/Library/DaisyToolchain/0.2.0/arm/arm-none-eabi/include/c++/10.3.1/clocale"
 1032              		.file 25 "/Library/DaisyToolchain/0.2.0/arm/arm-none-eabi/include/c++/10.3.1/bits/basic_string.h"
 1033              		.file 26 "/Library/DaisyToolchain/0.2.0/arm/arm-none-eabi/include/c++/10.3.1/bits/stl_iterator.h"
 1034              		.file 27 "/Library/DaisyToolchain/0.2.0/arm/arm-none-eabi/include/c++/10.3.1/bits/uses_allocator.h
 1035              		.file 28 "/Library/DaisyToolchain/0.2.0/arm/arm-none-eabi/include/c++/10.3.1/tuple"
 1036              		.file 29 "/Library/DaisyToolchain/0.2.0/arm/arm-none-eabi/include/c++/10.3.1/bits/std_function.h"
 1037              		.file 30 "/Library/DaisyToolchain/0.2.0/arm/arm-none-eabi/include/c++/10.3.1/functional"
 1038              		.file 31 "/Library/DaisyToolchain/0.2.0/arm/arm-none-eabi/include/c++/10.3.1/bits/allocator.h"
 1039              		.file 32 "/Library/DaisyToolchain/0.2.0/arm/arm-none-eabi/include/c++/10.3.1/bits/alloc_traits.h"
 1040              		.file 33 "/Library/DaisyToolchain/0.2.0/arm/arm-none-eabi/include/c++/10.3.1/bits/stl_vector.h"
 1041              		.file 34 "/Library/DaisyToolchain/0.2.0/arm/arm-none-eabi/include/c++/10.3.1/bits/vector.tcc"
 1042              		.file 35 "/Library/DaisyToolchain/0.2.0/arm/arm-none-eabi/include/c++/10.3.1/bits/stl_function.h"
 1043              		.file 36 "/Library/DaisyToolchain/0.2.0/arm/arm-none-eabi/include/c++/10.3.1/bits/refwrap.h"
 1044              		.file 37 "/Library/DaisyToolchain/0.2.0/arm/arm-none-eabi/include/c++/10.3.1/cstddef"
 1045              		.file 38 "/Library/DaisyToolchain/0.2.0/arm/arm-none-eabi/include/c++/10.3.1/bits/predefined_ops.h
 1046              		.file 39 "/Library/DaisyToolchain/0.2.0/arm/arm-none-eabi/include/c++/10.3.1/ext/new_allocator.h"
 1047              		.file 40 "/Library/DaisyToolchain/0.2.0/arm/arm-none-eabi/include/c++/10.3.1/ext/alloc_traits.h"
 1048              		.file 41 "/Library/DaisyToolchain/0.2.0/arm/arm-none-eabi/include/sys/_types.h"
 1049              		.file 42 "/Library/DaisyToolchain/0.2.0/arm/arm-none-eabi/include/sys/reent.h"
 1050              		.file 43 "/Library/DaisyToolchain/0.2.0/arm/arm-none-eabi/include/sys/lock.h"
 1051              		.file 44 "/Library/DaisyToolchain/0.2.0/arm/arm-none-eabi/include/math.h"
 1052              		.file 45 "/Library/DaisyToolchain/0.2.0/arm/arm-none-eabi/include/stdlib.h"
 1053              		.file 46 "/Library/DaisyToolchain/0.2.0/arm/arm-none-eabi/include/c++/10.3.1/math.h"
 1054              		.file 47 "/Library/DaisyToolchain/0.2.0/arm/arm-none-eabi/include/c++/10.3.1/stdlib.h"
 1055              		.file 48 "lib/libdaisy/src/daisy_core.h"
 1056              		.file 49 "lib/libdaisy/src/per/tim.h"
ARM GAS  /var/folders/9s/8rp0_f2s1n31qbztm3b5_fdh0000gn/T//ccKcW5Fo.s 			page 30


 1057              		.file 50 "lib/libdaisy/src/sys/system.h"
 1058              		.file 51 "lib/libdaisy/src/per/qspi.h"
 1059              		.file 52 "lib/libdaisy/src/per/dac.h"
 1060              		.file 53 "lib/libdaisy/src/per/sai.h"
 1061              		.file 54 "lib/libdaisy/src/hid/audio.h"
 1062              		.file 55 "lib/libdaisy/src/per/adc.h"
 1063              		.file 56 "lib/libdaisy/src/hid/usb.h"
 1064              		.file 57 "lib/libdaisy/src/hid/logger_impl.h"
 1065              		.file 58 "lib/libdaisy/src/util/wav_format.h"
 1066              		.file 59 "lib/libdaisy/src/hid/logger.h"
 1067              		.file 60 "lib/libdaisy/src/per/gpio.h"
 1068              		.file 61 "lib/libdaisy/src/dev/sdram.h"
 1069              		.file 62 "/Library/DaisyToolchain/0.2.0/arm/lib/gcc/arm-none-eabi/10.3.1/include/stdarg.h"
 1070              		.file 63 "/Library/DaisyToolchain/0.2.0/arm/arm-none-eabi/include/stdio.h"
 1071              		.file 64 "/Library/DaisyToolchain/0.2.0/arm/arm-none-eabi/include/string.h"
 1072              		.file 65 "lib/DaisySP/Source/Control/adenv.h"
 1073              		.file 66 "lib/DaisySP/Source/Utility/dsp.h"
 1074              		.file 67 "lib/DaisySP/Source/Utility/metro.h"
 1075              		.file 68 "/Library/DaisyToolchain/0.2.0/arm/arm-none-eabi/include/wchar.h"
 1076              		.file 69 "/Library/DaisyToolchain/0.2.0/arm/arm-none-eabi/include/locale.h"
 1077              		.file 70 "eurorack/stmlib/stmlib.h"
 1078              		.file 71 "eurorack/stmlib/dsp/filter.h"
 1079              		.file 72 "eurorack/stmlib/dsp/limiter.h"
 1080              		.file 73 "eurorack/stmlib/utils/buffer_allocator.h"
 1081              		.file 74 "eurorack/stmlib/dsp/hysteresis_quantizer.h"
 1082              		.file 75 "eurorack/plaits/dsp/dsp.h"
 1083              		.file 76 "eurorack/plaits/dsp/engine/engine.h"
 1084              		.file 77 "eurorack/plaits/dsp/engine/additive_engine.h"
 1085              		.file 78 "eurorack/plaits/dsp/oscillator/oscillator.h"
 1086              		.file 79 "eurorack/plaits/dsp/engine/chord_engine.h"
 1087              		.file 80 "eurorack/plaits/dsp/physical_modelling/resonator.h"
 1088              		.file 81 "eurorack/plaits/dsp/engine/particle_engine.h"
 1089              		.file 82 "eurorack/plaits/dsp/physical_modelling/string.h"
 1090              		.file 83 "eurorack/plaits/dsp/engine/string_engine.h"
 1091              		.file 84 "eurorack/plaits/dsp/engine/swarm_engine.h"
 1092              		.file 85 "eurorack/plaits/dsp/oscillator/variable_saw_oscillator.h"
 1093              		.file 86 "eurorack/plaits/dsp/envelope.h"
 1094              		.file 87 "eurorack/plaits/dsp/fx/low_pass_gate.h"
 1095              		.file 88 "eurorack/plaits/dsp/voice.h"
 1096              		.file 89 "eurorack/plaits/dsp/physical_modelling/delay_line.h"
 1097              		.file 90 "mpr121_daisy.h"
 1098              		.file 91 "Effects/BiquadFilters.h"
 1099              		.file 92 "VoiceEnvelope.h"
 1100              		.file 93 "Arpeggiator.h"
 1101              		.file 94 "Thaumazein.h"
 1102              		.file 95 "lib/libdaisy/src/dev/sr_595.h"
 1103              		.file 96 "<built-in>"
ARM GAS  /var/folders/9s/8rp0_f2s1n31qbztm3b5_fdh0000gn/T//ccKcW5Fo.s 			page 31


DEFINED SYMBOLS
                            *ABS*:0000000000000000 AudioProcessor.cpp
/var/folders/9s/8rp0_f2s1n31qbztm3b5_fdh0000gn/T//ccKcW5Fo.s:19     .text._Z20ProcessUIAndControlsv:0000000000000000 $t
/var/folders/9s/8rp0_f2s1n31qbztm3b5_fdh0000gn/T//ccKcW5Fo.s:25     .text._Z20ProcessUIAndControlsv:0000000000000000 _Z20ProcessUIAndControlsv
/var/folders/9s/8rp0_f2s1n31qbztm3b5_fdh0000gn/T//ccKcW5Fo.s:167    .text._Z20ProcessUIAndControlsv:000000000000008c $d
/var/folders/9s/8rp0_f2s1n31qbztm3b5_fdh0000gn/T//ccKcW5Fo.s:180    .text._Z14UpdateArpStateRiRbS_S0_:0000000000000000 $t
/var/folders/9s/8rp0_f2s1n31qbztm3b5_fdh0000gn/T//ccKcW5Fo.s:186    .text._Z14UpdateArpStateRiRbS_S0_:0000000000000000 _Z14UpdateArpStateRiRbS_S0_
/var/folders/9s/8rp0_f2s1n31qbztm3b5_fdh0000gn/T//ccKcW5Fo.s:369    .text._Z14UpdateArpStateRiRbS_S0_:00000000000000a4 $d
/var/folders/9s/8rp0_f2s1n31qbztm3b5_fdh0000gn/T//ccKcW5Fo.s:379    .text._Z12RenderVoicesibib:0000000000000000 $t
/var/folders/9s/8rp0_f2s1n31qbztm3b5_fdh0000gn/T//ccKcW5Fo.s:385    .text._Z12RenderVoicesibib:0000000000000000 _Z12RenderVoicesibib
/var/folders/9s/8rp0_f2s1n31qbztm3b5_fdh0000gn/T//ccKcW5Fo.s:438    .text._Z12RenderVoicesibib:0000000000000044 $d
/var/folders/9s/8rp0_f2s1n31qbztm3b5_fdh0000gn/T//ccKcW5Fo.s:451    .text._Z23DetermineEngineSettingsv:0000000000000000 $t
/var/folders/9s/8rp0_f2s1n31qbztm3b5_fdh0000gn/T//ccKcW5Fo.s:457    .text._Z23DetermineEngineSettingsv:0000000000000000 _Z23DetermineEngineSettingsv
/var/folders/9s/8rp0_f2s1n31qbztm3b5_fdh0000gn/T//ccKcW5Fo.s:473    .text._Z23DetermineEngineSettingsv:0000000000000008 $d
/var/folders/9s/8rp0_f2s1n31qbztm3b5_fdh0000gn/T//ccKcW5Fo.s:478    .text._Z25UpdatePerformanceMonitorsjPf:0000000000000000 $t
/var/folders/9s/8rp0_f2s1n31qbztm3b5_fdh0000gn/T//ccKcW5Fo.s:484    .text._Z25UpdatePerformanceMonitorsjPf:0000000000000000 _Z25UpdatePerformanceMonitorsjPf
/var/folders/9s/8rp0_f2s1n31qbztm3b5_fdh0000gn/T//ccKcW5Fo.s:593    .text._Z25UpdatePerformanceMonitorsjPf:000000000000007c $d
/var/folders/9s/8rp0_f2s1n31qbztm3b5_fdh0000gn/T//ccKcW5Fo.s:606    .text._Z21ApplyEffectsAndOutputPfj:0000000000000000 $t
/var/folders/9s/8rp0_f2s1n31qbztm3b5_fdh0000gn/T//ccKcW5Fo.s:612    .text._Z21ApplyEffectsAndOutputPfj:0000000000000000 _Z21ApplyEffectsAndOutputPfj
/var/folders/9s/8rp0_f2s1n31qbztm3b5_fdh0000gn/T//ccKcW5Fo.s:676    .text._Z21ApplyEffectsAndOutputPfj:0000000000000030 $d
/var/folders/9s/8rp0_f2s1n31qbztm3b5_fdh0000gn/T//ccKcW5Fo.s:685    .text._Z13AudioCallbackPKfPfj:0000000000000000 $t
/var/folders/9s/8rp0_f2s1n31qbztm3b5_fdh0000gn/T//ccKcW5Fo.s:691    .text._Z13AudioCallbackPKfPfj:0000000000000000 _Z13AudioCallbackPKfPfj
/var/folders/9s/8rp0_f2s1n31qbztm3b5_fdh0000gn/T//ccKcW5Fo.s:924    .text._Z13AudioCallbackPKfPfj:00000000000000ec $d
/var/folders/9s/8rp0_f2s1n31qbztm3b5_fdh0000gn/T//ccKcW5Fo.s:1009   .bss.engine_retrigger_phase:0000000000000000 engine_retrigger_phase
/var/folders/9s/8rp0_f2s1n31qbztm3b5_fdh0000gn/T//ccKcW5Fo.s:1003   .bss.engine_changed_flag:0000000000000000 engine_changed_flag
/var/folders/9s/8rp0_f2s1n31qbztm3b5_fdh0000gn/T//ccKcW5Fo.s:997    .bss.current_engine_index:0000000000000000 current_engine_index
/var/folders/9s/8rp0_f2s1n31qbztm3b5_fdh0000gn/T//ccKcW5Fo.s:990    .bss.cpu_meter:0000000000000000 cpu_meter
/var/folders/9s/8rp0_f2s1n31qbztm3b5_fdh0000gn/T//ccKcW5Fo.s:939    .bss._ZGVZ25UpdatePerformanceMonitorsjPfE23display_interval_blocks:0000000000000000 $d
/var/folders/9s/8rp0_f2s1n31qbztm3b5_fdh0000gn/T//ccKcW5Fo.s:943    .bss._ZGVZ25UpdatePerformanceMonitorsjPfE23display_interval_blocks:0000000000000000 _ZGVZ25UpdatePerformanceMonitorsjPfE23display_interval_blocks
/var/folders/9s/8rp0_f2s1n31qbztm3b5_fdh0000gn/T//ccKcW5Fo.s:949    .bss._ZL10was_arp_on:0000000000000000 _ZL10was_arp_on
/var/folders/9s/8rp0_f2s1n31qbztm3b5_fdh0000gn/T//ccKcW5Fo.s:950    .bss._ZL10was_arp_on:0000000000000000 $d
/var/folders/9s/8rp0_f2s1n31qbztm3b5_fdh0000gn/T//ccKcW5Fo.s:952    .bss._ZL17button_press_time:0000000000000000 $d
/var/folders/9s/8rp0_f2s1n31qbztm3b5_fdh0000gn/T//ccKcW5Fo.s:956    .bss._ZL17button_press_time:0000000000000000 _ZL17button_press_time
/var/folders/9s/8rp0_f2s1n31qbztm3b5_fdh0000gn/T//ccKcW5Fo.s:962    .bss._ZZ13AudioCallbackPKfPfjE16audio_cb_started:0000000000000000 _ZZ13AudioCallbackPKfPfjE16audio_cb_started
/var/folders/9s/8rp0_f2s1n31qbztm3b5_fdh0000gn/T//ccKcW5Fo.s:963    .bss._ZZ13AudioCallbackPKfPfjE16audio_cb_started:0000000000000000 $d
/var/folders/9s/8rp0_f2s1n31qbztm3b5_fdh0000gn/T//ccKcW5Fo.s:965    .bss._ZZ13AudioCallbackPKfPfjE24prev_engine_index_static:0000000000000000 $d
/var/folders/9s/8rp0_f2s1n31qbztm3b5_fdh0000gn/T//ccKcW5Fo.s:969    .bss._ZZ13AudioCallbackPKfPfjE24prev_engine_index_static:0000000000000000 _ZZ13AudioCallbackPKfPfjE24prev_engine_index_static
/var/folders/9s/8rp0_f2s1n31qbztm3b5_fdh0000gn/T//ccKcW5Fo.s:972    .bss._ZZ25UpdatePerformanceMonitorsjPfE15display_counter:0000000000000000 $d
/var/folders/9s/8rp0_f2s1n31qbztm3b5_fdh0000gn/T//ccKcW5Fo.s:976    .bss._ZZ25UpdatePerformanceMonitorsjPfE15display_counter:0000000000000000 _ZZ25UpdatePerformanceMonitorsjPfE15display_counter
/var/folders/9s/8rp0_f2s1n31qbztm3b5_fdh0000gn/T//ccKcW5Fo.s:979    .bss._ZZ25UpdatePerformanceMonitorsjPfE23display_interval_blocks:0000000000000000 $d
/var/folders/9s/8rp0_f2s1n31qbztm3b5_fdh0000gn/T//ccKcW5Fo.s:983    .bss._ZZ25UpdatePerformanceMonitorsjPfE23display_interval_blocks:0000000000000000 _ZZ25UpdatePerformanceMonitorsjPfE23display_interval_blocks
/var/folders/9s/8rp0_f2s1n31qbztm3b5_fdh0000gn/T//ccKcW5Fo.s:986    .bss.cpu_meter:0000000000000000 $d
/var/folders/9s/8rp0_f2s1n31qbztm3b5_fdh0000gn/T//ccKcW5Fo.s:993    .bss.current_engine_index:0000000000000000 $d
/var/folders/9s/8rp0_f2s1n31qbztm3b5_fdh0000gn/T//ccKcW5Fo.s:1004   .bss.engine_changed_flag:0000000000000000 $d
/var/folders/9s/8rp0_f2s1n31qbztm3b5_fdh0000gn/T//ccKcW5Fo.s:1006   .bss.engine_retrigger_phase:0000000000000000 $d

UNDEFINED SYMBOLS
_Z15ProcessControlsv
_Z14ReadKnobValuesv
_ZN11Arpeggiator20SetMainTempoFromKnobEf
_ZN5daisy6System6GetNowEv
_ZN15PolyphonyEngine11ResetVoicesEv
arp_enabled
delay_time_val
arp
touch_cv_value
morph_knob_val
ARM GAS  /var/folders/9s/8rp0_f2s1n31qbztm3b5_fdh0000gn/T//ccKcW5Fo.s 			page 32


delay_feedback_val
button
poly_engine
_ZN15PolyphonyEngine20UpdateLastTouchStateEt
_ZNK15PolyphonyEngine17GetLastTouchStateEv
_ZN11Arpeggiator15UpdateHeldNotesEtt
_ZN11Arpeggiator7ProcessEj
_ZN15PolyphonyEngine16HandleTouchInputEttibi
current_touch_state
_ZN15PolyphonyEngine11RenderBlockEibibffffffff
delay_mix_val
env_release_val
env_attack_val
timbre_knob_val
harm_knob_val
pitch_val
__cxa_guard_acquire
__cxa_guard_release
smoothed_output_level
sample_rate
update_display
_ZN11DelayEffect11UpdateDelayEv
_ZN11DelayEffect18ApplyDelayToOutputEPKfPfjf
_ZN5daisy6LoggerILNS_17LoggerDestinationE1EE9PrintLineEPKcz
_ZN5daisy6System7GetTickEv
_ZN15PolyphonyEngine14OnEngineChangeEii
