ARM GAS  /var/folders/9s/8rp0_f2s1n31qbztm3b5_fdh0000gn/T//ccDooZFg.s 			page 1


   1              		.cpu cortex-m7
   2              		.arch armv7e-m
   3              		.fpu fpv5-d16
   4              		.eabi_attribute 28, 1
   5              		.eabi_attribute 20, 1
   6              		.eabi_attribute 21, 1
   7              		.eabi_attribute 23, 3
   8              		.eabi_attribute 24, 1
   9              		.eabi_attribute 25, 1
  10              		.eabi_attribute 26, 1
  11              		.eabi_attribute 30, 4
  12              		.eabi_attribute 34, 1
  13              		.eabi_attribute 18, 4
  14              		.file	"AudioProcessor.cpp"
  15              		.text
  16              	.Ltext0:
  17              		.cfi_sections	.debug_frame
  18              		.section	.text._Z20ProcessUIAndControlsv,"ax",%progbits
  19              		.align	1
  20              		.global	_Z20ProcessUIAndControlsv
  21              		.syntax unified
  22              		.thumb
  23              		.thumb_func
  25              	_Z20ProcessUIAndControlsv:
  26              	.LFB5346:
  27              		.file 1 "AudioProcessor.cpp"
   1:AudioProcessor.cpp **** #include "Thaumazein.h"
   2:AudioProcessor.cpp **** #include "mpr121_daisy.h"
   3:AudioProcessor.cpp **** #include "DelayEffect.h"
   4:AudioProcessor.cpp **** #include "Polyphony.h" // Add include for PolyphonyEngine
   5:AudioProcessor.cpp **** #include <cmath>
   6:AudioProcessor.cpp **** #include <algorithm>
   7:AudioProcessor.cpp **** #include <vector> // Add vector for dynamic list
   8:AudioProcessor.cpp **** 
   9:AudioProcessor.cpp **** // const float MASTER_VOLUME = 0.7f; // Master output level scaler // REMOVED - Defined in Thaumaze
  10:AudioProcessor.cpp **** 
  11:AudioProcessor.cpp **** int  DetermineEngineSettings();
  12:AudioProcessor.cpp **** // void ConfigureDelaySettings(); // Ensure this is removed or commented
  13:AudioProcessor.cpp **** // void ProcessAudioOutput(AudioHandle::InterleavingOutputBuffer out, size_t size, float dry_level)
  14:AudioProcessor.cpp **** void UpdatePerformanceMonitors(size_t size, AudioHandle::InterleavingOutputBuffer out);
  15:AudioProcessor.cpp **** 
  16:AudioProcessor.cpp **** // New helper function declarations
  17:AudioProcessor.cpp **** void ProcessUIAndControls();
  18:AudioProcessor.cpp **** void UpdateArpState(int& engineIndex, bool& poly_mode, int& effective_num_voices, bool& arp_on);
  19:AudioProcessor.cpp **** void RenderVoices(int engineIndex, bool poly_mode, int effective_num_voices, bool arp_on);
  20:AudioProcessor.cpp **** void ApplyEffectsAndOutput(AudioHandle::InterleavingOutputBuffer out, size_t size);
  21:AudioProcessor.cpp **** 
  22:AudioProcessor.cpp **** // Global variables for data sharing between decomposed functions
  23:AudioProcessor.cpp **** 
  24:AudioProcessor.cpp **** extern VoiceEnvelope voice_envelopes[NUM_VOICES];
  25:AudioProcessor.cpp **** 
  26:AudioProcessor.cpp **** extern bool voice_active[NUM_VOICES];
  27:AudioProcessor.cpp **** 
  28:AudioProcessor.cpp **** // Define the CpuLoadMeter instance
  29:AudioProcessor.cpp **** CpuLoadMeter cpu_meter;
  30:AudioProcessor.cpp **** 
  31:AudioProcessor.cpp **** 
ARM GAS  /var/folders/9s/8rp0_f2s1n31qbztm3b5_fdh0000gn/T//ccDooZFg.s 			page 2


  32:AudioProcessor.cpp **** static bool was_arp_on = false; // For ARP state change detection
  33:AudioProcessor.cpp **** 
  34:AudioProcessor.cpp **** volatile int current_engine_index = 0; // Global engine index controlled by touch pads
  35:AudioProcessor.cpp **** 
  36:AudioProcessor.cpp **** // ADD: flag to indicate engine change so we can retrigger voices even when notes are held
  37:AudioProcessor.cpp **** volatile bool engine_changed_flag = false;
  38:AudioProcessor.cpp **** // 0 = inactive, 2 = send trigger low this block, 1 = send trigger high next block
  39:AudioProcessor.cpp **** volatile int engine_retrigger_phase = 0;
  40:AudioProcessor.cpp **** 
  41:AudioProcessor.cpp **** void AudioCallback(AudioHandle::InterleavingInputBuffer in,
  42:AudioProcessor.cpp ****                  AudioHandle::InterleavingOutputBuffer out,
  43:AudioProcessor.cpp ****                  size_t size) {
  44:AudioProcessor.cpp ****     static bool audio_cb_started = false;
  45:AudioProcessor.cpp ****     if(!audio_cb_started) {
  46:AudioProcessor.cpp ****         hw.PrintLine("[AudioCallback] Enter");
  47:AudioProcessor.cpp ****         audio_cb_started = true;
  48:AudioProcessor.cpp ****     }
  49:AudioProcessor.cpp ****     cpu_meter.OnBlockStart(); // Mark the beginning of the audio block
  50:AudioProcessor.cpp ****     
  51:AudioProcessor.cpp ****     // Variables to be passed between helper functions
  52:AudioProcessor.cpp ****     int engineIndex;
  53:AudioProcessor.cpp ****     bool poly_mode;
  54:AudioProcessor.cpp ****     int effective_num_voices;
  55:AudioProcessor.cpp ****     bool arp_on;
  56:AudioProcessor.cpp **** 
  57:AudioProcessor.cpp ****     ProcessUIAndControls();
  58:AudioProcessor.cpp **** 
  59:AudioProcessor.cpp ****     // React to engine change flag by delegating voice migration to DSP layer.
  60:AudioProcessor.cpp ****     static int prev_engine_index_static = 0;
  61:AudioProcessor.cpp ****     if(engine_changed_flag) {
  62:AudioProcessor.cpp ****         poly_engine.OnEngineChange(prev_engine_index_static, current_engine_index);
  63:AudioProcessor.cpp ****         prev_engine_index_static = current_engine_index;
  64:AudioProcessor.cpp ****         engine_changed_flag = false; // Clear flag after handling
  65:AudioProcessor.cpp ****     }
  66:AudioProcessor.cpp **** 
  67:AudioProcessor.cpp ****     UpdateArpState(engineIndex, poly_mode, effective_num_voices, arp_on);
  68:AudioProcessor.cpp ****     RenderVoices(engineIndex, poly_mode, effective_num_voices, arp_on);
  69:AudioProcessor.cpp ****     ApplyEffectsAndOutput(out, size);
  70:AudioProcessor.cpp **** 
  71:AudioProcessor.cpp ****     cpu_meter.OnBlockEnd(); // Mark the end of the audio block
  72:AudioProcessor.cpp **** }
  73:AudioProcessor.cpp **** 
  74:AudioProcessor.cpp **** void ProcessUIAndControls() {
  28              		.loc 1 74 29 view -0
  29              		.cfi_startproc
  30              		@ args = 0, pretend = 0, frame = 0
  31              		@ frame_needed = 0, uses_anonymous_args = 0
  75:AudioProcessor.cpp ****     ProcessControls();
  32              		.loc 1 75 5 view .LVU1
  74:AudioProcessor.cpp ****     ProcessControls();
  33              		.loc 1 74 29 is_stmt 0 view .LVU2
  34 0000 08B5     		push	{r3, lr}
  35              		.cfi_def_cfa_offset 8
  36              		.cfi_offset 3, -8
  37              		.cfi_offset 14, -4
  38              		.loc 1 75 20 view .LVU3
  39 0002 FFF7FEFF 		bl	_Z15ProcessControlsv
ARM GAS  /var/folders/9s/8rp0_f2s1n31qbztm3b5_fdh0000gn/T//ccDooZFg.s 			page 3


  40              	.LVL0:
  76:AudioProcessor.cpp ****     ReadKnobValues();
  41              		.loc 1 76 5 is_stmt 1 view .LVU4
  42              		.loc 1 76 19 is_stmt 0 view .LVU5
  43 0006 FFF7FEFF 		bl	_Z14ReadKnobValuesv
  44              	.LVL1:
  77:AudioProcessor.cpp ****     
  78:AudioProcessor.cpp ****     // Update Arpeggiator Tempo from Delay Time Knob if Arp is enabled
  79:AudioProcessor.cpp ****     if (arp_enabled) {
  45              		.loc 1 79 5 is_stmt 1 view .LVU6
  46              		.loc 1 79 9 is_stmt 0 view .LVU7
  47 000a 104B     		ldr	r3, .L6
  48 000c 1B78     		ldrb	r3, [r3]	@ zero_extendqisi2
  49              		.loc 1 79 5 view .LVU8
  50 000e 2BB1     		cbz	r3, .L2
  80:AudioProcessor.cpp ****         arp.SetMainTempoFromKnob(delay_time_val); // delay_time_val is 0-1 from ReadKnobValues
  51              		.loc 1 80 9 is_stmt 1 view .LVU9
  52              		.loc 1 80 33 is_stmt 0 view .LVU10
  53 0010 0F4B     		ldr	r3, .L6+4
  54 0012 1048     		ldr	r0, .L6+8
  55 0014 93ED000A 		vldr.32	s0, [r3]
  56 0018 FFF7FEFF 		bl	_ZN11Arpeggiator20SetMainTempoFromKnobEf
  57              	.LVL2:
  58              	.L2:
  81:AudioProcessor.cpp ****     }
  82:AudioProcessor.cpp **** 
  83:AudioProcessor.cpp ****     float touch_control = touch_cv_value; 
  59              		.loc 1 83 5 is_stmt 1 view .LVU11
  60              		.loc 1 83 27 is_stmt 0 view .LVU12
  61 001c 0E4B     		ldr	r3, .L6+12
  84:AudioProcessor.cpp ****     
  85:AudioProcessor.cpp ****     float intensity_factor = 0.5f;
  86:AudioProcessor.cpp **** 
  87:AudioProcessor.cpp ****     morph_knob_val   = morph_knob_val   * (1.0f - intensity_factor) + touch_control * intensity_fac
  62              		.loc 1 87 85 view .LVU13
  63 001e B6EE007A 		vmov.f32	s14, #5.0e-1
  83:AudioProcessor.cpp ****     
  64              		.loc 1 83 27 view .LVU14
  65 0022 D3ED007A 		vldr.32	s15, [r3]
  66              	.LVL3:
  85:AudioProcessor.cpp **** 
  67              		.loc 1 85 5 is_stmt 1 view .LVU15
  68              		.loc 1 87 5 view .LVU16
  69              		.loc 1 87 41 is_stmt 0 view .LVU17
  70 0026 0D4B     		ldr	r3, .L6+16
  71              		.loc 1 87 85 view .LVU18
  72 0028 67EE877A 		vmul.f32	s15, s15, s14
  73              	.LVL4:
  74              		.loc 1 87 69 view .LVU19
  75 002c 93ED006A 		vldr.32	s12, [r3]
  76 0030 F0EE676A 		vmov.f32	s13, s15
  77 0034 E6EE076A 		vfma.f32	s13, s12, s14
  78              		.loc 1 87 22 view .LVU20
  79 0038 C3ED006A 		vstr.32	s13, [r3]
  88:AudioProcessor.cpp ****     delay_feedback_val = delay_feedback_val * (1.0f - intensity_factor) + touch_control * intensity
  80              		.loc 1 88 5 is_stmt 1 view .LVU21
  81              		.loc 1 88 45 is_stmt 0 view .LVU22
ARM GAS  /var/folders/9s/8rp0_f2s1n31qbztm3b5_fdh0000gn/T//ccDooZFg.s 			page 4


  82 003c 084B     		ldr	r3, .L6+20
  83              		.loc 1 88 73 view .LVU23
  84 003e D3ED006A 		vldr.32	s13, [r3]
  85 0042 E6EE877A 		vfma.f32	s15, s13, s14
  86              		.loc 1 88 24 view .LVU24
  87 0046 C3ED007A 		vstr.32	s15, [r3]
  89:AudioProcessor.cpp **** 
  90:AudioProcessor.cpp **** 
  91:AudioProcessor.cpp **** }
  88              		.loc 1 91 1 view .LVU25
  89 004a 08BD     		pop	{r3, pc}
  90              	.L7:
  91              		.align	2
  92              	.L6:
  93 004c 00000000 		.word	arp_enabled
  94 0050 00000000 		.word	delay_time_val
  95 0054 00000000 		.word	arp
  96 0058 00000000 		.word	touch_cv_value
  97 005c 00000000 		.word	morph_knob_val
  98 0060 00000000 		.word	delay_feedback_val
  99              		.cfi_endproc
 100              	.LFE5346:
 102              		.section	.text._Z14UpdateArpStateRiRbS_S0_,"ax",%progbits
 103              		.align	1
 104              		.global	_Z14UpdateArpStateRiRbS_S0_
 105              		.syntax unified
 106              		.thumb
 107              		.thumb_func
 109              	_Z14UpdateArpStateRiRbS_S0_:
 110              	.LVL5:
 111              	.LFB5347:
  92:AudioProcessor.cpp **** 
  93:AudioProcessor.cpp **** void UpdateArpState(int& engineIndex, bool& poly_mode, int& effective_num_voices, bool& arp_on_out)
 112              		.loc 1 93 101 is_stmt 1 view -0
 113              		.cfi_startproc
 114              		@ args = 0, pretend = 0, frame = 8
 115              		@ frame_needed = 0, uses_anonymous_args = 0
  94:AudioProcessor.cpp ****     engineIndex = DetermineEngineSettings();
 116              		.loc 1 94 5 view .LVU27
 117              	.LBB16:
 118              	.LBI16:
  95:AudioProcessor.cpp ****     poly_mode = (engineIndex <= 3);
  96:AudioProcessor.cpp ****     effective_num_voices = poly_mode ? NUM_VOICES : 1;
  97:AudioProcessor.cpp **** 
  98:AudioProcessor.cpp ****     bool current_arp_on = arp_enabled;
  99:AudioProcessor.cpp ****     if (!current_arp_on && was_arp_on) {
 100:AudioProcessor.cpp ****         poly_engine.ResetVoices();
 101:AudioProcessor.cpp ****         for (int v = 0; v < NUM_VOICES; ++v) {
 102:AudioProcessor.cpp ****         }
 103:AudioProcessor.cpp ****         poly_engine.UpdateLastTouchState(0);
 104:AudioProcessor.cpp ****     }
 105:AudioProcessor.cpp ****     was_arp_on = current_arp_on;
 106:AudioProcessor.cpp ****     arp_on_out = current_arp_on;
 107:AudioProcessor.cpp **** 
 108:AudioProcessor.cpp ****     if (current_arp_on) {
 109:AudioProcessor.cpp ****         arp.UpdateHeldNotes(current_touch_state, poly_engine.GetLastTouchState());
 110:AudioProcessor.cpp ****         arp.Process(BLOCK_SIZE);
ARM GAS  /var/folders/9s/8rp0_f2s1n31qbztm3b5_fdh0000gn/T//ccDooZFg.s 			page 5


 111:AudioProcessor.cpp ****     } else {
 112:AudioProcessor.cpp ****         poly_engine.HandleTouchInput(current_touch_state, poly_engine.GetLastTouchState(), engineIn
 113:AudioProcessor.cpp ****     }
 114:AudioProcessor.cpp ****     
 115:AudioProcessor.cpp ****     poly_engine.UpdateLastTouchState(current_touch_state);
 116:AudioProcessor.cpp **** }
 117:AudioProcessor.cpp **** 
 118:AudioProcessor.cpp **** void RenderVoices(int engineIndex, bool poly_mode, int effective_num_voices, bool arp_on) {
 119:AudioProcessor.cpp ****     PolyphonyEngine::RenderParameters params;
 120:AudioProcessor.cpp ****     params.engine_index = engineIndex;
 121:AudioProcessor.cpp ****     params.poly_mode = poly_mode;
 122:AudioProcessor.cpp ****     params.effective_num_voices = effective_num_voices;
 123:AudioProcessor.cpp ****     params.arp_on = arp_on;
 124:AudioProcessor.cpp ****     params.pitch_val = pitch_val;
 125:AudioProcessor.cpp ****     params.harm_knob_val = harm_knob_val;
 126:AudioProcessor.cpp ****     params.morph_knob_val = morph_knob_val;
 127:AudioProcessor.cpp ****     params.timbre_knob_val = timbre_knob_val;
 128:AudioProcessor.cpp ****     params.env_attack_val = env_attack_val;
 129:AudioProcessor.cpp ****     params.env_release_val = env_release_val;
 130:AudioProcessor.cpp ****     params.delay_mix_val = delay_mix_val;
 131:AudioProcessor.cpp ****     params.touch_cv_value = touch_cv_value;
 132:AudioProcessor.cpp ****     
 133:AudioProcessor.cpp ****     poly_engine.RenderBlock(params);
 134:AudioProcessor.cpp **** }
 135:AudioProcessor.cpp **** 
 136:AudioProcessor.cpp **** void ApplyEffectsAndOutput(AudioHandle::InterleavingOutputBuffer out, size_t size) {
 137:AudioProcessor.cpp ****     DelayEffect::UpdateDelay();
 138:AudioProcessor.cpp ****     
 139:AudioProcessor.cpp ****     float dry_level = 1.0f - delay_mix_val;
 140:AudioProcessor.cpp ****     DelayEffect::ApplyDelayToOutput(poly_engine.GetMainOutputBuffer(), out, size, dry_level);
 141:AudioProcessor.cpp ****     
 142:AudioProcessor.cpp ****     UpdatePerformanceMonitors(size, out);
 143:AudioProcessor.cpp **** }
 144:AudioProcessor.cpp **** 
 145:AudioProcessor.cpp **** int DetermineEngineSettings() {
 119              		.loc 1 145 5 view .LVU28
 120              	.LBB17:
 146:AudioProcessor.cpp ****     return current_engine_index;
 121              		.loc 1 146 5 view .LVU29
 122              	.LBE17:
 123              	.LBE16:
  93:AudioProcessor.cpp ****     engineIndex = DetermineEngineSettings();
 124              		.loc 1 93 101 is_stmt 0 view .LVU30
 125 0000 2DE9F043 		push	{r4, r5, r6, r7, r8, r9, lr}
 126              		.cfi_def_cfa_offset 28
 127              		.cfi_offset 4, -28
 128              		.cfi_offset 5, -24
 129              		.cfi_offset 6, -20
 130              		.cfi_offset 7, -16
 131              		.cfi_offset 8, -12
 132              		.cfi_offset 9, -8
 133              		.cfi_offset 14, -4
 134 0004 9846     		mov	r8, r3
 135              	.LBB20:
 136              	.LBB18:
 137              		.loc 1 146 12 view .LVU31
 138 0006 274B     		ldr	r3, .L17
ARM GAS  /var/folders/9s/8rp0_f2s1n31qbztm3b5_fdh0000gn/T//ccDooZFg.s 			page 6


 139              	.LVL6:
 140              		.loc 1 146 12 view .LVU32
 141              	.LBE18:
 142              	.LBE20:
  93:AudioProcessor.cpp ****     engineIndex = DetermineEngineSettings();
 143              		.loc 1 93 101 view .LVU33
 144 0008 1646     		mov	r6, r2
 145 000a 85B0     		sub	sp, sp, #20
 146              		.cfi_def_cfa_offset 48
 147              	.LBB21:
 148              	.LBB19:
 149              		.loc 1 146 12 view .LVU34
 150 000c 1B68     		ldr	r3, [r3]
 151              	.LBE19:
 152              	.LBE21:
  93:AudioProcessor.cpp ****     engineIndex = DetermineEngineSettings();
 153              		.loc 1 93 101 view .LVU35
 154 000e 0446     		mov	r4, r0
 155 0010 0D46     		mov	r5, r1
 156 0012 DFF8A090 		ldr	r9, .L17+16
  95:AudioProcessor.cpp ****     poly_mode = (engineIndex <= 3);
 157              		.loc 1 95 30 view .LVU36
 158 0016 032B     		cmp	r3, #3
  94:AudioProcessor.cpp ****     poly_mode = (engineIndex <= 3);
 159              		.loc 1 94 17 view .LVU37
 160 0018 0360     		str	r3, [r0]
  95:AudioProcessor.cpp ****     effective_num_voices = poly_mode ? NUM_VOICES : 1;
 161              		.loc 1 95 5 is_stmt 1 view .LVU38
  95:AudioProcessor.cpp ****     effective_num_voices = poly_mode ? NUM_VOICES : 1;
 162              		.loc 1 95 30 is_stmt 0 view .LVU39
 163 001a CCBF     		ite	gt
 164 001c 0022     		movgt	r2, #0
 165              	.LVL7:
  95:AudioProcessor.cpp ****     effective_num_voices = poly_mode ? NUM_VOICES : 1;
 166              		.loc 1 95 30 view .LVU40
 167 001e 0122     		movle	r2, #1
  96:AudioProcessor.cpp **** 
 168              		.loc 1 96 38 view .LVU41
 169 0020 042B     		cmp	r3, #4
  95:AudioProcessor.cpp ****     effective_num_voices = poly_mode ? NUM_VOICES : 1;
 170              		.loc 1 95 30 view .LVU42
 171 0022 0A70     		strb	r2, [r1]
  96:AudioProcessor.cpp **** 
 172              		.loc 1 96 5 is_stmt 1 view .LVU43
  96:AudioProcessor.cpp **** 
 173              		.loc 1 96 38 is_stmt 0 view .LVU44
 174 0024 B4BF     		ite	lt
 175 0026 0423     		movlt	r3, #4
 176 0028 0123     		movge	r3, #1
  96:AudioProcessor.cpp **** 
 177              		.loc 1 96 26 view .LVU45
 178 002a 3360     		str	r3, [r6]
  98:AudioProcessor.cpp ****     if (!current_arp_on && was_arp_on) {
 179              		.loc 1 98 5 is_stmt 1 view .LVU46
  98:AudioProcessor.cpp ****     if (!current_arp_on && was_arp_on) {
 180              		.loc 1 98 27 is_stmt 0 view .LVU47
 181 002c 1E4B     		ldr	r3, .L17+4
ARM GAS  /var/folders/9s/8rp0_f2s1n31qbztm3b5_fdh0000gn/T//ccDooZFg.s 			page 7


 182 002e 1B78     		ldrb	r3, [r3]	@ zero_extendqisi2
 183              	.LVL8:
  99:AudioProcessor.cpp ****         poly_engine.ResetVoices();
 184              		.loc 1 99 5 is_stmt 1 view .LVU48
 185              	.LBB22:
 186 0030 03F0FF07 		and	r7, r3, #255
 187 0034 4BB9     		cbnz	r3, .L10
  99:AudioProcessor.cpp ****         poly_engine.ResetVoices();
 188              		.loc 1 99 25 is_stmt 0 discriminator 1 view .LVU49
 189 0036 99F80030 		ldrb	r3, [r9]	@ zero_extendqisi2
 190              	.LVL9:
  99:AudioProcessor.cpp ****         poly_engine.ResetVoices();
 191              		.loc 1 99 25 discriminator 1 view .LVU50
 192 003a 33B1     		cbz	r3, .L10
 193              	.LBB23:
 100:AudioProcessor.cpp ****         for (int v = 0; v < NUM_VOICES; ++v) {
 194              		.loc 1 100 9 is_stmt 1 view .LVU51
 100:AudioProcessor.cpp ****         for (int v = 0; v < NUM_VOICES; ++v) {
 195              		.loc 1 100 32 is_stmt 0 view .LVU52
 196 003c 1B48     		ldr	r0, .L17+8
 197              	.LVL10:
 100:AudioProcessor.cpp ****         for (int v = 0; v < NUM_VOICES; ++v) {
 198              		.loc 1 100 32 view .LVU53
 199 003e FFF7FEFF 		bl	_ZN15PolyphonyEngine11ResetVoicesEv
 200              	.LVL11:
 101:AudioProcessor.cpp ****         }
 201              		.loc 1 101 9 is_stmt 1 view .LVU54
 202              	.LBE23:
 203              	.LBE22:
 101:AudioProcessor.cpp ****         }
 204              		.loc 1 101 27 view .LVU55
 205              	.LBB25:
 206              	.LBB24:
 103:AudioProcessor.cpp ****     }
 207              		.loc 1 103 9 view .LVU56
 103:AudioProcessor.cpp ****     }
 208              		.loc 1 103 41 is_stmt 0 view .LVU57
 209 0042 3946     		mov	r1, r7
 210 0044 1948     		ldr	r0, .L17+8
 211 0046 FFF7FEFF 		bl	_ZN15PolyphonyEngine20UpdateLastTouchStateEt
 212              	.LVL12:
 213              	.L10:
 214              	.LBE24:
 215              	.LBE25:
 105:AudioProcessor.cpp ****     arp_on_out = current_arp_on;
 216              		.loc 1 105 5 is_stmt 1 view .LVU58
 106:AudioProcessor.cpp **** 
 217              		.loc 1 106 16 is_stmt 0 view .LVU59
 218 004a 88F80070 		strb	r7, [r8]
 219 004e DFF86880 		ldr	r8, .L17+20
 220              	.LVL13:
 109:AudioProcessor.cpp ****         arp.Process(BLOCK_SIZE);
 221              		.loc 1 109 28 view .LVU60
 222 0052 1648     		ldr	r0, .L17+8
 223 0054 B8F80010 		ldrh	r1, [r8]
 105:AudioProcessor.cpp ****     arp_on_out = current_arp_on;
 224              		.loc 1 105 16 view .LVU61
ARM GAS  /var/folders/9s/8rp0_f2s1n31qbztm3b5_fdh0000gn/T//ccDooZFg.s 			page 8


 225 0058 89F80070 		strb	r7, [r9]
 106:AudioProcessor.cpp **** 
 226              		.loc 1 106 5 is_stmt 1 view .LVU62
 108:AudioProcessor.cpp ****         arp.UpdateHeldNotes(current_touch_state, poly_engine.GetLastTouchState());
 227              		.loc 1 108 5 view .LVU63
 109:AudioProcessor.cpp ****         arp.Process(BLOCK_SIZE);
 228              		.loc 1 109 28 is_stmt 0 view .LVU64
 229 005c 89B2     		uxth	r1, r1
 230 005e 0391     		str	r1, [sp, #12]
 108:AudioProcessor.cpp ****         arp.UpdateHeldNotes(current_touch_state, poly_engine.GetLastTouchState());
 231              		.loc 1 108 5 view .LVU65
 232 0060 9FB1     		cbz	r7, .L11
 109:AudioProcessor.cpp ****         arp.Process(BLOCK_SIZE);
 233              		.loc 1 109 9 is_stmt 1 view .LVU66
 109:AudioProcessor.cpp ****         arp.Process(BLOCK_SIZE);
 234              		.loc 1 109 28 is_stmt 0 view .LVU67
 235 0062 FFF7FEFF 		bl	_ZNK15PolyphonyEngine17GetLastTouchStateEv
 236              	.LVL14:
 237 0066 0399     		ldr	r1, [sp, #12]
 238 0068 0246     		mov	r2, r0
 239 006a 1148     		ldr	r0, .L17+12
 240 006c FFF7FEFF 		bl	_ZN11Arpeggiator15UpdateHeldNotesEtt
 241              	.LVL15:
 110:AudioProcessor.cpp ****     } else {
 242              		.loc 1 110 9 is_stmt 1 view .LVU68
 110:AudioProcessor.cpp ****     } else {
 243              		.loc 1 110 20 is_stmt 0 view .LVU69
 244 0070 1021     		movs	r1, #16
 245 0072 0F48     		ldr	r0, .L17+12
 246 0074 FFF7FEFF 		bl	_ZN11Arpeggiator7ProcessEj
 247              	.LVL16:
 248              	.L12:
 115:AudioProcessor.cpp **** }
 249              		.loc 1 115 5 is_stmt 1 view .LVU70
 115:AudioProcessor.cpp **** }
 250              		.loc 1 115 37 is_stmt 0 view .LVU71
 251 0078 B8F80010 		ldrh	r1, [r8]
 252 007c 0B48     		ldr	r0, .L17+8
 253 007e 89B2     		uxth	r1, r1
 116:AudioProcessor.cpp **** 
 254              		.loc 1 116 1 view .LVU72
 255 0080 05B0     		add	sp, sp, #20
 256              		.cfi_remember_state
 257              		.cfi_def_cfa_offset 28
 258              		@ sp needed
 259 0082 BDE8F043 		pop	{r4, r5, r6, r7, r8, r9, lr}
 260              		.cfi_restore 14
 261              		.cfi_restore 9
 262              		.cfi_restore 8
 263              		.cfi_restore 7
 264              		.cfi_restore 6
 265              		.cfi_restore 5
 266              		.cfi_restore 4
 267              		.cfi_def_cfa_offset 0
 268              	.LVL17:
 115:AudioProcessor.cpp **** }
 269              		.loc 1 115 37 view .LVU73
ARM GAS  /var/folders/9s/8rp0_f2s1n31qbztm3b5_fdh0000gn/T//ccDooZFg.s 			page 9


 270 0086 FFF7FEBF 		b	_ZN15PolyphonyEngine20UpdateLastTouchStateEt
 271              	.LVL18:
 272              	.L11:
 273              		.cfi_restore_state
 112:AudioProcessor.cpp ****     }
 274              		.loc 1 112 9 is_stmt 1 view .LVU74
 112:AudioProcessor.cpp ****     }
 275              		.loc 1 112 37 is_stmt 0 view .LVU75
 276 008a FFF7FEFF 		bl	_ZNK15PolyphonyEngine17GetLastTouchStateEv
 277              	.LVL19:
 278 008e 3368     		ldr	r3, [r6]
 279 0090 0246     		mov	r2, r0
 280 0092 0399     		ldr	r1, [sp, #12]
 281 0094 0193     		str	r3, [sp, #4]
 282 0096 2B78     		ldrb	r3, [r5]	@ zero_extendqisi2
 283 0098 0448     		ldr	r0, .L17+8
 284 009a 0093     		str	r3, [sp]
 285 009c 2368     		ldr	r3, [r4]
 286 009e FFF7FEFF 		bl	_ZN15PolyphonyEngine16HandleTouchInputEttibi
 287              	.LVL20:
 288 00a2 E9E7     		b	.L12
 289              	.L18:
 290              		.align	2
 291              	.L17:
 292 00a4 00000000 		.word	.LANCHOR0
 293 00a8 00000000 		.word	arp_enabled
 294 00ac 00000000 		.word	poly_engine
 295 00b0 00000000 		.word	arp
 296 00b4 00000000 		.word	.LANCHOR1
 297 00b8 00000000 		.word	current_touch_state
 298              		.cfi_endproc
 299              	.LFE5347:
 301              		.section	.text._Z12RenderVoicesibib,"ax",%progbits
 302              		.align	1
 303              		.global	_Z12RenderVoicesibib
 304              		.syntax unified
 305              		.thumb
 306              		.thumb_func
 308              	_Z12RenderVoicesibib:
 309              	.LVL21:
 310              	.LFB5348:
 118:AudioProcessor.cpp ****     PolyphonyEngine::RenderParameters params;
 311              		.loc 1 118 91 is_stmt 1 view -0
 312              		.cfi_startproc
 313              		@ args = 0, pretend = 0, frame = 48
 314              		@ frame_needed = 0, uses_anonymous_args = 0
 119:AudioProcessor.cpp ****     params.engine_index = engineIndex;
 315              		.loc 1 119 5 view .LVU77
 120:AudioProcessor.cpp ****     params.poly_mode = poly_mode;
 316              		.loc 1 120 5 view .LVU78
 118:AudioProcessor.cpp ****     PolyphonyEngine::RenderParameters params;
 317              		.loc 1 118 91 is_stmt 0 view .LVU79
 318 0000 00B5     		push	{lr}
 319              		.cfi_def_cfa_offset 4
 320              		.cfi_offset 14, -4
 321 0002 8DB0     		sub	sp, sp, #52
 322              		.cfi_def_cfa_offset 56
ARM GAS  /var/folders/9s/8rp0_f2s1n31qbztm3b5_fdh0000gn/T//ccDooZFg.s 			page 10


 123:AudioProcessor.cpp ****     params.pitch_val = pitch_val;
 323              		.loc 1 123 19 view .LVU80
 324 0004 8DF80C30 		strb	r3, [sp, #12]
 124:AudioProcessor.cpp ****     params.harm_knob_val = harm_knob_val;
 325              		.loc 1 124 22 view .LVU81
 326 0008 114B     		ldr	r3, .L20
 327              	.LVL22:
 120:AudioProcessor.cpp ****     params.poly_mode = poly_mode;
 328              		.loc 1 120 25 view .LVU82
 329 000a 0090     		str	r0, [sp]
 121:AudioProcessor.cpp ****     params.effective_num_voices = effective_num_voices;
 330              		.loc 1 121 5 is_stmt 1 view .LVU83
 124:AudioProcessor.cpp ****     params.harm_knob_val = harm_knob_val;
 331              		.loc 1 124 22 is_stmt 0 view .LVU84
 332 000c 1B68     		ldr	r3, [r3]	@ float
 121:AudioProcessor.cpp ****     params.effective_num_voices = effective_num_voices;
 333              		.loc 1 121 22 view .LVU85
 334 000e 8DF80410 		strb	r1, [sp, #4]
 122:AudioProcessor.cpp ****     params.arp_on = arp_on;
 335              		.loc 1 122 5 is_stmt 1 view .LVU86
 133:AudioProcessor.cpp **** }
 336              		.loc 1 133 28 is_stmt 0 view .LVU87
 337 0012 6946     		mov	r1, sp
 338              	.LVL23:
 124:AudioProcessor.cpp ****     params.harm_knob_val = harm_knob_val;
 339              		.loc 1 124 22 view .LVU88
 340 0014 0493     		str	r3, [sp, #16]	@ float
 125:AudioProcessor.cpp ****     params.morph_knob_val = morph_knob_val;
 341              		.loc 1 125 26 view .LVU89
 342 0016 0F4B     		ldr	r3, .L20+4
 133:AudioProcessor.cpp **** }
 343              		.loc 1 133 28 view .LVU90
 344 0018 0F48     		ldr	r0, .L20+8
 345              	.LVL24:
 125:AudioProcessor.cpp ****     params.morph_knob_val = morph_knob_val;
 346              		.loc 1 125 26 view .LVU91
 347 001a 1B68     		ldr	r3, [r3]	@ float
 122:AudioProcessor.cpp ****     params.arp_on = arp_on;
 348              		.loc 1 122 33 view .LVU92
 349 001c 0292     		str	r2, [sp, #8]
 123:AudioProcessor.cpp ****     params.pitch_val = pitch_val;
 350              		.loc 1 123 5 is_stmt 1 view .LVU93
 124:AudioProcessor.cpp ****     params.harm_knob_val = harm_knob_val;
 351              		.loc 1 124 5 view .LVU94
 125:AudioProcessor.cpp ****     params.morph_knob_val = morph_knob_val;
 352              		.loc 1 125 5 view .LVU95
 125:AudioProcessor.cpp ****     params.morph_knob_val = morph_knob_val;
 353              		.loc 1 125 26 is_stmt 0 view .LVU96
 354 001e 0593     		str	r3, [sp, #20]	@ float
 126:AudioProcessor.cpp ****     params.timbre_knob_val = timbre_knob_val;
 355              		.loc 1 126 5 is_stmt 1 view .LVU97
 126:AudioProcessor.cpp ****     params.timbre_knob_val = timbre_knob_val;
 356              		.loc 1 126 27 is_stmt 0 view .LVU98
 357 0020 0E4B     		ldr	r3, .L20+12
 358 0022 1B68     		ldr	r3, [r3]	@ float
 359 0024 0693     		str	r3, [sp, #24]	@ float
 127:AudioProcessor.cpp ****     params.env_attack_val = env_attack_val;
ARM GAS  /var/folders/9s/8rp0_f2s1n31qbztm3b5_fdh0000gn/T//ccDooZFg.s 			page 11


 360              		.loc 1 127 5 is_stmt 1 view .LVU99
 127:AudioProcessor.cpp ****     params.env_attack_val = env_attack_val;
 361              		.loc 1 127 28 is_stmt 0 view .LVU100
 362 0026 0E4B     		ldr	r3, .L20+16
 363 0028 1B68     		ldr	r3, [r3]	@ float
 364 002a 0793     		str	r3, [sp, #28]	@ float
 128:AudioProcessor.cpp ****     params.env_release_val = env_release_val;
 365              		.loc 1 128 5 is_stmt 1 view .LVU101
 128:AudioProcessor.cpp ****     params.env_release_val = env_release_val;
 366              		.loc 1 128 27 is_stmt 0 view .LVU102
 367 002c 0D4B     		ldr	r3, .L20+20
 368 002e 1B68     		ldr	r3, [r3]	@ float
 369 0030 0893     		str	r3, [sp, #32]	@ float
 129:AudioProcessor.cpp ****     params.delay_mix_val = delay_mix_val;
 370              		.loc 1 129 5 is_stmt 1 view .LVU103
 129:AudioProcessor.cpp ****     params.delay_mix_val = delay_mix_val;
 371              		.loc 1 129 28 is_stmt 0 view .LVU104
 372 0032 0D4B     		ldr	r3, .L20+24
 373 0034 1B68     		ldr	r3, [r3]	@ float
 374 0036 0993     		str	r3, [sp, #36]	@ float
 130:AudioProcessor.cpp ****     params.touch_cv_value = touch_cv_value;
 375              		.loc 1 130 5 is_stmt 1 view .LVU105
 130:AudioProcessor.cpp ****     params.touch_cv_value = touch_cv_value;
 376              		.loc 1 130 26 is_stmt 0 view .LVU106
 377 0038 0C4B     		ldr	r3, .L20+28
 378 003a 1B68     		ldr	r3, [r3]	@ float
 379 003c 0A93     		str	r3, [sp, #40]	@ float
 131:AudioProcessor.cpp ****     
 380              		.loc 1 131 5 is_stmt 1 view .LVU107
 131:AudioProcessor.cpp ****     
 381              		.loc 1 131 27 is_stmt 0 view .LVU108
 382 003e 0C4B     		ldr	r3, .L20+32
 383 0040 1B68     		ldr	r3, [r3]	@ float
 384 0042 0B93     		str	r3, [sp, #44]	@ float
 133:AudioProcessor.cpp **** }
 385              		.loc 1 133 5 is_stmt 1 view .LVU109
 133:AudioProcessor.cpp **** }
 386              		.loc 1 133 28 is_stmt 0 view .LVU110
 387 0044 FFF7FEFF 		bl	_ZN15PolyphonyEngine11RenderBlockERKNS_16RenderParametersE
 388              	.LVL25:
 134:AudioProcessor.cpp **** 
 389              		.loc 1 134 1 view .LVU111
 390 0048 0DB0     		add	sp, sp, #52
 391              		.cfi_def_cfa_offset 4
 392              		@ sp needed
 393 004a 5DF804FB 		ldr	pc, [sp], #4
 394              	.L21:
 395 004e 00BF     		.align	2
 396              	.L20:
 397 0050 00000000 		.word	pitch_val
 398 0054 00000000 		.word	harm_knob_val
 399 0058 00000000 		.word	poly_engine
 400 005c 00000000 		.word	morph_knob_val
 401 0060 00000000 		.word	timbre_knob_val
 402 0064 00000000 		.word	env_attack_val
 403 0068 00000000 		.word	env_release_val
 404 006c 00000000 		.word	delay_mix_val
ARM GAS  /var/folders/9s/8rp0_f2s1n31qbztm3b5_fdh0000gn/T//ccDooZFg.s 			page 12


 405 0070 00000000 		.word	touch_cv_value
 406              		.cfi_endproc
 407              	.LFE5348:
 409              		.section	.text._Z23DetermineEngineSettingsv,"ax",%progbits
 410              		.align	1
 411              		.global	_Z23DetermineEngineSettingsv
 412              		.syntax unified
 413              		.thumb
 414              		.thumb_func
 416              	_Z23DetermineEngineSettingsv:
 417              	.LFB5350:
 145:AudioProcessor.cpp ****     return current_engine_index;
 418              		.loc 1 145 31 is_stmt 1 view -0
 419              		.cfi_startproc
 420              		@ args = 0, pretend = 0, frame = 0
 421              		@ frame_needed = 0, uses_anonymous_args = 0
 422              		@ link register save eliminated.
 423              		.loc 1 146 5 view .LVU113
 424              		.loc 1 146 12 is_stmt 0 view .LVU114
 425 0000 014B     		ldr	r3, .L23
 426 0002 1868     		ldr	r0, [r3]
 147:AudioProcessor.cpp **** }
 427              		.loc 1 147 1 view .LVU115
 428 0004 7047     		bx	lr
 429              	.L24:
 430 0006 00BF     		.align	2
 431              	.L23:
 432 0008 00000000 		.word	.LANCHOR0
 433              		.cfi_endproc
 434              	.LFE5350:
 436              		.section	.text._Z25UpdatePerformanceMonitorsjPf,"ax",%progbits
 437              		.align	1
 438              		.global	_Z25UpdatePerformanceMonitorsjPf
 439              		.syntax unified
 440              		.thumb
 441              		.thumb_func
 443              	_Z25UpdatePerformanceMonitorsjPf:
 444              	.LVL26:
 445              	.LFB5351:
 148:AudioProcessor.cpp **** 
 149:AudioProcessor.cpp **** void UpdatePerformanceMonitors(size_t size, AudioHandle::InterleavingOutputBuffer out) {
 446              		.loc 1 149 88 is_stmt 1 view -0
 447              		.cfi_startproc
 448              		@ args = 0, pretend = 0, frame = 0
 449              		@ frame_needed = 0, uses_anonymous_args = 0
 150:AudioProcessor.cpp ****     if (size > 0) {
 450              		.loc 1 150 5 view .LVU117
 149:AudioProcessor.cpp ****     if (size > 0) {
 451              		.loc 1 149 88 is_stmt 0 view .LVU118
 452 0000 38B5     		push	{r3, r4, r5, lr}
 453              		.cfi_def_cfa_offset 16
 454              		.cfi_offset 3, -16
 455              		.cfi_offset 4, -12
 456              		.cfi_offset 5, -8
 457              		.cfi_offset 14, -4
 458              	.LBB26:
 459              		.loc 1 150 5 view .LVU119
ARM GAS  /var/folders/9s/8rp0_f2s1n31qbztm3b5_fdh0000gn/T//ccDooZFg.s 			page 13


 460 0002 80B1     		cbz	r0, .L26
 461              	.LBB27:
 151:AudioProcessor.cpp ****         float current_level = fabsf(out[0]);
 462              		.loc 1 151 9 is_stmt 1 view .LVU120
 463              	.LVL27:
 152:AudioProcessor.cpp ****         smoothed_output_level = smoothed_output_level * 0.99f + current_level * 0.01f;
 464              		.loc 1 152 9 view .LVU121
 151:AudioProcessor.cpp ****         float current_level = fabsf(out[0]);
 465              		.loc 1 151 15 is_stmt 0 view .LVU122
 466 0004 D1ED007A 		vldr.32	s15, [r1]
 467              		.loc 1 152 79 view .LVU123
 468 0008 9FED1C7A 		vldr.32	s14, .L37
 151:AudioProcessor.cpp ****         float current_level = fabsf(out[0]);
 469              		.loc 1 151 15 view .LVU124
 470 000c F0EEE77A 		vabs.f32	s15, s15
 471              	.LVL28:
 472              		.loc 1 152 33 view .LVU125
 473 0010 1B4B     		ldr	r3, .L37+4
 474 0012 D3ED006A 		vldr.32	s13, [r3]
 475              		.loc 1 152 79 view .LVU126
 476 0016 67EE877A 		vmul.f32	s15, s15, s14
 477              	.LVL29:
 478              		.loc 1 152 63 view .LVU127
 479 001a 9FED1A7A 		vldr.32	s14, .L37+8
 480 001e E6EE877A 		vfma.f32	s15, s13, s14
 481              		.loc 1 152 31 view .LVU128
 482 0022 C3ED007A 		vstr.32	s15, [r3]
 483              	.LVL30:
 484              	.L26:
 485              		.loc 1 152 31 view .LVU129
 486              	.LBE27:
 487              	.LBE26:
 153:AudioProcessor.cpp ****     }
 154:AudioProcessor.cpp **** 
 155:AudioProcessor.cpp ****     static uint32_t display_counter = 0;
 488              		.loc 1 155 5 is_stmt 1 view .LVU130
 156:AudioProcessor.cpp ****     static const uint32_t display_interval_blocks = (uint32_t)(sample_rate / BLOCK_SIZE * 3.0f);
 489              		.loc 1 156 5 view .LVU131
 490              		.loc 1 156 95 is_stmt 0 view .LVU132
 491 0026 184C     		ldr	r4, .L37+12
 492 0028 184D     		ldr	r5, .L37+16
 493 002a 2378     		ldrb	r3, [r4]	@ zero_extendqisi2
 494 002c BFF35B8F 		dmb	ish
 495 0030 13F0010F 		tst	r3, #1
 496 0034 15D1     		bne	.L28
 497              		.loc 1 156 95 discriminator 1 view .LVU133
 498 0036 2046     		mov	r0, r4
 499              	.LVL31:
 500              		.loc 1 156 95 discriminator 1 view .LVU134
 501 0038 FFF7FEFF 		bl	__cxa_guard_acquire
 502              	.LVL32:
 503              		.loc 1 156 95 discriminator 1 view .LVU135
 504 003c 88B1     		cbz	r0, .L28
 505              		.loc 1 156 76 discriminator 2 view .LVU136
 506 003e 144B     		ldr	r3, .L37+20
 507              		.loc 1 156 95 discriminator 2 view .LVU137
 508 0040 2046     		mov	r0, r4
ARM GAS  /var/folders/9s/8rp0_f2s1n31qbztm3b5_fdh0000gn/T//ccDooZFg.s 			page 14


 509              		.loc 1 156 76 discriminator 2 view .LVU138
 510 0042 9FED147A 		vldr.32	s14, .L37+24
 511 0046 D3ED007A 		vldr.32	s15, [r3]
 512 004a 67EE877A 		vmul.f32	s15, s15, s14
 513              		.loc 1 156 89 discriminator 2 view .LVU139
 514 004e B0EE087A 		vmov.f32	s14, #3.0e+0
 515 0052 67EE877A 		vmul.f32	s15, s15, s14
 516              		.loc 1 156 53 discriminator 2 view .LVU140
 517 0056 FCEEE77A 		vcvt.u32.f32	s15, s15
 518 005a C5ED007A 		vstr.32	s15, [r5]	@ int
 519              		.loc 1 156 95 discriminator 2 view .LVU141
 520 005e FFF7FEFF 		bl	__cxa_guard_release
 521              	.LVL33:
 522              	.L28:
 157:AudioProcessor.cpp ****     if (++display_counter >= display_interval_blocks) {
 523              		.loc 1 157 5 is_stmt 1 view .LVU142
 524              		.loc 1 157 9 is_stmt 0 view .LVU143
 525 0062 0D4A     		ldr	r2, .L37+28
 526              		.loc 1 157 5 view .LVU144
 527 0064 2968     		ldr	r1, [r5]
 528              		.loc 1 157 9 view .LVU145
 529 0066 1368     		ldr	r3, [r2]
 530 0068 0133     		adds	r3, r3, #1
 531              		.loc 1 157 5 view .LVU146
 532 006a 8B42     		cmp	r3, r1
 533              		.loc 1 157 27 view .LVU147
 534 006c 1360     		str	r3, [r2]
 535              		.loc 1 157 5 view .LVU148
 536 006e 04D3     		bcc	.L25
 158:AudioProcessor.cpp ****         display_counter = 0;
 537              		.loc 1 158 9 is_stmt 1 view .LVU149
 538              		.loc 1 158 25 is_stmt 0 view .LVU150
 539 0070 0023     		movs	r3, #0
 540 0072 1360     		str	r3, [r2]
 159:AudioProcessor.cpp ****         update_display = true;
 541              		.loc 1 159 9 is_stmt 1 view .LVU151
 542              		.loc 1 159 24 is_stmt 0 view .LVU152
 543 0074 0122     		movs	r2, #1
 544 0076 094B     		ldr	r3, .L37+32
 545 0078 1A70     		strb	r2, [r3]
 546              	.L25:
 160:AudioProcessor.cpp ****     }
 161:AudioProcessor.cpp **** } ...
 547              		.loc 1 161 1 view .LVU153
 548 007a 38BD     		pop	{r3, r4, r5, pc}
 549              	.L38:
 550              		.align	2
 551              	.L37:
 552 007c 0AD7233C 		.word	1008981770
 553 0080 00000000 		.word	smoothed_output_level
 554 0084 A4707D3F 		.word	1065185444
 555 0088 00000000 		.word	.LANCHOR2
 556 008c 00000000 		.word	.LANCHOR3
 557 0090 00000000 		.word	sample_rate
 558 0094 0000803D 		.word	1031798784
 559 0098 00000000 		.word	.LANCHOR4
 560 009c 00000000 		.word	update_display
ARM GAS  /var/folders/9s/8rp0_f2s1n31qbztm3b5_fdh0000gn/T//ccDooZFg.s 			page 15


 561              		.cfi_endproc
 562              	.LFE5351:
 564              		.section	.text._Z21ApplyEffectsAndOutputPfj,"ax",%progbits
 565              		.align	1
 566              		.global	_Z21ApplyEffectsAndOutputPfj
 567              		.syntax unified
 568              		.thumb
 569              		.thumb_func
 571              	_Z21ApplyEffectsAndOutputPfj:
 572              	.LVL34:
 573              	.LFB5349:
 136:AudioProcessor.cpp **** void ApplyEffectsAndOutput(AudioHandle::InterleavingOutputBuffer out, size_t size) {
 574              		.loc 1 136 84 is_stmt 1 view -0
 575              		.cfi_startproc
 576              		@ args = 0, pretend = 0, frame = 0
 577              		@ frame_needed = 0, uses_anonymous_args = 0
 137:AudioProcessor.cpp ****     DelayEffect::UpdateDelay();
 578              		.loc 1 137 5 view .LVU155
 136:AudioProcessor.cpp **** void ApplyEffectsAndOutput(AudioHandle::InterleavingOutputBuffer out, size_t size) {
 579              		.loc 1 136 84 is_stmt 0 view .LVU156
 580 0000 38B5     		push	{r3, r4, r5, lr}
 581              		.cfi_def_cfa_offset 16
 582              		.cfi_offset 3, -16
 583              		.cfi_offset 4, -12
 584              		.cfi_offset 5, -8
 585              		.cfi_offset 14, -4
 136:AudioProcessor.cpp **** void ApplyEffectsAndOutput(AudioHandle::InterleavingOutputBuffer out, size_t size) {
 586              		.loc 1 136 84 view .LVU157
 587 0002 0546     		mov	r5, r0
 588 0004 0C46     		mov	r4, r1
 137:AudioProcessor.cpp ****     DelayEffect::UpdateDelay();
 589              		.loc 1 137 29 view .LVU158
 590 0006 FFF7FEFF 		bl	_ZN11DelayEffect11UpdateDelayEv
 591              	.LVL35:
 139:AudioProcessor.cpp ****     float dry_level = 1.0f - delay_mix_val;
 592              		.loc 1 139 5 is_stmt 1 view .LVU159
 140:AudioProcessor.cpp ****     DelayEffect::ApplyDelayToOutput(poly_engine.GetMainOutputBuffer(), out, size, dry_level);
 593              		.loc 1 140 5 view .LVU160
 594              	.LBB28:
 595              	.LBI28:
 596              		.file 2 "Polyphony.h"
   1:Polyphony.h   **** #ifndef POLYPHONY_H
   2:Polyphony.h   **** #define POLYPHONY_H
   3:Polyphony.h   **** 
   4:Polyphony.h   **** #include "daisy_seed.h"
   5:Polyphony.h   **** #include "plaits/dsp/voice.h"
   6:Polyphony.h   **** #include "VoiceEnvelope.h"
   7:Polyphony.h   **** #include "Thaumazein.h"
   8:Polyphony.h   **** #include "stmlib/utils/buffer_allocator.h"
   9:Polyphony.h   **** 
  10:Polyphony.h   **** namespace stmlib {
  11:Polyphony.h   ****     class MonoBlockAllocator;
  12:Polyphony.h   **** }
  13:Polyphony.h   **** 
  14:Polyphony.h   **** namespace plaits {
  15:Polyphony.h   ****     class Voice;
  16:Polyphony.h   **** }
ARM GAS  /var/folders/9s/8rp0_f2s1n31qbztm3b5_fdh0000gn/T//ccDooZFg.s 			page 16


  17:Polyphony.h   **** 
  18:Polyphony.h   **** struct PatchParams {
  19:Polyphony.h   ****     int engine_idx;
  20:Polyphony.h   ****     float note;
  21:Polyphony.h   ****     float global_pitch_offset;
  22:Polyphony.h   ****     float harmonics;
  23:Polyphony.h   ****     float timbre;
  24:Polyphony.h   ****     float morph;
  25:Polyphony.h   ****     bool arp_on;
  26:Polyphony.h   ****     float decay;
  27:Polyphony.h   **** };
  28:Polyphony.h   **** 
  29:Polyphony.h   **** class PolyphonyEngine {
  30:Polyphony.h   **** public:
  31:Polyphony.h   ****     struct RenderParameters {
  32:Polyphony.h   ****         int engine_index;
  33:Polyphony.h   ****         bool poly_mode;
  34:Polyphony.h   ****         int effective_num_voices;
  35:Polyphony.h   ****         bool arp_on;
  36:Polyphony.h   ****         float pitch_val;
  37:Polyphony.h   ****         float harm_knob_val;
  38:Polyphony.h   ****         float morph_knob_val;
  39:Polyphony.h   ****         float timbre_knob_val;
  40:Polyphony.h   ****         float env_attack_val;
  41:Polyphony.h   ****         float env_release_val;
  42:Polyphony.h   ****         float delay_mix_val;
  43:Polyphony.h   ****         float touch_cv_value;
  44:Polyphony.h   ****     };
  45:Polyphony.h   **** 
  46:Polyphony.h   ****     PolyphonyEngine();
  47:Polyphony.h   ****     ~PolyphonyEngine();
  48:Polyphony.h   **** 
  49:Polyphony.h   ****     void Init(daisy::DaisySeed* hw);
  50:Polyphony.h   ****     void HandleTouchInput(uint16_t current_touch_state, uint16_t last_touch_state, int engine_index
  51:Polyphony.h   ****     void RenderBlock(const RenderParameters& params);
  52:Polyphony.h   ****     void ResetVoices();
  53:Polyphony.h   ****     
  54:Polyphony.h   ****     const float* GetMainOutputBuffer() const { return mix_buffer_out_; }
 597              		.loc 2 54 18 view .LVU161
 598              	.LBE28:
 599              		.loc 2 54 48 view .LVU162
 139:AudioProcessor.cpp ****     float dry_level = 1.0f - delay_mix_val;
 600              		.loc 1 139 11 is_stmt 0 view .LVU163
 601 000a 094B     		ldr	r3, .L40
 602              	.LVL36:
 140:AudioProcessor.cpp ****     DelayEffect::ApplyDelayToOutput(poly_engine.GetMainOutputBuffer(), out, size, dry_level);
 603              		.loc 1 140 36 view .LVU164
 604 000c B7EE000A 		vmov.f32	s0, #1.0e+0
 605 0010 2946     		mov	r1, r5
 139:AudioProcessor.cpp ****     float dry_level = 1.0f - delay_mix_val;
 606              		.loc 1 139 11 view .LVU165
 607 0012 D3ED007A 		vldr.32	s15, [r3]
 140:AudioProcessor.cpp ****     DelayEffect::ApplyDelayToOutput(poly_engine.GetMainOutputBuffer(), out, size, dry_level);
 608              		.loc 1 140 36 view .LVU166
 609 0016 2246     		mov	r2, r4
 610 0018 0648     		ldr	r0, .L40+4
 611 001a 30EE670A 		vsub.f32	s0, s0, s15
ARM GAS  /var/folders/9s/8rp0_f2s1n31qbztm3b5_fdh0000gn/T//ccDooZFg.s 			page 17


 612              	.LVL37:
 140:AudioProcessor.cpp ****     DelayEffect::ApplyDelayToOutput(poly_engine.GetMainOutputBuffer(), out, size, dry_level);
 613              		.loc 1 140 36 view .LVU167
 614 001e FFF7FEFF 		bl	_ZN11DelayEffect18ApplyDelayToOutputEPKfPfjf
 615              	.LVL38:
 142:AudioProcessor.cpp ****     UpdatePerformanceMonitors(size, out);
 616              		.loc 1 142 5 is_stmt 1 view .LVU168
 142:AudioProcessor.cpp ****     UpdatePerformanceMonitors(size, out);
 617              		.loc 1 142 30 is_stmt 0 view .LVU169
 618 0022 2946     		mov	r1, r5
 619 0024 2046     		mov	r0, r4
 143:AudioProcessor.cpp **** }
 620              		.loc 1 143 1 view .LVU170
 621 0026 BDE83840 		pop	{r3, r4, r5, lr}
 622              		.cfi_restore 14
 623              		.cfi_restore 5
 624              		.cfi_restore 4
 625              		.cfi_restore 3
 626              		.cfi_def_cfa_offset 0
 627              	.LVL39:
 142:AudioProcessor.cpp ****     UpdatePerformanceMonitors(size, out);
 628              		.loc 1 142 30 view .LVU171
 629 002a FFF7FEBF 		b	_Z25UpdatePerformanceMonitorsjPf
 630              	.LVL40:
 631              	.L41:
 142:AudioProcessor.cpp ****     UpdatePerformanceMonitors(size, out);
 632              		.loc 1 142 30 view .LVU172
 633 002e 00BF     		.align	2
 634              	.L40:
 635 0030 00000000 		.word	delay_mix_val
 636 0034 243A0000 		.word	poly_engine+14884
 637              		.cfi_endproc
 638              	.LFE5349:
 640              		.section	.rodata._Z13AudioCallbackPKfPfj.str1.1,"aMS",%progbits,1
 641              	.LC0:
 642 0000 5B417564 		.ascii	"[AudioCallback] Enter\000"
 642      696F4361 
 642      6C6C6261 
 642      636B5D20 
 642      456E7465 
 643              		.section	.text._Z13AudioCallbackPKfPfj,"ax",%progbits
 644              		.align	1
 645              		.global	_Z13AudioCallbackPKfPfj
 646              		.syntax unified
 647              		.thumb
 648              		.thumb_func
 650              	_Z13AudioCallbackPKfPfj:
 651              	.LVL41:
 652              	.LFB5345:
  43:AudioProcessor.cpp ****                  size_t size) {
 653              		.loc 1 43 31 is_stmt 1 view -0
 654              		.cfi_startproc
 655              		@ args = 0, pretend = 0, frame = 16
 656              		@ frame_needed = 0, uses_anonymous_args = 0
  44:AudioProcessor.cpp ****     static bool audio_cb_started = false;
 657              		.loc 1 44 5 view .LVU174
  45:AudioProcessor.cpp ****     if(!audio_cb_started) {
ARM GAS  /var/folders/9s/8rp0_f2s1n31qbztm3b5_fdh0000gn/T//ccDooZFg.s 			page 18


 658              		.loc 1 45 5 view .LVU175
  43:AudioProcessor.cpp ****                  size_t size) {
 659              		.loc 1 43 31 is_stmt 0 view .LVU176
 660 0000 2DE9F043 		push	{r4, r5, r6, r7, r8, r9, lr}
 661              		.cfi_def_cfa_offset 28
 662              		.cfi_offset 4, -28
 663              		.cfi_offset 5, -24
 664              		.cfi_offset 6, -20
 665              		.cfi_offset 7, -16
 666              		.cfi_offset 8, -12
 667              		.cfi_offset 9, -8
 668              		.cfi_offset 14, -4
  45:AudioProcessor.cpp ****     if(!audio_cb_started) {
 669              		.loc 1 45 8 view .LVU177
 670 0004 394C     		ldr	r4, .L56
  43:AudioProcessor.cpp ****                  size_t size) {
 671              		.loc 1 43 31 view .LVU178
 672 0006 85B0     		sub	sp, sp, #20
 673              		.cfi_def_cfa_offset 48
  43:AudioProcessor.cpp ****                  size_t size) {
 674              		.loc 1 43 31 view .LVU179
 675 0008 0D46     		mov	r5, r1
 676 000a 1646     		mov	r6, r2
  45:AudioProcessor.cpp ****     if(!audio_cb_started) {
 677              		.loc 1 45 5 view .LVU180
 678 000c 2378     		ldrb	r3, [r4]	@ zero_extendqisi2
 679 000e 23B9     		cbnz	r3, .L43
  46:AudioProcessor.cpp ****         hw.PrintLine("[AudioCallback] Enter");
 680              		.loc 1 46 9 is_stmt 1 view .LVU181
 681              	.LVL42:
 682              	.LBB35:
 683              	.LBI35:
 684              		.file 3 "lib/libdaisy/src/daisy_seed.h"
   1:lib/libdaisy/src/daisy_seed.h **** #pragma once
   2:lib/libdaisy/src/daisy_seed.h **** #ifndef DSY_SEED_H
   3:lib/libdaisy/src/daisy_seed.h **** #define DSY_SEED_H
   4:lib/libdaisy/src/daisy_seed.h **** 
   5:lib/libdaisy/src/daisy_seed.h **** #include "daisy.h"
   6:lib/libdaisy/src/daisy_seed.h **** 
   7:lib/libdaisy/src/daisy_seed.h **** //Uncomment this out if you're still using the rev2 hardware
   8:lib/libdaisy/src/daisy_seed.h **** //#define SEED_REV2
   9:lib/libdaisy/src/daisy_seed.h **** 
  10:lib/libdaisy/src/daisy_seed.h **** namespace daisy
  11:lib/libdaisy/src/daisy_seed.h **** {
  12:lib/libdaisy/src/daisy_seed.h **** /**
  13:lib/libdaisy/src/daisy_seed.h ****    @brief This is the higher-level interface for the Daisy board. \n 
  14:lib/libdaisy/src/daisy_seed.h ****     All basic peripheral configuration/initialization is setup here. \n
  15:lib/libdaisy/src/daisy_seed.h **** 
  16:lib/libdaisy/src/daisy_seed.h ****    @ingroup boards
  17:lib/libdaisy/src/daisy_seed.h **** */
  18:lib/libdaisy/src/daisy_seed.h **** class DaisySeed
  19:lib/libdaisy/src/daisy_seed.h **** {
  20:lib/libdaisy/src/daisy_seed.h ****   public:
  21:lib/libdaisy/src/daisy_seed.h ****     DaisySeed() {}
  22:lib/libdaisy/src/daisy_seed.h ****     ~DaisySeed() {}
  23:lib/libdaisy/src/daisy_seed.h **** 
  24:lib/libdaisy/src/daisy_seed.h ****     /** This function used to provide a pre-initialization configuraiton 
ARM GAS  /var/folders/9s/8rp0_f2s1n31qbztm3b5_fdh0000gn/T//ccDooZFg.s 			page 19


  25:lib/libdaisy/src/daisy_seed.h ****      *  it has since been deprecated, and does nothing.
  26:lib/libdaisy/src/daisy_seed.h ****      */
  27:lib/libdaisy/src/daisy_seed.h ****     void Configure();
  28:lib/libdaisy/src/daisy_seed.h **** 
  29:lib/libdaisy/src/daisy_seed.h ****     /** 
  30:lib/libdaisy/src/daisy_seed.h ****     Initializes the Daisy Seed and the following peripherals:
  31:lib/libdaisy/src/daisy_seed.h ****     SDRAM, QSPI, 24-bit 48kHz Audio via AK4556, Internal USB,
  32:lib/libdaisy/src/daisy_seed.h ****     as well as the built-in LED and Testpoint.
  33:lib/libdaisy/src/daisy_seed.h **** 
  34:lib/libdaisy/src/daisy_seed.h ****     ADCs, DACs, and other special peripherals (such as I2C, SPI, etc.)
  35:lib/libdaisy/src/daisy_seed.h ****     can be initialized using their specific initializers within libdaisy
  36:lib/libdaisy/src/daisy_seed.h ****     for a specific application.
  37:lib/libdaisy/src/daisy_seed.h ****     */
  38:lib/libdaisy/src/daisy_seed.h ****     void Init(bool boost = false);
  39:lib/libdaisy/src/daisy_seed.h **** 
  40:lib/libdaisy/src/daisy_seed.h ****     /** 
  41:lib/libdaisy/src/daisy_seed.h ****     Deinitializes all peripherals automatically handled by `Init`.
  42:lib/libdaisy/src/daisy_seed.h ****     */
  43:lib/libdaisy/src/daisy_seed.h ****     void DeInit();
  44:lib/libdaisy/src/daisy_seed.h **** 
  45:lib/libdaisy/src/daisy_seed.h ****     /** 
  46:lib/libdaisy/src/daisy_seed.h ****     Wait some ms before going on.
  47:lib/libdaisy/src/daisy_seed.h ****     \param del Delay time in ms.
  48:lib/libdaisy/src/daisy_seed.h ****     */
  49:lib/libdaisy/src/daisy_seed.h ****     void DelayMs(size_t del);
  50:lib/libdaisy/src/daisy_seed.h **** 
  51:lib/libdaisy/src/daisy_seed.h ****     /** 
  52:lib/libdaisy/src/daisy_seed.h ****     Returns the gpio_pin corresponding to the index 0-31.
  53:lib/libdaisy/src/daisy_seed.h ****     For the given GPIO on the Daisy Seed (labeled 1-32 in docs).
  54:lib/libdaisy/src/daisy_seed.h ****     */
  55:lib/libdaisy/src/daisy_seed.h ****     static dsy_gpio_pin GetPin(uint8_t pin_idx);
  56:lib/libdaisy/src/daisy_seed.h **** 
  57:lib/libdaisy/src/daisy_seed.h ****     /** Begins the audio for the seeds builtin audio.
  58:lib/libdaisy/src/daisy_seed.h ****     the specified callback will get called whenever
  59:lib/libdaisy/src/daisy_seed.h ****     new data is ready to be prepared.
  60:lib/libdaisy/src/daisy_seed.h ****     */
  61:lib/libdaisy/src/daisy_seed.h ****     void StartAudio(AudioHandle::InterleavingAudioCallback cb);
  62:lib/libdaisy/src/daisy_seed.h **** 
  63:lib/libdaisy/src/daisy_seed.h ****     /** Begins the audio for the seeds builtin audio.
  64:lib/libdaisy/src/daisy_seed.h ****     the specified callback will get called whenever
  65:lib/libdaisy/src/daisy_seed.h ****     new data is ready to be prepared.
  66:lib/libdaisy/src/daisy_seed.h ****     This will use the newer non-interleaved callback.
  67:lib/libdaisy/src/daisy_seed.h ****     */
  68:lib/libdaisy/src/daisy_seed.h ****     void StartAudio(AudioHandle::AudioCallback cb);
  69:lib/libdaisy/src/daisy_seed.h **** 
  70:lib/libdaisy/src/daisy_seed.h ****     /** Changes to a new interleaved callback
  71:lib/libdaisy/src/daisy_seed.h ****      */
  72:lib/libdaisy/src/daisy_seed.h ****     void ChangeAudioCallback(AudioHandle::InterleavingAudioCallback cb);
  73:lib/libdaisy/src/daisy_seed.h **** 
  74:lib/libdaisy/src/daisy_seed.h ****     /** Changes to a new multichannel callback
  75:lib/libdaisy/src/daisy_seed.h ****      */
  76:lib/libdaisy/src/daisy_seed.h ****     void ChangeAudioCallback(AudioHandle::AudioCallback cb);
  77:lib/libdaisy/src/daisy_seed.h **** 
  78:lib/libdaisy/src/daisy_seed.h ****     /** Stops the audio if it is running. */
  79:lib/libdaisy/src/daisy_seed.h ****     void StopAudio();
  80:lib/libdaisy/src/daisy_seed.h **** 
  81:lib/libdaisy/src/daisy_seed.h ****     /** Updates the Audio Sample Rate, and reinitializes.
ARM GAS  /var/folders/9s/8rp0_f2s1n31qbztm3b5_fdh0000gn/T//ccDooZFg.s 			page 20


  82:lib/libdaisy/src/daisy_seed.h ****      ** Audio must be stopped for this to work.
  83:lib/libdaisy/src/daisy_seed.h ****      */
  84:lib/libdaisy/src/daisy_seed.h ****     void SetAudioSampleRate(SaiHandle::Config::SampleRate samplerate);
  85:lib/libdaisy/src/daisy_seed.h **** 
  86:lib/libdaisy/src/daisy_seed.h ****     /** Returns the audio sample rate in Hz as a floating point number.
  87:lib/libdaisy/src/daisy_seed.h ****      */
  88:lib/libdaisy/src/daisy_seed.h ****     float AudioSampleRate();
  89:lib/libdaisy/src/daisy_seed.h **** 
  90:lib/libdaisy/src/daisy_seed.h ****     /** Sets the number of samples processed per channel by the audio callback.
  91:lib/libdaisy/src/daisy_seed.h ****      */
  92:lib/libdaisy/src/daisy_seed.h ****     void SetAudioBlockSize(size_t blocksize);
  93:lib/libdaisy/src/daisy_seed.h **** 
  94:lib/libdaisy/src/daisy_seed.h ****     /** Returns the number of samples per channel in a block of audio. */
  95:lib/libdaisy/src/daisy_seed.h ****     size_t AudioBlockSize();
  96:lib/libdaisy/src/daisy_seed.h **** 
  97:lib/libdaisy/src/daisy_seed.h ****     /** Returns the rate in Hz that the Audio callback is called */
  98:lib/libdaisy/src/daisy_seed.h ****     float AudioCallbackRate() const;
  99:lib/libdaisy/src/daisy_seed.h **** 
 100:lib/libdaisy/src/daisy_seed.h ****     /** Sets the state of the built in LED
 101:lib/libdaisy/src/daisy_seed.h ****      */
 102:lib/libdaisy/src/daisy_seed.h ****     void SetLed(bool state);
 103:lib/libdaisy/src/daisy_seed.h **** 
 104:lib/libdaisy/src/daisy_seed.h ****     /** Sets the state of the test point near pin 10
 105:lib/libdaisy/src/daisy_seed.h ****      */
 106:lib/libdaisy/src/daisy_seed.h ****     void SetTestPoint(bool state);
 107:lib/libdaisy/src/daisy_seed.h **** 
 108:lib/libdaisy/src/daisy_seed.h ****     /** Print formatted debug log message
 109:lib/libdaisy/src/daisy_seed.h ****      */
 110:lib/libdaisy/src/daisy_seed.h ****     template <typename... VA>
 111:lib/libdaisy/src/daisy_seed.h ****     static void Print(const char* format, VA... va)
 112:lib/libdaisy/src/daisy_seed.h ****     {
 113:lib/libdaisy/src/daisy_seed.h ****         Log::Print(format, va...);
 114:lib/libdaisy/src/daisy_seed.h ****     }
 115:lib/libdaisy/src/daisy_seed.h **** 
 116:lib/libdaisy/src/daisy_seed.h ****     /** Print formatted debug log message with automatic line termination
 117:lib/libdaisy/src/daisy_seed.h ****     */
 118:lib/libdaisy/src/daisy_seed.h ****     template <typename... VA>
 119:lib/libdaisy/src/daisy_seed.h ****     static void PrintLine(const char* format, VA... va)
 685              		.loc 3 119 17 view .LVU182
 686              	.LBB36:
 120:lib/libdaisy/src/daisy_seed.h ****     {
 121:lib/libdaisy/src/daisy_seed.h ****         Log::PrintLine(format, va...);
 687              		.loc 3 121 23 is_stmt 0 view .LVU183
 688 0010 3748     		ldr	r0, .L56+4
 689              	.LVL43:
 690              		.loc 3 121 23 view .LVU184
 691 0012 FFF7FEFF 		bl	_ZN5daisy6LoggerILNS_17LoggerDestinationE1EE9PrintLineEPKcz
 692              	.LVL44:
 693              		.loc 3 121 23 view .LVU185
 694              	.LBE36:
 695              	.LBE35:
  47:AudioProcessor.cpp ****         audio_cb_started = true;
 696              		.loc 1 47 9 is_stmt 1 view .LVU186
  47:AudioProcessor.cpp ****         audio_cb_started = true;
 697              		.loc 1 47 26 is_stmt 0 view .LVU187
 698 0016 0123     		movs	r3, #1
 699 0018 2370     		strb	r3, [r4]
ARM GAS  /var/folders/9s/8rp0_f2s1n31qbztm3b5_fdh0000gn/T//ccDooZFg.s 			page 21


 700              	.L43:
  49:AudioProcessor.cpp ****     cpu_meter.OnBlockStart(); // Mark the beginning of the audio block
 701              		.loc 1 49 5 is_stmt 1 view .LVU188
 702              	.LVL45:
 703              	.LBB37:
 704              	.LBI37:
 705              		.file 4 "lib/libdaisy/src/util/CpuLoadMeter.h"
   1:lib/libdaisy/src/util/CpuLoadMeter.h **** #pragma once
   2:lib/libdaisy/src/util/CpuLoadMeter.h **** 
   3:lib/libdaisy/src/util/CpuLoadMeter.h **** #include "sys/system.h"
   4:lib/libdaisy/src/util/CpuLoadMeter.h **** #include <cmath>
   5:lib/libdaisy/src/util/CpuLoadMeter.h **** 
   6:lib/libdaisy/src/util/CpuLoadMeter.h **** namespace daisy
   7:lib/libdaisy/src/util/CpuLoadMeter.h **** {
   8:lib/libdaisy/src/util/CpuLoadMeter.h **** /** @brief CPU load metering
   9:lib/libdaisy/src/util/CpuLoadMeter.h ****  *  @author jelliesen
  10:lib/libdaisy/src/util/CpuLoadMeter.h ****  *  @addtogroup utility
  11:lib/libdaisy/src/util/CpuLoadMeter.h ****  * 
  12:lib/libdaisy/src/util/CpuLoadMeter.h ****  *  To measure the CPU load of your audio processing, create a CpuLoadMeter
  13:lib/libdaisy/src/util/CpuLoadMeter.h ****  *  and initialize it with your block size and sample rate.
  14:lib/libdaisy/src/util/CpuLoadMeter.h ****  *  Then at the beginning of the audio callback, call `OnBlockStart()`, 
  15:lib/libdaisy/src/util/CpuLoadMeter.h ****  *  and at the end of the audio callback, call `OnBlockEnd()`.
  16:lib/libdaisy/src/util/CpuLoadMeter.h ****  *  You can then read out the minimum, maximum and average CPU load.
  17:lib/libdaisy/src/util/CpuLoadMeter.h ****  */
  18:lib/libdaisy/src/util/CpuLoadMeter.h **** class CpuLoadMeter
  19:lib/libdaisy/src/util/CpuLoadMeter.h **** {
  20:lib/libdaisy/src/util/CpuLoadMeter.h ****   public:
  21:lib/libdaisy/src/util/CpuLoadMeter.h ****     CpuLoadMeter(){};
  22:lib/libdaisy/src/util/CpuLoadMeter.h **** 
  23:lib/libdaisy/src/util/CpuLoadMeter.h ****     /** Initializes the CpuLoadMeter for a particular sample rate and block size.
  24:lib/libdaisy/src/util/CpuLoadMeter.h ****      *  @param sampleRateInHz           The sample rate in Hz
  25:lib/libdaisy/src/util/CpuLoadMeter.h ****      *  @param blockSizeInSamples       The block size in samples
  26:lib/libdaisy/src/util/CpuLoadMeter.h ****      *  @param smoothingFilterCutoffHz  The cutoff frequency of the smoothing filter that's used to
  27:lib/libdaisy/src/util/CpuLoadMeter.h ****      *                                  create the average CPU load reading.
  28:lib/libdaisy/src/util/CpuLoadMeter.h ****      */
  29:lib/libdaisy/src/util/CpuLoadMeter.h ****     void Init(float sampleRateInHz,
  30:lib/libdaisy/src/util/CpuLoadMeter.h ****               int   blockSizeInSamples,
  31:lib/libdaisy/src/util/CpuLoadMeter.h ****               float smoothingFilterCutoffHz = 1.0f)
  32:lib/libdaisy/src/util/CpuLoadMeter.h ****     {
  33:lib/libdaisy/src/util/CpuLoadMeter.h ****         const auto secPerBlock = float(blockSizeInSamples) / sampleRateInHz;
  34:lib/libdaisy/src/util/CpuLoadMeter.h ****         const auto ticksPerS   = float(System::GetTickFreq());
  35:lib/libdaisy/src/util/CpuLoadMeter.h ****         ticksPerBlockInv_      = 1.0f / (ticksPerS * secPerBlock);
  36:lib/libdaisy/src/util/CpuLoadMeter.h **** 
  37:lib/libdaisy/src/util/CpuLoadMeter.h ****         // update filter coefficient for smoothing filter (1pole lowpass)
  38:lib/libdaisy/src/util/CpuLoadMeter.h ****         const auto blockRateInHz = sampleRateInHz / float(blockSizeInSamples);
  39:lib/libdaisy/src/util/CpuLoadMeter.h ****         const auto cutoffNormalized
  40:lib/libdaisy/src/util/CpuLoadMeter.h ****             = smoothingFilterCutoffHz * 2.0f * 3.141592653f / blockRateInHz;
  41:lib/libdaisy/src/util/CpuLoadMeter.h ****         // according to
  42:lib/libdaisy/src/util/CpuLoadMeter.h ****         // https://en.wikipedia.org/wiki/Low-pass_filter#Simple_infinite_impulse_response_filter
  43:lib/libdaisy/src/util/CpuLoadMeter.h ****         smoothingConstant_ = cutoffNormalized / (cutoffNormalized + 1.0f);
  44:lib/libdaisy/src/util/CpuLoadMeter.h **** 
  45:lib/libdaisy/src/util/CpuLoadMeter.h ****         Reset();
  46:lib/libdaisy/src/util/CpuLoadMeter.h ****     }
  47:lib/libdaisy/src/util/CpuLoadMeter.h **** 
  48:lib/libdaisy/src/util/CpuLoadMeter.h ****     /** Call this at the beginning of your audio callback */
  49:lib/libdaisy/src/util/CpuLoadMeter.h ****     void OnBlockStart() { currentBlockStartTicks_ = System::GetTick(); }
 706              		.loc 4 49 10 view .LVU189
ARM GAS  /var/folders/9s/8rp0_f2s1n31qbztm3b5_fdh0000gn/T//ccDooZFg.s 			page 22


 707              	.LBB38:
 708              		.loc 4 49 27 view .LVU190
 709              		.loc 4 49 51 is_stmt 0 view .LVU191
 710 001a 364C     		ldr	r4, .L56+8
 711              		.loc 4 49 68 view .LVU192
 712 001c FFF7FEFF 		bl	_ZN5daisy6System7GetTickEv
 713              	.LVL46:
 714              	.LBE38:
 715              	.LBE37:
  61:AudioProcessor.cpp ****     if(engine_changed_flag) {
 716              		.loc 1 61 8 view .LVU193
 717 0020 354F     		ldr	r7, .L56+12
 718              	.LBB40:
 719              	.LBB39:
 720              		.loc 4 49 51 view .LVU194
 721 0022 A060     		str	r0, [r4, #8]
 722              	.LVL47:
 723              		.loc 4 49 51 view .LVU195
 724              	.LBE39:
 725              	.LBE40:
  52:AudioProcessor.cpp ****     int engineIndex;
 726              		.loc 1 52 5 is_stmt 1 view .LVU196
  53:AudioProcessor.cpp ****     bool poly_mode;
 727              		.loc 1 53 5 view .LVU197
  54:AudioProcessor.cpp ****     int effective_num_voices;
 728              		.loc 1 54 5 view .LVU198
  55:AudioProcessor.cpp ****     bool arp_on;
 729              		.loc 1 55 5 view .LVU199
  57:AudioProcessor.cpp ****     ProcessUIAndControls();
 730              		.loc 1 57 5 view .LVU200
  57:AudioProcessor.cpp ****     ProcessUIAndControls();
 731              		.loc 1 57 25 is_stmt 0 view .LVU201
 732 0024 FFF7FEFF 		bl	_Z20ProcessUIAndControlsv
 733              	.LVL48:
  60:AudioProcessor.cpp ****     static int prev_engine_index_static = 0;
 734              		.loc 1 60 5 is_stmt 1 view .LVU202
  61:AudioProcessor.cpp ****     if(engine_changed_flag) {
 735              		.loc 1 61 5 view .LVU203
  61:AudioProcessor.cpp ****     if(engine_changed_flag) {
 736              		.loc 1 61 8 is_stmt 0 view .LVU204
 737 0028 3B78     		ldrb	r3, [r7]	@ zero_extendqisi2
  61:AudioProcessor.cpp ****     if(engine_changed_flag) {
 738              		.loc 1 61 5 view .LVU205
 739 002a 83B1     		cbz	r3, .L44
  62:AudioProcessor.cpp ****         poly_engine.OnEngineChange(prev_engine_index_static, current_engine_index);
 740              		.loc 1 62 9 is_stmt 1 view .LVU206
  62:AudioProcessor.cpp ****         poly_engine.OnEngineChange(prev_engine_index_static, current_engine_index);
 741              		.loc 1 62 35 is_stmt 0 view .LVU207
 742 002c DFF8D090 		ldr	r9, .L56+20
 743 0030 DFF8D080 		ldr	r8, .L56+24
 744 0034 D9F80020 		ldr	r2, [r9]
 745 0038 D8F80010 		ldr	r1, [r8]
 746 003c 2F48     		ldr	r0, .L56+16
 747 003e FFF7FEFF 		bl	_ZN15PolyphonyEngine14OnEngineChangeEii
 748              	.LVL49:
  63:AudioProcessor.cpp ****         prev_engine_index_static = current_engine_index;
 749              		.loc 1 63 9 is_stmt 1 view .LVU208
ARM GAS  /var/folders/9s/8rp0_f2s1n31qbztm3b5_fdh0000gn/T//ccDooZFg.s 			page 23


  63:AudioProcessor.cpp ****         prev_engine_index_static = current_engine_index;
 750              		.loc 1 63 34 is_stmt 0 view .LVU209
 751 0042 D9F80030 		ldr	r3, [r9]
 752 0046 C8F80030 		str	r3, [r8]
  64:AudioProcessor.cpp ****         engine_changed_flag = false; // Clear flag after handling
 753              		.loc 1 64 9 is_stmt 1 view .LVU210
  64:AudioProcessor.cpp ****         engine_changed_flag = false; // Clear flag after handling
 754              		.loc 1 64 29 is_stmt 0 view .LVU211
 755 004a 0023     		movs	r3, #0
 756 004c 3B70     		strb	r3, [r7]
 757              	.L44:
  67:AudioProcessor.cpp ****     UpdateArpState(engineIndex, poly_mode, effective_num_voices, arp_on);
 758              		.loc 1 67 5 is_stmt 1 view .LVU212
  67:AudioProcessor.cpp ****     UpdateArpState(engineIndex, poly_mode, effective_num_voices, arp_on);
 759              		.loc 1 67 19 is_stmt 0 view .LVU213
 760 004e 0DF10703 		add	r3, sp, #7
 761 0052 03AA     		add	r2, sp, #12
 762 0054 0DF10601 		add	r1, sp, #6
 763 0058 02A8     		add	r0, sp, #8
 764 005a FFF7FEFF 		bl	_Z14UpdateArpStateRiRbS_S0_
 765              	.LVL50:
  68:AudioProcessor.cpp ****     RenderVoices(engineIndex, poly_mode, effective_num_voices, arp_on);
 766              		.loc 1 68 5 is_stmt 1 view .LVU214
  68:AudioProcessor.cpp ****     RenderVoices(engineIndex, poly_mode, effective_num_voices, arp_on);
 767              		.loc 1 68 17 is_stmt 0 view .LVU215
 768 005e 9DF80730 		ldrb	r3, [sp, #7]	@ zero_extendqisi2
 769 0062 039A     		ldr	r2, [sp, #12]
 770 0064 9DF80610 		ldrb	r1, [sp, #6]	@ zero_extendqisi2
 771 0068 0298     		ldr	r0, [sp, #8]
 772 006a FFF7FEFF 		bl	_Z12RenderVoicesibib
 773              	.LVL51:
  69:AudioProcessor.cpp ****     ApplyEffectsAndOutput(out, size);
 774              		.loc 1 69 5 is_stmt 1 view .LVU216
  69:AudioProcessor.cpp ****     ApplyEffectsAndOutput(out, size);
 775              		.loc 1 69 26 is_stmt 0 view .LVU217
 776 006e 3146     		mov	r1, r6
 777 0070 2846     		mov	r0, r5
 778 0072 FFF7FEFF 		bl	_Z21ApplyEffectsAndOutputPfj
 779              	.LVL52:
  71:AudioProcessor.cpp ****     cpu_meter.OnBlockEnd(); // Mark the end of the audio block
 780              		.loc 1 71 5 is_stmt 1 view .LVU218
 781              	.LBB41:
 782              	.LBI41:
  50:lib/libdaisy/src/util/CpuLoadMeter.h **** 
  51:lib/libdaisy/src/util/CpuLoadMeter.h ****     /** Call this at the end of your audio callback */
  52:lib/libdaisy/src/util/CpuLoadMeter.h ****     void OnBlockEnd()
 783              		.loc 4 52 10 view .LVU219
 784              	.LBB42:
  53:lib/libdaisy/src/util/CpuLoadMeter.h ****     {
  54:lib/libdaisy/src/util/CpuLoadMeter.h ****         const auto end         = System::GetTick();
 785              		.loc 4 54 9 view .LVU220
 786              		.loc 4 54 49 is_stmt 0 view .LVU221
 787 0076 FFF7FEFF 		bl	_ZN5daisy6System7GetTickEv
 788              	.LVL53:
  55:lib/libdaisy/src/util/CpuLoadMeter.h ****         const auto ticksPassed = end - currentBlockStartTicks_;
 789              		.loc 4 55 9 is_stmt 1 view .LVU222
  56:lib/libdaisy/src/util/CpuLoadMeter.h ****         const auto currentBlockLoad
ARM GAS  /var/folders/9s/8rp0_f2s1n31qbztm3b5_fdh0000gn/T//ccDooZFg.s 			page 24


 790              		.loc 4 56 9 view .LVU223
  55:lib/libdaisy/src/util/CpuLoadMeter.h ****         const auto ticksPassed = end - currentBlockStartTicks_;
 791              		.loc 4 55 20 is_stmt 0 view .LVU224
 792 007a A368     		ldr	r3, [r4, #8]
 793              		.loc 4 56 20 view .LVU225
 794 007c 94ED017A 		vldr.32	s14, [r4, #4]
  55:lib/libdaisy/src/util/CpuLoadMeter.h ****         const auto ticksPassed = end - currentBlockStartTicks_;
 795              		.loc 4 55 20 view .LVU226
 796 0080 C31A     		subs	r3, r0, r3
 797              	.LVL54:
  55:lib/libdaisy/src/util/CpuLoadMeter.h ****         const auto ticksPassed = end - currentBlockStartTicks_;
 798              		.loc 4 55 20 view .LVU227
 799 0082 07EE903A 		vmov	s15, r3	@ int
  57:lib/libdaisy/src/util/CpuLoadMeter.h ****             = float(ticksPassed) * ticksPerBlockInv_; // usPassed / usPerBlock
  58:lib/libdaisy/src/util/CpuLoadMeter.h **** 
  59:lib/libdaisy/src/util/CpuLoadMeter.h ****         if(firstCycle_)
 800              		.loc 4 59 9 view .LVU228
 801 0086 2378     		ldrb	r3, [r4]	@ zero_extendqisi2
 802              	.LVL55:
  57:lib/libdaisy/src/util/CpuLoadMeter.h ****             = float(ticksPassed) * ticksPerBlockInv_; // usPassed / usPerBlock
 803              		.loc 4 57 15 view .LVU229
 804 0088 F8EE677A 		vcvt.f32.u32	s15, s15
 805              	.LVL56:
  56:lib/libdaisy/src/util/CpuLoadMeter.h ****         const auto currentBlockLoad
 806              		.loc 4 56 20 view .LVU230
 807 008c 67EE877A 		vmul.f32	s15, s15, s14
 808              	.LVL57:
 809              		.loc 4 59 9 is_stmt 1 view .LVU231
 810 0090 53B1     		cbz	r3, .L45
  60:lib/libdaisy/src/util/CpuLoadMeter.h ****         {
  61:lib/libdaisy/src/util/CpuLoadMeter.h ****             max_ = min_ = avg_ = currentBlockLoad;
 811              		.loc 4 61 13 view .LVU232
  62:lib/libdaisy/src/util/CpuLoadMeter.h ****             firstCycle_        = false;
 812              		.loc 4 62 32 is_stmt 0 view .LVU233
 813 0092 0023     		movs	r3, #0
  61:lib/libdaisy/src/util/CpuLoadMeter.h ****             firstCycle_        = false;
 814              		.loc 4 61 32 view .LVU234
 815 0094 C4ED057A 		vstr.32	s15, [r4, #20]
  61:lib/libdaisy/src/util/CpuLoadMeter.h ****             firstCycle_        = false;
 816              		.loc 4 61 25 view .LVU235
 817 0098 C4ED037A 		vstr.32	s15, [r4, #12]
  61:lib/libdaisy/src/util/CpuLoadMeter.h ****             firstCycle_        = false;
 818              		.loc 4 61 18 view .LVU236
 819 009c C4ED047A 		vstr.32	s15, [r4, #16]
 820              		.loc 4 62 13 is_stmt 1 view .LVU237
 821              		.loc 4 62 32 is_stmt 0 view .LVU238
 822 00a0 2370     		strb	r3, [r4]
 823              	.LVL58:
 824              	.L42:
 825              		.loc 4 62 32 view .LVU239
 826              	.LBE42:
 827              	.LBE41:
  72:AudioProcessor.cpp **** }
 828              		.loc 1 72 1 view .LVU240
 829 00a2 05B0     		add	sp, sp, #20
 830              		.cfi_remember_state
 831              		.cfi_def_cfa_offset 28
ARM GAS  /var/folders/9s/8rp0_f2s1n31qbztm3b5_fdh0000gn/T//ccDooZFg.s 			page 25


 832              		@ sp needed
 833 00a4 BDE8F083 		pop	{r4, r5, r6, r7, r8, r9, pc}
 834              	.LVL59:
 835              	.L45:
 836              		.cfi_restore_state
 837              	.LBB44:
 838              	.LBB43:
  63:lib/libdaisy/src/util/CpuLoadMeter.h ****         }
  64:lib/libdaisy/src/util/CpuLoadMeter.h ****         else
  65:lib/libdaisy/src/util/CpuLoadMeter.h ****         {
  66:lib/libdaisy/src/util/CpuLoadMeter.h ****             if(currentBlockLoad > max_)
 839              		.loc 4 66 13 is_stmt 1 view .LVU241
 840 00a8 94ED047A 		vldr.32	s14, [r4, #16]
  67:lib/libdaisy/src/util/CpuLoadMeter.h ****                 max_ = currentBlockLoad;
  68:lib/libdaisy/src/util/CpuLoadMeter.h ****             if(currentBlockLoad < min_)
  69:lib/libdaisy/src/util/CpuLoadMeter.h ****                 min_ = currentBlockLoad;
  70:lib/libdaisy/src/util/CpuLoadMeter.h **** 
  71:lib/libdaisy/src/util/CpuLoadMeter.h ****             avg_ = smoothingConstant_ * currentBlockLoad
 841              		.loc 4 71 20 is_stmt 0 view .LVU242
 842 00ac D4ED066A 		vldr.32	s13, [r4, #24]
  66:lib/libdaisy/src/util/CpuLoadMeter.h ****                 max_ = currentBlockLoad;
 843              		.loc 4 66 13 view .LVU243
 844 00b0 F4EEC77A 		vcmpe.f32	s15, s14
  68:lib/libdaisy/src/util/CpuLoadMeter.h ****                 min_ = currentBlockLoad;
 845              		.loc 4 68 13 view .LVU244
 846 00b4 94ED037A 		vldr.32	s14, [r4, #12]
  72:lib/libdaisy/src/util/CpuLoadMeter.h ****                    + (1.0f - smoothingConstant_) * avg_;
 847              		.loc 4 72 50 view .LVU245
 848 00b8 94ED056A 		vldr.32	s12, [r4, #20]
  66:lib/libdaisy/src/util/CpuLoadMeter.h ****                 max_ = currentBlockLoad;
 849              		.loc 4 66 13 view .LVU246
 850 00bc F1EE10FA 		vmrs	APSR_nzcv, FPSCR
  67:lib/libdaisy/src/util/CpuLoadMeter.h ****             if(currentBlockLoad < min_)
 851              		.loc 4 67 17 is_stmt 1 view .LVU247
  68:lib/libdaisy/src/util/CpuLoadMeter.h ****                 min_ = currentBlockLoad;
 852              		.loc 4 68 13 is_stmt 0 view .LVU248
 853 00c0 F4EEC77A 		vcmpe.f32	s15, s14
 854              		.loc 4 72 28 view .LVU249
 855 00c4 B7EE007A 		vmov.f32	s14, #1.0e+0
  67:lib/libdaisy/src/util/CpuLoadMeter.h ****             if(currentBlockLoad < min_)
 856              		.loc 4 67 22 view .LVU250
 857 00c8 C8BF     		it	gt
 858 00ca C4ED047A 		vstrgt.32	s15, [r4, #16]
  68:lib/libdaisy/src/util/CpuLoadMeter.h ****                 min_ = currentBlockLoad;
 859              		.loc 4 68 13 is_stmt 1 view .LVU251
 860 00ce F1EE10FA 		vmrs	APSR_nzcv, FPSCR
  69:lib/libdaisy/src/util/CpuLoadMeter.h **** 
 861              		.loc 4 69 17 view .LVU252
 862              		.loc 4 72 28 is_stmt 0 view .LVU253
 863 00d2 37EE667A 		vsub.f32	s14, s14, s13
  69:lib/libdaisy/src/util/CpuLoadMeter.h **** 
 864              		.loc 4 69 22 view .LVU254
 865 00d6 48BF     		it	mi
 866 00d8 C4ED037A 		vstrmi.32	s15, [r4, #12]
  71:lib/libdaisy/src/util/CpuLoadMeter.h ****                    + (1.0f - smoothingConstant_) * avg_;
 867              		.loc 4 71 13 is_stmt 1 view .LVU255
 868              		.loc 4 72 50 is_stmt 0 view .LVU256
ARM GAS  /var/folders/9s/8rp0_f2s1n31qbztm3b5_fdh0000gn/T//ccDooZFg.s 			page 26


 869 00dc 27EE067A 		vmul.f32	s14, s14, s12
 870              		.loc 4 72 20 view .LVU257
 871 00e0 A7EEA67A 		vfma.f32	s14, s15, s13
  71:lib/libdaisy/src/util/CpuLoadMeter.h ****                    + (1.0f - smoothingConstant_) * avg_;
 872              		.loc 4 71 18 view .LVU258
 873 00e4 84ED057A 		vstr.32	s14, [r4, #20]
 874              	.LVL60:
  71:lib/libdaisy/src/util/CpuLoadMeter.h ****                    + (1.0f - smoothingConstant_) * avg_;
 875              		.loc 4 71 18 view .LVU259
 876              	.LBE43:
 877              	.LBE44:
  72:AudioProcessor.cpp **** }
 878              		.loc 1 72 1 view .LVU260
 879 00e8 DBE7     		b	.L42
 880              	.L57:
 881 00ea 00BF     		.align	2
 882              	.L56:
 883 00ec 00000000 		.word	.LANCHOR5
 884 00f0 00000000 		.word	.LC0
 885 00f4 00000000 		.word	.LANCHOR6
 886 00f8 00000000 		.word	.LANCHOR7
 887 00fc 00000000 		.word	poly_engine
 888 0100 00000000 		.word	.LANCHOR0
 889 0104 00000000 		.word	.LANCHOR8
 890              		.cfi_endproc
 891              	.LFE5345:
 893              		.global	engine_retrigger_phase
 894              		.global	engine_changed_flag
 895              		.global	current_engine_index
 896              		.global	cpu_meter
 897              		.section	.bss._ZGVZ25UpdatePerformanceMonitorsjPfE23display_interval_blocks,"aw",%nobits
 898              		.align	2
 899              		.set	.LANCHOR2,. + 0
 902              	_ZGVZ25UpdatePerformanceMonitorsjPfE23display_interval_blocks:
 903 0000 00000000 		.space	4
 904              		.section	.bss._ZL10was_arp_on,"aw",%nobits
 905              		.set	.LANCHOR1,. + 0
 908              	_ZL10was_arp_on:
 909 0000 00       		.space	1
 910              		.section	.bss._ZZ13AudioCallbackPKfPfjE16audio_cb_started,"aw",%nobits
 911              		.set	.LANCHOR5,. + 0
 914              	_ZZ13AudioCallbackPKfPfjE16audio_cb_started:
 915 0000 00       		.space	1
 916              		.section	.bss._ZZ13AudioCallbackPKfPfjE24prev_engine_index_static,"aw",%nobits
 917              		.align	2
 918              		.set	.LANCHOR8,. + 0
 921              	_ZZ13AudioCallbackPKfPfjE24prev_engine_index_static:
 922 0000 00000000 		.space	4
 923              		.section	.bss._ZZ25UpdatePerformanceMonitorsjPfE15display_counter,"aw",%nobits
 924              		.align	2
 925              		.set	.LANCHOR4,. + 0
 928              	_ZZ25UpdatePerformanceMonitorsjPfE15display_counter:
 929 0000 00000000 		.space	4
 930              		.section	.bss._ZZ25UpdatePerformanceMonitorsjPfE23display_interval_blocks,"aw",%nobits
 931              		.align	2
 932              		.set	.LANCHOR3,. + 0
 935              	_ZZ25UpdatePerformanceMonitorsjPfE23display_interval_blocks:
ARM GAS  /var/folders/9s/8rp0_f2s1n31qbztm3b5_fdh0000gn/T//ccDooZFg.s 			page 27


 936 0000 00000000 		.space	4
 937              		.section	.bss.cpu_meter,"aw",%nobits
 938              		.align	2
 939              		.set	.LANCHOR6,. + 0
 942              	cpu_meter:
 943 0000 00000000 		.space	28
 943      00000000 
 943      00000000 
 943      00000000 
 943      00000000 
 944              		.section	.bss.current_engine_index,"aw",%nobits
 945              		.align	2
 946              		.set	.LANCHOR0,. + 0
 949              	current_engine_index:
 950 0000 00000000 		.space	4
 951              		.section	.bss.engine_changed_flag,"aw",%nobits
 952              		.set	.LANCHOR7,. + 0
 955              	engine_changed_flag:
 956 0000 00       		.space	1
 957              		.section	.bss.engine_retrigger_phase,"aw",%nobits
 958              		.align	2
 961              	engine_retrigger_phase:
 962 0000 00000000 		.space	4
 963              		.text
 964              	.Letext0:
 965              		.file 5 "/Library/DaisyToolchain/0.2.0/arm/arm-none-eabi/include/machine/_default_types.h"
 966              		.file 6 "/Library/DaisyToolchain/0.2.0/arm/arm-none-eabi/include/sys/_stdint.h"
 967              		.file 7 "/Library/DaisyToolchain/0.2.0/arm/arm-none-eabi/include/stdint.h"
 968              		.file 8 "/Library/DaisyToolchain/0.2.0/arm/lib/gcc/arm-none-eabi/10.3.1/include/stddef.h"
 969              		.file 9 "/Library/DaisyToolchain/0.2.0/arm/arm-none-eabi/include/c++/10.3.1/cmath"
 970              		.file 10 "/Library/DaisyToolchain/0.2.0/arm/arm-none-eabi/include/c++/10.3.1/bits/std_abs.h"
 971              		.file 11 "/Library/DaisyToolchain/0.2.0/arm/arm-none-eabi/include/c++/10.3.1/cstdlib"
 972              		.file 12 "/Library/DaisyToolchain/0.2.0/arm/arm-none-eabi/include/c++/10.3.1/cstdint"
 973              		.file 13 "/Library/DaisyToolchain/0.2.0/arm/arm-none-eabi/include/c++/10.3.1/type_traits"
 974              		.file 14 "/Library/DaisyToolchain/0.2.0/arm/arm-none-eabi/include/c++/10.3.1/arm-none-eabi/thumb/v
 975              		.file 15 "/Library/DaisyToolchain/0.2.0/arm/arm-none-eabi/include/c++/10.3.1/bits/stl_pair.h"
 976              		.file 16 "/Library/DaisyToolchain/0.2.0/arm/arm-none-eabi/include/c++/10.3.1/debug/debug.h"
 977              		.file 17 "/Library/DaisyToolchain/0.2.0/arm/arm-none-eabi/include/c++/10.3.1/bits/algorithmfwd.h"
 978              		.file 18 "/Library/DaisyToolchain/0.2.0/arm/arm-none-eabi/include/c++/10.3.1/bits/exception_ptr.h"
 979              		.file 19 "/Library/DaisyToolchain/0.2.0/arm/arm-none-eabi/include/c++/10.3.1/cstdarg"
 980              		.file 20 "/Library/DaisyToolchain/0.2.0/arm/arm-none-eabi/include/c++/10.3.1/cstdio"
 981              		.file 21 "/Library/DaisyToolchain/0.2.0/arm/arm-none-eabi/include/c++/10.3.1/cstring"
 982              		.file 22 "/Library/DaisyToolchain/0.2.0/arm/arm-none-eabi/include/c++/10.3.1/cwchar"
 983              		.file 23 "/Library/DaisyToolchain/0.2.0/arm/arm-none-eabi/include/c++/10.3.1/clocale"
 984              		.file 24 "/Library/DaisyToolchain/0.2.0/arm/arm-none-eabi/include/c++/10.3.1/bits/basic_string.h"
 985              		.file 25 "/Library/DaisyToolchain/0.2.0/arm/arm-none-eabi/include/c++/10.3.1/bits/stl_iterator.h"
 986              		.file 26 "/Library/DaisyToolchain/0.2.0/arm/arm-none-eabi/include/c++/10.3.1/bits/uses_allocator.h
 987              		.file 27 "/Library/DaisyToolchain/0.2.0/arm/arm-none-eabi/include/c++/10.3.1/tuple"
 988              		.file 28 "/Library/DaisyToolchain/0.2.0/arm/arm-none-eabi/include/c++/10.3.1/bits/std_function.h"
 989              		.file 29 "/Library/DaisyToolchain/0.2.0/arm/arm-none-eabi/include/c++/10.3.1/functional"
 990              		.file 30 "/Library/DaisyToolchain/0.2.0/arm/arm-none-eabi/include/c++/10.3.1/bits/allocator.h"
 991              		.file 31 "/Library/DaisyToolchain/0.2.0/arm/arm-none-eabi/include/c++/10.3.1/bits/alloc_traits.h"
 992              		.file 32 "/Library/DaisyToolchain/0.2.0/arm/arm-none-eabi/include/c++/10.3.1/bits/stl_vector.h"
 993              		.file 33 "/Library/DaisyToolchain/0.2.0/arm/arm-none-eabi/include/c++/10.3.1/bits/vector.tcc"
 994              		.file 34 "/Library/DaisyToolchain/0.2.0/arm/arm-none-eabi/include/c++/10.3.1/bits/stl_function.h"
 995              		.file 35 "/Library/DaisyToolchain/0.2.0/arm/arm-none-eabi/include/c++/10.3.1/bits/refwrap.h"
 996              		.file 36 "/Library/DaisyToolchain/0.2.0/arm/arm-none-eabi/include/c++/10.3.1/cstddef"
ARM GAS  /var/folders/9s/8rp0_f2s1n31qbztm3b5_fdh0000gn/T//ccDooZFg.s 			page 28


 997              		.file 37 "/Library/DaisyToolchain/0.2.0/arm/arm-none-eabi/include/c++/10.3.1/bits/predefined_ops.h
 998              		.file 38 "/Library/DaisyToolchain/0.2.0/arm/arm-none-eabi/include/c++/10.3.1/ext/new_allocator.h"
 999              		.file 39 "/Library/DaisyToolchain/0.2.0/arm/arm-none-eabi/include/c++/10.3.1/ext/alloc_traits.h"
 1000              		.file 40 "/Library/DaisyToolchain/0.2.0/arm/arm-none-eabi/include/sys/_types.h"
 1001              		.file 41 "/Library/DaisyToolchain/0.2.0/arm/arm-none-eabi/include/sys/reent.h"
 1002              		.file 42 "/Library/DaisyToolchain/0.2.0/arm/arm-none-eabi/include/sys/lock.h"
 1003              		.file 43 "/Library/DaisyToolchain/0.2.0/arm/arm-none-eabi/include/math.h"
 1004              		.file 44 "/Library/DaisyToolchain/0.2.0/arm/arm-none-eabi/include/stdlib.h"
 1005              		.file 45 "/Library/DaisyToolchain/0.2.0/arm/arm-none-eabi/include/c++/10.3.1/math.h"
 1006              		.file 46 "/Library/DaisyToolchain/0.2.0/arm/arm-none-eabi/include/c++/10.3.1/stdlib.h"
 1007              		.file 47 "lib/libdaisy/src/daisy_core.h"
 1008              		.file 48 "lib/libdaisy/src/per/tim.h"
 1009              		.file 49 "lib/libdaisy/src/sys/system.h"
 1010              		.file 50 "lib/libdaisy/src/per/qspi.h"
 1011              		.file 51 "lib/libdaisy/src/per/dac.h"
 1012              		.file 52 "lib/libdaisy/src/per/sai.h"
 1013              		.file 53 "lib/libdaisy/src/hid/audio.h"
 1014              		.file 54 "lib/libdaisy/src/per/adc.h"
 1015              		.file 55 "lib/libdaisy/src/hid/usb.h"
 1016              		.file 56 "lib/libdaisy/src/hid/logger_impl.h"
 1017              		.file 57 "lib/libdaisy/src/util/wav_format.h"
 1018              		.file 58 "lib/libdaisy/src/hid/logger.h"
 1019              		.file 59 "lib/libdaisy/src/per/gpio.h"
 1020              		.file 60 "lib/libdaisy/src/dev/sdram.h"
 1021              		.file 61 "/Library/DaisyToolchain/0.2.0/arm/lib/gcc/arm-none-eabi/10.3.1/include/stdarg.h"
 1022              		.file 62 "/Library/DaisyToolchain/0.2.0/arm/arm-none-eabi/include/stdio.h"
 1023              		.file 63 "/Library/DaisyToolchain/0.2.0/arm/arm-none-eabi/include/string.h"
 1024              		.file 64 "lib/DaisySP/Source/Control/adenv.h"
 1025              		.file 65 "lib/DaisySP/Source/Utility/dsp.h"
 1026              		.file 66 "lib/DaisySP/Source/Utility/metro.h"
 1027              		.file 67 "/Library/DaisyToolchain/0.2.0/arm/arm-none-eabi/include/wchar.h"
 1028              		.file 68 "/Library/DaisyToolchain/0.2.0/arm/arm-none-eabi/include/locale.h"
 1029              		.file 69 "eurorack/stmlib/stmlib.h"
 1030              		.file 70 "eurorack/stmlib/dsp/filter.h"
 1031              		.file 71 "eurorack/stmlib/dsp/limiter.h"
 1032              		.file 72 "eurorack/stmlib/utils/buffer_allocator.h"
 1033              		.file 73 "eurorack/stmlib/dsp/hysteresis_quantizer.h"
 1034              		.file 74 "eurorack/plaits/dsp/dsp.h"
 1035              		.file 75 "eurorack/plaits/dsp/engine/engine.h"
 1036              		.file 76 "eurorack/plaits/dsp/engine/additive_engine.h"
 1037              		.file 77 "eurorack/plaits/dsp/oscillator/oscillator.h"
 1038              		.file 78 "eurorack/plaits/dsp/engine/chord_engine.h"
 1039              		.file 79 "eurorack/plaits/dsp/physical_modelling/resonator.h"
 1040              		.file 80 "eurorack/plaits/dsp/engine/particle_engine.h"
 1041              		.file 81 "eurorack/plaits/dsp/physical_modelling/string.h"
 1042              		.file 82 "eurorack/plaits/dsp/engine/string_engine.h"
 1043              		.file 83 "eurorack/plaits/dsp/engine/swarm_engine.h"
 1044              		.file 84 "eurorack/plaits/dsp/oscillator/variable_saw_oscillator.h"
 1045              		.file 85 "eurorack/plaits/dsp/envelope.h"
 1046              		.file 86 "eurorack/plaits/dsp/fx/low_pass_gate.h"
 1047              		.file 87 "eurorack/plaits/dsp/voice.h"
 1048              		.file 88 "eurorack/plaits/dsp/physical_modelling/delay_line.h"
 1049              		.file 89 "mpr121_daisy.h"
 1050              		.file 90 "Effects/BiquadFilters.h"
 1051              		.file 91 "VoiceEnvelope.h"
 1052              		.file 92 "Arpeggiator.h"
 1053              		.file 93 "Thaumazein.h"
ARM GAS  /var/folders/9s/8rp0_f2s1n31qbztm3b5_fdh0000gn/T//ccDooZFg.s 			page 29


 1054              		.file 94 "lib/libdaisy/src/dev/sr_595.h"
 1055              		.file 95 "<built-in>"
ARM GAS  /var/folders/9s/8rp0_f2s1n31qbztm3b5_fdh0000gn/T//ccDooZFg.s 			page 30


DEFINED SYMBOLS
                            *ABS*:0000000000000000 AudioProcessor.cpp
/var/folders/9s/8rp0_f2s1n31qbztm3b5_fdh0000gn/T//ccDooZFg.s:19     .text._Z20ProcessUIAndControlsv:0000000000000000 $t
/var/folders/9s/8rp0_f2s1n31qbztm3b5_fdh0000gn/T//ccDooZFg.s:25     .text._Z20ProcessUIAndControlsv:0000000000000000 _Z20ProcessUIAndControlsv
/var/folders/9s/8rp0_f2s1n31qbztm3b5_fdh0000gn/T//ccDooZFg.s:93     .text._Z20ProcessUIAndControlsv:000000000000004c $d
/var/folders/9s/8rp0_f2s1n31qbztm3b5_fdh0000gn/T//ccDooZFg.s:103    .text._Z14UpdateArpStateRiRbS_S0_:0000000000000000 $t
/var/folders/9s/8rp0_f2s1n31qbztm3b5_fdh0000gn/T//ccDooZFg.s:109    .text._Z14UpdateArpStateRiRbS_S0_:0000000000000000 _Z14UpdateArpStateRiRbS_S0_
/var/folders/9s/8rp0_f2s1n31qbztm3b5_fdh0000gn/T//ccDooZFg.s:292    .text._Z14UpdateArpStateRiRbS_S0_:00000000000000a4 $d
/var/folders/9s/8rp0_f2s1n31qbztm3b5_fdh0000gn/T//ccDooZFg.s:302    .text._Z12RenderVoicesibib:0000000000000000 $t
/var/folders/9s/8rp0_f2s1n31qbztm3b5_fdh0000gn/T//ccDooZFg.s:308    .text._Z12RenderVoicesibib:0000000000000000 _Z12RenderVoicesibib
/var/folders/9s/8rp0_f2s1n31qbztm3b5_fdh0000gn/T//ccDooZFg.s:397    .text._Z12RenderVoicesibib:0000000000000050 $d
/var/folders/9s/8rp0_f2s1n31qbztm3b5_fdh0000gn/T//ccDooZFg.s:410    .text._Z23DetermineEngineSettingsv:0000000000000000 $t
/var/folders/9s/8rp0_f2s1n31qbztm3b5_fdh0000gn/T//ccDooZFg.s:416    .text._Z23DetermineEngineSettingsv:0000000000000000 _Z23DetermineEngineSettingsv
/var/folders/9s/8rp0_f2s1n31qbztm3b5_fdh0000gn/T//ccDooZFg.s:432    .text._Z23DetermineEngineSettingsv:0000000000000008 $d
/var/folders/9s/8rp0_f2s1n31qbztm3b5_fdh0000gn/T//ccDooZFg.s:437    .text._Z25UpdatePerformanceMonitorsjPf:0000000000000000 $t
/var/folders/9s/8rp0_f2s1n31qbztm3b5_fdh0000gn/T//ccDooZFg.s:443    .text._Z25UpdatePerformanceMonitorsjPf:0000000000000000 _Z25UpdatePerformanceMonitorsjPf
/var/folders/9s/8rp0_f2s1n31qbztm3b5_fdh0000gn/T//ccDooZFg.s:552    .text._Z25UpdatePerformanceMonitorsjPf:000000000000007c $d
/var/folders/9s/8rp0_f2s1n31qbztm3b5_fdh0000gn/T//ccDooZFg.s:565    .text._Z21ApplyEffectsAndOutputPfj:0000000000000000 $t
/var/folders/9s/8rp0_f2s1n31qbztm3b5_fdh0000gn/T//ccDooZFg.s:571    .text._Z21ApplyEffectsAndOutputPfj:0000000000000000 _Z21ApplyEffectsAndOutputPfj
/var/folders/9s/8rp0_f2s1n31qbztm3b5_fdh0000gn/T//ccDooZFg.s:635    .text._Z21ApplyEffectsAndOutputPfj:0000000000000030 $d
/var/folders/9s/8rp0_f2s1n31qbztm3b5_fdh0000gn/T//ccDooZFg.s:644    .text._Z13AudioCallbackPKfPfj:0000000000000000 $t
/var/folders/9s/8rp0_f2s1n31qbztm3b5_fdh0000gn/T//ccDooZFg.s:650    .text._Z13AudioCallbackPKfPfj:0000000000000000 _Z13AudioCallbackPKfPfj
/var/folders/9s/8rp0_f2s1n31qbztm3b5_fdh0000gn/T//ccDooZFg.s:883    .text._Z13AudioCallbackPKfPfj:00000000000000ec $d
/var/folders/9s/8rp0_f2s1n31qbztm3b5_fdh0000gn/T//ccDooZFg.s:961    .bss.engine_retrigger_phase:0000000000000000 engine_retrigger_phase
/var/folders/9s/8rp0_f2s1n31qbztm3b5_fdh0000gn/T//ccDooZFg.s:955    .bss.engine_changed_flag:0000000000000000 engine_changed_flag
/var/folders/9s/8rp0_f2s1n31qbztm3b5_fdh0000gn/T//ccDooZFg.s:949    .bss.current_engine_index:0000000000000000 current_engine_index
/var/folders/9s/8rp0_f2s1n31qbztm3b5_fdh0000gn/T//ccDooZFg.s:942    .bss.cpu_meter:0000000000000000 cpu_meter
/var/folders/9s/8rp0_f2s1n31qbztm3b5_fdh0000gn/T//ccDooZFg.s:898    .bss._ZGVZ25UpdatePerformanceMonitorsjPfE23display_interval_blocks:0000000000000000 $d
/var/folders/9s/8rp0_f2s1n31qbztm3b5_fdh0000gn/T//ccDooZFg.s:902    .bss._ZGVZ25UpdatePerformanceMonitorsjPfE23display_interval_blocks:0000000000000000 _ZGVZ25UpdatePerformanceMonitorsjPfE23display_interval_blocks
/var/folders/9s/8rp0_f2s1n31qbztm3b5_fdh0000gn/T//ccDooZFg.s:908    .bss._ZL10was_arp_on:0000000000000000 _ZL10was_arp_on
/var/folders/9s/8rp0_f2s1n31qbztm3b5_fdh0000gn/T//ccDooZFg.s:909    .bss._ZL10was_arp_on:0000000000000000 $d
/var/folders/9s/8rp0_f2s1n31qbztm3b5_fdh0000gn/T//ccDooZFg.s:914    .bss._ZZ13AudioCallbackPKfPfjE16audio_cb_started:0000000000000000 _ZZ13AudioCallbackPKfPfjE16audio_cb_started
/var/folders/9s/8rp0_f2s1n31qbztm3b5_fdh0000gn/T//ccDooZFg.s:915    .bss._ZZ13AudioCallbackPKfPfjE16audio_cb_started:0000000000000000 $d
/var/folders/9s/8rp0_f2s1n31qbztm3b5_fdh0000gn/T//ccDooZFg.s:917    .bss._ZZ13AudioCallbackPKfPfjE24prev_engine_index_static:0000000000000000 $d
/var/folders/9s/8rp0_f2s1n31qbztm3b5_fdh0000gn/T//ccDooZFg.s:921    .bss._ZZ13AudioCallbackPKfPfjE24prev_engine_index_static:0000000000000000 _ZZ13AudioCallbackPKfPfjE24prev_engine_index_static
/var/folders/9s/8rp0_f2s1n31qbztm3b5_fdh0000gn/T//ccDooZFg.s:924    .bss._ZZ25UpdatePerformanceMonitorsjPfE15display_counter:0000000000000000 $d
/var/folders/9s/8rp0_f2s1n31qbztm3b5_fdh0000gn/T//ccDooZFg.s:928    .bss._ZZ25UpdatePerformanceMonitorsjPfE15display_counter:0000000000000000 _ZZ25UpdatePerformanceMonitorsjPfE15display_counter
/var/folders/9s/8rp0_f2s1n31qbztm3b5_fdh0000gn/T//ccDooZFg.s:931    .bss._ZZ25UpdatePerformanceMonitorsjPfE23display_interval_blocks:0000000000000000 $d
/var/folders/9s/8rp0_f2s1n31qbztm3b5_fdh0000gn/T//ccDooZFg.s:935    .bss._ZZ25UpdatePerformanceMonitorsjPfE23display_interval_blocks:0000000000000000 _ZZ25UpdatePerformanceMonitorsjPfE23display_interval_blocks
/var/folders/9s/8rp0_f2s1n31qbztm3b5_fdh0000gn/T//ccDooZFg.s:938    .bss.cpu_meter:0000000000000000 $d
/var/folders/9s/8rp0_f2s1n31qbztm3b5_fdh0000gn/T//ccDooZFg.s:945    .bss.current_engine_index:0000000000000000 $d
/var/folders/9s/8rp0_f2s1n31qbztm3b5_fdh0000gn/T//ccDooZFg.s:956    .bss.engine_changed_flag:0000000000000000 $d
/var/folders/9s/8rp0_f2s1n31qbztm3b5_fdh0000gn/T//ccDooZFg.s:958    .bss.engine_retrigger_phase:0000000000000000 $d

UNDEFINED SYMBOLS
_Z15ProcessControlsv
_Z14ReadKnobValuesv
_ZN11Arpeggiator20SetMainTempoFromKnobEf
arp_enabled
delay_time_val
arp
touch_cv_value
morph_knob_val
delay_feedback_val
_ZN15PolyphonyEngine11ResetVoicesEv
_ZN15PolyphonyEngine20UpdateLastTouchStateEt
_ZNK15PolyphonyEngine17GetLastTouchStateEv
ARM GAS  /var/folders/9s/8rp0_f2s1n31qbztm3b5_fdh0000gn/T//ccDooZFg.s 			page 31


_ZN11Arpeggiator15UpdateHeldNotesEtt
_ZN11Arpeggiator7ProcessEj
_ZN15PolyphonyEngine16HandleTouchInputEttibi
poly_engine
current_touch_state
_ZN15PolyphonyEngine11RenderBlockERKNS_16RenderParametersE
pitch_val
harm_knob_val
timbre_knob_val
env_attack_val
env_release_val
delay_mix_val
__cxa_guard_acquire
__cxa_guard_release
smoothed_output_level
sample_rate
update_display
_ZN11DelayEffect11UpdateDelayEv
_ZN11DelayEffect18ApplyDelayToOutputEPKfPfjf
_ZN5daisy6LoggerILNS_17LoggerDestinationE1EE9PrintLineEPKcz
_ZN5daisy6System7GetTickEv
_ZN15PolyphonyEngine14OnEngineChangeEii
