ARM GAS  /var/folders/9s/8rp0_f2s1n31qbztm3b5_fdh0000gn/T//ccqxwUOT.s 			page 1


   1              		.cpu cortex-m7
   2              		.arch armv7e-m
   3              		.fpu fpv5-d16
   4              		.eabi_attribute 28, 1
   5              		.eabi_attribute 20, 1
   6              		.eabi_attribute 21, 1
   7              		.eabi_attribute 23, 3
   8              		.eabi_attribute 24, 1
   9              		.eabi_attribute 25, 1
  10              		.eabi_attribute 26, 1
  11              		.eabi_attribute 30, 4
  12              		.eabi_attribute 34, 1
  13              		.eabi_attribute 18, 4
  14              		.file	"bass_drum_engine.cc"
  15              		.text
  16              	.Ltext0:
  17              		.cfi_sections	.debug_frame
  18              		.section	.text._ZN6plaits14BassDrumEngine5ResetEv,"ax",%progbits
  19              		.align	1
  20              		.global	_ZN6plaits14BassDrumEngine5ResetEv
  21              		.syntax unified
  22              		.thumb
  23              		.thumb_func
  25              	_ZN6plaits14BassDrumEngine5ResetEv:
  26              	.LVL0:
  27              	.LFB1616:
  28              		.file 1 "eurorack/plaits/dsp/engine/bass_drum_engine.cc"
   1:eurorack/plaits/dsp/engine/bass_drum_engine.cc **** // Copyright 2016 Emilie Gillet.
   2:eurorack/plaits/dsp/engine/bass_drum_engine.cc **** //
   3:eurorack/plaits/dsp/engine/bass_drum_engine.cc **** // Author: Emilie Gillet (emilie.o.gillet@gmail.com)
   4:eurorack/plaits/dsp/engine/bass_drum_engine.cc **** //
   5:eurorack/plaits/dsp/engine/bass_drum_engine.cc **** // Permission is hereby granted, free of charge, to any person obtaining a copy
   6:eurorack/plaits/dsp/engine/bass_drum_engine.cc **** // of this software and associated documentation files (the "Software"), to deal
   7:eurorack/plaits/dsp/engine/bass_drum_engine.cc **** // in the Software without restriction, including without limitation the rights
   8:eurorack/plaits/dsp/engine/bass_drum_engine.cc **** // to use, copy, modify, merge, publish, distribute, sublicense, and/or sell
   9:eurorack/plaits/dsp/engine/bass_drum_engine.cc **** // copies of the Software, and to permit persons to whom the Software is
  10:eurorack/plaits/dsp/engine/bass_drum_engine.cc **** // furnished to do so, subject to the following conditions:
  11:eurorack/plaits/dsp/engine/bass_drum_engine.cc **** // 
  12:eurorack/plaits/dsp/engine/bass_drum_engine.cc **** // The above copyright notice and this permission notice shall be included in
  13:eurorack/plaits/dsp/engine/bass_drum_engine.cc **** // all copies or substantial portions of the Software.
  14:eurorack/plaits/dsp/engine/bass_drum_engine.cc **** // 
  15:eurorack/plaits/dsp/engine/bass_drum_engine.cc **** // THE SOFTWARE IS PROVIDED "AS IS", WITHOUT WARRANTY OF ANY KIND, EXPRESS OR
  16:eurorack/plaits/dsp/engine/bass_drum_engine.cc **** // IMPLIED, INCLUDING BUT NOT LIMITED TO THE WARRANTIES OF MERCHANTABILITY,
  17:eurorack/plaits/dsp/engine/bass_drum_engine.cc **** // FITNESS FOR A PARTICULAR PURPOSE AND NONINFRINGEMENT. IN NO EVENT SHALL THE
  18:eurorack/plaits/dsp/engine/bass_drum_engine.cc **** // AUTHORS OR COPYRIGHT HOLDERS BE LIABLE FOR ANY CLAIM, DAMAGES OR OTHER
  19:eurorack/plaits/dsp/engine/bass_drum_engine.cc **** // LIABILITY, WHETHER IN AN ACTION OF CONTRACT, TORT OR OTHERWISE, ARISING FROM,
  20:eurorack/plaits/dsp/engine/bass_drum_engine.cc **** // OUT OF OR IN CONNECTION WITH THE SOFTWARE OR THE USE OR OTHER DEALINGS IN
  21:eurorack/plaits/dsp/engine/bass_drum_engine.cc **** // THE SOFTWARE.
  22:eurorack/plaits/dsp/engine/bass_drum_engine.cc **** // 
  23:eurorack/plaits/dsp/engine/bass_drum_engine.cc **** // See http://creativecommons.org/licenses/MIT/ for more information.
  24:eurorack/plaits/dsp/engine/bass_drum_engine.cc **** //
  25:eurorack/plaits/dsp/engine/bass_drum_engine.cc **** // -----------------------------------------------------------------------------
  26:eurorack/plaits/dsp/engine/bass_drum_engine.cc **** //
  27:eurorack/plaits/dsp/engine/bass_drum_engine.cc **** // 808 and synthetic bass drum generators.
  28:eurorack/plaits/dsp/engine/bass_drum_engine.cc **** 
  29:eurorack/plaits/dsp/engine/bass_drum_engine.cc **** #include "plaits/dsp/engine/bass_drum_engine.h"
  30:eurorack/plaits/dsp/engine/bass_drum_engine.cc **** 
ARM GAS  /var/folders/9s/8rp0_f2s1n31qbztm3b5_fdh0000gn/T//ccqxwUOT.s 			page 2


  31:eurorack/plaits/dsp/engine/bass_drum_engine.cc **** #include <algorithm>
  32:eurorack/plaits/dsp/engine/bass_drum_engine.cc **** 
  33:eurorack/plaits/dsp/engine/bass_drum_engine.cc **** namespace plaits {
  34:eurorack/plaits/dsp/engine/bass_drum_engine.cc **** 
  35:eurorack/plaits/dsp/engine/bass_drum_engine.cc **** using namespace std;
  36:eurorack/plaits/dsp/engine/bass_drum_engine.cc **** using namespace stmlib;
  37:eurorack/plaits/dsp/engine/bass_drum_engine.cc **** 
  38:eurorack/plaits/dsp/engine/bass_drum_engine.cc **** void BassDrumEngine::Init(BufferAllocator* allocator) {
  39:eurorack/plaits/dsp/engine/bass_drum_engine.cc ****   analog_bass_drum_.Init();
  40:eurorack/plaits/dsp/engine/bass_drum_engine.cc ****   synthetic_bass_drum_.Init();
  41:eurorack/plaits/dsp/engine/bass_drum_engine.cc ****   overdrive_.Init();
  42:eurorack/plaits/dsp/engine/bass_drum_engine.cc **** }
  43:eurorack/plaits/dsp/engine/bass_drum_engine.cc **** 
  44:eurorack/plaits/dsp/engine/bass_drum_engine.cc **** void BassDrumEngine::Reset() {
  29              		.loc 1 44 30 view -0
  30              		.cfi_startproc
  31              		@ args = 0, pretend = 0, frame = 0
  32              		@ frame_needed = 0, uses_anonymous_args = 0
  33              		@ link register save eliminated.
  45:eurorack/plaits/dsp/engine/bass_drum_engine.cc ****   
  46:eurorack/plaits/dsp/engine/bass_drum_engine.cc **** }
  34              		.loc 1 46 1 is_stmt 0 view .LVU1
  35 0000 7047     		bx	lr
  36              		.cfi_endproc
  37              	.LFE1616:
  39              		.section	.text._ZN6plaits17SyntheticBassDrum13DistortedSineEfff.isra.0,"axG",%progbits,_ZN6plaits1
  40              		.align	1
  41              		.syntax unified
  42              		.thumb
  43              		.thumb_func
  45              	_ZN6plaits17SyntheticBassDrum13DistortedSineEfff.isra.0:
  46              	.LVL1:
  47              	.LFB1635:
  48              		.file 2 "eurorack/plaits/dsp/drums/synthetic_bass_drum.h"
   1:eurorack/plaits/dsp/drums/synthetic_bass_drum.h **** // Copyright 2016 Emilie Gillet.
   2:eurorack/plaits/dsp/drums/synthetic_bass_drum.h **** //
   3:eurorack/plaits/dsp/drums/synthetic_bass_drum.h **** // Author: Emilie Gillet (emilie.o.gillet@gmail.com)
   4:eurorack/plaits/dsp/drums/synthetic_bass_drum.h **** //
   5:eurorack/plaits/dsp/drums/synthetic_bass_drum.h **** // Permission is hereby granted, free of charge, to any person obtaining a copy
   6:eurorack/plaits/dsp/drums/synthetic_bass_drum.h **** // of this software and associated documentation files (the "Software"), to deal
   7:eurorack/plaits/dsp/drums/synthetic_bass_drum.h **** // in the Software without restriction, including without limitation the rights
   8:eurorack/plaits/dsp/drums/synthetic_bass_drum.h **** // to use, copy, modify, merge, publish, distribute, sublicense, and/or sell
   9:eurorack/plaits/dsp/drums/synthetic_bass_drum.h **** // copies of the Software, and to permit persons to whom the Software is
  10:eurorack/plaits/dsp/drums/synthetic_bass_drum.h **** // furnished to do so, subject to the following conditions:
  11:eurorack/plaits/dsp/drums/synthetic_bass_drum.h **** // 
  12:eurorack/plaits/dsp/drums/synthetic_bass_drum.h **** // The above copyright notice and this permission notice shall be included in
  13:eurorack/plaits/dsp/drums/synthetic_bass_drum.h **** // all copies or substantial portions of the Software.
  14:eurorack/plaits/dsp/drums/synthetic_bass_drum.h **** // 
  15:eurorack/plaits/dsp/drums/synthetic_bass_drum.h **** // THE SOFTWARE IS PROVIDED "AS IS", WITHOUT WARRANTY OF ANY KIND, EXPRESS OR
  16:eurorack/plaits/dsp/drums/synthetic_bass_drum.h **** // IMPLIED, INCLUDING BUT NOT LIMITED TO THE WARRANTIES OF MERCHANTABILITY,
  17:eurorack/plaits/dsp/drums/synthetic_bass_drum.h **** // FITNESS FOR A PARTICULAR PURPOSE AND NONINFRINGEMENT. IN NO EVENT SHALL THE
  18:eurorack/plaits/dsp/drums/synthetic_bass_drum.h **** // AUTHORS OR COPYRIGHT HOLDERS BE LIABLE FOR ANY CLAIM, DAMAGES OR OTHER
  19:eurorack/plaits/dsp/drums/synthetic_bass_drum.h **** // LIABILITY, WHETHER IN AN ACTION OF CONTRACT, TORT OR OTHERWISE, ARISING FROM,
  20:eurorack/plaits/dsp/drums/synthetic_bass_drum.h **** // OUT OF OR IN CONNECTION WITH THE SOFTWARE OR THE USE OR OTHER DEALINGS IN
  21:eurorack/plaits/dsp/drums/synthetic_bass_drum.h **** // THE SOFTWARE.
  22:eurorack/plaits/dsp/drums/synthetic_bass_drum.h **** // 
  23:eurorack/plaits/dsp/drums/synthetic_bass_drum.h **** // See http://creativecommons.org/licenses/MIT/ for more information.
ARM GAS  /var/folders/9s/8rp0_f2s1n31qbztm3b5_fdh0000gn/T//ccqxwUOT.s 			page 3


  24:eurorack/plaits/dsp/drums/synthetic_bass_drum.h **** //
  25:eurorack/plaits/dsp/drums/synthetic_bass_drum.h **** // -----------------------------------------------------------------------------
  26:eurorack/plaits/dsp/drums/synthetic_bass_drum.h **** //
  27:eurorack/plaits/dsp/drums/synthetic_bass_drum.h **** // Naive bass drum model (modulated oscillator with FM + envelope).
  28:eurorack/plaits/dsp/drums/synthetic_bass_drum.h **** // Inadvertently 909-ish.
  29:eurorack/plaits/dsp/drums/synthetic_bass_drum.h **** 
  30:eurorack/plaits/dsp/drums/synthetic_bass_drum.h **** #ifndef PLAITS_DSP_DRUMS_SYNTHETIC_BASS_DRUM_H_
  31:eurorack/plaits/dsp/drums/synthetic_bass_drum.h **** #define PLAITS_DSP_DRUMS_SYNTHETIC_BASS_DRUM_H_
  32:eurorack/plaits/dsp/drums/synthetic_bass_drum.h **** 
  33:eurorack/plaits/dsp/drums/synthetic_bass_drum.h **** #include "stmlib/dsp/dsp.h"
  34:eurorack/plaits/dsp/drums/synthetic_bass_drum.h **** #include "stmlib/dsp/units.h"
  35:eurorack/plaits/dsp/drums/synthetic_bass_drum.h **** #include "stmlib/utils/random.h"
  36:eurorack/plaits/dsp/drums/synthetic_bass_drum.h **** 
  37:eurorack/plaits/dsp/drums/synthetic_bass_drum.h **** #include "plaits/dsp/dsp.h"
  38:eurorack/plaits/dsp/drums/synthetic_bass_drum.h **** #include "plaits/resources.h"
  39:eurorack/plaits/dsp/drums/synthetic_bass_drum.h **** 
  40:eurorack/plaits/dsp/drums/synthetic_bass_drum.h **** namespace plaits {
  41:eurorack/plaits/dsp/drums/synthetic_bass_drum.h **** 
  42:eurorack/plaits/dsp/drums/synthetic_bass_drum.h **** class SyntheticBassDrumClick {
  43:eurorack/plaits/dsp/drums/synthetic_bass_drum.h ****  public:
  44:eurorack/plaits/dsp/drums/synthetic_bass_drum.h ****   SyntheticBassDrumClick() { }
  45:eurorack/plaits/dsp/drums/synthetic_bass_drum.h ****   ~SyntheticBassDrumClick() { }
  46:eurorack/plaits/dsp/drums/synthetic_bass_drum.h ****   
  47:eurorack/plaits/dsp/drums/synthetic_bass_drum.h ****   void Init() {
  48:eurorack/plaits/dsp/drums/synthetic_bass_drum.h ****     lp_ = 0.0f;
  49:eurorack/plaits/dsp/drums/synthetic_bass_drum.h ****     hp_ = 0.0f;
  50:eurorack/plaits/dsp/drums/synthetic_bass_drum.h ****     filter_.Init();
  51:eurorack/plaits/dsp/drums/synthetic_bass_drum.h ****     filter_.set_f_q<stmlib::FREQUENCY_FAST>(5000.0f / kSampleRate, 2.0f);
  52:eurorack/plaits/dsp/drums/synthetic_bass_drum.h ****   }
  53:eurorack/plaits/dsp/drums/synthetic_bass_drum.h ****   
  54:eurorack/plaits/dsp/drums/synthetic_bass_drum.h ****   float Process(float in) {
  55:eurorack/plaits/dsp/drums/synthetic_bass_drum.h ****     SLOPE(lp_, in, 0.5f, 0.1f);
  56:eurorack/plaits/dsp/drums/synthetic_bass_drum.h ****     ONE_POLE(hp_, lp_, 0.04f);
  57:eurorack/plaits/dsp/drums/synthetic_bass_drum.h ****     return filter_.Process<stmlib::FILTER_MODE_LOW_PASS>(lp_ - hp_);
  58:eurorack/plaits/dsp/drums/synthetic_bass_drum.h ****   }
  59:eurorack/plaits/dsp/drums/synthetic_bass_drum.h ****   
  60:eurorack/plaits/dsp/drums/synthetic_bass_drum.h ****  private:
  61:eurorack/plaits/dsp/drums/synthetic_bass_drum.h ****   float lp_;
  62:eurorack/plaits/dsp/drums/synthetic_bass_drum.h ****   float hp_;
  63:eurorack/plaits/dsp/drums/synthetic_bass_drum.h ****   stmlib::Svf filter_;
  64:eurorack/plaits/dsp/drums/synthetic_bass_drum.h ****   
  65:eurorack/plaits/dsp/drums/synthetic_bass_drum.h ****   DISALLOW_COPY_AND_ASSIGN(SyntheticBassDrumClick);
  66:eurorack/plaits/dsp/drums/synthetic_bass_drum.h **** };
  67:eurorack/plaits/dsp/drums/synthetic_bass_drum.h **** 
  68:eurorack/plaits/dsp/drums/synthetic_bass_drum.h **** class SyntheticBassDrumAttackNoise {
  69:eurorack/plaits/dsp/drums/synthetic_bass_drum.h ****  public:
  70:eurorack/plaits/dsp/drums/synthetic_bass_drum.h ****   SyntheticBassDrumAttackNoise() { }
  71:eurorack/plaits/dsp/drums/synthetic_bass_drum.h ****   ~SyntheticBassDrumAttackNoise() { }
  72:eurorack/plaits/dsp/drums/synthetic_bass_drum.h ****   
  73:eurorack/plaits/dsp/drums/synthetic_bass_drum.h ****   void Init() {
  74:eurorack/plaits/dsp/drums/synthetic_bass_drum.h ****     lp_ = 0.0f;
  75:eurorack/plaits/dsp/drums/synthetic_bass_drum.h ****     hp_ = 0.0f;
  76:eurorack/plaits/dsp/drums/synthetic_bass_drum.h ****   }
  77:eurorack/plaits/dsp/drums/synthetic_bass_drum.h ****   
  78:eurorack/plaits/dsp/drums/synthetic_bass_drum.h ****   float Render() {
  79:eurorack/plaits/dsp/drums/synthetic_bass_drum.h ****     float sample = stmlib::Random::GetFloat();
  80:eurorack/plaits/dsp/drums/synthetic_bass_drum.h ****     ONE_POLE(lp_, sample, 0.05f);
ARM GAS  /var/folders/9s/8rp0_f2s1n31qbztm3b5_fdh0000gn/T//ccqxwUOT.s 			page 4


  81:eurorack/plaits/dsp/drums/synthetic_bass_drum.h ****     ONE_POLE(hp_, lp_, 0.005f);
  82:eurorack/plaits/dsp/drums/synthetic_bass_drum.h ****     return lp_ - hp_;
  83:eurorack/plaits/dsp/drums/synthetic_bass_drum.h ****   }
  84:eurorack/plaits/dsp/drums/synthetic_bass_drum.h ****   
  85:eurorack/plaits/dsp/drums/synthetic_bass_drum.h ****  private:
  86:eurorack/plaits/dsp/drums/synthetic_bass_drum.h ****   float lp_;
  87:eurorack/plaits/dsp/drums/synthetic_bass_drum.h ****   float hp_;
  88:eurorack/plaits/dsp/drums/synthetic_bass_drum.h ****   
  89:eurorack/plaits/dsp/drums/synthetic_bass_drum.h ****   DISALLOW_COPY_AND_ASSIGN(SyntheticBassDrumAttackNoise);
  90:eurorack/plaits/dsp/drums/synthetic_bass_drum.h **** };
  91:eurorack/plaits/dsp/drums/synthetic_bass_drum.h **** 
  92:eurorack/plaits/dsp/drums/synthetic_bass_drum.h **** class SyntheticBassDrum {
  93:eurorack/plaits/dsp/drums/synthetic_bass_drum.h ****  public:
  94:eurorack/plaits/dsp/drums/synthetic_bass_drum.h ****   SyntheticBassDrum() { }
  95:eurorack/plaits/dsp/drums/synthetic_bass_drum.h ****   ~SyntheticBassDrum() { }
  96:eurorack/plaits/dsp/drums/synthetic_bass_drum.h **** 
  97:eurorack/plaits/dsp/drums/synthetic_bass_drum.h ****   void Init() {
  98:eurorack/plaits/dsp/drums/synthetic_bass_drum.h ****     phase_ = 0.0f;
  99:eurorack/plaits/dsp/drums/synthetic_bass_drum.h ****     phase_noise_ = 0.0f;
 100:eurorack/plaits/dsp/drums/synthetic_bass_drum.h ****     f0_ = 0.0f;
 101:eurorack/plaits/dsp/drums/synthetic_bass_drum.h ****     fm_ = 0.0f;
 102:eurorack/plaits/dsp/drums/synthetic_bass_drum.h ****     fm_lp_ = 0.0f;
 103:eurorack/plaits/dsp/drums/synthetic_bass_drum.h ****     body_env_lp_ = 0.0f;
 104:eurorack/plaits/dsp/drums/synthetic_bass_drum.h ****     body_env_ = 0.0f;
 105:eurorack/plaits/dsp/drums/synthetic_bass_drum.h ****     body_env_pulse_width_ = 0;
 106:eurorack/plaits/dsp/drums/synthetic_bass_drum.h ****     fm_pulse_width_ = 0;
 107:eurorack/plaits/dsp/drums/synthetic_bass_drum.h ****     tone_lp_ = 0.0f;
 108:eurorack/plaits/dsp/drums/synthetic_bass_drum.h ****     sustain_gain_ = 0.0f;
 109:eurorack/plaits/dsp/drums/synthetic_bass_drum.h ****     
 110:eurorack/plaits/dsp/drums/synthetic_bass_drum.h ****     click_.Init();
 111:eurorack/plaits/dsp/drums/synthetic_bass_drum.h ****     noise_.Init();
 112:eurorack/plaits/dsp/drums/synthetic_bass_drum.h ****   }
 113:eurorack/plaits/dsp/drums/synthetic_bass_drum.h ****   
 114:eurorack/plaits/dsp/drums/synthetic_bass_drum.h ****   inline float DistortedSine(float phase, float phase_noise, float dirtiness) {
  49              		.loc 2 114 16 is_stmt 1 view -0
  50              		.cfi_startproc
  51              		@ args = 0, pretend = 0, frame = 0
  52              		@ frame_needed = 0, uses_anonymous_args = 0
  53              		@ link register save eliminated.
 115:eurorack/plaits/dsp/drums/synthetic_bass_drum.h ****     phase += phase_noise * dirtiness;
  54              		.loc 2 115 5 view .LVU3
  55              		.loc 2 115 11 is_stmt 0 view .LVU4
  56 0000 A0EE810A 		vfma.f32	s0, s1, s2
  57              	.LVL2:
 116:eurorack/plaits/dsp/drums/synthetic_bass_drum.h ****     MAKE_INTEGRAL_FRACTIONAL(phase);
  58              		.loc 2 116 5 is_stmt 1 view .LVU5
  59              		.loc 2 116 5 view .LVU6
  60              	.LBB86:
  61              	.LBB87:
  62              		.file 3 "eurorack/stmlib/dsp/dsp.h"
   1:eurorack/stmlib/dsp/dsp.h **** // Copyright 2012 Emilie Gillet.
   2:eurorack/stmlib/dsp/dsp.h **** //
   3:eurorack/stmlib/dsp/dsp.h **** // Author: Emilie Gillet (emilie.o.gillet@gmail.com)
   4:eurorack/stmlib/dsp/dsp.h **** //
   5:eurorack/stmlib/dsp/dsp.h **** // Permission is hereby granted, free of charge, to any person obtaining a copy
   6:eurorack/stmlib/dsp/dsp.h **** // of this software and associated documentation files (the "Software"), to deal
   7:eurorack/stmlib/dsp/dsp.h **** // in the Software without restriction, including without limitation the rights
ARM GAS  /var/folders/9s/8rp0_f2s1n31qbztm3b5_fdh0000gn/T//ccqxwUOT.s 			page 5


   8:eurorack/stmlib/dsp/dsp.h **** // to use, copy, modify, merge, publish, distribute, sublicense, and/or sell
   9:eurorack/stmlib/dsp/dsp.h **** // copies of the Software, and to permit persons to whom the Software is
  10:eurorack/stmlib/dsp/dsp.h **** // furnished to do so, subject to the following conditions:
  11:eurorack/stmlib/dsp/dsp.h **** // 
  12:eurorack/stmlib/dsp/dsp.h **** // The above copyright notice and this permission notice shall be included in
  13:eurorack/stmlib/dsp/dsp.h **** // all copies or substantial portions of the Software.
  14:eurorack/stmlib/dsp/dsp.h **** // 
  15:eurorack/stmlib/dsp/dsp.h **** // THE SOFTWARE IS PROVIDED "AS IS", WITHOUT WARRANTY OF ANY KIND, EXPRESS OR
  16:eurorack/stmlib/dsp/dsp.h **** // IMPLIED, INCLUDING BUT NOT LIMITED TO THE WARRANTIES OF MERCHANTABILITY,
  17:eurorack/stmlib/dsp/dsp.h **** // FITNESS FOR A PARTICULAR PURPOSE AND NONINFRINGEMENT. IN NO EVENT SHALL THE
  18:eurorack/stmlib/dsp/dsp.h **** // AUTHORS OR COPYRIGHT HOLDERS BE LIABLE FOR ANY CLAIM, DAMAGES OR OTHER
  19:eurorack/stmlib/dsp/dsp.h **** // LIABILITY, WHETHER IN AN ACTION OF CONTRACT, TORT OR OTHERWISE, ARISING FROM,
  20:eurorack/stmlib/dsp/dsp.h **** // OUT OF OR IN CONNECTION WITH THE SOFTWARE OR THE USE OR OTHER DEALINGS IN
  21:eurorack/stmlib/dsp/dsp.h **** // THE SOFTWARE.
  22:eurorack/stmlib/dsp/dsp.h **** // 
  23:eurorack/stmlib/dsp/dsp.h **** // See http://creativecommons.org/licenses/MIT/ for more information.
  24:eurorack/stmlib/dsp/dsp.h **** //
  25:eurorack/stmlib/dsp/dsp.h **** // -----------------------------------------------------------------------------
  26:eurorack/stmlib/dsp/dsp.h **** //
  27:eurorack/stmlib/dsp/dsp.h **** // DSP utility routines.
  28:eurorack/stmlib/dsp/dsp.h **** 
  29:eurorack/stmlib/dsp/dsp.h **** #ifndef STMLIB_UTILS_DSP_DSP_H_
  30:eurorack/stmlib/dsp/dsp.h **** #define STMLIB_UTILS_DSP_DSP_H_
  31:eurorack/stmlib/dsp/dsp.h **** 
  32:eurorack/stmlib/dsp/dsp.h **** #include "stmlib/stmlib.h"
  33:eurorack/stmlib/dsp/dsp.h **** 
  34:eurorack/stmlib/dsp/dsp.h **** #include <cmath>
  35:eurorack/stmlib/dsp/dsp.h **** #include <math.h>
  36:eurorack/stmlib/dsp/dsp.h **** 
  37:eurorack/stmlib/dsp/dsp.h **** namespace stmlib {
  38:eurorack/stmlib/dsp/dsp.h **** 
  39:eurorack/stmlib/dsp/dsp.h **** #define MAKE_INTEGRAL_FRACTIONAL(x) \
  40:eurorack/stmlib/dsp/dsp.h ****   int32_t x ## _integral = static_cast<int32_t>(x); \
  41:eurorack/stmlib/dsp/dsp.h ****   float x ## _fractional = x - static_cast<float>(x ## _integral);
  42:eurorack/stmlib/dsp/dsp.h **** 
  43:eurorack/stmlib/dsp/dsp.h **** inline float Interpolate(const float* table, float index, float size) {
  44:eurorack/stmlib/dsp/dsp.h ****   index *= size;
  45:eurorack/stmlib/dsp/dsp.h ****   MAKE_INTEGRAL_FRACTIONAL(index)
  46:eurorack/stmlib/dsp/dsp.h ****   float a = table[index_integral];
  47:eurorack/stmlib/dsp/dsp.h ****   float b = table[index_integral + 1];
  48:eurorack/stmlib/dsp/dsp.h ****   return a + (b - a) * index_fractional;
  49:eurorack/stmlib/dsp/dsp.h **** }
  50:eurorack/stmlib/dsp/dsp.h **** 
  51:eurorack/stmlib/dsp/dsp.h **** 
  52:eurorack/stmlib/dsp/dsp.h **** inline float InterpolateHermite(const float* table, float index, float size) {
  53:eurorack/stmlib/dsp/dsp.h ****   index *= size;
  54:eurorack/stmlib/dsp/dsp.h ****   MAKE_INTEGRAL_FRACTIONAL(index)
  55:eurorack/stmlib/dsp/dsp.h ****   const float xm1 = table[index_integral - 1];
  56:eurorack/stmlib/dsp/dsp.h ****   const float x0 = table[index_integral + 0];
  57:eurorack/stmlib/dsp/dsp.h ****   const float x1 = table[index_integral + 1];
  58:eurorack/stmlib/dsp/dsp.h ****   const float x2 = table[index_integral + 2];
  59:eurorack/stmlib/dsp/dsp.h ****   const float c = (x1 - xm1) * 0.5f;
  60:eurorack/stmlib/dsp/dsp.h ****   const float v = x0 - x1;
  61:eurorack/stmlib/dsp/dsp.h ****   const float w = c + v;
  62:eurorack/stmlib/dsp/dsp.h ****   const float a = w + v + (x2 - x0) * 0.5f;
  63:eurorack/stmlib/dsp/dsp.h ****   const float b_neg = w + a;
  64:eurorack/stmlib/dsp/dsp.h ****   const float f = index_fractional;
ARM GAS  /var/folders/9s/8rp0_f2s1n31qbztm3b5_fdh0000gn/T//ccqxwUOT.s 			page 6


  65:eurorack/stmlib/dsp/dsp.h ****   return (((a * f) - b_neg) * f + c) * f + x0;
  66:eurorack/stmlib/dsp/dsp.h **** }
  67:eurorack/stmlib/dsp/dsp.h **** 
  68:eurorack/stmlib/dsp/dsp.h **** inline float InterpolateWrap(const float* table, float index, float size) {
  69:eurorack/stmlib/dsp/dsp.h ****   index -= static_cast<float>(static_cast<int32_t>(index));
  70:eurorack/stmlib/dsp/dsp.h ****   index *= size;
  71:eurorack/stmlib/dsp/dsp.h ****   MAKE_INTEGRAL_FRACTIONAL(index)
  72:eurorack/stmlib/dsp/dsp.h ****   float a = table[index_integral];
  63              		.loc 3 72 9 is_stmt 0 view .LVU7
  64 0004 254B     		ldr	r3, .L5
  65              	.LBE87:
  66              	.LBE86:
 117:eurorack/plaits/dsp/drums/synthetic_bass_drum.h ****     phase = phase_fractional;
 118:eurorack/plaits/dsp/drums/synthetic_bass_drum.h ****     float triangle = (phase < 0.5f ? phase : 1.0f - phase) * 4.0f - 1.0f;
  67              		.loc 2 118 36 view .LVU8
  68 0006 B6EE007A 		vmov.f32	s14, #5.0e-1
  69 000a F7EE006A 		vmov.f32	s13, #1.0e+0
  70              		.loc 2 118 11 view .LVU9
  71 000e F1EE005A 		vmov.f32	s11, #4.0e+0
 116:eurorack/plaits/dsp/drums/synthetic_bass_drum.h ****     phase = phase_fractional;
  72              		.loc 2 116 5 view .LVU10
  73 0012 FDEEC07A 		vcvt.s32.f32	s15, s0
  74 0016 F8EEE77A 		vcvt.f32.s32	s15, s15
  75 001a 70EE677A 		vsub.f32	s15, s0, s15
  76              	.LVL3:
 116:eurorack/plaits/dsp/drums/synthetic_bass_drum.h ****     phase = phase_fractional;
  77              		.loc 2 116 36 is_stmt 1 view .LVU11
 117:eurorack/plaits/dsp/drums/synthetic_bass_drum.h ****     phase = phase_fractional;
  78              		.loc 2 117 5 view .LVU12
  79              		.loc 2 118 5 view .LVU13
  80              		.loc 2 118 36 is_stmt 0 view .LVU14
  81 001e F4EEC77A 		vcmpe.f32	s15, s14
  82              		.loc 2 118 11 view .LVU15
  83 0022 BFEE007A 		vmov.f32	s14, #-1.0e+0
  84              		.loc 2 118 36 view .LVU16
  85 0026 F1EE10FA 		vmrs	APSR_nzcv, FPSCR
  86 002a 54BF     		ite	pl
  87 002c 36EEE76A 		vsubpl.f32	s12, s13, s15
  88 0030 B0EE676A 		vmovmi.f32	s12, s15
  89              		.loc 2 118 11 view .LVU17
  90 0034 A6EE257A 		vfma.f32	s14, s12, s11
  91              	.LVL4:
 119:eurorack/plaits/dsp/drums/synthetic_bass_drum.h ****     float sine = 2.0f * triangle / (1.0f + fabsf(triangle));
  92              		.loc 2 119 5 is_stmt 1 view .LVU18
  93              		.loc 2 119 23 is_stmt 0 view .LVU19
  94 0038 37EE076A 		vadd.f32	s12, s14, s14
  95              		.loc 2 119 49 view .LVU20
  96 003c B0EEC77A 		vabs.f32	s14, s14
  97              	.LVL5:
  98              		.loc 2 119 42 view .LVU21
  99 0040 37EE267A 		vadd.f32	s14, s14, s13
 120:eurorack/plaits/dsp/drums/synthetic_bass_drum.h ****     float clean_sine = stmlib::InterpolateWrap(
 121:eurorack/plaits/dsp/drums/synthetic_bass_drum.h ****         lut_sine, phase + 0.75f, 1024.0f);
 122:eurorack/plaits/dsp/drums/synthetic_bass_drum.h ****     return sine + (1.0f - dirtiness) * (clean_sine - sine);
 100              		.loc 2 122 25 view .LVU22
 101 0044 76EEC16A 		vsub.f32	s13, s13, s2
 119:eurorack/plaits/dsp/drums/synthetic_bass_drum.h ****     float sine = 2.0f * triangle / (1.0f + fabsf(triangle));
ARM GAS  /var/folders/9s/8rp0_f2s1n31qbztm3b5_fdh0000gn/T//ccqxwUOT.s 			page 7


 102              		.loc 2 119 11 view .LVU23
 103 0048 86EE070A 		vdiv.f32	s0, s12, s14
 104              	.LVL6:
 120:eurorack/plaits/dsp/drums/synthetic_bass_drum.h ****     float clean_sine = stmlib::InterpolateWrap(
 105              		.loc 2 120 5 is_stmt 1 view .LVU24
 120:eurorack/plaits/dsp/drums/synthetic_bass_drum.h ****     float clean_sine = stmlib::InterpolateWrap(
 106              		.loc 2 120 47 is_stmt 0 view .LVU25
 107 004c B6EE087A 		vmov.f32	s14, #7.5e-1
 108 0050 77EE877A 		vadd.f32	s15, s15, s14
 109              	.LVL7:
 110              	.LBB89:
 111              	.LBI86:
  68:eurorack/stmlib/dsp/dsp.h ****   index -= static_cast<float>(static_cast<int32_t>(index));
 112              		.loc 3 68 14 is_stmt 1 view .LVU26
 113              	.LBB88:
  69:eurorack/stmlib/dsp/dsp.h ****   index *= size;
 114              		.loc 3 69 3 view .LVU27
  69:eurorack/stmlib/dsp/dsp.h ****   index *= size;
 115              		.loc 3 69 31 is_stmt 0 view .LVU28
 116 0054 BDEEE77A 		vcvt.s32.f32	s14, s15
  69:eurorack/stmlib/dsp/dsp.h ****   index *= size;
 117              		.loc 3 69 12 view .LVU29
 118 0058 B8EEC77A 		vcvt.f32.s32	s14, s14
  69:eurorack/stmlib/dsp/dsp.h ****   index *= size;
 119              		.loc 3 69 9 view .LVU30
 120 005c 77EEC77A 		vsub.f32	s15, s15, s14
 121              	.LVL8:
  70:eurorack/stmlib/dsp/dsp.h ****   MAKE_INTEGRAL_FRACTIONAL(index)
 122              		.loc 3 70 3 is_stmt 1 view .LVU31
  70:eurorack/stmlib/dsp/dsp.h ****   MAKE_INTEGRAL_FRACTIONAL(index)
 123              		.loc 3 70 9 is_stmt 0 view .LVU32
 124 0060 9FED0F7A 		vldr.32	s14, .L5+4
 125 0064 67EE877A 		vmul.f32	s15, s15, s14
 126              	.LVL9:
  71:eurorack/stmlib/dsp/dsp.h ****   float a = table[index_integral];
 127              		.loc 3 71 3 is_stmt 1 view .LVU33
 128 0068 BDEEE77A 		vcvt.s32.f32	s14, s15
 129 006c 17EE102A 		vmov	r2, s14	@ int
 130              	.LVL10:
  71:eurorack/stmlib/dsp/dsp.h ****   float a = table[index_integral];
 131              		.loc 3 71 3 view .LVU34
 132              		.loc 3 72 3 view .LVU35
  71:eurorack/stmlib/dsp/dsp.h ****   float a = table[index_integral];
 133              		.loc 3 71 3 is_stmt 0 view .LVU36
 134 0070 06EE102A 		vmov	s12, r2	@ int
 135              		.loc 3 72 9 view .LVU37
 136 0074 03EB8201 		add	r1, r3, r2, lsl #2
  71:eurorack/stmlib/dsp/dsp.h ****   float a = table[index_integral];
 137              		.loc 3 71 3 view .LVU38
 138 0078 B8EEC66A 		vcvt.f32.s32	s12, s12
 139              		.loc 3 72 9 view .LVU39
 140 007c 91ED007A 		vldr.32	s14, [r1]
 141              	.LVL11:
  73:eurorack/stmlib/dsp/dsp.h ****   float b = table[index_integral + 1];
 142              		.loc 3 73 3 is_stmt 1 view .LVU40
  74:eurorack/stmlib/dsp/dsp.h ****   return a + (b - a) * index_fractional;
 143              		.loc 3 74 3 view .LVU41
ARM GAS  /var/folders/9s/8rp0_f2s1n31qbztm3b5_fdh0000gn/T//ccqxwUOT.s 			page 8


  71:eurorack/stmlib/dsp/dsp.h ****   float a = table[index_integral];
 144              		.loc 3 71 3 is_stmt 0 view .LVU42
 145 0080 77EEC67A 		vsub.f32	s15, s15, s12
 146              	.LVL12:
 147              		.loc 3 74 17 view .LVU43
 148 0084 91ED016A 		vldr.32	s12, [r1, #4]
 149 0088 36EE476A 		vsub.f32	s12, s12, s14
 150              		.loc 3 74 24 view .LVU44
 151 008c A7EE867A 		vfma.f32	s14, s15, s12
 152              	.LVL13:
 153              		.loc 3 74 24 view .LVU45
 154              	.LBE88:
 155              	.LBE89:
 156              		.loc 2 122 5 is_stmt 1 view .LVU46
 157              		.loc 2 122 52 is_stmt 0 view .LVU47
 158 0090 37EE407A 		vsub.f32	s14, s14, s0
 159              	.LVL14:
 123:eurorack/plaits/dsp/drums/synthetic_bass_drum.h ****   }
 160              		.loc 2 123 3 view .LVU48
 161 0094 A6EE870A 		vfma.f32	s0, s13, s14
 162              	.LVL15:
 163              		.loc 2 123 3 view .LVU49
 164 0098 7047     		bx	lr
 165              	.L6:
 166 009a 00BF     		.align	2
 167              	.L5:
 168 009c 00000000 		.word	_ZN6plaits8lut_sineE
 169 00a0 00008044 		.word	1149239296
 170              		.cfi_endproc
 171              	.LFE1635:
 173              		.section	.text._ZN6stmlib11InterpolateEPKfff,"axG",%progbits,_ZN6stmlib11InterpolateEPKfff,comdat
 174              		.align	1
 175              		.weak	_ZN6stmlib11InterpolateEPKfff
 176              		.syntax unified
 177              		.thumb
 178              		.thumb_func
 180              	_ZN6stmlib11InterpolateEPKfff:
 181              	.LVL16:
 182              	.LFB1384:
  43:eurorack/stmlib/dsp/dsp.h ****   index *= size;
 183              		.loc 3 43 71 is_stmt 1 view -0
 184              		.cfi_startproc
 185              		@ args = 0, pretend = 0, frame = 0
 186              		@ frame_needed = 0, uses_anonymous_args = 0
 187              		@ link register save eliminated.
  44:eurorack/stmlib/dsp/dsp.h ****   MAKE_INTEGRAL_FRACTIONAL(index)
 188              		.loc 3 44 3 view .LVU51
  44:eurorack/stmlib/dsp/dsp.h ****   MAKE_INTEGRAL_FRACTIONAL(index)
 189              		.loc 3 44 9 is_stmt 0 view .LVU52
 190 0000 60EE200A 		vmul.f32	s1, s0, s1
 191              	.LVL17:
  45:eurorack/stmlib/dsp/dsp.h ****   float a = table[index_integral];
 192              		.loc 3 45 3 is_stmt 1 view .LVU53
 193 0004 FDEEE07A 		vcvt.s32.f32	s15, s1
 194              	.LVL18:
  45:eurorack/stmlib/dsp/dsp.h ****   float a = table[index_integral];
 195              		.loc 3 45 3 view .LVU54
ARM GAS  /var/folders/9s/8rp0_f2s1n31qbztm3b5_fdh0000gn/T//ccqxwUOT.s 			page 9


  46:eurorack/stmlib/dsp/dsp.h ****   float b = table[index_integral + 1];
 196              		.loc 3 46 3 view .LVU55
  46:eurorack/stmlib/dsp/dsp.h ****   float b = table[index_integral + 1];
 197              		.loc 3 46 9 is_stmt 0 view .LVU56
 198 0008 17EE903A 		vmov	r3, s15	@ int
  45:eurorack/stmlib/dsp/dsp.h ****   float a = table[index_integral];
 199              		.loc 3 45 3 view .LVU57
 200 000c F8EEE77A 		vcvt.f32.s32	s15, s15
 201              	.LVL19:
  46:eurorack/stmlib/dsp/dsp.h ****   float b = table[index_integral + 1];
 202              		.loc 3 46 9 view .LVU58
 203 0010 00EB8300 		add	r0, r0, r3, lsl #2
 204              	.LVL20:
  45:eurorack/stmlib/dsp/dsp.h ****   float a = table[index_integral];
 205              		.loc 3 45 3 view .LVU59
 206 0014 70EEE70A 		vsub.f32	s1, s1, s15
 207              	.LVL21:
  46:eurorack/stmlib/dsp/dsp.h ****   float b = table[index_integral + 1];
 208              		.loc 3 46 9 view .LVU60
 209 0018 90ED000A 		vldr.32	s0, [r0]
 210              	.LVL22:
  47:eurorack/stmlib/dsp/dsp.h ****   return a + (b - a) * index_fractional;
 211              		.loc 3 47 3 is_stmt 1 view .LVU61
  48:eurorack/stmlib/dsp/dsp.h **** }
 212              		.loc 3 48 3 view .LVU62
  48:eurorack/stmlib/dsp/dsp.h **** }
 213              		.loc 3 48 17 is_stmt 0 view .LVU63
 214 001c 90ED017A 		vldr.32	s14, [r0, #4]
 215 0020 37EE407A 		vsub.f32	s14, s14, s0
  49:eurorack/stmlib/dsp/dsp.h **** 
 216              		.loc 3 49 1 view .LVU64
 217 0024 A7EE200A 		vfma.f32	s0, s14, s1
 218              	.LVL23:
  49:eurorack/stmlib/dsp/dsp.h **** 
 219              		.loc 3 49 1 view .LVU65
 220 0028 7047     		bx	lr
 221              		.cfi_endproc
 222              	.LFE1384:
 224              		.section	.text._ZN6stmlib8SoftClipEf,"axG",%progbits,_ZN6stmlib8SoftClipEf,comdat
 225              		.align	1
 226              		.weak	_ZN6stmlib8SoftClipEf
 227              		.syntax unified
 228              		.thumb
 229              		.thumb_func
 231              	_ZN6stmlib8SoftClipEf:
 232              	.LVL24:
 233              	.LFB1390:
  75:eurorack/stmlib/dsp/dsp.h **** }
  76:eurorack/stmlib/dsp/dsp.h **** 
  77:eurorack/stmlib/dsp/dsp.h **** inline float SmoothStep(float value) {
  78:eurorack/stmlib/dsp/dsp.h ****   return value * value * (3.0f - 2.0f * value);
  79:eurorack/stmlib/dsp/dsp.h **** }
  80:eurorack/stmlib/dsp/dsp.h **** 
  81:eurorack/stmlib/dsp/dsp.h **** #define ONE_POLE(out, in, coefficient) out += (coefficient) * ((in) - out);
  82:eurorack/stmlib/dsp/dsp.h **** #define SLOPE(out, in, positive, negative) { \
  83:eurorack/stmlib/dsp/dsp.h ****   float error = (in) - out; \
  84:eurorack/stmlib/dsp/dsp.h ****   out += (error > 0 ? positive : negative) * error; \
ARM GAS  /var/folders/9s/8rp0_f2s1n31qbztm3b5_fdh0000gn/T//ccqxwUOT.s 			page 10


  85:eurorack/stmlib/dsp/dsp.h **** }
  86:eurorack/stmlib/dsp/dsp.h **** #define SLEW(out, in, delta) { \
  87:eurorack/stmlib/dsp/dsp.h ****   float error = (in) - out; \
  88:eurorack/stmlib/dsp/dsp.h ****   float d = (delta); \
  89:eurorack/stmlib/dsp/dsp.h ****   if (error > d) { \
  90:eurorack/stmlib/dsp/dsp.h ****     error = d; \
  91:eurorack/stmlib/dsp/dsp.h ****   } else if (error < -d) { \
  92:eurorack/stmlib/dsp/dsp.h ****     error = -d; \
  93:eurorack/stmlib/dsp/dsp.h ****   } \
  94:eurorack/stmlib/dsp/dsp.h ****   out += error; \
  95:eurorack/stmlib/dsp/dsp.h **** }
  96:eurorack/stmlib/dsp/dsp.h **** 
  97:eurorack/stmlib/dsp/dsp.h **** inline float Crossfade(float a, float b, float fade) {
  98:eurorack/stmlib/dsp/dsp.h ****   return a + (b - a) * fade;
  99:eurorack/stmlib/dsp/dsp.h **** }
 100:eurorack/stmlib/dsp/dsp.h **** 
 101:eurorack/stmlib/dsp/dsp.h **** inline float SoftLimit(float x) {
 102:eurorack/stmlib/dsp/dsp.h ****   return x * (27.0f + x * x) / (27.0f + 9.0f * x * x);
 103:eurorack/stmlib/dsp/dsp.h **** }
 104:eurorack/stmlib/dsp/dsp.h **** 
 105:eurorack/stmlib/dsp/dsp.h **** inline float SoftClip(float x) {
 234              		.loc 3 105 32 is_stmt 1 view -0
 235              		.cfi_startproc
 236              		@ args = 0, pretend = 0, frame = 0
 237              		@ frame_needed = 0, uses_anonymous_args = 0
 238              		@ link register save eliminated.
 106:eurorack/stmlib/dsp/dsp.h ****   if (x < -3.0f) {
 239              		.loc 3 106 3 view .LVU67
 240 0000 F8EE087A 		vmov.f32	s15, #-3.0e+0
 241 0004 B4EEE70A 		vcmpe.f32	s0, s15
 242 0008 F1EE10FA 		vmrs	APSR_nzcv, FPSCR
 243 000c 17D4     		bmi	.L10
 244              	.LVL25:
 245              	.LBB94:
 246              	.LBI94:
 105:eurorack/stmlib/dsp/dsp.h ****   if (x < -3.0f) {
 247              		.loc 3 105 14 view .LVU68
 248              	.LBB95:
 107:eurorack/stmlib/dsp/dsp.h ****     return -1.0f;
 108:eurorack/stmlib/dsp/dsp.h ****   } else if (x > 3.0f) {
 249              		.loc 3 108 10 view .LVU69
 250 000e F0EE087A 		vmov.f32	s15, #3.0e+0
 251 0012 B4EEE70A 		vcmpe.f32	s0, s15
 252 0016 F1EE10FA 		vmrs	APSR_nzcv, FPSCR
 253 001a 13DC     		bgt	.L11
 109:eurorack/stmlib/dsp/dsp.h ****     return 1.0f;
 110:eurorack/stmlib/dsp/dsp.h ****   } else {
 111:eurorack/stmlib/dsp/dsp.h ****     return SoftLimit(x);
 254              		.loc 3 111 5 view .LVU70
 255              	.LVL26:
 256              	.LBB96:
 257              	.LBI96:
 101:eurorack/stmlib/dsp/dsp.h ****   return x * (27.0f + x * x) / (27.0f + 9.0f * x * x);
 258              		.loc 3 101 14 view .LVU71
 259              	.LBB97:
 102:eurorack/stmlib/dsp/dsp.h **** }
 260              		.loc 3 102 3 view .LVU72
ARM GAS  /var/folders/9s/8rp0_f2s1n31qbztm3b5_fdh0000gn/T//ccqxwUOT.s 			page 11


 102:eurorack/stmlib/dsp/dsp.h **** }
 261              		.loc 3 102 21 is_stmt 0 view .LVU73
 262 001c F3EE0B7A 		vmov.f32	s15, #2.7e+1
 102:eurorack/stmlib/dsp/dsp.h **** }
 263              		.loc 3 102 46 view .LVU74
 264 0020 F2EE026A 		vmov.f32	s13, #9.0e+0
 102:eurorack/stmlib/dsp/dsp.h **** }
 265              		.loc 3 102 21 view .LVU75
 266 0024 B0EE677A 		vmov.f32	s14, s15
 102:eurorack/stmlib/dsp/dsp.h **** }
 267              		.loc 3 102 46 view .LVU76
 268 0028 60EE266A 		vmul.f32	s13, s0, s13
 102:eurorack/stmlib/dsp/dsp.h **** }
 269              		.loc 3 102 21 view .LVU77
 270 002c A0EE007A 		vfma.f32	s14, s0, s0
 102:eurorack/stmlib/dsp/dsp.h **** }
 271              		.loc 3 102 39 view .LVU78
 272 0030 E0EE267A 		vfma.f32	s15, s0, s13
 102:eurorack/stmlib/dsp/dsp.h **** }
 273              		.loc 3 102 12 view .LVU79
 274 0034 20EE077A 		vmul.f32	s14, s0, s14
 102:eurorack/stmlib/dsp/dsp.h **** }
 275              		.loc 3 102 53 view .LVU80
 276 0038 87EE270A 		vdiv.f32	s0, s14, s15
 277              	.LVL27:
 102:eurorack/stmlib/dsp/dsp.h **** }
 278              		.loc 3 102 53 view .LVU81
 279              	.LBE97:
 280              	.LBE96:
 281              		.loc 3 111 23 view .LVU82
 282 003c 7047     		bx	lr
 283              	.LVL28:
 284              	.L10:
 285              		.loc 3 111 23 view .LVU83
 286              	.LBE95:
 287              	.LBE94:
 107:eurorack/stmlib/dsp/dsp.h ****   } else if (x > 3.0f) {
 288              		.loc 3 107 13 view .LVU84
 289 003e BFEE000A 		vmov.f32	s0, #-1.0e+0
 290              	.LVL29:
 107:eurorack/stmlib/dsp/dsp.h ****   } else if (x > 3.0f) {
 291              		.loc 3 107 13 view .LVU85
 292 0042 7047     		bx	lr
 293              	.LVL30:
 294              	.L11:
 295              	.LBB99:
 296              	.LBB98:
 109:eurorack/stmlib/dsp/dsp.h ****   } else {
 297              		.loc 3 109 12 view .LVU86
 298 0044 B7EE000A 		vmov.f32	s0, #1.0e+0
 299              	.LVL31:
 109:eurorack/stmlib/dsp/dsp.h ****   } else {
 300              		.loc 3 109 12 view .LVU87
 301              	.LBE98:
 302              	.LBE99:
 112:eurorack/stmlib/dsp/dsp.h ****   }
 113:eurorack/stmlib/dsp/dsp.h **** }
ARM GAS  /var/folders/9s/8rp0_f2s1n31qbztm3b5_fdh0000gn/T//ccqxwUOT.s 			page 12


 303              		.loc 3 113 1 view .LVU88
 304 0048 7047     		bx	lr
 305              		.cfi_endproc
 306              	.LFE1390:
 308              		.section	.text._ZN6stmlib3Svf4InitEv,"axG",%progbits,_ZN6stmlib3Svf4InitEv,comdat
 309              		.align	1
 310              		.weak	_ZN6stmlib3Svf4InitEv
 311              		.syntax unified
 312              		.thumb
 313              		.thumb_func
 315              	_ZN6stmlib3Svf4InitEv:
 316              	.LVL32:
 317              	.LFB1421:
 318              		.file 4 "eurorack/stmlib/dsp/filter.h"
   1:eurorack/stmlib/dsp/filter.h **** // Copyright 2014 Emilie Gillet.
   2:eurorack/stmlib/dsp/filter.h **** //
   3:eurorack/stmlib/dsp/filter.h **** // Author: Emilie Gillet (emilie.o.gillet@gmail.com)
   4:eurorack/stmlib/dsp/filter.h **** //
   5:eurorack/stmlib/dsp/filter.h **** // Permission is hereby granted, free of charge, to any person obtaining a copy
   6:eurorack/stmlib/dsp/filter.h **** // of this software and associated documentation files (the "Software"), to deal
   7:eurorack/stmlib/dsp/filter.h **** // in the Software without restriction, including without limitation the rights
   8:eurorack/stmlib/dsp/filter.h **** // to use, copy, modify, merge, publish, distribute, sublicense, and/or sell
   9:eurorack/stmlib/dsp/filter.h **** // copies of the Software, and to permit persons to whom the Software is
  10:eurorack/stmlib/dsp/filter.h **** // furnished to do so, subject to the following conditions:
  11:eurorack/stmlib/dsp/filter.h **** // 
  12:eurorack/stmlib/dsp/filter.h **** // The above copyright notice and this permission notice shall be included in
  13:eurorack/stmlib/dsp/filter.h **** // all copies or substantial portions of the Software.
  14:eurorack/stmlib/dsp/filter.h **** // 
  15:eurorack/stmlib/dsp/filter.h **** // THE SOFTWARE IS PROVIDED "AS IS", WITHOUT WARRANTY OF ANY KIND, EXPRESS OR
  16:eurorack/stmlib/dsp/filter.h **** // IMPLIED, INCLUDING BUT NOT LIMITED TO THE WARRANTIES OF MERCHANTABILITY,
  17:eurorack/stmlib/dsp/filter.h **** // FITNESS FOR A PARTICULAR PURPOSE AND NONINFRINGEMENT. IN NO EVENT SHALL THE
  18:eurorack/stmlib/dsp/filter.h **** // AUTHORS OR COPYRIGHT HOLDERS BE LIABLE FOR ANY CLAIM, DAMAGES OR OTHER
  19:eurorack/stmlib/dsp/filter.h **** // LIABILITY, WHETHER IN AN ACTION OF CONTRACT, TORT OR OTHERWISE, ARISING FROM,
  20:eurorack/stmlib/dsp/filter.h **** // OUT OF OR IN CONNECTION WITH THE SOFTWARE OR THE USE OR OTHER DEALINGS IN
  21:eurorack/stmlib/dsp/filter.h **** // THE SOFTWARE.
  22:eurorack/stmlib/dsp/filter.h **** // 
  23:eurorack/stmlib/dsp/filter.h **** // See http://creativecommons.org/licenses/MIT/ for more information.
  24:eurorack/stmlib/dsp/filter.h **** //
  25:eurorack/stmlib/dsp/filter.h **** // -----------------------------------------------------------------------------
  26:eurorack/stmlib/dsp/filter.h **** //
  27:eurorack/stmlib/dsp/filter.h **** // Zero-delay-feedback filters (one pole and SVF).
  28:eurorack/stmlib/dsp/filter.h **** // Naive SVF.
  29:eurorack/stmlib/dsp/filter.h **** 
  30:eurorack/stmlib/dsp/filter.h **** #ifndef STMLIB_DSP_FILTER_H_
  31:eurorack/stmlib/dsp/filter.h **** #define STMLIB_DSP_FILTER_H_
  32:eurorack/stmlib/dsp/filter.h **** 
  33:eurorack/stmlib/dsp/filter.h **** #include "stmlib/stmlib.h"
  34:eurorack/stmlib/dsp/filter.h **** 
  35:eurorack/stmlib/dsp/filter.h **** #include <cmath>
  36:eurorack/stmlib/dsp/filter.h **** #include <algorithm>
  37:eurorack/stmlib/dsp/filter.h **** 
  38:eurorack/stmlib/dsp/filter.h **** namespace stmlib {
  39:eurorack/stmlib/dsp/filter.h **** 
  40:eurorack/stmlib/dsp/filter.h **** enum FilterMode {
  41:eurorack/stmlib/dsp/filter.h ****   FILTER_MODE_LOW_PASS,
  42:eurorack/stmlib/dsp/filter.h ****   FILTER_MODE_BAND_PASS,
  43:eurorack/stmlib/dsp/filter.h ****   FILTER_MODE_BAND_PASS_NORMALIZED,
ARM GAS  /var/folders/9s/8rp0_f2s1n31qbztm3b5_fdh0000gn/T//ccqxwUOT.s 			page 13


  44:eurorack/stmlib/dsp/filter.h ****   FILTER_MODE_HIGH_PASS
  45:eurorack/stmlib/dsp/filter.h **** };
  46:eurorack/stmlib/dsp/filter.h **** 
  47:eurorack/stmlib/dsp/filter.h **** enum FrequencyApproximation {
  48:eurorack/stmlib/dsp/filter.h ****   FREQUENCY_EXACT,
  49:eurorack/stmlib/dsp/filter.h ****   FREQUENCY_ACCURATE,
  50:eurorack/stmlib/dsp/filter.h ****   FREQUENCY_FAST,
  51:eurorack/stmlib/dsp/filter.h ****   FREQUENCY_DIRTY
  52:eurorack/stmlib/dsp/filter.h **** };
  53:eurorack/stmlib/dsp/filter.h **** 
  54:eurorack/stmlib/dsp/filter.h **** #define M_PI_F float(M_PI)
  55:eurorack/stmlib/dsp/filter.h **** #define M_PI_POW_2 M_PI * M_PI
  56:eurorack/stmlib/dsp/filter.h **** #define M_PI_POW_3 M_PI_POW_2 * M_PI
  57:eurorack/stmlib/dsp/filter.h **** #define M_PI_POW_5 M_PI_POW_3 * M_PI_POW_2
  58:eurorack/stmlib/dsp/filter.h **** #define M_PI_POW_7 M_PI_POW_5 * M_PI_POW_2
  59:eurorack/stmlib/dsp/filter.h **** #define M_PI_POW_9 M_PI_POW_7 * M_PI_POW_2
  60:eurorack/stmlib/dsp/filter.h **** #define M_PI_POW_11 M_PI_POW_9 * M_PI_POW_2
  61:eurorack/stmlib/dsp/filter.h **** 
  62:eurorack/stmlib/dsp/filter.h **** class DCBlocker {
  63:eurorack/stmlib/dsp/filter.h ****  public:
  64:eurorack/stmlib/dsp/filter.h ****   DCBlocker() { }
  65:eurorack/stmlib/dsp/filter.h ****   ~DCBlocker() { }
  66:eurorack/stmlib/dsp/filter.h ****   
  67:eurorack/stmlib/dsp/filter.h ****   void Init(float pole) {
  68:eurorack/stmlib/dsp/filter.h ****     x_ = 0.0f;
  69:eurorack/stmlib/dsp/filter.h ****     y_ = 0.0f;
  70:eurorack/stmlib/dsp/filter.h ****     pole_ = pole;
  71:eurorack/stmlib/dsp/filter.h ****   }
  72:eurorack/stmlib/dsp/filter.h ****   
  73:eurorack/stmlib/dsp/filter.h ****   inline void Process(float* in_out, size_t size) {
  74:eurorack/stmlib/dsp/filter.h ****     float x = x_;
  75:eurorack/stmlib/dsp/filter.h ****     float y = y_;
  76:eurorack/stmlib/dsp/filter.h ****     const float pole = pole_;
  77:eurorack/stmlib/dsp/filter.h ****     while (size--) {
  78:eurorack/stmlib/dsp/filter.h ****       float old_x = x;
  79:eurorack/stmlib/dsp/filter.h ****       x = *in_out;
  80:eurorack/stmlib/dsp/filter.h ****       *in_out++ = y = y * pole + x - old_x;
  81:eurorack/stmlib/dsp/filter.h ****     }
  82:eurorack/stmlib/dsp/filter.h ****     x_ = x;
  83:eurorack/stmlib/dsp/filter.h ****     y_ = y;
  84:eurorack/stmlib/dsp/filter.h ****   }
  85:eurorack/stmlib/dsp/filter.h ****   
  86:eurorack/stmlib/dsp/filter.h ****  private:
  87:eurorack/stmlib/dsp/filter.h ****   float pole_;
  88:eurorack/stmlib/dsp/filter.h ****   float x_;
  89:eurorack/stmlib/dsp/filter.h ****   float y_;
  90:eurorack/stmlib/dsp/filter.h **** };
  91:eurorack/stmlib/dsp/filter.h **** 
  92:eurorack/stmlib/dsp/filter.h **** class OnePole {
  93:eurorack/stmlib/dsp/filter.h ****  public:
  94:eurorack/stmlib/dsp/filter.h ****   OnePole() { }
  95:eurorack/stmlib/dsp/filter.h ****   ~OnePole() { }
  96:eurorack/stmlib/dsp/filter.h ****   
  97:eurorack/stmlib/dsp/filter.h ****   void Init() {
  98:eurorack/stmlib/dsp/filter.h ****     set_f<FREQUENCY_DIRTY>(0.01f);
  99:eurorack/stmlib/dsp/filter.h ****     Reset();
 100:eurorack/stmlib/dsp/filter.h ****   }
ARM GAS  /var/folders/9s/8rp0_f2s1n31qbztm3b5_fdh0000gn/T//ccqxwUOT.s 			page 14


 101:eurorack/stmlib/dsp/filter.h ****   
 102:eurorack/stmlib/dsp/filter.h ****   void Reset() {
 103:eurorack/stmlib/dsp/filter.h ****     state_ = 0.0f;
 104:eurorack/stmlib/dsp/filter.h ****   }
 105:eurorack/stmlib/dsp/filter.h ****   
 106:eurorack/stmlib/dsp/filter.h ****   template<FrequencyApproximation approximation>
 107:eurorack/stmlib/dsp/filter.h ****   static inline float tan(float f) {
 108:eurorack/stmlib/dsp/filter.h ****     if (approximation == FREQUENCY_EXACT) {
 109:eurorack/stmlib/dsp/filter.h ****       // Clip coefficient to about 100.
 110:eurorack/stmlib/dsp/filter.h ****       f = f < 0.497f ? f : 0.497f;
 111:eurorack/stmlib/dsp/filter.h ****       return tanf(M_PI_F * f);
 112:eurorack/stmlib/dsp/filter.h ****     } else if (approximation == FREQUENCY_DIRTY) {
 113:eurorack/stmlib/dsp/filter.h ****       // Optimized for frequencies below 8kHz.
 114:eurorack/stmlib/dsp/filter.h ****       const float a = 3.736e-01f * M_PI_POW_3;
 115:eurorack/stmlib/dsp/filter.h ****       return f * (M_PI_F + a * f * f);
 116:eurorack/stmlib/dsp/filter.h ****     } else if (approximation == FREQUENCY_FAST) {
 117:eurorack/stmlib/dsp/filter.h ****       // The usual tangent approximation uses 3.1755e-01 and 2.033e-01, but
 118:eurorack/stmlib/dsp/filter.h ****       // the coefficients used here are optimized to minimize error for the
 119:eurorack/stmlib/dsp/filter.h ****       // 16Hz to 16kHz range, with a sample rate of 48kHz.
 120:eurorack/stmlib/dsp/filter.h ****       const float a = 3.260e-01f * M_PI_POW_3;
 121:eurorack/stmlib/dsp/filter.h ****       const float b = 1.823e-01f * M_PI_POW_5;
 122:eurorack/stmlib/dsp/filter.h ****       float f2 = f * f;
 123:eurorack/stmlib/dsp/filter.h ****       return f * (M_PI_F + f2 * (a + b * f2));
 124:eurorack/stmlib/dsp/filter.h ****     } else if (approximation == FREQUENCY_ACCURATE) {
 125:eurorack/stmlib/dsp/filter.h ****       // These coefficients don't need to be tweaked for the audio range.
 126:eurorack/stmlib/dsp/filter.h ****       const float a = 3.333314036e-01f * M_PI_POW_3;
 127:eurorack/stmlib/dsp/filter.h ****       const float b = 1.333923995e-01f * M_PI_POW_5;
 128:eurorack/stmlib/dsp/filter.h ****       const float c = 5.33740603e-02f * M_PI_POW_7;
 129:eurorack/stmlib/dsp/filter.h ****       const float d = 2.900525e-03f * M_PI_POW_9;
 130:eurorack/stmlib/dsp/filter.h ****       const float e = 9.5168091e-03f * M_PI_POW_11;
 131:eurorack/stmlib/dsp/filter.h ****       float f2 = f * f;
 132:eurorack/stmlib/dsp/filter.h ****       return f * (M_PI_F + f2 * (a + f2 * (b + f2 * (c + f2 * (d + f2 * e)))));
 133:eurorack/stmlib/dsp/filter.h ****     }
 134:eurorack/stmlib/dsp/filter.h ****   }
 135:eurorack/stmlib/dsp/filter.h ****   
 136:eurorack/stmlib/dsp/filter.h ****   // Set frequency and resonance from true units. Various approximations
 137:eurorack/stmlib/dsp/filter.h ****   // are available to avoid the cost of tanf.
 138:eurorack/stmlib/dsp/filter.h ****   template<FrequencyApproximation approximation>
 139:eurorack/stmlib/dsp/filter.h ****   inline void set_f(float f) {
 140:eurorack/stmlib/dsp/filter.h ****     g_ = tan<approximation>(f);
 141:eurorack/stmlib/dsp/filter.h ****     gi_ = 1.0f / (1.0f + g_);
 142:eurorack/stmlib/dsp/filter.h ****   }
 143:eurorack/stmlib/dsp/filter.h ****   
 144:eurorack/stmlib/dsp/filter.h ****   template<FilterMode mode>
 145:eurorack/stmlib/dsp/filter.h ****   inline float Process(float in) {
 146:eurorack/stmlib/dsp/filter.h ****     float lp;
 147:eurorack/stmlib/dsp/filter.h ****     lp = (g_ * in + state_) * gi_;
 148:eurorack/stmlib/dsp/filter.h ****     state_ = g_ * (in - lp) + lp;
 149:eurorack/stmlib/dsp/filter.h **** 
 150:eurorack/stmlib/dsp/filter.h ****     if (mode == FILTER_MODE_LOW_PASS) {
 151:eurorack/stmlib/dsp/filter.h ****       return lp;
 152:eurorack/stmlib/dsp/filter.h ****     } else if (mode == FILTER_MODE_HIGH_PASS) {
 153:eurorack/stmlib/dsp/filter.h ****       return in - lp;
 154:eurorack/stmlib/dsp/filter.h ****     } else {
 155:eurorack/stmlib/dsp/filter.h ****       return 0.0f;
 156:eurorack/stmlib/dsp/filter.h ****     }
 157:eurorack/stmlib/dsp/filter.h ****   }
ARM GAS  /var/folders/9s/8rp0_f2s1n31qbztm3b5_fdh0000gn/T//ccqxwUOT.s 			page 15


 158:eurorack/stmlib/dsp/filter.h ****   
 159:eurorack/stmlib/dsp/filter.h ****   template<FilterMode mode>
 160:eurorack/stmlib/dsp/filter.h ****   inline void Process(float* in_out, size_t size) {
 161:eurorack/stmlib/dsp/filter.h ****     while (size--) {
 162:eurorack/stmlib/dsp/filter.h ****       *in_out = Process<mode>(*in_out);
 163:eurorack/stmlib/dsp/filter.h ****       ++in_out;
 164:eurorack/stmlib/dsp/filter.h ****     }
 165:eurorack/stmlib/dsp/filter.h ****   }
 166:eurorack/stmlib/dsp/filter.h ****   
 167:eurorack/stmlib/dsp/filter.h ****  private:
 168:eurorack/stmlib/dsp/filter.h ****   float g_;
 169:eurorack/stmlib/dsp/filter.h ****   float gi_;
 170:eurorack/stmlib/dsp/filter.h ****   float state_;
 171:eurorack/stmlib/dsp/filter.h ****   
 172:eurorack/stmlib/dsp/filter.h ****   DISALLOW_COPY_AND_ASSIGN(OnePole);
 173:eurorack/stmlib/dsp/filter.h **** };
 174:eurorack/stmlib/dsp/filter.h **** 
 175:eurorack/stmlib/dsp/filter.h **** 
 176:eurorack/stmlib/dsp/filter.h **** 
 177:eurorack/stmlib/dsp/filter.h **** class Svf {
 178:eurorack/stmlib/dsp/filter.h ****  public:
 179:eurorack/stmlib/dsp/filter.h ****   Svf() { }
 180:eurorack/stmlib/dsp/filter.h ****   ~Svf() { }
 181:eurorack/stmlib/dsp/filter.h ****   
 182:eurorack/stmlib/dsp/filter.h ****   void Init() {
 319              		.loc 4 182 8 is_stmt 1 view -0
 320              		.cfi_startproc
 321              		@ args = 0, pretend = 0, frame = 0
 322              		@ frame_needed = 0, uses_anonymous_args = 0
 323              		@ link register save eliminated.
 183:eurorack/stmlib/dsp/filter.h ****     set_f_q<FREQUENCY_DIRTY>(0.01f, 100.0f);
 324              		.loc 4 183 5 view .LVU90
 325              	.LBB107:
 326              	.LBI107:
 184:eurorack/stmlib/dsp/filter.h ****     Reset();
 185:eurorack/stmlib/dsp/filter.h ****   }
 186:eurorack/stmlib/dsp/filter.h ****   
 187:eurorack/stmlib/dsp/filter.h ****   void Reset() {
 188:eurorack/stmlib/dsp/filter.h ****     state_1_ = state_2_ = 0.0f;
 189:eurorack/stmlib/dsp/filter.h ****   }
 190:eurorack/stmlib/dsp/filter.h ****   
 191:eurorack/stmlib/dsp/filter.h ****   // Copy settings from another filter.
 192:eurorack/stmlib/dsp/filter.h ****   inline void set(const Svf& f) {
 193:eurorack/stmlib/dsp/filter.h ****     g_ = f.g();
 194:eurorack/stmlib/dsp/filter.h ****     r_ = f.r();
 195:eurorack/stmlib/dsp/filter.h ****     h_ = f.h();
 196:eurorack/stmlib/dsp/filter.h ****   }
 197:eurorack/stmlib/dsp/filter.h **** 
 198:eurorack/stmlib/dsp/filter.h ****   // Set all parameters from LUT.
 199:eurorack/stmlib/dsp/filter.h ****   inline void set_g_r_h(float g, float r, float h) {
 200:eurorack/stmlib/dsp/filter.h ****     g_ = g;
 201:eurorack/stmlib/dsp/filter.h ****     r_ = r;
 202:eurorack/stmlib/dsp/filter.h ****     h_ = h;
 203:eurorack/stmlib/dsp/filter.h ****   }
 204:eurorack/stmlib/dsp/filter.h ****   
 205:eurorack/stmlib/dsp/filter.h ****   // Set frequency and resonance coefficients from LUT, adjust remaining
 206:eurorack/stmlib/dsp/filter.h ****   // parameter.
ARM GAS  /var/folders/9s/8rp0_f2s1n31qbztm3b5_fdh0000gn/T//ccqxwUOT.s 			page 16


 207:eurorack/stmlib/dsp/filter.h ****   inline void set_g_r(float g, float r) {
 208:eurorack/stmlib/dsp/filter.h ****     g_ = g;
 209:eurorack/stmlib/dsp/filter.h ****     r_ = r;
 210:eurorack/stmlib/dsp/filter.h ****     h_ = 1.0f / (1.0f + r_ * g_ + g_ * g_);
 211:eurorack/stmlib/dsp/filter.h ****   }
 212:eurorack/stmlib/dsp/filter.h **** 
 213:eurorack/stmlib/dsp/filter.h ****   // Set frequency from LUT, resonance in true units, adjust the rest.
 214:eurorack/stmlib/dsp/filter.h ****   inline void set_g_q(float g, float resonance) {
 215:eurorack/stmlib/dsp/filter.h ****     g_ = g;
 216:eurorack/stmlib/dsp/filter.h ****     r_ = 1.0f / resonance;
 217:eurorack/stmlib/dsp/filter.h ****     h_ = 1.0f / (1.0f + r_ * g_ + g_ * g_);
 218:eurorack/stmlib/dsp/filter.h ****   }
 219:eurorack/stmlib/dsp/filter.h **** 
 220:eurorack/stmlib/dsp/filter.h ****   // Set frequency and resonance from true units. Various approximations
 221:eurorack/stmlib/dsp/filter.h ****   // are available to avoid the cost of tanf.
 222:eurorack/stmlib/dsp/filter.h ****   template<FrequencyApproximation approximation>
 223:eurorack/stmlib/dsp/filter.h ****   inline void set_f_q(float f, float resonance) {
 327              		.loc 4 223 15 view .LVU91
 328              	.LBB108:
 224:eurorack/stmlib/dsp/filter.h ****     g_ = OnePole::tan<approximation>(f);
 329              		.loc 4 224 8 is_stmt 0 view .LVU92
 330 0000 044B     		ldr	r3, .L13
 331 0002 0360     		str	r3, [r0]	@ float
 225:eurorack/stmlib/dsp/filter.h ****     r_ = 1.0f / resonance;
 332              		.loc 4 225 8 view .LVU93
 333 0004 044B     		ldr	r3, .L13+4
 334 0006 4360     		str	r3, [r0, #4]	@ float
 226:eurorack/stmlib/dsp/filter.h ****     h_ = 1.0f / (1.0f + r_ * g_ + g_ * g_);
 335              		.loc 4 226 8 view .LVU94
 336 0008 044B     		ldr	r3, .L13+8
 337 000a 8360     		str	r3, [r0, #8]	@ float
 338              	.LVL33:
 339              		.loc 4 226 8 view .LVU95
 340              	.LBE108:
 341              	.LBE107:
 184:eurorack/stmlib/dsp/filter.h ****   }
 342              		.loc 4 184 5 is_stmt 1 view .LVU96
 343              	.LBB109:
 344              	.LBI109:
 187:eurorack/stmlib/dsp/filter.h ****     state_1_ = state_2_ = 0.0f;
 345              		.loc 4 187 8 view .LVU97
 346              	.LBB110:
 188:eurorack/stmlib/dsp/filter.h ****   }
 347              		.loc 4 188 5 view .LVU98
 188:eurorack/stmlib/dsp/filter.h ****   }
 348              		.loc 4 188 25 is_stmt 0 view .LVU99
 349 000c 0023     		movs	r3, #0
 350 000e 0361     		str	r3, [r0, #16]	@ float
 188:eurorack/stmlib/dsp/filter.h ****   }
 351              		.loc 4 188 14 view .LVU100
 352 0010 C360     		str	r3, [r0, #12]	@ float
 353              	.LVL34:
 188:eurorack/stmlib/dsp/filter.h ****   }
 354              		.loc 4 188 14 view .LVU101
 355              	.LBE110:
 356              	.LBE109:
 185:eurorack/stmlib/dsp/filter.h ****   
ARM GAS  /var/folders/9s/8rp0_f2s1n31qbztm3b5_fdh0000gn/T//ccqxwUOT.s 			page 17


 357              		.loc 4 185 3 view .LVU102
 358 0012 7047     		bx	lr
 359              	.L14:
 360              		.align	2
 361              	.L13:
 362 0014 22BA003D 		.word	1023457826
 363 0018 0AD7233C 		.word	1008981770
 364 001c CAAA7F3F 		.word	1065331402
 365              		.cfi_endproc
 366              	.LFE1421:
 368              		.section	.text._ZN6plaits14BassDrumEngine4InitEPN6stmlib15BufferAllocatorE,"ax",%progbits
 369              		.align	1
 370              		.global	_ZN6plaits14BassDrumEngine4InitEPN6stmlib15BufferAllocatorE
 371              		.syntax unified
 372              		.thumb
 373              		.thumb_func
 375              	_ZN6plaits14BassDrumEngine4InitEPN6stmlib15BufferAllocatorE:
 376              	.LVL35:
 377              	.LFB1615:
  38:eurorack/plaits/dsp/engine/bass_drum_engine.cc ****   analog_bass_drum_.Init();
 378              		.loc 1 38 55 is_stmt 1 view -0
 379              		.cfi_startproc
 380              		@ args = 0, pretend = 0, frame = 0
 381              		@ frame_needed = 0, uses_anonymous_args = 0
  39:eurorack/plaits/dsp/engine/bass_drum_engine.cc ****   synthetic_bass_drum_.Init();
 382              		.loc 1 39 3 view .LVU104
 383              	.LBB128:
 384              	.LBI128:
 385              		.file 5 "eurorack/plaits/dsp/drums/analog_bass_drum.h"
   1:eurorack/plaits/dsp/drums/analog_bass_drum.h **** // Copyright 2016 Emilie Gillet.
   2:eurorack/plaits/dsp/drums/analog_bass_drum.h **** //
   3:eurorack/plaits/dsp/drums/analog_bass_drum.h **** // Author: Emilie Gillet (emilie.o.gillet@gmail.com)
   4:eurorack/plaits/dsp/drums/analog_bass_drum.h **** //
   5:eurorack/plaits/dsp/drums/analog_bass_drum.h **** // Permission is hereby granted, free of charge, to any person obtaining a copy
   6:eurorack/plaits/dsp/drums/analog_bass_drum.h **** // of this software and associated documentation files (the "Software"), to deal
   7:eurorack/plaits/dsp/drums/analog_bass_drum.h **** // in the Software without restriction, including without limitation the rights
   8:eurorack/plaits/dsp/drums/analog_bass_drum.h **** // to use, copy, modify, merge, publish, distribute, sublicense, and/or sell
   9:eurorack/plaits/dsp/drums/analog_bass_drum.h **** // copies of the Software, and to permit persons to whom the Software is
  10:eurorack/plaits/dsp/drums/analog_bass_drum.h **** // furnished to do so, subject to the following conditions:
  11:eurorack/plaits/dsp/drums/analog_bass_drum.h **** // 
  12:eurorack/plaits/dsp/drums/analog_bass_drum.h **** // The above copyright notice and this permission notice shall be included in
  13:eurorack/plaits/dsp/drums/analog_bass_drum.h **** // all copies or substantial portions of the Software.
  14:eurorack/plaits/dsp/drums/analog_bass_drum.h **** // 
  15:eurorack/plaits/dsp/drums/analog_bass_drum.h **** // THE SOFTWARE IS PROVIDED "AS IS", WITHOUT WARRANTY OF ANY KIND, EXPRESS OR
  16:eurorack/plaits/dsp/drums/analog_bass_drum.h **** // IMPLIED, INCLUDING BUT NOT LIMITED TO THE WARRANTIES OF MERCHANTABILITY,
  17:eurorack/plaits/dsp/drums/analog_bass_drum.h **** // FITNESS FOR A PARTICULAR PURPOSE AND NONINFRINGEMENT. IN NO EVENT SHALL THE
  18:eurorack/plaits/dsp/drums/analog_bass_drum.h **** // AUTHORS OR COPYRIGHT HOLDERS BE LIABLE FOR ANY CLAIM, DAMAGES OR OTHER
  19:eurorack/plaits/dsp/drums/analog_bass_drum.h **** // LIABILITY, WHETHER IN AN ACTION OF CONTRACT, TORT OR OTHERWISE, ARISING FROM,
  20:eurorack/plaits/dsp/drums/analog_bass_drum.h **** // OUT OF OR IN CONNECTION WITH THE SOFTWARE OR THE USE OR OTHER DEALINGS IN
  21:eurorack/plaits/dsp/drums/analog_bass_drum.h **** // THE SOFTWARE.
  22:eurorack/plaits/dsp/drums/analog_bass_drum.h **** // 
  23:eurorack/plaits/dsp/drums/analog_bass_drum.h **** // See http://creativecommons.org/licenses/MIT/ for more information.
  24:eurorack/plaits/dsp/drums/analog_bass_drum.h **** //
  25:eurorack/plaits/dsp/drums/analog_bass_drum.h **** // -----------------------------------------------------------------------------
  26:eurorack/plaits/dsp/drums/analog_bass_drum.h **** //
  27:eurorack/plaits/dsp/drums/analog_bass_drum.h **** // 808 bass drum model, revisited.
  28:eurorack/plaits/dsp/drums/analog_bass_drum.h **** 
ARM GAS  /var/folders/9s/8rp0_f2s1n31qbztm3b5_fdh0000gn/T//ccqxwUOT.s 			page 18


  29:eurorack/plaits/dsp/drums/analog_bass_drum.h **** #ifndef PLAITS_DSP_DRUMS_ANALOG_BASS_DRUM_H_
  30:eurorack/plaits/dsp/drums/analog_bass_drum.h **** #define PLAITS_DSP_DRUMS_ANALOG_BASS_DRUM_H_
  31:eurorack/plaits/dsp/drums/analog_bass_drum.h **** 
  32:eurorack/plaits/dsp/drums/analog_bass_drum.h **** #include <algorithm>
  33:eurorack/plaits/dsp/drums/analog_bass_drum.h **** 
  34:eurorack/plaits/dsp/drums/analog_bass_drum.h **** #include "stmlib/dsp/dsp.h"
  35:eurorack/plaits/dsp/drums/analog_bass_drum.h **** #include "stmlib/dsp/filter.h"
  36:eurorack/plaits/dsp/drums/analog_bass_drum.h **** #include "stmlib/dsp/parameter_interpolator.h"
  37:eurorack/plaits/dsp/drums/analog_bass_drum.h **** #include "stmlib/dsp/units.h"
  38:eurorack/plaits/dsp/drums/analog_bass_drum.h **** 
  39:eurorack/plaits/dsp/drums/analog_bass_drum.h **** #include "plaits/dsp/dsp.h"
  40:eurorack/plaits/dsp/drums/analog_bass_drum.h **** #include "plaits/dsp/oscillator/sine_oscillator.h"
  41:eurorack/plaits/dsp/drums/analog_bass_drum.h **** 
  42:eurorack/plaits/dsp/drums/analog_bass_drum.h **** namespace plaits {
  43:eurorack/plaits/dsp/drums/analog_bass_drum.h **** 
  44:eurorack/plaits/dsp/drums/analog_bass_drum.h **** class AnalogBassDrum {
  45:eurorack/plaits/dsp/drums/analog_bass_drum.h ****  public:
  46:eurorack/plaits/dsp/drums/analog_bass_drum.h ****   AnalogBassDrum() { }
  47:eurorack/plaits/dsp/drums/analog_bass_drum.h ****   ~AnalogBassDrum() { }
  48:eurorack/plaits/dsp/drums/analog_bass_drum.h **** 
  49:eurorack/plaits/dsp/drums/analog_bass_drum.h ****   void Init() {
 386              		.loc 5 49 8 view .LVU105
 387              	.LBB129:
  50:eurorack/plaits/dsp/drums/analog_bass_drum.h ****     pulse_remaining_samples_ = 0;
 388              		.loc 5 50 5 view .LVU106
 389              	.LBE129:
 390              	.LBE128:
  38:eurorack/plaits/dsp/engine/bass_drum_engine.cc ****   analog_bass_drum_.Init();
 391              		.loc 1 38 55 is_stmt 0 view .LVU107
 392 0000 70B5     		push	{r4, r5, r6, lr}
 393              		.cfi_def_cfa_offset 16
 394              		.cfi_offset 4, -16
 395              		.cfi_offset 5, -12
 396              		.cfi_offset 6, -8
 397              		.cfi_offset 14, -4
 398              	.LBB137:
 399              	.LBB134:
  51:eurorack/plaits/dsp/drums/analog_bass_drum.h ****     fm_pulse_remaining_samples_ = 0;
  52:eurorack/plaits/dsp/drums/analog_bass_drum.h ****     pulse_ = 0.0f;
 400              		.loc 5 52 12 view .LVU108
 401 0002 0025     		movs	r5, #0
  50:eurorack/plaits/dsp/drums/analog_bass_drum.h ****     fm_pulse_remaining_samples_ = 0;
 402              		.loc 5 50 30 view .LVU109
 403 0004 0026     		movs	r6, #0
 404              	.LBE134:
 405              	.LBE137:
  38:eurorack/plaits/dsp/engine/bass_drum_engine.cc ****   analog_bass_drum_.Init();
 406              		.loc 1 38 55 view .LVU110
 407 0006 0446     		mov	r4, r0
 408              	.LBB138:
 409              	.LBB135:
 410              		.loc 5 52 12 view .LVU111
 411 0008 8561     		str	r5, [r0, #24]	@ float
  53:eurorack/plaits/dsp/drums/analog_bass_drum.h ****     pulse_height_ = 0.0f;
 412              		.loc 5 53 19 view .LVU112
 413 000a C561     		str	r5, [r0, #28]	@ float
  54:eurorack/plaits/dsp/drums/analog_bass_drum.h ****     pulse_lp_ = 0.0f;
ARM GAS  /var/folders/9s/8rp0_f2s1n31qbztm3b5_fdh0000gn/T//ccqxwUOT.s 			page 19


 414              		.loc 5 54 15 view .LVU113
 415 000c 0562     		str	r5, [r0, #32]	@ float
  55:eurorack/plaits/dsp/drums/analog_bass_drum.h ****     fm_pulse_lp_ = 0.0f;
 416              		.loc 5 55 18 view .LVU114
 417 000e 4562     		str	r5, [r0, #36]	@ float
  56:eurorack/plaits/dsp/drums/analog_bass_drum.h ****     retrig_pulse_ = 0.0f;
 418              		.loc 5 56 19 view .LVU115
 419 0010 8562     		str	r5, [r0, #40]	@ float
  57:eurorack/plaits/dsp/drums/analog_bass_drum.h ****     lp_out_ = 0.0f;
 420              		.loc 5 57 13 view .LVU116
 421 0012 C562     		str	r5, [r0, #44]	@ float
  58:eurorack/plaits/dsp/drums/analog_bass_drum.h ****     tone_lp_ = 0.0f;
 422              		.loc 5 58 14 view .LVU117
 423 0014 0563     		str	r5, [r0, #48]	@ float
  59:eurorack/plaits/dsp/drums/analog_bass_drum.h ****     sustain_gain_ = 0.0f;
 424              		.loc 5 59 19 view .LVU118
 425 0016 4563     		str	r5, [r0, #52]	@ float
  51:eurorack/plaits/dsp/drums/analog_bass_drum.h ****     pulse_ = 0.0f;
 426              		.loc 5 51 33 view .LVU119
 427 0018 C0E90466 		strd	r6, r6, [r0, #16]
  52:eurorack/plaits/dsp/drums/analog_bass_drum.h ****     pulse_height_ = 0.0f;
 428              		.loc 5 52 5 is_stmt 1 view .LVU120
  53:eurorack/plaits/dsp/drums/analog_bass_drum.h ****     pulse_lp_ = 0.0f;
 429              		.loc 5 53 5 view .LVU121
  54:eurorack/plaits/dsp/drums/analog_bass_drum.h ****     fm_pulse_lp_ = 0.0f;
 430              		.loc 5 54 5 view .LVU122
  55:eurorack/plaits/dsp/drums/analog_bass_drum.h ****     retrig_pulse_ = 0.0f;
 431              		.loc 5 55 5 view .LVU123
  56:eurorack/plaits/dsp/drums/analog_bass_drum.h ****     lp_out_ = 0.0f;
 432              		.loc 5 56 5 view .LVU124
  57:eurorack/plaits/dsp/drums/analog_bass_drum.h ****     tone_lp_ = 0.0f;
 433              		.loc 5 57 5 view .LVU125
  58:eurorack/plaits/dsp/drums/analog_bass_drum.h ****     sustain_gain_ = 0.0f;
 434              		.loc 5 58 5 view .LVU126
 435              		.loc 5 59 5 view .LVU127
  60:eurorack/plaits/dsp/drums/analog_bass_drum.h **** 
  61:eurorack/plaits/dsp/drums/analog_bass_drum.h ****     resonator_.Init();
 436              		.loc 5 61 5 view .LVU128
 437              		.loc 5 61 20 is_stmt 0 view .LVU129
 438 001c 3830     		adds	r0, r0, #56
 439              	.LVL36:
 440              		.loc 5 61 20 view .LVU130
 441 001e FFF7FEFF 		bl	_ZN6stmlib3Svf4InitEv
 442              	.LVL37:
  62:eurorack/plaits/dsp/drums/analog_bass_drum.h ****     oscillator_.Init();
 443              		.loc 5 62 5 is_stmt 1 view .LVU131
 444              	.LBB130:
 445              	.LBI130:
 446              		.file 6 "eurorack/plaits/dsp/oscillator/sine_oscillator.h"
   1:eurorack/plaits/dsp/oscillator/sine_oscillator.h **** // Copyright 2016 Emilie Gillet.
   2:eurorack/plaits/dsp/oscillator/sine_oscillator.h **** //
   3:eurorack/plaits/dsp/oscillator/sine_oscillator.h **** // Author: Emilie Gillet (emilie.o.gillet@gmail.com)
   4:eurorack/plaits/dsp/oscillator/sine_oscillator.h **** //
   5:eurorack/plaits/dsp/oscillator/sine_oscillator.h **** // Permission is hereby granted, free of charge, to any person obtaining a copy
   6:eurorack/plaits/dsp/oscillator/sine_oscillator.h **** // of this software and associated documentation files (the "Software"), to deal
   7:eurorack/plaits/dsp/oscillator/sine_oscillator.h **** // in the Software without restriction, including without limitation the rights
   8:eurorack/plaits/dsp/oscillator/sine_oscillator.h **** // to use, copy, modify, merge, publish, distribute, sublicense, and/or sell
ARM GAS  /var/folders/9s/8rp0_f2s1n31qbztm3b5_fdh0000gn/T//ccqxwUOT.s 			page 20


   9:eurorack/plaits/dsp/oscillator/sine_oscillator.h **** // copies of the Software, and to permit persons to whom the Software is
  10:eurorack/plaits/dsp/oscillator/sine_oscillator.h **** // furnished to do so, subject to the following conditions:
  11:eurorack/plaits/dsp/oscillator/sine_oscillator.h **** // 
  12:eurorack/plaits/dsp/oscillator/sine_oscillator.h **** // The above copyright notice and this permission notice shall be included in
  13:eurorack/plaits/dsp/oscillator/sine_oscillator.h **** // all copies or substantial portions of the Software.
  14:eurorack/plaits/dsp/oscillator/sine_oscillator.h **** // 
  15:eurorack/plaits/dsp/oscillator/sine_oscillator.h **** // THE SOFTWARE IS PROVIDED "AS IS", WITHOUT WARRANTY OF ANY KIND, EXPRESS OR
  16:eurorack/plaits/dsp/oscillator/sine_oscillator.h **** // IMPLIED, INCLUDING BUT NOT LIMITED TO THE WARRANTIES OF MERCHANTABILITY,
  17:eurorack/plaits/dsp/oscillator/sine_oscillator.h **** // FITNESS FOR A PARTICULAR PURPOSE AND NONINFRINGEMENT. IN NO EVENT SHALL THE
  18:eurorack/plaits/dsp/oscillator/sine_oscillator.h **** // AUTHORS OR COPYRIGHT HOLDERS BE LIABLE FOR ANY CLAIM, DAMAGES OR OTHER
  19:eurorack/plaits/dsp/oscillator/sine_oscillator.h **** // LIABILITY, WHETHER IN AN ACTION OF CONTRACT, TORT OR OTHERWISE, ARISING FROM,
  20:eurorack/plaits/dsp/oscillator/sine_oscillator.h **** // OUT OF OR IN CONNECTION WITH THE SOFTWARE OR THE USE OR OTHER DEALINGS IN
  21:eurorack/plaits/dsp/oscillator/sine_oscillator.h **** // THE SOFTWARE.
  22:eurorack/plaits/dsp/oscillator/sine_oscillator.h **** // 
  23:eurorack/plaits/dsp/oscillator/sine_oscillator.h **** // See http://creativecommons.org/licenses/MIT/ for more information.
  24:eurorack/plaits/dsp/oscillator/sine_oscillator.h **** //
  25:eurorack/plaits/dsp/oscillator/sine_oscillator.h **** // -----------------------------------------------------------------------------
  26:eurorack/plaits/dsp/oscillator/sine_oscillator.h **** //
  27:eurorack/plaits/dsp/oscillator/sine_oscillator.h **** // Simple sine oscillator (wavetable) + fast sine oscillator (magic circle).
  28:eurorack/plaits/dsp/oscillator/sine_oscillator.h **** //
  29:eurorack/plaits/dsp/oscillator/sine_oscillator.h **** // The fast implementation might glitch a bit under heavy modulations of the
  30:eurorack/plaits/dsp/oscillator/sine_oscillator.h **** // frequency.
  31:eurorack/plaits/dsp/oscillator/sine_oscillator.h **** 
  32:eurorack/plaits/dsp/oscillator/sine_oscillator.h **** #ifndef PLAITS_DSP_OSCILLATOR_SINE_OSCILLATOR_H_
  33:eurorack/plaits/dsp/oscillator/sine_oscillator.h **** #define PLAITS_DSP_OSCILLATOR_SINE_OSCILLATOR_H_
  34:eurorack/plaits/dsp/oscillator/sine_oscillator.h **** 
  35:eurorack/plaits/dsp/oscillator/sine_oscillator.h **** #include "stmlib/dsp/dsp.h"
  36:eurorack/plaits/dsp/oscillator/sine_oscillator.h **** #include "stmlib/dsp/parameter_interpolator.h"
  37:eurorack/plaits/dsp/oscillator/sine_oscillator.h **** #include "stmlib/dsp/rsqrt.h"
  38:eurorack/plaits/dsp/oscillator/sine_oscillator.h **** 
  39:eurorack/plaits/dsp/oscillator/sine_oscillator.h **** #include "plaits/resources.h"
  40:eurorack/plaits/dsp/oscillator/sine_oscillator.h **** 
  41:eurorack/plaits/dsp/oscillator/sine_oscillator.h **** namespace plaits {
  42:eurorack/plaits/dsp/oscillator/sine_oscillator.h **** 
  43:eurorack/plaits/dsp/oscillator/sine_oscillator.h **** class SineOscillator {
  44:eurorack/plaits/dsp/oscillator/sine_oscillator.h ****  public:
  45:eurorack/plaits/dsp/oscillator/sine_oscillator.h ****   SineOscillator() { }
  46:eurorack/plaits/dsp/oscillator/sine_oscillator.h ****   ~SineOscillator() { }
  47:eurorack/plaits/dsp/oscillator/sine_oscillator.h **** 
  48:eurorack/plaits/dsp/oscillator/sine_oscillator.h ****   void Init() {
 447              		.loc 6 48 8 view .LVU132
 448              	.LBB131:
  49:eurorack/plaits/dsp/oscillator/sine_oscillator.h ****     phase_ = 0.0f;
 449              		.loc 6 49 5 view .LVU133
 450              	.LBE131:
 451              	.LBE130:
 452              	.LBE135:
 453              	.LBE138:
 454              	.LBB139:
 455              	.LBB140:
 456              	.LBB141:
 457              	.LBB142:
  50:eurorack/plaits/dsp/drums/synthetic_bass_drum.h ****     filter_.set_f_q<stmlib::FREQUENCY_FAST>(5000.0f / kSampleRate, 2.0f);
 458              		.loc 2 50 17 is_stmt 0 view .LVU134
 459 0022 04F18C00 		add	r0, r4, #140
 460              	.LBE142:
 461              	.LBE141:
ARM GAS  /var/folders/9s/8rp0_f2s1n31qbztm3b5_fdh0000gn/T//ccqxwUOT.s 			page 21


 462              	.LBE140:
 463              	.LBE139:
 464              	.LBB169:
 465              	.LBB136:
 466              	.LBB133:
 467              	.LBB132:
 468              		.loc 6 49 12 view .LVU135
 469 0026 E564     		str	r5, [r4, #76]	@ float
  50:eurorack/plaits/dsp/oscillator/sine_oscillator.h ****     frequency_ = 0.0f;
 470              		.loc 6 50 5 is_stmt 1 view .LVU136
 471              		.loc 6 50 16 is_stmt 0 view .LVU137
 472 0028 2565     		str	r5, [r4, #80]	@ float
  51:eurorack/plaits/dsp/oscillator/sine_oscillator.h ****     amplitude_ = 0.0f;
 473              		.loc 6 51 5 is_stmt 1 view .LVU138
 474              		.loc 6 51 16 is_stmt 0 view .LVU139
 475 002a 6565     		str	r5, [r4, #84]	@ float
 476              	.LVL38:
 477              		.loc 6 51 16 view .LVU140
 478              	.LBE132:
 479              	.LBE133:
 480              	.LBE136:
 481              	.LBE169:
  40:eurorack/plaits/dsp/engine/bass_drum_engine.cc ****   overdrive_.Init();
 482              		.loc 1 40 3 is_stmt 1 view .LVU141
 483              	.LBB170:
 484              	.LBI139:
  97:eurorack/plaits/dsp/drums/synthetic_bass_drum.h ****     phase_ = 0.0f;
 485              		.loc 2 97 8 view .LVU142
 486              	.LBB167:
  98:eurorack/plaits/dsp/drums/synthetic_bass_drum.h ****     phase_noise_ = 0.0f;
 487              		.loc 2 98 5 view .LVU143
  98:eurorack/plaits/dsp/drums/synthetic_bass_drum.h ****     phase_noise_ = 0.0f;
 488              		.loc 2 98 12 is_stmt 0 view .LVU144
 489 002c E565     		str	r5, [r4, #92]	@ float
  99:eurorack/plaits/dsp/drums/synthetic_bass_drum.h ****     f0_ = 0.0f;
 490              		.loc 2 99 5 is_stmt 1 view .LVU145
  99:eurorack/plaits/dsp/drums/synthetic_bass_drum.h ****     f0_ = 0.0f;
 491              		.loc 2 99 18 is_stmt 0 view .LVU146
 492 002e 2566     		str	r5, [r4, #96]	@ float
 100:eurorack/plaits/dsp/drums/synthetic_bass_drum.h ****     fm_ = 0.0f;
 493              		.loc 2 100 5 is_stmt 1 view .LVU147
 100:eurorack/plaits/dsp/drums/synthetic_bass_drum.h ****     fm_ = 0.0f;
 494              		.loc 2 100 9 is_stmt 0 view .LVU148
 495 0030 A565     		str	r5, [r4, #88]	@ float
 101:eurorack/plaits/dsp/drums/synthetic_bass_drum.h ****     fm_lp_ = 0.0f;
 496              		.loc 2 101 5 is_stmt 1 view .LVU149
 101:eurorack/plaits/dsp/drums/synthetic_bass_drum.h ****     fm_lp_ = 0.0f;
 497              		.loc 2 101 9 is_stmt 0 view .LVU150
 498 0032 6566     		str	r5, [r4, #100]	@ float
 102:eurorack/plaits/dsp/drums/synthetic_bass_drum.h ****     body_env_lp_ = 0.0f;
 499              		.loc 2 102 5 is_stmt 1 view .LVU151
 102:eurorack/plaits/dsp/drums/synthetic_bass_drum.h ****     body_env_lp_ = 0.0f;
 500              		.loc 2 102 12 is_stmt 0 view .LVU152
 501 0034 A566     		str	r5, [r4, #104]	@ float
 103:eurorack/plaits/dsp/drums/synthetic_bass_drum.h ****     body_env_ = 0.0f;
 502              		.loc 2 103 5 is_stmt 1 view .LVU153
 103:eurorack/plaits/dsp/drums/synthetic_bass_drum.h ****     body_env_ = 0.0f;
ARM GAS  /var/folders/9s/8rp0_f2s1n31qbztm3b5_fdh0000gn/T//ccqxwUOT.s 			page 22


 503              		.loc 2 103 18 is_stmt 0 view .LVU154
 504 0036 2567     		str	r5, [r4, #112]	@ float
 104:eurorack/plaits/dsp/drums/synthetic_bass_drum.h ****     body_env_pulse_width_ = 0;
 505              		.loc 2 104 5 is_stmt 1 view .LVU155
 104:eurorack/plaits/dsp/drums/synthetic_bass_drum.h ****     body_env_pulse_width_ = 0;
 506              		.loc 2 104 15 is_stmt 0 view .LVU156
 507 0038 E566     		str	r5, [r4, #108]	@ float
 105:eurorack/plaits/dsp/drums/synthetic_bass_drum.h ****     fm_pulse_width_ = 0;
 508              		.loc 2 105 5 is_stmt 1 view .LVU157
 107:eurorack/plaits/dsp/drums/synthetic_bass_drum.h ****     sustain_gain_ = 0.0f;
 509              		.loc 2 107 14 is_stmt 0 view .LVU158
 510 003a C4F88050 		str	r5, [r4, #128]	@ float
 108:eurorack/plaits/dsp/drums/synthetic_bass_drum.h ****     
 511              		.loc 2 108 19 view .LVU159
 512 003e E567     		str	r5, [r4, #124]	@ float
 513              	.LBB156:
 514              	.LBB151:
  48:eurorack/plaits/dsp/drums/synthetic_bass_drum.h ****     hp_ = 0.0f;
 515              		.loc 2 48 9 view .LVU160
 516 0040 C4F88450 		str	r5, [r4, #132]	@ float
  49:eurorack/plaits/dsp/drums/synthetic_bass_drum.h ****     filter_.Init();
 517              		.loc 2 49 9 view .LVU161
 518 0044 C4F88850 		str	r5, [r4, #136]	@ float
 519              	.LBE151:
 520              	.LBE156:
 106:eurorack/plaits/dsp/drums/synthetic_bass_drum.h ****     tone_lp_ = 0.0f;
 521              		.loc 2 106 21 view .LVU162
 522 0048 C4E92A66 		strd	r6, r6, [r4, #168]
 107:eurorack/plaits/dsp/drums/synthetic_bass_drum.h ****     sustain_gain_ = 0.0f;
 523              		.loc 2 107 5 is_stmt 1 view .LVU163
 108:eurorack/plaits/dsp/drums/synthetic_bass_drum.h ****     
 524              		.loc 2 108 5 view .LVU164
 110:eurorack/plaits/dsp/drums/synthetic_bass_drum.h ****     noise_.Init();
 525              		.loc 2 110 5 view .LVU165
 526              	.LVL39:
 527              	.LBB157:
 528              	.LBI141:
  47:eurorack/plaits/dsp/drums/synthetic_bass_drum.h ****     lp_ = 0.0f;
 529              		.loc 2 47 8 view .LVU166
 530              	.LBB152:
  48:eurorack/plaits/dsp/drums/synthetic_bass_drum.h ****     hp_ = 0.0f;
 531              		.loc 2 48 5 view .LVU167
  49:eurorack/plaits/dsp/drums/synthetic_bass_drum.h ****     filter_.Init();
 532              		.loc 2 49 5 view .LVU168
  50:eurorack/plaits/dsp/drums/synthetic_bass_drum.h ****     filter_.set_f_q<stmlib::FREQUENCY_FAST>(5000.0f / kSampleRate, 2.0f);
 533              		.loc 2 50 5 view .LVU169
  50:eurorack/plaits/dsp/drums/synthetic_bass_drum.h ****     filter_.set_f_q<stmlib::FREQUENCY_FAST>(5000.0f / kSampleRate, 2.0f);
 534              		.loc 2 50 17 is_stmt 0 view .LVU170
 535 004c FFF7FEFF 		bl	_ZN6stmlib3Svf4InitEv
 536              	.LVL40:
  51:eurorack/plaits/dsp/drums/synthetic_bass_drum.h ****   }
 537              		.loc 2 51 5 is_stmt 1 view .LVU171
 538              	.LBB143:
 539              	.LBI143:
 223:eurorack/stmlib/dsp/filter.h ****     g_ = OnePole::tan<approximation>(f);
 540              		.loc 4 223 15 view .LVU172
 541              	.LBB144:
ARM GAS  /var/folders/9s/8rp0_f2s1n31qbztm3b5_fdh0000gn/T//ccqxwUOT.s 			page 23


 224:eurorack/stmlib/dsp/filter.h ****     r_ = 1.0f / resonance;
 542              		.loc 4 224 8 is_stmt 0 view .LVU173
 543 0050 094B     		ldr	r3, .L16
 544              	.LBE144:
 545              	.LBE143:
 546              	.LBE152:
 547              	.LBE157:
 548              	.LBB158:
 549              	.LBB159:
  74:eurorack/plaits/dsp/drums/synthetic_bass_drum.h ****     hp_ = 0.0f;
 550              		.loc 2 74 9 view .LVU174
 551 0052 C4F8A050 		str	r5, [r4, #160]	@ float
 552              	.LBE159:
 553              	.LBE158:
 554              	.LBB162:
 555              	.LBB153:
 556              	.LBB148:
 557              	.LBB145:
 224:eurorack/stmlib/dsp/filter.h ****     r_ = 1.0f / resonance;
 558              		.loc 4 224 8 view .LVU175
 559 0056 C4F88C30 		str	r3, [r4, #140]	@ float
 225:eurorack/stmlib/dsp/filter.h ****     h_ = 1.0f / (1.0f + r_ * g_ + g_ * g_);
 560              		.loc 4 225 8 view .LVU176
 561 005a 4FF07C53 		mov	r3, #1056964608
 562              	.LBE145:
 563              	.LBE148:
 564              	.LBE153:
 565              	.LBE162:
 566              	.LBB163:
 567              	.LBB160:
  75:eurorack/plaits/dsp/drums/synthetic_bass_drum.h ****   }
 568              		.loc 2 75 9 view .LVU177
 569 005e C4F8A450 		str	r5, [r4, #164]	@ float
 570              	.LBE160:
 571              	.LBE163:
 572              	.LBB164:
 573              	.LBB154:
 574              	.LBB149:
 575              	.LBB146:
 225:eurorack/stmlib/dsp/filter.h ****     h_ = 1.0f / (1.0f + r_ * g_ + g_ * g_);
 576              		.loc 4 225 8 view .LVU178
 577 0062 C4F89030 		str	r3, [r4, #144]	@ float
 578              		.loc 4 226 8 view .LVU179
 579 0066 054B     		ldr	r3, .L16+4
 580              	.LBE146:
 581              	.LBE149:
 582              	.LBE154:
 583              	.LBE164:
 584              	.LBE167:
 585              	.LBE170:
 586              	.LBB171:
 587              	.LBB172:
 588              		.file 7 "eurorack/plaits/dsp/fx/overdrive.h"
   1:eurorack/plaits/dsp/fx/overdrive.h **** // Copyright 2014 Emilie Gillet.
   2:eurorack/plaits/dsp/fx/overdrive.h **** //
   3:eurorack/plaits/dsp/fx/overdrive.h **** // Author: Emilie Gillet (emilie.o.gillet@gmail.com)
   4:eurorack/plaits/dsp/fx/overdrive.h **** //
ARM GAS  /var/folders/9s/8rp0_f2s1n31qbztm3b5_fdh0000gn/T//ccqxwUOT.s 			page 24


   5:eurorack/plaits/dsp/fx/overdrive.h **** // Permission is hereby granted, free of charge, to any person obtaining a copy
   6:eurorack/plaits/dsp/fx/overdrive.h **** // of this software and associated documentation files (the "Software"), to deal
   7:eurorack/plaits/dsp/fx/overdrive.h **** // in the Software without restriction, including without limitation the rights
   8:eurorack/plaits/dsp/fx/overdrive.h **** // to use, copy, modify, merge, publish, distribute, sublicense, and/or sell
   9:eurorack/plaits/dsp/fx/overdrive.h **** // copies of the Software, and to permit persons to whom the Software is
  10:eurorack/plaits/dsp/fx/overdrive.h **** // furnished to do so, subject to the following conditions:
  11:eurorack/plaits/dsp/fx/overdrive.h **** // 
  12:eurorack/plaits/dsp/fx/overdrive.h **** // The above copyright notice and this permission notice shall be included in
  13:eurorack/plaits/dsp/fx/overdrive.h **** // all copies or substantial portions of the Software.
  14:eurorack/plaits/dsp/fx/overdrive.h **** // 
  15:eurorack/plaits/dsp/fx/overdrive.h **** // THE SOFTWARE IS PROVIDED "AS IS", WITHOUT WARRANTY OF ANY KIND, EXPRESS OR
  16:eurorack/plaits/dsp/fx/overdrive.h **** // IMPLIED, INCLUDING BUT NOT LIMITED TO THE WARRANTIES OF MERCHANTABILITY,
  17:eurorack/plaits/dsp/fx/overdrive.h **** // FITNESS FOR A PARTICULAR PURPOSE AND NONINFRINGEMENT. IN NO EVENT SHALL THE
  18:eurorack/plaits/dsp/fx/overdrive.h **** // AUTHORS OR COPYRIGHT HOLDERS BE LIABLE FOR ANY CLAIM, DAMAGES OR OTHER
  19:eurorack/plaits/dsp/fx/overdrive.h **** // LIABILITY, WHETHER IN AN ACTION OF CONTRACT, TORT OR OTHERWISE, ARISING FROM,
  20:eurorack/plaits/dsp/fx/overdrive.h **** // OUT OF OR IN CONNECTION WITH THE SOFTWARE OR THE USE OR OTHER DEALINGS IN
  21:eurorack/plaits/dsp/fx/overdrive.h **** // THE SOFTWARE.
  22:eurorack/plaits/dsp/fx/overdrive.h **** // 
  23:eurorack/plaits/dsp/fx/overdrive.h **** // See http://creativecommons.org/licenses/MIT/ for more information.
  24:eurorack/plaits/dsp/fx/overdrive.h **** //
  25:eurorack/plaits/dsp/fx/overdrive.h **** // -----------------------------------------------------------------------------
  26:eurorack/plaits/dsp/fx/overdrive.h **** //
  27:eurorack/plaits/dsp/fx/overdrive.h **** // Distortion/overdrive.
  28:eurorack/plaits/dsp/fx/overdrive.h **** 
  29:eurorack/plaits/dsp/fx/overdrive.h **** #ifndef PLAITS_DSP_FX_OVERDRIVE_H_
  30:eurorack/plaits/dsp/fx/overdrive.h **** #define PLAITS_DSP_FX_OVERDRIVE_H_
  31:eurorack/plaits/dsp/fx/overdrive.h **** 
  32:eurorack/plaits/dsp/fx/overdrive.h **** #include <algorithm>
  33:eurorack/plaits/dsp/fx/overdrive.h **** 
  34:eurorack/plaits/dsp/fx/overdrive.h **** #include "stmlib/dsp/dsp.h"
  35:eurorack/plaits/dsp/fx/overdrive.h **** #include "stmlib/dsp/parameter_interpolator.h"
  36:eurorack/plaits/dsp/fx/overdrive.h **** 
  37:eurorack/plaits/dsp/fx/overdrive.h **** namespace plaits {
  38:eurorack/plaits/dsp/fx/overdrive.h ****   
  39:eurorack/plaits/dsp/fx/overdrive.h **** class Overdrive {
  40:eurorack/plaits/dsp/fx/overdrive.h ****  public:
  41:eurorack/plaits/dsp/fx/overdrive.h ****   Overdrive() { }
  42:eurorack/plaits/dsp/fx/overdrive.h ****   ~Overdrive() { }
  43:eurorack/plaits/dsp/fx/overdrive.h ****   
  44:eurorack/plaits/dsp/fx/overdrive.h ****   void Init() {
  45:eurorack/plaits/dsp/fx/overdrive.h ****     pre_gain_ = 0.0f;
 589              		.loc 7 45 15 view .LVU180
 590 0068 C4F8B050 		str	r5, [r4, #176]	@ float
 591              	.LBE172:
 592              	.LBE171:
 593              	.LBB174:
 594              	.LBB168:
 595              	.LBB165:
 596              	.LBB155:
 597              	.LBB150:
 598              	.LBB147:
 599              		.loc 4 226 8 view .LVU181
 600 006c C4F89430 		str	r3, [r4, #148]	@ float
 601              	.LVL41:
 602              		.loc 4 226 8 view .LVU182
 603              	.LBE147:
 604              	.LBE150:
ARM GAS  /var/folders/9s/8rp0_f2s1n31qbztm3b5_fdh0000gn/T//ccqxwUOT.s 			page 25


 605              	.LBE155:
 606              	.LBE165:
 111:eurorack/plaits/dsp/drums/synthetic_bass_drum.h ****   }
 607              		.loc 2 111 5 is_stmt 1 view .LVU183
 608              	.LBB166:
 609              	.LBI158:
  73:eurorack/plaits/dsp/drums/synthetic_bass_drum.h ****     lp_ = 0.0f;
 610              		.loc 2 73 8 view .LVU184
 611              	.LBB161:
  74:eurorack/plaits/dsp/drums/synthetic_bass_drum.h ****     hp_ = 0.0f;
 612              		.loc 2 74 5 view .LVU185
  75:eurorack/plaits/dsp/drums/synthetic_bass_drum.h ****   }
 613              		.loc 2 75 5 view .LVU186
  75:eurorack/plaits/dsp/drums/synthetic_bass_drum.h ****   }
 614              		.loc 2 75 5 is_stmt 0 view .LVU187
 615              	.LBE161:
 616              	.LBE166:
 617              	.LBE168:
 618              	.LBE174:
  41:eurorack/plaits/dsp/engine/bass_drum_engine.cc **** }
 619              		.loc 1 41 3 is_stmt 1 view .LVU188
 620              	.LBB175:
 621              	.LBI171:
  44:eurorack/plaits/dsp/fx/overdrive.h ****     pre_gain_ = 0.0f;
 622              		.loc 7 44 8 view .LVU189
 623              	.LBB173:
 624              		.loc 7 45 5 view .LVU190
  46:eurorack/plaits/dsp/fx/overdrive.h ****     post_gain_ = 0.0f;
 625              		.loc 7 46 5 view .LVU191
 626              		.loc 7 46 16 is_stmt 0 view .LVU192
 627 0070 C4F8B450 		str	r5, [r4, #180]	@ float
 628              	.LVL42:
 629              		.loc 7 46 16 view .LVU193
 630              	.LBE173:
 631              	.LBE175:
  42:eurorack/plaits/dsp/engine/bass_drum_engine.cc **** 
 632              		.loc 1 42 1 view .LVU194
 633 0074 70BD     		pop	{r4, r5, r6, pc}
 634              	.LVL43:
 635              	.L17:
  42:eurorack/plaits/dsp/engine/bass_drum_engine.cc **** 
 636              		.loc 1 42 1 view .LVU195
 637 0076 00BF     		.align	2
 638              	.L16:
 639 0078 61C0AD3E 		.word	1051574369
 640 007c 013F473F 		.word	1061633793
 641              		.cfi_endproc
 642              	.LFE1615:
 644              		.section	.text._ZN6stmlib16SemitonesToRatioEf,"axG",%progbits,_ZN6stmlib16SemitonesToRatioEf,comda
 645              		.align	1
 646              		.weak	_ZN6stmlib16SemitonesToRatioEf
 647              		.syntax unified
 648              		.thumb
 649              		.thumb_func
 651              	_ZN6stmlib16SemitonesToRatioEf:
 652              	.LVL44:
 653              	.LFB1491:
ARM GAS  /var/folders/9s/8rp0_f2s1n31qbztm3b5_fdh0000gn/T//ccqxwUOT.s 			page 26


 654              		.file 8 "eurorack/stmlib/dsp/units.h"
   1:eurorack/stmlib/dsp/units.h **** // Copyright 2014 Emilie Gillet.
   2:eurorack/stmlib/dsp/units.h **** //
   3:eurorack/stmlib/dsp/units.h **** // Author: Emilie Gillet (emilie.o.gillet@gmail.com)
   4:eurorack/stmlib/dsp/units.h **** //
   5:eurorack/stmlib/dsp/units.h **** // Permission is hereby granted, free of charge, to any person obtaining a copy
   6:eurorack/stmlib/dsp/units.h **** // of this software and associated documentation files (the "Software"), to deal
   7:eurorack/stmlib/dsp/units.h **** // in the Software without restriction, including without limitation the rights
   8:eurorack/stmlib/dsp/units.h **** // to use, copy, modify, merge, publish, distribute, sublicense, and/or sell
   9:eurorack/stmlib/dsp/units.h **** // copies of the Software, and to permit persons to whom the Software is
  10:eurorack/stmlib/dsp/units.h **** // furnished to do so, subject to the following conditions:
  11:eurorack/stmlib/dsp/units.h **** // 
  12:eurorack/stmlib/dsp/units.h **** // The above copyright notice and this permission notice shall be included in
  13:eurorack/stmlib/dsp/units.h **** // all copies or substantial portions of the Software.
  14:eurorack/stmlib/dsp/units.h **** // 
  15:eurorack/stmlib/dsp/units.h **** // THE SOFTWARE IS PROVIDED "AS IS", WITHOUT WARRANTY OF ANY KIND, EXPRESS OR
  16:eurorack/stmlib/dsp/units.h **** // IMPLIED, INCLUDING BUT NOT LIMITED TO THE WARRANTIES OF MERCHANTABILITY,
  17:eurorack/stmlib/dsp/units.h **** // FITNESS FOR A PARTICULAR PURPOSE AND NONINFRINGEMENT. IN NO EVENT SHALL THE
  18:eurorack/stmlib/dsp/units.h **** // AUTHORS OR COPYRIGHT HOLDERS BE LIABLE FOR ANY CLAIM, DAMAGES OR OTHER
  19:eurorack/stmlib/dsp/units.h **** // LIABILITY, WHETHER IN AN ACTION OF CONTRACT, TORT OR OTHERWISE, ARISING FROM,
  20:eurorack/stmlib/dsp/units.h **** // OUT OF OR IN CONNECTION WITH THE SOFTWARE OR THE USE OR OTHER DEALINGS IN
  21:eurorack/stmlib/dsp/units.h **** // THE SOFTWARE.
  22:eurorack/stmlib/dsp/units.h **** // 
  23:eurorack/stmlib/dsp/units.h **** // See http://creativecommons.org/licenses/MIT/ for more information.
  24:eurorack/stmlib/dsp/units.h **** //
  25:eurorack/stmlib/dsp/units.h **** // -----------------------------------------------------------------------------
  26:eurorack/stmlib/dsp/units.h **** //
  27:eurorack/stmlib/dsp/units.h **** // Conversion from semitones to frequency ratio.
  28:eurorack/stmlib/dsp/units.h **** 
  29:eurorack/stmlib/dsp/units.h **** #ifndef STMLIB_DSP_UNITS_H_
  30:eurorack/stmlib/dsp/units.h **** #define STMLIB_DSP_UNITS_H_
  31:eurorack/stmlib/dsp/units.h **** 
  32:eurorack/stmlib/dsp/units.h **** #include "stmlib/stmlib.h"
  33:eurorack/stmlib/dsp/units.h **** #include "stmlib/dsp/dsp.h"
  34:eurorack/stmlib/dsp/units.h **** 
  35:eurorack/stmlib/dsp/units.h **** namespace stmlib {
  36:eurorack/stmlib/dsp/units.h **** 
  37:eurorack/stmlib/dsp/units.h **** extern const float lut_pitch_ratio_high[257];
  38:eurorack/stmlib/dsp/units.h **** extern const float lut_pitch_ratio_low[257];
  39:eurorack/stmlib/dsp/units.h **** 
  40:eurorack/stmlib/dsp/units.h **** inline float SemitonesToRatio(float semitones) {
 655              		.loc 8 40 48 is_stmt 1 view -0
 656              		.cfi_startproc
 657              		@ args = 0, pretend = 0, frame = 0
 658              		@ frame_needed = 0, uses_anonymous_args = 0
 659              		@ link register save eliminated.
  41:eurorack/stmlib/dsp/units.h ****   float pitch = semitones + 128.0f;
 660              		.loc 8 41 3 view .LVU197
 661              		.loc 8 41 9 is_stmt 0 view .LVU198
 662 0000 DFED0E7A 		vldr.32	s15, .L19
  42:eurorack/stmlib/dsp/units.h ****   MAKE_INTEGRAL_FRACTIONAL(pitch)
  43:eurorack/stmlib/dsp/units.h **** 
  44:eurorack/stmlib/dsp/units.h ****   return lut_pitch_ratio_high[pitch_integral] * \
  45:eurorack/stmlib/dsp/units.h ****       lut_pitch_ratio_low[static_cast<int32_t>(pitch_fractional * 256.0f)];
 663              		.loc 8 45 74 view .LVU199
 664 0004 0E4A     		ldr	r2, .L19+4
  41:eurorack/stmlib/dsp/units.h ****   float pitch = semitones + 128.0f;
ARM GAS  /var/folders/9s/8rp0_f2s1n31qbztm3b5_fdh0000gn/T//ccqxwUOT.s 			page 27


 665              		.loc 8 41 9 view .LVU200
 666 0006 30EE270A 		vadd.f32	s0, s0, s15
 667              	.LVL45:
  42:eurorack/stmlib/dsp/units.h ****   MAKE_INTEGRAL_FRACTIONAL(pitch)
 668              		.loc 8 42 3 is_stmt 1 view .LVU201
 669 000a FDEEC07A 		vcvt.s32.f32	s15, s0
 670              	.LVL46:
  42:eurorack/stmlib/dsp/units.h ****   MAKE_INTEGRAL_FRACTIONAL(pitch)
 671              		.loc 8 42 3 view .LVU202
  44:eurorack/stmlib/dsp/units.h ****       lut_pitch_ratio_low[static_cast<int32_t>(pitch_fractional * 256.0f)];
 672              		.loc 8 44 3 view .LVU203
  42:eurorack/stmlib/dsp/units.h ****   MAKE_INTEGRAL_FRACTIONAL(pitch)
 673              		.loc 8 42 3 is_stmt 0 view .LVU204
 674 000e B8EEE77A 		vcvt.f32.s32	s14, s15
  44:eurorack/stmlib/dsp/units.h ****       lut_pitch_ratio_low[static_cast<int32_t>(pitch_fractional * 256.0f)];
 675              		.loc 8 44 45 view .LVU205
 676 0012 17EE901A 		vmov	r1, s15	@ int
  42:eurorack/stmlib/dsp/units.h ****   MAKE_INTEGRAL_FRACTIONAL(pitch)
 677              		.loc 8 42 3 view .LVU206
 678 0016 30EE470A 		vsub.f32	s0, s0, s14
 679              	.LVL47:
 680              		.loc 8 45 27 view .LVU207
 681 001a BEEECC0A 		vcvt.s32.f32	s0, s0, #8
 682              	.LVL48:
 683              		.loc 8 45 74 view .LVU208
 684 001e 10EE103A 		vmov	r3, s0	@ int
 685 0022 02EB8302 		add	r2, r2, r3, lsl #2
  44:eurorack/stmlib/dsp/units.h ****       lut_pitch_ratio_low[static_cast<int32_t>(pitch_fractional * 256.0f)];
 686              		.loc 8 44 45 view .LVU209
 687 0026 074B     		ldr	r3, .L19+8
 688 0028 03EB8103 		add	r3, r3, r1, lsl #2
 689              		.loc 8 45 74 view .LVU210
 690 002c 92ED000A 		vldr.32	s0, [r2]
 691 0030 D3ED007A 		vldr.32	s15, [r3]
 692              	.LVL49:
  46:eurorack/stmlib/dsp/units.h **** }
 693              		.loc 8 46 1 view .LVU211
 694 0034 20EE270A 		vmul.f32	s0, s0, s15
 695 0038 7047     		bx	lr
 696              	.L20:
 697 003a 00BF     		.align	2
 698              	.L19:
 699 003c 00000043 		.word	1124073472
 700 0040 00000000 		.word	_ZN6stmlib19lut_pitch_ratio_lowE
 701 0044 00000000 		.word	_ZN6stmlib20lut_pitch_ratio_highE
 702              		.cfi_endproc
 703              	.LFE1491:
 705              		.section	.text._ZN6plaits14AnalogBassDrum6RenderEbbffffffPfj,"axG",%progbits,_ZN6plaits14AnalogBas
 706              		.align	1
 707              		.weak	_ZN6plaits14AnalogBassDrum6RenderEbbffffffPfj
 708              		.syntax unified
 709              		.thumb
 710              		.thumb_func
 712              	_ZN6plaits14AnalogBassDrum6RenderEbbffffffPfj:
 713              	.LVL50:
 714              	.LFB1528:
  63:eurorack/plaits/dsp/drums/analog_bass_drum.h ****   }
ARM GAS  /var/folders/9s/8rp0_f2s1n31qbztm3b5_fdh0000gn/T//ccqxwUOT.s 			page 28


  64:eurorack/plaits/dsp/drums/analog_bass_drum.h ****   
  65:eurorack/plaits/dsp/drums/analog_bass_drum.h ****   inline float Diode(float x) {
  66:eurorack/plaits/dsp/drums/analog_bass_drum.h ****     if (x >= 0.0f) {
  67:eurorack/plaits/dsp/drums/analog_bass_drum.h ****       return x;
  68:eurorack/plaits/dsp/drums/analog_bass_drum.h ****     } else {
  69:eurorack/plaits/dsp/drums/analog_bass_drum.h ****       x *= 2.0f;
  70:eurorack/plaits/dsp/drums/analog_bass_drum.h ****       return 0.7f * x / (1.0f + fabsf(x));
  71:eurorack/plaits/dsp/drums/analog_bass_drum.h ****     }
  72:eurorack/plaits/dsp/drums/analog_bass_drum.h ****   }
  73:eurorack/plaits/dsp/drums/analog_bass_drum.h ****   
  74:eurorack/plaits/dsp/drums/analog_bass_drum.h ****   void Render(
 715              		.loc 5 74 8 is_stmt 1 view -0
 716              		.cfi_startproc
 717              		@ args = 4, pretend = 0, frame = 0
 718              		@ frame_needed = 0, uses_anonymous_args = 0
  75:eurorack/plaits/dsp/drums/analog_bass_drum.h ****       bool sustain,
  76:eurorack/plaits/dsp/drums/analog_bass_drum.h ****       bool trigger,
  77:eurorack/plaits/dsp/drums/analog_bass_drum.h ****       float accent,
  78:eurorack/plaits/dsp/drums/analog_bass_drum.h ****       float f0,
  79:eurorack/plaits/dsp/drums/analog_bass_drum.h ****       float tone,
  80:eurorack/plaits/dsp/drums/analog_bass_drum.h ****       float decay,
  81:eurorack/plaits/dsp/drums/analog_bass_drum.h ****       float attack_fm_amount,
  82:eurorack/plaits/dsp/drums/analog_bass_drum.h ****       float self_fm_amount,
  83:eurorack/plaits/dsp/drums/analog_bass_drum.h ****       float* out,
  84:eurorack/plaits/dsp/drums/analog_bass_drum.h ****       size_t size) {
  85:eurorack/plaits/dsp/drums/analog_bass_drum.h ****     const int kTriggerPulseDuration = 1.0e-3 * kSampleRate;
 719              		.loc 5 85 5 view .LVU213
  86:eurorack/plaits/dsp/drums/analog_bass_drum.h ****     const int kFMPulseDuration = 6.0e-3 * kSampleRate;
 720              		.loc 5 86 5 view .LVU214
  87:eurorack/plaits/dsp/drums/analog_bass_drum.h ****     const float kPulseDecayTime = 0.2e-3 * kSampleRate;
 721              		.loc 5 87 5 view .LVU215
  88:eurorack/plaits/dsp/drums/analog_bass_drum.h ****     const float kPulseFilterTime = 0.1e-3 * kSampleRate;
 722              		.loc 5 88 5 view .LVU216
  89:eurorack/plaits/dsp/drums/analog_bass_drum.h ****     const float kRetrigPulseDuration = 0.05f * kSampleRate;
 723              		.loc 5 89 5 view .LVU217
  90:eurorack/plaits/dsp/drums/analog_bass_drum.h ****     
  91:eurorack/plaits/dsp/drums/analog_bass_drum.h ****     const float scale = 0.001f / f0;
 724              		.loc 5 91 5 view .LVU218
  74:eurorack/plaits/dsp/drums/analog_bass_drum.h ****       bool sustain,
 725              		.loc 5 74 8 is_stmt 0 view .LVU219
 726 0000 2DE9F041 		push	{r4, r5, r6, r7, r8, lr}
 727              		.cfi_def_cfa_offset 24
 728              		.cfi_offset 4, -24
 729              		.cfi_offset 5, -20
 730              		.cfi_offset 6, -16
 731              		.cfi_offset 7, -12
 732              		.cfi_offset 8, -8
 733              		.cfi_offset 14, -4
 734 0004 2DED0E8B 		vpush.64	{d8, d9, d10, d11, d12, d13, d14}
 735              		.cfi_def_cfa_offset 80
 736              		.cfi_offset 80, -80
 737              		.cfi_offset 81, -76
 738              		.cfi_offset 82, -72
 739              		.cfi_offset 83, -68
 740              		.cfi_offset 84, -64
 741              		.cfi_offset 85, -60
 742              		.cfi_offset 86, -56
ARM GAS  /var/folders/9s/8rp0_f2s1n31qbztm3b5_fdh0000gn/T//ccqxwUOT.s 			page 29


 743              		.cfi_offset 87, -52
 744              		.cfi_offset 88, -48
 745              		.cfi_offset 89, -44
 746              		.cfi_offset 90, -40
 747              		.cfi_offset 91, -36
 748              		.cfi_offset 92, -32
 749              		.cfi_offset 93, -28
  74:eurorack/plaits/dsp/drums/analog_bass_drum.h ****       bool sustain,
 750              		.loc 5 74 8 view .LVU220
 751 0008 B0EE40AA 		vmov.f32	s20, s0
  92:eurorack/plaits/dsp/drums/analog_bass_drum.h ****     const float q = 1500.0f * stmlib::SemitonesToRatio(decay * 80.0f);
 752              		.loc 5 92 55 view .LVU221
 753 000c 9FEDBF0A 		vldr.32	s0, .L58
 754              	.LVL51:
  91:eurorack/plaits/dsp/drums/analog_bass_drum.h ****     const float q = 1500.0f * stmlib::SemitonesToRatio(decay * 80.0f);
 755              		.loc 5 91 17 view .LVU222
 756 0010 DFEDBF7A 		vldr.32	s15, .L58+4
  74:eurorack/plaits/dsp/drums/analog_bass_drum.h ****       bool sustain,
 757              		.loc 5 74 8 view .LVU223
 758 0014 F0EE41CA 		vmov.f32	s25, s2
 759              		.loc 5 92 55 view .LVU224
 760 0018 21EE800A 		vmul.f32	s0, s3, s0
  74:eurorack/plaits/dsp/drums/analog_bass_drum.h ****       bool sustain,
 761              		.loc 5 74 8 view .LVU225
 762 001c 0446     		mov	r4, r0
  91:eurorack/plaits/dsp/drums/analog_bass_drum.h ****     const float q = 1500.0f * stmlib::SemitonesToRatio(decay * 80.0f);
 763              		.loc 5 91 17 view .LVU226
 764 001e C7EEA09A 		vdiv.f32	s19, s15, s1
 765              	.LVL52:
 766              		.loc 5 92 5 is_stmt 1 view .LVU227
  74:eurorack/plaits/dsp/drums/analog_bass_drum.h ****       bool sustain,
 767              		.loc 5 74 8 is_stmt 0 view .LVU228
 768 0022 0D46     		mov	r5, r1
 769 0024 9046     		mov	r8, r2
 770 0026 1E46     		mov	r6, r3
  93:eurorack/plaits/dsp/drums/analog_bass_drum.h ****     const float tone_f = std::min(
  94:eurorack/plaits/dsp/drums/analog_bass_drum.h ****         4.0f * f0 * stmlib::SemitonesToRatio(tone * 108.0f),
  95:eurorack/plaits/dsp/drums/analog_bass_drum.h ****         1.0f);
  96:eurorack/plaits/dsp/drums/analog_bass_drum.h ****     const float exciter_leak = 0.08f * (tone + 0.25f);
 771              		.loc 5 96 17 view .LVU229
 772 0028 DFEDBADA 		vldr.32	s27, .L58+8
  74:eurorack/plaits/dsp/drums/analog_bass_drum.h ****       bool sustain,
 773              		.loc 5 74 8 view .LVU230
 774 002c 149F     		ldr	r7, [sp, #80]
 775 002e B0EE60CA 		vmov.f32	s24, s1
 776 0032 F0EE61AA 		vmov.f32	s21, s3
 777 0036 F0EE428A 		vmov.f32	s17, s4
 778 003a B0EE629A 		vmov.f32	s18, s5
  92:eurorack/plaits/dsp/drums/analog_bass_drum.h ****     const float tone_f = std::min(
 779              		.loc 5 92 55 view .LVU231
 780 003e FFF7FEFF 		bl	_ZN6stmlib16SemitonesToRatioEf
 781              	.LVL53:
  92:eurorack/plaits/dsp/drums/analog_bass_drum.h ****     const float tone_f = std::min(
 782              		.loc 5 92 69 view .LVU232
 783 0042 DFEDB57A 		vldr.32	s15, .L58+12
 784              	.LBB205:
 785              	.LBB206:
ARM GAS  /var/folders/9s/8rp0_f2s1n31qbztm3b5_fdh0000gn/T//ccqxwUOT.s 			page 30


 786              		.file 9 "/Library/DaisyToolchain/0.2.0/arm/arm-none-eabi/include/c++/10.3.1/bits/stl_algobase.h"
   1:/Library/DaisyToolchain/0.2.0/arm/arm-none-eabi/include/c++/10.3.1/bits/stl_algobase.h **** // Core algorithmic facilities -*- C++ -*-
   2:/Library/DaisyToolchain/0.2.0/arm/arm-none-eabi/include/c++/10.3.1/bits/stl_algobase.h **** 
   3:/Library/DaisyToolchain/0.2.0/arm/arm-none-eabi/include/c++/10.3.1/bits/stl_algobase.h **** // Copyright (C) 2001-2020 Free Software Foundation, Inc.
   4:/Library/DaisyToolchain/0.2.0/arm/arm-none-eabi/include/c++/10.3.1/bits/stl_algobase.h **** //
   5:/Library/DaisyToolchain/0.2.0/arm/arm-none-eabi/include/c++/10.3.1/bits/stl_algobase.h **** // This file is part of the GNU ISO C++ Library.  This library is free
   6:/Library/DaisyToolchain/0.2.0/arm/arm-none-eabi/include/c++/10.3.1/bits/stl_algobase.h **** // software; you can redistribute it and/or modify it under the
   7:/Library/DaisyToolchain/0.2.0/arm/arm-none-eabi/include/c++/10.3.1/bits/stl_algobase.h **** // terms of the GNU General Public License as published by the
   8:/Library/DaisyToolchain/0.2.0/arm/arm-none-eabi/include/c++/10.3.1/bits/stl_algobase.h **** // Free Software Foundation; either version 3, or (at your option)
   9:/Library/DaisyToolchain/0.2.0/arm/arm-none-eabi/include/c++/10.3.1/bits/stl_algobase.h **** // any later version.
  10:/Library/DaisyToolchain/0.2.0/arm/arm-none-eabi/include/c++/10.3.1/bits/stl_algobase.h **** 
  11:/Library/DaisyToolchain/0.2.0/arm/arm-none-eabi/include/c++/10.3.1/bits/stl_algobase.h **** // This library is distributed in the hope that it will be useful,
  12:/Library/DaisyToolchain/0.2.0/arm/arm-none-eabi/include/c++/10.3.1/bits/stl_algobase.h **** // but WITHOUT ANY WARRANTY; without even the implied warranty of
  13:/Library/DaisyToolchain/0.2.0/arm/arm-none-eabi/include/c++/10.3.1/bits/stl_algobase.h **** // MERCHANTABILITY or FITNESS FOR A PARTICULAR PURPOSE.  See the
  14:/Library/DaisyToolchain/0.2.0/arm/arm-none-eabi/include/c++/10.3.1/bits/stl_algobase.h **** // GNU General Public License for more details.
  15:/Library/DaisyToolchain/0.2.0/arm/arm-none-eabi/include/c++/10.3.1/bits/stl_algobase.h **** 
  16:/Library/DaisyToolchain/0.2.0/arm/arm-none-eabi/include/c++/10.3.1/bits/stl_algobase.h **** // Under Section 7 of GPL version 3, you are granted additional
  17:/Library/DaisyToolchain/0.2.0/arm/arm-none-eabi/include/c++/10.3.1/bits/stl_algobase.h **** // permissions described in the GCC Runtime Library Exception, version
  18:/Library/DaisyToolchain/0.2.0/arm/arm-none-eabi/include/c++/10.3.1/bits/stl_algobase.h **** // 3.1, as published by the Free Software Foundation.
  19:/Library/DaisyToolchain/0.2.0/arm/arm-none-eabi/include/c++/10.3.1/bits/stl_algobase.h **** 
  20:/Library/DaisyToolchain/0.2.0/arm/arm-none-eabi/include/c++/10.3.1/bits/stl_algobase.h **** // You should have received a copy of the GNU General Public License and
  21:/Library/DaisyToolchain/0.2.0/arm/arm-none-eabi/include/c++/10.3.1/bits/stl_algobase.h **** // a copy of the GCC Runtime Library Exception along with this program;
  22:/Library/DaisyToolchain/0.2.0/arm/arm-none-eabi/include/c++/10.3.1/bits/stl_algobase.h **** // see the files COPYING3 and COPYING.RUNTIME respectively.  If not, see
  23:/Library/DaisyToolchain/0.2.0/arm/arm-none-eabi/include/c++/10.3.1/bits/stl_algobase.h **** // <http://www.gnu.org/licenses/>.
  24:/Library/DaisyToolchain/0.2.0/arm/arm-none-eabi/include/c++/10.3.1/bits/stl_algobase.h **** 
  25:/Library/DaisyToolchain/0.2.0/arm/arm-none-eabi/include/c++/10.3.1/bits/stl_algobase.h **** /*
  26:/Library/DaisyToolchain/0.2.0/arm/arm-none-eabi/include/c++/10.3.1/bits/stl_algobase.h ****  *
  27:/Library/DaisyToolchain/0.2.0/arm/arm-none-eabi/include/c++/10.3.1/bits/stl_algobase.h ****  * Copyright (c) 1994
  28:/Library/DaisyToolchain/0.2.0/arm/arm-none-eabi/include/c++/10.3.1/bits/stl_algobase.h ****  * Hewlett-Packard Company
  29:/Library/DaisyToolchain/0.2.0/arm/arm-none-eabi/include/c++/10.3.1/bits/stl_algobase.h ****  *
  30:/Library/DaisyToolchain/0.2.0/arm/arm-none-eabi/include/c++/10.3.1/bits/stl_algobase.h ****  * Permission to use, copy, modify, distribute and sell this software
  31:/Library/DaisyToolchain/0.2.0/arm/arm-none-eabi/include/c++/10.3.1/bits/stl_algobase.h ****  * and its documentation for any purpose is hereby granted without fee,
  32:/Library/DaisyToolchain/0.2.0/arm/arm-none-eabi/include/c++/10.3.1/bits/stl_algobase.h ****  * provided that the above copyright notice appear in all copies and
  33:/Library/DaisyToolchain/0.2.0/arm/arm-none-eabi/include/c++/10.3.1/bits/stl_algobase.h ****  * that both that copyright notice and this permission notice appear
  34:/Library/DaisyToolchain/0.2.0/arm/arm-none-eabi/include/c++/10.3.1/bits/stl_algobase.h ****  * in supporting documentation.  Hewlett-Packard Company makes no
  35:/Library/DaisyToolchain/0.2.0/arm/arm-none-eabi/include/c++/10.3.1/bits/stl_algobase.h ****  * representations about the suitability of this software for any
  36:/Library/DaisyToolchain/0.2.0/arm/arm-none-eabi/include/c++/10.3.1/bits/stl_algobase.h ****  * purpose.  It is provided "as is" without express or implied warranty.
  37:/Library/DaisyToolchain/0.2.0/arm/arm-none-eabi/include/c++/10.3.1/bits/stl_algobase.h ****  *
  38:/Library/DaisyToolchain/0.2.0/arm/arm-none-eabi/include/c++/10.3.1/bits/stl_algobase.h ****  *
  39:/Library/DaisyToolchain/0.2.0/arm/arm-none-eabi/include/c++/10.3.1/bits/stl_algobase.h ****  * Copyright (c) 1996-1998
  40:/Library/DaisyToolchain/0.2.0/arm/arm-none-eabi/include/c++/10.3.1/bits/stl_algobase.h ****  * Silicon Graphics Computer Systems, Inc.
  41:/Library/DaisyToolchain/0.2.0/arm/arm-none-eabi/include/c++/10.3.1/bits/stl_algobase.h ****  *
  42:/Library/DaisyToolchain/0.2.0/arm/arm-none-eabi/include/c++/10.3.1/bits/stl_algobase.h ****  * Permission to use, copy, modify, distribute and sell this software
  43:/Library/DaisyToolchain/0.2.0/arm/arm-none-eabi/include/c++/10.3.1/bits/stl_algobase.h ****  * and its documentation for any purpose is hereby granted without fee,
  44:/Library/DaisyToolchain/0.2.0/arm/arm-none-eabi/include/c++/10.3.1/bits/stl_algobase.h ****  * provided that the above copyright notice appear in all copies and
  45:/Library/DaisyToolchain/0.2.0/arm/arm-none-eabi/include/c++/10.3.1/bits/stl_algobase.h ****  * that both that copyright notice and this permission notice appear
  46:/Library/DaisyToolchain/0.2.0/arm/arm-none-eabi/include/c++/10.3.1/bits/stl_algobase.h ****  * in supporting documentation.  Silicon Graphics makes no
  47:/Library/DaisyToolchain/0.2.0/arm/arm-none-eabi/include/c++/10.3.1/bits/stl_algobase.h ****  * representations about the suitability of this software for any
  48:/Library/DaisyToolchain/0.2.0/arm/arm-none-eabi/include/c++/10.3.1/bits/stl_algobase.h ****  * purpose.  It is provided "as is" without express or implied warranty.
  49:/Library/DaisyToolchain/0.2.0/arm/arm-none-eabi/include/c++/10.3.1/bits/stl_algobase.h ****  */
  50:/Library/DaisyToolchain/0.2.0/arm/arm-none-eabi/include/c++/10.3.1/bits/stl_algobase.h **** 
  51:/Library/DaisyToolchain/0.2.0/arm/arm-none-eabi/include/c++/10.3.1/bits/stl_algobase.h **** /** @file bits/stl_algobase.h
  52:/Library/DaisyToolchain/0.2.0/arm/arm-none-eabi/include/c++/10.3.1/bits/stl_algobase.h ****  *  This is an internal header file, included by other library headers.
  53:/Library/DaisyToolchain/0.2.0/arm/arm-none-eabi/include/c++/10.3.1/bits/stl_algobase.h ****  *  Do not attempt to use it directly. @headername{algorithm}
  54:/Library/DaisyToolchain/0.2.0/arm/arm-none-eabi/include/c++/10.3.1/bits/stl_algobase.h ****  */
  55:/Library/DaisyToolchain/0.2.0/arm/arm-none-eabi/include/c++/10.3.1/bits/stl_algobase.h **** 
  56:/Library/DaisyToolchain/0.2.0/arm/arm-none-eabi/include/c++/10.3.1/bits/stl_algobase.h **** #ifndef _STL_ALGOBASE_H
ARM GAS  /var/folders/9s/8rp0_f2s1n31qbztm3b5_fdh0000gn/T//ccqxwUOT.s 			page 31


  57:/Library/DaisyToolchain/0.2.0/arm/arm-none-eabi/include/c++/10.3.1/bits/stl_algobase.h **** #define _STL_ALGOBASE_H 1
  58:/Library/DaisyToolchain/0.2.0/arm/arm-none-eabi/include/c++/10.3.1/bits/stl_algobase.h **** 
  59:/Library/DaisyToolchain/0.2.0/arm/arm-none-eabi/include/c++/10.3.1/bits/stl_algobase.h **** #include <bits/c++config.h>
  60:/Library/DaisyToolchain/0.2.0/arm/arm-none-eabi/include/c++/10.3.1/bits/stl_algobase.h **** #include <bits/functexcept.h>
  61:/Library/DaisyToolchain/0.2.0/arm/arm-none-eabi/include/c++/10.3.1/bits/stl_algobase.h **** #include <bits/cpp_type_traits.h>
  62:/Library/DaisyToolchain/0.2.0/arm/arm-none-eabi/include/c++/10.3.1/bits/stl_algobase.h **** #include <ext/type_traits.h>
  63:/Library/DaisyToolchain/0.2.0/arm/arm-none-eabi/include/c++/10.3.1/bits/stl_algobase.h **** #include <ext/numeric_traits.h>
  64:/Library/DaisyToolchain/0.2.0/arm/arm-none-eabi/include/c++/10.3.1/bits/stl_algobase.h **** #include <bits/stl_pair.h>
  65:/Library/DaisyToolchain/0.2.0/arm/arm-none-eabi/include/c++/10.3.1/bits/stl_algobase.h **** #include <bits/stl_iterator_base_types.h>
  66:/Library/DaisyToolchain/0.2.0/arm/arm-none-eabi/include/c++/10.3.1/bits/stl_algobase.h **** #include <bits/stl_iterator_base_funcs.h>
  67:/Library/DaisyToolchain/0.2.0/arm/arm-none-eabi/include/c++/10.3.1/bits/stl_algobase.h **** #include <bits/stl_iterator.h>
  68:/Library/DaisyToolchain/0.2.0/arm/arm-none-eabi/include/c++/10.3.1/bits/stl_algobase.h **** #include <bits/concept_check.h>
  69:/Library/DaisyToolchain/0.2.0/arm/arm-none-eabi/include/c++/10.3.1/bits/stl_algobase.h **** #include <debug/debug.h>
  70:/Library/DaisyToolchain/0.2.0/arm/arm-none-eabi/include/c++/10.3.1/bits/stl_algobase.h **** #include <bits/move.h> // For std::swap
  71:/Library/DaisyToolchain/0.2.0/arm/arm-none-eabi/include/c++/10.3.1/bits/stl_algobase.h **** #include <bits/predefined_ops.h>
  72:/Library/DaisyToolchain/0.2.0/arm/arm-none-eabi/include/c++/10.3.1/bits/stl_algobase.h **** #if __cplusplus >= 201103L
  73:/Library/DaisyToolchain/0.2.0/arm/arm-none-eabi/include/c++/10.3.1/bits/stl_algobase.h **** # include <type_traits>
  74:/Library/DaisyToolchain/0.2.0/arm/arm-none-eabi/include/c++/10.3.1/bits/stl_algobase.h **** #endif
  75:/Library/DaisyToolchain/0.2.0/arm/arm-none-eabi/include/c++/10.3.1/bits/stl_algobase.h **** #if __cplusplus > 201703L
  76:/Library/DaisyToolchain/0.2.0/arm/arm-none-eabi/include/c++/10.3.1/bits/stl_algobase.h **** # include <compare>
  77:/Library/DaisyToolchain/0.2.0/arm/arm-none-eabi/include/c++/10.3.1/bits/stl_algobase.h **** #endif
  78:/Library/DaisyToolchain/0.2.0/arm/arm-none-eabi/include/c++/10.3.1/bits/stl_algobase.h **** 
  79:/Library/DaisyToolchain/0.2.0/arm/arm-none-eabi/include/c++/10.3.1/bits/stl_algobase.h **** namespace std _GLIBCXX_VISIBILITY(default)
  80:/Library/DaisyToolchain/0.2.0/arm/arm-none-eabi/include/c++/10.3.1/bits/stl_algobase.h **** {
  81:/Library/DaisyToolchain/0.2.0/arm/arm-none-eabi/include/c++/10.3.1/bits/stl_algobase.h **** _GLIBCXX_BEGIN_NAMESPACE_VERSION
  82:/Library/DaisyToolchain/0.2.0/arm/arm-none-eabi/include/c++/10.3.1/bits/stl_algobase.h **** 
  83:/Library/DaisyToolchain/0.2.0/arm/arm-none-eabi/include/c++/10.3.1/bits/stl_algobase.h ****   /*
  84:/Library/DaisyToolchain/0.2.0/arm/arm-none-eabi/include/c++/10.3.1/bits/stl_algobase.h ****    * A constexpr wrapper for __builtin_memcmp.
  85:/Library/DaisyToolchain/0.2.0/arm/arm-none-eabi/include/c++/10.3.1/bits/stl_algobase.h ****    * @param __num The number of elements of type _Tp (not bytes).
  86:/Library/DaisyToolchain/0.2.0/arm/arm-none-eabi/include/c++/10.3.1/bits/stl_algobase.h ****    */
  87:/Library/DaisyToolchain/0.2.0/arm/arm-none-eabi/include/c++/10.3.1/bits/stl_algobase.h ****   template<typename _Tp, typename _Up>
  88:/Library/DaisyToolchain/0.2.0/arm/arm-none-eabi/include/c++/10.3.1/bits/stl_algobase.h ****     _GLIBCXX14_CONSTEXPR
  89:/Library/DaisyToolchain/0.2.0/arm/arm-none-eabi/include/c++/10.3.1/bits/stl_algobase.h ****     inline int
  90:/Library/DaisyToolchain/0.2.0/arm/arm-none-eabi/include/c++/10.3.1/bits/stl_algobase.h ****     __memcmp(const _Tp* __first1, const _Up* __first2, size_t __num)
  91:/Library/DaisyToolchain/0.2.0/arm/arm-none-eabi/include/c++/10.3.1/bits/stl_algobase.h ****     {
  92:/Library/DaisyToolchain/0.2.0/arm/arm-none-eabi/include/c++/10.3.1/bits/stl_algobase.h **** #if __cplusplus >= 201103L
  93:/Library/DaisyToolchain/0.2.0/arm/arm-none-eabi/include/c++/10.3.1/bits/stl_algobase.h ****       static_assert(sizeof(_Tp) == sizeof(_Up), "can be compared with memcmp");
  94:/Library/DaisyToolchain/0.2.0/arm/arm-none-eabi/include/c++/10.3.1/bits/stl_algobase.h **** #endif
  95:/Library/DaisyToolchain/0.2.0/arm/arm-none-eabi/include/c++/10.3.1/bits/stl_algobase.h **** #ifdef __cpp_lib_is_constant_evaluated
  96:/Library/DaisyToolchain/0.2.0/arm/arm-none-eabi/include/c++/10.3.1/bits/stl_algobase.h ****       if (std::is_constant_evaluated())
  97:/Library/DaisyToolchain/0.2.0/arm/arm-none-eabi/include/c++/10.3.1/bits/stl_algobase.h **** 	{
  98:/Library/DaisyToolchain/0.2.0/arm/arm-none-eabi/include/c++/10.3.1/bits/stl_algobase.h **** 	  for(; __num > 0; ++__first1, ++__first2, --__num)
  99:/Library/DaisyToolchain/0.2.0/arm/arm-none-eabi/include/c++/10.3.1/bits/stl_algobase.h **** 	    if (*__first1 != *__first2)
 100:/Library/DaisyToolchain/0.2.0/arm/arm-none-eabi/include/c++/10.3.1/bits/stl_algobase.h **** 	      return *__first1 < *__first2 ? -1 : 1;
 101:/Library/DaisyToolchain/0.2.0/arm/arm-none-eabi/include/c++/10.3.1/bits/stl_algobase.h **** 	  return 0;
 102:/Library/DaisyToolchain/0.2.0/arm/arm-none-eabi/include/c++/10.3.1/bits/stl_algobase.h **** 	}
 103:/Library/DaisyToolchain/0.2.0/arm/arm-none-eabi/include/c++/10.3.1/bits/stl_algobase.h ****       else
 104:/Library/DaisyToolchain/0.2.0/arm/arm-none-eabi/include/c++/10.3.1/bits/stl_algobase.h **** #endif
 105:/Library/DaisyToolchain/0.2.0/arm/arm-none-eabi/include/c++/10.3.1/bits/stl_algobase.h **** 	return __builtin_memcmp(__first1, __first2, sizeof(_Tp) * __num);
 106:/Library/DaisyToolchain/0.2.0/arm/arm-none-eabi/include/c++/10.3.1/bits/stl_algobase.h ****     }
 107:/Library/DaisyToolchain/0.2.0/arm/arm-none-eabi/include/c++/10.3.1/bits/stl_algobase.h **** 
 108:/Library/DaisyToolchain/0.2.0/arm/arm-none-eabi/include/c++/10.3.1/bits/stl_algobase.h **** #if __cplusplus < 201103L
 109:/Library/DaisyToolchain/0.2.0/arm/arm-none-eabi/include/c++/10.3.1/bits/stl_algobase.h ****   // See http://gcc.gnu.org/ml/libstdc++/2004-08/msg00167.html: in a
 110:/Library/DaisyToolchain/0.2.0/arm/arm-none-eabi/include/c++/10.3.1/bits/stl_algobase.h ****   // nutshell, we are partially implementing the resolution of DR 187,
 111:/Library/DaisyToolchain/0.2.0/arm/arm-none-eabi/include/c++/10.3.1/bits/stl_algobase.h ****   // when it's safe, i.e., the value_types are equal.
 112:/Library/DaisyToolchain/0.2.0/arm/arm-none-eabi/include/c++/10.3.1/bits/stl_algobase.h ****   template<bool _BoolType>
 113:/Library/DaisyToolchain/0.2.0/arm/arm-none-eabi/include/c++/10.3.1/bits/stl_algobase.h ****     struct __iter_swap
ARM GAS  /var/folders/9s/8rp0_f2s1n31qbztm3b5_fdh0000gn/T//ccqxwUOT.s 			page 32


 114:/Library/DaisyToolchain/0.2.0/arm/arm-none-eabi/include/c++/10.3.1/bits/stl_algobase.h ****     {
 115:/Library/DaisyToolchain/0.2.0/arm/arm-none-eabi/include/c++/10.3.1/bits/stl_algobase.h ****       template<typename _ForwardIterator1, typename _ForwardIterator2>
 116:/Library/DaisyToolchain/0.2.0/arm/arm-none-eabi/include/c++/10.3.1/bits/stl_algobase.h **** 	static void
 117:/Library/DaisyToolchain/0.2.0/arm/arm-none-eabi/include/c++/10.3.1/bits/stl_algobase.h **** 	iter_swap(_ForwardIterator1 __a, _ForwardIterator2 __b)
 118:/Library/DaisyToolchain/0.2.0/arm/arm-none-eabi/include/c++/10.3.1/bits/stl_algobase.h **** 	{
 119:/Library/DaisyToolchain/0.2.0/arm/arm-none-eabi/include/c++/10.3.1/bits/stl_algobase.h **** 	  typedef typename iterator_traits<_ForwardIterator1>::value_type
 120:/Library/DaisyToolchain/0.2.0/arm/arm-none-eabi/include/c++/10.3.1/bits/stl_algobase.h **** 	    _ValueType1;
 121:/Library/DaisyToolchain/0.2.0/arm/arm-none-eabi/include/c++/10.3.1/bits/stl_algobase.h **** 	  _ValueType1 __tmp = *__a;
 122:/Library/DaisyToolchain/0.2.0/arm/arm-none-eabi/include/c++/10.3.1/bits/stl_algobase.h **** 	  *__a = *__b;
 123:/Library/DaisyToolchain/0.2.0/arm/arm-none-eabi/include/c++/10.3.1/bits/stl_algobase.h **** 	  *__b = __tmp;
 124:/Library/DaisyToolchain/0.2.0/arm/arm-none-eabi/include/c++/10.3.1/bits/stl_algobase.h **** 	}
 125:/Library/DaisyToolchain/0.2.0/arm/arm-none-eabi/include/c++/10.3.1/bits/stl_algobase.h ****     };
 126:/Library/DaisyToolchain/0.2.0/arm/arm-none-eabi/include/c++/10.3.1/bits/stl_algobase.h **** 
 127:/Library/DaisyToolchain/0.2.0/arm/arm-none-eabi/include/c++/10.3.1/bits/stl_algobase.h ****   template<>
 128:/Library/DaisyToolchain/0.2.0/arm/arm-none-eabi/include/c++/10.3.1/bits/stl_algobase.h ****     struct __iter_swap<true>
 129:/Library/DaisyToolchain/0.2.0/arm/arm-none-eabi/include/c++/10.3.1/bits/stl_algobase.h ****     {
 130:/Library/DaisyToolchain/0.2.0/arm/arm-none-eabi/include/c++/10.3.1/bits/stl_algobase.h ****       template<typename _ForwardIterator1, typename _ForwardIterator2>
 131:/Library/DaisyToolchain/0.2.0/arm/arm-none-eabi/include/c++/10.3.1/bits/stl_algobase.h **** 	static void
 132:/Library/DaisyToolchain/0.2.0/arm/arm-none-eabi/include/c++/10.3.1/bits/stl_algobase.h **** 	iter_swap(_ForwardIterator1 __a, _ForwardIterator2 __b)
 133:/Library/DaisyToolchain/0.2.0/arm/arm-none-eabi/include/c++/10.3.1/bits/stl_algobase.h **** 	{
 134:/Library/DaisyToolchain/0.2.0/arm/arm-none-eabi/include/c++/10.3.1/bits/stl_algobase.h **** 	  swap(*__a, *__b);
 135:/Library/DaisyToolchain/0.2.0/arm/arm-none-eabi/include/c++/10.3.1/bits/stl_algobase.h **** 	}
 136:/Library/DaisyToolchain/0.2.0/arm/arm-none-eabi/include/c++/10.3.1/bits/stl_algobase.h ****     };
 137:/Library/DaisyToolchain/0.2.0/arm/arm-none-eabi/include/c++/10.3.1/bits/stl_algobase.h **** #endif // C++03
 138:/Library/DaisyToolchain/0.2.0/arm/arm-none-eabi/include/c++/10.3.1/bits/stl_algobase.h **** 
 139:/Library/DaisyToolchain/0.2.0/arm/arm-none-eabi/include/c++/10.3.1/bits/stl_algobase.h ****   /**
 140:/Library/DaisyToolchain/0.2.0/arm/arm-none-eabi/include/c++/10.3.1/bits/stl_algobase.h ****    *  @brief Swaps the contents of two iterators.
 141:/Library/DaisyToolchain/0.2.0/arm/arm-none-eabi/include/c++/10.3.1/bits/stl_algobase.h ****    *  @ingroup mutating_algorithms
 142:/Library/DaisyToolchain/0.2.0/arm/arm-none-eabi/include/c++/10.3.1/bits/stl_algobase.h ****    *  @param  __a  An iterator.
 143:/Library/DaisyToolchain/0.2.0/arm/arm-none-eabi/include/c++/10.3.1/bits/stl_algobase.h ****    *  @param  __b  Another iterator.
 144:/Library/DaisyToolchain/0.2.0/arm/arm-none-eabi/include/c++/10.3.1/bits/stl_algobase.h ****    *  @return   Nothing.
 145:/Library/DaisyToolchain/0.2.0/arm/arm-none-eabi/include/c++/10.3.1/bits/stl_algobase.h ****    *
 146:/Library/DaisyToolchain/0.2.0/arm/arm-none-eabi/include/c++/10.3.1/bits/stl_algobase.h ****    *  This function swaps the values pointed to by two iterators, not the
 147:/Library/DaisyToolchain/0.2.0/arm/arm-none-eabi/include/c++/10.3.1/bits/stl_algobase.h ****    *  iterators themselves.
 148:/Library/DaisyToolchain/0.2.0/arm/arm-none-eabi/include/c++/10.3.1/bits/stl_algobase.h ****   */
 149:/Library/DaisyToolchain/0.2.0/arm/arm-none-eabi/include/c++/10.3.1/bits/stl_algobase.h ****   template<typename _ForwardIterator1, typename _ForwardIterator2>
 150:/Library/DaisyToolchain/0.2.0/arm/arm-none-eabi/include/c++/10.3.1/bits/stl_algobase.h ****     _GLIBCXX20_CONSTEXPR
 151:/Library/DaisyToolchain/0.2.0/arm/arm-none-eabi/include/c++/10.3.1/bits/stl_algobase.h ****     inline void
 152:/Library/DaisyToolchain/0.2.0/arm/arm-none-eabi/include/c++/10.3.1/bits/stl_algobase.h ****     iter_swap(_ForwardIterator1 __a, _ForwardIterator2 __b)
 153:/Library/DaisyToolchain/0.2.0/arm/arm-none-eabi/include/c++/10.3.1/bits/stl_algobase.h ****     {
 154:/Library/DaisyToolchain/0.2.0/arm/arm-none-eabi/include/c++/10.3.1/bits/stl_algobase.h ****       // concept requirements
 155:/Library/DaisyToolchain/0.2.0/arm/arm-none-eabi/include/c++/10.3.1/bits/stl_algobase.h ****       __glibcxx_function_requires(_Mutable_ForwardIteratorConcept<
 156:/Library/DaisyToolchain/0.2.0/arm/arm-none-eabi/include/c++/10.3.1/bits/stl_algobase.h **** 				  _ForwardIterator1>)
 157:/Library/DaisyToolchain/0.2.0/arm/arm-none-eabi/include/c++/10.3.1/bits/stl_algobase.h ****       __glibcxx_function_requires(_Mutable_ForwardIteratorConcept<
 158:/Library/DaisyToolchain/0.2.0/arm/arm-none-eabi/include/c++/10.3.1/bits/stl_algobase.h **** 				  _ForwardIterator2>)
 159:/Library/DaisyToolchain/0.2.0/arm/arm-none-eabi/include/c++/10.3.1/bits/stl_algobase.h **** 
 160:/Library/DaisyToolchain/0.2.0/arm/arm-none-eabi/include/c++/10.3.1/bits/stl_algobase.h **** #if __cplusplus < 201103L
 161:/Library/DaisyToolchain/0.2.0/arm/arm-none-eabi/include/c++/10.3.1/bits/stl_algobase.h ****       typedef typename iterator_traits<_ForwardIterator1>::value_type
 162:/Library/DaisyToolchain/0.2.0/arm/arm-none-eabi/include/c++/10.3.1/bits/stl_algobase.h **** 	_ValueType1;
 163:/Library/DaisyToolchain/0.2.0/arm/arm-none-eabi/include/c++/10.3.1/bits/stl_algobase.h ****       typedef typename iterator_traits<_ForwardIterator2>::value_type
 164:/Library/DaisyToolchain/0.2.0/arm/arm-none-eabi/include/c++/10.3.1/bits/stl_algobase.h **** 	_ValueType2;
 165:/Library/DaisyToolchain/0.2.0/arm/arm-none-eabi/include/c++/10.3.1/bits/stl_algobase.h **** 
 166:/Library/DaisyToolchain/0.2.0/arm/arm-none-eabi/include/c++/10.3.1/bits/stl_algobase.h ****       __glibcxx_function_requires(_ConvertibleConcept<_ValueType1,
 167:/Library/DaisyToolchain/0.2.0/arm/arm-none-eabi/include/c++/10.3.1/bits/stl_algobase.h **** 				  _ValueType2>)
 168:/Library/DaisyToolchain/0.2.0/arm/arm-none-eabi/include/c++/10.3.1/bits/stl_algobase.h ****       __glibcxx_function_requires(_ConvertibleConcept<_ValueType2,
 169:/Library/DaisyToolchain/0.2.0/arm/arm-none-eabi/include/c++/10.3.1/bits/stl_algobase.h **** 				  _ValueType1>)
 170:/Library/DaisyToolchain/0.2.0/arm/arm-none-eabi/include/c++/10.3.1/bits/stl_algobase.h **** 
ARM GAS  /var/folders/9s/8rp0_f2s1n31qbztm3b5_fdh0000gn/T//ccqxwUOT.s 			page 33


 171:/Library/DaisyToolchain/0.2.0/arm/arm-none-eabi/include/c++/10.3.1/bits/stl_algobase.h ****       typedef typename iterator_traits<_ForwardIterator1>::reference
 172:/Library/DaisyToolchain/0.2.0/arm/arm-none-eabi/include/c++/10.3.1/bits/stl_algobase.h **** 	_ReferenceType1;
 173:/Library/DaisyToolchain/0.2.0/arm/arm-none-eabi/include/c++/10.3.1/bits/stl_algobase.h ****       typedef typename iterator_traits<_ForwardIterator2>::reference
 174:/Library/DaisyToolchain/0.2.0/arm/arm-none-eabi/include/c++/10.3.1/bits/stl_algobase.h **** 	_ReferenceType2;
 175:/Library/DaisyToolchain/0.2.0/arm/arm-none-eabi/include/c++/10.3.1/bits/stl_algobase.h ****       std::__iter_swap<__are_same<_ValueType1, _ValueType2>::__value
 176:/Library/DaisyToolchain/0.2.0/arm/arm-none-eabi/include/c++/10.3.1/bits/stl_algobase.h **** 	&& __are_same<_ValueType1&, _ReferenceType1>::__value
 177:/Library/DaisyToolchain/0.2.0/arm/arm-none-eabi/include/c++/10.3.1/bits/stl_algobase.h **** 	&& __are_same<_ValueType2&, _ReferenceType2>::__value>::
 178:/Library/DaisyToolchain/0.2.0/arm/arm-none-eabi/include/c++/10.3.1/bits/stl_algobase.h **** 	iter_swap(__a, __b);
 179:/Library/DaisyToolchain/0.2.0/arm/arm-none-eabi/include/c++/10.3.1/bits/stl_algobase.h **** #else
 180:/Library/DaisyToolchain/0.2.0/arm/arm-none-eabi/include/c++/10.3.1/bits/stl_algobase.h ****       // _GLIBCXX_RESOLVE_LIB_DEFECTS
 181:/Library/DaisyToolchain/0.2.0/arm/arm-none-eabi/include/c++/10.3.1/bits/stl_algobase.h ****       // 187. iter_swap underspecified
 182:/Library/DaisyToolchain/0.2.0/arm/arm-none-eabi/include/c++/10.3.1/bits/stl_algobase.h ****       swap(*__a, *__b);
 183:/Library/DaisyToolchain/0.2.0/arm/arm-none-eabi/include/c++/10.3.1/bits/stl_algobase.h **** #endif
 184:/Library/DaisyToolchain/0.2.0/arm/arm-none-eabi/include/c++/10.3.1/bits/stl_algobase.h ****     }
 185:/Library/DaisyToolchain/0.2.0/arm/arm-none-eabi/include/c++/10.3.1/bits/stl_algobase.h **** 
 186:/Library/DaisyToolchain/0.2.0/arm/arm-none-eabi/include/c++/10.3.1/bits/stl_algobase.h ****   /**
 187:/Library/DaisyToolchain/0.2.0/arm/arm-none-eabi/include/c++/10.3.1/bits/stl_algobase.h ****    *  @brief Swap the elements of two sequences.
 188:/Library/DaisyToolchain/0.2.0/arm/arm-none-eabi/include/c++/10.3.1/bits/stl_algobase.h ****    *  @ingroup mutating_algorithms
 189:/Library/DaisyToolchain/0.2.0/arm/arm-none-eabi/include/c++/10.3.1/bits/stl_algobase.h ****    *  @param  __first1  A forward iterator.
 190:/Library/DaisyToolchain/0.2.0/arm/arm-none-eabi/include/c++/10.3.1/bits/stl_algobase.h ****    *  @param  __last1   A forward iterator.
 191:/Library/DaisyToolchain/0.2.0/arm/arm-none-eabi/include/c++/10.3.1/bits/stl_algobase.h ****    *  @param  __first2  A forward iterator.
 192:/Library/DaisyToolchain/0.2.0/arm/arm-none-eabi/include/c++/10.3.1/bits/stl_algobase.h ****    *  @return   An iterator equal to @p first2+(last1-first1).
 193:/Library/DaisyToolchain/0.2.0/arm/arm-none-eabi/include/c++/10.3.1/bits/stl_algobase.h ****    *
 194:/Library/DaisyToolchain/0.2.0/arm/arm-none-eabi/include/c++/10.3.1/bits/stl_algobase.h ****    *  Swaps each element in the range @p [first1,last1) with the
 195:/Library/DaisyToolchain/0.2.0/arm/arm-none-eabi/include/c++/10.3.1/bits/stl_algobase.h ****    *  corresponding element in the range @p [first2,(last1-first1)).
 196:/Library/DaisyToolchain/0.2.0/arm/arm-none-eabi/include/c++/10.3.1/bits/stl_algobase.h ****    *  The ranges must not overlap.
 197:/Library/DaisyToolchain/0.2.0/arm/arm-none-eabi/include/c++/10.3.1/bits/stl_algobase.h ****   */
 198:/Library/DaisyToolchain/0.2.0/arm/arm-none-eabi/include/c++/10.3.1/bits/stl_algobase.h ****   template<typename _ForwardIterator1, typename _ForwardIterator2>
 199:/Library/DaisyToolchain/0.2.0/arm/arm-none-eabi/include/c++/10.3.1/bits/stl_algobase.h ****     _GLIBCXX20_CONSTEXPR
 200:/Library/DaisyToolchain/0.2.0/arm/arm-none-eabi/include/c++/10.3.1/bits/stl_algobase.h ****     _ForwardIterator2
 201:/Library/DaisyToolchain/0.2.0/arm/arm-none-eabi/include/c++/10.3.1/bits/stl_algobase.h ****     swap_ranges(_ForwardIterator1 __first1, _ForwardIterator1 __last1,
 202:/Library/DaisyToolchain/0.2.0/arm/arm-none-eabi/include/c++/10.3.1/bits/stl_algobase.h **** 		_ForwardIterator2 __first2)
 203:/Library/DaisyToolchain/0.2.0/arm/arm-none-eabi/include/c++/10.3.1/bits/stl_algobase.h ****     {
 204:/Library/DaisyToolchain/0.2.0/arm/arm-none-eabi/include/c++/10.3.1/bits/stl_algobase.h ****       // concept requirements
 205:/Library/DaisyToolchain/0.2.0/arm/arm-none-eabi/include/c++/10.3.1/bits/stl_algobase.h ****       __glibcxx_function_requires(_Mutable_ForwardIteratorConcept<
 206:/Library/DaisyToolchain/0.2.0/arm/arm-none-eabi/include/c++/10.3.1/bits/stl_algobase.h **** 				  _ForwardIterator1>)
 207:/Library/DaisyToolchain/0.2.0/arm/arm-none-eabi/include/c++/10.3.1/bits/stl_algobase.h ****       __glibcxx_function_requires(_Mutable_ForwardIteratorConcept<
 208:/Library/DaisyToolchain/0.2.0/arm/arm-none-eabi/include/c++/10.3.1/bits/stl_algobase.h **** 				  _ForwardIterator2>)
 209:/Library/DaisyToolchain/0.2.0/arm/arm-none-eabi/include/c++/10.3.1/bits/stl_algobase.h ****       __glibcxx_requires_valid_range(__first1, __last1);
 210:/Library/DaisyToolchain/0.2.0/arm/arm-none-eabi/include/c++/10.3.1/bits/stl_algobase.h **** 
 211:/Library/DaisyToolchain/0.2.0/arm/arm-none-eabi/include/c++/10.3.1/bits/stl_algobase.h ****       for (; __first1 != __last1; ++__first1, (void)++__first2)
 212:/Library/DaisyToolchain/0.2.0/arm/arm-none-eabi/include/c++/10.3.1/bits/stl_algobase.h **** 	std::iter_swap(__first1, __first2);
 213:/Library/DaisyToolchain/0.2.0/arm/arm-none-eabi/include/c++/10.3.1/bits/stl_algobase.h ****       return __first2;
 214:/Library/DaisyToolchain/0.2.0/arm/arm-none-eabi/include/c++/10.3.1/bits/stl_algobase.h ****     }
 215:/Library/DaisyToolchain/0.2.0/arm/arm-none-eabi/include/c++/10.3.1/bits/stl_algobase.h **** 
 216:/Library/DaisyToolchain/0.2.0/arm/arm-none-eabi/include/c++/10.3.1/bits/stl_algobase.h ****   /**
 217:/Library/DaisyToolchain/0.2.0/arm/arm-none-eabi/include/c++/10.3.1/bits/stl_algobase.h ****    *  @brief This does what you think it does.
 218:/Library/DaisyToolchain/0.2.0/arm/arm-none-eabi/include/c++/10.3.1/bits/stl_algobase.h ****    *  @ingroup sorting_algorithms
 219:/Library/DaisyToolchain/0.2.0/arm/arm-none-eabi/include/c++/10.3.1/bits/stl_algobase.h ****    *  @param  __a  A thing of arbitrary type.
 220:/Library/DaisyToolchain/0.2.0/arm/arm-none-eabi/include/c++/10.3.1/bits/stl_algobase.h ****    *  @param  __b  Another thing of arbitrary type.
 221:/Library/DaisyToolchain/0.2.0/arm/arm-none-eabi/include/c++/10.3.1/bits/stl_algobase.h ****    *  @return   The lesser of the parameters.
 222:/Library/DaisyToolchain/0.2.0/arm/arm-none-eabi/include/c++/10.3.1/bits/stl_algobase.h ****    *
 223:/Library/DaisyToolchain/0.2.0/arm/arm-none-eabi/include/c++/10.3.1/bits/stl_algobase.h ****    *  This is the simple classic generic implementation.  It will work on
 224:/Library/DaisyToolchain/0.2.0/arm/arm-none-eabi/include/c++/10.3.1/bits/stl_algobase.h ****    *  temporary expressions, since they are only evaluated once, unlike a
 225:/Library/DaisyToolchain/0.2.0/arm/arm-none-eabi/include/c++/10.3.1/bits/stl_algobase.h ****    *  preprocessor macro.
 226:/Library/DaisyToolchain/0.2.0/arm/arm-none-eabi/include/c++/10.3.1/bits/stl_algobase.h ****   */
 227:/Library/DaisyToolchain/0.2.0/arm/arm-none-eabi/include/c++/10.3.1/bits/stl_algobase.h ****   template<typename _Tp>
ARM GAS  /var/folders/9s/8rp0_f2s1n31qbztm3b5_fdh0000gn/T//ccqxwUOT.s 			page 34


 228:/Library/DaisyToolchain/0.2.0/arm/arm-none-eabi/include/c++/10.3.1/bits/stl_algobase.h ****     _GLIBCXX14_CONSTEXPR
 229:/Library/DaisyToolchain/0.2.0/arm/arm-none-eabi/include/c++/10.3.1/bits/stl_algobase.h ****     inline const _Tp&
 230:/Library/DaisyToolchain/0.2.0/arm/arm-none-eabi/include/c++/10.3.1/bits/stl_algobase.h ****     min(const _Tp& __a, const _Tp& __b)
 231:/Library/DaisyToolchain/0.2.0/arm/arm-none-eabi/include/c++/10.3.1/bits/stl_algobase.h ****     {
 232:/Library/DaisyToolchain/0.2.0/arm/arm-none-eabi/include/c++/10.3.1/bits/stl_algobase.h ****       // concept requirements
 233:/Library/DaisyToolchain/0.2.0/arm/arm-none-eabi/include/c++/10.3.1/bits/stl_algobase.h ****       __glibcxx_function_requires(_LessThanComparableConcept<_Tp>)
 234:/Library/DaisyToolchain/0.2.0/arm/arm-none-eabi/include/c++/10.3.1/bits/stl_algobase.h ****       //return __b < __a ? __b : __a;
 235:/Library/DaisyToolchain/0.2.0/arm/arm-none-eabi/include/c++/10.3.1/bits/stl_algobase.h ****       if (__b < __a)
 787              		.loc 9 235 7 view .LVU233
 788 0046 B7EE00BA 		vmov.f32	s22, #1.0e+0
 789              	.LBE206:
 790              	.LBE205:
  92:eurorack/plaits/dsp/drums/analog_bass_drum.h ****     const float tone_f = std::min(
 791              		.loc 5 92 69 view .LVU234
 792 004a 20EE278A 		vmul.f32	s16, s0, s15
 793              	.LVL54:
  93:eurorack/plaits/dsp/drums/analog_bass_drum.h ****         4.0f * f0 * stmlib::SemitonesToRatio(tone * 108.0f),
 794              		.loc 5 93 5 is_stmt 1 view .LVU235
  94:eurorack/plaits/dsp/drums/analog_bass_drum.h ****         1.0f);
 795              		.loc 5 94 45 is_stmt 0 view .LVU236
 796 004e 9FEDB30A 		vldr.32	s0, .L58+16
 797 0052 2CEE800A 		vmul.f32	s0, s25, s0
 798 0056 FFF7FEFF 		bl	_ZN6stmlib16SemitonesToRatioEf
 799              	.LVL55:
  94:eurorack/plaits/dsp/drums/analog_bass_drum.h ****         1.0f);
 800              		.loc 5 94 14 view .LVU237
 801 005a F1EE007A 		vmov.f32	s15, #4.0e+0
 802              		.loc 5 96 46 view .LVU238
 803 005e B5EE001A 		vmov.f32	s2, #2.5e-1
  94:eurorack/plaits/dsp/drums/analog_bass_drum.h ****         1.0f);
 804              		.loc 5 94 14 view .LVU239
 805 0062 6CEE277A 		vmul.f32	s15, s24, s15
 806              		.loc 5 96 46 view .LVU240
 807 0066 7CEE81CA 		vadd.f32	s25, s25, s2
 808              	.LVL56:
  94:eurorack/plaits/dsp/drums/analog_bass_drum.h ****         1.0f);
 809              		.loc 5 94 19 view .LVU241
 810 006a 67EE80BA 		vmul.f32	s23, s15, s0
 811              	.LVL57:
 812              	.LBB208:
 813              	.LBI205:
 230:/Library/DaisyToolchain/0.2.0/arm/arm-none-eabi/include/c++/10.3.1/bits/stl_algobase.h ****     {
 814              		.loc 9 230 5 is_stmt 1 view .LVU242
 815              	.LBE208:
 816              		.loc 5 96 17 is_stmt 0 view .LVU243
 817 006e 6CEEADCA 		vmul.f32	s25, s25, s27
 818              	.LBB209:
 819              	.LBB207:
 236:/Library/DaisyToolchain/0.2.0/arm/arm-none-eabi/include/c++/10.3.1/bits/stl_algobase.h **** 	return __b;
 820              		.loc 9 236 9 view .LVU244
 821 0072 F4EE4BBA 		vcmp.f32	s23, s22
 822 0076 F1EE10FA 		vmrs	APSR_nzcv, FPSCR
 823 007a 7BFE2BBA 		vselgt.f32	s23, s22, s23
 824              	.LVL58:
 825              		.loc 9 236 9 view .LVU245
 826              	.LBE207:
 827              	.LBE209:
ARM GAS  /var/folders/9s/8rp0_f2s1n31qbztm3b5_fdh0000gn/T//ccqxwUOT.s 			page 35


 828              		.loc 5 96 5 is_stmt 1 view .LVU246
  97:eurorack/plaits/dsp/drums/analog_bass_drum.h ****       
  98:eurorack/plaits/dsp/drums/analog_bass_drum.h **** 
  99:eurorack/plaits/dsp/drums/analog_bass_drum.h ****     if (trigger) {
 829              		.loc 5 99 5 view .LVU247
 830 007e B8F1000F 		cmp	r8, #0
 831 0082 0ED0     		beq	.L23
 100:eurorack/plaits/dsp/drums/analog_bass_drum.h ****       pulse_remaining_samples_ = kTriggerPulseDuration;
 832              		.loc 5 100 7 view .LVU248
 101:eurorack/plaits/dsp/drums/analog_bass_drum.h ****       fm_pulse_remaining_samples_ = kFMPulseDuration;
 102:eurorack/plaits/dsp/drums/analog_bass_drum.h ****       pulse_height_ = 3.0f + 7.0f * accent;
 833              		.loc 5 102 28 is_stmt 0 view .LVU249
 834 0084 B1EE0C7A 		vmov.f32	s14, #7.0e+0
 101:eurorack/plaits/dsp/drums/analog_bass_drum.h ****       fm_pulse_remaining_samples_ = kFMPulseDuration;
 835              		.loc 5 101 35 view .LVU250
 836 0088 4FF49073 		mov	r3, #288
 837              		.loc 5 102 28 view .LVU251
 838 008c F0EE087A 		vmov.f32	s15, #3.0e+0
 101:eurorack/plaits/dsp/drums/analog_bass_drum.h ****       fm_pulse_remaining_samples_ = kFMPulseDuration;
 839              		.loc 5 101 35 view .LVU252
 840 0090 3022     		movs	r2, #48
 841 0092 C4E90023 		strd	r2, r3, [r4]
 842              		.loc 5 102 7 is_stmt 1 view .LVU253
 843              		.loc 5 102 28 is_stmt 0 view .LVU254
 844 0096 EAEE077A 		vfma.f32	s15, s20, s14
 103:eurorack/plaits/dsp/drums/analog_bass_drum.h ****       lp_out_ = 0.0f;
 845              		.loc 5 103 15 view .LVU255
 846 009a 0023     		movs	r3, #0
 847 009c E361     		str	r3, [r4, #28]	@ float
 102:eurorack/plaits/dsp/drums/analog_bass_drum.h ****       lp_out_ = 0.0f;
 848              		.loc 5 102 21 view .LVU256
 849 009e C4ED037A 		vstr.32	s15, [r4, #12]
 850              		.loc 5 103 7 is_stmt 1 view .LVU257
 851              	.L23:
 104:eurorack/plaits/dsp/drums/analog_bass_drum.h ****     }
 105:eurorack/plaits/dsp/drums/analog_bass_drum.h ****     
 106:eurorack/plaits/dsp/drums/analog_bass_drum.h ****     stmlib::ParameterInterpolator sustain_gain(
 852              		.loc 5 106 5 view .LVU258
 853              	.LVL59:
 854              	.LBB210:
 855              	.LBI210:
 856              		.file 10 "eurorack/stmlib/dsp/parameter_interpolator.h"
   1:eurorack/stmlib/dsp/parameter_interpolator.h **** // Copyright 2015 Emilie Gillet.
   2:eurorack/stmlib/dsp/parameter_interpolator.h **** //
   3:eurorack/stmlib/dsp/parameter_interpolator.h **** // Author: Emilie Gillet (emilie.o.gillet@gmail.com)
   4:eurorack/stmlib/dsp/parameter_interpolator.h **** //
   5:eurorack/stmlib/dsp/parameter_interpolator.h **** // Permission is hereby granted, free of charge, to any person obtaining a copy
   6:eurorack/stmlib/dsp/parameter_interpolator.h **** // of this software and associated documentation files (the "Software"), to deal
   7:eurorack/stmlib/dsp/parameter_interpolator.h **** // in the Software without restriction, including without limitation the rights
   8:eurorack/stmlib/dsp/parameter_interpolator.h **** // to use, copy, modify, merge, publish, distribute, sublicense, and/or sell
   9:eurorack/stmlib/dsp/parameter_interpolator.h **** // copies of the Software, and to permit persons to whom the Software is
  10:eurorack/stmlib/dsp/parameter_interpolator.h **** // furnished to do so, subject to the following conditions:
  11:eurorack/stmlib/dsp/parameter_interpolator.h **** // 
  12:eurorack/stmlib/dsp/parameter_interpolator.h **** // The above copyright notice and this permission notice shall be included in
  13:eurorack/stmlib/dsp/parameter_interpolator.h **** // all copies or substantial portions of the Software.
  14:eurorack/stmlib/dsp/parameter_interpolator.h **** // 
  15:eurorack/stmlib/dsp/parameter_interpolator.h **** // THE SOFTWARE IS PROVIDED "AS IS", WITHOUT WARRANTY OF ANY KIND, EXPRESS OR
ARM GAS  /var/folders/9s/8rp0_f2s1n31qbztm3b5_fdh0000gn/T//ccqxwUOT.s 			page 36


  16:eurorack/stmlib/dsp/parameter_interpolator.h **** // IMPLIED, INCLUDING BUT NOT LIMITED TO THE WARRANTIES OF MERCHANTABILITY,
  17:eurorack/stmlib/dsp/parameter_interpolator.h **** // FITNESS FOR A PARTICULAR PURPOSE AND NONINFRINGEMENT. IN NO EVENT SHALL THE
  18:eurorack/stmlib/dsp/parameter_interpolator.h **** // AUTHORS OR COPYRIGHT HOLDERS BE LIABLE FOR ANY CLAIM, DAMAGES OR OTHER
  19:eurorack/stmlib/dsp/parameter_interpolator.h **** // LIABILITY, WHETHER IN AN ACTION OF CONTRACT, TORT OR OTHERWISE, ARISING FROM,
  20:eurorack/stmlib/dsp/parameter_interpolator.h **** // OUT OF OR IN CONNECTION WITH THE SOFTWARE OR THE USE OR OTHER DEALINGS IN
  21:eurorack/stmlib/dsp/parameter_interpolator.h **** // THE SOFTWARE.
  22:eurorack/stmlib/dsp/parameter_interpolator.h **** // 
  23:eurorack/stmlib/dsp/parameter_interpolator.h **** // See http://creativecommons.org/licenses/MIT/ for more information.
  24:eurorack/stmlib/dsp/parameter_interpolator.h **** //
  25:eurorack/stmlib/dsp/parameter_interpolator.h **** // -----------------------------------------------------------------------------
  26:eurorack/stmlib/dsp/parameter_interpolator.h **** //
  27:eurorack/stmlib/dsp/parameter_interpolator.h **** // Linear interpolation of parameters in rendering loops.
  28:eurorack/stmlib/dsp/parameter_interpolator.h **** 
  29:eurorack/stmlib/dsp/parameter_interpolator.h **** #ifndef STMLIB_DSP_PARAMETER_INTERPOLATOR_H_
  30:eurorack/stmlib/dsp/parameter_interpolator.h **** #define STMLIB_DSP_PARAMETER_INTERPOLATOR_H_
  31:eurorack/stmlib/dsp/parameter_interpolator.h **** 
  32:eurorack/stmlib/dsp/parameter_interpolator.h **** #include "stmlib/stmlib.h"
  33:eurorack/stmlib/dsp/parameter_interpolator.h **** 
  34:eurorack/stmlib/dsp/parameter_interpolator.h **** namespace stmlib {
  35:eurorack/stmlib/dsp/parameter_interpolator.h **** 
  36:eurorack/stmlib/dsp/parameter_interpolator.h **** class ParameterInterpolator {
  37:eurorack/stmlib/dsp/parameter_interpolator.h ****  public:
  38:eurorack/stmlib/dsp/parameter_interpolator.h ****   ParameterInterpolator() { }
  39:eurorack/stmlib/dsp/parameter_interpolator.h ****   ParameterInterpolator(float* state, float new_value, size_t size) {
 857              		.loc 10 39 3 view .LVU259
 858              	.LBE210:
  40:eurorack/stmlib/dsp/parameter_interpolator.h ****     Init(state, new_value, size);
 859              		.loc 10 40 5 view .LVU260
 860              	.LBB213:
 861              	.LBB211:
 862              	.LBI211:
  41:eurorack/stmlib/dsp/parameter_interpolator.h ****   }
  42:eurorack/stmlib/dsp/parameter_interpolator.h **** 
  43:eurorack/stmlib/dsp/parameter_interpolator.h ****   ParameterInterpolator(float* state, float new_value, float step) {
  44:eurorack/stmlib/dsp/parameter_interpolator.h ****     state_ = state;
  45:eurorack/stmlib/dsp/parameter_interpolator.h ****     value_ = *state;
  46:eurorack/stmlib/dsp/parameter_interpolator.h ****     increment_ = (new_value - *state) * step;
  47:eurorack/stmlib/dsp/parameter_interpolator.h ****   }
  48:eurorack/stmlib/dsp/parameter_interpolator.h **** 
  49:eurorack/stmlib/dsp/parameter_interpolator.h ****   ~ParameterInterpolator() {
  50:eurorack/stmlib/dsp/parameter_interpolator.h ****     *state_ = value_;
  51:eurorack/stmlib/dsp/parameter_interpolator.h ****   }
  52:eurorack/stmlib/dsp/parameter_interpolator.h ****   
  53:eurorack/stmlib/dsp/parameter_interpolator.h ****   inline void Init(float* state, float new_value, size_t size) {
 863              		.loc 10 53 15 view .LVU261
 864              	.LBB212:
  54:eurorack/stmlib/dsp/parameter_interpolator.h ****     state_ = state;
 865              		.loc 10 54 5 view .LVU262
  55:eurorack/stmlib/dsp/parameter_interpolator.h ****     value_ = *state;
 866              		.loc 10 55 5 view .LVU263
 867              		.loc 10 55 14 is_stmt 0 view .LVU264
 868 00a2 94ED09DA 		vldr.32	s26, [r4, #36]
 869              	.LVL60:
  56:eurorack/stmlib/dsp/parameter_interpolator.h ****     increment_ = (new_value - *state) / static_cast<float>(size);
 870              		.loc 10 56 5 is_stmt 1 view .LVU265
 871              		.loc 10 56 41 is_stmt 0 view .LVU266
 872 00a6 07EE907A 		vmov	s15, r7	@ int
ARM GAS  /var/folders/9s/8rp0_f2s1n31qbztm3b5_fdh0000gn/T//ccqxwUOT.s 			page 37


 873              		.loc 10 56 29 view .LVU267
 874 00aa B0EE4D7A 		vmov.f32	s14, s26
 875              		.loc 10 56 41 view .LVU268
 876 00ae F8EE677A 		vcvt.f32.u32	s15, s15
 877              		.loc 10 56 29 view .LVU269
 878 00b2 9AEE8A7A 		vfnms.f32	s14, s21, s20
 879              		.loc 10 56 39 view .LVU270
 880 00b6 87EE27EA 		vdiv.f32	s28, s14, s15
 881              	.LVL61:
 882              	.L43:
 883              		.loc 10 56 39 view .LVU271
 884              	.LBE212:
 885              	.LBE211:
 886              	.LBE213:
 107:eurorack/plaits/dsp/drums/analog_bass_drum.h ****         &sustain_gain_,
 108:eurorack/plaits/dsp/drums/analog_bass_drum.h ****         accent * decay,
 109:eurorack/plaits/dsp/drums/analog_bass_drum.h ****         size);
 110:eurorack/plaits/dsp/drums/analog_bass_drum.h ****     
 111:eurorack/plaits/dsp/drums/analog_bass_drum.h ****     while (size--) {
 887              		.loc 5 111 5 is_stmt 1 view .LVU272
 888              		.loc 5 111 16 view .LVU273
 889 00ba 013F     		subs	r7, r7, #1
 890              	.LVL62:
 891              		.loc 5 111 16 is_stmt 0 view .LVU274
 892 00bc C0F01F81 		bcc	.L24
 893              	.LBB214:
 112:eurorack/plaits/dsp/drums/analog_bass_drum.h ****       // Q39 / Q40
 113:eurorack/plaits/dsp/drums/analog_bass_drum.h ****       float pulse = 0.0f;
 894              		.loc 5 113 7 is_stmt 1 view .LVU275
 895              	.LVL63:
 114:eurorack/plaits/dsp/drums/analog_bass_drum.h ****       if (pulse_remaining_samples_) {
 896              		.loc 5 114 7 view .LVU276
 897              		.loc 5 114 11 is_stmt 0 view .LVU277
 898 00c0 2268     		ldr	r2, [r4]
 899              		.loc 5 114 7 view .LVU278
 900 00c2 002A     		cmp	r2, #0
 901 00c4 00F0BD80 		beq	.L25
 115:eurorack/plaits/dsp/drums/analog_bass_drum.h ****         --pulse_remaining_samples_;
 902              		.loc 5 115 9 is_stmt 1 view .LVU279
 903 00c8 013A     		subs	r2, r2, #1
 116:eurorack/plaits/dsp/drums/analog_bass_drum.h ****         pulse = pulse_remaining_samples_ ? pulse_height_ : pulse_height_ - 1.0f;
 904              		.loc 5 116 42 is_stmt 0 view .LVU280
 905 00ca D4ED037A 		vldr.32	s15, [r4, #12]
 115:eurorack/plaits/dsp/drums/analog_bass_drum.h ****         --pulse_remaining_samples_;
 906              		.loc 5 115 9 view .LVU281
 907 00ce 2260     		str	r2, [r4]
 908              		.loc 5 116 9 is_stmt 1 view .LVU282
 909              		.loc 5 116 42 is_stmt 0 view .LVU283
 910 00d0 0AB9     		cbnz	r2, .L56
 911              		.loc 5 116 42 discriminator 2 view .LVU284
 912 00d2 77EECB7A 		vsub.f32	s15, s15, s22
 913              	.LVL64:
 117:eurorack/plaits/dsp/drums/analog_bass_drum.h ****         pulse_ = pulse;
 914              		.loc 5 117 9 is_stmt 1 discriminator 2 view .LVU285
 915              	.L56:
 118:eurorack/plaits/dsp/drums/analog_bass_drum.h ****       } else {
 119:eurorack/plaits/dsp/drums/analog_bass_drum.h ****         pulse_ *= 1.0f - 1.0f / kPulseDecayTime;
ARM GAS  /var/folders/9s/8rp0_f2s1n31qbztm3b5_fdh0000gn/T//ccqxwUOT.s 			page 38


 120:eurorack/plaits/dsp/drums/analog_bass_drum.h ****         pulse = pulse_;
 121:eurorack/plaits/dsp/drums/analog_bass_drum.h ****       }
 122:eurorack/plaits/dsp/drums/analog_bass_drum.h ****       if (sustain) {
 123:eurorack/plaits/dsp/drums/analog_bass_drum.h ****         pulse = 0.0f;
 124:eurorack/plaits/dsp/drums/analog_bass_drum.h ****       }
 125:eurorack/plaits/dsp/drums/analog_bass_drum.h ****       
 126:eurorack/plaits/dsp/drums/analog_bass_drum.h ****       // C40 / R163 / R162 / D83
 127:eurorack/plaits/dsp/drums/analog_bass_drum.h ****       ONE_POLE(pulse_lp_, pulse, 1.0f / kPulseFilterTime);
 916              		.loc 5 127 7 is_stmt 0 view .LVU286
 917 00d6 D4ED04AA 		vldr.32	s21, [r4, #16]
 123:eurorack/plaits/dsp/drums/analog_bass_drum.h ****       }
 918              		.loc 5 123 15 view .LVU287
 919 00da 002D     		cmp	r5, #0
 920 00dc 9FED907A 		vldr.32	s14, .L58+20
 119:eurorack/plaits/dsp/drums/analog_bass_drum.h ****         pulse = pulse_;
 921              		.loc 5 119 16 view .LVU288
 922 00e0 C4ED027A 		vstr.32	s15, [r4, #8]
 120:eurorack/plaits/dsp/drums/analog_bass_drum.h ****       }
 923              		.loc 5 120 9 is_stmt 1 view .LVU289
 924              	.LVL65:
 122:eurorack/plaits/dsp/drums/analog_bass_drum.h ****         pulse = 0.0f;
 925              		.loc 5 122 7 view .LVU290
 123:eurorack/plaits/dsp/drums/analog_bass_drum.h ****       }
 926              		.loc 5 123 15 is_stmt 0 view .LVU291
 927 00e4 47FE877A 		vseleq.f32	s15, s15, s14
 928              	.LVL66:
 929              		.loc 5 127 7 is_stmt 1 view .LVU292
 930 00e8 77EEEA6A 		vsub.f32	s13, s15, s21
 931 00ec 9FED8D7A 		vldr.32	s14, .L58+24
 932 00f0 9FED8D6A 		vldr.32	s12, .L58+28
 933 00f4 E6EE87AA 		vfma.f32	s21, s13, s14
 128:eurorack/plaits/dsp/drums/analog_bass_drum.h ****       pulse = Diode((pulse - pulse_lp_) + pulse * 0.044f);
 934              		.loc 5 128 20 is_stmt 0 view .LVU293
 935 00f8 DFED8C6A 		vldr.32	s13, .L58+32
 127:eurorack/plaits/dsp/drums/analog_bass_drum.h ****       pulse = Diode((pulse - pulse_lp_) + pulse * 0.044f);
 936              		.loc 5 127 7 view .LVU294
 937 00fc C4ED04AA 		vstr.32	s21, [r4, #16]
 127:eurorack/plaits/dsp/drums/analog_bass_drum.h ****       pulse = Diode((pulse - pulse_lp_) + pulse * 0.044f);
 938              		.loc 5 127 58 is_stmt 1 view .LVU295
 939              		.loc 5 128 7 view .LVU296
 940              		.loc 5 128 28 is_stmt 0 view .LVU297
 941 0100 77EEEAAA 		vsub.f32	s21, s15, s21
 942              		.loc 5 128 20 view .LVU298
 943 0104 E7EEA6AA 		vfma.f32	s21, s15, s13
 944              	.LVL67:
 945              	.LBB215:
 946              	.LBI215:
  65:eurorack/plaits/dsp/drums/analog_bass_drum.h ****     if (x >= 0.0f) {
 947              		.loc 5 65 16 is_stmt 1 view .LVU299
 948              	.LBB216:
  66:eurorack/plaits/dsp/drums/analog_bass_drum.h ****       return x;
 949              		.loc 5 66 5 view .LVU300
 950 0108 F5EEC0AA 		vcmpe.f32	s21, #0
 951 010c F1EE10FA 		vmrs	APSR_nzcv, FPSCR
 952 0110 09DA     		bge	.L29
 953              	.LVL68:
 954              	.LBB217:
ARM GAS  /var/folders/9s/8rp0_f2s1n31qbztm3b5_fdh0000gn/T//ccqxwUOT.s 			page 39


 955              	.LBI217:
  65:eurorack/plaits/dsp/drums/analog_bass_drum.h ****     if (x >= 0.0f) {
 956              		.loc 5 65 16 view .LVU301
 957              	.LBB218:
  69:eurorack/plaits/dsp/drums/analog_bass_drum.h ****       return 0.7f * x / (1.0f + fabsf(x));
 958              		.loc 5 69 7 view .LVU302
  69:eurorack/plaits/dsp/drums/analog_bass_drum.h ****       return 0.7f * x / (1.0f + fabsf(x));
 959              		.loc 5 69 9 is_stmt 0 view .LVU303
 960 0112 7AEEAAAA 		vadd.f32	s21, s21, s21
 961              	.LVL69:
  70:eurorack/plaits/dsp/drums/analog_bass_drum.h ****     }
 962              		.loc 5 70 7 is_stmt 1 view .LVU304
  70:eurorack/plaits/dsp/drums/analog_bass_drum.h ****     }
 963              		.loc 5 70 19 is_stmt 0 view .LVU305
 964 0116 6AEE866A 		vmul.f32	s13, s21, s12
 965              	.LVL70:
  70:eurorack/plaits/dsp/drums/analog_bass_drum.h ****     }
 966              		.loc 5 70 38 view .LVU306
 967 011a F0EEEAAA 		vabs.f32	s21, s21
 968              	.LVL71:
  70:eurorack/plaits/dsp/drums/analog_bass_drum.h ****     }
 969              		.loc 5 70 31 view .LVU307
 970 011e 7AEE8B7A 		vadd.f32	s15, s21, s22
 971              	.LVL72:
  70:eurorack/plaits/dsp/drums/analog_bass_drum.h ****     }
 972              		.loc 5 70 41 view .LVU308
 973 0122 C6EEA7AA 		vdiv.f32	s21, s13, s15
 974              	.LVL73:
 975              	.L29:
  70:eurorack/plaits/dsp/drums/analog_bass_drum.h ****     }
 976              		.loc 5 70 41 view .LVU309
 977              	.LBE218:
 978              	.LBE217:
 979              	.LBE216:
 980              	.LBE215:
 129:eurorack/plaits/dsp/drums/analog_bass_drum.h **** 
 130:eurorack/plaits/dsp/drums/analog_bass_drum.h ****       // Q41 / Q42
 131:eurorack/plaits/dsp/drums/analog_bass_drum.h ****       float fm_pulse = 0.0f;
 981              		.loc 5 131 7 is_stmt 1 view .LVU310
 132:eurorack/plaits/dsp/drums/analog_bass_drum.h ****       if (fm_pulse_remaining_samples_) {
 982              		.loc 5 132 7 view .LVU311
 983              		.loc 5 132 11 is_stmt 0 view .LVU312
 984 0126 6268     		ldr	r2, [r4, #4]
 985              		.loc 5 132 7 view .LVU313
 986 0128 002A     		cmp	r2, #0
 987 012a 00F09180 		beq	.L30
 133:eurorack/plaits/dsp/drums/analog_bass_drum.h ****         --fm_pulse_remaining_samples_;
 988              		.loc 5 133 9 is_stmt 1 view .LVU314
 989 012e 013A     		subs	r2, r2, #1
 134:eurorack/plaits/dsp/drums/analog_bass_drum.h ****         fm_pulse = 1.0f;
 135:eurorack/plaits/dsp/drums/analog_bass_drum.h ****         // C39 / C52
 136:eurorack/plaits/dsp/drums/analog_bass_drum.h ****         retrig_pulse_ = fm_pulse_remaining_samples_ ? 0.0f : -0.8f;
 990              		.loc 5 136 53 is_stmt 0 view .LVU315
 991 0130 DFED7F6A 		vldr.32	s13, .L58+36
 992 0134 DFED7A7A 		vldr.32	s15, .L58+20
 993 0138 002A     		cmp	r2, #0
 133:eurorack/plaits/dsp/drums/analog_bass_drum.h ****         --fm_pulse_remaining_samples_;
ARM GAS  /var/folders/9s/8rp0_f2s1n31qbztm3b5_fdh0000gn/T//ccqxwUOT.s 			page 40


 994              		.loc 5 133 9 view .LVU316
 995 013a 6260     		str	r2, [r4, #4]
 134:eurorack/plaits/dsp/drums/analog_bass_drum.h ****         fm_pulse = 1.0f;
 996              		.loc 5 134 9 is_stmt 1 view .LVU317
 997              	.LVL74:
 998              		.loc 5 136 9 view .LVU318
 999              		.loc 5 136 53 is_stmt 0 view .LVU319
 1000 013c 46FEA77A 		vseleq.f32	s15, s13, s15
 134:eurorack/plaits/dsp/drums/analog_bass_drum.h ****         fm_pulse = 1.0f;
 1001              		.loc 5 134 18 view .LVU320
 1002 0140 F7EE006A 		vmov.f32	s13, #1.0e+0
 1003              		.loc 5 136 23 view .LVU321
 1004 0144 C4ED067A 		vstr.32	s15, [r4, #24]
 1005              	.LVL75:
 1006              	.L32:
 137:eurorack/plaits/dsp/drums/analog_bass_drum.h ****       } else {
 138:eurorack/plaits/dsp/drums/analog_bass_drum.h ****         // C39 / R161
 139:eurorack/plaits/dsp/drums/analog_bass_drum.h ****         retrig_pulse_ *= 1.0f - 1.0f / kRetrigPulseDuration;
 140:eurorack/plaits/dsp/drums/analog_bass_drum.h ****       }
 141:eurorack/plaits/dsp/drums/analog_bass_drum.h ****       if (sustain) {
 1007              		.loc 5 141 7 is_stmt 1 view .LVU322
 142:eurorack/plaits/dsp/drums/analog_bass_drum.h ****         fm_pulse = 0.0f;
 1008              		.loc 5 142 18 is_stmt 0 view .LVU323
 1009 0148 002D     		cmp	r5, #0
 1010 014a DFED757A 		vldr.32	s15, .L58+20
 143:eurorack/plaits/dsp/drums/analog_bass_drum.h ****       }
 144:eurorack/plaits/dsp/drums/analog_bass_drum.h ****       ONE_POLE(fm_pulse_lp_, fm_pulse, 1.0f / kPulseFilterTime);
 145:eurorack/plaits/dsp/drums/analog_bass_drum.h **** 
 146:eurorack/plaits/dsp/drums/analog_bass_drum.h ****       // Q43 and R170 leakage
 147:eurorack/plaits/dsp/drums/analog_bass_drum.h ****       float punch = 0.7f + Diode(10.0f * lp_out_ - 1.0f);
 1011              		.loc 5 147 33 view .LVU324
 1012 014e D4ED075A 		vldr.32	s11, [r4, #28]
 142:eurorack/plaits/dsp/drums/analog_bass_drum.h ****         fm_pulse = 0.0f;
 1013              		.loc 5 142 18 view .LVU325
 1014 0152 46FEA76A 		vseleq.f32	s13, s13, s15
 1015              	.LVL76:
 144:eurorack/plaits/dsp/drums/analog_bass_drum.h **** 
 1016              		.loc 5 144 7 is_stmt 1 view .LVU326
 1017 0156 D4ED057A 		vldr.32	s15, [r4, #20]
 1018 015a 76EEE76A 		vsub.f32	s13, s13, s15
 1019              	.LVL77:
 144:eurorack/plaits/dsp/drums/analog_bass_drum.h **** 
 1020              		.loc 5 144 7 is_stmt 0 view .LVU327
 1021 015e E6EE877A 		vfma.f32	s15, s13, s14
 1022              		.loc 5 147 33 view .LVU328
 1023 0162 F2EE046A 		vmov.f32	s13, #1.0e+1
 1024 0166 BFEE007A 		vmov.f32	s14, #-1.0e+0
 1025 016a A5EEA67A 		vfma.f32	s14, s11, s13
 144:eurorack/plaits/dsp/drums/analog_bass_drum.h **** 
 1026              		.loc 5 144 7 view .LVU329
 1027 016e C4ED057A 		vstr.32	s15, [r4, #20]
 144:eurorack/plaits/dsp/drums/analog_bass_drum.h **** 
 1028              		.loc 5 144 64 is_stmt 1 view .LVU330
 1029              		.loc 5 147 7 view .LVU331
 1030              	.LVL78:
 1031              	.LBB219:
 1032              	.LBI219:
ARM GAS  /var/folders/9s/8rp0_f2s1n31qbztm3b5_fdh0000gn/T//ccqxwUOT.s 			page 41


  65:eurorack/plaits/dsp/drums/analog_bass_drum.h ****     if (x >= 0.0f) {
 1033              		.loc 5 65 16 view .LVU332
 1034              	.LBB220:
  66:eurorack/plaits/dsp/drums/analog_bass_drum.h ****       return x;
 1035              		.loc 5 66 5 view .LVU333
 1036 0172 B5EEC07A 		vcmpe.f32	s14, #0
 1037 0176 F1EE10FA 		vmrs	APSR_nzcv, FPSCR
  66:eurorack/plaits/dsp/drums/analog_bass_drum.h ****       return x;
 1038              		.loc 5 66 5 is_stmt 0 view .LVU334
 1039 017a 09DA     		bge	.L34
 1040              	.LVL79:
 1041              	.LBB221:
 1042              	.LBI221:
  65:eurorack/plaits/dsp/drums/analog_bass_drum.h ****     if (x >= 0.0f) {
 1043              		.loc 5 65 16 is_stmt 1 view .LVU335
 1044              	.LBB222:
  69:eurorack/plaits/dsp/drums/analog_bass_drum.h ****       return 0.7f * x / (1.0f + fabsf(x));
 1045              		.loc 5 69 7 view .LVU336
  69:eurorack/plaits/dsp/drums/analog_bass_drum.h ****       return 0.7f * x / (1.0f + fabsf(x));
 1046              		.loc 5 69 9 is_stmt 0 view .LVU337
 1047 017c 37EE077A 		vadd.f32	s14, s14, s14
 1048              	.LVL80:
  70:eurorack/plaits/dsp/drums/analog_bass_drum.h ****     }
 1049              		.loc 5 70 7 is_stmt 1 view .LVU338
  70:eurorack/plaits/dsp/drums/analog_bass_drum.h ****     }
 1050              		.loc 5 70 19 is_stmt 0 view .LVU339
 1051 0180 67EE065A 		vmul.f32	s11, s14, s12
 1052              	.LVL81:
  70:eurorack/plaits/dsp/drums/analog_bass_drum.h ****     }
 1053              		.loc 5 70 38 view .LVU340
 1054 0184 B0EEC77A 		vabs.f32	s14, s14
 1055              	.LVL82:
  70:eurorack/plaits/dsp/drums/analog_bass_drum.h ****     }
 1056              		.loc 5 70 31 view .LVU341
 1057 0188 77EE0B6A 		vadd.f32	s13, s14, s22
 1058              	.LVL83:
  70:eurorack/plaits/dsp/drums/analog_bass_drum.h ****     }
 1059              		.loc 5 70 41 view .LVU342
 1060 018c 85EEA67A 		vdiv.f32	s14, s11, s13
 1061              	.LVL84:
 1062              	.L34:
  70:eurorack/plaits/dsp/drums/analog_bass_drum.h ****     }
 1063              		.loc 5 70 41 view .LVU343
 1064              	.LBE222:
 1065              	.LBE221:
 1066              	.LBE220:
 1067              	.LBE219:
 148:eurorack/plaits/dsp/drums/analog_bass_drum.h **** 
 149:eurorack/plaits/dsp/drums/analog_bass_drum.h ****       // Q43 / R165
 150:eurorack/plaits/dsp/drums/analog_bass_drum.h ****       float attack_fm = fm_pulse_lp_ * 1.7f * attack_fm_amount;
 1068              		.loc 5 150 7 is_stmt 1 view .LVU344
 151:eurorack/plaits/dsp/drums/analog_bass_drum.h ****       float self_fm = punch * 0.08f * self_fm_amount;
 1069              		.loc 5 151 7 view .LVU345
 152:eurorack/plaits/dsp/drums/analog_bass_drum.h ****       float f = f0 * (1.0f + attack_fm + self_fm);
 1070              		.loc 5 152 7 view .LVU346
 150:eurorack/plaits/dsp/drums/analog_bass_drum.h ****       float self_fm = punch * 0.08f * self_fm_amount;
 1071              		.loc 5 150 38 is_stmt 0 view .LVU347
ARM GAS  /var/folders/9s/8rp0_f2s1n31qbztm3b5_fdh0000gn/T//ccqxwUOT.s 			page 42


 1072 0190 DFED686A 		vldr.32	s13, .L58+40
 1073 0194 67EEA66A 		vmul.f32	s13, s15, s13
 1074              		.loc 5 152 28 view .LVU348
 1075 0198 F0EE4B7A 		vmov.f32	s15, s22
 1076              	.LVL85:
 147:eurorack/plaits/dsp/drums/analog_bass_drum.h **** 
 1077              		.loc 5 147 56 view .LVU349
 1078 019c 37EE067A 		vadd.f32	s14, s14, s12
 1079              	.LVL86:
 1080              		.loc 5 152 28 view .LVU350
 1081 01a0 E6EEA87A 		vfma.f32	s15, s13, s17
 151:eurorack/plaits/dsp/drums/analog_bass_drum.h ****       float f = f0 * (1.0f + attack_fm + self_fm);
 1082              		.loc 5 151 29 view .LVU351
 1083 01a4 27EE2D7A 		vmul.f32	s14, s14, s27
 1084              		.loc 5 152 40 view .LVU352
 1085 01a8 E7EE097A 		vfma.f32	s15, s14, s18
 1086              		.loc 5 152 13 view .LVU353
 1087 01ac 67EE8C7A 		vmul.f32	s15, s15, s24
 1088              	.LVL87:
 153:eurorack/plaits/dsp/drums/analog_bass_drum.h ****       CONSTRAIN(f, 0.0f, 0.4f);
 1089              		.loc 5 153 7 is_stmt 1 view .LVU354
 1090 01b0 F5EEC07A 		vcmpe.f32	s15, #0
 1091 01b4 F1EE10FA 		vmrs	APSR_nzcv, FPSCR
 1092 01b8 55D4     		bmi	.L46
 1093              		.loc 5 153 7 discriminator 2 view .LVU355
 1094 01ba 9FED5F7A 		vldr.32	s14, .L58+44
 1095 01be F4EE477A 		vcmp.f32	s15, s14
 1096 01c2 F1EE10FA 		vmrs	APSR_nzcv, FPSCR
 1097 01c6 77FE277A 		vselgt.f32	s15, s14, s15
 1098              	.LVL88:
 1099              	.L35:
 1100              		.loc 5 153 31 discriminator 6 view .LVU356
 154:eurorack/plaits/dsp/drums/analog_bass_drum.h **** 
 155:eurorack/plaits/dsp/drums/analog_bass_drum.h ****       float resonator_out;
 1101              		.loc 5 155 7 discriminator 6 view .LVU357
 156:eurorack/plaits/dsp/drums/analog_bass_drum.h ****       if (sustain) {
 1102              		.loc 5 156 7 discriminator 6 view .LVU358
 1103 01ca 002D     		cmp	r5, #0
 1104 01cc 4ED0     		beq	.L37
 157:eurorack/plaits/dsp/drums/analog_bass_drum.h ****         oscillator_.Next(f, sustain_gain.Next(), &resonator_out, &lp_out_);
 1105              		.loc 5 157 9 view .LVU359
 1106              	.LVL89:
 1107              	.LBB223:
 1108              	.LBI223:
  57:eurorack/stmlib/dsp/parameter_interpolator.h ****   }
  58:eurorack/stmlib/dsp/parameter_interpolator.h **** 
  59:eurorack/stmlib/dsp/parameter_interpolator.h ****   inline float Next() {
 1109              		.loc 10 59 16 view .LVU360
 1110              	.LBB224:
  60:eurorack/stmlib/dsp/parameter_interpolator.h ****     value_ += increment_;
 1111              		.loc 10 60 5 view .LVU361
 1112              	.LBE224:
 1113              	.LBE223:
 1114              	.LBB226:
 1115              	.LBB227:
  52:eurorack/plaits/dsp/oscillator/sine_oscillator.h ****   }
  53:eurorack/plaits/dsp/oscillator/sine_oscillator.h ****   
ARM GAS  /var/folders/9s/8rp0_f2s1n31qbztm3b5_fdh0000gn/T//ccqxwUOT.s 			page 43


  54:eurorack/plaits/dsp/oscillator/sine_oscillator.h ****   inline float Next(float frequency) {
  55:eurorack/plaits/dsp/oscillator/sine_oscillator.h ****     if (frequency >= 0.5f) {
  56:eurorack/plaits/dsp/oscillator/sine_oscillator.h ****       frequency = 0.5f;
  57:eurorack/plaits/dsp/oscillator/sine_oscillator.h ****     }
  58:eurorack/plaits/dsp/oscillator/sine_oscillator.h ****     
  59:eurorack/plaits/dsp/oscillator/sine_oscillator.h ****     phase_ += frequency;
  60:eurorack/plaits/dsp/oscillator/sine_oscillator.h ****     if (phase_ >= 1.0f) {
  61:eurorack/plaits/dsp/oscillator/sine_oscillator.h ****       phase_ -= 1.0f;
  62:eurorack/plaits/dsp/oscillator/sine_oscillator.h ****     }
  63:eurorack/plaits/dsp/oscillator/sine_oscillator.h ****     
  64:eurorack/plaits/dsp/oscillator/sine_oscillator.h ****     return stmlib::Interpolate(lut_sine, phase_, 1024.0f);
  65:eurorack/plaits/dsp/oscillator/sine_oscillator.h ****   }
  66:eurorack/plaits/dsp/oscillator/sine_oscillator.h ****   
  67:eurorack/plaits/dsp/oscillator/sine_oscillator.h ****   inline void Next(float frequency, float amplitude, float* sin, float* cos) {
  68:eurorack/plaits/dsp/oscillator/sine_oscillator.h ****     if (frequency >= 0.5f) {
 1116              		.loc 6 68 5 is_stmt 0 view .LVU362
 1117 01ce B6EE007A 		vmov.f32	s14, #5.0e-1
  69:eurorack/plaits/dsp/oscillator/sine_oscillator.h ****       frequency = 0.5f;
  70:eurorack/plaits/dsp/oscillator/sine_oscillator.h ****     }
  71:eurorack/plaits/dsp/oscillator/sine_oscillator.h ****     
  72:eurorack/plaits/dsp/oscillator/sine_oscillator.h ****     phase_ += frequency;
  73:eurorack/plaits/dsp/oscillator/sine_oscillator.h ****     if (phase_ >= 1.0f) {
  74:eurorack/plaits/dsp/oscillator/sine_oscillator.h ****       phase_ -= 1.0f;
  75:eurorack/plaits/dsp/oscillator/sine_oscillator.h ****     }
  76:eurorack/plaits/dsp/oscillator/sine_oscillator.h ****     
  77:eurorack/plaits/dsp/oscillator/sine_oscillator.h ****     *sin = amplitude * stmlib::Interpolate(lut_sine, phase_, 1024.0f);
 1118              		.loc 6 77 43 view .LVU363
 1119 01d2 DFED5A0A 		vldr.32	s1, .L58+48
 1120              	.LBE227:
 1121              	.LBE226:
 1122              	.LBB229:
 1123              	.LBB225:
 1124              		.loc 10 60 12 view .LVU364
 1125 01d6 3DEE0EDA 		vadd.f32	s26, s26, s28
 1126              	.LVL90:
  61:eurorack/stmlib/dsp/parameter_interpolator.h ****     return value_;
 1127              		.loc 10 61 5 is_stmt 1 view .LVU365
 1128              		.loc 10 61 5 is_stmt 0 view .LVU366
 1129              	.LBE225:
 1130              	.LBE229:
 1131              	.LBB230:
 1132              	.LBI226:
  67:eurorack/plaits/dsp/oscillator/sine_oscillator.h ****     if (frequency >= 0.5f) {
 1133              		.loc 6 67 15 is_stmt 1 view .LVU367
 1134              	.LBB228:
  68:eurorack/plaits/dsp/oscillator/sine_oscillator.h ****       frequency = 0.5f;
 1135              		.loc 6 68 5 view .LVU368
 1136              		.loc 6 77 43 is_stmt 0 view .LVU369
 1137 01da 5948     		ldr	r0, .L58+52
  69:eurorack/plaits/dsp/oscillator/sine_oscillator.h ****     }
 1138              		.loc 6 69 17 view .LVU370
 1139 01dc F4EE477A 		vcmp.f32	s15, s14
 1140 01e0 F1EE10FA 		vmrs	APSR_nzcv, FPSCR
 1141 01e4 67FE277A 		vselge.f32	s15, s14, s15
 1142              	.LVL91:
  72:eurorack/plaits/dsp/oscillator/sine_oscillator.h ****     if (phase_ >= 1.0f) {
 1143              		.loc 6 72 5 is_stmt 1 view .LVU371
ARM GAS  /var/folders/9s/8rp0_f2s1n31qbztm3b5_fdh0000gn/T//ccqxwUOT.s 			page 44


  72:eurorack/plaits/dsp/oscillator/sine_oscillator.h ****     if (phase_ >= 1.0f) {
 1144              		.loc 6 72 12 is_stmt 0 view .LVU372
 1145 01e8 94ED0F7A 		vldr.32	s14, [r4, #60]
 1146 01ec 77EE877A 		vadd.f32	s15, s15, s14
 1147              	.LVL92:
  73:eurorack/plaits/dsp/oscillator/sine_oscillator.h ****       phase_ -= 1.0f;
 1148              		.loc 6 73 5 is_stmt 1 view .LVU373
 1149 01f0 F4EECB7A 		vcmpe.f32	s15, s22
 1150 01f4 F1EE10FA 		vmrs	APSR_nzcv, FPSCR
  74:eurorack/plaits/dsp/oscillator/sine_oscillator.h ****     }
 1151              		.loc 6 74 7 view .LVU374
  74:eurorack/plaits/dsp/oscillator/sine_oscillator.h ****     }
 1152              		.loc 6 74 14 is_stmt 0 view .LVU375
 1153 01f8 A8BF     		it	ge
 1154 01fa 77EECB7A 		vsubge.f32	s15, s15, s22
 1155 01fe C4ED0F7A 		vstr.32	s15, [r4, #60]
 1156              		.loc 6 77 5 is_stmt 1 view .LVU376
 1157              		.loc 6 77 43 is_stmt 0 view .LVU377
 1158 0202 D4ED0FEA 		vldr.32	s29, [r4, #60]
 1159 0206 B0EE6E0A 		vmov.f32	s0, s29
 1160 020a FFF7FEFF 		bl	_ZN6stmlib11InterpolateEPKfff
 1161              	.LVL93:
  78:eurorack/plaits/dsp/oscillator/sine_oscillator.h ****     *cos = amplitude * stmlib::Interpolate(lut_sine + 256, phase_, 1024.0f);
 1162              		.loc 6 78 43 view .LVU378
 1163 020e DFED4B0A 		vldr.32	s1, .L58+48
  77:eurorack/plaits/dsp/oscillator/sine_oscillator.h ****     *cos = amplitude * stmlib::Interpolate(lut_sine + 256, phase_, 1024.0f);
 1164              		.loc 6 77 22 view .LVU379
 1165 0212 2DEE00AA 		vmul.f32	s20, s26, s0
 1166              	.LVL94:
 1167              		.loc 6 78 5 is_stmt 1 view .LVU380
 1168              		.loc 6 78 43 is_stmt 0 view .LVU381
 1169 0216 4B48     		ldr	r0, .L58+56
 1170 0218 B0EE6E0A 		vmov.f32	s0, s29
 1171 021c FFF7FEFF 		bl	_ZN6stmlib11InterpolateEPKfff
 1172              	.LVL95:
 1173              		.loc 6 78 22 view .LVU382
 1174 0220 2DEE000A 		vmul.f32	s0, s26, s0
 1175              		.loc 6 78 10 view .LVU383
 1176 0224 84ED070A 		vstr.32	s0, [r4, #28]
 1177              	.LVL96:
 1178              	.L42:
 1179              		.loc 6 78 10 view .LVU384
 1180              	.LBE228:
 1181              	.LBE230:
 158:eurorack/plaits/dsp/drums/analog_bass_drum.h ****       } else {
 159:eurorack/plaits/dsp/drums/analog_bass_drum.h ****         resonator_.set_f_q<stmlib::FREQUENCY_DIRTY>(f, 1.0f + q * f);
 160:eurorack/plaits/dsp/drums/analog_bass_drum.h ****         resonator_.Process<stmlib::FILTER_MODE_BAND_PASS,
 161:eurorack/plaits/dsp/drums/analog_bass_drum.h ****                            stmlib::FILTER_MODE_LOW_PASS>(
 162:eurorack/plaits/dsp/drums/analog_bass_drum.h ****             (pulse - retrig_pulse_ * 0.2f) * scale,
 163:eurorack/plaits/dsp/drums/analog_bass_drum.h ****             &resonator_out,
 164:eurorack/plaits/dsp/drums/analog_bass_drum.h ****             &lp_out_);
 165:eurorack/plaits/dsp/drums/analog_bass_drum.h ****       }
 166:eurorack/plaits/dsp/drums/analog_bass_drum.h ****       
 167:eurorack/plaits/dsp/drums/analog_bass_drum.h ****       ONE_POLE(tone_lp_, pulse * exciter_leak + resonator_out, tone_f);
 1182              		.loc 5 167 7 is_stmt 1 view .LVU385
 1183 0228 ACEEAAAA 		vfma.f32	s20, s25, s21
 1184              	.LVL97:
ARM GAS  /var/folders/9s/8rp0_f2s1n31qbztm3b5_fdh0000gn/T//ccqxwUOT.s 			page 45


 1185              		.loc 5 167 7 is_stmt 0 view .LVU386
 1186 022c D4ED087A 		vldr.32	s15, [r4, #32]
 1187 0230 3AEE67AA 		vsub.f32	s20, s20, s15
 1188 0234 EAEE2B7A 		vfma.f32	s15, s20, s23
 1189 0238 C4ED087A 		vstr.32	s15, [r4, #32]
 1190              		.loc 5 167 71 is_stmt 1 view .LVU387
 168:eurorack/plaits/dsp/drums/analog_bass_drum.h ****       
 169:eurorack/plaits/dsp/drums/analog_bass_drum.h ****       *out++ = tone_lp_;
 1191              		.loc 5 169 7 view .LVU388
 1192              	.LVL98:
 1193              		.loc 5 169 14 is_stmt 0 view .LVU389
 1194 023c E6EC017A 		vstmia.32	r6!, {s15}
 1195              	.LVL99:
 1196              		.loc 5 169 14 view .LVU390
 1197              	.LBE214:
 111:eurorack/plaits/dsp/drums/analog_bass_drum.h ****       // Q39 / Q40
 1198              		.loc 5 111 5 view .LVU391
 1199 0240 3BE7     		b	.L43
 1200              	.LVL100:
 1201              	.L25:
 1202              	.LBB260:
 119:eurorack/plaits/dsp/drums/analog_bass_drum.h ****         pulse = pulse_;
 1203              		.loc 5 119 9 is_stmt 1 view .LVU392
 119:eurorack/plaits/dsp/drums/analog_bass_drum.h ****         pulse = pulse_;
 1204              		.loc 5 119 16 is_stmt 0 view .LVU393
 1205 0242 D4ED027A 		vldr.32	s15, [r4, #8]
 1206 0246 9FED407A 		vldr.32	s14, .L58+60
 1207 024a 67EE877A 		vmul.f32	s15, s15, s14
 1208 024e 42E7     		b	.L56
 1209              	.LVL101:
 1210              	.L30:
 139:eurorack/plaits/dsp/drums/analog_bass_drum.h ****       }
 1211              		.loc 5 139 9 is_stmt 1 view .LVU394
 139:eurorack/plaits/dsp/drums/analog_bass_drum.h ****       }
 1212              		.loc 5 139 23 is_stmt 0 view .LVU395
 1213 0250 D4ED067A 		vldr.32	s15, [r4, #24]
 1214 0254 DFED3D6A 		vldr.32	s13, .L58+64
 1215 0258 67EEA67A 		vmul.f32	s15, s15, s13
 131:eurorack/plaits/dsp/drums/analog_bass_drum.h ****       if (fm_pulse_remaining_samples_) {
 1216              		.loc 5 131 13 view .LVU396
 1217 025c DFED306A 		vldr.32	s13, .L58+20
 139:eurorack/plaits/dsp/drums/analog_bass_drum.h ****       }
 1218              		.loc 5 139 23 view .LVU397
 1219 0260 C4ED067A 		vstr.32	s15, [r4, #24]
 1220 0264 70E7     		b	.L32
 1221              	.LVL102:
 1222              	.L46:
 153:eurorack/plaits/dsp/drums/analog_bass_drum.h **** 
 1223              		.loc 5 153 7 view .LVU398
 1224 0266 DFED2E7A 		vldr.32	s15, .L58+20
 1225              	.LVL103:
 153:eurorack/plaits/dsp/drums/analog_bass_drum.h **** 
 1226              		.loc 5 153 7 view .LVU399
 1227 026a AEE7     		b	.L35
 1228              	.LVL104:
 1229              	.L37:
 159:eurorack/plaits/dsp/drums/analog_bass_drum.h ****         resonator_.Process<stmlib::FILTER_MODE_BAND_PASS,
ARM GAS  /var/folders/9s/8rp0_f2s1n31qbztm3b5_fdh0000gn/T//ccqxwUOT.s 			page 46


 1230              		.loc 5 159 9 is_stmt 1 view .LVU400
 1231              	.LBB231:
 1232              	.LBB232:
 1233              	.LBB233:
 1234              	.LBB234:
 115:eurorack/stmlib/dsp/filter.h ****     } else if (approximation == FREQUENCY_FAST) {
 1235              		.loc 4 115 30 is_stmt 0 view .LVU401
 1236 026c DFED386A 		vldr.32	s13, .L58+68
 1237              	.LBE234:
 1238              	.LBE233:
 1239              	.LBE232:
 1240              	.LBE231:
 159:eurorack/plaits/dsp/drums/analog_bass_drum.h ****         resonator_.Process<stmlib::FILTER_MODE_BAND_PASS,
 1241              		.loc 5 159 52 view .LVU402
 1242 0270 B0EE4B6A 		vmov.f32	s12, s22
 1243              	.LBB247:
 1244              	.LBB242:
 1245              	.LBB238:
 1246              	.LBB235:
 115:eurorack/stmlib/dsp/filter.h ****     } else if (approximation == FREQUENCY_FAST) {
 1247              		.loc 4 115 26 view .LVU403
 1248 0274 9FED377A 		vldr.32	s14, .L58+72
 115:eurorack/stmlib/dsp/filter.h ****     } else if (approximation == FREQUENCY_FAST) {
 1249              		.loc 4 115 30 view .LVU404
 1250 0278 67EEA66A 		vmul.f32	s13, s15, s13
 1251              	.LBE235:
 1252              	.LBE238:
 1253              	.LBE242:
 1254              	.LBE247:
 162:eurorack/plaits/dsp/drums/analog_bass_drum.h ****             &resonator_out,
 1255              		.loc 5 162 20 view .LVU405
 1256 027c 94ED065A 		vldr.32	s10, [r4, #24]
 159:eurorack/plaits/dsp/drums/analog_bass_drum.h ****         resonator_.Process<stmlib::FILTER_MODE_BAND_PASS,
 1257              		.loc 5 159 52 view .LVU406
 1258 0280 A7EE886A 		vfma.f32	s12, s15, s16
 1259              	.LVL105:
 1260              	.LBB248:
 1261              	.LBI231:
 223:eurorack/stmlib/dsp/filter.h ****     g_ = OnePole::tan<approximation>(f);
 1262              		.loc 4 223 15 is_stmt 1 view .LVU407
 1263              	.LBB243:
 1264              	.LBB239:
 1265              	.LBI233:
 107:eurorack/stmlib/dsp/filter.h ****     if (approximation == FREQUENCY_EXACT) {
 1266              		.loc 4 107 23 view .LVU408
 107:eurorack/stmlib/dsp/filter.h ****     if (approximation == FREQUENCY_EXACT) {
 1267              		.loc 4 107 23 is_stmt 0 view .LVU409
 1268              	.LBE239:
 1269              	.LBE243:
 1270              	.LBE248:
 162:eurorack/plaits/dsp/drums/analog_bass_drum.h ****             &resonator_out,
 1271              		.loc 5 162 20 view .LVU410
 1272 0284 DFED345A 		vldr.32	s11, .L58+76
 1273              	.LBB249:
 1274              	.LBB250:
 227:eurorack/stmlib/dsp/filter.h ****   }
 228:eurorack/stmlib/dsp/filter.h ****   
ARM GAS  /var/folders/9s/8rp0_f2s1n31qbztm3b5_fdh0000gn/T//ccqxwUOT.s 			page 47


 229:eurorack/stmlib/dsp/filter.h ****   template<FilterMode mode>
 230:eurorack/stmlib/dsp/filter.h ****   inline float Process(float in) {
 231:eurorack/stmlib/dsp/filter.h ****     float hp, bp, lp;
 232:eurorack/stmlib/dsp/filter.h ****     hp = (in - r_ * state_1_ - g_ * state_1_ - state_2_) * h_;
 233:eurorack/stmlib/dsp/filter.h ****     bp = g_ * hp + state_1_;
 234:eurorack/stmlib/dsp/filter.h ****     state_1_ = g_ * hp + bp;
 235:eurorack/stmlib/dsp/filter.h ****     lp = g_ * bp + state_2_;
 236:eurorack/stmlib/dsp/filter.h ****     state_2_ = g_ * bp + lp;
 237:eurorack/stmlib/dsp/filter.h ****     
 238:eurorack/stmlib/dsp/filter.h ****     if (mode == FILTER_MODE_LOW_PASS) {
 239:eurorack/stmlib/dsp/filter.h ****       return lp;
 240:eurorack/stmlib/dsp/filter.h ****     } else if (mode == FILTER_MODE_BAND_PASS) {
 241:eurorack/stmlib/dsp/filter.h ****       return bp;
 242:eurorack/stmlib/dsp/filter.h ****     } else if (mode == FILTER_MODE_BAND_PASS_NORMALIZED) {
 243:eurorack/stmlib/dsp/filter.h ****       return bp * r_;
 244:eurorack/stmlib/dsp/filter.h ****     } else if (mode == FILTER_MODE_HIGH_PASS) {
 245:eurorack/stmlib/dsp/filter.h ****       return hp;
 246:eurorack/stmlib/dsp/filter.h ****     }
 247:eurorack/stmlib/dsp/filter.h ****   }
 248:eurorack/stmlib/dsp/filter.h ****   
 249:eurorack/stmlib/dsp/filter.h ****   template<FilterMode mode_1, FilterMode mode_2>
 250:eurorack/stmlib/dsp/filter.h ****   inline void Process(float in, float* out_1, float* out_2) {
 251:eurorack/stmlib/dsp/filter.h ****     float hp, bp, lp;
 252:eurorack/stmlib/dsp/filter.h ****     hp = (in - r_ * state_1_ - g_ * state_1_ - state_2_) * h_;
 1275              		.loc 4 252 21 view .LVU411
 1276 0288 94ED0DAA 		vldr.32	s20, [r4, #52]
 1277              	.LBE250:
 1278              	.LBE249:
 1279              	.LBB254:
 1280              	.LBB244:
 1281              	.LBB240:
 1282              	.LBB236:
 115:eurorack/stmlib/dsp/filter.h ****     } else if (approximation == FREQUENCY_FAST) {
 1283              		.loc 4 115 26 view .LVU412
 1284 028c A7EEA67A 		vfma.f32	s14, s15, s13
 1285              	.LBE236:
 1286              	.LBE240:
 226:eurorack/stmlib/dsp/filter.h ****   }
 1287              		.loc 4 226 23 view .LVU413
 1288 0290 F0EE4B6A 		vmov.f32	s13, s22
 1289              	.LBB241:
 1290              	.LBB237:
 115:eurorack/stmlib/dsp/filter.h ****     } else if (approximation == FREQUENCY_FAST) {
 1291              		.loc 4 115 37 view .LVU414
 1292 0294 67EE877A 		vmul.f32	s15, s15, s14
 1293              	.LVL106:
 115:eurorack/stmlib/dsp/filter.h ****     } else if (approximation == FREQUENCY_FAST) {
 1294              		.loc 4 115 37 view .LVU415
 1295              	.LBE237:
 1296              	.LBE241:
 225:eurorack/stmlib/dsp/filter.h ****     h_ = 1.0f / (1.0f + r_ * g_ + g_ * g_);
 1297              		.loc 4 225 15 view .LVU416
 1298 0298 8BEE067A 		vdiv.f32	s14, s22, s12
 224:eurorack/stmlib/dsp/filter.h ****     r_ = 1.0f / resonance;
 1299              		.loc 4 224 8 view .LVU417
 1300 029c C4ED0A7A 		vstr.32	s15, [r4, #40]
 226:eurorack/stmlib/dsp/filter.h ****   }
ARM GAS  /var/folders/9s/8rp0_f2s1n31qbztm3b5_fdh0000gn/T//ccqxwUOT.s 			page 48


 1301              		.loc 4 226 23 view .LVU418
 1302 02a0 E7EE276A 		vfma.f32	s13, s14, s15
 225:eurorack/stmlib/dsp/filter.h ****     h_ = 1.0f / (1.0f + r_ * g_ + g_ * g_);
 1303              		.loc 4 225 8 view .LVU419
 1304 02a4 84ED0B7A 		vstr.32	s14, [r4, #44]
 1305              	.LBE244:
 1306              	.LBE254:
 1307              	.LBB255:
 1308              	.LBB251:
 1309              		.loc 4 252 14 view .LVU420
 1310 02a8 27EE4A7A 		vnmul.f32	s14, s14, s20
 1311              	.LBE251:
 1312              	.LBE255:
 1313              	.LBB256:
 1314              	.LBB245:
 226:eurorack/stmlib/dsp/filter.h ****   }
 1315              		.loc 4 226 33 view .LVU421
 1316 02ac E7EEA76A 		vfma.f32	s13, s15, s15
 226:eurorack/stmlib/dsp/filter.h ****   }
 1317              		.loc 4 226 15 view .LVU422
 1318 02b0 8BEE266A 		vdiv.f32	s12, s22, s13
 1319              	.LVL107:
 226:eurorack/stmlib/dsp/filter.h ****   }
 1320              		.loc 4 226 15 view .LVU423
 1321              	.LBE245:
 1322              	.LBE256:
 162:eurorack/plaits/dsp/drums/analog_bass_drum.h ****             &resonator_out,
 1323              		.loc 5 162 20 view .LVU424
 1324 02b4 F0EE6A6A 		vmov.f32	s13, s21
 1325 02b8 E5EE656A 		vfms.f32	s13, s10, s11
 1326              	.LBB257:
 1327              	.LBB252:
 1328              		.loc 4 252 14 view .LVU425
 1329 02bc A6EEA97A 		vfma.f32	s14, s13, s19
 1330              		.loc 4 252 48 view .LVU426
 1331 02c0 D4ED0E6A 		vldr.32	s13, [r4, #56]
 1332              	.LBE252:
 1333              	.LBE257:
 1334              	.LBB258:
 1335              	.LBB246:
 226:eurorack/stmlib/dsp/filter.h ****   }
 1336              		.loc 4 226 8 view .LVU427
 1337 02c4 84ED0C6A 		vstr.32	s12, [r4, #48]
 1338              	.LVL108:
 226:eurorack/stmlib/dsp/filter.h ****   }
 1339              		.loc 4 226 8 view .LVU428
 1340              	.LBE246:
 1341              	.LBE258:
 160:eurorack/plaits/dsp/drums/analog_bass_drum.h ****                            stmlib::FILTER_MODE_LOW_PASS>(
 1342              		.loc 5 160 9 is_stmt 1 view .LVU429
 1343              	.LBB259:
 1344              	.LBI249:
 250:eurorack/stmlib/dsp/filter.h ****     float hp, bp, lp;
 1345              		.loc 4 250 15 view .LVU430
 1346              	.LBB253:
 1347              		.loc 4 252 30 is_stmt 0 view .LVU431
 1348 02c8 AAEE677A 		vfms.f32	s14, s20, s15
ARM GAS  /var/folders/9s/8rp0_f2s1n31qbztm3b5_fdh0000gn/T//ccqxwUOT.s 			page 49


 1349              		.loc 4 252 46 view .LVU432
 1350 02cc 37EE667A 		vsub.f32	s14, s14, s13
 1351              		.loc 4 252 8 view .LVU433
 1352 02d0 27EE067A 		vmul.f32	s14, s14, s12
 1353              	.LVL109:
 253:eurorack/stmlib/dsp/filter.h ****     bp = g_ * hp + state_1_;
 1354              		.loc 4 253 8 view .LVU434
 1355 02d4 A7EE27AA 		vfma.f32	s20, s14, s15
 1356              	.LVL110:
 254:eurorack/stmlib/dsp/filter.h ****     state_1_ = g_ * hp + bp;
 1357              		.loc 4 254 24 view .LVU435
 1358 02d8 B0EE4A6A 		vmov.f32	s12, s20
 1359 02dc A7EE276A 		vfma.f32	s12, s14, s15
 255:eurorack/stmlib/dsp/filter.h ****     lp = g_ * bp + state_2_;
 1360              		.loc 4 255 8 view .LVU436
 1361 02e0 B0EE667A 		vmov.f32	s14, s13
 1362              	.LVL111:
 1363              		.loc 4 255 8 view .LVU437
 1364 02e4 AAEE277A 		vfma.f32	s14, s20, s15
 1365              	.LVL112:
 254:eurorack/stmlib/dsp/filter.h ****     state_1_ = g_ * hp + bp;
 1366              		.loc 4 254 14 view .LVU438
 1367 02e8 84ED0D6A 		vstr.32	s12, [r4, #52]
 1368              	.LVL113:
 256:eurorack/stmlib/dsp/filter.h ****     state_2_ = g_ * bp + lp;
 1369              		.loc 4 256 24 view .LVU439
 1370 02ec F0EE476A 		vmov.f32	s13, s14
 257:eurorack/stmlib/dsp/filter.h ****     
 258:eurorack/stmlib/dsp/filter.h ****     if (mode_1 == FILTER_MODE_LOW_PASS) {
 259:eurorack/stmlib/dsp/filter.h ****       *out_1 = lp;
 260:eurorack/stmlib/dsp/filter.h ****     } else if (mode_1 == FILTER_MODE_BAND_PASS) {
 261:eurorack/stmlib/dsp/filter.h ****       *out_1 = bp;
 262:eurorack/stmlib/dsp/filter.h ****     } else if (mode_1 == FILTER_MODE_BAND_PASS_NORMALIZED) {
 263:eurorack/stmlib/dsp/filter.h ****       *out_1 = bp * r_;
 264:eurorack/stmlib/dsp/filter.h ****     } else if (mode_1 == FILTER_MODE_HIGH_PASS) {
 265:eurorack/stmlib/dsp/filter.h ****       *out_1 = hp;
 266:eurorack/stmlib/dsp/filter.h ****     }
 267:eurorack/stmlib/dsp/filter.h **** 
 268:eurorack/stmlib/dsp/filter.h ****     if (mode_2 == FILTER_MODE_LOW_PASS) {
 269:eurorack/stmlib/dsp/filter.h ****       *out_2 = lp;
 1371              		.loc 4 269 14 view .LVU440
 1372 02f0 84ED077A 		vstr.32	s14, [r4, #28]
 256:eurorack/stmlib/dsp/filter.h ****     state_2_ = g_ * bp + lp;
 1373              		.loc 4 256 24 view .LVU441
 1374 02f4 EAEE276A 		vfma.f32	s13, s20, s15
 256:eurorack/stmlib/dsp/filter.h ****     state_2_ = g_ * bp + lp;
 1375              		.loc 4 256 14 view .LVU442
 1376 02f8 C4ED0E6A 		vstr.32	s13, [r4, #56]
 1377              	.LVL114:
 270:eurorack/stmlib/dsp/filter.h ****     } else if (mode_2 == FILTER_MODE_BAND_PASS) {
 271:eurorack/stmlib/dsp/filter.h ****       *out_2 = bp;
 272:eurorack/stmlib/dsp/filter.h ****     } else if (mode_2 == FILTER_MODE_BAND_PASS_NORMALIZED) {
 273:eurorack/stmlib/dsp/filter.h ****       *out_2 = bp * r_;
 274:eurorack/stmlib/dsp/filter.h ****     } else if (mode_2 == FILTER_MODE_HIGH_PASS) {
 275:eurorack/stmlib/dsp/filter.h ****       *out_2 = hp;
 276:eurorack/stmlib/dsp/filter.h ****     }
 277:eurorack/stmlib/dsp/filter.h ****   }
ARM GAS  /var/folders/9s/8rp0_f2s1n31qbztm3b5_fdh0000gn/T//ccqxwUOT.s 			page 50


 1378              		.loc 4 277 3 view .LVU443
 1379 02fc 94E7     		b	.L42
 1380              	.LVL115:
 1381              	.L24:
 1382              		.loc 4 277 3 view .LVU444
 1383              	.LBE253:
 1384              	.LBE259:
 1385              	.LBE260:
 1386              	.LBB261:
 1387              	.LBI261:
  49:eurorack/stmlib/dsp/parameter_interpolator.h ****     *state_ = value_;
 1388              		.loc 10 49 3 is_stmt 1 view .LVU445
 1389              	.LBB262:
  50:eurorack/stmlib/dsp/parameter_interpolator.h ****   }
 1390              		.loc 10 50 5 view .LVU446
  50:eurorack/stmlib/dsp/parameter_interpolator.h ****   }
 1391              		.loc 10 50 13 is_stmt 0 view .LVU447
 1392 02fe 84ED09DA 		vstr.32	s26, [r4, #36]
 1393              	.LVL116:
  50:eurorack/stmlib/dsp/parameter_interpolator.h ****   }
 1394              		.loc 10 50 13 view .LVU448
 1395              	.LBE262:
 1396              	.LBE261:
 170:eurorack/plaits/dsp/drums/analog_bass_drum.h ****     }
 171:eurorack/plaits/dsp/drums/analog_bass_drum.h ****   }
 1397              		.loc 5 171 3 view .LVU449
 1398 0302 BDEC0E8B 		vldm	sp!, {d8-d14}
 1399              		.cfi_restore 92
 1400              		.cfi_restore 93
 1401              		.cfi_restore 90
 1402              		.cfi_restore 91
 1403              		.cfi_restore 88
 1404              		.cfi_restore 89
 1405              		.cfi_restore 86
 1406              		.cfi_restore 87
 1407              		.cfi_restore 84
 1408              		.cfi_restore 85
 1409              		.cfi_restore 82
 1410              		.cfi_restore 83
 1411              		.cfi_restore 80
 1412              		.cfi_restore 81
 1413              		.cfi_def_cfa_offset 24
 1414              	.LVL117:
 1415              		.loc 5 171 3 view .LVU450
 1416 0306 BDE8F081 		pop	{r4, r5, r6, r7, r8, pc}
 1417              	.LVL118:
 1418              	.L59:
 1419              		.loc 5 171 3 view .LVU451
 1420 030a 00BF     		.align	2
 1421              	.L58:
 1422 030c 0000A042 		.word	1117782016
 1423 0310 6F12833A 		.word	981668463
 1424 0314 0AD7A33D 		.word	1034147594
 1425 0318 0080BB44 		.word	1153138688
 1426 031c 0000D842 		.word	1121452032
 1427 0320 00000000 		.word	0
 1428 0324 5555553E 		.word	1045779797
ARM GAS  /var/folders/9s/8rp0_f2s1n31qbztm3b5_fdh0000gn/T//ccqxwUOT.s 			page 51


 1429 0328 3333333F 		.word	1060320051
 1430 032c 5839343D 		.word	1026832728
 1431 0330 CDCC4CBF 		.word	-1085485875
 1432 0334 9A99D93F 		.word	1071225242
 1433 0338 CDCCCC3E 		.word	1053609165
 1434 033c 00008044 		.word	1149239296
 1435 0340 00000000 		.word	_ZN6plaits8lut_sineE
 1436 0344 00040000 		.word	_ZN6plaits8lut_sineE+1024
 1437 0348 5555653F 		.word	1063605589
 1438 034c B1E47F3F 		.word	1065346225
 1439 0350 D7573941 		.word	1094277079
 1440 0354 DB0F4940 		.word	1078530011
 1441 0358 CDCC4C3E 		.word	1045220557
 1442              		.cfi_endproc
 1443              	.LFE1528:
 1445              		.section	.text._ZN6stmlib6Random8GetFloatEv,"axG",%progbits,_ZN6stmlib6Random8GetFloatEv,comdat
 1446              		.align	1
 1447              		.weak	_ZN6stmlib6Random8GetFloatEv
 1448              		.syntax unified
 1449              		.thumb
 1450              		.thumb_func
 1452              	_ZN6stmlib6Random8GetFloatEv:
 1453              	.LFB1533:
 1454              		.file 11 "eurorack/stmlib/utils/random.h"
   1:eurorack/stmlib/utils/random.h **** // Copyright 2012 Emilie Gillet.
   2:eurorack/stmlib/utils/random.h **** //
   3:eurorack/stmlib/utils/random.h **** // Author: Emilie Gillet (emilie.o.gillet@gmail.com)
   4:eurorack/stmlib/utils/random.h **** //
   5:eurorack/stmlib/utils/random.h **** // Permission is hereby granted, free of charge, to any person obtaining a copy
   6:eurorack/stmlib/utils/random.h **** // of this software and associated documentation files (the "Software"), to deal
   7:eurorack/stmlib/utils/random.h **** // in the Software without restriction, including without limitation the rights
   8:eurorack/stmlib/utils/random.h **** // to use, copy, modify, merge, publish, distribute, sublicense, and/or sell
   9:eurorack/stmlib/utils/random.h **** // copies of the Software, and to permit persons to whom the Software is
  10:eurorack/stmlib/utils/random.h **** // furnished to do so, subject to the following conditions:
  11:eurorack/stmlib/utils/random.h **** // 
  12:eurorack/stmlib/utils/random.h **** // The above copyright notice and this permission notice shall be included in
  13:eurorack/stmlib/utils/random.h **** // all copies or substantial portions of the Software.
  14:eurorack/stmlib/utils/random.h **** // 
  15:eurorack/stmlib/utils/random.h **** // THE SOFTWARE IS PROVIDED "AS IS", WITHOUT WARRANTY OF ANY KIND, EXPRESS OR
  16:eurorack/stmlib/utils/random.h **** // IMPLIED, INCLUDING BUT NOT LIMITED TO THE WARRANTIES OF MERCHANTABILITY,
  17:eurorack/stmlib/utils/random.h **** // FITNESS FOR A PARTICULAR PURPOSE AND NONINFRINGEMENT. IN NO EVENT SHALL THE
  18:eurorack/stmlib/utils/random.h **** // AUTHORS OR COPYRIGHT HOLDERS BE LIABLE FOR ANY CLAIM, DAMAGES OR OTHER
  19:eurorack/stmlib/utils/random.h **** // LIABILITY, WHETHER IN AN ACTION OF CONTRACT, TORT OR OTHERWISE, ARISING FROM,
  20:eurorack/stmlib/utils/random.h **** // OUT OF OR IN CONNECTION WITH THE SOFTWARE OR THE USE OR OTHER DEALINGS IN
  21:eurorack/stmlib/utils/random.h **** // THE SOFTWARE.
  22:eurorack/stmlib/utils/random.h **** // 
  23:eurorack/stmlib/utils/random.h **** // See http://creativecommons.org/licenses/MIT/ for more information.
  24:eurorack/stmlib/utils/random.h **** //
  25:eurorack/stmlib/utils/random.h **** // -----------------------------------------------------------------------------
  26:eurorack/stmlib/utils/random.h **** //
  27:eurorack/stmlib/utils/random.h **** // Fast 16-bit pseudo random number generator.
  28:eurorack/stmlib/utils/random.h **** 
  29:eurorack/stmlib/utils/random.h **** #ifndef STMLIB_UTILS_RANDOM_H_
  30:eurorack/stmlib/utils/random.h **** #define STMLIB_UTILS_RANDOM_H_
  31:eurorack/stmlib/utils/random.h **** 
  32:eurorack/stmlib/utils/random.h **** #include "stmlib/stmlib.h"
  33:eurorack/stmlib/utils/random.h **** 
ARM GAS  /var/folders/9s/8rp0_f2s1n31qbztm3b5_fdh0000gn/T//ccqxwUOT.s 			page 52


  34:eurorack/stmlib/utils/random.h **** namespace stmlib {
  35:eurorack/stmlib/utils/random.h **** 
  36:eurorack/stmlib/utils/random.h **** class Random {
  37:eurorack/stmlib/utils/random.h ****  public:
  38:eurorack/stmlib/utils/random.h ****   static inline uint32_t state() { return rng_state_; }
  39:eurorack/stmlib/utils/random.h **** 
  40:eurorack/stmlib/utils/random.h ****   static inline void Seed(uint32_t seed) {
  41:eurorack/stmlib/utils/random.h ****     rng_state_ = seed;
  42:eurorack/stmlib/utils/random.h ****   }
  43:eurorack/stmlib/utils/random.h **** 
  44:eurorack/stmlib/utils/random.h ****   static inline uint32_t GetWord() {
  45:eurorack/stmlib/utils/random.h ****     rng_state_ = rng_state_ * 1664525L + 1013904223L;
  46:eurorack/stmlib/utils/random.h ****     return state();
  47:eurorack/stmlib/utils/random.h ****   }
  48:eurorack/stmlib/utils/random.h ****   
  49:eurorack/stmlib/utils/random.h ****   static inline int16_t GetSample() {
  50:eurorack/stmlib/utils/random.h ****     return static_cast<int16_t>(GetWord() >> 16);
  51:eurorack/stmlib/utils/random.h ****   }
  52:eurorack/stmlib/utils/random.h **** 
  53:eurorack/stmlib/utils/random.h ****   static inline float GetFloat() {
 1455              		.loc 11 53 23 is_stmt 1 view -0
 1456              		.cfi_startproc
 1457              		@ args = 0, pretend = 0, frame = 0
 1458              		@ frame_needed = 0, uses_anonymous_args = 0
 1459              		@ link register save eliminated.
  54:eurorack/stmlib/utils/random.h ****     return static_cast<float>(GetWord()) / 4294967296.0f;
 1460              		.loc 11 54 5 view .LVU453
 1461              	.LBB265:
 1462              	.LBI265:
  44:eurorack/stmlib/utils/random.h ****     rng_state_ = rng_state_ * 1664525L + 1013904223L;
 1463              		.loc 11 44 26 view .LVU454
 1464              	.LBB266:
  45:eurorack/stmlib/utils/random.h ****     return state();
 1465              		.loc 11 45 5 view .LVU455
  45:eurorack/stmlib/utils/random.h ****     return state();
 1466              		.loc 11 45 29 is_stmt 0 view .LVU456
 1467 0000 074A     		ldr	r2, .L61
  45:eurorack/stmlib/utils/random.h ****     return state();
 1468              		.loc 11 45 40 view .LVU457
 1469 0002 0848     		ldr	r0, .L61+4
  45:eurorack/stmlib/utils/random.h ****     return state();
 1470              		.loc 11 45 29 view .LVU458
 1471 0004 1168     		ldr	r1, [r2]
  45:eurorack/stmlib/utils/random.h ****     return state();
 1472              		.loc 11 45 40 view .LVU459
 1473 0006 084B     		ldr	r3, .L61+8
 1474 0008 00FB0133 		mla	r3, r0, r1, r3
 1475              	.LBE266:
 1476              	.LBE265:
 1477              		.loc 11 54 12 view .LVU460
 1478 000c 07EE903A 		vmov	s15, r3	@ int
 1479              	.LBB268:
 1480              	.LBB267:
  45:eurorack/stmlib/utils/random.h ****     return state();
 1481              		.loc 11 45 16 view .LVU461
 1482 0010 1360     		str	r3, [r2]
  46:eurorack/stmlib/utils/random.h ****   }
ARM GAS  /var/folders/9s/8rp0_f2s1n31qbztm3b5_fdh0000gn/T//ccqxwUOT.s 			page 53


 1483              		.loc 11 46 5 is_stmt 1 view .LVU462
 1484              	.LBE267:
 1485              	.LBE268:
  38:eurorack/stmlib/utils/random.h **** 
 1486              		.loc 11 38 36 view .LVU463
 1487              		.loc 11 54 12 is_stmt 0 view .LVU464
 1488 0012 B8EE670A 		vcvt.f32.u32	s0, s15
  55:eurorack/stmlib/utils/random.h ****   }
 1489              		.loc 11 55 3 view .LVU465
 1490 0016 DFED057A 		vldr.32	s15, .L61+12
 1491 001a 20EE270A 		vmul.f32	s0, s0, s15
 1492 001e 7047     		bx	lr
 1493              	.L62:
 1494              		.align	2
 1495              	.L61:
 1496 0020 00000000 		.word	_ZN6stmlib6Random10rng_state_E
 1497 0024 0D661900 		.word	1664525
 1498 0028 5FF36E3C 		.word	1013904223
 1499 002c 0000802F 		.word	796917760
 1500              		.cfi_endproc
 1501              	.LFE1533:
 1503              		.section	.text._ZN6plaits17SyntheticBassDrum6RenderEbbfffffffPfj,"axG",%progbits,_ZN6plaits17Synth
 1504              		.align	1
 1505              		.weak	_ZN6plaits17SyntheticBassDrum6RenderEbbfffffffPfj
 1506              		.syntax unified
 1507              		.thumb
 1508              		.thumb_func
 1510              	_ZN6plaits17SyntheticBassDrum6RenderEbbfffffffPfj:
 1511              	.LVL119:
 1512              	.LFB1559:
 124:eurorack/plaits/dsp/drums/synthetic_bass_drum.h ****   
 125:eurorack/plaits/dsp/drums/synthetic_bass_drum.h ****   inline float TransistorVCA(float s, float gain) {
 126:eurorack/plaits/dsp/drums/synthetic_bass_drum.h ****     s = (s - 0.6f) * gain;
 127:eurorack/plaits/dsp/drums/synthetic_bass_drum.h ****     return 3.0f * s / (2.0f + fabsf(s)) + gain * 0.3f;
 128:eurorack/plaits/dsp/drums/synthetic_bass_drum.h ****   }
 129:eurorack/plaits/dsp/drums/synthetic_bass_drum.h ****   
 130:eurorack/plaits/dsp/drums/synthetic_bass_drum.h ****   void Render(
 1513              		.loc 2 130 8 is_stmt 1 view -0
 1514              		.cfi_startproc
 1515              		@ args = 4, pretend = 0, frame = 8
 1516              		@ frame_needed = 0, uses_anonymous_args = 0
 131:eurorack/plaits/dsp/drums/synthetic_bass_drum.h ****       bool sustain,
 132:eurorack/plaits/dsp/drums/synthetic_bass_drum.h ****       bool trigger,
 133:eurorack/plaits/dsp/drums/synthetic_bass_drum.h ****       float accent,
 134:eurorack/plaits/dsp/drums/synthetic_bass_drum.h ****       float f0,
 135:eurorack/plaits/dsp/drums/synthetic_bass_drum.h ****       float tone,
 136:eurorack/plaits/dsp/drums/synthetic_bass_drum.h ****       float decay,
 137:eurorack/plaits/dsp/drums/synthetic_bass_drum.h ****       float dirtiness,
 138:eurorack/plaits/dsp/drums/synthetic_bass_drum.h ****       float fm_envelope_amount,
 139:eurorack/plaits/dsp/drums/synthetic_bass_drum.h ****       float fm_envelope_decay,
 140:eurorack/plaits/dsp/drums/synthetic_bass_drum.h ****       float* out,
 141:eurorack/plaits/dsp/drums/synthetic_bass_drum.h ****       size_t size) {
 142:eurorack/plaits/dsp/drums/synthetic_bass_drum.h ****     decay *= decay;
 1517              		.loc 2 142 5 view .LVU467
 130:eurorack/plaits/dsp/drums/synthetic_bass_drum.h ****       bool sustain,
 1518              		.loc 2 130 8 is_stmt 0 view .LVU468
 1519 0000 2DE9F041 		push	{r4, r5, r6, r7, r8, lr}
ARM GAS  /var/folders/9s/8rp0_f2s1n31qbztm3b5_fdh0000gn/T//ccqxwUOT.s 			page 54


 1520              		.cfi_def_cfa_offset 24
 1521              		.cfi_offset 4, -24
 1522              		.cfi_offset 5, -20
 1523              		.cfi_offset 6, -16
 1524              		.cfi_offset 7, -12
 1525              		.cfi_offset 8, -8
 1526              		.cfi_offset 14, -4
 1527 0004 2DED108B 		vpush.64	{d8, d9, d10, d11, d12, d13, d14, d15}
 1528              		.cfi_def_cfa_offset 88
 1529              		.cfi_offset 80, -88
 1530              		.cfi_offset 81, -84
 1531              		.cfi_offset 82, -80
 1532              		.cfi_offset 83, -76
 1533              		.cfi_offset 84, -72
 1534              		.cfi_offset 85, -68
 1535              		.cfi_offset 86, -64
 1536              		.cfi_offset 87, -60
 1537              		.cfi_offset 88, -56
 1538              		.cfi_offset 89, -52
 1539              		.cfi_offset 90, -48
 1540              		.cfi_offset 91, -44
 1541              		.cfi_offset 92, -40
 1542              		.cfi_offset 93, -36
 1543              		.cfi_offset 94, -32
 1544              		.cfi_offset 95, -28
 1545 0008 82B0     		sub	sp, sp, #8
 1546              		.cfi_def_cfa_offset 96
 1547              	.LBB312:
 1548              	.LBB313:
 1549              	.LBB314:
  55:eurorack/stmlib/dsp/parameter_interpolator.h ****     increment_ = (new_value - *state) / static_cast<float>(size);
 1550              		.loc 10 55 14 view .LVU469
 1551 000a 90ED00FA 		vldr.32	s30, [r0]
 1552              	.LBE314:
 1553              	.LBE313:
 1554              	.LBE312:
 143:eurorack/plaits/dsp/drums/synthetic_bass_drum.h ****     fm_envelope_decay *= fm_envelope_decay;
 144:eurorack/plaits/dsp/drums/synthetic_bass_drum.h ****     
 145:eurorack/plaits/dsp/drums/synthetic_bass_drum.h ****     stmlib::ParameterInterpolator f0_mod(&f0_, f0, size);
 146:eurorack/plaits/dsp/drums/synthetic_bass_drum.h ****     
 147:eurorack/plaits/dsp/drums/synthetic_bass_drum.h ****     dirtiness *= std::max(1.0f - 8.0f * f0, 0.0f);
 1555              		.loc 2 147 32 view .LVU470
 1556 000e F7EE00EA 		vmov.f32	s29, #1.0e+0
 1557 0012 9FEDDCBA 		vldr.32	s22, .L91
 130:eurorack/plaits/dsp/drums/synthetic_bass_drum.h ****       bool sustain,
 1558              		.loc 2 130 8 view .LVU471
 1559 0016 189D     		ldr	r5, [sp, #96]
 1560              		.loc 2 147 32 view .LVU472
 1561 0018 B2EE007A 		vmov.f32	s14, #8.0e+0
 143:eurorack/plaits/dsp/drums/synthetic_bass_drum.h ****     fm_envelope_decay *= fm_envelope_decay;
 1562              		.loc 2 143 23 view .LVU473
 1563 001c 23EE033A 		vmul.f32	s6, s6, s6
 1564              	.LVL120:
 130:eurorack/plaits/dsp/drums/synthetic_bass_drum.h ****       bool sustain,
 1565              		.loc 2 130 8 view .LVU474
 1566 0020 0446     		mov	r4, r0
 1567              	.LBB325:
ARM GAS  /var/folders/9s/8rp0_f2s1n31qbztm3b5_fdh0000gn/T//ccqxwUOT.s 			page 55


 1568              	.LBB320:
 1569              	.LBB315:
  56:eurorack/stmlib/dsp/parameter_interpolator.h ****   }
 1570              		.loc 10 56 41 view .LVU475
 1571 0022 07EE905A 		vmov	s15, r5	@ int
 1572              	.LBE315:
 1573              	.LBE320:
 1574              	.LBE325:
 148:eurorack/plaits/dsp/drums/synthetic_bass_drum.h ****     
 149:eurorack/plaits/dsp/drums/synthetic_bass_drum.h ****     const float fm_decay = 1.0f - \
 150:eurorack/plaits/dsp/drums/synthetic_bass_drum.h ****         1.0f / (0.008f * (1.0f + fm_envelope_decay * 4.0f) * kSampleRate);
 1575              		.loc 2 150 32 view .LVU476
 1576 0026 B1EE00DA 		vmov.f32	s26, #4.0e+0
 142:eurorack/plaits/dsp/drums/synthetic_bass_drum.h ****     fm_envelope_decay *= fm_envelope_decay;
 1577              		.loc 2 142 11 view .LVU477
 1578 002a 21EEA1EA 		vmul.f32	s28, s3, s3
 1579              	.LVL121:
 143:eurorack/plaits/dsp/drums/synthetic_bass_drum.h ****     
 1580              		.loc 2 143 5 is_stmt 1 view .LVU478
 145:eurorack/plaits/dsp/drums/synthetic_bass_drum.h ****     
 1581              		.loc 2 145 5 view .LVU479
 1582              	.LBB326:
 1583              	.LBI312:
  39:eurorack/stmlib/dsp/parameter_interpolator.h ****     Init(state, new_value, size);
 1584              		.loc 10 39 3 view .LVU480
 1585              	.LBE326:
  40:eurorack/stmlib/dsp/parameter_interpolator.h ****   }
 1586              		.loc 10 40 5 view .LVU481
 1587              	.LBB327:
 1588              	.LBB321:
 1589              	.LBI313:
  53:eurorack/stmlib/dsp/parameter_interpolator.h ****     state_ = state;
 1590              		.loc 10 53 15 view .LVU482
 1591              	.LBB316:
  54:eurorack/stmlib/dsp/parameter_interpolator.h ****     value_ = *state;
 1592              		.loc 10 54 5 view .LVU483
  55:eurorack/stmlib/dsp/parameter_interpolator.h ****     increment_ = (new_value - *state) / static_cast<float>(size);
 1593              		.loc 10 55 5 view .LVU484
  56:eurorack/stmlib/dsp/parameter_interpolator.h ****   }
 1594              		.loc 10 56 5 view .LVU485
 1595              	.LBE316:
 1596              	.LBE321:
 1597              	.LBE327:
 130:eurorack/plaits/dsp/drums/synthetic_bass_drum.h ****       bool sustain,
 1598              		.loc 2 130 8 is_stmt 0 view .LVU486
 1599 002e 0F46     		mov	r7, r1
 1600              	.LBB328:
 1601              	.LBB322:
 1602              	.LBB317:
  56:eurorack/stmlib/dsp/parameter_interpolator.h ****   }
 1603              		.loc 10 56 41 view .LVU487
 1604 0030 F8EE67CA 		vcvt.f32.u32	s25, s15
 1605              	.LBE317:
 1606              	.LBE322:
 1607              	.LBE328:
 130:eurorack/plaits/dsp/drums/synthetic_bass_drum.h ****       bool sustain,
 1608              		.loc 2 130 8 view .LVU488
ARM GAS  /var/folders/9s/8rp0_f2s1n31qbztm3b5_fdh0000gn/T//ccqxwUOT.s 			page 56


 1609 0034 9046     		mov	r8, r2
 1610              	.LBB329:
 1611              	.LBB323:
 1612              	.LBB318:
  56:eurorack/stmlib/dsp/parameter_interpolator.h ****   }
 1613              		.loc 10 56 29 view .LVU489
 1614 0036 70EECF7A 		vsub.f32	s15, s1, s30
 1615              	.LBE318:
 1616              	.LBE323:
 1617              	.LBE329:
 130:eurorack/plaits/dsp/drums/synthetic_bass_drum.h ****       bool sustain,
 1618              		.loc 2 130 8 view .LVU490
 1619 003a 1E46     		mov	r6, r3
 1620 003c B0EE40CA 		vmov.f32	s24, s0
 151:eurorack/plaits/dsp/drums/synthetic_bass_drum.h **** 
 152:eurorack/plaits/dsp/drums/synthetic_bass_drum.h ****     const float body_env_decay = 1.0f - 1.0f / (0.02f * kSampleRate) * \
 153:eurorack/plaits/dsp/drums/synthetic_bass_drum.h ****         stmlib::SemitonesToRatio(-decay * 60.0f);
 1621              		.loc 2 153 33 view .LVU491
 1622 0040 9FEDD10A 		vldr.32	s0, .L91+4
 1623              	.LVL122:
 130:eurorack/plaits/dsp/drums/synthetic_bass_drum.h ****       bool sustain,
 1624              		.loc 2 130 8 view .LVU492
 1625 0044 B0EE609A 		vmov.f32	s18, s1
 1626              	.LBB330:
 1627              	.LBB324:
 1628              	.LBB319:
  56:eurorack/stmlib/dsp/parameter_interpolator.h ****   }
 1629              		.loc 10 56 39 view .LVU493
 1630 0048 C7EEACBA 		vdiv.f32	s23, s15, s25
 1631              	.LVL123:
  56:eurorack/stmlib/dsp/parameter_interpolator.h ****   }
 1632              		.loc 10 56 39 view .LVU494
 1633              	.LBE319:
 1634              	.LBE324:
 1635              	.LBE330:
 147:eurorack/plaits/dsp/drums/synthetic_bass_drum.h ****     
 1636              		.loc 2 147 5 is_stmt 1 view .LVU495
 147:eurorack/plaits/dsp/drums/synthetic_bass_drum.h ****     
 1637              		.loc 2 147 32 is_stmt 0 view .LVU496
 1638 004c F0EE6E7A 		vmov.f32	s15, s29
 1639              		.loc 2 153 33 view .LVU497
 1640 0050 2EEE400A 		vnmul.f32	s0, s28, s0
 1641              		.loc 2 153 48 view .LVU498
 1642 0054 F0EE6EDA 		vmov.f32	s27, s29
 147:eurorack/plaits/dsp/drums/synthetic_bass_drum.h ****     
 1643              		.loc 2 147 32 view .LVU499
 1644 0058 E0EEC77A 		vfms.f32	s15, s1, s14
 1645              	.LVL124:
 1646              	.LBB331:
 1647              	.LBI331:
 237:/Library/DaisyToolchain/0.2.0/arm/arm-none-eabi/include/c++/10.3.1/bits/stl_algobase.h ****       return __a;
 238:/Library/DaisyToolchain/0.2.0/arm/arm-none-eabi/include/c++/10.3.1/bits/stl_algobase.h ****     }
 239:/Library/DaisyToolchain/0.2.0/arm/arm-none-eabi/include/c++/10.3.1/bits/stl_algobase.h **** 
 240:/Library/DaisyToolchain/0.2.0/arm/arm-none-eabi/include/c++/10.3.1/bits/stl_algobase.h ****   /**
 241:/Library/DaisyToolchain/0.2.0/arm/arm-none-eabi/include/c++/10.3.1/bits/stl_algobase.h ****    *  @brief This does what you think it does.
 242:/Library/DaisyToolchain/0.2.0/arm/arm-none-eabi/include/c++/10.3.1/bits/stl_algobase.h ****    *  @ingroup sorting_algorithms
 243:/Library/DaisyToolchain/0.2.0/arm/arm-none-eabi/include/c++/10.3.1/bits/stl_algobase.h ****    *  @param  __a  A thing of arbitrary type.
ARM GAS  /var/folders/9s/8rp0_f2s1n31qbztm3b5_fdh0000gn/T//ccqxwUOT.s 			page 57


 244:/Library/DaisyToolchain/0.2.0/arm/arm-none-eabi/include/c++/10.3.1/bits/stl_algobase.h ****    *  @param  __b  Another thing of arbitrary type.
 245:/Library/DaisyToolchain/0.2.0/arm/arm-none-eabi/include/c++/10.3.1/bits/stl_algobase.h ****    *  @return   The greater of the parameters.
 246:/Library/DaisyToolchain/0.2.0/arm/arm-none-eabi/include/c++/10.3.1/bits/stl_algobase.h ****    *
 247:/Library/DaisyToolchain/0.2.0/arm/arm-none-eabi/include/c++/10.3.1/bits/stl_algobase.h ****    *  This is the simple classic generic implementation.  It will work on
 248:/Library/DaisyToolchain/0.2.0/arm/arm-none-eabi/include/c++/10.3.1/bits/stl_algobase.h ****    *  temporary expressions, since they are only evaluated once, unlike a
 249:/Library/DaisyToolchain/0.2.0/arm/arm-none-eabi/include/c++/10.3.1/bits/stl_algobase.h ****    *  preprocessor macro.
 250:/Library/DaisyToolchain/0.2.0/arm/arm-none-eabi/include/c++/10.3.1/bits/stl_algobase.h ****   */
 251:/Library/DaisyToolchain/0.2.0/arm/arm-none-eabi/include/c++/10.3.1/bits/stl_algobase.h ****   template<typename _Tp>
 252:/Library/DaisyToolchain/0.2.0/arm/arm-none-eabi/include/c++/10.3.1/bits/stl_algobase.h ****     _GLIBCXX14_CONSTEXPR
 253:/Library/DaisyToolchain/0.2.0/arm/arm-none-eabi/include/c++/10.3.1/bits/stl_algobase.h ****     inline const _Tp&
 254:/Library/DaisyToolchain/0.2.0/arm/arm-none-eabi/include/c++/10.3.1/bits/stl_algobase.h ****     max(const _Tp& __a, const _Tp& __b)
 1648              		.loc 9 254 5 is_stmt 1 view .LVU500
 1649              	.LBE331:
 150:eurorack/plaits/dsp/drums/synthetic_bass_drum.h **** 
 1650              		.loc 2 150 24 is_stmt 0 view .LVU501
 1651 005c 9FEDCB7A 		vldr.32	s14, .L91+8
 130:eurorack/plaits/dsp/drums/synthetic_bass_drum.h ****       bool sustain,
 1652              		.loc 2 130 8 view .LVU502
 1653 0060 F0EE419A 		vmov.f32	s19, s2
 1654 0064 F0EE62AA 		vmov.f32	s21, s5
 154:eurorack/plaits/dsp/drums/synthetic_bass_drum.h ****     const float transient_env_decay = 1.0f - 1.0f / (0.005f * kSampleRate);
 155:eurorack/plaits/dsp/drums/synthetic_bass_drum.h ****     const float tone_f = std::min(
 156:eurorack/plaits/dsp/drums/synthetic_bass_drum.h ****         4.0f * f0 * stmlib::SemitonesToRatio(tone * 108.0f),
 1655              		.loc 2 156 14 view .LVU503
 1656 0068 29EE0D9A 		vmul.f32	s18, s18, s26
 1657              	.LBB333:
 1658              	.LBB332:
 255:/Library/DaisyToolchain/0.2.0/arm/arm-none-eabi/include/c++/10.3.1/bits/stl_algobase.h ****     {
 256:/Library/DaisyToolchain/0.2.0/arm/arm-none-eabi/include/c++/10.3.1/bits/stl_algobase.h ****       // concept requirements
 257:/Library/DaisyToolchain/0.2.0/arm/arm-none-eabi/include/c++/10.3.1/bits/stl_algobase.h ****       __glibcxx_function_requires(_LessThanComparableConcept<_Tp>)
 258:/Library/DaisyToolchain/0.2.0/arm/arm-none-eabi/include/c++/10.3.1/bits/stl_algobase.h ****       //return  __a < __b ? __b : __a;
 259:/Library/DaisyToolchain/0.2.0/arm/arm-none-eabi/include/c++/10.3.1/bits/stl_algobase.h ****       if (__a < __b)
 260:/Library/DaisyToolchain/0.2.0/arm/arm-none-eabi/include/c++/10.3.1/bits/stl_algobase.h **** 	return __b;
 1659              		.loc 9 260 9 view .LVU504
 1660 006c F4EE4B7A 		vcmp.f32	s15, s22
 1661 0070 F1EE10FA 		vmrs	APSR_nzcv, FPSCR
 1662 0074 48BF     		it	mi
 1663 0076 F0EE4B7A 		vmovmi.f32	s15, s22
 1664              	.LVL125:
 1665              		.loc 9 260 9 view .LVU505
 1666              	.LBE332:
 1667              	.LBE333:
 147:eurorack/plaits/dsp/drums/synthetic_bass_drum.h ****     
 1668              		.loc 2 147 15 view .LVU506
 1669 007a 67EE828A 		vmul.f32	s17, s15, s4
 1670              	.LVL126:
 149:eurorack/plaits/dsp/drums/synthetic_bass_drum.h ****         1.0f / (0.008f * (1.0f + fm_envelope_decay * 4.0f) * kSampleRate);
 1671              		.loc 2 149 5 is_stmt 1 view .LVU507
 150:eurorack/plaits/dsp/drums/synthetic_bass_drum.h **** 
 1672              		.loc 2 150 32 is_stmt 0 view .LVU508
 1673 007e F0EE6E7A 		vmov.f32	s15, s29
 1674 0082 E3EE0D7A 		vfma.f32	s15, s6, s26
 150:eurorack/plaits/dsp/drums/synthetic_bass_drum.h **** 
 1675              		.loc 2 150 24 view .LVU509
 1676 0086 67EE877A 		vmul.f32	s15, s15, s14
 150:eurorack/plaits/dsp/drums/synthetic_bass_drum.h **** 
 1677              		.loc 2 150 60 view .LVU510
ARM GAS  /var/folders/9s/8rp0_f2s1n31qbztm3b5_fdh0000gn/T//ccqxwUOT.s 			page 58


 1678 008a 9FEDC17A 		vldr.32	s14, .L91+12
 1679 008e 67EE877A 		vmul.f32	s15, s15, s14
 150:eurorack/plaits/dsp/drums/synthetic_bass_drum.h **** 
 1680              		.loc 2 150 14 view .LVU511
 1681 0092 8EEEA7AA 		vdiv.f32	s20, s29, s15
 153:eurorack/plaits/dsp/drums/synthetic_bass_drum.h ****     const float transient_env_decay = 1.0f - 1.0f / (0.005f * kSampleRate);
 1682              		.loc 2 153 33 view .LVU512
 1683 0096 FFF7FEFF 		bl	_ZN6stmlib16SemitonesToRatioEf
 1684              	.LVL127:
 153:eurorack/plaits/dsp/drums/synthetic_bass_drum.h ****     const float transient_env_decay = 1.0f - 1.0f / (0.005f * kSampleRate);
 1685              		.loc 2 153 48 view .LVU513
 1686 009a DFEDBE7A 		vldr.32	s15, .L91+16
 1687 009e E0EE67DA 		vfms.f32	s27, s0, s15
 1688              		.loc 2 156 45 view .LVU514
 1689 00a2 9FEDBD0A 		vldr.32	s0, .L91+20
 1690 00a6 29EE800A 		vmul.f32	s0, s19, s0
 1691 00aa FFF7FEFF 		bl	_ZN6stmlib16SemitonesToRatioEf
 1692              	.LVL128:
 1693              		.loc 2 156 19 view .LVU515
 1694 00ae 29EE008A 		vmul.f32	s16, s18, s0
 1695              	.LBB334:
 1696              	.LBB335:
 236:/Library/DaisyToolchain/0.2.0/arm/arm-none-eabi/include/c++/10.3.1/bits/stl_algobase.h ****       return __a;
 1697              		.loc 9 236 9 view .LVU516
 1698 00b2 B4EE6E8A 		vcmp.f32	s16, s29
 1699 00b6 F1EE10FA 		vmrs	APSR_nzcv, FPSCR
 1700              	.LBE335:
 1701              	.LBE334:
 149:eurorack/plaits/dsp/drums/synthetic_bass_drum.h ****         1.0f / (0.008f * (1.0f + fm_envelope_decay * 4.0f) * kSampleRate);
 1702              		.loc 2 149 17 view .LVU517
 1703 00ba 3EEECAAA 		vsub.f32	s20, s29, s20
 1704              	.LVL129:
 152:eurorack/plaits/dsp/drums/synthetic_bass_drum.h ****         stmlib::SemitonesToRatio(-decay * 60.0f);
 1705              		.loc 2 152 5 is_stmt 1 view .LVU518
 154:eurorack/plaits/dsp/drums/synthetic_bass_drum.h ****     const float tone_f = std::min(
 1706              		.loc 2 154 5 view .LVU519
 155:eurorack/plaits/dsp/drums/synthetic_bass_drum.h ****         4.0f * f0 * stmlib::SemitonesToRatio(tone * 108.0f),
 1707              		.loc 2 155 5 view .LVU520
 1708              	.LBB337:
 1709              	.LBI334:
 230:/Library/DaisyToolchain/0.2.0/arm/arm-none-eabi/include/c++/10.3.1/bits/stl_algobase.h ****     {
 1710              		.loc 9 230 5 view .LVU521
 1711              	.LBB336:
 236:/Library/DaisyToolchain/0.2.0/arm/arm-none-eabi/include/c++/10.3.1/bits/stl_algobase.h ****       return __a;
 1712              		.loc 9 236 9 is_stmt 0 view .LVU522
 1713 00be 3EFE888A 		vselgt.f32	s16, s29, s16
 1714              	.LVL130:
 236:/Library/DaisyToolchain/0.2.0/arm/arm-none-eabi/include/c++/10.3.1/bits/stl_algobase.h ****       return __a;
 1715              		.loc 9 236 9 view .LVU523
 1716              	.LBE336:
 1717              	.LBE337:
 157:eurorack/plaits/dsp/drums/synthetic_bass_drum.h ****         1.0f);
 158:eurorack/plaits/dsp/drums/synthetic_bass_drum.h ****     const float transient_level = tone;
 1718              		.loc 2 158 5 is_stmt 1 view .LVU524
 159:eurorack/plaits/dsp/drums/synthetic_bass_drum.h ****     
 160:eurorack/plaits/dsp/drums/synthetic_bass_drum.h ****     if (trigger) {
 1719              		.loc 2 160 5 view .LVU525
ARM GAS  /var/folders/9s/8rp0_f2s1n31qbztm3b5_fdh0000gn/T//ccqxwUOT.s 			page 59


 1720 00c2 B8F1000F 		cmp	r8, #0
 1721 00c6 0FD0     		beq	.L66
 161:eurorack/plaits/dsp/drums/synthetic_bass_drum.h ****       fm_ = 1.0f;
 1722              		.loc 2 161 7 view .LVU526
 162:eurorack/plaits/dsp/drums/synthetic_bass_drum.h ****       body_env_ = transient_env_ = 0.3f + 0.7f * accent;
 1723              		.loc 2 162 41 is_stmt 0 view .LVU527
 1724 00c8 9FEDB47A 		vldr.32	s14, .L91+24
 163:eurorack/plaits/dsp/drums/synthetic_bass_drum.h ****       body_env_pulse_width_ = kSampleRate * 0.001f;
 164:eurorack/plaits/dsp/drums/synthetic_bass_drum.h ****       fm_pulse_width_ = kSampleRate * 0.0013f;
 1725              		.loc 2 164 23 view .LVU528
 1726 00cc 3022     		movs	r2, #48
 162:eurorack/plaits/dsp/drums/synthetic_bass_drum.h ****       body_env_ = transient_env_ = 0.3f + 0.7f * accent;
 1727              		.loc 2 162 41 view .LVU529
 1728 00ce DFEDB47A 		vldr.32	s15, .L91+28
 1729              		.loc 2 164 23 view .LVU530
 1730 00d2 3E23     		movs	r3, #62
 161:eurorack/plaits/dsp/drums/synthetic_bass_drum.h ****       body_env_ = transient_env_ = 0.3f + 0.7f * accent;
 1731              		.loc 2 161 11 view .LVU531
 1732 00d4 C4ED03EA 		vstr.32	s29, [r4, #12]
 162:eurorack/plaits/dsp/drums/synthetic_bass_drum.h ****       body_env_ = transient_env_ = 0.3f + 0.7f * accent;
 1733              		.loc 2 162 7 is_stmt 1 view .LVU532
 162:eurorack/plaits/dsp/drums/synthetic_bass_drum.h ****       body_env_ = transient_env_ = 0.3f + 0.7f * accent;
 1734              		.loc 2 162 41 is_stmt 0 view .LVU533
 1735 00d8 ECEE077A 		vfma.f32	s15, s24, s14
 1736              		.loc 2 164 23 view .LVU534
 1737 00dc C4E91423 		strd	r2, r3, [r4, #80]
 162:eurorack/plaits/dsp/drums/synthetic_bass_drum.h ****       body_env_ = transient_env_ = 0.3f + 0.7f * accent;
 1738              		.loc 2 162 34 view .LVU535
 1739 00e0 C4ED077A 		vstr.32	s15, [r4, #28]
 162:eurorack/plaits/dsp/drums/synthetic_bass_drum.h ****       body_env_ = transient_env_ = 0.3f + 0.7f * accent;
 1740              		.loc 2 162 17 view .LVU536
 1741 00e4 C4ED057A 		vstr.32	s15, [r4, #20]
 163:eurorack/plaits/dsp/drums/synthetic_bass_drum.h ****       body_env_pulse_width_ = kSampleRate * 0.001f;
 1742              		.loc 2 163 7 is_stmt 1 view .LVU537
 1743              	.L66:
 165:eurorack/plaits/dsp/drums/synthetic_bass_drum.h ****     }
 166:eurorack/plaits/dsp/drums/synthetic_bass_drum.h ****     
 167:eurorack/plaits/dsp/drums/synthetic_bass_drum.h ****     stmlib::ParameterInterpolator sustain_gain(
 1744              		.loc 2 167 5 view .LVU538
 1745              	.LVL131:
 1746              	.LBB338:
 1747              	.LBI338:
  39:eurorack/stmlib/dsp/parameter_interpolator.h ****     Init(state, new_value, size);
 1748              		.loc 10 39 3 view .LVU539
 1749              	.LBE338:
  40:eurorack/stmlib/dsp/parameter_interpolator.h ****   }
 1750              		.loc 10 40 5 view .LVU540
 1751              	.LBB341:
 1752              	.LBB339:
 1753              	.LBI339:
  53:eurorack/stmlib/dsp/parameter_interpolator.h ****     state_ = state;
 1754              		.loc 10 53 15 view .LVU541
 1755              	.LBB340:
  54:eurorack/stmlib/dsp/parameter_interpolator.h ****     value_ = *state;
 1756              		.loc 10 54 5 view .LVU542
  55:eurorack/stmlib/dsp/parameter_interpolator.h ****     increment_ = (new_value - *state) / static_cast<float>(size);
 1757              		.loc 10 55 5 view .LVU543
ARM GAS  /var/folders/9s/8rp0_f2s1n31qbztm3b5_fdh0000gn/T//ccqxwUOT.s 			page 60


  55:eurorack/stmlib/dsp/parameter_interpolator.h ****     increment_ = (new_value - *state) / static_cast<float>(size);
 1758              		.loc 10 55 14 is_stmt 0 view .LVU544
 1759 00e8 D4ED09FA 		vldr.32	s31, [r4, #36]
 1760              	.LVL132:
  56:eurorack/stmlib/dsp/parameter_interpolator.h ****   }
 1761              		.loc 10 56 5 is_stmt 1 view .LVU545
  56:eurorack/stmlib/dsp/parameter_interpolator.h ****   }
 1762              		.loc 10 56 29 is_stmt 0 view .LVU546
 1763 00ec F0EE6F7A 		vmov.f32	s15, s31
 1764 00f0 DEEE0C7A 		vfnms.f32	s15, s28, s24
  56:eurorack/stmlib/dsp/parameter_interpolator.h ****   }
 1765              		.loc 10 56 39 view .LVU547
 1766 00f4 87EEACEA 		vdiv.f32	s28, s15, s25
 1767              	.LVL133:
 1768              	.L80:
  56:eurorack/stmlib/dsp/parameter_interpolator.h ****   }
 1769              		.loc 10 56 39 view .LVU548
 1770              	.LBE340:
 1771              	.LBE339:
 1772              	.LBE341:
 168:eurorack/plaits/dsp/drums/synthetic_bass_drum.h ****         &sustain_gain_,
 169:eurorack/plaits/dsp/drums/synthetic_bass_drum.h ****         accent * decay,
 170:eurorack/plaits/dsp/drums/synthetic_bass_drum.h ****         size);
 171:eurorack/plaits/dsp/drums/synthetic_bass_drum.h ****     
 172:eurorack/plaits/dsp/drums/synthetic_bass_drum.h ****     while (size--) {
 1773              		.loc 2 172 5 is_stmt 1 view .LVU549
 1774              		.loc 2 172 16 view .LVU550
 1775              		.loc 2 172 16 is_stmt 0 view .LVU551
 1776 00f8 002D     		cmp	r5, #0
 1777 00fa 00F03981 		beq	.L67
 1778              	.LBB342:
 173:eurorack/plaits/dsp/drums/synthetic_bass_drum.h ****       ONE_POLE(phase_noise_, stmlib::Random::GetFloat() - 0.5f, 0.002f);
 1779              		.loc 2 173 7 is_stmt 1 view .LVU552
 1780 00fe FFF7FEFF 		bl	_ZN6stmlib6Random8GetFloatEv
 1781              	.LVL134:
 1782 0102 D4ED020A 		vldr.32	s1, [r4, #8]
 1783 0106 DFEDA77A 		vldr.32	s15, .L91+32
 1784 010a 9FEDA5CA 		vldr.32	s24, .L91+28
 1785 010e F6EE006A 		vmov.f32	s13, #5.0e-1
 1786 0112 9FEDA5DA 		vldr.32	s26, .L91+36
 1787 0116 B0EE089A 		vmov.f32	s18, #3.0e+0
 1788 011a F0EE00CA 		vmov.f32	s25, #2.0e+0
 1789 011e 30EE660A 		vsub.f32	s0, s0, s13
 1790 0122 30EE600A 		vsub.f32	s0, s0, s1
 1791 0126 E0EE270A 		vfma.f32	s1, s0, s15
 1792 012a C4ED020A 		vstr.32	s1, [r4, #8]
 1793              		.loc 2 173 72 view .LVU553
 174:eurorack/plaits/dsp/drums/synthetic_bass_drum.h ****       
 175:eurorack/plaits/dsp/drums/synthetic_bass_drum.h ****       float mix = 0.0f;
 1794              		.loc 2 175 7 view .LVU554
 1795              	.LVL135:
 176:eurorack/plaits/dsp/drums/synthetic_bass_drum.h **** 
 177:eurorack/plaits/dsp/drums/synthetic_bass_drum.h ****       if (sustain) {
 1796              		.loc 2 177 7 view .LVU555
 1797              	.LBB343:
 1798 012e 97B3     		cbz	r7, .L68
 1799              	.LBB344:
ARM GAS  /var/folders/9s/8rp0_f2s1n31qbztm3b5_fdh0000gn/T//ccqxwUOT.s 			page 61


 178:eurorack/plaits/dsp/drums/synthetic_bass_drum.h ****         phase_ += f0_mod.Next();
 1800              		.loc 2 178 9 view .LVU556
 1801              	.LVL136:
 1802              	.LBB345:
 1803              	.LBI345:
  59:eurorack/stmlib/dsp/parameter_interpolator.h ****     value_ += increment_;
 1804              		.loc 10 59 16 view .LVU557
 1805              	.LBB346:
  60:eurorack/stmlib/dsp/parameter_interpolator.h ****     return value_;
 1806              		.loc 10 60 5 view .LVU558
  60:eurorack/stmlib/dsp/parameter_interpolator.h ****     return value_;
 1807              		.loc 10 60 12 is_stmt 0 view .LVU559
 1808 0130 3FEE2BFA 		vadd.f32	s30, s30, s23
 1809              	.LVL137:
 1810              		.loc 10 61 5 is_stmt 1 view .LVU560
 1811              		.loc 10 61 5 is_stmt 0 view .LVU561
 1812              	.LBE346:
 1813              	.LBE345:
 1814              		.loc 2 178 16 view .LVU562
 1815 0134 D4ED017A 		vldr.32	s15, [r4, #4]
 179:eurorack/plaits/dsp/drums/synthetic_bass_drum.h ****         if (phase_ >= 1.0f) {
 180:eurorack/plaits/dsp/drums/synthetic_bass_drum.h ****           phase_ -= 1.0f;
 181:eurorack/plaits/dsp/drums/synthetic_bass_drum.h ****         }
 182:eurorack/plaits/dsp/drums/synthetic_bass_drum.h ****         float body = DistortedSine(phase_, phase_noise_, dirtiness);
 1816              		.loc 2 182 35 view .LVU563
 1817 0138 B0EE681A 		vmov.f32	s2, s17
 1818              	.LBB347:
 1819              	.LBB348:
  60:eurorack/stmlib/dsp/parameter_interpolator.h ****     return value_;
 1820              		.loc 10 60 12 view .LVU564
 1821 013c 7FEE8EFA 		vadd.f32	s31, s31, s28
 1822              	.LVL138:
  60:eurorack/stmlib/dsp/parameter_interpolator.h ****     return value_;
 1823              		.loc 10 60 12 view .LVU565
 1824              	.LBE348:
 1825              	.LBE347:
 178:eurorack/plaits/dsp/drums/synthetic_bass_drum.h ****         if (phase_ >= 1.0f) {
 1826              		.loc 2 178 16 view .LVU566
 1827 0140 7FEE277A 		vadd.f32	s15, s30, s15
 179:eurorack/plaits/dsp/drums/synthetic_bass_drum.h ****         if (phase_ >= 1.0f) {
 1828              		.loc 2 179 9 is_stmt 1 view .LVU567
 1829 0144 F4EEEE7A 		vcmpe.f32	s15, s29
 1830 0148 F1EE10FA 		vmrs	APSR_nzcv, FPSCR
 180:eurorack/plaits/dsp/drums/synthetic_bass_drum.h ****         }
 1831              		.loc 2 180 11 view .LVU568
 180:eurorack/plaits/dsp/drums/synthetic_bass_drum.h ****         }
 1832              		.loc 2 180 18 is_stmt 0 view .LVU569
 1833 014c A8BF     		it	ge
 1834 014e 77EEEE7A 		vsubge.f32	s15, s15, s29
 1835 0152 C4ED017A 		vstr.32	s15, [r4, #4]
 1836              		.loc 2 182 9 is_stmt 1 view .LVU570
 1837              		.loc 2 182 35 is_stmt 0 view .LVU571
 1838 0156 94ED010A 		vldr.32	s0, [r4, #4]
 1839 015a FFF7FEFF 		bl	_ZN6plaits17SyntheticBassDrum13DistortedSineEfff.isra.0
 1840              	.LVL139:
 183:eurorack/plaits/dsp/drums/synthetic_bass_drum.h ****         mix -= TransistorVCA(body, sustain_gain.Next());
 1841              		.loc 2 183 9 is_stmt 1 view .LVU572
ARM GAS  /var/folders/9s/8rp0_f2s1n31qbztm3b5_fdh0000gn/T//ccqxwUOT.s 			page 62


 1842              	.LBB350:
 1843              	.LBI347:
  59:eurorack/stmlib/dsp/parameter_interpolator.h ****     value_ += increment_;
 1844              		.loc 10 59 16 view .LVU573
 1845              	.LBB349:
  60:eurorack/stmlib/dsp/parameter_interpolator.h ****     return value_;
 1846              		.loc 10 60 5 view .LVU574
 1847              		.loc 10 61 5 view .LVU575
 1848              		.loc 10 61 5 is_stmt 0 view .LVU576
 1849              	.LBE349:
 1850              	.LBE350:
 1851              	.LBB351:
 1852              	.LBI351:
 125:eurorack/plaits/dsp/drums/synthetic_bass_drum.h ****     s = (s - 0.6f) * gain;
 1853              		.loc 2 125 16 is_stmt 1 view .LVU577
 1854              	.LBB352:
 126:eurorack/plaits/dsp/drums/synthetic_bass_drum.h ****     return 3.0f * s / (2.0f + fabsf(s)) + gain * 0.3f;
 1855              		.loc 2 126 5 view .LVU578
 126:eurorack/plaits/dsp/drums/synthetic_bass_drum.h ****     return 3.0f * s / (2.0f + fabsf(s)) + gain * 0.3f;
 1856              		.loc 2 126 12 is_stmt 0 view .LVU579
 1857 015e 30EE4DDA 		vsub.f32	s26, s0, s26
 126:eurorack/plaits/dsp/drums/synthetic_bass_drum.h ****     return 3.0f * s / (2.0f + fabsf(s)) + gain * 0.3f;
 1858              		.loc 2 126 7 view .LVU580
 1859 0162 2DEE2FDA 		vmul.f32	s26, s26, s31
 1860              	.LVL140:
 127:eurorack/plaits/dsp/drums/synthetic_bass_drum.h ****   }
 1861              		.loc 2 127 5 is_stmt 1 view .LVU581
 127:eurorack/plaits/dsp/drums/synthetic_bass_drum.h ****   }
 1862              		.loc 2 127 17 is_stmt 0 view .LVU582
 1863 0166 2DEE099A 		vmul.f32	s18, s26, s18
 127:eurorack/plaits/dsp/drums/synthetic_bass_drum.h ****   }
 1864              		.loc 2 127 36 view .LVU583
 1865 016a B0EECDDA 		vabs.f32	s26, s26
 1866              	.LVL141:
 127:eurorack/plaits/dsp/drums/synthetic_bass_drum.h ****   }
 1867              		.loc 2 127 29 view .LVU584
 1868 016e 7DEE2CCA 		vadd.f32	s25, s26, s25
 127:eurorack/plaits/dsp/drums/synthetic_bass_drum.h ****   }
 1869              		.loc 2 127 21 view .LVU585
 1870 0172 C9EE2C7A 		vdiv.f32	s15, s18, s25
 127:eurorack/plaits/dsp/drums/synthetic_bass_drum.h ****   }
 1871              		.loc 2 127 50 view .LVU586
 1872 0176 EFEE8C7A 		vfma.f32	s15, s31, s24
 1873              	.LVL142:
 127:eurorack/plaits/dsp/drums/synthetic_bass_drum.h ****   }
 1874              		.loc 2 127 50 view .LVU587
 1875              	.LBE352:
 1876              	.LBE351:
 1877              		.loc 2 183 13 view .LVU588
 1878 017a 7BEE677A 		vsub.f32	s15, s22, s15
 1879              	.LVL143:
 1880              	.L71:
 1881              		.loc 2 183 13 view .LVU589
 1882              	.LBE344:
 1883              	.LBE343:
 184:eurorack/plaits/dsp/drums/synthetic_bass_drum.h ****       } else {
 185:eurorack/plaits/dsp/drums/synthetic_bass_drum.h ****         if (fm_pulse_width_) {
ARM GAS  /var/folders/9s/8rp0_f2s1n31qbztm3b5_fdh0000gn/T//ccqxwUOT.s 			page 63


 186:eurorack/plaits/dsp/drums/synthetic_bass_drum.h ****           --fm_pulse_width_;
 187:eurorack/plaits/dsp/drums/synthetic_bass_drum.h ****           phase_ = 0.25f;
 188:eurorack/plaits/dsp/drums/synthetic_bass_drum.h ****         } else {
 189:eurorack/plaits/dsp/drums/synthetic_bass_drum.h ****           fm_ *= fm_decay;
 190:eurorack/plaits/dsp/drums/synthetic_bass_drum.h ****           float fm = 1.0f + fm_envelope_amount * 3.5f * fm_lp_;
 191:eurorack/plaits/dsp/drums/synthetic_bass_drum.h ****           phase_ += std::min(f0_mod.Next() * fm, 0.5f);
 192:eurorack/plaits/dsp/drums/synthetic_bass_drum.h ****           if (phase_ >= 1.0f) {
 193:eurorack/plaits/dsp/drums/synthetic_bass_drum.h ****             phase_ -= 1.0f;
 194:eurorack/plaits/dsp/drums/synthetic_bass_drum.h ****           }
 195:eurorack/plaits/dsp/drums/synthetic_bass_drum.h ****         }
 196:eurorack/plaits/dsp/drums/synthetic_bass_drum.h ****       
 197:eurorack/plaits/dsp/drums/synthetic_bass_drum.h ****         if (body_env_pulse_width_) {
 198:eurorack/plaits/dsp/drums/synthetic_bass_drum.h ****           --body_env_pulse_width_;
 199:eurorack/plaits/dsp/drums/synthetic_bass_drum.h ****         } else {
 200:eurorack/plaits/dsp/drums/synthetic_bass_drum.h ****           body_env_ *= body_env_decay;
 201:eurorack/plaits/dsp/drums/synthetic_bass_drum.h ****           transient_env_ *= transient_env_decay;
 202:eurorack/plaits/dsp/drums/synthetic_bass_drum.h ****         }
 203:eurorack/plaits/dsp/drums/synthetic_bass_drum.h ****       
 204:eurorack/plaits/dsp/drums/synthetic_bass_drum.h ****         const float envelope_lp_f = 0.1f;
 205:eurorack/plaits/dsp/drums/synthetic_bass_drum.h ****         ONE_POLE(body_env_lp_, body_env_, envelope_lp_f);
 206:eurorack/plaits/dsp/drums/synthetic_bass_drum.h ****         ONE_POLE(transient_env_lp_, transient_env_, envelope_lp_f);
 207:eurorack/plaits/dsp/drums/synthetic_bass_drum.h ****         ONE_POLE(fm_lp_, fm_, envelope_lp_f);
 208:eurorack/plaits/dsp/drums/synthetic_bass_drum.h ****       
 209:eurorack/plaits/dsp/drums/synthetic_bass_drum.h ****         float body = DistortedSine(phase_, phase_noise_, dirtiness);
 210:eurorack/plaits/dsp/drums/synthetic_bass_drum.h ****         float transient = click_.Process(
 211:eurorack/plaits/dsp/drums/synthetic_bass_drum.h ****             body_env_pulse_width_ ? 0.0f : 1.0f) + noise_.Render();
 212:eurorack/plaits/dsp/drums/synthetic_bass_drum.h ****       
 213:eurorack/plaits/dsp/drums/synthetic_bass_drum.h ****         mix -= TransistorVCA(body, body_env_lp_);
 214:eurorack/plaits/dsp/drums/synthetic_bass_drum.h ****         mix -= transient * transient_env_lp_ * transient_level;
 215:eurorack/plaits/dsp/drums/synthetic_bass_drum.h ****       }
 216:eurorack/plaits/dsp/drums/synthetic_bass_drum.h **** 
 217:eurorack/plaits/dsp/drums/synthetic_bass_drum.h ****       ONE_POLE(tone_lp_, mix, tone_f);
 1884              		.loc 2 217 7 is_stmt 1 view .LVU590
 1885 017e 94ED0A7A 		vldr.32	s14, [r4, #40]
 1886 0182 013D     		subs	r5, r5, #1
 1887              	.LVL144:
 1888              		.loc 2 217 7 is_stmt 0 view .LVU591
 1889 0184 77EEC77A 		vsub.f32	s15, s15, s14
 1890              	.LVL145:
 1891              		.loc 2 217 7 view .LVU592
 1892 0188 A7EE887A 		vfma.f32	s14, s15, s16
 1893 018c 84ED0A7A 		vstr.32	s14, [r4, #40]
 1894              		.loc 2 217 38 is_stmt 1 view .LVU593
 218:eurorack/plaits/dsp/drums/synthetic_bass_drum.h ****       *out++ = tone_lp_;
 1895              		.loc 2 218 7 view .LVU594
 1896              	.LVL146:
 1897              		.loc 2 218 14 is_stmt 0 view .LVU595
 1898 0190 A6EC017A 		vstmia.32	r6!, {s14}
 1899              	.LVL147:
 1900              		.loc 2 218 14 view .LVU596
 1901              	.LBE342:
 172:eurorack/plaits/dsp/drums/synthetic_bass_drum.h ****       ONE_POLE(phase_noise_, stmlib::Random::GetFloat() - 0.5f, 0.002f);
 1902              		.loc 2 172 5 view .LVU597
 1903 0194 B0E7     		b	.L80
 1904              	.LVL148:
 1905              	.L68:
 1906              	.LBB400:
ARM GAS  /var/folders/9s/8rp0_f2s1n31qbztm3b5_fdh0000gn/T//ccqxwUOT.s 			page 64


 1907              	.LBB399:
 1908              	.LBB353:
 185:eurorack/plaits/dsp/drums/synthetic_bass_drum.h ****           --fm_pulse_width_;
 1909              		.loc 2 185 9 is_stmt 1 view .LVU598
 1910              	.LBB354:
 185:eurorack/plaits/dsp/drums/synthetic_bass_drum.h ****           --fm_pulse_width_;
 1911              		.loc 2 185 13 is_stmt 0 view .LVU599
 1912 0196 636D     		ldr	r3, [r4, #84]
 1913              	.LBB355:
 190:eurorack/plaits/dsp/drums/synthetic_bass_drum.h ****           phase_ += std::min(f0_mod.Next() * fm, 0.5f);
 1914              		.loc 2 190 57 view .LVU600
 1915 0198 94ED047A 		vldr.32	s14, [r4, #16]
 1916              	.LBE355:
 185:eurorack/plaits/dsp/drums/synthetic_bass_drum.h ****           --fm_pulse_width_;
 1917              		.loc 2 185 9 view .LVU601
 1918 019c 002B     		cmp	r3, #0
 1919 019e 00F0B280 		beq	.L72
 186:eurorack/plaits/dsp/drums/synthetic_bass_drum.h ****           phase_ = 0.25f;
 1920              		.loc 2 186 11 is_stmt 1 view .LVU602
 1921 01a2 013B     		subs	r3, r3, #1
 1922 01a4 6365     		str	r3, [r4, #84]
 187:eurorack/plaits/dsp/drums/synthetic_bass_drum.h ****         } else {
 1923              		.loc 2 187 11 view .LVU603
 187:eurorack/plaits/dsp/drums/synthetic_bass_drum.h ****         } else {
 1924              		.loc 2 187 18 is_stmt 0 view .LVU604
 1925 01a6 4FF07A53 		mov	r3, #1048576000
 1926 01aa 6360     		str	r3, [r4, #4]	@ float
 1927              	.L73:
 187:eurorack/plaits/dsp/drums/synthetic_bass_drum.h ****         } else {
 1928              		.loc 2 187 18 view .LVU605
 1929              	.LBE354:
 197:eurorack/plaits/dsp/drums/synthetic_bass_drum.h ****           --body_env_pulse_width_;
 1930              		.loc 2 197 9 is_stmt 1 view .LVU606
 197:eurorack/plaits/dsp/drums/synthetic_bass_drum.h ****           --body_env_pulse_width_;
 1931              		.loc 2 197 13 is_stmt 0 view .LVU607
 1932 01ac 236D     		ldr	r3, [r4, #80]
 197:eurorack/plaits/dsp/drums/synthetic_bass_drum.h ****           --body_env_pulse_width_;
 1933              		.loc 2 197 9 view .LVU608
 1934 01ae 002B     		cmp	r3, #0
 1935 01b0 00F0CF80 		beq	.L76
 198:eurorack/plaits/dsp/drums/synthetic_bass_drum.h ****         } else {
 1936              		.loc 2 198 11 is_stmt 1 view .LVU609
 1937 01b4 013B     		subs	r3, r3, #1
 1938 01b6 2365     		str	r3, [r4, #80]
 1939              	.L77:
 204:eurorack/plaits/dsp/drums/synthetic_bass_drum.h ****         ONE_POLE(body_env_lp_, body_env_, envelope_lp_f);
 1940              		.loc 2 204 9 view .LVU610
 1941              	.LVL149:
 205:eurorack/plaits/dsp/drums/synthetic_bass_drum.h ****         ONE_POLE(transient_env_lp_, transient_env_, envelope_lp_f);
 1942              		.loc 2 205 9 view .LVU611
 1943 01b8 D4ED067A 		vldr.32	s15, [r4, #24]
 209:eurorack/plaits/dsp/drums/synthetic_bass_drum.h ****         float transient = click_.Process(
 1944              		.loc 2 209 35 is_stmt 0 view .LVU612
 1945 01bc B0EE681A 		vmov.f32	s2, s17
 205:eurorack/plaits/dsp/drums/synthetic_bass_drum.h ****         ONE_POLE(transient_env_lp_, transient_env_, envelope_lp_f);
 1946              		.loc 2 205 9 view .LVU613
 1947 01c0 D4ED056A 		vldr.32	s13, [r4, #20]
ARM GAS  /var/folders/9s/8rp0_f2s1n31qbztm3b5_fdh0000gn/T//ccqxwUOT.s 			page 65


 1948 01c4 9FED795A 		vldr.32	s10, .L91+40
 1949 01c8 76EEE76A 		vsub.f32	s13, s13, s15
 209:eurorack/plaits/dsp/drums/synthetic_bass_drum.h ****         float transient = click_.Process(
 1950              		.loc 2 209 35 view .LVU614
 1951 01cc 94ED010A 		vldr.32	s0, [r4, #4]
 205:eurorack/plaits/dsp/drums/synthetic_bass_drum.h ****         ONE_POLE(transient_env_lp_, transient_env_, envelope_lp_f);
 1952              		.loc 2 205 9 view .LVU615
 1953 01d0 E6EE857A 		vfma.f32	s15, s13, s10
 206:eurorack/plaits/dsp/drums/synthetic_bass_drum.h ****         ONE_POLE(fm_lp_, fm_, envelope_lp_f);
 1954              		.loc 2 206 9 view .LVU616
 1955 01d4 D4ED076A 		vldr.32	s13, [r4, #28]
 205:eurorack/plaits/dsp/drums/synthetic_bass_drum.h ****         ONE_POLE(transient_env_lp_, transient_env_, envelope_lp_f);
 1956              		.loc 2 205 9 view .LVU617
 1957 01d8 C4ED067A 		vstr.32	s15, [r4, #24]
 205:eurorack/plaits/dsp/drums/synthetic_bass_drum.h ****         ONE_POLE(transient_env_lp_, transient_env_, envelope_lp_f);
 1958              		.loc 2 205 57 is_stmt 1 view .LVU618
 206:eurorack/plaits/dsp/drums/synthetic_bass_drum.h ****         ONE_POLE(fm_lp_, fm_, envelope_lp_f);
 1959              		.loc 2 206 9 view .LVU619
 1960 01dc D4ED087A 		vldr.32	s15, [r4, #32]
 1961 01e0 76EEE76A 		vsub.f32	s13, s13, s15
 1962 01e4 E6EE857A 		vfma.f32	s15, s13, s10
 207:eurorack/plaits/dsp/drums/synthetic_bass_drum.h ****       
 1963              		.loc 2 207 9 is_stmt 0 view .LVU620
 1964 01e8 D4ED036A 		vldr.32	s13, [r4, #12]
 1965 01ec 76EEC76A 		vsub.f32	s13, s13, s14
 206:eurorack/plaits/dsp/drums/synthetic_bass_drum.h ****         ONE_POLE(fm_lp_, fm_, envelope_lp_f);
 1966              		.loc 2 206 9 view .LVU621
 1967 01f0 C4ED087A 		vstr.32	s15, [r4, #32]
 206:eurorack/plaits/dsp/drums/synthetic_bass_drum.h ****         ONE_POLE(fm_lp_, fm_, envelope_lp_f);
 1968              		.loc 2 206 67 is_stmt 1 view .LVU622
 207:eurorack/plaits/dsp/drums/synthetic_bass_drum.h ****       
 1969              		.loc 2 207 9 view .LVU623
 1970 01f4 F0EE477A 		vmov.f32	s15, s14
 1971 01f8 E6EE857A 		vfma.f32	s15, s13, s10
 1972 01fc C4ED047A 		vstr.32	s15, [r4, #16]
 207:eurorack/plaits/dsp/drums/synthetic_bass_drum.h ****       
 1973              		.loc 2 207 45 view .LVU624
 209:eurorack/plaits/dsp/drums/synthetic_bass_drum.h ****         float transient = click_.Process(
 1974              		.loc 2 209 9 view .LVU625
 209:eurorack/plaits/dsp/drums/synthetic_bass_drum.h ****         float transient = click_.Process(
 1975              		.loc 2 209 35 is_stmt 0 view .LVU626
 1976 0200 FFF7FEFF 		bl	_ZN6plaits17SyntheticBassDrum13DistortedSineEfff.isra.0
 1977              	.LVL150:
 210:eurorack/plaits/dsp/drums/synthetic_bass_drum.h ****             body_env_pulse_width_ ? 0.0f : 1.0f) + noise_.Render();
 1978              		.loc 2 210 41 view .LVU627
 1979 0204 236D     		ldr	r3, [r4, #80]
 1980 0206 F7EE007A 		vmov.f32	s15, #1.0e+0
 1981 020a 9FED5E7A 		vldr.32	s14, .L91
 1982 020e 002B     		cmp	r3, #0
 1983              	.LBB363:
 1984              	.LBB364:
 1985              	.LBB365:
  55:eurorack/plaits/dsp/drums/synthetic_bass_drum.h ****     ONE_POLE(hp_, lp_, 0.04f);
 1986              		.loc 2 55 5 view .LVU628
 1987 0210 B6EE006A 		vmov.f32	s12, #5.0e-1
 1988              	.LBE365:
 1989              	.LBE364:
ARM GAS  /var/folders/9s/8rp0_f2s1n31qbztm3b5_fdh0000gn/T//ccqxwUOT.s 			page 66


 1990              	.LBE363:
 209:eurorack/plaits/dsp/drums/synthetic_bass_drum.h ****         float transient = click_.Process(
 1991              		.loc 2 209 35 view .LVU629
 1992 0214 8DED010A 		vstr.32	s0, [sp, #4]	@ int
 1993              	.LVL151:
 210:eurorack/plaits/dsp/drums/synthetic_bass_drum.h ****             body_env_pulse_width_ ? 0.0f : 1.0f) + noise_.Render();
 1994              		.loc 2 210 9 is_stmt 1 view .LVU630
 210:eurorack/plaits/dsp/drums/synthetic_bass_drum.h ****             body_env_pulse_width_ ? 0.0f : 1.0f) + noise_.Render();
 1995              		.loc 2 210 41 is_stmt 0 view .LVU631
 1996 0218 07FE877A 		vseleq.f32	s14, s15, s14
 1997              	.LVL152:
 1998              	.LBB375:
 1999              	.LBI363:
  54:eurorack/plaits/dsp/drums/synthetic_bass_drum.h ****     SLOPE(lp_, in, 0.5f, 0.1f);
 2000              		.loc 2 54 9 is_stmt 1 view .LVU632
 2001              	.LBB374:
  55:eurorack/plaits/dsp/drums/synthetic_bass_drum.h ****     ONE_POLE(hp_, lp_, 0.04f);
 2002              		.loc 2 55 5 view .LVU633
 2003              	.LBB366:
  55:eurorack/plaits/dsp/drums/synthetic_bass_drum.h ****     ONE_POLE(hp_, lp_, 0.04f);
 2004              		.loc 2 55 5 view .LVU634
 2005 021c D4ED0B7A 		vldr.32	s15, [r4, #44]
 2006 0220 37EE677A 		vsub.f32	s14, s14, s15
 2007              	.LVL153:
  55:eurorack/plaits/dsp/drums/synthetic_bass_drum.h ****     ONE_POLE(hp_, lp_, 0.04f);
 2008              		.loc 2 55 5 view .LVU635
 2009 0224 B5EEC07A 		vcmpe.f32	s14, #0
 2010 0228 F1EE10FA 		vmrs	APSR_nzcv, FPSCR
 2011              	.LVL154:
  55:eurorack/plaits/dsp/drums/synthetic_bass_drum.h ****     ONE_POLE(hp_, lp_, 0.04f);
 2012              		.loc 2 55 5 is_stmt 0 view .LVU636
 2013 022c 36FE055A 		vselgt.f32	s10, s12, s10
 2014 0230 E7EE057A 		vfma.f32	s15, s14, s10
 2015              	.LBE366:
  56:eurorack/plaits/dsp/drums/synthetic_bass_drum.h ****     return filter_.Process<stmlib::FILTER_MODE_LOW_PASS>(lp_ - hp_);
 2016              		.loc 2 56 5 view .LVU637
 2017 0234 94ED0C7A 		vldr.32	s14, [r4, #48]
 2018              	.LVL155:
  56:eurorack/plaits/dsp/drums/synthetic_bass_drum.h ****     return filter_.Process<stmlib::FILTER_MODE_LOW_PASS>(lp_ - hp_);
 2019              		.loc 2 56 5 view .LVU638
 2020 0238 9FED5D6A 		vldr.32	s12, .L91+44
 2021              	.LBB367:
 2022              	.LBB368:
 232:eurorack/stmlib/dsp/filter.h ****     bp = g_ * hp + state_1_;
 2023              		.loc 4 232 32 view .LVU639
 2024 023c 94ED0D5A 		vldr.32	s10, [r4, #52]
 2025              	.LBE368:
 2026              	.LBE367:
  56:eurorack/plaits/dsp/drums/synthetic_bass_drum.h ****     return filter_.Process<stmlib::FILTER_MODE_LOW_PASS>(lp_ - hp_);
 2027              		.loc 2 56 5 view .LVU640
 2028 0240 77EEC75A 		vsub.f32	s11, s15, s14
 2029              	.LBB371:
  55:eurorack/plaits/dsp/drums/synthetic_bass_drum.h ****     ONE_POLE(hp_, lp_, 0.04f);
 2030              		.loc 2 55 5 view .LVU641
 2031 0244 C4ED0B7A 		vstr.32	s15, [r4, #44]
 2032              	.LVL156:
  55:eurorack/plaits/dsp/drums/synthetic_bass_drum.h ****     ONE_POLE(hp_, lp_, 0.04f);
ARM GAS  /var/folders/9s/8rp0_f2s1n31qbztm3b5_fdh0000gn/T//ccqxwUOT.s 			page 67


 2033              		.loc 2 55 5 view .LVU642
 2034              	.LBE371:
  55:eurorack/plaits/dsp/drums/synthetic_bass_drum.h ****     ONE_POLE(hp_, lp_, 0.04f);
 2035              		.loc 2 55 31 is_stmt 1 view .LVU643
  56:eurorack/plaits/dsp/drums/synthetic_bass_drum.h ****     return filter_.Process<stmlib::FILTER_MODE_LOW_PASS>(lp_ - hp_);
 2036              		.loc 2 56 5 view .LVU644
 2037 0248 A5EE867A 		vfma.f32	s14, s11, s12
 2038              	.LBB372:
 2039              	.LBB369:
 232:eurorack/stmlib/dsp/filter.h ****     bp = g_ * hp + state_1_;
 2040              		.loc 4 232 21 is_stmt 0 view .LVU645
 2041 024c 94ED106A 		vldr.32	s12, [r4, #64]
 232:eurorack/stmlib/dsp/filter.h ****     bp = g_ * hp + state_1_;
 2042              		.loc 4 232 14 view .LVU646
 2043 0250 D4ED0E5A 		vldr.32	s11, [r4, #56]
 2044              	.LBE369:
 2045              	.LBE372:
  57:eurorack/plaits/dsp/drums/synthetic_bass_drum.h ****   }
 2046              		.loc 2 57 57 view .LVU647
 2047 0254 77EEC77A 		vsub.f32	s15, s15, s14
  56:eurorack/plaits/dsp/drums/synthetic_bass_drum.h ****     return filter_.Process<stmlib::FILTER_MODE_LOW_PASS>(lp_ - hp_);
 2048              		.loc 2 56 5 view .LVU648
 2049 0258 84ED0C7A 		vstr.32	s14, [r4, #48]
  56:eurorack/plaits/dsp/drums/synthetic_bass_drum.h ****     return filter_.Process<stmlib::FILTER_MODE_LOW_PASS>(lp_ - hp_);
 2050              		.loc 2 56 30 is_stmt 1 view .LVU649
  57:eurorack/plaits/dsp/drums/synthetic_bass_drum.h ****   }
 2051              		.loc 2 57 5 view .LVU650
 2052              	.LVL157:
 2053              	.LBB373:
 2054              	.LBI367:
 230:eurorack/stmlib/dsp/filter.h ****     float hp, bp, lp;
 2055              		.loc 4 230 16 view .LVU651
 2056              	.LBB370:
 232:eurorack/stmlib/dsp/filter.h ****     bp = g_ * hp + state_1_;
 2057              		.loc 4 232 48 is_stmt 0 view .LVU652
 2058 025c 94ED117A 		vldr.32	s14, [r4, #68]
 232:eurorack/stmlib/dsp/filter.h ****     bp = g_ * hp + state_1_;
 2059              		.loc 4 232 14 view .LVU653
 2060 0260 E5EEC67A 		vfms.f32	s15, s11, s12
 232:eurorack/stmlib/dsp/filter.h ****     bp = g_ * hp + state_1_;
 2061              		.loc 4 232 8 view .LVU654
 2062 0264 D4ED0F5A 		vldr.32	s11, [r4, #60]
 232:eurorack/stmlib/dsp/filter.h ****     bp = g_ * hp + state_1_;
 2063              		.loc 4 232 30 view .LVU655
 2064 0268 E6EE457A 		vfms.f32	s15, s12, s10
 232:eurorack/stmlib/dsp/filter.h ****     bp = g_ * hp + state_1_;
 2065              		.loc 4 232 46 view .LVU656
 2066 026c 77EEC77A 		vsub.f32	s15, s15, s14
 232:eurorack/stmlib/dsp/filter.h ****     bp = g_ * hp + state_1_;
 2067              		.loc 4 232 8 view .LVU657
 2068 0270 67EEA57A 		vmul.f32	s15, s15, s11
 2069              	.LVL158:
 233:eurorack/stmlib/dsp/filter.h ****     state_1_ = g_ * hp + bp;
 2070              		.loc 4 233 8 view .LVU658
 2071 0274 A5EE276A 		vfma.f32	s12, s10, s15
 2072              	.LVL159:
 235:eurorack/stmlib/dsp/filter.h ****     state_2_ = g_ * bp + lp;
ARM GAS  /var/folders/9s/8rp0_f2s1n31qbztm3b5_fdh0000gn/T//ccqxwUOT.s 			page 68


 2073              		.loc 4 235 8 view .LVU659
 2074 0278 A5EE067A 		vfma.f32	s14, s10, s12
 2075              	.LVL160:
 234:eurorack/stmlib/dsp/filter.h ****     lp = g_ * bp + state_2_;
 2076              		.loc 4 234 24 view .LVU660
 2077 027c F0EE465A 		vmov.f32	s11, s12
 2078 0280 E5EE275A 		vfma.f32	s11, s10, s15
 236:eurorack/stmlib/dsp/filter.h ****     
 2079              		.loc 4 236 24 view .LVU661
 2080 0284 F0EE477A 		vmov.f32	s15, s14
 2081              	.LVL161:
 236:eurorack/stmlib/dsp/filter.h ****     
 2082              		.loc 4 236 24 view .LVU662
 2083 0288 8DED007A 		vstr.32	s14, [sp]	@ int
 2084 028c E5EE067A 		vfma.f32	s15, s10, s12
 234:eurorack/stmlib/dsp/filter.h ****     lp = g_ * bp + state_2_;
 2085              		.loc 4 234 14 view .LVU663
 2086 0290 C4ED105A 		vstr.32	s11, [r4, #64]
 2087              	.LVL162:
 236:eurorack/stmlib/dsp/filter.h ****     
 2088              		.loc 4 236 14 view .LVU664
 2089 0294 C4ED117A 		vstr.32	s15, [r4, #68]
 2090              	.LVL163:
 236:eurorack/stmlib/dsp/filter.h ****     
 2091              		.loc 4 236 14 view .LVU665
 2092              	.LBE370:
 2093              	.LBE373:
 2094              	.LBE374:
 2095              	.LBE375:
 2096              	.LBB376:
 2097              	.LBI376:
  78:eurorack/plaits/dsp/drums/synthetic_bass_drum.h ****     float sample = stmlib::Random::GetFloat();
 2098              		.loc 2 78 9 is_stmt 1 view .LVU666
 2099              	.LBB377:
  79:eurorack/plaits/dsp/drums/synthetic_bass_drum.h ****     ONE_POLE(lp_, sample, 0.05f);
 2100              		.loc 2 79 5 view .LVU667
  79:eurorack/plaits/dsp/drums/synthetic_bass_drum.h ****     ONE_POLE(lp_, sample, 0.05f);
 2101              		.loc 2 79 44 is_stmt 0 view .LVU668
 2102 0298 FFF7FEFF 		bl	_ZN6stmlib6Random8GetFloatEv
 2103              	.LVL164:
  80:eurorack/plaits/dsp/drums/synthetic_bass_drum.h ****     ONE_POLE(hp_, lp_, 0.005f);
 2104              		.loc 2 80 5 is_stmt 1 view .LVU669
 2105 029c D4ED127A 		vldr.32	s15, [r4, #72]
 2106 02a0 9FED447A 		vldr.32	s14, .L91+48
 2107 02a4 30EE670A 		vsub.f32	s0, s0, s15
 2108              	.LVL165:
  80:eurorack/plaits/dsp/drums/synthetic_bass_drum.h ****     ONE_POLE(hp_, lp_, 0.005f);
 2109              		.loc 2 80 5 is_stmt 0 view .LVU670
 2110              	.LBE377:
 2111              	.LBE376:
 2112              	.LBB382:
 2113              	.LBB383:
 126:eurorack/plaits/dsp/drums/synthetic_bass_drum.h ****     return 3.0f * s / (2.0f + fabsf(s)) + gain * 0.3f;
 2114              		.loc 2 126 12 view .LVU671
 2115 02a8 DDED016A 		vldr.32	s13, [sp, #4]	@ int
 2116              	.LBE383:
 2117              	.LBE382:
ARM GAS  /var/folders/9s/8rp0_f2s1n31qbztm3b5_fdh0000gn/T//ccqxwUOT.s 			page 69


 2118              	.LBB389:
 2119              	.LBB378:
  81:eurorack/plaits/dsp/drums/synthetic_bass_drum.h ****     return lp_ - hp_;
 2120              		.loc 2 81 5 view .LVU672
 2121 02ac 9FED426A 		vldr.32	s12, .L91+52
 2122              	.LBE378:
 2123              	.LBE389:
 2124              	.LBB390:
 2125              	.LBB384:
 126:eurorack/plaits/dsp/drums/synthetic_bass_drum.h ****     return 3.0f * s / (2.0f + fabsf(s)) + gain * 0.3f;
 2126              		.loc 2 126 12 view .LVU673
 2127 02b0 36EECDDA 		vsub.f32	s26, s13, s26
 2128              	.LBE384:
 2129              	.LBE390:
 211:eurorack/plaits/dsp/drums/synthetic_bass_drum.h ****       
 2130              		.loc 2 211 66 view .LVU674
 2131 02b4 DDED005A 		vldr.32	s11, [sp]	@ int
 2132              	.LBB391:
 2133              	.LBB379:
  80:eurorack/plaits/dsp/drums/synthetic_bass_drum.h ****     ONE_POLE(hp_, lp_, 0.005f);
 2134              		.loc 2 80 5 view .LVU675
 2135 02b8 E0EE077A 		vfma.f32	s15, s0, s14
  81:eurorack/plaits/dsp/drums/synthetic_bass_drum.h ****     return lp_ - hp_;
 2136              		.loc 2 81 5 view .LVU676
 2137 02bc 94ED137A 		vldr.32	s14, [r4, #76]
 2138              	.LBE379:
 2139              	.LBE391:
 214:eurorack/plaits/dsp/drums/synthetic_bass_drum.h ****       }
 2140              		.loc 2 214 26 view .LVU677
 2141 02c0 D4ED086A 		vldr.32	s13, [r4, #32]
 2142              	.LBB392:
 2143              	.LBB380:
  81:eurorack/plaits/dsp/drums/synthetic_bass_drum.h ****     return lp_ - hp_;
 2144              		.loc 2 81 5 view .LVU678
 2145 02c4 37EEC75A 		vsub.f32	s10, s15, s14
  80:eurorack/plaits/dsp/drums/synthetic_bass_drum.h ****     ONE_POLE(hp_, lp_, 0.005f);
 2146              		.loc 2 80 5 view .LVU679
 2147 02c8 C4ED127A 		vstr.32	s15, [r4, #72]
  80:eurorack/plaits/dsp/drums/synthetic_bass_drum.h ****     ONE_POLE(hp_, lp_, 0.005f);
 2148              		.loc 2 80 33 is_stmt 1 view .LVU680
  81:eurorack/plaits/dsp/drums/synthetic_bass_drum.h ****     return lp_ - hp_;
 2149              		.loc 2 81 5 view .LVU681
 2150 02cc A5EE067A 		vfma.f32	s14, s10, s12
 2151              	.LBE380:
 2152              	.LBE392:
 213:eurorack/plaits/dsp/drums/synthetic_bass_drum.h ****         mix -= transient * transient_env_lp_ * transient_level;
 2153              		.loc 2 213 29 is_stmt 0 view .LVU682
 2154 02d0 94ED066A 		vldr.32	s12, [r4, #24]
 2155              	.LBB393:
 2156              	.LBB385:
 126:eurorack/plaits/dsp/drums/synthetic_bass_drum.h ****     return 3.0f * s / (2.0f + fabsf(s)) + gain * 0.3f;
 2157              		.loc 2 126 7 view .LVU683
 2158 02d4 2DEE06DA 		vmul.f32	s26, s26, s12
 127:eurorack/plaits/dsp/drums/synthetic_bass_drum.h ****   }
 2159              		.loc 2 127 17 view .LVU684
 2160 02d8 2DEE099A 		vmul.f32	s18, s26, s18
 127:eurorack/plaits/dsp/drums/synthetic_bass_drum.h ****   }
ARM GAS  /var/folders/9s/8rp0_f2s1n31qbztm3b5_fdh0000gn/T//ccqxwUOT.s 			page 70


 2161              		.loc 2 127 36 view .LVU685
 2162 02dc B0EECDDA 		vabs.f32	s26, s26
 2163              	.LBE385:
 2164              	.LBE393:
 2165              	.LBB394:
 2166              	.LBB381:
  81:eurorack/plaits/dsp/drums/synthetic_bass_drum.h ****     return lp_ - hp_;
 2167              		.loc 2 81 5 view .LVU686
 2168 02e0 84ED137A 		vstr.32	s14, [r4, #76]
  81:eurorack/plaits/dsp/drums/synthetic_bass_drum.h ****     return lp_ - hp_;
 2169              		.loc 2 81 31 is_stmt 1 view .LVU687
  82:eurorack/plaits/dsp/drums/synthetic_bass_drum.h ****   }
 2170              		.loc 2 82 5 view .LVU688
 2171              	.LVL166:
  82:eurorack/plaits/dsp/drums/synthetic_bass_drum.h ****   }
 2172              		.loc 2 82 18 is_stmt 0 view .LVU689
 2173 02e4 77EEC77A 		vsub.f32	s15, s15, s14
 2174              	.LBE381:
 2175              	.LBE394:
 2176              	.LBB395:
 2177              	.LBB386:
 127:eurorack/plaits/dsp/drums/synthetic_bass_drum.h ****   }
 2178              		.loc 2 127 29 view .LVU690
 2179 02e8 7DEE2CCA 		vadd.f32	s25, s26, s25
 2180              	.LBE386:
 2181              	.LBE395:
