ARM GAS  /var/folders/9s/8rp0_f2s1n31qbztm3b5_fdh0000gn/T//cczTgMG8.s 			page 1


   1              		.cpu cortex-m7
   2              		.arch armv7e-m
   3              		.fpu fpv5-d16
   4              		.eabi_attribute 28, 1
   5              		.eabi_attribute 20, 1
   6              		.eabi_attribute 21, 1
   7              		.eabi_attribute 23, 3
   8              		.eabi_attribute 24, 1
   9              		.eabi_attribute 25, 1
  10              		.eabi_attribute 26, 1
  11              		.eabi_attribute 30, 4
  12              		.eabi_attribute 34, 1
  13              		.eabi_attribute 18, 4
  14              		.file	"chord_engine.cc"
  15              		.text
  16              	.Ltext0:
  17              		.cfi_sections	.debug_frame
  18              		.section	.text._ZN6plaits11ChordEngine4InitEPN6stmlib15BufferAllocatorE,"ax",%progbits
  19              		.align	1
  20              		.global	_ZN6plaits11ChordEngine4InitEPN6stmlib15BufferAllocatorE
  21              		.syntax unified
  22              		.thumb
  23              		.thumb_func
  25              	_ZN6plaits11ChordEngine4InitEPN6stmlib15BufferAllocatorE:
  26              	.LVL0:
  27              	.LFB1505:
  28              		.file 1 "eurorack/plaits/dsp/engine/chord_engine.cc"
   1:eurorack/plaits/dsp/engine/chord_engine.cc **** // Copyright 2016 Emilie Gillet.
   2:eurorack/plaits/dsp/engine/chord_engine.cc **** //
   3:eurorack/plaits/dsp/engine/chord_engine.cc **** // Author: Emilie Gillet (emilie.o.gillet@gmail.com)
   4:eurorack/plaits/dsp/engine/chord_engine.cc **** //
   5:eurorack/plaits/dsp/engine/chord_engine.cc **** // Permission is hereby granted, free of charge, to any person obtaining a copy
   6:eurorack/plaits/dsp/engine/chord_engine.cc **** // of this software and associated documentation files (the "Software"), to deal
   7:eurorack/plaits/dsp/engine/chord_engine.cc **** // in the Software without restriction, including without limitation the rights
   8:eurorack/plaits/dsp/engine/chord_engine.cc **** // to use, copy, modify, merge, publish, distribute, sublicense, and/or sell
   9:eurorack/plaits/dsp/engine/chord_engine.cc **** // copies of the Software, and to permit persons to whom the Software is
  10:eurorack/plaits/dsp/engine/chord_engine.cc **** // furnished to do so, subject to the following conditions:
  11:eurorack/plaits/dsp/engine/chord_engine.cc **** // 
  12:eurorack/plaits/dsp/engine/chord_engine.cc **** // The above copyright notice and this permission notice shall be included in
  13:eurorack/plaits/dsp/engine/chord_engine.cc **** // all copies or substantial portions of the Software.
  14:eurorack/plaits/dsp/engine/chord_engine.cc **** // 
  15:eurorack/plaits/dsp/engine/chord_engine.cc **** // THE SOFTWARE IS PROVIDED "AS IS", WITHOUT WARRANTY OF ANY KIND, EXPRESS OR
  16:eurorack/plaits/dsp/engine/chord_engine.cc **** // IMPLIED, INCLUDING BUT NOT LIMITED TO THE WARRANTIES OF MERCHANTABILITY,
  17:eurorack/plaits/dsp/engine/chord_engine.cc **** // FITNESS FOR A PARTICULAR PURPOSE AND NONINFRINGEMENT. IN NO EVENT SHALL THE
  18:eurorack/plaits/dsp/engine/chord_engine.cc **** // AUTHORS OR COPYRIGHT HOLDERS BE LIABLE FOR ANY CLAIM, DAMAGES OR OTHER
  19:eurorack/plaits/dsp/engine/chord_engine.cc **** // LIABILITY, WHETHER IN AN ACTION OF CONTRACT, TORT OR OTHERWISE, ARISING FROM,
  20:eurorack/plaits/dsp/engine/chord_engine.cc **** // OUT OF OR IN CONNECTION WITH THE SOFTWARE OR THE USE OR OTHER DEALINGS IN
  21:eurorack/plaits/dsp/engine/chord_engine.cc **** // THE SOFTWARE.
  22:eurorack/plaits/dsp/engine/chord_engine.cc **** // 
  23:eurorack/plaits/dsp/engine/chord_engine.cc **** // See http://creativecommons.org/licenses/MIT/ for more information.
  24:eurorack/plaits/dsp/engine/chord_engine.cc **** //
  25:eurorack/plaits/dsp/engine/chord_engine.cc **** // -----------------------------------------------------------------------------
  26:eurorack/plaits/dsp/engine/chord_engine.cc **** //
  27:eurorack/plaits/dsp/engine/chord_engine.cc **** // Chords: wavetable and divide-down organ/string machine.
  28:eurorack/plaits/dsp/engine/chord_engine.cc **** 
  29:eurorack/plaits/dsp/engine/chord_engine.cc **** #include "plaits/dsp/engine/chord_engine.h"
  30:eurorack/plaits/dsp/engine/chord_engine.cc **** 
ARM GAS  /var/folders/9s/8rp0_f2s1n31qbztm3b5_fdh0000gn/T//cczTgMG8.s 			page 2


  31:eurorack/plaits/dsp/engine/chord_engine.cc **** #include <algorithm>
  32:eurorack/plaits/dsp/engine/chord_engine.cc **** 
  33:eurorack/plaits/dsp/engine/chord_engine.cc **** #include "plaits/resources.h"
  34:eurorack/plaits/dsp/engine/chord_engine.cc **** 
  35:eurorack/plaits/dsp/engine/chord_engine.cc **** namespace plaits {
  36:eurorack/plaits/dsp/engine/chord_engine.cc **** 
  37:eurorack/plaits/dsp/engine/chord_engine.cc **** using namespace std;
  38:eurorack/plaits/dsp/engine/chord_engine.cc **** using namespace stmlib;
  39:eurorack/plaits/dsp/engine/chord_engine.cc **** 
  40:eurorack/plaits/dsp/engine/chord_engine.cc **** const float chords[kChordNumChords][kChordNumNotes] = {
  41:eurorack/plaits/dsp/engine/chord_engine.cc ****   { 0.00f, 0.01f, 11.99f, 12.00f },  // OCT
  42:eurorack/plaits/dsp/engine/chord_engine.cc ****   { 0.00f, 7.01f,  7.00f, 12.00f },  // 5
  43:eurorack/plaits/dsp/engine/chord_engine.cc ****   { 0.00f, 5.00f,  7.00f, 12.00f },  // sus4
  44:eurorack/plaits/dsp/engine/chord_engine.cc ****   { 0.00f, 3.00f,  7.00f, 12.00f },  // m
  45:eurorack/plaits/dsp/engine/chord_engine.cc ****   { 0.00f, 3.00f,  7.00f, 10.00f },  // m7
  46:eurorack/plaits/dsp/engine/chord_engine.cc ****   { 0.00f, 3.00f, 10.00f, 14.00f },  // m9
  47:eurorack/plaits/dsp/engine/chord_engine.cc ****   { 0.00f, 3.00f, 10.00f, 17.00f },  // m11
  48:eurorack/plaits/dsp/engine/chord_engine.cc ****   { 0.00f, 2.00f,  9.00f, 16.00f },  // 69
  49:eurorack/plaits/dsp/engine/chord_engine.cc ****   { 0.00f, 4.00f, 11.00f, 14.00f },  // M9
  50:eurorack/plaits/dsp/engine/chord_engine.cc ****   { 0.00f, 4.00f,  7.00f, 11.00f },  // M7
  51:eurorack/plaits/dsp/engine/chord_engine.cc ****   { 0.00f, 4.00f,  7.00f, 12.00f },  // M
  52:eurorack/plaits/dsp/engine/chord_engine.cc **** };
  53:eurorack/plaits/dsp/engine/chord_engine.cc **** 
  54:eurorack/plaits/dsp/engine/chord_engine.cc **** void ChordEngine::Init(BufferAllocator* allocator) {
  29              		.loc 1 54 52 view -0
  30              		.cfi_startproc
  31              		@ args = 0, pretend = 0, frame = 0
  32              		@ frame_needed = 0, uses_anonymous_args = 0
  55:eurorack/plaits/dsp/engine/chord_engine.cc ****   for (int i = 0; i < kChordNumVoices; ++i) {
  33              		.loc 1 55 3 view .LVU1
  34              	.LBB144:
  35              		.loc 1 55 21 view .LVU2
  36              	.LBE144:
  54:eurorack/plaits/dsp/engine/chord_engine.cc ****   for (int i = 0; i < kChordNumVoices; ++i) {
  37              		.loc 1 54 52 is_stmt 0 view .LVU3
  38 0000 F0B5     		push	{r4, r5, r6, r7, lr}
  39              		.cfi_def_cfa_offset 20
  40              		.cfi_offset 4, -20
  41              		.cfi_offset 5, -16
  42              		.cfi_offset 6, -12
  43              		.cfi_offset 7, -8
  44              		.cfi_offset 14, -4
  45 0002 0246     		mov	r2, r0
  46 0004 00F1A006 		add	r6, r0, #160
  54:eurorack/plaits/dsp/engine/chord_engine.cc ****   for (int i = 0; i < kChordNumVoices; ++i) {
  47              		.loc 1 54 52 view .LVU4
  48 0008 0446     		mov	r4, r0
  49              	.LVL1:
  50              	.L2:
  51              	.LBB156:
  56:eurorack/plaits/dsp/engine/chord_engine.cc ****     divide_down_voice_[i].Init();
  52              		.loc 1 56 5 is_stmt 1 discriminator 2 view .LVU5
  53              	.LBB145:
  54              	.LBI145:
  55              		.file 2 "eurorack/plaits/dsp/oscillator/string_synth_oscillator.h"
   1:eurorack/plaits/dsp/oscillator/string_synth_oscillator.h **** // Copyright 2016 Emilie Gillet.
   2:eurorack/plaits/dsp/oscillator/string_synth_oscillator.h **** //
ARM GAS  /var/folders/9s/8rp0_f2s1n31qbztm3b5_fdh0000gn/T//cczTgMG8.s 			page 3


   3:eurorack/plaits/dsp/oscillator/string_synth_oscillator.h **** // Author: Emilie Gillet (emilie.o.gillet@gmail.com)
   4:eurorack/plaits/dsp/oscillator/string_synth_oscillator.h **** //
   5:eurorack/plaits/dsp/oscillator/string_synth_oscillator.h **** // Permission is hereby granted, free of charge, to any person obtaining a copy
   6:eurorack/plaits/dsp/oscillator/string_synth_oscillator.h **** // of this software and associated documentation files (the "Software"), to deal
   7:eurorack/plaits/dsp/oscillator/string_synth_oscillator.h **** // in the Software without restriction, including without limitation the rights
   8:eurorack/plaits/dsp/oscillator/string_synth_oscillator.h **** // to use, copy, modify, merge, publish, distribute, sublicense, and/or sell
   9:eurorack/plaits/dsp/oscillator/string_synth_oscillator.h **** // copies of the Software, and to permit persons to whom the Software is
  10:eurorack/plaits/dsp/oscillator/string_synth_oscillator.h **** // furnished to do so, subject to the following conditions:
  11:eurorack/plaits/dsp/oscillator/string_synth_oscillator.h **** // 
  12:eurorack/plaits/dsp/oscillator/string_synth_oscillator.h **** // The above copyright notice and this permission notice shall be included in
  13:eurorack/plaits/dsp/oscillator/string_synth_oscillator.h **** // all copies or substantial portions of the Software.
  14:eurorack/plaits/dsp/oscillator/string_synth_oscillator.h **** // 
  15:eurorack/plaits/dsp/oscillator/string_synth_oscillator.h **** // THE SOFTWARE IS PROVIDED "AS IS", WITHOUT WARRANTY OF ANY KIND, EXPRESS OR
  16:eurorack/plaits/dsp/oscillator/string_synth_oscillator.h **** // IMPLIED, INCLUDING BUT NOT LIMITED TO THE WARRANTIES OF MERCHANTABILITY,
  17:eurorack/plaits/dsp/oscillator/string_synth_oscillator.h **** // FITNESS FOR A PARTICULAR PURPOSE AND NONINFRINGEMENT. IN NO EVENT SHALL THE
  18:eurorack/plaits/dsp/oscillator/string_synth_oscillator.h **** // AUTHORS OR COPYRIGHT HOLDERS BE LIABLE FOR ANY CLAIM, DAMAGES OR OTHER
  19:eurorack/plaits/dsp/oscillator/string_synth_oscillator.h **** // LIABILITY, WHETHER IN AN ACTION OF CONTRACT, TORT OR OTHERWISE, ARISING FROM,
  20:eurorack/plaits/dsp/oscillator/string_synth_oscillator.h **** // OUT OF OR IN CONNECTION WITH THE SOFTWARE OR THE USE OR OTHER DEALINGS IN
  21:eurorack/plaits/dsp/oscillator/string_synth_oscillator.h **** // THE SOFTWARE.
  22:eurorack/plaits/dsp/oscillator/string_synth_oscillator.h **** // 
  23:eurorack/plaits/dsp/oscillator/string_synth_oscillator.h **** // See http://creativecommons.org/licenses/MIT/ for more information.
  24:eurorack/plaits/dsp/oscillator/string_synth_oscillator.h **** //
  25:eurorack/plaits/dsp/oscillator/string_synth_oscillator.h **** // -----------------------------------------------------------------------------
  26:eurorack/plaits/dsp/oscillator/string_synth_oscillator.h **** //
  27:eurorack/plaits/dsp/oscillator/string_synth_oscillator.h **** // A mixture of 7 sawtooth and square waveforms in the style of divide-down
  28:eurorack/plaits/dsp/oscillator/string_synth_oscillator.h **** // organs:
  29:eurorack/plaits/dsp/oscillator/string_synth_oscillator.h **** //
  30:eurorack/plaits/dsp/oscillator/string_synth_oscillator.h **** // [0]     [1]        [2]     [3]        [4]     [5]        [6]
  31:eurorack/plaits/dsp/oscillator/string_synth_oscillator.h **** // Saw 8', Square 8', Saw 4', Square 4', Saw 2', Square 2', Saw 1'
  32:eurorack/plaits/dsp/oscillator/string_synth_oscillator.h **** //
  33:eurorack/plaits/dsp/oscillator/string_synth_oscillator.h **** // Internally, this renders 4 band-limited sawtooths, from 8' to 1' from a
  34:eurorack/plaits/dsp/oscillator/string_synth_oscillator.h **** // single phase counter. The square waveforms are obtained by algebraic
  35:eurorack/plaits/dsp/oscillator/string_synth_oscillator.h **** // manipulations on the sawtooths, using the identity:
  36:eurorack/plaits/dsp/oscillator/string_synth_oscillator.h **** // Square 16' = 2 Sawtooth 16' - Sawtooth 8'
  37:eurorack/plaits/dsp/oscillator/string_synth_oscillator.h **** 
  38:eurorack/plaits/dsp/oscillator/string_synth_oscillator.h **** #ifndef PLAITS_DSP_OSCILLATOR_STRING_SYNTH_OSCILLATOR_H_
  39:eurorack/plaits/dsp/oscillator/string_synth_oscillator.h **** #define PLAITS_DSP_OSCILLATOR_STRING_SYNTH_OSCILLATOR_H_
  40:eurorack/plaits/dsp/oscillator/string_synth_oscillator.h **** 
  41:eurorack/plaits/dsp/oscillator/string_synth_oscillator.h **** #include <algorithm>
  42:eurorack/plaits/dsp/oscillator/string_synth_oscillator.h **** 
  43:eurorack/plaits/dsp/oscillator/string_synth_oscillator.h **** #include "stmlib/dsp/dsp.h"
  44:eurorack/plaits/dsp/oscillator/string_synth_oscillator.h **** #include "stmlib/dsp/parameter_interpolator.h"
  45:eurorack/plaits/dsp/oscillator/string_synth_oscillator.h **** #include "stmlib/dsp/polyblep.h"
  46:eurorack/plaits/dsp/oscillator/string_synth_oscillator.h **** 
  47:eurorack/plaits/dsp/oscillator/string_synth_oscillator.h **** namespace plaits {
  48:eurorack/plaits/dsp/oscillator/string_synth_oscillator.h **** 
  49:eurorack/plaits/dsp/oscillator/string_synth_oscillator.h **** class StringSynthOscillator {
  50:eurorack/plaits/dsp/oscillator/string_synth_oscillator.h ****  public:
  51:eurorack/plaits/dsp/oscillator/string_synth_oscillator.h ****   StringSynthOscillator() { }
  52:eurorack/plaits/dsp/oscillator/string_synth_oscillator.h ****   ~StringSynthOscillator() { }
  53:eurorack/plaits/dsp/oscillator/string_synth_oscillator.h ****   
  54:eurorack/plaits/dsp/oscillator/string_synth_oscillator.h ****   inline void Init() {
  56              		.loc 2 54 15 discriminator 2 view .LVU6
  57              	.LBB146:
  55:eurorack/plaits/dsp/oscillator/string_synth_oscillator.h ****     phase_ = 0.0f;
  58              		.loc 2 55 5 discriminator 2 view .LVU7
  59              		.loc 2 55 12 is_stmt 0 discriminator 2 view .LVU8
ARM GAS  /var/folders/9s/8rp0_f2s1n31qbztm3b5_fdh0000gn/T//cczTgMG8.s 			page 4


  60 000a 0023     		movs	r3, #0
  56:eurorack/plaits/dsp/oscillator/string_synth_oscillator.h ****     next_sample_ = 0.0f;
  57:eurorack/plaits/dsp/oscillator/string_synth_oscillator.h ****     segment_ = 0.0f;
  61              		.loc 2 57 14 discriminator 2 view .LVU9
  62 000c 0025     		movs	r5, #0
  58:eurorack/plaits/dsp/oscillator/string_synth_oscillator.h ****     
  59:eurorack/plaits/dsp/oscillator/string_synth_oscillator.h ****     frequency_ = 0.001f;
  63              		.loc 2 59 16 discriminator 2 view .LVU10
  64 000e 184F     		ldr	r7, .L6
  65              	.LBE146:
  66              	.LBE145:
  55:eurorack/plaits/dsp/engine/chord_engine.cc ****     divide_down_voice_[i].Init();
  67              		.loc 1 55 21 discriminator 2 view .LVU11
  68 0010 2032     		adds	r2, r2, #32
  69              	.LBB149:
  70              	.LBB147:
  55:eurorack/plaits/dsp/oscillator/string_synth_oscillator.h ****     next_sample_ = 0.0f;
  71              		.loc 2 55 12 discriminator 2 view .LVU12
  72 0012 42F8103C 		str	r3, [r2, #-16]	@ float
  56:eurorack/plaits/dsp/oscillator/string_synth_oscillator.h ****     segment_ = 0.0f;
  73              		.loc 2 56 5 is_stmt 1 discriminator 2 view .LVU13
  74              	.LBE147:
  75              	.LBE149:
  55:eurorack/plaits/dsp/engine/chord_engine.cc ****     divide_down_voice_[i].Init();
  76              		.loc 1 55 21 is_stmt 0 discriminator 2 view .LVU14
  77 0016 1C34     		adds	r4, r4, #28
  78              	.LBB150:
  79              	.LBB148:
  56:eurorack/plaits/dsp/oscillator/string_synth_oscillator.h ****     segment_ = 0.0f;
  80              		.loc 2 56 18 discriminator 2 view .LVU15
  81 0018 42F80C3C 		str	r3, [r2, #-12]	@ float
  57:eurorack/plaits/dsp/oscillator/string_synth_oscillator.h ****     
  82              		.loc 2 57 5 is_stmt 1 discriminator 2 view .LVU16
  57:eurorack/plaits/dsp/oscillator/string_synth_oscillator.h ****     
  83              		.loc 2 57 14 is_stmt 0 discriminator 2 view .LVU17
  84 001c 42F8085C 		str	r5, [r2, #-8]
  85              		.loc 2 59 5 is_stmt 1 discriminator 2 view .LVU18
  86              		.loc 2 59 16 is_stmt 0 discriminator 2 view .LVU19
  87 0020 42F8047C 		str	r7, [r2, #-4]	@ float
  60:eurorack/plaits/dsp/oscillator/string_synth_oscillator.h ****     saw_8_gain_ = 0.0f;
  88              		.loc 2 60 5 is_stmt 1 discriminator 2 view .LVU20
  89              		.loc 2 60 17 is_stmt 0 discriminator 2 view .LVU21
  90 0024 1360     		str	r3, [r2]	@ float
  61:eurorack/plaits/dsp/oscillator/string_synth_oscillator.h ****     saw_4_gain_ = 0.0f;
  91              		.loc 2 61 5 is_stmt 1 discriminator 2 view .LVU22
  92              		.loc 2 61 17 is_stmt 0 discriminator 2 view .LVU23
  93 0026 5360     		str	r3, [r2, #4]	@ float
  62:eurorack/plaits/dsp/oscillator/string_synth_oscillator.h ****     saw_2_gain_ = 0.0f;
  94              		.loc 2 62 5 is_stmt 1 discriminator 2 view .LVU24
  95              		.loc 2 62 17 is_stmt 0 discriminator 2 view .LVU25
  96 0028 9360     		str	r3, [r2, #8]	@ float
  63:eurorack/plaits/dsp/oscillator/string_synth_oscillator.h ****     saw_1_gain_ = 0.0f;
  97              		.loc 2 63 5 is_stmt 1 discriminator 2 view .LVU26
  98              		.loc 2 63 17 is_stmt 0 discriminator 2 view .LVU27
  99 002a D360     		str	r3, [r2, #12]	@ float
 100              		.loc 2 63 17 discriminator 2 view .LVU28
 101              	.LBE148:
ARM GAS  /var/folders/9s/8rp0_f2s1n31qbztm3b5_fdh0000gn/T//cczTgMG8.s 			page 5


 102              	.LBE150:
  57:eurorack/plaits/dsp/engine/chord_engine.cc ****     wavetable_voice_[i].Init();
 103              		.loc 1 57 5 is_stmt 1 discriminator 2 view .LVU29
 104              	.LVL2:
 105              	.LBB151:
 106              	.LBI151:
 107              		.file 3 "eurorack/plaits/dsp/oscillator/wavetable_oscillator.h"
   1:eurorack/plaits/dsp/oscillator/wavetable_oscillator.h **** // Copyright 2016 Emilie Gillet.
   2:eurorack/plaits/dsp/oscillator/wavetable_oscillator.h **** //
   3:eurorack/plaits/dsp/oscillator/wavetable_oscillator.h **** // Author: Emilie Gillet (emilie.o.gillet@gmail.com)
   4:eurorack/plaits/dsp/oscillator/wavetable_oscillator.h **** //
   5:eurorack/plaits/dsp/oscillator/wavetable_oscillator.h **** // Permission is hereby granted, free of charge, to any person obtaining a copy
   6:eurorack/plaits/dsp/oscillator/wavetable_oscillator.h **** // of this software and associated documentation files (the "Software"), to deal
   7:eurorack/plaits/dsp/oscillator/wavetable_oscillator.h **** // in the Software without restriction, including without limitation the rights
   8:eurorack/plaits/dsp/oscillator/wavetable_oscillator.h **** // to use, copy, modify, merge, publish, distribute, sublicense, and/or sell
   9:eurorack/plaits/dsp/oscillator/wavetable_oscillator.h **** // copies of the Software, and to permit persons to whom the Software is
  10:eurorack/plaits/dsp/oscillator/wavetable_oscillator.h **** // furnished to do so, subject to the following conditions:
  11:eurorack/plaits/dsp/oscillator/wavetable_oscillator.h **** // 
  12:eurorack/plaits/dsp/oscillator/wavetable_oscillator.h **** // The above copyright notice and this permission notice shall be included in
  13:eurorack/plaits/dsp/oscillator/wavetable_oscillator.h **** // all copies or substantial portions of the Software.
  14:eurorack/plaits/dsp/oscillator/wavetable_oscillator.h **** // 
  15:eurorack/plaits/dsp/oscillator/wavetable_oscillator.h **** // THE SOFTWARE IS PROVIDED "AS IS", WITHOUT WARRANTY OF ANY KIND, EXPRESS OR
  16:eurorack/plaits/dsp/oscillator/wavetable_oscillator.h **** // IMPLIED, INCLUDING BUT NOT LIMITED TO THE WARRANTIES OF MERCHANTABILITY,
  17:eurorack/plaits/dsp/oscillator/wavetable_oscillator.h **** // FITNESS FOR A PARTICULAR PURPOSE AND NONINFRINGEMENT. IN NO EVENT SHALL THE
  18:eurorack/plaits/dsp/oscillator/wavetable_oscillator.h **** // AUTHORS OR COPYRIGHT HOLDERS BE LIABLE FOR ANY CLAIM, DAMAGES OR OTHER
  19:eurorack/plaits/dsp/oscillator/wavetable_oscillator.h **** // LIABILITY, WHETHER IN AN ACTION OF CONTRACT, TORT OR OTHERWISE, ARISING FROM,
  20:eurorack/plaits/dsp/oscillator/wavetable_oscillator.h **** // OUT OF OR IN CONNECTION WITH THE SOFTWARE OR THE USE OR OTHER DEALINGS IN
  21:eurorack/plaits/dsp/oscillator/wavetable_oscillator.h **** // THE SOFTWARE.
  22:eurorack/plaits/dsp/oscillator/wavetable_oscillator.h **** // 
  23:eurorack/plaits/dsp/oscillator/wavetable_oscillator.h **** // See http://creativecommons.org/licenses/MIT/ for more information.
  24:eurorack/plaits/dsp/oscillator/wavetable_oscillator.h **** //
  25:eurorack/plaits/dsp/oscillator/wavetable_oscillator.h **** // -----------------------------------------------------------------------------
  26:eurorack/plaits/dsp/oscillator/wavetable_oscillator.h **** //
  27:eurorack/plaits/dsp/oscillator/wavetable_oscillator.h **** // Integrated wavetable synthesis.
  28:eurorack/plaits/dsp/oscillator/wavetable_oscillator.h **** 
  29:eurorack/plaits/dsp/oscillator/wavetable_oscillator.h **** #ifndef PLAITS_DSP_OSCILLATOR_WAVETABLE_OSCILLATOR_H_
  30:eurorack/plaits/dsp/oscillator/wavetable_oscillator.h **** #define PLAITS_DSP_OSCILLATOR_WAVETABLE_OSCILLATOR_H_
  31:eurorack/plaits/dsp/oscillator/wavetable_oscillator.h **** 
  32:eurorack/plaits/dsp/oscillator/wavetable_oscillator.h **** #include <algorithm>
  33:eurorack/plaits/dsp/oscillator/wavetable_oscillator.h **** 
  34:eurorack/plaits/dsp/oscillator/wavetable_oscillator.h **** #include "stmlib/dsp/dsp.h"
  35:eurorack/plaits/dsp/oscillator/wavetable_oscillator.h **** #include "stmlib/dsp/parameter_interpolator.h"
  36:eurorack/plaits/dsp/oscillator/wavetable_oscillator.h **** 
  37:eurorack/plaits/dsp/oscillator/wavetable_oscillator.h **** #include "plaits/dsp/oscillator/oscillator.h"
  38:eurorack/plaits/dsp/oscillator/wavetable_oscillator.h **** 
  39:eurorack/plaits/dsp/oscillator/wavetable_oscillator.h **** namespace plaits {
  40:eurorack/plaits/dsp/oscillator/wavetable_oscillator.h **** 
  41:eurorack/plaits/dsp/oscillator/wavetable_oscillator.h **** class Differentiator {
  42:eurorack/plaits/dsp/oscillator/wavetable_oscillator.h ****  public:
  43:eurorack/plaits/dsp/oscillator/wavetable_oscillator.h ****   Differentiator() { }
  44:eurorack/plaits/dsp/oscillator/wavetable_oscillator.h ****   ~Differentiator() { }
  45:eurorack/plaits/dsp/oscillator/wavetable_oscillator.h **** 
  46:eurorack/plaits/dsp/oscillator/wavetable_oscillator.h ****   void Init() {
  47:eurorack/plaits/dsp/oscillator/wavetable_oscillator.h ****     previous_ = 0.0f;
  48:eurorack/plaits/dsp/oscillator/wavetable_oscillator.h ****     lp_ = 0.0f;
  49:eurorack/plaits/dsp/oscillator/wavetable_oscillator.h ****   }
  50:eurorack/plaits/dsp/oscillator/wavetable_oscillator.h ****   
ARM GAS  /var/folders/9s/8rp0_f2s1n31qbztm3b5_fdh0000gn/T//cczTgMG8.s 			page 6


  51:eurorack/plaits/dsp/oscillator/wavetable_oscillator.h ****   float Process(float coefficient, float s) {
  52:eurorack/plaits/dsp/oscillator/wavetable_oscillator.h ****     ONE_POLE(lp_, s - previous_, coefficient);
  53:eurorack/plaits/dsp/oscillator/wavetable_oscillator.h ****     previous_ = s;
  54:eurorack/plaits/dsp/oscillator/wavetable_oscillator.h ****     return lp_;
  55:eurorack/plaits/dsp/oscillator/wavetable_oscillator.h ****   }
  56:eurorack/plaits/dsp/oscillator/wavetable_oscillator.h ****  private:
  57:eurorack/plaits/dsp/oscillator/wavetable_oscillator.h ****   float lp_;
  58:eurorack/plaits/dsp/oscillator/wavetable_oscillator.h ****   float previous_;
  59:eurorack/plaits/dsp/oscillator/wavetable_oscillator.h **** 
  60:eurorack/plaits/dsp/oscillator/wavetable_oscillator.h ****   DISALLOW_COPY_AND_ASSIGN(Differentiator);
  61:eurorack/plaits/dsp/oscillator/wavetable_oscillator.h **** };
  62:eurorack/plaits/dsp/oscillator/wavetable_oscillator.h **** 
  63:eurorack/plaits/dsp/oscillator/wavetable_oscillator.h **** inline float InterpolateWave(
  64:eurorack/plaits/dsp/oscillator/wavetable_oscillator.h ****     const int16_t* table,
  65:eurorack/plaits/dsp/oscillator/wavetable_oscillator.h ****     int32_t index_integral,
  66:eurorack/plaits/dsp/oscillator/wavetable_oscillator.h ****     float index_fractional) {
  67:eurorack/plaits/dsp/oscillator/wavetable_oscillator.h ****   float a = static_cast<float>(table[index_integral]);
  68:eurorack/plaits/dsp/oscillator/wavetable_oscillator.h ****   float b = static_cast<float>(table[index_integral + 1]);
  69:eurorack/plaits/dsp/oscillator/wavetable_oscillator.h ****   float t = index_fractional;
  70:eurorack/plaits/dsp/oscillator/wavetable_oscillator.h ****   return a + (b - a) * t;
  71:eurorack/plaits/dsp/oscillator/wavetable_oscillator.h **** }
  72:eurorack/plaits/dsp/oscillator/wavetable_oscillator.h **** 
  73:eurorack/plaits/dsp/oscillator/wavetable_oscillator.h **** inline float InterpolateWaveHermite(
  74:eurorack/plaits/dsp/oscillator/wavetable_oscillator.h ****     const int16_t* table,
  75:eurorack/plaits/dsp/oscillator/wavetable_oscillator.h ****     int32_t index_integral,
  76:eurorack/plaits/dsp/oscillator/wavetable_oscillator.h ****     float index_fractional) {
  77:eurorack/plaits/dsp/oscillator/wavetable_oscillator.h ****   const float xm1 = table[index_integral];
  78:eurorack/plaits/dsp/oscillator/wavetable_oscillator.h ****   const float x0 = table[index_integral + 1];
  79:eurorack/plaits/dsp/oscillator/wavetable_oscillator.h ****   const float x1 = table[index_integral + 2];
  80:eurorack/plaits/dsp/oscillator/wavetable_oscillator.h ****   const float x2 = table[index_integral + 3];
  81:eurorack/plaits/dsp/oscillator/wavetable_oscillator.h ****   const float c = (x1 - xm1) * 0.5f;
  82:eurorack/plaits/dsp/oscillator/wavetable_oscillator.h ****   const float v = x0 - x1;
  83:eurorack/plaits/dsp/oscillator/wavetable_oscillator.h ****   const float w = c + v;
  84:eurorack/plaits/dsp/oscillator/wavetable_oscillator.h ****   const float a = w + v + (x2 - x0) * 0.5f;
  85:eurorack/plaits/dsp/oscillator/wavetable_oscillator.h ****   const float b_neg = w + a;
  86:eurorack/plaits/dsp/oscillator/wavetable_oscillator.h ****   const float f = index_fractional;
  87:eurorack/plaits/dsp/oscillator/wavetable_oscillator.h ****   return (((a * f) - b_neg) * f + c) * f + x0;
  88:eurorack/plaits/dsp/oscillator/wavetable_oscillator.h **** }
  89:eurorack/plaits/dsp/oscillator/wavetable_oscillator.h **** 
  90:eurorack/plaits/dsp/oscillator/wavetable_oscillator.h **** template<
  91:eurorack/plaits/dsp/oscillator/wavetable_oscillator.h ****     size_t wavetable_size,
  92:eurorack/plaits/dsp/oscillator/wavetable_oscillator.h ****     size_t num_waves,
  93:eurorack/plaits/dsp/oscillator/wavetable_oscillator.h ****     bool approximate_scale=true>
  94:eurorack/plaits/dsp/oscillator/wavetable_oscillator.h **** class WavetableOscillator {
  95:eurorack/plaits/dsp/oscillator/wavetable_oscillator.h ****  public:
  96:eurorack/plaits/dsp/oscillator/wavetable_oscillator.h ****   WavetableOscillator() { }
  97:eurorack/plaits/dsp/oscillator/wavetable_oscillator.h ****   ~WavetableOscillator() { }
  98:eurorack/plaits/dsp/oscillator/wavetable_oscillator.h **** 
  99:eurorack/plaits/dsp/oscillator/wavetable_oscillator.h ****   void Init() {
 108              		.loc 3 99 8 discriminator 2 view .LVU30
 109              	.LBE151:
  55:eurorack/plaits/dsp/engine/chord_engine.cc ****     divide_down_voice_[i].Init();
 110              		.loc 1 55 21 is_stmt 0 discriminator 2 view .LVU31
 111 002c B242     		cmp	r2, r6
 112              	.LBB155:
 113              	.LBB152:
 100:eurorack/plaits/dsp/oscillator/wavetable_oscillator.h ****     phase_ = 0.0f;
ARM GAS  /var/folders/9s/8rp0_f2s1n31qbztm3b5_fdh0000gn/T//cczTgMG8.s 			page 7


 114              		.loc 3 100 12 discriminator 2 view .LVU32
 115 002e C4F89430 		str	r3, [r4, #148]	@ float
 101:eurorack/plaits/dsp/oscillator/wavetable_oscillator.h ****     frequency_ = 0.0f;
 116              		.loc 3 101 16 discriminator 2 view .LVU33
 117 0032 C4F89830 		str	r3, [r4, #152]	@ float
 102:eurorack/plaits/dsp/oscillator/wavetable_oscillator.h ****     amplitude_ = 0.0f;
 118              		.loc 3 102 16 discriminator 2 view .LVU34
 119 0036 C4F89C30 		str	r3, [r4, #156]	@ float
 103:eurorack/plaits/dsp/oscillator/wavetable_oscillator.h ****     waveform_ = 0.0f;
 120              		.loc 3 103 15 discriminator 2 view .LVU35
 121 003a C4F8A030 		str	r3, [r4, #160]	@ float
 104:eurorack/plaits/dsp/oscillator/wavetable_oscillator.h ****     lp_ = 0.0f;
 122              		.loc 3 104 9 discriminator 2 view .LVU36
 123 003e C4F8A430 		str	r3, [r4, #164]	@ float
 124              	.LVL3:
 125              	.LBB153:
 126              	.LBI153:
  46:eurorack/plaits/dsp/oscillator/wavetable_oscillator.h ****     previous_ = 0.0f;
 127              		.loc 3 46 8 is_stmt 1 discriminator 2 view .LVU37
 128              	.LBB154:
  47:eurorack/plaits/dsp/oscillator/wavetable_oscillator.h ****     lp_ = 0.0f;
 129              		.loc 3 47 5 discriminator 2 view .LVU38
  47:eurorack/plaits/dsp/oscillator/wavetable_oscillator.h ****     lp_ = 0.0f;
 130              		.loc 3 47 15 is_stmt 0 discriminator 2 view .LVU39
 131 0042 C4F8AC30 		str	r3, [r4, #172]	@ float
  48:eurorack/plaits/dsp/oscillator/wavetable_oscillator.h ****   }
 132              		.loc 3 48 5 is_stmt 1 discriminator 2 view .LVU40
  48:eurorack/plaits/dsp/oscillator/wavetable_oscillator.h ****   }
 133              		.loc 3 48 9 is_stmt 0 discriminator 2 view .LVU41
 134 0046 C4F8A830 		str	r3, [r4, #168]	@ float
  48:eurorack/plaits/dsp/oscillator/wavetable_oscillator.h ****   }
 135              		.loc 3 48 9 discriminator 2 view .LVU42
 136              	.LBE154:
 137              	.LBE153:
 138              	.LBE152:
 139              	.LBE155:
  55:eurorack/plaits/dsp/engine/chord_engine.cc ****     divide_down_voice_[i].Init();
 140              		.loc 1 55 3 is_stmt 1 discriminator 2 view .LVU43
  55:eurorack/plaits/dsp/engine/chord_engine.cc ****     divide_down_voice_[i].Init();
 141              		.loc 1 55 21 discriminator 2 view .LVU44
 142 004a DED1     		bne	.L2
 143              	.LBE156:
  58:eurorack/plaits/dsp/engine/chord_engine.cc ****   }
  59:eurorack/plaits/dsp/engine/chord_engine.cc ****   chord_index_quantizer_.Init();
 144              		.loc 1 59 3 view .LVU45
 145              	.LVL4:
 146              	.LBB157:
 147              	.LBI157:
 148              		.file 4 "eurorack/stmlib/dsp/hysteresis_quantizer.h"
   1:eurorack/stmlib/dsp/hysteresis_quantizer.h **** // Copyright 2015 Emilie Gillet.
   2:eurorack/stmlib/dsp/hysteresis_quantizer.h **** //
   3:eurorack/stmlib/dsp/hysteresis_quantizer.h **** // Author: Emilie Gillet (emilie.o.gillet@gmail.com)
   4:eurorack/stmlib/dsp/hysteresis_quantizer.h **** //
   5:eurorack/stmlib/dsp/hysteresis_quantizer.h **** // Permission is hereby granted, free of charge, to any person obtaining a copy
   6:eurorack/stmlib/dsp/hysteresis_quantizer.h **** // of this software and associated documentation files (the "Software"), to deal
   7:eurorack/stmlib/dsp/hysteresis_quantizer.h **** // in the Software without restriction, including without limitation the rights
   8:eurorack/stmlib/dsp/hysteresis_quantizer.h **** // to use, copy, modify, merge, publish, distribute, sublicense, and/or sell
ARM GAS  /var/folders/9s/8rp0_f2s1n31qbztm3b5_fdh0000gn/T//cczTgMG8.s 			page 8


   9:eurorack/stmlib/dsp/hysteresis_quantizer.h **** // copies of the Software, and to permit persons to whom the Software is
  10:eurorack/stmlib/dsp/hysteresis_quantizer.h **** // furnished to do so, subject to the following conditions:
  11:eurorack/stmlib/dsp/hysteresis_quantizer.h **** // 
  12:eurorack/stmlib/dsp/hysteresis_quantizer.h **** // The above copyright notice and this permission notice shall be included in
  13:eurorack/stmlib/dsp/hysteresis_quantizer.h **** // all copies or substantial portions of the Software.
  14:eurorack/stmlib/dsp/hysteresis_quantizer.h **** // 
  15:eurorack/stmlib/dsp/hysteresis_quantizer.h **** // THE SOFTWARE IS PROVIDED "AS IS", WITHOUT WARRANTY OF ANY KIND, EXPRESS OR
  16:eurorack/stmlib/dsp/hysteresis_quantizer.h **** // IMPLIED, INCLUDING BUT NOT LIMITED TO THE WARRANTIES OF MERCHANTABILITY,
  17:eurorack/stmlib/dsp/hysteresis_quantizer.h **** // FITNESS FOR A PARTICULAR PURPOSE AND NONINFRINGEMENT. IN NO EVENT SHALL THE
  18:eurorack/stmlib/dsp/hysteresis_quantizer.h **** // AUTHORS OR COPYRIGHT HOLDERS BE LIABLE FOR ANY CLAIM, DAMAGES OR OTHER
  19:eurorack/stmlib/dsp/hysteresis_quantizer.h **** // LIABILITY, WHETHER IN AN ACTION OF CONTRACT, TORT OR OTHERWISE, ARISING FROM,
  20:eurorack/stmlib/dsp/hysteresis_quantizer.h **** // OUT OF OR IN CONNECTION WITH THE SOFTWARE OR THE USE OR OTHER DEALINGS IN
  21:eurorack/stmlib/dsp/hysteresis_quantizer.h **** // THE SOFTWARE.
  22:eurorack/stmlib/dsp/hysteresis_quantizer.h **** // 
  23:eurorack/stmlib/dsp/hysteresis_quantizer.h **** // See http://creativecommons.org/licenses/MIT/ for more information.
  24:eurorack/stmlib/dsp/hysteresis_quantizer.h **** //
  25:eurorack/stmlib/dsp/hysteresis_quantizer.h **** // -----------------------------------------------------------------------------
  26:eurorack/stmlib/dsp/hysteresis_quantizer.h **** //
  27:eurorack/stmlib/dsp/hysteresis_quantizer.h **** // Quantize a float in [0, 1] to an integer in [0, num_steps[. Apply hysteresis
  28:eurorack/stmlib/dsp/hysteresis_quantizer.h **** // to prevent jumps near the decision boundary.
  29:eurorack/stmlib/dsp/hysteresis_quantizer.h **** 
  30:eurorack/stmlib/dsp/hysteresis_quantizer.h **** #ifndef STMLIB_DSP_HYSTERESIS_QUANTIZER_H_
  31:eurorack/stmlib/dsp/hysteresis_quantizer.h **** #define STMLIB_DSP_HYSTERESIS_QUANTIZER_H_
  32:eurorack/stmlib/dsp/hysteresis_quantizer.h **** 
  33:eurorack/stmlib/dsp/hysteresis_quantizer.h **** #include "stmlib/stmlib.h"
  34:eurorack/stmlib/dsp/hysteresis_quantizer.h **** 
  35:eurorack/stmlib/dsp/hysteresis_quantizer.h **** namespace stmlib {
  36:eurorack/stmlib/dsp/hysteresis_quantizer.h **** 
  37:eurorack/stmlib/dsp/hysteresis_quantizer.h **** class HysteresisQuantizer {
  38:eurorack/stmlib/dsp/hysteresis_quantizer.h ****  public:
  39:eurorack/stmlib/dsp/hysteresis_quantizer.h ****   HysteresisQuantizer() { }
  40:eurorack/stmlib/dsp/hysteresis_quantizer.h ****   ~HysteresisQuantizer() { }
  41:eurorack/stmlib/dsp/hysteresis_quantizer.h **** 
  42:eurorack/stmlib/dsp/hysteresis_quantizer.h ****   void Init() {
 149              		.loc 4 42 8 view .LVU46
 150              	.LBB158:
  43:eurorack/stmlib/dsp/hysteresis_quantizer.h ****     quantized_value_ = 0;
 151              		.loc 4 43 5 view .LVU47
 152              	.LBE158:
 153              	.LBE157:
 154              	.LBB160:
 155              	.LBB161:
 156              	.LBB162:
 157              		.file 5 "eurorack/stmlib/utils/buffer_allocator.h"
   1:eurorack/stmlib/utils/buffer_allocator.h **** // Copyright 2014 Emilie Gillet.
   2:eurorack/stmlib/utils/buffer_allocator.h **** //
   3:eurorack/stmlib/utils/buffer_allocator.h **** // Author: Emilie Gillet (emilie.o.gillet@gmail.com)
   4:eurorack/stmlib/utils/buffer_allocator.h **** //
   5:eurorack/stmlib/utils/buffer_allocator.h **** // Permission is hereby granted, free of charge, to any person obtaining a copy
   6:eurorack/stmlib/utils/buffer_allocator.h **** // of this software and associated documentation files (the "Software"), to deal
   7:eurorack/stmlib/utils/buffer_allocator.h **** // in the Software without restriction, including without limitation the rights
   8:eurorack/stmlib/utils/buffer_allocator.h **** // to use, copy, modify, merge, publish, distribute, sublicense, and/or sell
   9:eurorack/stmlib/utils/buffer_allocator.h **** // copies of the Software, and to permit persons to whom the Software is
  10:eurorack/stmlib/utils/buffer_allocator.h **** // furnished to do so, subject to the following conditions:
  11:eurorack/stmlib/utils/buffer_allocator.h **** // 
  12:eurorack/stmlib/utils/buffer_allocator.h **** // The above copyright notice and this permission notice shall be included in
  13:eurorack/stmlib/utils/buffer_allocator.h **** // all copies or substantial portions of the Software.
ARM GAS  /var/folders/9s/8rp0_f2s1n31qbztm3b5_fdh0000gn/T//cczTgMG8.s 			page 9


  14:eurorack/stmlib/utils/buffer_allocator.h **** // 
  15:eurorack/stmlib/utils/buffer_allocator.h **** // THE SOFTWARE IS PROVIDED "AS IS", WITHOUT WARRANTY OF ANY KIND, EXPRESS OR
  16:eurorack/stmlib/utils/buffer_allocator.h **** // IMPLIED, INCLUDING BUT NOT LIMITED TO THE WARRANTIES OF MERCHANTABILITY,
  17:eurorack/stmlib/utils/buffer_allocator.h **** // FITNESS FOR A PARTICULAR PURPOSE AND NONINFRINGEMENT. IN NO EVENT SHALL THE
  18:eurorack/stmlib/utils/buffer_allocator.h **** // AUTHORS OR COPYRIGHT HOLDERS BE LIABLE FOR ANY CLAIM, DAMAGES OR OTHER
  19:eurorack/stmlib/utils/buffer_allocator.h **** // LIABILITY, WHETHER IN AN ACTION OF CONTRACT, TORT OR OTHERWISE, ARISING FROM,
  20:eurorack/stmlib/utils/buffer_allocator.h **** // OUT OF OR IN CONNECTION WITH THE SOFTWARE OR THE USE OR OTHER DEALINGS IN
  21:eurorack/stmlib/utils/buffer_allocator.h **** // THE SOFTWARE.
  22:eurorack/stmlib/utils/buffer_allocator.h **** // 
  23:eurorack/stmlib/utils/buffer_allocator.h **** // See http://creativecommons.org/licenses/MIT/ for more information.
  24:eurorack/stmlib/utils/buffer_allocator.h **** //
  25:eurorack/stmlib/utils/buffer_allocator.h **** // -----------------------------------------------------------------------------
  26:eurorack/stmlib/utils/buffer_allocator.h **** //
  27:eurorack/stmlib/utils/buffer_allocator.h **** // Stream buffer for serialization.
  28:eurorack/stmlib/utils/buffer_allocator.h **** 
  29:eurorack/stmlib/utils/buffer_allocator.h **** #ifndef STMLIB_UTILS_BUFFER_ALLOCATOR_H_
  30:eurorack/stmlib/utils/buffer_allocator.h **** #define STMLIB_UTILS_BUFFER_ALLOCATOR_H_
  31:eurorack/stmlib/utils/buffer_allocator.h **** 
  32:eurorack/stmlib/utils/buffer_allocator.h **** #include "stmlib/stmlib.h"
  33:eurorack/stmlib/utils/buffer_allocator.h **** 
  34:eurorack/stmlib/utils/buffer_allocator.h **** namespace stmlib {
  35:eurorack/stmlib/utils/buffer_allocator.h **** 
  36:eurorack/stmlib/utils/buffer_allocator.h **** class BufferAllocator {
  37:eurorack/stmlib/utils/buffer_allocator.h ****  public:
  38:eurorack/stmlib/utils/buffer_allocator.h ****   BufferAllocator() { }
  39:eurorack/stmlib/utils/buffer_allocator.h ****   ~BufferAllocator() { }
  40:eurorack/stmlib/utils/buffer_allocator.h ****   
  41:eurorack/stmlib/utils/buffer_allocator.h ****   BufferAllocator(void* buffer, size_t size) {
  42:eurorack/stmlib/utils/buffer_allocator.h ****     Init(buffer, size);
  43:eurorack/stmlib/utils/buffer_allocator.h ****   }
  44:eurorack/stmlib/utils/buffer_allocator.h ****   
  45:eurorack/stmlib/utils/buffer_allocator.h ****   inline void Init(void* buffer, size_t size) {
  46:eurorack/stmlib/utils/buffer_allocator.h ****     buffer_ = static_cast<uint8_t*>(buffer);
  47:eurorack/stmlib/utils/buffer_allocator.h ****     size_ = size;
  48:eurorack/stmlib/utils/buffer_allocator.h ****     Free();
  49:eurorack/stmlib/utils/buffer_allocator.h ****   }
  50:eurorack/stmlib/utils/buffer_allocator.h **** 
  51:eurorack/stmlib/utils/buffer_allocator.h ****   template<typename T>
  52:eurorack/stmlib/utils/buffer_allocator.h ****   inline T* Allocate() {
  53:eurorack/stmlib/utils/buffer_allocator.h ****     return Allocate<T>(1);
  54:eurorack/stmlib/utils/buffer_allocator.h ****   }
  55:eurorack/stmlib/utils/buffer_allocator.h ****   
  56:eurorack/stmlib/utils/buffer_allocator.h ****   template<typename T>
  57:eurorack/stmlib/utils/buffer_allocator.h ****   inline T* Allocate(size_t size) {
  58:eurorack/stmlib/utils/buffer_allocator.h ****     size_t size_bytes = sizeof(T) * size;
  59:eurorack/stmlib/utils/buffer_allocator.h ****     if (size_bytes <= free_) {
 158              		.loc 5 59 23 is_stmt 0 view .LVU48
 159 004c 8A68     		ldr	r2, [r1, #8]
 160              	.LBE162:
 161              	.LBE161:
 162              	.LBE160:
 163              	.LBB168:
 164              	.LBB159:
 165              		.loc 4 43 22 view .LVU49
 166 004e C0F83C51 		str	r5, [r0, #316]
 167              	.LVL5:
 168              		.loc 4 43 22 view .LVU50
ARM GAS  /var/folders/9s/8rp0_f2s1n31qbztm3b5_fdh0000gn/T//cczTgMG8.s 			page 10


 169              	.LBE159:
 170              	.LBE168:
  60:eurorack/plaits/dsp/engine/chord_engine.cc ****   morph_lp_ = 0.0f;
 171              		.loc 1 60 3 is_stmt 1 view .LVU51
 172              	.LBB169:
 173              	.LBB166:
 174              	.LBB164:
 175              		.loc 5 59 5 is_stmt 0 view .LVU52
 176 0052 DB2A     		cmp	r2, #219
 177              	.LBE164:
 178              	.LBE166:
 179              	.LBE169:
 180              		.loc 1 60 13 view .LVU53
 181 0054 C0F84031 		str	r3, [r0, #320]	@ float
  61:eurorack/plaits/dsp/engine/chord_engine.cc ****   timbre_lp_ = 0.0f;
 182              		.loc 1 61 3 is_stmt 1 view .LVU54
 183              		.loc 1 61 14 is_stmt 0 view .LVU55
 184 0058 C0F84431 		str	r3, [r0, #324]	@ float
  62:eurorack/plaits/dsp/engine/chord_engine.cc ****   
  63:eurorack/plaits/dsp/engine/chord_engine.cc ****   ratios_ = allocator->Allocate<float>(kChordNumChords * kChordNumVoices);
 185              		.loc 1 63 3 is_stmt 1 view .LVU56
 186              	.LVL6:
 187              	.LBB170:
 188              	.LBI160:
  57:eurorack/stmlib/utils/buffer_allocator.h ****     size_t size_bytes = sizeof(T) * size;
 189              		.loc 5 57 13 view .LVU57
 190              	.LBB167:
 191              	.LBB165:
 192              		.loc 5 59 5 is_stmt 0 view .LVU58
 193 005c 05D9     		bls	.L3
 194              	.LBB163:
  60:eurorack/stmlib/utils/buffer_allocator.h ****       T* start = static_cast<T*>(static_cast<void*>(next_));
 195              		.loc 5 60 10 view .LVU59
 196 005e 0D68     		ldr	r5, [r1]
 197              	.LVL7:
  61:eurorack/stmlib/utils/buffer_allocator.h ****       next_ += size_bytes;
  62:eurorack/stmlib/utils/buffer_allocator.h ****       free_ -= size_bytes;
 198              		.loc 5 62 13 view .LVU60
 199 0060 DC3A     		subs	r2, r2, #220
  61:eurorack/stmlib/utils/buffer_allocator.h ****       next_ += size_bytes;
 200              		.loc 5 61 13 view .LVU61
 201 0062 05F1DC04 		add	r4, r5, #220
 202              		.loc 5 62 13 view .LVU62
 203 0066 8A60     		str	r2, [r1, #8]
  61:eurorack/stmlib/utils/buffer_allocator.h ****       next_ += size_bytes;
 204              		.loc 5 61 13 view .LVU63
 205 0068 0C60     		str	r4, [r1]
 206              	.LVL8:
 207              	.L3:
  61:eurorack/stmlib/utils/buffer_allocator.h ****       next_ += size_bytes;
 208              		.loc 5 61 13 view .LVU64
 209              	.LBE163:
 210              	.LBE165:
 211              	.LBE167:
 212              	.LBE170:
 213              		.loc 1 63 11 view .LVU65
 214 006a C0F84C51 		str	r5, [r0, #332]
ARM GAS  /var/folders/9s/8rp0_f2s1n31qbztm3b5_fdh0000gn/T//cczTgMG8.s 			page 11


  64:eurorack/plaits/dsp/engine/chord_engine.cc **** }
 215              		.loc 1 64 1 view .LVU66
 216 006e F0BD     		pop	{r4, r5, r6, r7, pc}
 217              	.L7:
 218              		.align	2
 219              	.L6:
 220 0070 6F12833A 		.word	981668463
 221              		.cfi_endproc
 222              	.LFE1505:
 224              		.section	.text._ZN6stmlib16SemitonesToRatioEf,"axG",%progbits,_ZN6stmlib16SemitonesToRatioEf,comda
 225              		.align	1
 226              		.weak	_ZN6stmlib16SemitonesToRatioEf
 227              		.syntax unified
 228              		.thumb
 229              		.thumb_func
 231              	_ZN6stmlib16SemitonesToRatioEf:
 232              	.LVL9:
 233              	.LFB579:
 234              		.file 6 "eurorack/stmlib/dsp/units.h"
   1:eurorack/stmlib/dsp/units.h **** // Copyright 2014 Emilie Gillet.
   2:eurorack/stmlib/dsp/units.h **** //
   3:eurorack/stmlib/dsp/units.h **** // Author: Emilie Gillet (emilie.o.gillet@gmail.com)
   4:eurorack/stmlib/dsp/units.h **** //
   5:eurorack/stmlib/dsp/units.h **** // Permission is hereby granted, free of charge, to any person obtaining a copy
   6:eurorack/stmlib/dsp/units.h **** // of this software and associated documentation files (the "Software"), to deal
   7:eurorack/stmlib/dsp/units.h **** // in the Software without restriction, including without limitation the rights
   8:eurorack/stmlib/dsp/units.h **** // to use, copy, modify, merge, publish, distribute, sublicense, and/or sell
   9:eurorack/stmlib/dsp/units.h **** // copies of the Software, and to permit persons to whom the Software is
  10:eurorack/stmlib/dsp/units.h **** // furnished to do so, subject to the following conditions:
  11:eurorack/stmlib/dsp/units.h **** // 
  12:eurorack/stmlib/dsp/units.h **** // The above copyright notice and this permission notice shall be included in
  13:eurorack/stmlib/dsp/units.h **** // all copies or substantial portions of the Software.
  14:eurorack/stmlib/dsp/units.h **** // 
  15:eurorack/stmlib/dsp/units.h **** // THE SOFTWARE IS PROVIDED "AS IS", WITHOUT WARRANTY OF ANY KIND, EXPRESS OR
  16:eurorack/stmlib/dsp/units.h **** // IMPLIED, INCLUDING BUT NOT LIMITED TO THE WARRANTIES OF MERCHANTABILITY,
  17:eurorack/stmlib/dsp/units.h **** // FITNESS FOR A PARTICULAR PURPOSE AND NONINFRINGEMENT. IN NO EVENT SHALL THE
  18:eurorack/stmlib/dsp/units.h **** // AUTHORS OR COPYRIGHT HOLDERS BE LIABLE FOR ANY CLAIM, DAMAGES OR OTHER
  19:eurorack/stmlib/dsp/units.h **** // LIABILITY, WHETHER IN AN ACTION OF CONTRACT, TORT OR OTHERWISE, ARISING FROM,
  20:eurorack/stmlib/dsp/units.h **** // OUT OF OR IN CONNECTION WITH THE SOFTWARE OR THE USE OR OTHER DEALINGS IN
  21:eurorack/stmlib/dsp/units.h **** // THE SOFTWARE.
  22:eurorack/stmlib/dsp/units.h **** // 
  23:eurorack/stmlib/dsp/units.h **** // See http://creativecommons.org/licenses/MIT/ for more information.
  24:eurorack/stmlib/dsp/units.h **** //
  25:eurorack/stmlib/dsp/units.h **** // -----------------------------------------------------------------------------
  26:eurorack/stmlib/dsp/units.h **** //
  27:eurorack/stmlib/dsp/units.h **** // Conversion from semitones to frequency ratio.
  28:eurorack/stmlib/dsp/units.h **** 
  29:eurorack/stmlib/dsp/units.h **** #ifndef STMLIB_DSP_UNITS_H_
  30:eurorack/stmlib/dsp/units.h **** #define STMLIB_DSP_UNITS_H_
  31:eurorack/stmlib/dsp/units.h **** 
  32:eurorack/stmlib/dsp/units.h **** #include "stmlib/stmlib.h"
  33:eurorack/stmlib/dsp/units.h **** #include "stmlib/dsp/dsp.h"
  34:eurorack/stmlib/dsp/units.h **** 
  35:eurorack/stmlib/dsp/units.h **** namespace stmlib {
  36:eurorack/stmlib/dsp/units.h **** 
  37:eurorack/stmlib/dsp/units.h **** extern const float lut_pitch_ratio_high[257];
  38:eurorack/stmlib/dsp/units.h **** extern const float lut_pitch_ratio_low[257];
ARM GAS  /var/folders/9s/8rp0_f2s1n31qbztm3b5_fdh0000gn/T//cczTgMG8.s 			page 12


  39:eurorack/stmlib/dsp/units.h **** 
  40:eurorack/stmlib/dsp/units.h **** inline float SemitonesToRatio(float semitones) {
 235              		.loc 6 40 48 is_stmt 1 view -0
 236              		.cfi_startproc
 237              		@ args = 0, pretend = 0, frame = 0
 238              		@ frame_needed = 0, uses_anonymous_args = 0
 239              		@ link register save eliminated.
  41:eurorack/stmlib/dsp/units.h ****   float pitch = semitones + 128.0f;
 240              		.loc 6 41 3 view .LVU68
 241              		.loc 6 41 9 is_stmt 0 view .LVU69
 242 0000 DFED0E7A 		vldr.32	s15, .L9
  42:eurorack/stmlib/dsp/units.h ****   MAKE_INTEGRAL_FRACTIONAL(pitch)
  43:eurorack/stmlib/dsp/units.h **** 
  44:eurorack/stmlib/dsp/units.h ****   return lut_pitch_ratio_high[pitch_integral] * \
  45:eurorack/stmlib/dsp/units.h ****       lut_pitch_ratio_low[static_cast<int32_t>(pitch_fractional * 256.0f)];
 243              		.loc 6 45 74 view .LVU70
 244 0004 0E4A     		ldr	r2, .L9+4
  41:eurorack/stmlib/dsp/units.h ****   float pitch = semitones + 128.0f;
 245              		.loc 6 41 9 view .LVU71
 246 0006 30EE270A 		vadd.f32	s0, s0, s15
 247              	.LVL10:
  42:eurorack/stmlib/dsp/units.h ****   MAKE_INTEGRAL_FRACTIONAL(pitch)
 248              		.loc 6 42 3 is_stmt 1 view .LVU72
 249 000a FDEEC07A 		vcvt.s32.f32	s15, s0
 250              	.LVL11:
  42:eurorack/stmlib/dsp/units.h ****   MAKE_INTEGRAL_FRACTIONAL(pitch)
 251              		.loc 6 42 3 view .LVU73
  44:eurorack/stmlib/dsp/units.h ****       lut_pitch_ratio_low[static_cast<int32_t>(pitch_fractional * 256.0f)];
 252              		.loc 6 44 3 view .LVU74
  42:eurorack/stmlib/dsp/units.h ****   MAKE_INTEGRAL_FRACTIONAL(pitch)
 253              		.loc 6 42 3 is_stmt 0 view .LVU75
 254 000e B8EEE77A 		vcvt.f32.s32	s14, s15
  44:eurorack/stmlib/dsp/units.h ****       lut_pitch_ratio_low[static_cast<int32_t>(pitch_fractional * 256.0f)];
 255              		.loc 6 44 45 view .LVU76
 256 0012 17EE901A 		vmov	r1, s15	@ int
  42:eurorack/stmlib/dsp/units.h ****   MAKE_INTEGRAL_FRACTIONAL(pitch)
 257              		.loc 6 42 3 view .LVU77
 258 0016 30EE470A 		vsub.f32	s0, s0, s14
 259              	.LVL12:
 260              		.loc 6 45 27 view .LVU78
 261 001a BEEECC0A 		vcvt.s32.f32	s0, s0, #8
 262              	.LVL13:
 263              		.loc 6 45 74 view .LVU79
 264 001e 10EE103A 		vmov	r3, s0	@ int
 265 0022 02EB8302 		add	r2, r2, r3, lsl #2
  44:eurorack/stmlib/dsp/units.h ****       lut_pitch_ratio_low[static_cast<int32_t>(pitch_fractional * 256.0f)];
 266              		.loc 6 44 45 view .LVU80
 267 0026 074B     		ldr	r3, .L9+8
 268 0028 03EB8103 		add	r3, r3, r1, lsl #2
 269              		.loc 6 45 74 view .LVU81
 270 002c 92ED000A 		vldr.32	s0, [r2]
 271 0030 D3ED007A 		vldr.32	s15, [r3]
 272              	.LVL14:
  46:eurorack/stmlib/dsp/units.h **** }
 273              		.loc 6 46 1 view .LVU82
 274 0034 20EE270A 		vmul.f32	s0, s0, s15
 275 0038 7047     		bx	lr
ARM GAS  /var/folders/9s/8rp0_f2s1n31qbztm3b5_fdh0000gn/T//cczTgMG8.s 			page 13


 276              	.L10:
 277 003a 00BF     		.align	2
 278              	.L9:
 279 003c 00000043 		.word	1124073472
 280 0040 00000000 		.word	_ZN6stmlib19lut_pitch_ratio_lowE
 281 0044 00000000 		.word	_ZN6stmlib20lut_pitch_ratio_highE
 282              		.cfi_endproc
 283              	.LFE579:
 285              		.section	.text._ZN6plaits11ChordEngine5ResetEv,"ax",%progbits
 286              		.align	1
 287              		.global	_ZN6plaits11ChordEngine5ResetEv
 288              		.syntax unified
 289              		.thumb
 290              		.thumb_func
 292              	_ZN6plaits11ChordEngine5ResetEv:
 293              	.LVL15:
 294              	.LFB1506:
  65:eurorack/plaits/dsp/engine/chord_engine.cc **** 
  66:eurorack/plaits/dsp/engine/chord_engine.cc **** void ChordEngine::Reset() {
 295              		.loc 1 66 27 is_stmt 1 view -0
 296              		.cfi_startproc
 297              		@ args = 0, pretend = 0, frame = 0
 298              		@ frame_needed = 0, uses_anonymous_args = 0
  67:eurorack/plaits/dsp/engine/chord_engine.cc ****   for (int i = 0; i < kChordNumChords; ++i) {
 299              		.loc 1 67 3 view .LVU84
 300              	.LBB171:
 301              		.loc 1 67 21 view .LVU85
 302              	.LBE171:
  66:eurorack/plaits/dsp/engine/chord_engine.cc ****   for (int i = 0; i < kChordNumChords; ++i) {
 303              		.loc 1 66 27 is_stmt 0 view .LVU86
 304 0000 2DE9F041 		push	{r4, r5, r6, r7, r8, lr}
 305              		.cfi_def_cfa_offset 24
 306              		.cfi_offset 4, -24
 307              		.cfi_offset 5, -20
 308              		.cfi_offset 6, -16
 309              		.cfi_offset 7, -12
 310              		.cfi_offset 8, -8
 311              		.cfi_offset 14, -4
 312 0004 0B4E     		ldr	r6, .L16
 313              	.LBB174:
 314              	.LBB172:
  68:eurorack/plaits/dsp/engine/chord_engine.cc ****     for (int j = 0; j < kChordNumVoices; ++j) {
  69:eurorack/plaits/dsp/engine/chord_engine.cc ****       ratios_[i * kChordNumVoices + j] = SemitonesToRatio(chords[i][j]);
 315              		.loc 1 69 7 view .LVU87
 316 0006 0025     		movs	r5, #0
 317 0008 D0F84C71 		ldr	r7, [r0, #332]
 318              	.LVL16:
 319              	.L13:
  68:eurorack/plaits/dsp/engine/chord_engine.cc ****     for (int j = 0; j < kChordNumVoices; ++j) {
 320              		.loc 1 68 23 is_stmt 1 view .LVU88
 321              	.LBE172:
 322 000c 3C46     		mov	r4, r7
 323 000e B046     		mov	r8, r6
 324              	.LVL17:
 325              	.L12:
 326              	.LBB173:
 327              		.loc 1 69 7 discriminator 2 view .LVU89
ARM GAS  /var/folders/9s/8rp0_f2s1n31qbztm3b5_fdh0000gn/T//cczTgMG8.s 			page 14


 328              		.loc 1 69 58 is_stmt 0 discriminator 2 view .LVU90
 329 0010 B8EC010A 		vldmia.32	r8!, {s0}
 330 0014 FFF7FEFF 		bl	_ZN6stmlib16SemitonesToRatioEf
 331              	.LVL18:
 332 0018 07F11403 		add	r3, r7, #20
 333              		.loc 1 69 40 discriminator 2 view .LVU91
 334 001c A4EC010A 		vstmia.32	r4!, {s0}
  68:eurorack/plaits/dsp/engine/chord_engine.cc ****     for (int j = 0; j < kChordNumVoices; ++j) {
 335              		.loc 1 68 5 is_stmt 1 discriminator 2 view .LVU92
  68:eurorack/plaits/dsp/engine/chord_engine.cc ****     for (int j = 0; j < kChordNumVoices; ++j) {
 336              		.loc 1 68 23 discriminator 2 view .LVU93
 337 0020 9C42     		cmp	r4, r3
 338 0022 F5D1     		bne	.L12
 339              	.LBE173:
  67:eurorack/plaits/dsp/engine/chord_engine.cc ****     for (int j = 0; j < kChordNumVoices; ++j) {
 340              		.loc 1 67 3 discriminator 2 view .LVU94
  67:eurorack/plaits/dsp/engine/chord_engine.cc ****     for (int j = 0; j < kChordNumVoices; ++j) {
 341              		.loc 1 67 21 discriminator 2 view .LVU95
 342 0024 0535     		adds	r5, r5, #5
 343 0026 1036     		adds	r6, r6, #16
 344 0028 372D     		cmp	r5, #55
 345 002a 01D1     		bne	.L14
 346              	.LBE174:
  70:eurorack/plaits/dsp/engine/chord_engine.cc ****     }
  71:eurorack/plaits/dsp/engine/chord_engine.cc ****   }
  72:eurorack/plaits/dsp/engine/chord_engine.cc **** }
 347              		.loc 1 72 1 is_stmt 0 view .LVU96
 348 002c BDE8F081 		pop	{r4, r5, r6, r7, r8, pc}
 349              	.L14:
 350              	.LBB175:
 351 0030 2746     		mov	r7, r4
 352 0032 EBE7     		b	.L13
 353              	.L17:
 354              		.align	2
 355              	.L16:
 356 0034 00000000 		.word	.LANCHOR0
 357              	.LBE175:
 358              		.cfi_endproc
 359              	.LFE1506:
 361              		.section	.text._ZN6plaits21StringSynthOscillator6RenderEfPKffPfj,"axG",%progbits,_ZN6plaits21Strin
 362              		.align	1
 363              		.weak	_ZN6plaits21StringSynthOscillator6RenderEfPKffPfj
 364              		.syntax unified
 365              		.thumb
 366              		.thumb_func
 368              	_ZN6plaits21StringSynthOscillator6RenderEfPKffPfj:
 369              	.LVL19:
 370              	.LFB1474:
  64:eurorack/plaits/dsp/oscillator/string_synth_oscillator.h ****   }
  65:eurorack/plaits/dsp/oscillator/string_synth_oscillator.h ****   
  66:eurorack/plaits/dsp/oscillator/string_synth_oscillator.h ****   inline void Render(
 371              		.loc 2 66 15 is_stmt 1 view -0
 372              		.cfi_startproc
 373              		@ args = 0, pretend = 0, frame = 32
 374              		@ frame_needed = 0, uses_anonymous_args = 0
  67:eurorack/plaits/dsp/oscillator/string_synth_oscillator.h ****       float frequency,
  68:eurorack/plaits/dsp/oscillator/string_synth_oscillator.h ****       const float* unshifted_registration,
ARM GAS  /var/folders/9s/8rp0_f2s1n31qbztm3b5_fdh0000gn/T//cczTgMG8.s 			page 15


  69:eurorack/plaits/dsp/oscillator/string_synth_oscillator.h ****       float gain,
  70:eurorack/plaits/dsp/oscillator/string_synth_oscillator.h ****       float* out,
  71:eurorack/plaits/dsp/oscillator/string_synth_oscillator.h ****       size_t size) {
  72:eurorack/plaits/dsp/oscillator/string_synth_oscillator.h ****     frequency *= 8.0f;
 375              		.loc 2 72 5 view .LVU98
  66:eurorack/plaits/dsp/oscillator/string_synth_oscillator.h ****       float frequency,
 376              		.loc 2 66 15 is_stmt 0 view .LVU99
 377 0000 2DE9F043 		push	{r4, r5, r6, r7, r8, r9, lr}
 378              		.cfi_def_cfa_offset 28
 379              		.cfi_offset 4, -28
 380              		.cfi_offset 5, -24
 381              		.cfi_offset 6, -20
 382              		.cfi_offset 7, -16
 383              		.cfi_offset 8, -12
 384              		.cfi_offset 9, -8
 385              		.cfi_offset 14, -4
 386 0004 2DED048B 		vpush.64	{d8, d9}
 387              		.cfi_def_cfa_offset 44
 388              		.cfi_offset 80, -44
 389              		.cfi_offset 81, -40
 390              		.cfi_offset 82, -36
 391              		.cfi_offset 83, -32
 392              		.loc 2 72 15 view .LVU100
 393 0008 B2EE008A 		vmov.f32	s16, #8.0e+0
  66:eurorack/plaits/dsp/oscillator/string_synth_oscillator.h ****       float frequency,
 394              		.loc 2 66 15 view .LVU101
 395 000c 89B0     		sub	sp, sp, #36
 396              		.cfi_def_cfa_offset 80
  66:eurorack/plaits/dsp/oscillator/string_synth_oscillator.h ****       float frequency,
 397              		.loc 2 66 15 view .LVU102
 398 000e F0EE609A 		vmov.f32	s19, s1
 399 0012 0446     		mov	r4, r0
 400 0014 8846     		mov	r8, r1
 401 0016 1746     		mov	r7, r2
 402              		.loc 2 72 15 view .LVU103
 403 0018 20EE089A 		vmul.f32	s18, s0, s16
 404              	.LVL20:
  73:eurorack/plaits/dsp/oscillator/string_synth_oscillator.h ****     
  74:eurorack/plaits/dsp/oscillator/string_synth_oscillator.h ****     // Deal with very high frequencies by shifting everything 1 or 2 octave
  75:eurorack/plaits/dsp/oscillator/string_synth_oscillator.h ****     // down: Instead of playing the 1nd harmonic of a 8kHz wave, we play the
  76:eurorack/plaits/dsp/oscillator/string_synth_oscillator.h ****     // second harmonic of a 4kHz wave.
  77:eurorack/plaits/dsp/oscillator/string_synth_oscillator.h ****     size_t shift = 0;
 405              		.loc 2 77 5 is_stmt 1 view .LVU104
  66:eurorack/plaits/dsp/oscillator/string_synth_oscillator.h ****       float frequency,
 406              		.loc 2 66 15 is_stmt 0 view .LVU105
 407 001c 1E46     		mov	r6, r3
 408              		.loc 2 77 12 view .LVU106
 409 001e 0025     		movs	r5, #0
 410              	.LVL21:
 411              	.L21:
  78:eurorack/plaits/dsp/oscillator/string_synth_oscillator.h ****     while (frequency > 0.5f) {
 412              		.loc 2 78 5 is_stmt 1 view .LVU107
 413              		.loc 2 78 22 view .LVU108
 414 0020 F6EE008A 		vmov.f32	s17, #5.0e-1
 415 0024 B4EEE89A 		vcmpe.f32	s18, s17
 416 0028 F1EE10FA 		vmrs	APSR_nzcv, FPSCR
 417 002c 03DD     		ble	.L40
ARM GAS  /var/folders/9s/8rp0_f2s1n31qbztm3b5_fdh0000gn/T//cczTgMG8.s 			page 16


  79:eurorack/plaits/dsp/oscillator/string_synth_oscillator.h ****       shift += 2;
 418              		.loc 2 79 7 view .LVU109
  80:eurorack/plaits/dsp/oscillator/string_synth_oscillator.h ****       frequency *= 0.5f;
 419              		.loc 2 80 17 is_stmt 0 view .LVU110
 420 002e 29EE289A 		vmul.f32	s18, s18, s17
 421              	.LVL22:
  79:eurorack/plaits/dsp/oscillator/string_synth_oscillator.h ****       shift += 2;
 422              		.loc 2 79 13 view .LVU111
 423 0032 0235     		adds	r5, r5, #2
 424              	.LVL23:
 425              		.loc 2 80 7 is_stmt 1 view .LVU112
  78:eurorack/plaits/dsp/oscillator/string_synth_oscillator.h ****     while (frequency > 0.5f) {
 426              		.loc 2 78 5 is_stmt 0 view .LVU113
 427 0034 F4E7     		b	.L21
 428              	.L40:
  81:eurorack/plaits/dsp/oscillator/string_synth_oscillator.h ****     }
  82:eurorack/plaits/dsp/oscillator/string_synth_oscillator.h ****     // Frequency is just too high.
  83:eurorack/plaits/dsp/oscillator/string_synth_oscillator.h ****     if (shift >= 8) {
 429              		.loc 2 83 5 is_stmt 1 view .LVU114
 430 0036 072D     		cmp	r5, #7
 431 0038 00F2F580 		bhi	.L18
  84:eurorack/plaits/dsp/oscillator/string_synth_oscillator.h ****       return;
  85:eurorack/plaits/dsp/oscillator/string_synth_oscillator.h ****     }
  86:eurorack/plaits/dsp/oscillator/string_synth_oscillator.h ****     
  87:eurorack/plaits/dsp/oscillator/string_synth_oscillator.h ****     float registration[7];
 432              		.loc 2 87 5 view .LVU115
  88:eurorack/plaits/dsp/oscillator/string_synth_oscillator.h ****     std::fill(&registration[0], &registration[shift], 0.0f);
 433              		.loc 2 88 5 view .LVU116
 434              		.loc 2 88 14 is_stmt 0 view .LVU117
 435 003c 01AB     		add	r3, sp, #4
 436              	.LVL24:
 437              	.LBB243:
 438              	.LBB244:
 439              	.LBB245:
 440              	.LBB246:
 441              		.file 7 "/Library/DaisyToolchain/0.2.0/arm/arm-none-eabi/include/c++/10.3.1/bits/stl_algobase.h"
   1:/Library/DaisyToolchain/0.2.0/arm/arm-none-eabi/include/c++/10.3.1/bits/stl_algobase.h **** // Core algorithmic facilities -*- C++ -*-
   2:/Library/DaisyToolchain/0.2.0/arm/arm-none-eabi/include/c++/10.3.1/bits/stl_algobase.h **** 
   3:/Library/DaisyToolchain/0.2.0/arm/arm-none-eabi/include/c++/10.3.1/bits/stl_algobase.h **** // Copyright (C) 2001-2020 Free Software Foundation, Inc.
   4:/Library/DaisyToolchain/0.2.0/arm/arm-none-eabi/include/c++/10.3.1/bits/stl_algobase.h **** //
   5:/Library/DaisyToolchain/0.2.0/arm/arm-none-eabi/include/c++/10.3.1/bits/stl_algobase.h **** // This file is part of the GNU ISO C++ Library.  This library is free
   6:/Library/DaisyToolchain/0.2.0/arm/arm-none-eabi/include/c++/10.3.1/bits/stl_algobase.h **** // software; you can redistribute it and/or modify it under the
   7:/Library/DaisyToolchain/0.2.0/arm/arm-none-eabi/include/c++/10.3.1/bits/stl_algobase.h **** // terms of the GNU General Public License as published by the
   8:/Library/DaisyToolchain/0.2.0/arm/arm-none-eabi/include/c++/10.3.1/bits/stl_algobase.h **** // Free Software Foundation; either version 3, or (at your option)
   9:/Library/DaisyToolchain/0.2.0/arm/arm-none-eabi/include/c++/10.3.1/bits/stl_algobase.h **** // any later version.
  10:/Library/DaisyToolchain/0.2.0/arm/arm-none-eabi/include/c++/10.3.1/bits/stl_algobase.h **** 
  11:/Library/DaisyToolchain/0.2.0/arm/arm-none-eabi/include/c++/10.3.1/bits/stl_algobase.h **** // This library is distributed in the hope that it will be useful,
  12:/Library/DaisyToolchain/0.2.0/arm/arm-none-eabi/include/c++/10.3.1/bits/stl_algobase.h **** // but WITHOUT ANY WARRANTY; without even the implied warranty of
  13:/Library/DaisyToolchain/0.2.0/arm/arm-none-eabi/include/c++/10.3.1/bits/stl_algobase.h **** // MERCHANTABILITY or FITNESS FOR A PARTICULAR PURPOSE.  See the
  14:/Library/DaisyToolchain/0.2.0/arm/arm-none-eabi/include/c++/10.3.1/bits/stl_algobase.h **** // GNU General Public License for more details.
  15:/Library/DaisyToolchain/0.2.0/arm/arm-none-eabi/include/c++/10.3.1/bits/stl_algobase.h **** 
  16:/Library/DaisyToolchain/0.2.0/arm/arm-none-eabi/include/c++/10.3.1/bits/stl_algobase.h **** // Under Section 7 of GPL version 3, you are granted additional
  17:/Library/DaisyToolchain/0.2.0/arm/arm-none-eabi/include/c++/10.3.1/bits/stl_algobase.h **** // permissions described in the GCC Runtime Library Exception, version
  18:/Library/DaisyToolchain/0.2.0/arm/arm-none-eabi/include/c++/10.3.1/bits/stl_algobase.h **** // 3.1, as published by the Free Software Foundation.
  19:/Library/DaisyToolchain/0.2.0/arm/arm-none-eabi/include/c++/10.3.1/bits/stl_algobase.h **** 
  20:/Library/DaisyToolchain/0.2.0/arm/arm-none-eabi/include/c++/10.3.1/bits/stl_algobase.h **** // You should have received a copy of the GNU General Public License and
  21:/Library/DaisyToolchain/0.2.0/arm/arm-none-eabi/include/c++/10.3.1/bits/stl_algobase.h **** // a copy of the GCC Runtime Library Exception along with this program;
ARM GAS  /var/folders/9s/8rp0_f2s1n31qbztm3b5_fdh0000gn/T//cczTgMG8.s 			page 17


  22:/Library/DaisyToolchain/0.2.0/arm/arm-none-eabi/include/c++/10.3.1/bits/stl_algobase.h **** // see the files COPYING3 and COPYING.RUNTIME respectively.  If not, see
  23:/Library/DaisyToolchain/0.2.0/arm/arm-none-eabi/include/c++/10.3.1/bits/stl_algobase.h **** // <http://www.gnu.org/licenses/>.
  24:/Library/DaisyToolchain/0.2.0/arm/arm-none-eabi/include/c++/10.3.1/bits/stl_algobase.h **** 
  25:/Library/DaisyToolchain/0.2.0/arm/arm-none-eabi/include/c++/10.3.1/bits/stl_algobase.h **** /*
  26:/Library/DaisyToolchain/0.2.0/arm/arm-none-eabi/include/c++/10.3.1/bits/stl_algobase.h ****  *
  27:/Library/DaisyToolchain/0.2.0/arm/arm-none-eabi/include/c++/10.3.1/bits/stl_algobase.h ****  * Copyright (c) 1994
  28:/Library/DaisyToolchain/0.2.0/arm/arm-none-eabi/include/c++/10.3.1/bits/stl_algobase.h ****  * Hewlett-Packard Company
  29:/Library/DaisyToolchain/0.2.0/arm/arm-none-eabi/include/c++/10.3.1/bits/stl_algobase.h ****  *
  30:/Library/DaisyToolchain/0.2.0/arm/arm-none-eabi/include/c++/10.3.1/bits/stl_algobase.h ****  * Permission to use, copy, modify, distribute and sell this software
  31:/Library/DaisyToolchain/0.2.0/arm/arm-none-eabi/include/c++/10.3.1/bits/stl_algobase.h ****  * and its documentation for any purpose is hereby granted without fee,
  32:/Library/DaisyToolchain/0.2.0/arm/arm-none-eabi/include/c++/10.3.1/bits/stl_algobase.h ****  * provided that the above copyright notice appear in all copies and
  33:/Library/DaisyToolchain/0.2.0/arm/arm-none-eabi/include/c++/10.3.1/bits/stl_algobase.h ****  * that both that copyright notice and this permission notice appear
  34:/Library/DaisyToolchain/0.2.0/arm/arm-none-eabi/include/c++/10.3.1/bits/stl_algobase.h ****  * in supporting documentation.  Hewlett-Packard Company makes no
  35:/Library/DaisyToolchain/0.2.0/arm/arm-none-eabi/include/c++/10.3.1/bits/stl_algobase.h ****  * representations about the suitability of this software for any
  36:/Library/DaisyToolchain/0.2.0/arm/arm-none-eabi/include/c++/10.3.1/bits/stl_algobase.h ****  * purpose.  It is provided "as is" without express or implied warranty.
  37:/Library/DaisyToolchain/0.2.0/arm/arm-none-eabi/include/c++/10.3.1/bits/stl_algobase.h ****  *
  38:/Library/DaisyToolchain/0.2.0/arm/arm-none-eabi/include/c++/10.3.1/bits/stl_algobase.h ****  *
  39:/Library/DaisyToolchain/0.2.0/arm/arm-none-eabi/include/c++/10.3.1/bits/stl_algobase.h ****  * Copyright (c) 1996-1998
  40:/Library/DaisyToolchain/0.2.0/arm/arm-none-eabi/include/c++/10.3.1/bits/stl_algobase.h ****  * Silicon Graphics Computer Systems, Inc.
  41:/Library/DaisyToolchain/0.2.0/arm/arm-none-eabi/include/c++/10.3.1/bits/stl_algobase.h ****  *
  42:/Library/DaisyToolchain/0.2.0/arm/arm-none-eabi/include/c++/10.3.1/bits/stl_algobase.h ****  * Permission to use, copy, modify, distribute and sell this software
  43:/Library/DaisyToolchain/0.2.0/arm/arm-none-eabi/include/c++/10.3.1/bits/stl_algobase.h ****  * and its documentation for any purpose is hereby granted without fee,
  44:/Library/DaisyToolchain/0.2.0/arm/arm-none-eabi/include/c++/10.3.1/bits/stl_algobase.h ****  * provided that the above copyright notice appear in all copies and
  45:/Library/DaisyToolchain/0.2.0/arm/arm-none-eabi/include/c++/10.3.1/bits/stl_algobase.h ****  * that both that copyright notice and this permission notice appear
  46:/Library/DaisyToolchain/0.2.0/arm/arm-none-eabi/include/c++/10.3.1/bits/stl_algobase.h ****  * in supporting documentation.  Silicon Graphics makes no
  47:/Library/DaisyToolchain/0.2.0/arm/arm-none-eabi/include/c++/10.3.1/bits/stl_algobase.h ****  * representations about the suitability of this software for any
  48:/Library/DaisyToolchain/0.2.0/arm/arm-none-eabi/include/c++/10.3.1/bits/stl_algobase.h ****  * purpose.  It is provided "as is" without express or implied warranty.
  49:/Library/DaisyToolchain/0.2.0/arm/arm-none-eabi/include/c++/10.3.1/bits/stl_algobase.h ****  */
  50:/Library/DaisyToolchain/0.2.0/arm/arm-none-eabi/include/c++/10.3.1/bits/stl_algobase.h **** 
  51:/Library/DaisyToolchain/0.2.0/arm/arm-none-eabi/include/c++/10.3.1/bits/stl_algobase.h **** /** @file bits/stl_algobase.h
  52:/Library/DaisyToolchain/0.2.0/arm/arm-none-eabi/include/c++/10.3.1/bits/stl_algobase.h ****  *  This is an internal header file, included by other library headers.
  53:/Library/DaisyToolchain/0.2.0/arm/arm-none-eabi/include/c++/10.3.1/bits/stl_algobase.h ****  *  Do not attempt to use it directly. @headername{algorithm}
  54:/Library/DaisyToolchain/0.2.0/arm/arm-none-eabi/include/c++/10.3.1/bits/stl_algobase.h ****  */
  55:/Library/DaisyToolchain/0.2.0/arm/arm-none-eabi/include/c++/10.3.1/bits/stl_algobase.h **** 
  56:/Library/DaisyToolchain/0.2.0/arm/arm-none-eabi/include/c++/10.3.1/bits/stl_algobase.h **** #ifndef _STL_ALGOBASE_H
  57:/Library/DaisyToolchain/0.2.0/arm/arm-none-eabi/include/c++/10.3.1/bits/stl_algobase.h **** #define _STL_ALGOBASE_H 1
  58:/Library/DaisyToolchain/0.2.0/arm/arm-none-eabi/include/c++/10.3.1/bits/stl_algobase.h **** 
  59:/Library/DaisyToolchain/0.2.0/arm/arm-none-eabi/include/c++/10.3.1/bits/stl_algobase.h **** #include <bits/c++config.h>
  60:/Library/DaisyToolchain/0.2.0/arm/arm-none-eabi/include/c++/10.3.1/bits/stl_algobase.h **** #include <bits/functexcept.h>
  61:/Library/DaisyToolchain/0.2.0/arm/arm-none-eabi/include/c++/10.3.1/bits/stl_algobase.h **** #include <bits/cpp_type_traits.h>
  62:/Library/DaisyToolchain/0.2.0/arm/arm-none-eabi/include/c++/10.3.1/bits/stl_algobase.h **** #include <ext/type_traits.h>
  63:/Library/DaisyToolchain/0.2.0/arm/arm-none-eabi/include/c++/10.3.1/bits/stl_algobase.h **** #include <ext/numeric_traits.h>
  64:/Library/DaisyToolchain/0.2.0/arm/arm-none-eabi/include/c++/10.3.1/bits/stl_algobase.h **** #include <bits/stl_pair.h>
  65:/Library/DaisyToolchain/0.2.0/arm/arm-none-eabi/include/c++/10.3.1/bits/stl_algobase.h **** #include <bits/stl_iterator_base_types.h>
  66:/Library/DaisyToolchain/0.2.0/arm/arm-none-eabi/include/c++/10.3.1/bits/stl_algobase.h **** #include <bits/stl_iterator_base_funcs.h>
  67:/Library/DaisyToolchain/0.2.0/arm/arm-none-eabi/include/c++/10.3.1/bits/stl_algobase.h **** #include <bits/stl_iterator.h>
  68:/Library/DaisyToolchain/0.2.0/arm/arm-none-eabi/include/c++/10.3.1/bits/stl_algobase.h **** #include <bits/concept_check.h>
  69:/Library/DaisyToolchain/0.2.0/arm/arm-none-eabi/include/c++/10.3.1/bits/stl_algobase.h **** #include <debug/debug.h>
  70:/Library/DaisyToolchain/0.2.0/arm/arm-none-eabi/include/c++/10.3.1/bits/stl_algobase.h **** #include <bits/move.h> // For std::swap
  71:/Library/DaisyToolchain/0.2.0/arm/arm-none-eabi/include/c++/10.3.1/bits/stl_algobase.h **** #include <bits/predefined_ops.h>
  72:/Library/DaisyToolchain/0.2.0/arm/arm-none-eabi/include/c++/10.3.1/bits/stl_algobase.h **** #if __cplusplus >= 201103L
  73:/Library/DaisyToolchain/0.2.0/arm/arm-none-eabi/include/c++/10.3.1/bits/stl_algobase.h **** # include <type_traits>
  74:/Library/DaisyToolchain/0.2.0/arm/arm-none-eabi/include/c++/10.3.1/bits/stl_algobase.h **** #endif
  75:/Library/DaisyToolchain/0.2.0/arm/arm-none-eabi/include/c++/10.3.1/bits/stl_algobase.h **** #if __cplusplus > 201703L
  76:/Library/DaisyToolchain/0.2.0/arm/arm-none-eabi/include/c++/10.3.1/bits/stl_algobase.h **** # include <compare>
  77:/Library/DaisyToolchain/0.2.0/arm/arm-none-eabi/include/c++/10.3.1/bits/stl_algobase.h **** #endif
  78:/Library/DaisyToolchain/0.2.0/arm/arm-none-eabi/include/c++/10.3.1/bits/stl_algobase.h **** 
ARM GAS  /var/folders/9s/8rp0_f2s1n31qbztm3b5_fdh0000gn/T//cczTgMG8.s 			page 18


  79:/Library/DaisyToolchain/0.2.0/arm/arm-none-eabi/include/c++/10.3.1/bits/stl_algobase.h **** namespace std _GLIBCXX_VISIBILITY(default)
  80:/Library/DaisyToolchain/0.2.0/arm/arm-none-eabi/include/c++/10.3.1/bits/stl_algobase.h **** {
  81:/Library/DaisyToolchain/0.2.0/arm/arm-none-eabi/include/c++/10.3.1/bits/stl_algobase.h **** _GLIBCXX_BEGIN_NAMESPACE_VERSION
  82:/Library/DaisyToolchain/0.2.0/arm/arm-none-eabi/include/c++/10.3.1/bits/stl_algobase.h **** 
  83:/Library/DaisyToolchain/0.2.0/arm/arm-none-eabi/include/c++/10.3.1/bits/stl_algobase.h ****   /*
  84:/Library/DaisyToolchain/0.2.0/arm/arm-none-eabi/include/c++/10.3.1/bits/stl_algobase.h ****    * A constexpr wrapper for __builtin_memcmp.
  85:/Library/DaisyToolchain/0.2.0/arm/arm-none-eabi/include/c++/10.3.1/bits/stl_algobase.h ****    * @param __num The number of elements of type _Tp (not bytes).
  86:/Library/DaisyToolchain/0.2.0/arm/arm-none-eabi/include/c++/10.3.1/bits/stl_algobase.h ****    */
  87:/Library/DaisyToolchain/0.2.0/arm/arm-none-eabi/include/c++/10.3.1/bits/stl_algobase.h ****   template<typename _Tp, typename _Up>
  88:/Library/DaisyToolchain/0.2.0/arm/arm-none-eabi/include/c++/10.3.1/bits/stl_algobase.h ****     _GLIBCXX14_CONSTEXPR
  89:/Library/DaisyToolchain/0.2.0/arm/arm-none-eabi/include/c++/10.3.1/bits/stl_algobase.h ****     inline int
  90:/Library/DaisyToolchain/0.2.0/arm/arm-none-eabi/include/c++/10.3.1/bits/stl_algobase.h ****     __memcmp(const _Tp* __first1, const _Up* __first2, size_t __num)
  91:/Library/DaisyToolchain/0.2.0/arm/arm-none-eabi/include/c++/10.3.1/bits/stl_algobase.h ****     {
  92:/Library/DaisyToolchain/0.2.0/arm/arm-none-eabi/include/c++/10.3.1/bits/stl_algobase.h **** #if __cplusplus >= 201103L
  93:/Library/DaisyToolchain/0.2.0/arm/arm-none-eabi/include/c++/10.3.1/bits/stl_algobase.h ****       static_assert(sizeof(_Tp) == sizeof(_Up), "can be compared with memcmp");
  94:/Library/DaisyToolchain/0.2.0/arm/arm-none-eabi/include/c++/10.3.1/bits/stl_algobase.h **** #endif
  95:/Library/DaisyToolchain/0.2.0/arm/arm-none-eabi/include/c++/10.3.1/bits/stl_algobase.h **** #ifdef __cpp_lib_is_constant_evaluated
  96:/Library/DaisyToolchain/0.2.0/arm/arm-none-eabi/include/c++/10.3.1/bits/stl_algobase.h ****       if (std::is_constant_evaluated())
  97:/Library/DaisyToolchain/0.2.0/arm/arm-none-eabi/include/c++/10.3.1/bits/stl_algobase.h **** 	{
  98:/Library/DaisyToolchain/0.2.0/arm/arm-none-eabi/include/c++/10.3.1/bits/stl_algobase.h **** 	  for(; __num > 0; ++__first1, ++__first2, --__num)
  99:/Library/DaisyToolchain/0.2.0/arm/arm-none-eabi/include/c++/10.3.1/bits/stl_algobase.h **** 	    if (*__first1 != *__first2)
 100:/Library/DaisyToolchain/0.2.0/arm/arm-none-eabi/include/c++/10.3.1/bits/stl_algobase.h **** 	      return *__first1 < *__first2 ? -1 : 1;
 101:/Library/DaisyToolchain/0.2.0/arm/arm-none-eabi/include/c++/10.3.1/bits/stl_algobase.h **** 	  return 0;
 102:/Library/DaisyToolchain/0.2.0/arm/arm-none-eabi/include/c++/10.3.1/bits/stl_algobase.h **** 	}
 103:/Library/DaisyToolchain/0.2.0/arm/arm-none-eabi/include/c++/10.3.1/bits/stl_algobase.h ****       else
 104:/Library/DaisyToolchain/0.2.0/arm/arm-none-eabi/include/c++/10.3.1/bits/stl_algobase.h **** #endif
 105:/Library/DaisyToolchain/0.2.0/arm/arm-none-eabi/include/c++/10.3.1/bits/stl_algobase.h **** 	return __builtin_memcmp(__first1, __first2, sizeof(_Tp) * __num);
 106:/Library/DaisyToolchain/0.2.0/arm/arm-none-eabi/include/c++/10.3.1/bits/stl_algobase.h ****     }
 107:/Library/DaisyToolchain/0.2.0/arm/arm-none-eabi/include/c++/10.3.1/bits/stl_algobase.h **** 
 108:/Library/DaisyToolchain/0.2.0/arm/arm-none-eabi/include/c++/10.3.1/bits/stl_algobase.h **** #if __cplusplus < 201103L
 109:/Library/DaisyToolchain/0.2.0/arm/arm-none-eabi/include/c++/10.3.1/bits/stl_algobase.h ****   // See http://gcc.gnu.org/ml/libstdc++/2004-08/msg00167.html: in a
 110:/Library/DaisyToolchain/0.2.0/arm/arm-none-eabi/include/c++/10.3.1/bits/stl_algobase.h ****   // nutshell, we are partially implementing the resolution of DR 187,
 111:/Library/DaisyToolchain/0.2.0/arm/arm-none-eabi/include/c++/10.3.1/bits/stl_algobase.h ****   // when it's safe, i.e., the value_types are equal.
 112:/Library/DaisyToolchain/0.2.0/arm/arm-none-eabi/include/c++/10.3.1/bits/stl_algobase.h ****   template<bool _BoolType>
 113:/Library/DaisyToolchain/0.2.0/arm/arm-none-eabi/include/c++/10.3.1/bits/stl_algobase.h ****     struct __iter_swap
 114:/Library/DaisyToolchain/0.2.0/arm/arm-none-eabi/include/c++/10.3.1/bits/stl_algobase.h ****     {
 115:/Library/DaisyToolchain/0.2.0/arm/arm-none-eabi/include/c++/10.3.1/bits/stl_algobase.h ****       template<typename _ForwardIterator1, typename _ForwardIterator2>
 116:/Library/DaisyToolchain/0.2.0/arm/arm-none-eabi/include/c++/10.3.1/bits/stl_algobase.h **** 	static void
 117:/Library/DaisyToolchain/0.2.0/arm/arm-none-eabi/include/c++/10.3.1/bits/stl_algobase.h **** 	iter_swap(_ForwardIterator1 __a, _ForwardIterator2 __b)
 118:/Library/DaisyToolchain/0.2.0/arm/arm-none-eabi/include/c++/10.3.1/bits/stl_algobase.h **** 	{
 119:/Library/DaisyToolchain/0.2.0/arm/arm-none-eabi/include/c++/10.3.1/bits/stl_algobase.h **** 	  typedef typename iterator_traits<_ForwardIterator1>::value_type
 120:/Library/DaisyToolchain/0.2.0/arm/arm-none-eabi/include/c++/10.3.1/bits/stl_algobase.h **** 	    _ValueType1;
 121:/Library/DaisyToolchain/0.2.0/arm/arm-none-eabi/include/c++/10.3.1/bits/stl_algobase.h **** 	  _ValueType1 __tmp = *__a;
 122:/Library/DaisyToolchain/0.2.0/arm/arm-none-eabi/include/c++/10.3.1/bits/stl_algobase.h **** 	  *__a = *__b;
 123:/Library/DaisyToolchain/0.2.0/arm/arm-none-eabi/include/c++/10.3.1/bits/stl_algobase.h **** 	  *__b = __tmp;
 124:/Library/DaisyToolchain/0.2.0/arm/arm-none-eabi/include/c++/10.3.1/bits/stl_algobase.h **** 	}
 125:/Library/DaisyToolchain/0.2.0/arm/arm-none-eabi/include/c++/10.3.1/bits/stl_algobase.h ****     };
 126:/Library/DaisyToolchain/0.2.0/arm/arm-none-eabi/include/c++/10.3.1/bits/stl_algobase.h **** 
 127:/Library/DaisyToolchain/0.2.0/arm/arm-none-eabi/include/c++/10.3.1/bits/stl_algobase.h ****   template<>
 128:/Library/DaisyToolchain/0.2.0/arm/arm-none-eabi/include/c++/10.3.1/bits/stl_algobase.h ****     struct __iter_swap<true>
 129:/Library/DaisyToolchain/0.2.0/arm/arm-none-eabi/include/c++/10.3.1/bits/stl_algobase.h ****     {
 130:/Library/DaisyToolchain/0.2.0/arm/arm-none-eabi/include/c++/10.3.1/bits/stl_algobase.h ****       template<typename _ForwardIterator1, typename _ForwardIterator2>
 131:/Library/DaisyToolchain/0.2.0/arm/arm-none-eabi/include/c++/10.3.1/bits/stl_algobase.h **** 	static void
 132:/Library/DaisyToolchain/0.2.0/arm/arm-none-eabi/include/c++/10.3.1/bits/stl_algobase.h **** 	iter_swap(_ForwardIterator1 __a, _ForwardIterator2 __b)
 133:/Library/DaisyToolchain/0.2.0/arm/arm-none-eabi/include/c++/10.3.1/bits/stl_algobase.h **** 	{
 134:/Library/DaisyToolchain/0.2.0/arm/arm-none-eabi/include/c++/10.3.1/bits/stl_algobase.h **** 	  swap(*__a, *__b);
 135:/Library/DaisyToolchain/0.2.0/arm/arm-none-eabi/include/c++/10.3.1/bits/stl_algobase.h **** 	}
ARM GAS  /var/folders/9s/8rp0_f2s1n31qbztm3b5_fdh0000gn/T//cczTgMG8.s 			page 19


 136:/Library/DaisyToolchain/0.2.0/arm/arm-none-eabi/include/c++/10.3.1/bits/stl_algobase.h ****     };
 137:/Library/DaisyToolchain/0.2.0/arm/arm-none-eabi/include/c++/10.3.1/bits/stl_algobase.h **** #endif // C++03
 138:/Library/DaisyToolchain/0.2.0/arm/arm-none-eabi/include/c++/10.3.1/bits/stl_algobase.h **** 
 139:/Library/DaisyToolchain/0.2.0/arm/arm-none-eabi/include/c++/10.3.1/bits/stl_algobase.h ****   /**
 140:/Library/DaisyToolchain/0.2.0/arm/arm-none-eabi/include/c++/10.3.1/bits/stl_algobase.h ****    *  @brief Swaps the contents of two iterators.
 141:/Library/DaisyToolchain/0.2.0/arm/arm-none-eabi/include/c++/10.3.1/bits/stl_algobase.h ****    *  @ingroup mutating_algorithms
 142:/Library/DaisyToolchain/0.2.0/arm/arm-none-eabi/include/c++/10.3.1/bits/stl_algobase.h ****    *  @param  __a  An iterator.
 143:/Library/DaisyToolchain/0.2.0/arm/arm-none-eabi/include/c++/10.3.1/bits/stl_algobase.h ****    *  @param  __b  Another iterator.
 144:/Library/DaisyToolchain/0.2.0/arm/arm-none-eabi/include/c++/10.3.1/bits/stl_algobase.h ****    *  @return   Nothing.
 145:/Library/DaisyToolchain/0.2.0/arm/arm-none-eabi/include/c++/10.3.1/bits/stl_algobase.h ****    *
 146:/Library/DaisyToolchain/0.2.0/arm/arm-none-eabi/include/c++/10.3.1/bits/stl_algobase.h ****    *  This function swaps the values pointed to by two iterators, not the
 147:/Library/DaisyToolchain/0.2.0/arm/arm-none-eabi/include/c++/10.3.1/bits/stl_algobase.h ****    *  iterators themselves.
 148:/Library/DaisyToolchain/0.2.0/arm/arm-none-eabi/include/c++/10.3.1/bits/stl_algobase.h ****   */
 149:/Library/DaisyToolchain/0.2.0/arm/arm-none-eabi/include/c++/10.3.1/bits/stl_algobase.h ****   template<typename _ForwardIterator1, typename _ForwardIterator2>
 150:/Library/DaisyToolchain/0.2.0/arm/arm-none-eabi/include/c++/10.3.1/bits/stl_algobase.h ****     _GLIBCXX20_CONSTEXPR
 151:/Library/DaisyToolchain/0.2.0/arm/arm-none-eabi/include/c++/10.3.1/bits/stl_algobase.h ****     inline void
 152:/Library/DaisyToolchain/0.2.0/arm/arm-none-eabi/include/c++/10.3.1/bits/stl_algobase.h ****     iter_swap(_ForwardIterator1 __a, _ForwardIterator2 __b)
 153:/Library/DaisyToolchain/0.2.0/arm/arm-none-eabi/include/c++/10.3.1/bits/stl_algobase.h ****     {
 154:/Library/DaisyToolchain/0.2.0/arm/arm-none-eabi/include/c++/10.3.1/bits/stl_algobase.h ****       // concept requirements
 155:/Library/DaisyToolchain/0.2.0/arm/arm-none-eabi/include/c++/10.3.1/bits/stl_algobase.h ****       __glibcxx_function_requires(_Mutable_ForwardIteratorConcept<
 156:/Library/DaisyToolchain/0.2.0/arm/arm-none-eabi/include/c++/10.3.1/bits/stl_algobase.h **** 				  _ForwardIterator1>)
 157:/Library/DaisyToolchain/0.2.0/arm/arm-none-eabi/include/c++/10.3.1/bits/stl_algobase.h ****       __glibcxx_function_requires(_Mutable_ForwardIteratorConcept<
 158:/Library/DaisyToolchain/0.2.0/arm/arm-none-eabi/include/c++/10.3.1/bits/stl_algobase.h **** 				  _ForwardIterator2>)
 159:/Library/DaisyToolchain/0.2.0/arm/arm-none-eabi/include/c++/10.3.1/bits/stl_algobase.h **** 
 160:/Library/DaisyToolchain/0.2.0/arm/arm-none-eabi/include/c++/10.3.1/bits/stl_algobase.h **** #if __cplusplus < 201103L
 161:/Library/DaisyToolchain/0.2.0/arm/arm-none-eabi/include/c++/10.3.1/bits/stl_algobase.h ****       typedef typename iterator_traits<_ForwardIterator1>::value_type
 162:/Library/DaisyToolchain/0.2.0/arm/arm-none-eabi/include/c++/10.3.1/bits/stl_algobase.h **** 	_ValueType1;
 163:/Library/DaisyToolchain/0.2.0/arm/arm-none-eabi/include/c++/10.3.1/bits/stl_algobase.h ****       typedef typename iterator_traits<_ForwardIterator2>::value_type
 164:/Library/DaisyToolchain/0.2.0/arm/arm-none-eabi/include/c++/10.3.1/bits/stl_algobase.h **** 	_ValueType2;
 165:/Library/DaisyToolchain/0.2.0/arm/arm-none-eabi/include/c++/10.3.1/bits/stl_algobase.h **** 
 166:/Library/DaisyToolchain/0.2.0/arm/arm-none-eabi/include/c++/10.3.1/bits/stl_algobase.h ****       __glibcxx_function_requires(_ConvertibleConcept<_ValueType1,
 167:/Library/DaisyToolchain/0.2.0/arm/arm-none-eabi/include/c++/10.3.1/bits/stl_algobase.h **** 				  _ValueType2>)
 168:/Library/DaisyToolchain/0.2.0/arm/arm-none-eabi/include/c++/10.3.1/bits/stl_algobase.h ****       __glibcxx_function_requires(_ConvertibleConcept<_ValueType2,
 169:/Library/DaisyToolchain/0.2.0/arm/arm-none-eabi/include/c++/10.3.1/bits/stl_algobase.h **** 				  _ValueType1>)
 170:/Library/DaisyToolchain/0.2.0/arm/arm-none-eabi/include/c++/10.3.1/bits/stl_algobase.h **** 
 171:/Library/DaisyToolchain/0.2.0/arm/arm-none-eabi/include/c++/10.3.1/bits/stl_algobase.h ****       typedef typename iterator_traits<_ForwardIterator1>::reference
 172:/Library/DaisyToolchain/0.2.0/arm/arm-none-eabi/include/c++/10.3.1/bits/stl_algobase.h **** 	_ReferenceType1;
 173:/Library/DaisyToolchain/0.2.0/arm/arm-none-eabi/include/c++/10.3.1/bits/stl_algobase.h ****       typedef typename iterator_traits<_ForwardIterator2>::reference
 174:/Library/DaisyToolchain/0.2.0/arm/arm-none-eabi/include/c++/10.3.1/bits/stl_algobase.h **** 	_ReferenceType2;
 175:/Library/DaisyToolchain/0.2.0/arm/arm-none-eabi/include/c++/10.3.1/bits/stl_algobase.h ****       std::__iter_swap<__are_same<_ValueType1, _ValueType2>::__value
 176:/Library/DaisyToolchain/0.2.0/arm/arm-none-eabi/include/c++/10.3.1/bits/stl_algobase.h **** 	&& __are_same<_ValueType1&, _ReferenceType1>::__value
 177:/Library/DaisyToolchain/0.2.0/arm/arm-none-eabi/include/c++/10.3.1/bits/stl_algobase.h **** 	&& __are_same<_ValueType2&, _ReferenceType2>::__value>::
 178:/Library/DaisyToolchain/0.2.0/arm/arm-none-eabi/include/c++/10.3.1/bits/stl_algobase.h **** 	iter_swap(__a, __b);
 179:/Library/DaisyToolchain/0.2.0/arm/arm-none-eabi/include/c++/10.3.1/bits/stl_algobase.h **** #else
 180:/Library/DaisyToolchain/0.2.0/arm/arm-none-eabi/include/c++/10.3.1/bits/stl_algobase.h ****       // _GLIBCXX_RESOLVE_LIB_DEFECTS
 181:/Library/DaisyToolchain/0.2.0/arm/arm-none-eabi/include/c++/10.3.1/bits/stl_algobase.h ****       // 187. iter_swap underspecified
 182:/Library/DaisyToolchain/0.2.0/arm/arm-none-eabi/include/c++/10.3.1/bits/stl_algobase.h ****       swap(*__a, *__b);
 183:/Library/DaisyToolchain/0.2.0/arm/arm-none-eabi/include/c++/10.3.1/bits/stl_algobase.h **** #endif
 184:/Library/DaisyToolchain/0.2.0/arm/arm-none-eabi/include/c++/10.3.1/bits/stl_algobase.h ****     }
 185:/Library/DaisyToolchain/0.2.0/arm/arm-none-eabi/include/c++/10.3.1/bits/stl_algobase.h **** 
 186:/Library/DaisyToolchain/0.2.0/arm/arm-none-eabi/include/c++/10.3.1/bits/stl_algobase.h ****   /**
 187:/Library/DaisyToolchain/0.2.0/arm/arm-none-eabi/include/c++/10.3.1/bits/stl_algobase.h ****    *  @brief Swap the elements of two sequences.
 188:/Library/DaisyToolchain/0.2.0/arm/arm-none-eabi/include/c++/10.3.1/bits/stl_algobase.h ****    *  @ingroup mutating_algorithms
 189:/Library/DaisyToolchain/0.2.0/arm/arm-none-eabi/include/c++/10.3.1/bits/stl_algobase.h ****    *  @param  __first1  A forward iterator.
 190:/Library/DaisyToolchain/0.2.0/arm/arm-none-eabi/include/c++/10.3.1/bits/stl_algobase.h ****    *  @param  __last1   A forward iterator.
 191:/Library/DaisyToolchain/0.2.0/arm/arm-none-eabi/include/c++/10.3.1/bits/stl_algobase.h ****    *  @param  __first2  A forward iterator.
 192:/Library/DaisyToolchain/0.2.0/arm/arm-none-eabi/include/c++/10.3.1/bits/stl_algobase.h ****    *  @return   An iterator equal to @p first2+(last1-first1).
ARM GAS  /var/folders/9s/8rp0_f2s1n31qbztm3b5_fdh0000gn/T//cczTgMG8.s 			page 20


 193:/Library/DaisyToolchain/0.2.0/arm/arm-none-eabi/include/c++/10.3.1/bits/stl_algobase.h ****    *
 194:/Library/DaisyToolchain/0.2.0/arm/arm-none-eabi/include/c++/10.3.1/bits/stl_algobase.h ****    *  Swaps each element in the range @p [first1,last1) with the
 195:/Library/DaisyToolchain/0.2.0/arm/arm-none-eabi/include/c++/10.3.1/bits/stl_algobase.h ****    *  corresponding element in the range @p [first2,(last1-first1)).
 196:/Library/DaisyToolchain/0.2.0/arm/arm-none-eabi/include/c++/10.3.1/bits/stl_algobase.h ****    *  The ranges must not overlap.
 197:/Library/DaisyToolchain/0.2.0/arm/arm-none-eabi/include/c++/10.3.1/bits/stl_algobase.h ****   */
 198:/Library/DaisyToolchain/0.2.0/arm/arm-none-eabi/include/c++/10.3.1/bits/stl_algobase.h ****   template<typename _ForwardIterator1, typename _ForwardIterator2>
 199:/Library/DaisyToolchain/0.2.0/arm/arm-none-eabi/include/c++/10.3.1/bits/stl_algobase.h ****     _GLIBCXX20_CONSTEXPR
 200:/Library/DaisyToolchain/0.2.0/arm/arm-none-eabi/include/c++/10.3.1/bits/stl_algobase.h ****     _ForwardIterator2
 201:/Library/DaisyToolchain/0.2.0/arm/arm-none-eabi/include/c++/10.3.1/bits/stl_algobase.h ****     swap_ranges(_ForwardIterator1 __first1, _ForwardIterator1 __last1,
 202:/Library/DaisyToolchain/0.2.0/arm/arm-none-eabi/include/c++/10.3.1/bits/stl_algobase.h **** 		_ForwardIterator2 __first2)
 203:/Library/DaisyToolchain/0.2.0/arm/arm-none-eabi/include/c++/10.3.1/bits/stl_algobase.h ****     {
 204:/Library/DaisyToolchain/0.2.0/arm/arm-none-eabi/include/c++/10.3.1/bits/stl_algobase.h ****       // concept requirements
 205:/Library/DaisyToolchain/0.2.0/arm/arm-none-eabi/include/c++/10.3.1/bits/stl_algobase.h ****       __glibcxx_function_requires(_Mutable_ForwardIteratorConcept<
 206:/Library/DaisyToolchain/0.2.0/arm/arm-none-eabi/include/c++/10.3.1/bits/stl_algobase.h **** 				  _ForwardIterator1>)
 207:/Library/DaisyToolchain/0.2.0/arm/arm-none-eabi/include/c++/10.3.1/bits/stl_algobase.h ****       __glibcxx_function_requires(_Mutable_ForwardIteratorConcept<
 208:/Library/DaisyToolchain/0.2.0/arm/arm-none-eabi/include/c++/10.3.1/bits/stl_algobase.h **** 				  _ForwardIterator2>)
 209:/Library/DaisyToolchain/0.2.0/arm/arm-none-eabi/include/c++/10.3.1/bits/stl_algobase.h ****       __glibcxx_requires_valid_range(__first1, __last1);
 210:/Library/DaisyToolchain/0.2.0/arm/arm-none-eabi/include/c++/10.3.1/bits/stl_algobase.h **** 
 211:/Library/DaisyToolchain/0.2.0/arm/arm-none-eabi/include/c++/10.3.1/bits/stl_algobase.h ****       for (; __first1 != __last1; ++__first1, (void)++__first2)
 212:/Library/DaisyToolchain/0.2.0/arm/arm-none-eabi/include/c++/10.3.1/bits/stl_algobase.h **** 	std::iter_swap(__first1, __first2);
 213:/Library/DaisyToolchain/0.2.0/arm/arm-none-eabi/include/c++/10.3.1/bits/stl_algobase.h ****       return __first2;
 214:/Library/DaisyToolchain/0.2.0/arm/arm-none-eabi/include/c++/10.3.1/bits/stl_algobase.h ****     }
 215:/Library/DaisyToolchain/0.2.0/arm/arm-none-eabi/include/c++/10.3.1/bits/stl_algobase.h **** 
 216:/Library/DaisyToolchain/0.2.0/arm/arm-none-eabi/include/c++/10.3.1/bits/stl_algobase.h ****   /**
 217:/Library/DaisyToolchain/0.2.0/arm/arm-none-eabi/include/c++/10.3.1/bits/stl_algobase.h ****    *  @brief This does what you think it does.
 218:/Library/DaisyToolchain/0.2.0/arm/arm-none-eabi/include/c++/10.3.1/bits/stl_algobase.h ****    *  @ingroup sorting_algorithms
 219:/Library/DaisyToolchain/0.2.0/arm/arm-none-eabi/include/c++/10.3.1/bits/stl_algobase.h ****    *  @param  __a  A thing of arbitrary type.
 220:/Library/DaisyToolchain/0.2.0/arm/arm-none-eabi/include/c++/10.3.1/bits/stl_algobase.h ****    *  @param  __b  Another thing of arbitrary type.
 221:/Library/DaisyToolchain/0.2.0/arm/arm-none-eabi/include/c++/10.3.1/bits/stl_algobase.h ****    *  @return   The lesser of the parameters.
 222:/Library/DaisyToolchain/0.2.0/arm/arm-none-eabi/include/c++/10.3.1/bits/stl_algobase.h ****    *
 223:/Library/DaisyToolchain/0.2.0/arm/arm-none-eabi/include/c++/10.3.1/bits/stl_algobase.h ****    *  This is the simple classic generic implementation.  It will work on
 224:/Library/DaisyToolchain/0.2.0/arm/arm-none-eabi/include/c++/10.3.1/bits/stl_algobase.h ****    *  temporary expressions, since they are only evaluated once, unlike a
 225:/Library/DaisyToolchain/0.2.0/arm/arm-none-eabi/include/c++/10.3.1/bits/stl_algobase.h ****    *  preprocessor macro.
 226:/Library/DaisyToolchain/0.2.0/arm/arm-none-eabi/include/c++/10.3.1/bits/stl_algobase.h ****   */
 227:/Library/DaisyToolchain/0.2.0/arm/arm-none-eabi/include/c++/10.3.1/bits/stl_algobase.h ****   template<typename _Tp>
 228:/Library/DaisyToolchain/0.2.0/arm/arm-none-eabi/include/c++/10.3.1/bits/stl_algobase.h ****     _GLIBCXX14_CONSTEXPR
 229:/Library/DaisyToolchain/0.2.0/arm/arm-none-eabi/include/c++/10.3.1/bits/stl_algobase.h ****     inline const _Tp&
 230:/Library/DaisyToolchain/0.2.0/arm/arm-none-eabi/include/c++/10.3.1/bits/stl_algobase.h ****     min(const _Tp& __a, const _Tp& __b)
 231:/Library/DaisyToolchain/0.2.0/arm/arm-none-eabi/include/c++/10.3.1/bits/stl_algobase.h ****     {
 232:/Library/DaisyToolchain/0.2.0/arm/arm-none-eabi/include/c++/10.3.1/bits/stl_algobase.h ****       // concept requirements
 233:/Library/DaisyToolchain/0.2.0/arm/arm-none-eabi/include/c++/10.3.1/bits/stl_algobase.h ****       __glibcxx_function_requires(_LessThanComparableConcept<_Tp>)
 234:/Library/DaisyToolchain/0.2.0/arm/arm-none-eabi/include/c++/10.3.1/bits/stl_algobase.h ****       //return __b < __a ? __b : __a;
 235:/Library/DaisyToolchain/0.2.0/arm/arm-none-eabi/include/c++/10.3.1/bits/stl_algobase.h ****       if (__b < __a)
 236:/Library/DaisyToolchain/0.2.0/arm/arm-none-eabi/include/c++/10.3.1/bits/stl_algobase.h **** 	return __b;
 237:/Library/DaisyToolchain/0.2.0/arm/arm-none-eabi/include/c++/10.3.1/bits/stl_algobase.h ****       return __a;
 238:/Library/DaisyToolchain/0.2.0/arm/arm-none-eabi/include/c++/10.3.1/bits/stl_algobase.h ****     }
 239:/Library/DaisyToolchain/0.2.0/arm/arm-none-eabi/include/c++/10.3.1/bits/stl_algobase.h **** 
 240:/Library/DaisyToolchain/0.2.0/arm/arm-none-eabi/include/c++/10.3.1/bits/stl_algobase.h ****   /**
 241:/Library/DaisyToolchain/0.2.0/arm/arm-none-eabi/include/c++/10.3.1/bits/stl_algobase.h ****    *  @brief This does what you think it does.
 242:/Library/DaisyToolchain/0.2.0/arm/arm-none-eabi/include/c++/10.3.1/bits/stl_algobase.h ****    *  @ingroup sorting_algorithms
 243:/Library/DaisyToolchain/0.2.0/arm/arm-none-eabi/include/c++/10.3.1/bits/stl_algobase.h ****    *  @param  __a  A thing of arbitrary type.
 244:/Library/DaisyToolchain/0.2.0/arm/arm-none-eabi/include/c++/10.3.1/bits/stl_algobase.h ****    *  @param  __b  Another thing of arbitrary type.
 245:/Library/DaisyToolchain/0.2.0/arm/arm-none-eabi/include/c++/10.3.1/bits/stl_algobase.h ****    *  @return   The greater of the parameters.
 246:/Library/DaisyToolchain/0.2.0/arm/arm-none-eabi/include/c++/10.3.1/bits/stl_algobase.h ****    *
 247:/Library/DaisyToolchain/0.2.0/arm/arm-none-eabi/include/c++/10.3.1/bits/stl_algobase.h ****    *  This is the simple classic generic implementation.  It will work on
 248:/Library/DaisyToolchain/0.2.0/arm/arm-none-eabi/include/c++/10.3.1/bits/stl_algobase.h ****    *  temporary expressions, since they are only evaluated once, unlike a
 249:/Library/DaisyToolchain/0.2.0/arm/arm-none-eabi/include/c++/10.3.1/bits/stl_algobase.h ****    *  preprocessor macro.
ARM GAS  /var/folders/9s/8rp0_f2s1n31qbztm3b5_fdh0000gn/T//cczTgMG8.s 			page 21


 250:/Library/DaisyToolchain/0.2.0/arm/arm-none-eabi/include/c++/10.3.1/bits/stl_algobase.h ****   */
 251:/Library/DaisyToolchain/0.2.0/arm/arm-none-eabi/include/c++/10.3.1/bits/stl_algobase.h ****   template<typename _Tp>
 252:/Library/DaisyToolchain/0.2.0/arm/arm-none-eabi/include/c++/10.3.1/bits/stl_algobase.h ****     _GLIBCXX14_CONSTEXPR
 253:/Library/DaisyToolchain/0.2.0/arm/arm-none-eabi/include/c++/10.3.1/bits/stl_algobase.h ****     inline const _Tp&
 254:/Library/DaisyToolchain/0.2.0/arm/arm-none-eabi/include/c++/10.3.1/bits/stl_algobase.h ****     max(const _Tp& __a, const _Tp& __b)
 255:/Library/DaisyToolchain/0.2.0/arm/arm-none-eabi/include/c++/10.3.1/bits/stl_algobase.h ****     {
 256:/Library/DaisyToolchain/0.2.0/arm/arm-none-eabi/include/c++/10.3.1/bits/stl_algobase.h ****       // concept requirements
 257:/Library/DaisyToolchain/0.2.0/arm/arm-none-eabi/include/c++/10.3.1/bits/stl_algobase.h ****       __glibcxx_function_requires(_LessThanComparableConcept<_Tp>)
 258:/Library/DaisyToolchain/0.2.0/arm/arm-none-eabi/include/c++/10.3.1/bits/stl_algobase.h ****       //return  __a < __b ? __b : __a;
 259:/Library/DaisyToolchain/0.2.0/arm/arm-none-eabi/include/c++/10.3.1/bits/stl_algobase.h ****       if (__a < __b)
 260:/Library/DaisyToolchain/0.2.0/arm/arm-none-eabi/include/c++/10.3.1/bits/stl_algobase.h **** 	return __b;
 261:/Library/DaisyToolchain/0.2.0/arm/arm-none-eabi/include/c++/10.3.1/bits/stl_algobase.h ****       return __a;
 262:/Library/DaisyToolchain/0.2.0/arm/arm-none-eabi/include/c++/10.3.1/bits/stl_algobase.h ****     }
 263:/Library/DaisyToolchain/0.2.0/arm/arm-none-eabi/include/c++/10.3.1/bits/stl_algobase.h **** 
 264:/Library/DaisyToolchain/0.2.0/arm/arm-none-eabi/include/c++/10.3.1/bits/stl_algobase.h ****   /**
 265:/Library/DaisyToolchain/0.2.0/arm/arm-none-eabi/include/c++/10.3.1/bits/stl_algobase.h ****    *  @brief This does what you think it does.
 266:/Library/DaisyToolchain/0.2.0/arm/arm-none-eabi/include/c++/10.3.1/bits/stl_algobase.h ****    *  @ingroup sorting_algorithms
 267:/Library/DaisyToolchain/0.2.0/arm/arm-none-eabi/include/c++/10.3.1/bits/stl_algobase.h ****    *  @param  __a  A thing of arbitrary type.
 268:/Library/DaisyToolchain/0.2.0/arm/arm-none-eabi/include/c++/10.3.1/bits/stl_algobase.h ****    *  @param  __b  Another thing of arbitrary type.
 269:/Library/DaisyToolchain/0.2.0/arm/arm-none-eabi/include/c++/10.3.1/bits/stl_algobase.h ****    *  @param  __comp  A @link comparison_functors comparison functor@endlink.
 270:/Library/DaisyToolchain/0.2.0/arm/arm-none-eabi/include/c++/10.3.1/bits/stl_algobase.h ****    *  @return   The lesser of the parameters.
 271:/Library/DaisyToolchain/0.2.0/arm/arm-none-eabi/include/c++/10.3.1/bits/stl_algobase.h ****    *
 272:/Library/DaisyToolchain/0.2.0/arm/arm-none-eabi/include/c++/10.3.1/bits/stl_algobase.h ****    *  This will work on temporary expressions, since they are only evaluated
 273:/Library/DaisyToolchain/0.2.0/arm/arm-none-eabi/include/c++/10.3.1/bits/stl_algobase.h ****    *  once, unlike a preprocessor macro.
 274:/Library/DaisyToolchain/0.2.0/arm/arm-none-eabi/include/c++/10.3.1/bits/stl_algobase.h ****   */
 275:/Library/DaisyToolchain/0.2.0/arm/arm-none-eabi/include/c++/10.3.1/bits/stl_algobase.h ****   template<typename _Tp, typename _Compare>
 276:/Library/DaisyToolchain/0.2.0/arm/arm-none-eabi/include/c++/10.3.1/bits/stl_algobase.h ****     _GLIBCXX14_CONSTEXPR
 277:/Library/DaisyToolchain/0.2.0/arm/arm-none-eabi/include/c++/10.3.1/bits/stl_algobase.h ****     inline const _Tp&
 278:/Library/DaisyToolchain/0.2.0/arm/arm-none-eabi/include/c++/10.3.1/bits/stl_algobase.h ****     min(const _Tp& __a, const _Tp& __b, _Compare __comp)
 279:/Library/DaisyToolchain/0.2.0/arm/arm-none-eabi/include/c++/10.3.1/bits/stl_algobase.h ****     {
 280:/Library/DaisyToolchain/0.2.0/arm/arm-none-eabi/include/c++/10.3.1/bits/stl_algobase.h ****       //return __comp(__b, __a) ? __b : __a;
 281:/Library/DaisyToolchain/0.2.0/arm/arm-none-eabi/include/c++/10.3.1/bits/stl_algobase.h ****       if (__comp(__b, __a))
 282:/Library/DaisyToolchain/0.2.0/arm/arm-none-eabi/include/c++/10.3.1/bits/stl_algobase.h **** 	return __b;
 283:/Library/DaisyToolchain/0.2.0/arm/arm-none-eabi/include/c++/10.3.1/bits/stl_algobase.h ****       return __a;
 284:/Library/DaisyToolchain/0.2.0/arm/arm-none-eabi/include/c++/10.3.1/bits/stl_algobase.h ****     }
 285:/Library/DaisyToolchain/0.2.0/arm/arm-none-eabi/include/c++/10.3.1/bits/stl_algobase.h **** 
 286:/Library/DaisyToolchain/0.2.0/arm/arm-none-eabi/include/c++/10.3.1/bits/stl_algobase.h ****   /**
 287:/Library/DaisyToolchain/0.2.0/arm/arm-none-eabi/include/c++/10.3.1/bits/stl_algobase.h ****    *  @brief This does what you think it does.
 288:/Library/DaisyToolchain/0.2.0/arm/arm-none-eabi/include/c++/10.3.1/bits/stl_algobase.h ****    *  @ingroup sorting_algorithms
 289:/Library/DaisyToolchain/0.2.0/arm/arm-none-eabi/include/c++/10.3.1/bits/stl_algobase.h ****    *  @param  __a  A thing of arbitrary type.
 290:/Library/DaisyToolchain/0.2.0/arm/arm-none-eabi/include/c++/10.3.1/bits/stl_algobase.h ****    *  @param  __b  Another thing of arbitrary type.
 291:/Library/DaisyToolchain/0.2.0/arm/arm-none-eabi/include/c++/10.3.1/bits/stl_algobase.h ****    *  @param  __comp  A @link comparison_functors comparison functor@endlink.
 292:/Library/DaisyToolchain/0.2.0/arm/arm-none-eabi/include/c++/10.3.1/bits/stl_algobase.h ****    *  @return   The greater of the parameters.
 293:/Library/DaisyToolchain/0.2.0/arm/arm-none-eabi/include/c++/10.3.1/bits/stl_algobase.h ****    *
 294:/Library/DaisyToolchain/0.2.0/arm/arm-none-eabi/include/c++/10.3.1/bits/stl_algobase.h ****    *  This will work on temporary expressions, since they are only evaluated
 295:/Library/DaisyToolchain/0.2.0/arm/arm-none-eabi/include/c++/10.3.1/bits/stl_algobase.h ****    *  once, unlike a preprocessor macro.
 296:/Library/DaisyToolchain/0.2.0/arm/arm-none-eabi/include/c++/10.3.1/bits/stl_algobase.h ****   */
 297:/Library/DaisyToolchain/0.2.0/arm/arm-none-eabi/include/c++/10.3.1/bits/stl_algobase.h ****   template<typename _Tp, typename _Compare>
 298:/Library/DaisyToolchain/0.2.0/arm/arm-none-eabi/include/c++/10.3.1/bits/stl_algobase.h ****     _GLIBCXX14_CONSTEXPR
 299:/Library/DaisyToolchain/0.2.0/arm/arm-none-eabi/include/c++/10.3.1/bits/stl_algobase.h ****     inline const _Tp&
 300:/Library/DaisyToolchain/0.2.0/arm/arm-none-eabi/include/c++/10.3.1/bits/stl_algobase.h ****     max(const _Tp& __a, const _Tp& __b, _Compare __comp)
 301:/Library/DaisyToolchain/0.2.0/arm/arm-none-eabi/include/c++/10.3.1/bits/stl_algobase.h ****     {
 302:/Library/DaisyToolchain/0.2.0/arm/arm-none-eabi/include/c++/10.3.1/bits/stl_algobase.h ****       //return __comp(__a, __b) ? __b : __a;
 303:/Library/DaisyToolchain/0.2.0/arm/arm-none-eabi/include/c++/10.3.1/bits/stl_algobase.h ****       if (__comp(__a, __b))
 304:/Library/DaisyToolchain/0.2.0/arm/arm-none-eabi/include/c++/10.3.1/bits/stl_algobase.h **** 	return __b;
 305:/Library/DaisyToolchain/0.2.0/arm/arm-none-eabi/include/c++/10.3.1/bits/stl_algobase.h ****       return __a;
 306:/Library/DaisyToolchain/0.2.0/arm/arm-none-eabi/include/c++/10.3.1/bits/stl_algobase.h ****     }
ARM GAS  /var/folders/9s/8rp0_f2s1n31qbztm3b5_fdh0000gn/T//cczTgMG8.s 			page 22


 307:/Library/DaisyToolchain/0.2.0/arm/arm-none-eabi/include/c++/10.3.1/bits/stl_algobase.h **** 
 308:/Library/DaisyToolchain/0.2.0/arm/arm-none-eabi/include/c++/10.3.1/bits/stl_algobase.h ****   // Fallback implementation of the function in bits/stl_iterator.h used to
 309:/Library/DaisyToolchain/0.2.0/arm/arm-none-eabi/include/c++/10.3.1/bits/stl_algobase.h ****   // remove the __normal_iterator wrapper. See copy, fill, ...
 310:/Library/DaisyToolchain/0.2.0/arm/arm-none-eabi/include/c++/10.3.1/bits/stl_algobase.h ****   template<typename _Iterator>
 311:/Library/DaisyToolchain/0.2.0/arm/arm-none-eabi/include/c++/10.3.1/bits/stl_algobase.h ****     _GLIBCXX20_CONSTEXPR
 312:/Library/DaisyToolchain/0.2.0/arm/arm-none-eabi/include/c++/10.3.1/bits/stl_algobase.h ****     inline _Iterator
 313:/Library/DaisyToolchain/0.2.0/arm/arm-none-eabi/include/c++/10.3.1/bits/stl_algobase.h ****     __niter_base(_Iterator __it)
 314:/Library/DaisyToolchain/0.2.0/arm/arm-none-eabi/include/c++/10.3.1/bits/stl_algobase.h ****     _GLIBCXX_NOEXCEPT_IF(std::is_nothrow_copy_constructible<_Iterator>::value)
 315:/Library/DaisyToolchain/0.2.0/arm/arm-none-eabi/include/c++/10.3.1/bits/stl_algobase.h ****     { return __it; }
 316:/Library/DaisyToolchain/0.2.0/arm/arm-none-eabi/include/c++/10.3.1/bits/stl_algobase.h **** 
 317:/Library/DaisyToolchain/0.2.0/arm/arm-none-eabi/include/c++/10.3.1/bits/stl_algobase.h ****   // Reverse the __niter_base transformation to get a
 318:/Library/DaisyToolchain/0.2.0/arm/arm-none-eabi/include/c++/10.3.1/bits/stl_algobase.h ****   // __normal_iterator back again (this assumes that __normal_iterator
 319:/Library/DaisyToolchain/0.2.0/arm/arm-none-eabi/include/c++/10.3.1/bits/stl_algobase.h ****   // is only used to wrap random access iterators, like pointers).
 320:/Library/DaisyToolchain/0.2.0/arm/arm-none-eabi/include/c++/10.3.1/bits/stl_algobase.h ****   template<typename _From, typename _To>
 321:/Library/DaisyToolchain/0.2.0/arm/arm-none-eabi/include/c++/10.3.1/bits/stl_algobase.h ****     _GLIBCXX20_CONSTEXPR
 322:/Library/DaisyToolchain/0.2.0/arm/arm-none-eabi/include/c++/10.3.1/bits/stl_algobase.h ****     inline _From
 323:/Library/DaisyToolchain/0.2.0/arm/arm-none-eabi/include/c++/10.3.1/bits/stl_algobase.h ****     __niter_wrap(_From __from, _To __res)
 324:/Library/DaisyToolchain/0.2.0/arm/arm-none-eabi/include/c++/10.3.1/bits/stl_algobase.h ****     { return __from + (__res - std::__niter_base(__from)); }
 325:/Library/DaisyToolchain/0.2.0/arm/arm-none-eabi/include/c++/10.3.1/bits/stl_algobase.h **** 
 326:/Library/DaisyToolchain/0.2.0/arm/arm-none-eabi/include/c++/10.3.1/bits/stl_algobase.h ****   // No need to wrap, iterator already has the right type.
 327:/Library/DaisyToolchain/0.2.0/arm/arm-none-eabi/include/c++/10.3.1/bits/stl_algobase.h ****   template<typename _Iterator>
 328:/Library/DaisyToolchain/0.2.0/arm/arm-none-eabi/include/c++/10.3.1/bits/stl_algobase.h ****     _GLIBCXX20_CONSTEXPR
 329:/Library/DaisyToolchain/0.2.0/arm/arm-none-eabi/include/c++/10.3.1/bits/stl_algobase.h ****     inline _Iterator
 330:/Library/DaisyToolchain/0.2.0/arm/arm-none-eabi/include/c++/10.3.1/bits/stl_algobase.h ****     __niter_wrap(const _Iterator&, _Iterator __res)
 331:/Library/DaisyToolchain/0.2.0/arm/arm-none-eabi/include/c++/10.3.1/bits/stl_algobase.h ****     { return __res; }
 332:/Library/DaisyToolchain/0.2.0/arm/arm-none-eabi/include/c++/10.3.1/bits/stl_algobase.h **** 
 333:/Library/DaisyToolchain/0.2.0/arm/arm-none-eabi/include/c++/10.3.1/bits/stl_algobase.h ****   // All of these auxiliary structs serve two purposes.  (1) Replace
 334:/Library/DaisyToolchain/0.2.0/arm/arm-none-eabi/include/c++/10.3.1/bits/stl_algobase.h ****   // calls to copy with memmove whenever possible.  (Memmove, not memcpy,
 335:/Library/DaisyToolchain/0.2.0/arm/arm-none-eabi/include/c++/10.3.1/bits/stl_algobase.h ****   // because the input and output ranges are permitted to overlap.)
 336:/Library/DaisyToolchain/0.2.0/arm/arm-none-eabi/include/c++/10.3.1/bits/stl_algobase.h ****   // (2) If we're using random access iterators, then write the loop as
 337:/Library/DaisyToolchain/0.2.0/arm/arm-none-eabi/include/c++/10.3.1/bits/stl_algobase.h ****   // a for loop with an explicit count.
 338:/Library/DaisyToolchain/0.2.0/arm/arm-none-eabi/include/c++/10.3.1/bits/stl_algobase.h **** 
 339:/Library/DaisyToolchain/0.2.0/arm/arm-none-eabi/include/c++/10.3.1/bits/stl_algobase.h ****   template<bool _IsMove, bool _IsSimple, typename _Category>
 340:/Library/DaisyToolchain/0.2.0/arm/arm-none-eabi/include/c++/10.3.1/bits/stl_algobase.h ****     struct __copy_move
 341:/Library/DaisyToolchain/0.2.0/arm/arm-none-eabi/include/c++/10.3.1/bits/stl_algobase.h ****     {
 342:/Library/DaisyToolchain/0.2.0/arm/arm-none-eabi/include/c++/10.3.1/bits/stl_algobase.h ****       template<typename _II, typename _OI>
 343:/Library/DaisyToolchain/0.2.0/arm/arm-none-eabi/include/c++/10.3.1/bits/stl_algobase.h **** 	_GLIBCXX20_CONSTEXPR
 344:/Library/DaisyToolchain/0.2.0/arm/arm-none-eabi/include/c++/10.3.1/bits/stl_algobase.h **** 	static _OI
 345:/Library/DaisyToolchain/0.2.0/arm/arm-none-eabi/include/c++/10.3.1/bits/stl_algobase.h **** 	__copy_m(_II __first, _II __last, _OI __result)
 346:/Library/DaisyToolchain/0.2.0/arm/arm-none-eabi/include/c++/10.3.1/bits/stl_algobase.h **** 	{
 347:/Library/DaisyToolchain/0.2.0/arm/arm-none-eabi/include/c++/10.3.1/bits/stl_algobase.h **** 	  for (; __first != __last; ++__result, (void)++__first)
 348:/Library/DaisyToolchain/0.2.0/arm/arm-none-eabi/include/c++/10.3.1/bits/stl_algobase.h **** 	    *__result = *__first;
 349:/Library/DaisyToolchain/0.2.0/arm/arm-none-eabi/include/c++/10.3.1/bits/stl_algobase.h **** 	  return __result;
 350:/Library/DaisyToolchain/0.2.0/arm/arm-none-eabi/include/c++/10.3.1/bits/stl_algobase.h **** 	}
 351:/Library/DaisyToolchain/0.2.0/arm/arm-none-eabi/include/c++/10.3.1/bits/stl_algobase.h ****     };
 352:/Library/DaisyToolchain/0.2.0/arm/arm-none-eabi/include/c++/10.3.1/bits/stl_algobase.h **** 
 353:/Library/DaisyToolchain/0.2.0/arm/arm-none-eabi/include/c++/10.3.1/bits/stl_algobase.h **** #if __cplusplus >= 201103L
 354:/Library/DaisyToolchain/0.2.0/arm/arm-none-eabi/include/c++/10.3.1/bits/stl_algobase.h ****   template<typename _Category>
 355:/Library/DaisyToolchain/0.2.0/arm/arm-none-eabi/include/c++/10.3.1/bits/stl_algobase.h ****     struct __copy_move<true, false, _Category>
 356:/Library/DaisyToolchain/0.2.0/arm/arm-none-eabi/include/c++/10.3.1/bits/stl_algobase.h ****     {
 357:/Library/DaisyToolchain/0.2.0/arm/arm-none-eabi/include/c++/10.3.1/bits/stl_algobase.h ****       template<typename _II, typename _OI>
 358:/Library/DaisyToolchain/0.2.0/arm/arm-none-eabi/include/c++/10.3.1/bits/stl_algobase.h **** 	_GLIBCXX20_CONSTEXPR
 359:/Library/DaisyToolchain/0.2.0/arm/arm-none-eabi/include/c++/10.3.1/bits/stl_algobase.h **** 	static _OI
 360:/Library/DaisyToolchain/0.2.0/arm/arm-none-eabi/include/c++/10.3.1/bits/stl_algobase.h **** 	__copy_m(_II __first, _II __last, _OI __result)
 361:/Library/DaisyToolchain/0.2.0/arm/arm-none-eabi/include/c++/10.3.1/bits/stl_algobase.h **** 	{
 362:/Library/DaisyToolchain/0.2.0/arm/arm-none-eabi/include/c++/10.3.1/bits/stl_algobase.h **** 	  for (; __first != __last; ++__result, (void)++__first)
 363:/Library/DaisyToolchain/0.2.0/arm/arm-none-eabi/include/c++/10.3.1/bits/stl_algobase.h **** 	    *__result = std::move(*__first);
ARM GAS  /var/folders/9s/8rp0_f2s1n31qbztm3b5_fdh0000gn/T//cczTgMG8.s 			page 23


 364:/Library/DaisyToolchain/0.2.0/arm/arm-none-eabi/include/c++/10.3.1/bits/stl_algobase.h **** 	  return __result;
 365:/Library/DaisyToolchain/0.2.0/arm/arm-none-eabi/include/c++/10.3.1/bits/stl_algobase.h **** 	}
 366:/Library/DaisyToolchain/0.2.0/arm/arm-none-eabi/include/c++/10.3.1/bits/stl_algobase.h ****     };
 367:/Library/DaisyToolchain/0.2.0/arm/arm-none-eabi/include/c++/10.3.1/bits/stl_algobase.h **** #endif
 368:/Library/DaisyToolchain/0.2.0/arm/arm-none-eabi/include/c++/10.3.1/bits/stl_algobase.h **** 
 369:/Library/DaisyToolchain/0.2.0/arm/arm-none-eabi/include/c++/10.3.1/bits/stl_algobase.h ****   template<>
 370:/Library/DaisyToolchain/0.2.0/arm/arm-none-eabi/include/c++/10.3.1/bits/stl_algobase.h ****     struct __copy_move<false, false, random_access_iterator_tag>
 371:/Library/DaisyToolchain/0.2.0/arm/arm-none-eabi/include/c++/10.3.1/bits/stl_algobase.h ****     {
 372:/Library/DaisyToolchain/0.2.0/arm/arm-none-eabi/include/c++/10.3.1/bits/stl_algobase.h ****       template<typename _II, typename _OI>
 373:/Library/DaisyToolchain/0.2.0/arm/arm-none-eabi/include/c++/10.3.1/bits/stl_algobase.h **** 	_GLIBCXX20_CONSTEXPR
 374:/Library/DaisyToolchain/0.2.0/arm/arm-none-eabi/include/c++/10.3.1/bits/stl_algobase.h **** 	static _OI
 375:/Library/DaisyToolchain/0.2.0/arm/arm-none-eabi/include/c++/10.3.1/bits/stl_algobase.h **** 	__copy_m(_II __first, _II __last, _OI __result)
 376:/Library/DaisyToolchain/0.2.0/arm/arm-none-eabi/include/c++/10.3.1/bits/stl_algobase.h **** 	{
 377:/Library/DaisyToolchain/0.2.0/arm/arm-none-eabi/include/c++/10.3.1/bits/stl_algobase.h **** 	  typedef typename iterator_traits<_II>::difference_type _Distance;
 378:/Library/DaisyToolchain/0.2.0/arm/arm-none-eabi/include/c++/10.3.1/bits/stl_algobase.h **** 	  for(_Distance __n = __last - __first; __n > 0; --__n)
 379:/Library/DaisyToolchain/0.2.0/arm/arm-none-eabi/include/c++/10.3.1/bits/stl_algobase.h **** 	    {
 380:/Library/DaisyToolchain/0.2.0/arm/arm-none-eabi/include/c++/10.3.1/bits/stl_algobase.h **** 	      *__result = *__first;
 381:/Library/DaisyToolchain/0.2.0/arm/arm-none-eabi/include/c++/10.3.1/bits/stl_algobase.h **** 	      ++__first;
 382:/Library/DaisyToolchain/0.2.0/arm/arm-none-eabi/include/c++/10.3.1/bits/stl_algobase.h **** 	      ++__result;
 383:/Library/DaisyToolchain/0.2.0/arm/arm-none-eabi/include/c++/10.3.1/bits/stl_algobase.h **** 	    }
 384:/Library/DaisyToolchain/0.2.0/arm/arm-none-eabi/include/c++/10.3.1/bits/stl_algobase.h **** 	  return __result;
 385:/Library/DaisyToolchain/0.2.0/arm/arm-none-eabi/include/c++/10.3.1/bits/stl_algobase.h **** 	}
 386:/Library/DaisyToolchain/0.2.0/arm/arm-none-eabi/include/c++/10.3.1/bits/stl_algobase.h ****     };
 387:/Library/DaisyToolchain/0.2.0/arm/arm-none-eabi/include/c++/10.3.1/bits/stl_algobase.h **** 
 388:/Library/DaisyToolchain/0.2.0/arm/arm-none-eabi/include/c++/10.3.1/bits/stl_algobase.h **** #if __cplusplus >= 201103L
 389:/Library/DaisyToolchain/0.2.0/arm/arm-none-eabi/include/c++/10.3.1/bits/stl_algobase.h ****   template<>
 390:/Library/DaisyToolchain/0.2.0/arm/arm-none-eabi/include/c++/10.3.1/bits/stl_algobase.h ****     struct __copy_move<true, false, random_access_iterator_tag>
 391:/Library/DaisyToolchain/0.2.0/arm/arm-none-eabi/include/c++/10.3.1/bits/stl_algobase.h ****     {
 392:/Library/DaisyToolchain/0.2.0/arm/arm-none-eabi/include/c++/10.3.1/bits/stl_algobase.h ****       template<typename _II, typename _OI>
 393:/Library/DaisyToolchain/0.2.0/arm/arm-none-eabi/include/c++/10.3.1/bits/stl_algobase.h **** 	_GLIBCXX20_CONSTEXPR
 394:/Library/DaisyToolchain/0.2.0/arm/arm-none-eabi/include/c++/10.3.1/bits/stl_algobase.h **** 	static _OI
 395:/Library/DaisyToolchain/0.2.0/arm/arm-none-eabi/include/c++/10.3.1/bits/stl_algobase.h **** 	__copy_m(_II __first, _II __last, _OI __result)
 396:/Library/DaisyToolchain/0.2.0/arm/arm-none-eabi/include/c++/10.3.1/bits/stl_algobase.h **** 	{
 397:/Library/DaisyToolchain/0.2.0/arm/arm-none-eabi/include/c++/10.3.1/bits/stl_algobase.h **** 	  typedef typename iterator_traits<_II>::difference_type _Distance;
 398:/Library/DaisyToolchain/0.2.0/arm/arm-none-eabi/include/c++/10.3.1/bits/stl_algobase.h **** 	  for(_Distance __n = __last - __first; __n > 0; --__n)
 399:/Library/DaisyToolchain/0.2.0/arm/arm-none-eabi/include/c++/10.3.1/bits/stl_algobase.h **** 	    {
 400:/Library/DaisyToolchain/0.2.0/arm/arm-none-eabi/include/c++/10.3.1/bits/stl_algobase.h **** 	      *__result = std::move(*__first);
 401:/Library/DaisyToolchain/0.2.0/arm/arm-none-eabi/include/c++/10.3.1/bits/stl_algobase.h **** 	      ++__first;
 402:/Library/DaisyToolchain/0.2.0/arm/arm-none-eabi/include/c++/10.3.1/bits/stl_algobase.h **** 	      ++__result;
 403:/Library/DaisyToolchain/0.2.0/arm/arm-none-eabi/include/c++/10.3.1/bits/stl_algobase.h **** 	    }
 404:/Library/DaisyToolchain/0.2.0/arm/arm-none-eabi/include/c++/10.3.1/bits/stl_algobase.h **** 	  return __result;
 405:/Library/DaisyToolchain/0.2.0/arm/arm-none-eabi/include/c++/10.3.1/bits/stl_algobase.h **** 	}
 406:/Library/DaisyToolchain/0.2.0/arm/arm-none-eabi/include/c++/10.3.1/bits/stl_algobase.h ****     };
 407:/Library/DaisyToolchain/0.2.0/arm/arm-none-eabi/include/c++/10.3.1/bits/stl_algobase.h **** #endif
 408:/Library/DaisyToolchain/0.2.0/arm/arm-none-eabi/include/c++/10.3.1/bits/stl_algobase.h **** 
 409:/Library/DaisyToolchain/0.2.0/arm/arm-none-eabi/include/c++/10.3.1/bits/stl_algobase.h ****   template<bool _IsMove>
 410:/Library/DaisyToolchain/0.2.0/arm/arm-none-eabi/include/c++/10.3.1/bits/stl_algobase.h ****     struct __copy_move<_IsMove, true, random_access_iterator_tag>
 411:/Library/DaisyToolchain/0.2.0/arm/arm-none-eabi/include/c++/10.3.1/bits/stl_algobase.h ****     {
 412:/Library/DaisyToolchain/0.2.0/arm/arm-none-eabi/include/c++/10.3.1/bits/stl_algobase.h ****       template<typename _Tp>
 413:/Library/DaisyToolchain/0.2.0/arm/arm-none-eabi/include/c++/10.3.1/bits/stl_algobase.h **** 	_GLIBCXX20_CONSTEXPR
 414:/Library/DaisyToolchain/0.2.0/arm/arm-none-eabi/include/c++/10.3.1/bits/stl_algobase.h **** 	static _Tp*
 415:/Library/DaisyToolchain/0.2.0/arm/arm-none-eabi/include/c++/10.3.1/bits/stl_algobase.h **** 	__copy_m(const _Tp* __first, const _Tp* __last, _Tp* __result)
 416:/Library/DaisyToolchain/0.2.0/arm/arm-none-eabi/include/c++/10.3.1/bits/stl_algobase.h **** 	{
 417:/Library/DaisyToolchain/0.2.0/arm/arm-none-eabi/include/c++/10.3.1/bits/stl_algobase.h **** #if __cplusplus >= 201103L
 418:/Library/DaisyToolchain/0.2.0/arm/arm-none-eabi/include/c++/10.3.1/bits/stl_algobase.h **** 	  using __assignable = conditional<_IsMove,
 419:/Library/DaisyToolchain/0.2.0/arm/arm-none-eabi/include/c++/10.3.1/bits/stl_algobase.h **** 					   is_move_assignable<_Tp>,
 420:/Library/DaisyToolchain/0.2.0/arm/arm-none-eabi/include/c++/10.3.1/bits/stl_algobase.h **** 					   is_copy_assignable<_Tp>>;
ARM GAS  /var/folders/9s/8rp0_f2s1n31qbztm3b5_fdh0000gn/T//cczTgMG8.s 			page 24


 421:/Library/DaisyToolchain/0.2.0/arm/arm-none-eabi/include/c++/10.3.1/bits/stl_algobase.h **** 	  // trivial types can have deleted assignment
 422:/Library/DaisyToolchain/0.2.0/arm/arm-none-eabi/include/c++/10.3.1/bits/stl_algobase.h **** 	  static_assert( __assignable::type::value, "type is not assignable" );
 423:/Library/DaisyToolchain/0.2.0/arm/arm-none-eabi/include/c++/10.3.1/bits/stl_algobase.h **** #endif
 424:/Library/DaisyToolchain/0.2.0/arm/arm-none-eabi/include/c++/10.3.1/bits/stl_algobase.h **** 	  const ptrdiff_t _Num = __last - __first;
 425:/Library/DaisyToolchain/0.2.0/arm/arm-none-eabi/include/c++/10.3.1/bits/stl_algobase.h **** 	  if (_Num)
 426:/Library/DaisyToolchain/0.2.0/arm/arm-none-eabi/include/c++/10.3.1/bits/stl_algobase.h **** 	    __builtin_memmove(__result, __first, sizeof(_Tp) * _Num);
 427:/Library/DaisyToolchain/0.2.0/arm/arm-none-eabi/include/c++/10.3.1/bits/stl_algobase.h **** 	  return __result + _Num;
 428:/Library/DaisyToolchain/0.2.0/arm/arm-none-eabi/include/c++/10.3.1/bits/stl_algobase.h **** 	}
 429:/Library/DaisyToolchain/0.2.0/arm/arm-none-eabi/include/c++/10.3.1/bits/stl_algobase.h ****     };
 430:/Library/DaisyToolchain/0.2.0/arm/arm-none-eabi/include/c++/10.3.1/bits/stl_algobase.h **** 
 431:/Library/DaisyToolchain/0.2.0/arm/arm-none-eabi/include/c++/10.3.1/bits/stl_algobase.h ****   // Helpers for streambuf iterators (either istream or ostream).
 432:/Library/DaisyToolchain/0.2.0/arm/arm-none-eabi/include/c++/10.3.1/bits/stl_algobase.h ****   // NB: avoid including <iosfwd>, relatively large.
 433:/Library/DaisyToolchain/0.2.0/arm/arm-none-eabi/include/c++/10.3.1/bits/stl_algobase.h ****   template<typename _CharT>
 434:/Library/DaisyToolchain/0.2.0/arm/arm-none-eabi/include/c++/10.3.1/bits/stl_algobase.h ****     struct char_traits;
 435:/Library/DaisyToolchain/0.2.0/arm/arm-none-eabi/include/c++/10.3.1/bits/stl_algobase.h **** 
 436:/Library/DaisyToolchain/0.2.0/arm/arm-none-eabi/include/c++/10.3.1/bits/stl_algobase.h ****   template<typename _CharT, typename _Traits>
 437:/Library/DaisyToolchain/0.2.0/arm/arm-none-eabi/include/c++/10.3.1/bits/stl_algobase.h ****     class istreambuf_iterator;
 438:/Library/DaisyToolchain/0.2.0/arm/arm-none-eabi/include/c++/10.3.1/bits/stl_algobase.h **** 
 439:/Library/DaisyToolchain/0.2.0/arm/arm-none-eabi/include/c++/10.3.1/bits/stl_algobase.h ****   template<typename _CharT, typename _Traits>
 440:/Library/DaisyToolchain/0.2.0/arm/arm-none-eabi/include/c++/10.3.1/bits/stl_algobase.h ****     class ostreambuf_iterator;
 441:/Library/DaisyToolchain/0.2.0/arm/arm-none-eabi/include/c++/10.3.1/bits/stl_algobase.h **** 
 442:/Library/DaisyToolchain/0.2.0/arm/arm-none-eabi/include/c++/10.3.1/bits/stl_algobase.h ****   template<bool _IsMove, typename _CharT>
 443:/Library/DaisyToolchain/0.2.0/arm/arm-none-eabi/include/c++/10.3.1/bits/stl_algobase.h ****     typename __gnu_cxx::__enable_if<__is_char<_CharT>::__value,
 444:/Library/DaisyToolchain/0.2.0/arm/arm-none-eabi/include/c++/10.3.1/bits/stl_algobase.h **** 	     ostreambuf_iterator<_CharT, char_traits<_CharT> > >::__type
 445:/Library/DaisyToolchain/0.2.0/arm/arm-none-eabi/include/c++/10.3.1/bits/stl_algobase.h ****     __copy_move_a2(_CharT*, _CharT*,
 446:/Library/DaisyToolchain/0.2.0/arm/arm-none-eabi/include/c++/10.3.1/bits/stl_algobase.h **** 		   ostreambuf_iterator<_CharT, char_traits<_CharT> >);
 447:/Library/DaisyToolchain/0.2.0/arm/arm-none-eabi/include/c++/10.3.1/bits/stl_algobase.h **** 
 448:/Library/DaisyToolchain/0.2.0/arm/arm-none-eabi/include/c++/10.3.1/bits/stl_algobase.h ****   template<bool _IsMove, typename _CharT>
 449:/Library/DaisyToolchain/0.2.0/arm/arm-none-eabi/include/c++/10.3.1/bits/stl_algobase.h ****     typename __gnu_cxx::__enable_if<__is_char<_CharT>::__value,
 450:/Library/DaisyToolchain/0.2.0/arm/arm-none-eabi/include/c++/10.3.1/bits/stl_algobase.h **** 	     ostreambuf_iterator<_CharT, char_traits<_CharT> > >::__type
 451:/Library/DaisyToolchain/0.2.0/arm/arm-none-eabi/include/c++/10.3.1/bits/stl_algobase.h ****     __copy_move_a2(const _CharT*, const _CharT*,
 452:/Library/DaisyToolchain/0.2.0/arm/arm-none-eabi/include/c++/10.3.1/bits/stl_algobase.h **** 		   ostreambuf_iterator<_CharT, char_traits<_CharT> >);
 453:/Library/DaisyToolchain/0.2.0/arm/arm-none-eabi/include/c++/10.3.1/bits/stl_algobase.h **** 
 454:/Library/DaisyToolchain/0.2.0/arm/arm-none-eabi/include/c++/10.3.1/bits/stl_algobase.h ****   template<bool _IsMove, typename _CharT>
 455:/Library/DaisyToolchain/0.2.0/arm/arm-none-eabi/include/c++/10.3.1/bits/stl_algobase.h ****     typename __gnu_cxx::__enable_if<__is_char<_CharT>::__value,
 456:/Library/DaisyToolchain/0.2.0/arm/arm-none-eabi/include/c++/10.3.1/bits/stl_algobase.h **** 				    _CharT*>::__type
 457:/Library/DaisyToolchain/0.2.0/arm/arm-none-eabi/include/c++/10.3.1/bits/stl_algobase.h ****     __copy_move_a2(istreambuf_iterator<_CharT, char_traits<_CharT> >,
 458:/Library/DaisyToolchain/0.2.0/arm/arm-none-eabi/include/c++/10.3.1/bits/stl_algobase.h **** 		   istreambuf_iterator<_CharT, char_traits<_CharT> >, _CharT*);
 459:/Library/DaisyToolchain/0.2.0/arm/arm-none-eabi/include/c++/10.3.1/bits/stl_algobase.h **** 
 460:/Library/DaisyToolchain/0.2.0/arm/arm-none-eabi/include/c++/10.3.1/bits/stl_algobase.h ****   template<bool _IsMove, typename _II, typename _OI>
 461:/Library/DaisyToolchain/0.2.0/arm/arm-none-eabi/include/c++/10.3.1/bits/stl_algobase.h ****     _GLIBCXX20_CONSTEXPR
 462:/Library/DaisyToolchain/0.2.0/arm/arm-none-eabi/include/c++/10.3.1/bits/stl_algobase.h ****     inline _OI
 463:/Library/DaisyToolchain/0.2.0/arm/arm-none-eabi/include/c++/10.3.1/bits/stl_algobase.h ****     __copy_move_a2(_II __first, _II __last, _OI __result)
 464:/Library/DaisyToolchain/0.2.0/arm/arm-none-eabi/include/c++/10.3.1/bits/stl_algobase.h ****     {
 465:/Library/DaisyToolchain/0.2.0/arm/arm-none-eabi/include/c++/10.3.1/bits/stl_algobase.h ****       typedef typename iterator_traits<_II>::iterator_category _Category;
 466:/Library/DaisyToolchain/0.2.0/arm/arm-none-eabi/include/c++/10.3.1/bits/stl_algobase.h **** #ifdef __cpp_lib_is_constant_evaluated
 467:/Library/DaisyToolchain/0.2.0/arm/arm-none-eabi/include/c++/10.3.1/bits/stl_algobase.h ****       if (std::is_constant_evaluated())
 468:/Library/DaisyToolchain/0.2.0/arm/arm-none-eabi/include/c++/10.3.1/bits/stl_algobase.h **** 	return std::__copy_move<_IsMove, false, _Category>::
 469:/Library/DaisyToolchain/0.2.0/arm/arm-none-eabi/include/c++/10.3.1/bits/stl_algobase.h **** 	  __copy_m(__first, __last, __result);
 470:/Library/DaisyToolchain/0.2.0/arm/arm-none-eabi/include/c++/10.3.1/bits/stl_algobase.h **** #endif
 471:/Library/DaisyToolchain/0.2.0/arm/arm-none-eabi/include/c++/10.3.1/bits/stl_algobase.h ****       return std::__copy_move<_IsMove, __memcpyable<_OI, _II>::__value,
 472:/Library/DaisyToolchain/0.2.0/arm/arm-none-eabi/include/c++/10.3.1/bits/stl_algobase.h **** 			      _Category>::__copy_m(__first, __last, __result);
 473:/Library/DaisyToolchain/0.2.0/arm/arm-none-eabi/include/c++/10.3.1/bits/stl_algobase.h ****     }
 474:/Library/DaisyToolchain/0.2.0/arm/arm-none-eabi/include/c++/10.3.1/bits/stl_algobase.h **** 
 475:/Library/DaisyToolchain/0.2.0/arm/arm-none-eabi/include/c++/10.3.1/bits/stl_algobase.h **** _GLIBCXX_BEGIN_NAMESPACE_CONTAINER
 476:/Library/DaisyToolchain/0.2.0/arm/arm-none-eabi/include/c++/10.3.1/bits/stl_algobase.h **** 
 477:/Library/DaisyToolchain/0.2.0/arm/arm-none-eabi/include/c++/10.3.1/bits/stl_algobase.h ****   template<typename _Tp, typename _Ref, typename _Ptr>
ARM GAS  /var/folders/9s/8rp0_f2s1n31qbztm3b5_fdh0000gn/T//cczTgMG8.s 			page 25


 478:/Library/DaisyToolchain/0.2.0/arm/arm-none-eabi/include/c++/10.3.1/bits/stl_algobase.h ****     struct _Deque_iterator;
 479:/Library/DaisyToolchain/0.2.0/arm/arm-none-eabi/include/c++/10.3.1/bits/stl_algobase.h **** 
 480:/Library/DaisyToolchain/0.2.0/arm/arm-none-eabi/include/c++/10.3.1/bits/stl_algobase.h **** _GLIBCXX_END_NAMESPACE_CONTAINER
 481:/Library/DaisyToolchain/0.2.0/arm/arm-none-eabi/include/c++/10.3.1/bits/stl_algobase.h **** 
 482:/Library/DaisyToolchain/0.2.0/arm/arm-none-eabi/include/c++/10.3.1/bits/stl_algobase.h ****   template<bool _IsMove,
 483:/Library/DaisyToolchain/0.2.0/arm/arm-none-eabi/include/c++/10.3.1/bits/stl_algobase.h **** 	   typename _Tp, typename _Ref, typename _Ptr, typename _OI>
 484:/Library/DaisyToolchain/0.2.0/arm/arm-none-eabi/include/c++/10.3.1/bits/stl_algobase.h ****     _OI
 485:/Library/DaisyToolchain/0.2.0/arm/arm-none-eabi/include/c++/10.3.1/bits/stl_algobase.h ****     __copy_move_a1(_GLIBCXX_STD_C::_Deque_iterator<_Tp, _Ref, _Ptr>,
 486:/Library/DaisyToolchain/0.2.0/arm/arm-none-eabi/include/c++/10.3.1/bits/stl_algobase.h **** 		   _GLIBCXX_STD_C::_Deque_iterator<_Tp, _Ref, _Ptr>,
 487:/Library/DaisyToolchain/0.2.0/arm/arm-none-eabi/include/c++/10.3.1/bits/stl_algobase.h **** 		   _OI);
 488:/Library/DaisyToolchain/0.2.0/arm/arm-none-eabi/include/c++/10.3.1/bits/stl_algobase.h **** 
 489:/Library/DaisyToolchain/0.2.0/arm/arm-none-eabi/include/c++/10.3.1/bits/stl_algobase.h ****   template<bool _IsMove,
 490:/Library/DaisyToolchain/0.2.0/arm/arm-none-eabi/include/c++/10.3.1/bits/stl_algobase.h **** 	   typename _ITp, typename _IRef, typename _IPtr, typename _OTp>
 491:/Library/DaisyToolchain/0.2.0/arm/arm-none-eabi/include/c++/10.3.1/bits/stl_algobase.h ****     _GLIBCXX_STD_C::_Deque_iterator<_OTp, _OTp&, _OTp*>
 492:/Library/DaisyToolchain/0.2.0/arm/arm-none-eabi/include/c++/10.3.1/bits/stl_algobase.h ****     __copy_move_a1(_GLIBCXX_STD_C::_Deque_iterator<_ITp, _IRef, _IPtr>,
 493:/Library/DaisyToolchain/0.2.0/arm/arm-none-eabi/include/c++/10.3.1/bits/stl_algobase.h **** 		   _GLIBCXX_STD_C::_Deque_iterator<_ITp, _IRef, _IPtr>,
 494:/Library/DaisyToolchain/0.2.0/arm/arm-none-eabi/include/c++/10.3.1/bits/stl_algobase.h **** 		   _GLIBCXX_STD_C::_Deque_iterator<_OTp, _OTp&, _OTp*>);
 495:/Library/DaisyToolchain/0.2.0/arm/arm-none-eabi/include/c++/10.3.1/bits/stl_algobase.h **** 
 496:/Library/DaisyToolchain/0.2.0/arm/arm-none-eabi/include/c++/10.3.1/bits/stl_algobase.h ****   template<bool _IsMove, typename _II, typename _Tp>
 497:/Library/DaisyToolchain/0.2.0/arm/arm-none-eabi/include/c++/10.3.1/bits/stl_algobase.h ****     typename __gnu_cxx::__enable_if<
 498:/Library/DaisyToolchain/0.2.0/arm/arm-none-eabi/include/c++/10.3.1/bits/stl_algobase.h ****       __is_random_access_iter<_II>::__value,
 499:/Library/DaisyToolchain/0.2.0/arm/arm-none-eabi/include/c++/10.3.1/bits/stl_algobase.h ****       _GLIBCXX_STD_C::_Deque_iterator<_Tp, _Tp&, _Tp*> >::__type
 500:/Library/DaisyToolchain/0.2.0/arm/arm-none-eabi/include/c++/10.3.1/bits/stl_algobase.h ****     __copy_move_a1(_II, _II, _GLIBCXX_STD_C::_Deque_iterator<_Tp, _Tp&, _Tp*>);
 501:/Library/DaisyToolchain/0.2.0/arm/arm-none-eabi/include/c++/10.3.1/bits/stl_algobase.h **** 
 502:/Library/DaisyToolchain/0.2.0/arm/arm-none-eabi/include/c++/10.3.1/bits/stl_algobase.h ****   template<bool _IsMove, typename _II, typename _OI>
 503:/Library/DaisyToolchain/0.2.0/arm/arm-none-eabi/include/c++/10.3.1/bits/stl_algobase.h ****     _GLIBCXX20_CONSTEXPR
 504:/Library/DaisyToolchain/0.2.0/arm/arm-none-eabi/include/c++/10.3.1/bits/stl_algobase.h ****     inline _OI
 505:/Library/DaisyToolchain/0.2.0/arm/arm-none-eabi/include/c++/10.3.1/bits/stl_algobase.h ****     __copy_move_a1(_II __first, _II __last, _OI __result)
 506:/Library/DaisyToolchain/0.2.0/arm/arm-none-eabi/include/c++/10.3.1/bits/stl_algobase.h ****     { return std::__copy_move_a2<_IsMove>(__first, __last, __result); }
 507:/Library/DaisyToolchain/0.2.0/arm/arm-none-eabi/include/c++/10.3.1/bits/stl_algobase.h **** 
 508:/Library/DaisyToolchain/0.2.0/arm/arm-none-eabi/include/c++/10.3.1/bits/stl_algobase.h ****   template<bool _IsMove, typename _II, typename _OI>
 509:/Library/DaisyToolchain/0.2.0/arm/arm-none-eabi/include/c++/10.3.1/bits/stl_algobase.h ****     _GLIBCXX20_CONSTEXPR
 510:/Library/DaisyToolchain/0.2.0/arm/arm-none-eabi/include/c++/10.3.1/bits/stl_algobase.h ****     inline _OI
 511:/Library/DaisyToolchain/0.2.0/arm/arm-none-eabi/include/c++/10.3.1/bits/stl_algobase.h ****     __copy_move_a(_II __first, _II __last, _OI __result)
 512:/Library/DaisyToolchain/0.2.0/arm/arm-none-eabi/include/c++/10.3.1/bits/stl_algobase.h ****     {
 513:/Library/DaisyToolchain/0.2.0/arm/arm-none-eabi/include/c++/10.3.1/bits/stl_algobase.h ****       return std::__niter_wrap(__result,
 514:/Library/DaisyToolchain/0.2.0/arm/arm-none-eabi/include/c++/10.3.1/bits/stl_algobase.h **** 		std::__copy_move_a1<_IsMove>(std::__niter_base(__first),
 515:/Library/DaisyToolchain/0.2.0/arm/arm-none-eabi/include/c++/10.3.1/bits/stl_algobase.h **** 					     std::__niter_base(__last),
 516:/Library/DaisyToolchain/0.2.0/arm/arm-none-eabi/include/c++/10.3.1/bits/stl_algobase.h **** 					     std::__niter_base(__result)));
 517:/Library/DaisyToolchain/0.2.0/arm/arm-none-eabi/include/c++/10.3.1/bits/stl_algobase.h ****     }
 518:/Library/DaisyToolchain/0.2.0/arm/arm-none-eabi/include/c++/10.3.1/bits/stl_algobase.h **** 
 519:/Library/DaisyToolchain/0.2.0/arm/arm-none-eabi/include/c++/10.3.1/bits/stl_algobase.h ****   template<bool _IsMove,
 520:/Library/DaisyToolchain/0.2.0/arm/arm-none-eabi/include/c++/10.3.1/bits/stl_algobase.h **** 	   typename _Ite, typename _Seq, typename _Cat, typename _OI>
 521:/Library/DaisyToolchain/0.2.0/arm/arm-none-eabi/include/c++/10.3.1/bits/stl_algobase.h ****     _OI
 522:/Library/DaisyToolchain/0.2.0/arm/arm-none-eabi/include/c++/10.3.1/bits/stl_algobase.h ****     __copy_move_a(const ::__gnu_debug::_Safe_iterator<_Ite, _Seq, _Cat>&,
 523:/Library/DaisyToolchain/0.2.0/arm/arm-none-eabi/include/c++/10.3.1/bits/stl_algobase.h **** 		  const ::__gnu_debug::_Safe_iterator<_Ite, _Seq, _Cat>&,
 524:/Library/DaisyToolchain/0.2.0/arm/arm-none-eabi/include/c++/10.3.1/bits/stl_algobase.h **** 		  _OI);
 525:/Library/DaisyToolchain/0.2.0/arm/arm-none-eabi/include/c++/10.3.1/bits/stl_algobase.h **** 
 526:/Library/DaisyToolchain/0.2.0/arm/arm-none-eabi/include/c++/10.3.1/bits/stl_algobase.h ****   template<bool _IsMove,
 527:/Library/DaisyToolchain/0.2.0/arm/arm-none-eabi/include/c++/10.3.1/bits/stl_algobase.h **** 	   typename _II, typename _Ite, typename _Seq, typename _Cat>
 528:/Library/DaisyToolchain/0.2.0/arm/arm-none-eabi/include/c++/10.3.1/bits/stl_algobase.h ****     __gnu_debug::_Safe_iterator<_Ite, _Seq, _Cat>
 529:/Library/DaisyToolchain/0.2.0/arm/arm-none-eabi/include/c++/10.3.1/bits/stl_algobase.h ****     __copy_move_a(_II, _II,
 530:/Library/DaisyToolchain/0.2.0/arm/arm-none-eabi/include/c++/10.3.1/bits/stl_algobase.h **** 		  const ::__gnu_debug::_Safe_iterator<_Ite, _Seq, _Cat>&);
 531:/Library/DaisyToolchain/0.2.0/arm/arm-none-eabi/include/c++/10.3.1/bits/stl_algobase.h **** 
 532:/Library/DaisyToolchain/0.2.0/arm/arm-none-eabi/include/c++/10.3.1/bits/stl_algobase.h ****   template<bool _IsMove,
 533:/Library/DaisyToolchain/0.2.0/arm/arm-none-eabi/include/c++/10.3.1/bits/stl_algobase.h **** 	   typename _IIte, typename _ISeq, typename _ICat,
 534:/Library/DaisyToolchain/0.2.0/arm/arm-none-eabi/include/c++/10.3.1/bits/stl_algobase.h **** 	   typename _OIte, typename _OSeq, typename _OCat>
ARM GAS  /var/folders/9s/8rp0_f2s1n31qbztm3b5_fdh0000gn/T//cczTgMG8.s 			page 26


 535:/Library/DaisyToolchain/0.2.0/arm/arm-none-eabi/include/c++/10.3.1/bits/stl_algobase.h ****     ::__gnu_debug::_Safe_iterator<_OIte, _OSeq, _OCat>
 536:/Library/DaisyToolchain/0.2.0/arm/arm-none-eabi/include/c++/10.3.1/bits/stl_algobase.h ****     __copy_move_a(const ::__gnu_debug::_Safe_iterator<_IIte, _ISeq, _ICat>&,
 537:/Library/DaisyToolchain/0.2.0/arm/arm-none-eabi/include/c++/10.3.1/bits/stl_algobase.h **** 		  const ::__gnu_debug::_Safe_iterator<_IIte, _ISeq, _ICat>&,
 538:/Library/DaisyToolchain/0.2.0/arm/arm-none-eabi/include/c++/10.3.1/bits/stl_algobase.h **** 		  const ::__gnu_debug::_Safe_iterator<_OIte, _OSeq, _OCat>&);
 539:/Library/DaisyToolchain/0.2.0/arm/arm-none-eabi/include/c++/10.3.1/bits/stl_algobase.h **** 
 540:/Library/DaisyToolchain/0.2.0/arm/arm-none-eabi/include/c++/10.3.1/bits/stl_algobase.h ****   /**
 541:/Library/DaisyToolchain/0.2.0/arm/arm-none-eabi/include/c++/10.3.1/bits/stl_algobase.h ****    *  @brief Copies the range [first,last) into result.
 542:/Library/DaisyToolchain/0.2.0/arm/arm-none-eabi/include/c++/10.3.1/bits/stl_algobase.h ****    *  @ingroup mutating_algorithms
 543:/Library/DaisyToolchain/0.2.0/arm/arm-none-eabi/include/c++/10.3.1/bits/stl_algobase.h ****    *  @param  __first  An input iterator.
 544:/Library/DaisyToolchain/0.2.0/arm/arm-none-eabi/include/c++/10.3.1/bits/stl_algobase.h ****    *  @param  __last   An input iterator.
 545:/Library/DaisyToolchain/0.2.0/arm/arm-none-eabi/include/c++/10.3.1/bits/stl_algobase.h ****    *  @param  __result An output iterator.
 546:/Library/DaisyToolchain/0.2.0/arm/arm-none-eabi/include/c++/10.3.1/bits/stl_algobase.h ****    *  @return   result + (last - first)
 547:/Library/DaisyToolchain/0.2.0/arm/arm-none-eabi/include/c++/10.3.1/bits/stl_algobase.h ****    *
 548:/Library/DaisyToolchain/0.2.0/arm/arm-none-eabi/include/c++/10.3.1/bits/stl_algobase.h ****    *  This inline function will boil down to a call to @c memmove whenever
 549:/Library/DaisyToolchain/0.2.0/arm/arm-none-eabi/include/c++/10.3.1/bits/stl_algobase.h ****    *  possible.  Failing that, if random access iterators are passed, then the
 550:/Library/DaisyToolchain/0.2.0/arm/arm-none-eabi/include/c++/10.3.1/bits/stl_algobase.h ****    *  loop count will be known (and therefore a candidate for compiler
 551:/Library/DaisyToolchain/0.2.0/arm/arm-none-eabi/include/c++/10.3.1/bits/stl_algobase.h ****    *  optimizations such as unrolling).  Result may not be contained within
 552:/Library/DaisyToolchain/0.2.0/arm/arm-none-eabi/include/c++/10.3.1/bits/stl_algobase.h ****    *  [first,last); the copy_backward function should be used instead.
 553:/Library/DaisyToolchain/0.2.0/arm/arm-none-eabi/include/c++/10.3.1/bits/stl_algobase.h ****    *
 554:/Library/DaisyToolchain/0.2.0/arm/arm-none-eabi/include/c++/10.3.1/bits/stl_algobase.h ****    *  Note that the end of the output range is permitted to be contained
 555:/Library/DaisyToolchain/0.2.0/arm/arm-none-eabi/include/c++/10.3.1/bits/stl_algobase.h ****    *  within [first,last).
 556:/Library/DaisyToolchain/0.2.0/arm/arm-none-eabi/include/c++/10.3.1/bits/stl_algobase.h ****   */
 557:/Library/DaisyToolchain/0.2.0/arm/arm-none-eabi/include/c++/10.3.1/bits/stl_algobase.h ****   template<typename _II, typename _OI>
 558:/Library/DaisyToolchain/0.2.0/arm/arm-none-eabi/include/c++/10.3.1/bits/stl_algobase.h ****     _GLIBCXX20_CONSTEXPR
 559:/Library/DaisyToolchain/0.2.0/arm/arm-none-eabi/include/c++/10.3.1/bits/stl_algobase.h ****     inline _OI
 560:/Library/DaisyToolchain/0.2.0/arm/arm-none-eabi/include/c++/10.3.1/bits/stl_algobase.h ****     copy(_II __first, _II __last, _OI __result)
 561:/Library/DaisyToolchain/0.2.0/arm/arm-none-eabi/include/c++/10.3.1/bits/stl_algobase.h ****     {
 562:/Library/DaisyToolchain/0.2.0/arm/arm-none-eabi/include/c++/10.3.1/bits/stl_algobase.h ****       // concept requirements
 563:/Library/DaisyToolchain/0.2.0/arm/arm-none-eabi/include/c++/10.3.1/bits/stl_algobase.h ****       __glibcxx_function_requires(_InputIteratorConcept<_II>)
 564:/Library/DaisyToolchain/0.2.0/arm/arm-none-eabi/include/c++/10.3.1/bits/stl_algobase.h ****       __glibcxx_function_requires(_OutputIteratorConcept<_OI,
 565:/Library/DaisyToolchain/0.2.0/arm/arm-none-eabi/include/c++/10.3.1/bits/stl_algobase.h **** 	    typename iterator_traits<_II>::value_type>)
 566:/Library/DaisyToolchain/0.2.0/arm/arm-none-eabi/include/c++/10.3.1/bits/stl_algobase.h ****       __glibcxx_requires_can_increment_range(__first, __last, __result);
 567:/Library/DaisyToolchain/0.2.0/arm/arm-none-eabi/include/c++/10.3.1/bits/stl_algobase.h **** 
 568:/Library/DaisyToolchain/0.2.0/arm/arm-none-eabi/include/c++/10.3.1/bits/stl_algobase.h ****       return std::__copy_move_a<__is_move_iterator<_II>::__value>
 569:/Library/DaisyToolchain/0.2.0/arm/arm-none-eabi/include/c++/10.3.1/bits/stl_algobase.h **** 	     (std::__miter_base(__first), std::__miter_base(__last), __result);
 570:/Library/DaisyToolchain/0.2.0/arm/arm-none-eabi/include/c++/10.3.1/bits/stl_algobase.h ****     }
 571:/Library/DaisyToolchain/0.2.0/arm/arm-none-eabi/include/c++/10.3.1/bits/stl_algobase.h **** 
 572:/Library/DaisyToolchain/0.2.0/arm/arm-none-eabi/include/c++/10.3.1/bits/stl_algobase.h **** #if __cplusplus >= 201103L
 573:/Library/DaisyToolchain/0.2.0/arm/arm-none-eabi/include/c++/10.3.1/bits/stl_algobase.h ****   /**
 574:/Library/DaisyToolchain/0.2.0/arm/arm-none-eabi/include/c++/10.3.1/bits/stl_algobase.h ****    *  @brief Moves the range [first,last) into result.
 575:/Library/DaisyToolchain/0.2.0/arm/arm-none-eabi/include/c++/10.3.1/bits/stl_algobase.h ****    *  @ingroup mutating_algorithms
 576:/Library/DaisyToolchain/0.2.0/arm/arm-none-eabi/include/c++/10.3.1/bits/stl_algobase.h ****    *  @param  __first  An input iterator.
 577:/Library/DaisyToolchain/0.2.0/arm/arm-none-eabi/include/c++/10.3.1/bits/stl_algobase.h ****    *  @param  __last   An input iterator.
 578:/Library/DaisyToolchain/0.2.0/arm/arm-none-eabi/include/c++/10.3.1/bits/stl_algobase.h ****    *  @param  __result An output iterator.
 579:/Library/DaisyToolchain/0.2.0/arm/arm-none-eabi/include/c++/10.3.1/bits/stl_algobase.h ****    *  @return   result + (last - first)
 580:/Library/DaisyToolchain/0.2.0/arm/arm-none-eabi/include/c++/10.3.1/bits/stl_algobase.h ****    *
 581:/Library/DaisyToolchain/0.2.0/arm/arm-none-eabi/include/c++/10.3.1/bits/stl_algobase.h ****    *  This inline function will boil down to a call to @c memmove whenever
 582:/Library/DaisyToolchain/0.2.0/arm/arm-none-eabi/include/c++/10.3.1/bits/stl_algobase.h ****    *  possible.  Failing that, if random access iterators are passed, then the
 583:/Library/DaisyToolchain/0.2.0/arm/arm-none-eabi/include/c++/10.3.1/bits/stl_algobase.h ****    *  loop count will be known (and therefore a candidate for compiler
 584:/Library/DaisyToolchain/0.2.0/arm/arm-none-eabi/include/c++/10.3.1/bits/stl_algobase.h ****    *  optimizations such as unrolling).  Result may not be contained within
 585:/Library/DaisyToolchain/0.2.0/arm/arm-none-eabi/include/c++/10.3.1/bits/stl_algobase.h ****    *  [first,last); the move_backward function should be used instead.
 586:/Library/DaisyToolchain/0.2.0/arm/arm-none-eabi/include/c++/10.3.1/bits/stl_algobase.h ****    *
 587:/Library/DaisyToolchain/0.2.0/arm/arm-none-eabi/include/c++/10.3.1/bits/stl_algobase.h ****    *  Note that the end of the output range is permitted to be contained
 588:/Library/DaisyToolchain/0.2.0/arm/arm-none-eabi/include/c++/10.3.1/bits/stl_algobase.h ****    *  within [first,last).
 589:/Library/DaisyToolchain/0.2.0/arm/arm-none-eabi/include/c++/10.3.1/bits/stl_algobase.h ****   */
 590:/Library/DaisyToolchain/0.2.0/arm/arm-none-eabi/include/c++/10.3.1/bits/stl_algobase.h ****   template<typename _II, typename _OI>
 591:/Library/DaisyToolchain/0.2.0/arm/arm-none-eabi/include/c++/10.3.1/bits/stl_algobase.h ****     _GLIBCXX20_CONSTEXPR
ARM GAS  /var/folders/9s/8rp0_f2s1n31qbztm3b5_fdh0000gn/T//cczTgMG8.s 			page 27


 592:/Library/DaisyToolchain/0.2.0/arm/arm-none-eabi/include/c++/10.3.1/bits/stl_algobase.h ****     inline _OI
 593:/Library/DaisyToolchain/0.2.0/arm/arm-none-eabi/include/c++/10.3.1/bits/stl_algobase.h ****     move(_II __first, _II __last, _OI __result)
 594:/Library/DaisyToolchain/0.2.0/arm/arm-none-eabi/include/c++/10.3.1/bits/stl_algobase.h ****     {
 595:/Library/DaisyToolchain/0.2.0/arm/arm-none-eabi/include/c++/10.3.1/bits/stl_algobase.h ****       // concept requirements
 596:/Library/DaisyToolchain/0.2.0/arm/arm-none-eabi/include/c++/10.3.1/bits/stl_algobase.h ****       __glibcxx_function_requires(_InputIteratorConcept<_II>)
 597:/Library/DaisyToolchain/0.2.0/arm/arm-none-eabi/include/c++/10.3.1/bits/stl_algobase.h ****       __glibcxx_function_requires(_OutputIteratorConcept<_OI,
 598:/Library/DaisyToolchain/0.2.0/arm/arm-none-eabi/include/c++/10.3.1/bits/stl_algobase.h **** 	    typename iterator_traits<_II>::value_type>)
 599:/Library/DaisyToolchain/0.2.0/arm/arm-none-eabi/include/c++/10.3.1/bits/stl_algobase.h ****       __glibcxx_requires_can_increment_range(__first, __last, __result);
 600:/Library/DaisyToolchain/0.2.0/arm/arm-none-eabi/include/c++/10.3.1/bits/stl_algobase.h **** 
 601:/Library/DaisyToolchain/0.2.0/arm/arm-none-eabi/include/c++/10.3.1/bits/stl_algobase.h ****       return std::__copy_move_a<true>(std::__miter_base(__first),
 602:/Library/DaisyToolchain/0.2.0/arm/arm-none-eabi/include/c++/10.3.1/bits/stl_algobase.h **** 				      std::__miter_base(__last), __result);
 603:/Library/DaisyToolchain/0.2.0/arm/arm-none-eabi/include/c++/10.3.1/bits/stl_algobase.h ****     }
 604:/Library/DaisyToolchain/0.2.0/arm/arm-none-eabi/include/c++/10.3.1/bits/stl_algobase.h **** 
 605:/Library/DaisyToolchain/0.2.0/arm/arm-none-eabi/include/c++/10.3.1/bits/stl_algobase.h **** #define _GLIBCXX_MOVE3(_Tp, _Up, _Vp) std::move(_Tp, _Up, _Vp)
 606:/Library/DaisyToolchain/0.2.0/arm/arm-none-eabi/include/c++/10.3.1/bits/stl_algobase.h **** #else
 607:/Library/DaisyToolchain/0.2.0/arm/arm-none-eabi/include/c++/10.3.1/bits/stl_algobase.h **** #define _GLIBCXX_MOVE3(_Tp, _Up, _Vp) std::copy(_Tp, _Up, _Vp)
 608:/Library/DaisyToolchain/0.2.0/arm/arm-none-eabi/include/c++/10.3.1/bits/stl_algobase.h **** #endif
 609:/Library/DaisyToolchain/0.2.0/arm/arm-none-eabi/include/c++/10.3.1/bits/stl_algobase.h **** 
 610:/Library/DaisyToolchain/0.2.0/arm/arm-none-eabi/include/c++/10.3.1/bits/stl_algobase.h ****   template<bool _IsMove, bool _IsSimple, typename _Category>
 611:/Library/DaisyToolchain/0.2.0/arm/arm-none-eabi/include/c++/10.3.1/bits/stl_algobase.h ****     struct __copy_move_backward
 612:/Library/DaisyToolchain/0.2.0/arm/arm-none-eabi/include/c++/10.3.1/bits/stl_algobase.h ****     {
 613:/Library/DaisyToolchain/0.2.0/arm/arm-none-eabi/include/c++/10.3.1/bits/stl_algobase.h ****       template<typename _BI1, typename _BI2>
 614:/Library/DaisyToolchain/0.2.0/arm/arm-none-eabi/include/c++/10.3.1/bits/stl_algobase.h **** 	_GLIBCXX20_CONSTEXPR
 615:/Library/DaisyToolchain/0.2.0/arm/arm-none-eabi/include/c++/10.3.1/bits/stl_algobase.h **** 	static _BI2
 616:/Library/DaisyToolchain/0.2.0/arm/arm-none-eabi/include/c++/10.3.1/bits/stl_algobase.h **** 	__copy_move_b(_BI1 __first, _BI1 __last, _BI2 __result)
 617:/Library/DaisyToolchain/0.2.0/arm/arm-none-eabi/include/c++/10.3.1/bits/stl_algobase.h **** 	{
 618:/Library/DaisyToolchain/0.2.0/arm/arm-none-eabi/include/c++/10.3.1/bits/stl_algobase.h **** 	  while (__first != __last)
 619:/Library/DaisyToolchain/0.2.0/arm/arm-none-eabi/include/c++/10.3.1/bits/stl_algobase.h **** 	    *--__result = *--__last;
 620:/Library/DaisyToolchain/0.2.0/arm/arm-none-eabi/include/c++/10.3.1/bits/stl_algobase.h **** 	  return __result;
 621:/Library/DaisyToolchain/0.2.0/arm/arm-none-eabi/include/c++/10.3.1/bits/stl_algobase.h **** 	}
 622:/Library/DaisyToolchain/0.2.0/arm/arm-none-eabi/include/c++/10.3.1/bits/stl_algobase.h ****     };
 623:/Library/DaisyToolchain/0.2.0/arm/arm-none-eabi/include/c++/10.3.1/bits/stl_algobase.h **** 
 624:/Library/DaisyToolchain/0.2.0/arm/arm-none-eabi/include/c++/10.3.1/bits/stl_algobase.h **** #if __cplusplus >= 201103L
 625:/Library/DaisyToolchain/0.2.0/arm/arm-none-eabi/include/c++/10.3.1/bits/stl_algobase.h ****   template<typename _Category>
 626:/Library/DaisyToolchain/0.2.0/arm/arm-none-eabi/include/c++/10.3.1/bits/stl_algobase.h ****     struct __copy_move_backward<true, false, _Category>
 627:/Library/DaisyToolchain/0.2.0/arm/arm-none-eabi/include/c++/10.3.1/bits/stl_algobase.h ****     {
 628:/Library/DaisyToolchain/0.2.0/arm/arm-none-eabi/include/c++/10.3.1/bits/stl_algobase.h ****       template<typename _BI1, typename _BI2>
 629:/Library/DaisyToolchain/0.2.0/arm/arm-none-eabi/include/c++/10.3.1/bits/stl_algobase.h **** 	_GLIBCXX20_CONSTEXPR
 630:/Library/DaisyToolchain/0.2.0/arm/arm-none-eabi/include/c++/10.3.1/bits/stl_algobase.h **** 	static _BI2
 631:/Library/DaisyToolchain/0.2.0/arm/arm-none-eabi/include/c++/10.3.1/bits/stl_algobase.h **** 	__copy_move_b(_BI1 __first, _BI1 __last, _BI2 __result)
 632:/Library/DaisyToolchain/0.2.0/arm/arm-none-eabi/include/c++/10.3.1/bits/stl_algobase.h **** 	{
 633:/Library/DaisyToolchain/0.2.0/arm/arm-none-eabi/include/c++/10.3.1/bits/stl_algobase.h **** 	  while (__first != __last)
 634:/Library/DaisyToolchain/0.2.0/arm/arm-none-eabi/include/c++/10.3.1/bits/stl_algobase.h **** 	    *--__result = std::move(*--__last);
 635:/Library/DaisyToolchain/0.2.0/arm/arm-none-eabi/include/c++/10.3.1/bits/stl_algobase.h **** 	  return __result;
 636:/Library/DaisyToolchain/0.2.0/arm/arm-none-eabi/include/c++/10.3.1/bits/stl_algobase.h **** 	}
 637:/Library/DaisyToolchain/0.2.0/arm/arm-none-eabi/include/c++/10.3.1/bits/stl_algobase.h ****     };
 638:/Library/DaisyToolchain/0.2.0/arm/arm-none-eabi/include/c++/10.3.1/bits/stl_algobase.h **** #endif
 639:/Library/DaisyToolchain/0.2.0/arm/arm-none-eabi/include/c++/10.3.1/bits/stl_algobase.h **** 
 640:/Library/DaisyToolchain/0.2.0/arm/arm-none-eabi/include/c++/10.3.1/bits/stl_algobase.h ****   template<>
 641:/Library/DaisyToolchain/0.2.0/arm/arm-none-eabi/include/c++/10.3.1/bits/stl_algobase.h ****     struct __copy_move_backward<false, false, random_access_iterator_tag>
 642:/Library/DaisyToolchain/0.2.0/arm/arm-none-eabi/include/c++/10.3.1/bits/stl_algobase.h ****     {
 643:/Library/DaisyToolchain/0.2.0/arm/arm-none-eabi/include/c++/10.3.1/bits/stl_algobase.h ****       template<typename _BI1, typename _BI2>
 644:/Library/DaisyToolchain/0.2.0/arm/arm-none-eabi/include/c++/10.3.1/bits/stl_algobase.h **** 	_GLIBCXX20_CONSTEXPR
 645:/Library/DaisyToolchain/0.2.0/arm/arm-none-eabi/include/c++/10.3.1/bits/stl_algobase.h **** 	static _BI2
 646:/Library/DaisyToolchain/0.2.0/arm/arm-none-eabi/include/c++/10.3.1/bits/stl_algobase.h **** 	__copy_move_b(_BI1 __first, _BI1 __last, _BI2 __result)
 647:/Library/DaisyToolchain/0.2.0/arm/arm-none-eabi/include/c++/10.3.1/bits/stl_algobase.h **** 	{
 648:/Library/DaisyToolchain/0.2.0/arm/arm-none-eabi/include/c++/10.3.1/bits/stl_algobase.h **** 	  typename iterator_traits<_BI1>::difference_type
ARM GAS  /var/folders/9s/8rp0_f2s1n31qbztm3b5_fdh0000gn/T//cczTgMG8.s 			page 28


 649:/Library/DaisyToolchain/0.2.0/arm/arm-none-eabi/include/c++/10.3.1/bits/stl_algobase.h **** 	    __n = __last - __first;
 650:/Library/DaisyToolchain/0.2.0/arm/arm-none-eabi/include/c++/10.3.1/bits/stl_algobase.h **** 	  for (; __n > 0; --__n)
 651:/Library/DaisyToolchain/0.2.0/arm/arm-none-eabi/include/c++/10.3.1/bits/stl_algobase.h **** 	    *--__result = *--__last;
 652:/Library/DaisyToolchain/0.2.0/arm/arm-none-eabi/include/c++/10.3.1/bits/stl_algobase.h **** 	  return __result;
 653:/Library/DaisyToolchain/0.2.0/arm/arm-none-eabi/include/c++/10.3.1/bits/stl_algobase.h **** 	}
 654:/Library/DaisyToolchain/0.2.0/arm/arm-none-eabi/include/c++/10.3.1/bits/stl_algobase.h ****     };
 655:/Library/DaisyToolchain/0.2.0/arm/arm-none-eabi/include/c++/10.3.1/bits/stl_algobase.h **** 
 656:/Library/DaisyToolchain/0.2.0/arm/arm-none-eabi/include/c++/10.3.1/bits/stl_algobase.h **** #if __cplusplus >= 201103L
 657:/Library/DaisyToolchain/0.2.0/arm/arm-none-eabi/include/c++/10.3.1/bits/stl_algobase.h ****   template<>
 658:/Library/DaisyToolchain/0.2.0/arm/arm-none-eabi/include/c++/10.3.1/bits/stl_algobase.h ****     struct __copy_move_backward<true, false, random_access_iterator_tag>
 659:/Library/DaisyToolchain/0.2.0/arm/arm-none-eabi/include/c++/10.3.1/bits/stl_algobase.h ****     {
 660:/Library/DaisyToolchain/0.2.0/arm/arm-none-eabi/include/c++/10.3.1/bits/stl_algobase.h ****       template<typename _BI1, typename _BI2>
 661:/Library/DaisyToolchain/0.2.0/arm/arm-none-eabi/include/c++/10.3.1/bits/stl_algobase.h **** 	_GLIBCXX20_CONSTEXPR
 662:/Library/DaisyToolchain/0.2.0/arm/arm-none-eabi/include/c++/10.3.1/bits/stl_algobase.h **** 	static _BI2
 663:/Library/DaisyToolchain/0.2.0/arm/arm-none-eabi/include/c++/10.3.1/bits/stl_algobase.h **** 	__copy_move_b(_BI1 __first, _BI1 __last, _BI2 __result)
 664:/Library/DaisyToolchain/0.2.0/arm/arm-none-eabi/include/c++/10.3.1/bits/stl_algobase.h **** 	{
 665:/Library/DaisyToolchain/0.2.0/arm/arm-none-eabi/include/c++/10.3.1/bits/stl_algobase.h **** 	  typename iterator_traits<_BI1>::difference_type
 666:/Library/DaisyToolchain/0.2.0/arm/arm-none-eabi/include/c++/10.3.1/bits/stl_algobase.h **** 	    __n = __last - __first;
 667:/Library/DaisyToolchain/0.2.0/arm/arm-none-eabi/include/c++/10.3.1/bits/stl_algobase.h **** 	  for (; __n > 0; --__n)
 668:/Library/DaisyToolchain/0.2.0/arm/arm-none-eabi/include/c++/10.3.1/bits/stl_algobase.h **** 	    *--__result = std::move(*--__last);
 669:/Library/DaisyToolchain/0.2.0/arm/arm-none-eabi/include/c++/10.3.1/bits/stl_algobase.h **** 	  return __result;
 670:/Library/DaisyToolchain/0.2.0/arm/arm-none-eabi/include/c++/10.3.1/bits/stl_algobase.h **** 	}
 671:/Library/DaisyToolchain/0.2.0/arm/arm-none-eabi/include/c++/10.3.1/bits/stl_algobase.h ****     };
 672:/Library/DaisyToolchain/0.2.0/arm/arm-none-eabi/include/c++/10.3.1/bits/stl_algobase.h **** #endif
 673:/Library/DaisyToolchain/0.2.0/arm/arm-none-eabi/include/c++/10.3.1/bits/stl_algobase.h **** 
 674:/Library/DaisyToolchain/0.2.0/arm/arm-none-eabi/include/c++/10.3.1/bits/stl_algobase.h ****   template<bool _IsMove>
 675:/Library/DaisyToolchain/0.2.0/arm/arm-none-eabi/include/c++/10.3.1/bits/stl_algobase.h ****     struct __copy_move_backward<_IsMove, true, random_access_iterator_tag>
 676:/Library/DaisyToolchain/0.2.0/arm/arm-none-eabi/include/c++/10.3.1/bits/stl_algobase.h ****     {
 677:/Library/DaisyToolchain/0.2.0/arm/arm-none-eabi/include/c++/10.3.1/bits/stl_algobase.h ****       template<typename _Tp>
 678:/Library/DaisyToolchain/0.2.0/arm/arm-none-eabi/include/c++/10.3.1/bits/stl_algobase.h **** 	_GLIBCXX20_CONSTEXPR
 679:/Library/DaisyToolchain/0.2.0/arm/arm-none-eabi/include/c++/10.3.1/bits/stl_algobase.h **** 	static _Tp*
 680:/Library/DaisyToolchain/0.2.0/arm/arm-none-eabi/include/c++/10.3.1/bits/stl_algobase.h **** 	__copy_move_b(const _Tp* __first, const _Tp* __last, _Tp* __result)
 681:/Library/DaisyToolchain/0.2.0/arm/arm-none-eabi/include/c++/10.3.1/bits/stl_algobase.h **** 	{
 682:/Library/DaisyToolchain/0.2.0/arm/arm-none-eabi/include/c++/10.3.1/bits/stl_algobase.h **** #if __cplusplus >= 201103L
 683:/Library/DaisyToolchain/0.2.0/arm/arm-none-eabi/include/c++/10.3.1/bits/stl_algobase.h **** 	  using __assignable = conditional<_IsMove,
 684:/Library/DaisyToolchain/0.2.0/arm/arm-none-eabi/include/c++/10.3.1/bits/stl_algobase.h **** 					   is_move_assignable<_Tp>,
 685:/Library/DaisyToolchain/0.2.0/arm/arm-none-eabi/include/c++/10.3.1/bits/stl_algobase.h **** 					   is_copy_assignable<_Tp>>;
 686:/Library/DaisyToolchain/0.2.0/arm/arm-none-eabi/include/c++/10.3.1/bits/stl_algobase.h **** 	  // trivial types can have deleted assignment
 687:/Library/DaisyToolchain/0.2.0/arm/arm-none-eabi/include/c++/10.3.1/bits/stl_algobase.h **** 	  static_assert( __assignable::type::value, "type is not assignable" );
 688:/Library/DaisyToolchain/0.2.0/arm/arm-none-eabi/include/c++/10.3.1/bits/stl_algobase.h **** #endif
 689:/Library/DaisyToolchain/0.2.0/arm/arm-none-eabi/include/c++/10.3.1/bits/stl_algobase.h **** 	  const ptrdiff_t _Num = __last - __first;
 690:/Library/DaisyToolchain/0.2.0/arm/arm-none-eabi/include/c++/10.3.1/bits/stl_algobase.h **** 	  if (_Num)
 691:/Library/DaisyToolchain/0.2.0/arm/arm-none-eabi/include/c++/10.3.1/bits/stl_algobase.h **** 	    __builtin_memmove(__result - _Num, __first, sizeof(_Tp) * _Num);
 692:/Library/DaisyToolchain/0.2.0/arm/arm-none-eabi/include/c++/10.3.1/bits/stl_algobase.h **** 	  return __result - _Num;
 693:/Library/DaisyToolchain/0.2.0/arm/arm-none-eabi/include/c++/10.3.1/bits/stl_algobase.h **** 	}
 694:/Library/DaisyToolchain/0.2.0/arm/arm-none-eabi/include/c++/10.3.1/bits/stl_algobase.h ****     };
 695:/Library/DaisyToolchain/0.2.0/arm/arm-none-eabi/include/c++/10.3.1/bits/stl_algobase.h **** 
 696:/Library/DaisyToolchain/0.2.0/arm/arm-none-eabi/include/c++/10.3.1/bits/stl_algobase.h ****   template<bool _IsMove, typename _BI1, typename _BI2>
 697:/Library/DaisyToolchain/0.2.0/arm/arm-none-eabi/include/c++/10.3.1/bits/stl_algobase.h ****     _GLIBCXX20_CONSTEXPR
 698:/Library/DaisyToolchain/0.2.0/arm/arm-none-eabi/include/c++/10.3.1/bits/stl_algobase.h ****     inline _BI2
 699:/Library/DaisyToolchain/0.2.0/arm/arm-none-eabi/include/c++/10.3.1/bits/stl_algobase.h ****     __copy_move_backward_a2(_BI1 __first, _BI1 __last, _BI2 __result)
 700:/Library/DaisyToolchain/0.2.0/arm/arm-none-eabi/include/c++/10.3.1/bits/stl_algobase.h ****     {
 701:/Library/DaisyToolchain/0.2.0/arm/arm-none-eabi/include/c++/10.3.1/bits/stl_algobase.h ****       typedef typename iterator_traits<_BI1>::iterator_category _Category;
 702:/Library/DaisyToolchain/0.2.0/arm/arm-none-eabi/include/c++/10.3.1/bits/stl_algobase.h **** #ifdef __cpp_lib_is_constant_evaluated
 703:/Library/DaisyToolchain/0.2.0/arm/arm-none-eabi/include/c++/10.3.1/bits/stl_algobase.h ****       if (std::is_constant_evaluated())
 704:/Library/DaisyToolchain/0.2.0/arm/arm-none-eabi/include/c++/10.3.1/bits/stl_algobase.h **** 	return std::__copy_move_backward<_IsMove, false, _Category>::
 705:/Library/DaisyToolchain/0.2.0/arm/arm-none-eabi/include/c++/10.3.1/bits/stl_algobase.h **** 	  __copy_move_b(__first, __last, __result);
ARM GAS  /var/folders/9s/8rp0_f2s1n31qbztm3b5_fdh0000gn/T//cczTgMG8.s 			page 29


 706:/Library/DaisyToolchain/0.2.0/arm/arm-none-eabi/include/c++/10.3.1/bits/stl_algobase.h **** #endif
 707:/Library/DaisyToolchain/0.2.0/arm/arm-none-eabi/include/c++/10.3.1/bits/stl_algobase.h ****       return std::__copy_move_backward<_IsMove,
 708:/Library/DaisyToolchain/0.2.0/arm/arm-none-eabi/include/c++/10.3.1/bits/stl_algobase.h **** 				       __memcpyable<_BI2, _BI1>::__value,
 709:/Library/DaisyToolchain/0.2.0/arm/arm-none-eabi/include/c++/10.3.1/bits/stl_algobase.h **** 				       _Category>::__copy_move_b(__first,
 710:/Library/DaisyToolchain/0.2.0/arm/arm-none-eabi/include/c++/10.3.1/bits/stl_algobase.h **** 								 __last,
 711:/Library/DaisyToolchain/0.2.0/arm/arm-none-eabi/include/c++/10.3.1/bits/stl_algobase.h **** 								 __result);
 712:/Library/DaisyToolchain/0.2.0/arm/arm-none-eabi/include/c++/10.3.1/bits/stl_algobase.h ****     }
 713:/Library/DaisyToolchain/0.2.0/arm/arm-none-eabi/include/c++/10.3.1/bits/stl_algobase.h **** 
 714:/Library/DaisyToolchain/0.2.0/arm/arm-none-eabi/include/c++/10.3.1/bits/stl_algobase.h ****   template<bool _IsMove, typename _BI1, typename _BI2>
 715:/Library/DaisyToolchain/0.2.0/arm/arm-none-eabi/include/c++/10.3.1/bits/stl_algobase.h ****     _GLIBCXX20_CONSTEXPR
 716:/Library/DaisyToolchain/0.2.0/arm/arm-none-eabi/include/c++/10.3.1/bits/stl_algobase.h ****     inline _BI2
 717:/Library/DaisyToolchain/0.2.0/arm/arm-none-eabi/include/c++/10.3.1/bits/stl_algobase.h ****     __copy_move_backward_a1(_BI1 __first, _BI1 __last, _BI2 __result)
 718:/Library/DaisyToolchain/0.2.0/arm/arm-none-eabi/include/c++/10.3.1/bits/stl_algobase.h ****     { return std::__copy_move_backward_a2<_IsMove>(__first, __last, __result); }
 719:/Library/DaisyToolchain/0.2.0/arm/arm-none-eabi/include/c++/10.3.1/bits/stl_algobase.h **** 
 720:/Library/DaisyToolchain/0.2.0/arm/arm-none-eabi/include/c++/10.3.1/bits/stl_algobase.h ****   template<bool _IsMove,
 721:/Library/DaisyToolchain/0.2.0/arm/arm-none-eabi/include/c++/10.3.1/bits/stl_algobase.h **** 	   typename _Tp, typename _Ref, typename _Ptr, typename _OI>
 722:/Library/DaisyToolchain/0.2.0/arm/arm-none-eabi/include/c++/10.3.1/bits/stl_algobase.h ****     _OI
 723:/Library/DaisyToolchain/0.2.0/arm/arm-none-eabi/include/c++/10.3.1/bits/stl_algobase.h ****     __copy_move_backward_a1(_GLIBCXX_STD_C::_Deque_iterator<_Tp, _Ref, _Ptr>,
 724:/Library/DaisyToolchain/0.2.0/arm/arm-none-eabi/include/c++/10.3.1/bits/stl_algobase.h **** 			    _GLIBCXX_STD_C::_Deque_iterator<_Tp, _Ref, _Ptr>,
 725:/Library/DaisyToolchain/0.2.0/arm/arm-none-eabi/include/c++/10.3.1/bits/stl_algobase.h **** 			    _OI);
 726:/Library/DaisyToolchain/0.2.0/arm/arm-none-eabi/include/c++/10.3.1/bits/stl_algobase.h **** 
 727:/Library/DaisyToolchain/0.2.0/arm/arm-none-eabi/include/c++/10.3.1/bits/stl_algobase.h ****   template<bool _IsMove,
 728:/Library/DaisyToolchain/0.2.0/arm/arm-none-eabi/include/c++/10.3.1/bits/stl_algobase.h **** 	   typename _ITp, typename _IRef, typename _IPtr, typename _OTp>
 729:/Library/DaisyToolchain/0.2.0/arm/arm-none-eabi/include/c++/10.3.1/bits/stl_algobase.h ****     _GLIBCXX_STD_C::_Deque_iterator<_OTp, _OTp&, _OTp*>
 730:/Library/DaisyToolchain/0.2.0/arm/arm-none-eabi/include/c++/10.3.1/bits/stl_algobase.h ****     __copy_move_backward_a1(
 731:/Library/DaisyToolchain/0.2.0/arm/arm-none-eabi/include/c++/10.3.1/bits/stl_algobase.h **** 			_GLIBCXX_STD_C::_Deque_iterator<_ITp, _IRef, _IPtr>,
 732:/Library/DaisyToolchain/0.2.0/arm/arm-none-eabi/include/c++/10.3.1/bits/stl_algobase.h **** 			_GLIBCXX_STD_C::_Deque_iterator<_ITp, _IRef, _IPtr>,
 733:/Library/DaisyToolchain/0.2.0/arm/arm-none-eabi/include/c++/10.3.1/bits/stl_algobase.h **** 			_GLIBCXX_STD_C::_Deque_iterator<_OTp, _OTp&, _OTp*>);
 734:/Library/DaisyToolchain/0.2.0/arm/arm-none-eabi/include/c++/10.3.1/bits/stl_algobase.h **** 
 735:/Library/DaisyToolchain/0.2.0/arm/arm-none-eabi/include/c++/10.3.1/bits/stl_algobase.h ****   template<bool _IsMove, typename _II, typename _Tp>
 736:/Library/DaisyToolchain/0.2.0/arm/arm-none-eabi/include/c++/10.3.1/bits/stl_algobase.h ****     typename __gnu_cxx::__enable_if<
 737:/Library/DaisyToolchain/0.2.0/arm/arm-none-eabi/include/c++/10.3.1/bits/stl_algobase.h ****       __is_random_access_iter<_II>::__value,
 738:/Library/DaisyToolchain/0.2.0/arm/arm-none-eabi/include/c++/10.3.1/bits/stl_algobase.h ****       _GLIBCXX_STD_C::_Deque_iterator<_Tp, _Tp&, _Tp*> >::__type
 739:/Library/DaisyToolchain/0.2.0/arm/arm-none-eabi/include/c++/10.3.1/bits/stl_algobase.h ****     __copy_move_backward_a1(_II, _II,
 740:/Library/DaisyToolchain/0.2.0/arm/arm-none-eabi/include/c++/10.3.1/bits/stl_algobase.h **** 			    _GLIBCXX_STD_C::_Deque_iterator<_Tp, _Tp&, _Tp*>);
 741:/Library/DaisyToolchain/0.2.0/arm/arm-none-eabi/include/c++/10.3.1/bits/stl_algobase.h **** 
 742:/Library/DaisyToolchain/0.2.0/arm/arm-none-eabi/include/c++/10.3.1/bits/stl_algobase.h ****   template<bool _IsMove, typename _II, typename _OI>
 743:/Library/DaisyToolchain/0.2.0/arm/arm-none-eabi/include/c++/10.3.1/bits/stl_algobase.h ****     _GLIBCXX20_CONSTEXPR
 744:/Library/DaisyToolchain/0.2.0/arm/arm-none-eabi/include/c++/10.3.1/bits/stl_algobase.h ****     inline _OI
 745:/Library/DaisyToolchain/0.2.0/arm/arm-none-eabi/include/c++/10.3.1/bits/stl_algobase.h ****     __copy_move_backward_a(_II __first, _II __last, _OI __result)
 746:/Library/DaisyToolchain/0.2.0/arm/arm-none-eabi/include/c++/10.3.1/bits/stl_algobase.h ****     {
 747:/Library/DaisyToolchain/0.2.0/arm/arm-none-eabi/include/c++/10.3.1/bits/stl_algobase.h ****       return std::__niter_wrap(__result,
 748:/Library/DaisyToolchain/0.2.0/arm/arm-none-eabi/include/c++/10.3.1/bits/stl_algobase.h **** 		std::__copy_move_backward_a1<_IsMove>
 749:/Library/DaisyToolchain/0.2.0/arm/arm-none-eabi/include/c++/10.3.1/bits/stl_algobase.h **** 		  (std::__niter_base(__first), std::__niter_base(__last),
 750:/Library/DaisyToolchain/0.2.0/arm/arm-none-eabi/include/c++/10.3.1/bits/stl_algobase.h **** 		   std::__niter_base(__result)));
 751:/Library/DaisyToolchain/0.2.0/arm/arm-none-eabi/include/c++/10.3.1/bits/stl_algobase.h ****     }
 752:/Library/DaisyToolchain/0.2.0/arm/arm-none-eabi/include/c++/10.3.1/bits/stl_algobase.h **** 
 753:/Library/DaisyToolchain/0.2.0/arm/arm-none-eabi/include/c++/10.3.1/bits/stl_algobase.h ****   template<bool _IsMove,
 754:/Library/DaisyToolchain/0.2.0/arm/arm-none-eabi/include/c++/10.3.1/bits/stl_algobase.h **** 	   typename _Ite, typename _Seq, typename _Cat, typename _OI>
 755:/Library/DaisyToolchain/0.2.0/arm/arm-none-eabi/include/c++/10.3.1/bits/stl_algobase.h ****     _OI
 756:/Library/DaisyToolchain/0.2.0/arm/arm-none-eabi/include/c++/10.3.1/bits/stl_algobase.h ****     __copy_move_backward_a(
 757:/Library/DaisyToolchain/0.2.0/arm/arm-none-eabi/include/c++/10.3.1/bits/stl_algobase.h **** 		const ::__gnu_debug::_Safe_iterator<_Ite, _Seq, _Cat>&,
 758:/Library/DaisyToolchain/0.2.0/arm/arm-none-eabi/include/c++/10.3.1/bits/stl_algobase.h **** 		const ::__gnu_debug::_Safe_iterator<_Ite, _Seq, _Cat>&,
 759:/Library/DaisyToolchain/0.2.0/arm/arm-none-eabi/include/c++/10.3.1/bits/stl_algobase.h **** 		_OI);
 760:/Library/DaisyToolchain/0.2.0/arm/arm-none-eabi/include/c++/10.3.1/bits/stl_algobase.h **** 
 761:/Library/DaisyToolchain/0.2.0/arm/arm-none-eabi/include/c++/10.3.1/bits/stl_algobase.h ****   template<bool _IsMove,
 762:/Library/DaisyToolchain/0.2.0/arm/arm-none-eabi/include/c++/10.3.1/bits/stl_algobase.h **** 	   typename _II, typename _Ite, typename _Seq, typename _Cat>
ARM GAS  /var/folders/9s/8rp0_f2s1n31qbztm3b5_fdh0000gn/T//cczTgMG8.s 			page 30


 763:/Library/DaisyToolchain/0.2.0/arm/arm-none-eabi/include/c++/10.3.1/bits/stl_algobase.h ****     __gnu_debug::_Safe_iterator<_Ite, _Seq, _Cat>
 764:/Library/DaisyToolchain/0.2.0/arm/arm-none-eabi/include/c++/10.3.1/bits/stl_algobase.h ****     __copy_move_backward_a(_II, _II,
 765:/Library/DaisyToolchain/0.2.0/arm/arm-none-eabi/include/c++/10.3.1/bits/stl_algobase.h **** 		const ::__gnu_debug::_Safe_iterator<_Ite, _Seq, _Cat>&);
 766:/Library/DaisyToolchain/0.2.0/arm/arm-none-eabi/include/c++/10.3.1/bits/stl_algobase.h **** 
 767:/Library/DaisyToolchain/0.2.0/arm/arm-none-eabi/include/c++/10.3.1/bits/stl_algobase.h ****   template<bool _IsMove,
 768:/Library/DaisyToolchain/0.2.0/arm/arm-none-eabi/include/c++/10.3.1/bits/stl_algobase.h **** 	   typename _IIte, typename _ISeq, typename _ICat,
 769:/Library/DaisyToolchain/0.2.0/arm/arm-none-eabi/include/c++/10.3.1/bits/stl_algobase.h **** 	   typename _OIte, typename _OSeq, typename _OCat>
 770:/Library/DaisyToolchain/0.2.0/arm/arm-none-eabi/include/c++/10.3.1/bits/stl_algobase.h ****     ::__gnu_debug::_Safe_iterator<_OIte, _OSeq, _OCat>
 771:/Library/DaisyToolchain/0.2.0/arm/arm-none-eabi/include/c++/10.3.1/bits/stl_algobase.h ****     __copy_move_backward_a(
 772:/Library/DaisyToolchain/0.2.0/arm/arm-none-eabi/include/c++/10.3.1/bits/stl_algobase.h **** 		const ::__gnu_debug::_Safe_iterator<_IIte, _ISeq, _ICat>&,
 773:/Library/DaisyToolchain/0.2.0/arm/arm-none-eabi/include/c++/10.3.1/bits/stl_algobase.h **** 		const ::__gnu_debug::_Safe_iterator<_IIte, _ISeq, _ICat>&,
 774:/Library/DaisyToolchain/0.2.0/arm/arm-none-eabi/include/c++/10.3.1/bits/stl_algobase.h **** 		const ::__gnu_debug::_Safe_iterator<_OIte, _OSeq, _OCat>&);
 775:/Library/DaisyToolchain/0.2.0/arm/arm-none-eabi/include/c++/10.3.1/bits/stl_algobase.h **** 
 776:/Library/DaisyToolchain/0.2.0/arm/arm-none-eabi/include/c++/10.3.1/bits/stl_algobase.h ****   /**
 777:/Library/DaisyToolchain/0.2.0/arm/arm-none-eabi/include/c++/10.3.1/bits/stl_algobase.h ****    *  @brief Copies the range [first,last) into result.
 778:/Library/DaisyToolchain/0.2.0/arm/arm-none-eabi/include/c++/10.3.1/bits/stl_algobase.h ****    *  @ingroup mutating_algorithms
 779:/Library/DaisyToolchain/0.2.0/arm/arm-none-eabi/include/c++/10.3.1/bits/stl_algobase.h ****    *  @param  __first  A bidirectional iterator.
 780:/Library/DaisyToolchain/0.2.0/arm/arm-none-eabi/include/c++/10.3.1/bits/stl_algobase.h ****    *  @param  __last   A bidirectional iterator.
 781:/Library/DaisyToolchain/0.2.0/arm/arm-none-eabi/include/c++/10.3.1/bits/stl_algobase.h ****    *  @param  __result A bidirectional iterator.
 782:/Library/DaisyToolchain/0.2.0/arm/arm-none-eabi/include/c++/10.3.1/bits/stl_algobase.h ****    *  @return   result - (last - first)
 783:/Library/DaisyToolchain/0.2.0/arm/arm-none-eabi/include/c++/10.3.1/bits/stl_algobase.h ****    *
 784:/Library/DaisyToolchain/0.2.0/arm/arm-none-eabi/include/c++/10.3.1/bits/stl_algobase.h ****    *  The function has the same effect as copy, but starts at the end of the
 785:/Library/DaisyToolchain/0.2.0/arm/arm-none-eabi/include/c++/10.3.1/bits/stl_algobase.h ****    *  range and works its way to the start, returning the start of the result.
 786:/Library/DaisyToolchain/0.2.0/arm/arm-none-eabi/include/c++/10.3.1/bits/stl_algobase.h ****    *  This inline function will boil down to a call to @c memmove whenever
 787:/Library/DaisyToolchain/0.2.0/arm/arm-none-eabi/include/c++/10.3.1/bits/stl_algobase.h ****    *  possible.  Failing that, if random access iterators are passed, then the
 788:/Library/DaisyToolchain/0.2.0/arm/arm-none-eabi/include/c++/10.3.1/bits/stl_algobase.h ****    *  loop count will be known (and therefore a candidate for compiler
 789:/Library/DaisyToolchain/0.2.0/arm/arm-none-eabi/include/c++/10.3.1/bits/stl_algobase.h ****    *  optimizations such as unrolling).
 790:/Library/DaisyToolchain/0.2.0/arm/arm-none-eabi/include/c++/10.3.1/bits/stl_algobase.h ****    *
 791:/Library/DaisyToolchain/0.2.0/arm/arm-none-eabi/include/c++/10.3.1/bits/stl_algobase.h ****    *  Result may not be in the range (first,last].  Use copy instead.  Note
 792:/Library/DaisyToolchain/0.2.0/arm/arm-none-eabi/include/c++/10.3.1/bits/stl_algobase.h ****    *  that the start of the output range may overlap [first,last).
 793:/Library/DaisyToolchain/0.2.0/arm/arm-none-eabi/include/c++/10.3.1/bits/stl_algobase.h ****   */
 794:/Library/DaisyToolchain/0.2.0/arm/arm-none-eabi/include/c++/10.3.1/bits/stl_algobase.h ****   template<typename _BI1, typename _BI2>
 795:/Library/DaisyToolchain/0.2.0/arm/arm-none-eabi/include/c++/10.3.1/bits/stl_algobase.h ****     _GLIBCXX20_CONSTEXPR
 796:/Library/DaisyToolchain/0.2.0/arm/arm-none-eabi/include/c++/10.3.1/bits/stl_algobase.h ****     inline _BI2
 797:/Library/DaisyToolchain/0.2.0/arm/arm-none-eabi/include/c++/10.3.1/bits/stl_algobase.h ****     copy_backward(_BI1 __first, _BI1 __last, _BI2 __result)
 798:/Library/DaisyToolchain/0.2.0/arm/arm-none-eabi/include/c++/10.3.1/bits/stl_algobase.h ****     {
 799:/Library/DaisyToolchain/0.2.0/arm/arm-none-eabi/include/c++/10.3.1/bits/stl_algobase.h ****       // concept requirements
 800:/Library/DaisyToolchain/0.2.0/arm/arm-none-eabi/include/c++/10.3.1/bits/stl_algobase.h ****       __glibcxx_function_requires(_BidirectionalIteratorConcept<_BI1>)
 801:/Library/DaisyToolchain/0.2.0/arm/arm-none-eabi/include/c++/10.3.1/bits/stl_algobase.h ****       __glibcxx_function_requires(_Mutable_BidirectionalIteratorConcept<_BI2>)
 802:/Library/DaisyToolchain/0.2.0/arm/arm-none-eabi/include/c++/10.3.1/bits/stl_algobase.h ****       __glibcxx_function_requires(_ConvertibleConcept<
 803:/Library/DaisyToolchain/0.2.0/arm/arm-none-eabi/include/c++/10.3.1/bits/stl_algobase.h **** 	    typename iterator_traits<_BI1>::value_type,
 804:/Library/DaisyToolchain/0.2.0/arm/arm-none-eabi/include/c++/10.3.1/bits/stl_algobase.h **** 	    typename iterator_traits<_BI2>::value_type>)
 805:/Library/DaisyToolchain/0.2.0/arm/arm-none-eabi/include/c++/10.3.1/bits/stl_algobase.h ****       __glibcxx_requires_can_decrement_range(__first, __last, __result);
 806:/Library/DaisyToolchain/0.2.0/arm/arm-none-eabi/include/c++/10.3.1/bits/stl_algobase.h **** 
 807:/Library/DaisyToolchain/0.2.0/arm/arm-none-eabi/include/c++/10.3.1/bits/stl_algobase.h ****       return std::__copy_move_backward_a<__is_move_iterator<_BI1>::__value>
 808:/Library/DaisyToolchain/0.2.0/arm/arm-none-eabi/include/c++/10.3.1/bits/stl_algobase.h **** 	     (std::__miter_base(__first), std::__miter_base(__last), __result);
 809:/Library/DaisyToolchain/0.2.0/arm/arm-none-eabi/include/c++/10.3.1/bits/stl_algobase.h ****     }
 810:/Library/DaisyToolchain/0.2.0/arm/arm-none-eabi/include/c++/10.3.1/bits/stl_algobase.h **** 
 811:/Library/DaisyToolchain/0.2.0/arm/arm-none-eabi/include/c++/10.3.1/bits/stl_algobase.h **** #if __cplusplus >= 201103L
 812:/Library/DaisyToolchain/0.2.0/arm/arm-none-eabi/include/c++/10.3.1/bits/stl_algobase.h ****   /**
 813:/Library/DaisyToolchain/0.2.0/arm/arm-none-eabi/include/c++/10.3.1/bits/stl_algobase.h ****    *  @brief Moves the range [first,last) into result.
 814:/Library/DaisyToolchain/0.2.0/arm/arm-none-eabi/include/c++/10.3.1/bits/stl_algobase.h ****    *  @ingroup mutating_algorithms
 815:/Library/DaisyToolchain/0.2.0/arm/arm-none-eabi/include/c++/10.3.1/bits/stl_algobase.h ****    *  @param  __first  A bidirectional iterator.
 816:/Library/DaisyToolchain/0.2.0/arm/arm-none-eabi/include/c++/10.3.1/bits/stl_algobase.h ****    *  @param  __last   A bidirectional iterator.
 817:/Library/DaisyToolchain/0.2.0/arm/arm-none-eabi/include/c++/10.3.1/bits/stl_algobase.h ****    *  @param  __result A bidirectional iterator.
 818:/Library/DaisyToolchain/0.2.0/arm/arm-none-eabi/include/c++/10.3.1/bits/stl_algobase.h ****    *  @return   result - (last - first)
 819:/Library/DaisyToolchain/0.2.0/arm/arm-none-eabi/include/c++/10.3.1/bits/stl_algobase.h ****    *
ARM GAS  /var/folders/9s/8rp0_f2s1n31qbztm3b5_fdh0000gn/T//cczTgMG8.s 			page 31


 820:/Library/DaisyToolchain/0.2.0/arm/arm-none-eabi/include/c++/10.3.1/bits/stl_algobase.h ****    *  The function has the same effect as move, but starts at the end of the
 821:/Library/DaisyToolchain/0.2.0/arm/arm-none-eabi/include/c++/10.3.1/bits/stl_algobase.h ****    *  range and works its way to the start, returning the start of the result.
 822:/Library/DaisyToolchain/0.2.0/arm/arm-none-eabi/include/c++/10.3.1/bits/stl_algobase.h ****    *  This inline function will boil down to a call to @c memmove whenever
 823:/Library/DaisyToolchain/0.2.0/arm/arm-none-eabi/include/c++/10.3.1/bits/stl_algobase.h ****    *  possible.  Failing that, if random access iterators are passed, then the
 824:/Library/DaisyToolchain/0.2.0/arm/arm-none-eabi/include/c++/10.3.1/bits/stl_algobase.h ****    *  loop count will be known (and therefore a candidate for compiler
 825:/Library/DaisyToolchain/0.2.0/arm/arm-none-eabi/include/c++/10.3.1/bits/stl_algobase.h ****    *  optimizations such as unrolling).
 826:/Library/DaisyToolchain/0.2.0/arm/arm-none-eabi/include/c++/10.3.1/bits/stl_algobase.h ****    *
 827:/Library/DaisyToolchain/0.2.0/arm/arm-none-eabi/include/c++/10.3.1/bits/stl_algobase.h ****    *  Result may not be in the range (first,last].  Use move instead.  Note
 828:/Library/DaisyToolchain/0.2.0/arm/arm-none-eabi/include/c++/10.3.1/bits/stl_algobase.h ****    *  that the start of the output range may overlap [first,last).
 829:/Library/DaisyToolchain/0.2.0/arm/arm-none-eabi/include/c++/10.3.1/bits/stl_algobase.h ****   */
 830:/Library/DaisyToolchain/0.2.0/arm/arm-none-eabi/include/c++/10.3.1/bits/stl_algobase.h ****   template<typename _BI1, typename _BI2>
 831:/Library/DaisyToolchain/0.2.0/arm/arm-none-eabi/include/c++/10.3.1/bits/stl_algobase.h ****     _GLIBCXX20_CONSTEXPR
 832:/Library/DaisyToolchain/0.2.0/arm/arm-none-eabi/include/c++/10.3.1/bits/stl_algobase.h ****     inline _BI2
 833:/Library/DaisyToolchain/0.2.0/arm/arm-none-eabi/include/c++/10.3.1/bits/stl_algobase.h ****     move_backward(_BI1 __first, _BI1 __last, _BI2 __result)
 834:/Library/DaisyToolchain/0.2.0/arm/arm-none-eabi/include/c++/10.3.1/bits/stl_algobase.h ****     {
 835:/Library/DaisyToolchain/0.2.0/arm/arm-none-eabi/include/c++/10.3.1/bits/stl_algobase.h ****       // concept requirements
 836:/Library/DaisyToolchain/0.2.0/arm/arm-none-eabi/include/c++/10.3.1/bits/stl_algobase.h ****       __glibcxx_function_requires(_BidirectionalIteratorConcept<_BI1>)
 837:/Library/DaisyToolchain/0.2.0/arm/arm-none-eabi/include/c++/10.3.1/bits/stl_algobase.h ****       __glibcxx_function_requires(_Mutable_BidirectionalIteratorConcept<_BI2>)
 838:/Library/DaisyToolchain/0.2.0/arm/arm-none-eabi/include/c++/10.3.1/bits/stl_algobase.h ****       __glibcxx_function_requires(_ConvertibleConcept<
 839:/Library/DaisyToolchain/0.2.0/arm/arm-none-eabi/include/c++/10.3.1/bits/stl_algobase.h **** 	    typename iterator_traits<_BI1>::value_type,
 840:/Library/DaisyToolchain/0.2.0/arm/arm-none-eabi/include/c++/10.3.1/bits/stl_algobase.h **** 	    typename iterator_traits<_BI2>::value_type>)
 841:/Library/DaisyToolchain/0.2.0/arm/arm-none-eabi/include/c++/10.3.1/bits/stl_algobase.h ****       __glibcxx_requires_can_decrement_range(__first, __last, __result);
 842:/Library/DaisyToolchain/0.2.0/arm/arm-none-eabi/include/c++/10.3.1/bits/stl_algobase.h **** 
 843:/Library/DaisyToolchain/0.2.0/arm/arm-none-eabi/include/c++/10.3.1/bits/stl_algobase.h ****       return std::__copy_move_backward_a<true>(std::__miter_base(__first),
 844:/Library/DaisyToolchain/0.2.0/arm/arm-none-eabi/include/c++/10.3.1/bits/stl_algobase.h **** 					       std::__miter_base(__last),
 845:/Library/DaisyToolchain/0.2.0/arm/arm-none-eabi/include/c++/10.3.1/bits/stl_algobase.h **** 					       __result);
 846:/Library/DaisyToolchain/0.2.0/arm/arm-none-eabi/include/c++/10.3.1/bits/stl_algobase.h ****     }
 847:/Library/DaisyToolchain/0.2.0/arm/arm-none-eabi/include/c++/10.3.1/bits/stl_algobase.h **** 
 848:/Library/DaisyToolchain/0.2.0/arm/arm-none-eabi/include/c++/10.3.1/bits/stl_algobase.h **** #define _GLIBCXX_MOVE_BACKWARD3(_Tp, _Up, _Vp) std::move_backward(_Tp, _Up, _Vp)
 849:/Library/DaisyToolchain/0.2.0/arm/arm-none-eabi/include/c++/10.3.1/bits/stl_algobase.h **** #else
 850:/Library/DaisyToolchain/0.2.0/arm/arm-none-eabi/include/c++/10.3.1/bits/stl_algobase.h **** #define _GLIBCXX_MOVE_BACKWARD3(_Tp, _Up, _Vp) std::copy_backward(_Tp, _Up, _Vp)
 851:/Library/DaisyToolchain/0.2.0/arm/arm-none-eabi/include/c++/10.3.1/bits/stl_algobase.h **** #endif
 852:/Library/DaisyToolchain/0.2.0/arm/arm-none-eabi/include/c++/10.3.1/bits/stl_algobase.h **** 
 853:/Library/DaisyToolchain/0.2.0/arm/arm-none-eabi/include/c++/10.3.1/bits/stl_algobase.h ****   template<typename _ForwardIterator, typename _Tp>
 854:/Library/DaisyToolchain/0.2.0/arm/arm-none-eabi/include/c++/10.3.1/bits/stl_algobase.h ****     _GLIBCXX20_CONSTEXPR
 855:/Library/DaisyToolchain/0.2.0/arm/arm-none-eabi/include/c++/10.3.1/bits/stl_algobase.h ****     inline typename
 856:/Library/DaisyToolchain/0.2.0/arm/arm-none-eabi/include/c++/10.3.1/bits/stl_algobase.h ****     __gnu_cxx::__enable_if<!__is_scalar<_Tp>::__value, void>::__type
 857:/Library/DaisyToolchain/0.2.0/arm/arm-none-eabi/include/c++/10.3.1/bits/stl_algobase.h ****     __fill_a1(_ForwardIterator __first, _ForwardIterator __last,
 858:/Library/DaisyToolchain/0.2.0/arm/arm-none-eabi/include/c++/10.3.1/bits/stl_algobase.h **** 	      const _Tp& __value)
 859:/Library/DaisyToolchain/0.2.0/arm/arm-none-eabi/include/c++/10.3.1/bits/stl_algobase.h ****     {
 860:/Library/DaisyToolchain/0.2.0/arm/arm-none-eabi/include/c++/10.3.1/bits/stl_algobase.h ****       for (; __first != __last; ++__first)
 861:/Library/DaisyToolchain/0.2.0/arm/arm-none-eabi/include/c++/10.3.1/bits/stl_algobase.h **** 	*__first = __value;
 862:/Library/DaisyToolchain/0.2.0/arm/arm-none-eabi/include/c++/10.3.1/bits/stl_algobase.h ****     }
 863:/Library/DaisyToolchain/0.2.0/arm/arm-none-eabi/include/c++/10.3.1/bits/stl_algobase.h **** 
 864:/Library/DaisyToolchain/0.2.0/arm/arm-none-eabi/include/c++/10.3.1/bits/stl_algobase.h ****   template<typename _ForwardIterator, typename _Tp>
 865:/Library/DaisyToolchain/0.2.0/arm/arm-none-eabi/include/c++/10.3.1/bits/stl_algobase.h ****     _GLIBCXX20_CONSTEXPR
 866:/Library/DaisyToolchain/0.2.0/arm/arm-none-eabi/include/c++/10.3.1/bits/stl_algobase.h ****     inline typename
 867:/Library/DaisyToolchain/0.2.0/arm/arm-none-eabi/include/c++/10.3.1/bits/stl_algobase.h ****     __gnu_cxx::__enable_if<__is_scalar<_Tp>::__value, void>::__type
 868:/Library/DaisyToolchain/0.2.0/arm/arm-none-eabi/include/c++/10.3.1/bits/stl_algobase.h ****     __fill_a1(_ForwardIterator __first, _ForwardIterator __last,
 869:/Library/DaisyToolchain/0.2.0/arm/arm-none-eabi/include/c++/10.3.1/bits/stl_algobase.h **** 	      const _Tp& __value)
 870:/Library/DaisyToolchain/0.2.0/arm/arm-none-eabi/include/c++/10.3.1/bits/stl_algobase.h ****     {
 871:/Library/DaisyToolchain/0.2.0/arm/arm-none-eabi/include/c++/10.3.1/bits/stl_algobase.h ****       const _Tp __tmp = __value;
 872:/Library/DaisyToolchain/0.2.0/arm/arm-none-eabi/include/c++/10.3.1/bits/stl_algobase.h ****       for (; __first != __last; ++__first)
 873:/Library/DaisyToolchain/0.2.0/arm/arm-none-eabi/include/c++/10.3.1/bits/stl_algobase.h **** 	*__first = __tmp;
 442              		.loc 7 873 11 view .LVU118
 443 003e AA00     		lsls	r2, r5, #2
 444              	.LVL25:
ARM GAS  /var/folders/9s/8rp0_f2s1n31qbztm3b5_fdh0000gn/T//cczTgMG8.s 			page 32


 445              		.loc 7 873 11 view .LVU119
 446 0040 0021     		movs	r1, #0
 447              	.LVL26:
 448              		.loc 7 873 11 view .LVU120
 449              	.LBE246:
 450              	.LBE245:
 451              	.LBE244:
 452              	.LBE243:
 453              		.loc 2 88 14 view .LVU121
 454 0042 03EB8509 		add	r9, r3, r5, lsl #2
 455              	.LVL27:
 456              	.LBB252:
 457              	.LBI243:
 874:/Library/DaisyToolchain/0.2.0/arm/arm-none-eabi/include/c++/10.3.1/bits/stl_algobase.h ****     }
 875:/Library/DaisyToolchain/0.2.0/arm/arm-none-eabi/include/c++/10.3.1/bits/stl_algobase.h **** 
 876:/Library/DaisyToolchain/0.2.0/arm/arm-none-eabi/include/c++/10.3.1/bits/stl_algobase.h ****   // Specialization: for char types we can use memset.
 877:/Library/DaisyToolchain/0.2.0/arm/arm-none-eabi/include/c++/10.3.1/bits/stl_algobase.h ****   template<typename _Tp>
 878:/Library/DaisyToolchain/0.2.0/arm/arm-none-eabi/include/c++/10.3.1/bits/stl_algobase.h ****     _GLIBCXX20_CONSTEXPR
 879:/Library/DaisyToolchain/0.2.0/arm/arm-none-eabi/include/c++/10.3.1/bits/stl_algobase.h ****     inline typename
 880:/Library/DaisyToolchain/0.2.0/arm/arm-none-eabi/include/c++/10.3.1/bits/stl_algobase.h ****     __gnu_cxx::__enable_if<__is_byte<_Tp>::__value, void>::__type
 881:/Library/DaisyToolchain/0.2.0/arm/arm-none-eabi/include/c++/10.3.1/bits/stl_algobase.h ****     __fill_a1(_Tp* __first, _Tp* __last, const _Tp& __c)
 882:/Library/DaisyToolchain/0.2.0/arm/arm-none-eabi/include/c++/10.3.1/bits/stl_algobase.h ****     {
 883:/Library/DaisyToolchain/0.2.0/arm/arm-none-eabi/include/c++/10.3.1/bits/stl_algobase.h ****       const _Tp __tmp = __c;
 884:/Library/DaisyToolchain/0.2.0/arm/arm-none-eabi/include/c++/10.3.1/bits/stl_algobase.h **** #if __cpp_lib_is_constant_evaluated
 885:/Library/DaisyToolchain/0.2.0/arm/arm-none-eabi/include/c++/10.3.1/bits/stl_algobase.h ****       if (std::is_constant_evaluated())
 886:/Library/DaisyToolchain/0.2.0/arm/arm-none-eabi/include/c++/10.3.1/bits/stl_algobase.h **** 	{
 887:/Library/DaisyToolchain/0.2.0/arm/arm-none-eabi/include/c++/10.3.1/bits/stl_algobase.h **** 	  for (; __first != __last; ++__first)
 888:/Library/DaisyToolchain/0.2.0/arm/arm-none-eabi/include/c++/10.3.1/bits/stl_algobase.h **** 	    *__first = __tmp;
 889:/Library/DaisyToolchain/0.2.0/arm/arm-none-eabi/include/c++/10.3.1/bits/stl_algobase.h **** 	  return;
 890:/Library/DaisyToolchain/0.2.0/arm/arm-none-eabi/include/c++/10.3.1/bits/stl_algobase.h **** 	}
 891:/Library/DaisyToolchain/0.2.0/arm/arm-none-eabi/include/c++/10.3.1/bits/stl_algobase.h **** #endif
 892:/Library/DaisyToolchain/0.2.0/arm/arm-none-eabi/include/c++/10.3.1/bits/stl_algobase.h ****       if (const size_t __len = __last - __first)
 893:/Library/DaisyToolchain/0.2.0/arm/arm-none-eabi/include/c++/10.3.1/bits/stl_algobase.h **** 	__builtin_memset(__first, static_cast<unsigned char>(__tmp), __len);
 894:/Library/DaisyToolchain/0.2.0/arm/arm-none-eabi/include/c++/10.3.1/bits/stl_algobase.h ****     }
 895:/Library/DaisyToolchain/0.2.0/arm/arm-none-eabi/include/c++/10.3.1/bits/stl_algobase.h **** 
 896:/Library/DaisyToolchain/0.2.0/arm/arm-none-eabi/include/c++/10.3.1/bits/stl_algobase.h ****   template<typename _Ite, typename _Cont, typename _Tp>
 897:/Library/DaisyToolchain/0.2.0/arm/arm-none-eabi/include/c++/10.3.1/bits/stl_algobase.h ****     _GLIBCXX20_CONSTEXPR
 898:/Library/DaisyToolchain/0.2.0/arm/arm-none-eabi/include/c++/10.3.1/bits/stl_algobase.h ****     inline void
 899:/Library/DaisyToolchain/0.2.0/arm/arm-none-eabi/include/c++/10.3.1/bits/stl_algobase.h ****     __fill_a1(::__gnu_cxx::__normal_iterator<_Ite, _Cont> __first,
 900:/Library/DaisyToolchain/0.2.0/arm/arm-none-eabi/include/c++/10.3.1/bits/stl_algobase.h **** 	      ::__gnu_cxx::__normal_iterator<_Ite, _Cont> __last,
 901:/Library/DaisyToolchain/0.2.0/arm/arm-none-eabi/include/c++/10.3.1/bits/stl_algobase.h **** 	      const _Tp& __value)
 902:/Library/DaisyToolchain/0.2.0/arm/arm-none-eabi/include/c++/10.3.1/bits/stl_algobase.h ****     { std::__fill_a1(__first.base(), __last.base(), __value); }
 903:/Library/DaisyToolchain/0.2.0/arm/arm-none-eabi/include/c++/10.3.1/bits/stl_algobase.h **** 
 904:/Library/DaisyToolchain/0.2.0/arm/arm-none-eabi/include/c++/10.3.1/bits/stl_algobase.h ****   template<typename _Tp, typename _VTp>
 905:/Library/DaisyToolchain/0.2.0/arm/arm-none-eabi/include/c++/10.3.1/bits/stl_algobase.h ****     void
 906:/Library/DaisyToolchain/0.2.0/arm/arm-none-eabi/include/c++/10.3.1/bits/stl_algobase.h ****     __fill_a1(const _GLIBCXX_STD_C::_Deque_iterator<_Tp, _Tp&, _Tp*>&,
 907:/Library/DaisyToolchain/0.2.0/arm/arm-none-eabi/include/c++/10.3.1/bits/stl_algobase.h **** 	      const _GLIBCXX_STD_C::_Deque_iterator<_Tp, _Tp&, _Tp*>&,
 908:/Library/DaisyToolchain/0.2.0/arm/arm-none-eabi/include/c++/10.3.1/bits/stl_algobase.h **** 	      const _VTp&);
 909:/Library/DaisyToolchain/0.2.0/arm/arm-none-eabi/include/c++/10.3.1/bits/stl_algobase.h **** 
 910:/Library/DaisyToolchain/0.2.0/arm/arm-none-eabi/include/c++/10.3.1/bits/stl_algobase.h ****   template<typename _FIte, typename _Tp>
 911:/Library/DaisyToolchain/0.2.0/arm/arm-none-eabi/include/c++/10.3.1/bits/stl_algobase.h ****     _GLIBCXX20_CONSTEXPR
 912:/Library/DaisyToolchain/0.2.0/arm/arm-none-eabi/include/c++/10.3.1/bits/stl_algobase.h ****     inline void
 913:/Library/DaisyToolchain/0.2.0/arm/arm-none-eabi/include/c++/10.3.1/bits/stl_algobase.h ****     __fill_a(_FIte __first, _FIte __last, const _Tp& __value)
 914:/Library/DaisyToolchain/0.2.0/arm/arm-none-eabi/include/c++/10.3.1/bits/stl_algobase.h ****     { std::__fill_a1(__first, __last, __value); }
 915:/Library/DaisyToolchain/0.2.0/arm/arm-none-eabi/include/c++/10.3.1/bits/stl_algobase.h **** 
 916:/Library/DaisyToolchain/0.2.0/arm/arm-none-eabi/include/c++/10.3.1/bits/stl_algobase.h ****   template<typename _Ite, typename _Seq, typename _Cat, typename _Tp>
 917:/Library/DaisyToolchain/0.2.0/arm/arm-none-eabi/include/c++/10.3.1/bits/stl_algobase.h ****     void
ARM GAS  /var/folders/9s/8rp0_f2s1n31qbztm3b5_fdh0000gn/T//cczTgMG8.s 			page 33


 918:/Library/DaisyToolchain/0.2.0/arm/arm-none-eabi/include/c++/10.3.1/bits/stl_algobase.h ****     __fill_a(const ::__gnu_debug::_Safe_iterator<_Ite, _Seq, _Cat>&,
 919:/Library/DaisyToolchain/0.2.0/arm/arm-none-eabi/include/c++/10.3.1/bits/stl_algobase.h **** 	     const ::__gnu_debug::_Safe_iterator<_Ite, _Seq, _Cat>&,
 920:/Library/DaisyToolchain/0.2.0/arm/arm-none-eabi/include/c++/10.3.1/bits/stl_algobase.h **** 	     const _Tp&);
 921:/Library/DaisyToolchain/0.2.0/arm/arm-none-eabi/include/c++/10.3.1/bits/stl_algobase.h **** 
 922:/Library/DaisyToolchain/0.2.0/arm/arm-none-eabi/include/c++/10.3.1/bits/stl_algobase.h ****   /**
 923:/Library/DaisyToolchain/0.2.0/arm/arm-none-eabi/include/c++/10.3.1/bits/stl_algobase.h ****    *  @brief Fills the range [first,last) with copies of value.
 924:/Library/DaisyToolchain/0.2.0/arm/arm-none-eabi/include/c++/10.3.1/bits/stl_algobase.h ****    *  @ingroup mutating_algorithms
 925:/Library/DaisyToolchain/0.2.0/arm/arm-none-eabi/include/c++/10.3.1/bits/stl_algobase.h ****    *  @param  __first  A forward iterator.
 926:/Library/DaisyToolchain/0.2.0/arm/arm-none-eabi/include/c++/10.3.1/bits/stl_algobase.h ****    *  @param  __last   A forward iterator.
 927:/Library/DaisyToolchain/0.2.0/arm/arm-none-eabi/include/c++/10.3.1/bits/stl_algobase.h ****    *  @param  __value  A reference-to-const of arbitrary type.
 928:/Library/DaisyToolchain/0.2.0/arm/arm-none-eabi/include/c++/10.3.1/bits/stl_algobase.h ****    *  @return   Nothing.
 929:/Library/DaisyToolchain/0.2.0/arm/arm-none-eabi/include/c++/10.3.1/bits/stl_algobase.h ****    *
 930:/Library/DaisyToolchain/0.2.0/arm/arm-none-eabi/include/c++/10.3.1/bits/stl_algobase.h ****    *  This function fills a range with copies of the same value.  For char
 931:/Library/DaisyToolchain/0.2.0/arm/arm-none-eabi/include/c++/10.3.1/bits/stl_algobase.h ****    *  types filling contiguous areas of memory, this becomes an inline call
 932:/Library/DaisyToolchain/0.2.0/arm/arm-none-eabi/include/c++/10.3.1/bits/stl_algobase.h ****    *  to @c memset or @c wmemset.
 933:/Library/DaisyToolchain/0.2.0/arm/arm-none-eabi/include/c++/10.3.1/bits/stl_algobase.h ****   */
 934:/Library/DaisyToolchain/0.2.0/arm/arm-none-eabi/include/c++/10.3.1/bits/stl_algobase.h ****   template<typename _ForwardIterator, typename _Tp>
 935:/Library/DaisyToolchain/0.2.0/arm/arm-none-eabi/include/c++/10.3.1/bits/stl_algobase.h ****     _GLIBCXX20_CONSTEXPR
 936:/Library/DaisyToolchain/0.2.0/arm/arm-none-eabi/include/c++/10.3.1/bits/stl_algobase.h ****     inline void
 937:/Library/DaisyToolchain/0.2.0/arm/arm-none-eabi/include/c++/10.3.1/bits/stl_algobase.h ****     fill(_ForwardIterator __first, _ForwardIterator __last, const _Tp& __value)
 458              		.loc 7 937 5 is_stmt 1 view .LVU122
 459              	.LBB250:
 460              	.LBI244:
 913:/Library/DaisyToolchain/0.2.0/arm/arm-none-eabi/include/c++/10.3.1/bits/stl_algobase.h ****     { std::__fill_a1(__first, __last, __value); }
 461              		.loc 7 913 5 view .LVU123
 462              	.LBB248:
 463              	.LBI245:
 868:/Library/DaisyToolchain/0.2.0/arm/arm-none-eabi/include/c++/10.3.1/bits/stl_algobase.h **** 	      const _Tp& __value)
 464              		.loc 7 868 5 view .LVU124
 868:/Library/DaisyToolchain/0.2.0/arm/arm-none-eabi/include/c++/10.3.1/bits/stl_algobase.h **** 	      const _Tp& __value)
 465              		.loc 7 868 5 is_stmt 0 view .LVU125
 466              	.LBE248:
 467              	.LBE250:
 468              	.LBE252:
  89:eurorack/plaits/dsp/oscillator/string_synth_oscillator.h ****     std::copy(
  90:eurorack/plaits/dsp/oscillator/string_synth_oscillator.h ****         &unshifted_registration[0],
  91:eurorack/plaits/dsp/oscillator/string_synth_oscillator.h ****         &unshifted_registration[7 - shift],
 469              		.loc 2 91 35 view .LVU126
 470 0046 C5F10705 		rsb	r5, r5, #7
 471              	.LVL28:
 472              	.LBB253:
 473              	.LBB251:
 474              	.LBB249:
 475              	.LBB247:
 873:/Library/DaisyToolchain/0.2.0/arm/arm-none-eabi/include/c++/10.3.1/bits/stl_algobase.h ****     }
 476              		.loc 7 873 11 view .LVU127
 477 004a 1846     		mov	r0, r3
 478              	.LVL29:
 873:/Library/DaisyToolchain/0.2.0/arm/arm-none-eabi/include/c++/10.3.1/bits/stl_algobase.h ****     }
 479              		.loc 7 873 11 view .LVU128
 480 004c FFF7FEFF 		bl	memset
 481              	.LVL30:
 873:/Library/DaisyToolchain/0.2.0/arm/arm-none-eabi/include/c++/10.3.1/bits/stl_algobase.h ****     }
 482              		.loc 7 873 11 view .LVU129
 483              	.LBE247:
 484              	.LBE249:
 485              	.LBE251:
ARM GAS  /var/folders/9s/8rp0_f2s1n31qbztm3b5_fdh0000gn/T//cczTgMG8.s 			page 34


 486              	.LBE253:
  89:eurorack/plaits/dsp/oscillator/string_synth_oscillator.h ****     std::copy(
 487              		.loc 2 89 5 is_stmt 1 view .LVU130
 488              	.LBB254:
 489              	.LBI254:
 560:/Library/DaisyToolchain/0.2.0/arm/arm-none-eabi/include/c++/10.3.1/bits/stl_algobase.h ****     {
 490              		.loc 7 560 5 view .LVU131
 491              	.LBB255:
 492              	.LBI255:
 511:/Library/DaisyToolchain/0.2.0/arm/arm-none-eabi/include/c++/10.3.1/bits/stl_algobase.h ****     {
 493              		.loc 7 511 5 view .LVU132
 494              	.LBB256:
 495              	.LBI256:
 505:/Library/DaisyToolchain/0.2.0/arm/arm-none-eabi/include/c++/10.3.1/bits/stl_algobase.h ****     { return std::__copy_move_a2<_IsMove>(__first, __last, __result); }
 496              		.loc 7 505 5 view .LVU133
 497              	.LBB257:
 498              	.LBI257:
 463:/Library/DaisyToolchain/0.2.0/arm/arm-none-eabi/include/c++/10.3.1/bits/stl_algobase.h ****     {
 499              		.loc 7 463 5 view .LVU134
 500              	.LBB258:
 501              	.LBB259:
 502              	.LBI259:
 415:/Library/DaisyToolchain/0.2.0/arm/arm-none-eabi/include/c++/10.3.1/bits/stl_algobase.h **** 	{
 503              		.loc 7 415 2 view .LVU135
 504              	.LBB260:
 425:/Library/DaisyToolchain/0.2.0/arm/arm-none-eabi/include/c++/10.3.1/bits/stl_algobase.h **** 	    __builtin_memmove(__result, __first, sizeof(_Tp) * _Num);
 505              		.loc 7 425 4 is_stmt 0 view .LVU136
 506 0050 AA00     		lsls	r2, r5, #2
 507              	.LVL31:
 425:/Library/DaisyToolchain/0.2.0/arm/arm-none-eabi/include/c++/10.3.1/bits/stl_algobase.h **** 	    __builtin_memmove(__result, __first, sizeof(_Tp) * _Num);
 508              		.loc 7 425 4 view .LVU137
 509 0052 03D0     		beq	.L24
 426:/Library/DaisyToolchain/0.2.0/arm/arm-none-eabi/include/c++/10.3.1/bits/stl_algobase.h **** 	  return __result + _Num;
 510              		.loc 7 426 23 view .LVU138
 511 0054 4146     		mov	r1, r8
 512 0056 4846     		mov	r0, r9
 513 0058 FFF7FEFF 		bl	memcpy
 514              	.LVL32:
 515              	.L24:
 426:/Library/DaisyToolchain/0.2.0/arm/arm-none-eabi/include/c++/10.3.1/bits/stl_algobase.h **** 	  return __result + _Num;
 516              		.loc 7 426 23 view .LVU139
 517              	.LBE260:
 518              	.LBE259:
 519              	.LBE258:
 520              	.LBE257:
 521              	.LBE256:
 522              	.LBE255:
 523              	.LBE254:
  92:eurorack/plaits/dsp/oscillator/string_synth_oscillator.h ****         &registration[shift]);
  93:eurorack/plaits/dsp/oscillator/string_synth_oscillator.h ****     
  94:eurorack/plaits/dsp/oscillator/string_synth_oscillator.h ****     stmlib::ParameterInterpolator fm(&frequency_, frequency, size);
 524              		.loc 2 94 5 is_stmt 1 view .LVU140
 525              	.LBB261:
 526              	.LBI261:
 527              		.file 8 "eurorack/stmlib/dsp/parameter_interpolator.h"
   1:eurorack/stmlib/dsp/parameter_interpolator.h **** // Copyright 2015 Emilie Gillet.
   2:eurorack/stmlib/dsp/parameter_interpolator.h **** //
ARM GAS  /var/folders/9s/8rp0_f2s1n31qbztm3b5_fdh0000gn/T//cczTgMG8.s 			page 35


   3:eurorack/stmlib/dsp/parameter_interpolator.h **** // Author: Emilie Gillet (emilie.o.gillet@gmail.com)
   4:eurorack/stmlib/dsp/parameter_interpolator.h **** //
   5:eurorack/stmlib/dsp/parameter_interpolator.h **** // Permission is hereby granted, free of charge, to any person obtaining a copy
   6:eurorack/stmlib/dsp/parameter_interpolator.h **** // of this software and associated documentation files (the "Software"), to deal
   7:eurorack/stmlib/dsp/parameter_interpolator.h **** // in the Software without restriction, including without limitation the rights
   8:eurorack/stmlib/dsp/parameter_interpolator.h **** // to use, copy, modify, merge, publish, distribute, sublicense, and/or sell
   9:eurorack/stmlib/dsp/parameter_interpolator.h **** // copies of the Software, and to permit persons to whom the Software is
  10:eurorack/stmlib/dsp/parameter_interpolator.h **** // furnished to do so, subject to the following conditions:
  11:eurorack/stmlib/dsp/parameter_interpolator.h **** // 
  12:eurorack/stmlib/dsp/parameter_interpolator.h **** // The above copyright notice and this permission notice shall be included in
  13:eurorack/stmlib/dsp/parameter_interpolator.h **** // all copies or substantial portions of the Software.
  14:eurorack/stmlib/dsp/parameter_interpolator.h **** // 
  15:eurorack/stmlib/dsp/parameter_interpolator.h **** // THE SOFTWARE IS PROVIDED "AS IS", WITHOUT WARRANTY OF ANY KIND, EXPRESS OR
  16:eurorack/stmlib/dsp/parameter_interpolator.h **** // IMPLIED, INCLUDING BUT NOT LIMITED TO THE WARRANTIES OF MERCHANTABILITY,
  17:eurorack/stmlib/dsp/parameter_interpolator.h **** // FITNESS FOR A PARTICULAR PURPOSE AND NONINFRINGEMENT. IN NO EVENT SHALL THE
  18:eurorack/stmlib/dsp/parameter_interpolator.h **** // AUTHORS OR COPYRIGHT HOLDERS BE LIABLE FOR ANY CLAIM, DAMAGES OR OTHER
  19:eurorack/stmlib/dsp/parameter_interpolator.h **** // LIABILITY, WHETHER IN AN ACTION OF CONTRACT, TORT OR OTHERWISE, ARISING FROM,
  20:eurorack/stmlib/dsp/parameter_interpolator.h **** // OUT OF OR IN CONNECTION WITH THE SOFTWARE OR THE USE OR OTHER DEALINGS IN
  21:eurorack/stmlib/dsp/parameter_interpolator.h **** // THE SOFTWARE.
  22:eurorack/stmlib/dsp/parameter_interpolator.h **** // 
  23:eurorack/stmlib/dsp/parameter_interpolator.h **** // See http://creativecommons.org/licenses/MIT/ for more information.
  24:eurorack/stmlib/dsp/parameter_interpolator.h **** //
  25:eurorack/stmlib/dsp/parameter_interpolator.h **** // -----------------------------------------------------------------------------
  26:eurorack/stmlib/dsp/parameter_interpolator.h **** //
  27:eurorack/stmlib/dsp/parameter_interpolator.h **** // Linear interpolation of parameters in rendering loops.
  28:eurorack/stmlib/dsp/parameter_interpolator.h **** 
  29:eurorack/stmlib/dsp/parameter_interpolator.h **** #ifndef STMLIB_DSP_PARAMETER_INTERPOLATOR_H_
  30:eurorack/stmlib/dsp/parameter_interpolator.h **** #define STMLIB_DSP_PARAMETER_INTERPOLATOR_H_
  31:eurorack/stmlib/dsp/parameter_interpolator.h **** 
  32:eurorack/stmlib/dsp/parameter_interpolator.h **** #include "stmlib/stmlib.h"
  33:eurorack/stmlib/dsp/parameter_interpolator.h **** 
  34:eurorack/stmlib/dsp/parameter_interpolator.h **** namespace stmlib {
  35:eurorack/stmlib/dsp/parameter_interpolator.h **** 
  36:eurorack/stmlib/dsp/parameter_interpolator.h **** class ParameterInterpolator {
  37:eurorack/stmlib/dsp/parameter_interpolator.h ****  public:
  38:eurorack/stmlib/dsp/parameter_interpolator.h ****   ParameterInterpolator() { }
  39:eurorack/stmlib/dsp/parameter_interpolator.h ****   ParameterInterpolator(float* state, float new_value, size_t size) {
 528              		.loc 8 39 3 view .LVU141
 529              	.LBE261:
  40:eurorack/stmlib/dsp/parameter_interpolator.h ****     Init(state, new_value, size);
 530              		.loc 8 40 5 view .LVU142
 531              	.LBB274:
 532              	.LBB262:
 533              	.LBI262:
  41:eurorack/stmlib/dsp/parameter_interpolator.h ****   }
  42:eurorack/stmlib/dsp/parameter_interpolator.h **** 
  43:eurorack/stmlib/dsp/parameter_interpolator.h ****   ParameterInterpolator(float* state, float new_value, float step) {
  44:eurorack/stmlib/dsp/parameter_interpolator.h ****     state_ = state;
  45:eurorack/stmlib/dsp/parameter_interpolator.h ****     value_ = *state;
  46:eurorack/stmlib/dsp/parameter_interpolator.h ****     increment_ = (new_value - *state) * step;
  47:eurorack/stmlib/dsp/parameter_interpolator.h ****   }
  48:eurorack/stmlib/dsp/parameter_interpolator.h **** 
  49:eurorack/stmlib/dsp/parameter_interpolator.h ****   ~ParameterInterpolator() {
  50:eurorack/stmlib/dsp/parameter_interpolator.h ****     *state_ = value_;
  51:eurorack/stmlib/dsp/parameter_interpolator.h ****   }
  52:eurorack/stmlib/dsp/parameter_interpolator.h ****   
  53:eurorack/stmlib/dsp/parameter_interpolator.h ****   inline void Init(float* state, float new_value, size_t size) {
ARM GAS  /var/folders/9s/8rp0_f2s1n31qbztm3b5_fdh0000gn/T//cczTgMG8.s 			page 36


 534              		.loc 8 53 15 view .LVU143
 535              	.LBB263:
  54:eurorack/stmlib/dsp/parameter_interpolator.h ****     state_ = state;
 536              		.loc 8 54 5 view .LVU144
  55:eurorack/stmlib/dsp/parameter_interpolator.h ****     value_ = *state;
 537              		.loc 8 55 5 view .LVU145
 538              	.LBE263:
 539              	.LBE262:
 540              	.LBE274:
  95:eurorack/plaits/dsp/oscillator/string_synth_oscillator.h ****     stmlib::ParameterInterpolator saw_8_gain_modulation(
  96:eurorack/plaits/dsp/oscillator/string_synth_oscillator.h ****         &saw_8_gain_,
  97:eurorack/plaits/dsp/oscillator/string_synth_oscillator.h ****         (registration[0] + 2.0f * registration[1]) * gain,
 541              		.loc 2 97 26 is_stmt 0 view .LVU146
 542 005c F0EE002A 		vmov.f32	s5, #2.0e+0
 543              		.loc 2 97 49 view .LVU147
 544 0060 DDED024A 		vldr.32	s9, [sp, #8]
 545              		.loc 2 97 26 view .LVU148
 546 0064 9DED017A 		vldr.32	s14, [sp, #4]
 547              	.LBB275:
 548              	.LBB269:
 549              	.LBB264:
  56:eurorack/stmlib/dsp/parameter_interpolator.h ****     increment_ = (new_value - *state) / static_cast<float>(size);
 550              		.loc 8 56 39 view .LVU149
 551 0068 07EE906A 		vmov	s15, r6	@ int
 552              	.LBE264:
 553              	.LBE269:
 554              	.LBE275:
 555              	.LBB276:
 556              	.LBB277:
 557              	.LBB278:
  55:eurorack/stmlib/dsp/parameter_interpolator.h ****     value_ = *state;
 558              		.loc 8 55 14 view .LVU150
 559 006c 94ED045A 		vldr.32	s10, [r4, #16]
 560              	.LBE278:
 561              	.LBE277:
 562              	.LBE276:
 563              		.loc 2 97 26 view .LVU151
 564 0070 A4EEA27A 		vfma.f32	s14, s9, s5
 565              	.LBB285:
 566              	.LBB270:
 567              	.LBB265:
  55:eurorack/stmlib/dsp/parameter_interpolator.h ****     value_ = *state;
 568              		.loc 8 55 14 view .LVU152
 569 0074 D4ED035A 		vldr.32	s11, [r4, #12]
 570              	.LVL33:
 571              		.loc 8 56 5 is_stmt 1 view .LVU153
 572              	.LBE265:
 573              	.LBE270:
 574              	.LBE285:
 575              	.LBB286:
 576              	.LBB282:
 577              	.LBB279:
 578              		.loc 8 56 29 is_stmt 0 view .LVU154
 579 0078 F0EE456A 		vmov.f32	s13, s10
 580              	.LBE279:
 581              	.LBE282:
 582              	.LBE286:
ARM GAS  /var/folders/9s/8rp0_f2s1n31qbztm3b5_fdh0000gn/T//cczTgMG8.s 			page 37


  98:eurorack/plaits/dsp/oscillator/string_synth_oscillator.h ****         size);
  99:eurorack/plaits/dsp/oscillator/string_synth_oscillator.h ****     stmlib::ParameterInterpolator saw_4_gain_modulation(
 100:eurorack/plaits/dsp/oscillator/string_synth_oscillator.h ****         &saw_4_gain_,
 101:eurorack/plaits/dsp/oscillator/string_synth_oscillator.h ****         (registration[2] - registration[1] + 2.0f * registration[3]) * gain,
 583              		.loc 2 101 67 view .LVU155
 584 007c 9DED046A 		vldr.32	s12, [sp, #16]
 585              	.LBB287:
 586              	.LBB271:
 587              	.LBB266:
 588              		.loc 8 56 39 view .LVU156
 589 0080 F8EE677A 		vcvt.f32.u32	s15, s15
 590              	.LBE266:
 591              	.LBE271:
 592              	.LBE287:
 593              	.LBB288:
 594              	.LBB289:
 595              	.LBB290:
  55:eurorack/stmlib/dsp/parameter_interpolator.h ****     increment_ = (new_value - *state) / static_cast<float>(size);
 596              		.loc 8 55 14 view .LVU157
 597 0084 94ED064A 		vldr.32	s8, [r4, #24]
 598              	.LBE290:
 599              	.LBE289:
 600              	.LBE288:
 601              	.LBB297:
 602              	.LBB272:
 603              	.LBB267:
 604              		.loc 8 56 29 view .LVU158
 605 0088 39EE650A 		vsub.f32	s0, s18, s11
 606              	.LBE267:
 607              	.LBE272:
 608              	.LBE297:
 609              	.LBB298:
 610              	.LBB299:
 611              	.LBB300:
  55:eurorack/stmlib/dsp/parameter_interpolator.h ****     increment_ = (new_value - *state) / static_cast<float>(size);
 612              		.loc 8 55 14 view .LVU159
 613 008c D4ED073A 		vldr.32	s7, [r4, #28]
 614              	.LBE300:
 615              	.LBE299:
 616              	.LBE298:
 102:eurorack/plaits/dsp/oscillator/string_synth_oscillator.h ****         size);
 103:eurorack/plaits/dsp/oscillator/string_synth_oscillator.h ****     stmlib::ParameterInterpolator saw_2_gain_modulation(
 104:eurorack/plaits/dsp/oscillator/string_synth_oscillator.h ****         &saw_2_gain_,
 105:eurorack/plaits/dsp/oscillator/string_synth_oscillator.h ****         (registration[4] - registration[3] + 2.0f * registration[5]) * gain,
 106:eurorack/plaits/dsp/oscillator/string_synth_oscillator.h ****         size);
 107:eurorack/plaits/dsp/oscillator/string_synth_oscillator.h ****     stmlib::ParameterInterpolator saw_1_gain_modulation(
 108:eurorack/plaits/dsp/oscillator/string_synth_oscillator.h ****         &saw_1_gain_,
 109:eurorack/plaits/dsp/oscillator/string_synth_oscillator.h ****         (registration[6] - registration[5]) * gain,
 110:eurorack/plaits/dsp/oscillator/string_synth_oscillator.h ****         size);
 111:eurorack/plaits/dsp/oscillator/string_synth_oscillator.h ****     
 112:eurorack/plaits/dsp/oscillator/string_synth_oscillator.h ****     float phase = phase_;
 113:eurorack/plaits/dsp/oscillator/string_synth_oscillator.h ****     float next_sample = next_sample_;
 617              		.loc 2 113 11 view .LVU160
 618 0090 94ED013A 		vldr.32	s6, [r4, #4]
 114:eurorack/plaits/dsp/oscillator/string_synth_oscillator.h ****     int segment = segment_;
 619              		.loc 2 114 9 view .LVU161
 620 0094 A368     		ldr	r3, [r4, #8]
ARM GAS  /var/folders/9s/8rp0_f2s1n31qbztm3b5_fdh0000gn/T//cczTgMG8.s 			page 38


 621              	.LBB305:
 622              	.LBB283:
 623              	.LBB280:
 624              		.loc 8 56 29 view .LVU162
 625 0096 D7EE296A 		vfnms.f32	s13, s14, s19
 626              	.LBE280:
 627              	.LBE283:
 628              	.LBE305:
 629              	.LBB306:
 630              	.LBB273:
 631              	.LBB268:
 632              		.loc 8 56 39 view .LVU163
 633 009a 80EE279A 		vdiv.f32	s18, s0, s15
 634              	.LVL34:
 635              		.loc 8 56 39 view .LVU164
 636              	.LBE268:
 637              	.LBE273:
 638              	.LBE306:
  95:eurorack/plaits/dsp/oscillator/string_synth_oscillator.h ****         &saw_8_gain_,
 639              		.loc 2 95 5 is_stmt 1 view .LVU165
 640              	.LBB307:
 641              	.LBI276:
  39:eurorack/stmlib/dsp/parameter_interpolator.h ****     Init(state, new_value, size);
 642              		.loc 8 39 3 view .LVU166
 643              	.LBE307:
  40:eurorack/stmlib/dsp/parameter_interpolator.h ****   }
 644              		.loc 8 40 5 view .LVU167
 645              	.LBB308:
 646              	.LBB284:
 647              	.LBI277:
  53:eurorack/stmlib/dsp/parameter_interpolator.h ****     state_ = state;
 648              		.loc 8 53 15 view .LVU168
 649              	.LBB281:
  54:eurorack/stmlib/dsp/parameter_interpolator.h ****     value_ = *state;
 650              		.loc 8 54 5 view .LVU169
  55:eurorack/stmlib/dsp/parameter_interpolator.h ****     increment_ = (new_value - *state) / static_cast<float>(size);
 651              		.loc 8 55 5 view .LVU170
 652              		.loc 8 56 5 view .LVU171
 653              		.loc 8 56 39 is_stmt 0 view .LVU172
 654 009e 86EEA70A 		vdiv.f32	s0, s13, s15
 655              	.LVL35:
 656              		.loc 8 56 39 view .LVU173
 657              	.LBE281:
 658              	.LBE284:
 659              	.LBE308:
  99:eurorack/plaits/dsp/oscillator/string_synth_oscillator.h ****         &saw_4_gain_,
 660              		.loc 2 99 5 is_stmt 1 view .LVU174
 101:eurorack/plaits/dsp/oscillator/string_synth_oscillator.h ****         size);
 661              		.loc 2 101 26 is_stmt 0 view .LVU175
 662 00a2 DDED036A 		vldr.32	s13, [sp, #12]
 663 00a6 76EEE46A 		vsub.f32	s13, s13, s9
 664              	.LBB309:
 665              	.LBB310:
 666              	.LBB311:
  55:eurorack/stmlib/dsp/parameter_interpolator.h ****     increment_ = (new_value - *state) / static_cast<float>(size);
 667              		.loc 8 55 14 view .LVU176
 668 00aa D4ED054A 		vldr.32	s9, [r4, #20]
ARM GAS  /var/folders/9s/8rp0_f2s1n31qbztm3b5_fdh0000gn/T//cczTgMG8.s 			page 39


 669              		.loc 8 56 29 view .LVU177
 670 00ae B0EE647A 		vmov.f32	s14, s9
 671              	.LBE311:
 672              	.LBE310:
 673              	.LBE309:
 101:eurorack/plaits/dsp/oscillator/string_synth_oscillator.h ****         size);
 674              		.loc 2 101 44 view .LVU178
 675 00b2 E6EE226A 		vfma.f32	s13, s12, s5
 676              	.LVL36:
 677              	.LBB316:
 678              	.LBI309:
  39:eurorack/stmlib/dsp/parameter_interpolator.h ****     Init(state, new_value, size);
 679              		.loc 8 39 3 is_stmt 1 view .LVU179
 680              	.LBE316:
  40:eurorack/stmlib/dsp/parameter_interpolator.h ****   }
 681              		.loc 8 40 5 view .LVU180
 682              	.LBB317:
 683              	.LBB314:
 684              	.LBI310:
  53:eurorack/stmlib/dsp/parameter_interpolator.h ****     state_ = state;
 685              		.loc 8 53 15 view .LVU181
 686              	.LBB312:
  54:eurorack/stmlib/dsp/parameter_interpolator.h ****     value_ = *state;
 687              		.loc 8 54 5 view .LVU182
  55:eurorack/stmlib/dsp/parameter_interpolator.h ****     increment_ = (new_value - *state) / static_cast<float>(size);
 688              		.loc 8 55 5 view .LVU183
 689              		.loc 8 56 5 view .LVU184
 690              		.loc 8 56 29 is_stmt 0 view .LVU185
 691 00b6 96EEA97A 		vfnms.f32	s14, s13, s19
 692              	.LBE312:
 693              	.LBE314:
 694              	.LBE317:
 105:eurorack/plaits/dsp/oscillator/string_synth_oscillator.h ****         size);
 695              		.loc 2 105 67 view .LVU186
 696 00ba DDED066A 		vldr.32	s13, [sp, #24]
 697              	.LVL37:
 698              	.LBB318:
 699              	.LBB315:
 700              	.LBB313:
 701              		.loc 8 56 39 view .LVU187
 702 00be 87EE271A 		vdiv.f32	s2, s14, s15
 703              	.LVL38:
 704              		.loc 8 56 39 view .LVU188
 705              	.LBE313:
 706              	.LBE315:
 707              	.LBE318:
 103:eurorack/plaits/dsp/oscillator/string_synth_oscillator.h ****         &saw_2_gain_,
 708              		.loc 2 103 5 is_stmt 1 view .LVU189
 105:eurorack/plaits/dsp/oscillator/string_synth_oscillator.h ****         size);
 709              		.loc 2 105 26 is_stmt 0 view .LVU190
 710 00c2 9DED057A 		vldr.32	s14, [sp, #20]
 711 00c6 37EE467A 		vsub.f32	s14, s14, s12
 712              	.LBB319:
 713              	.LBB294:
 714              	.LBB291:
 715              		.loc 8 56 29 view .LVU191
 716 00ca B0EE446A 		vmov.f32	s12, s8
ARM GAS  /var/folders/9s/8rp0_f2s1n31qbztm3b5_fdh0000gn/T//cczTgMG8.s 			page 40


 717              	.LBE291:
 718              	.LBE294:
 719              	.LBE319:
 105:eurorack/plaits/dsp/oscillator/string_synth_oscillator.h ****         size);
 720              		.loc 2 105 44 view .LVU192
 721 00ce A6EEA27A 		vfma.f32	s14, s13, s5
 722              	.LVL39:
 723              	.LBB320:
 724              	.LBI288:
  39:eurorack/stmlib/dsp/parameter_interpolator.h ****     Init(state, new_value, size);
 725              		.loc 8 39 3 is_stmt 1 view .LVU193
 726              	.LBE320:
  40:eurorack/stmlib/dsp/parameter_interpolator.h ****   }
 727              		.loc 8 40 5 view .LVU194
 728              	.LBB321:
 729              	.LBB295:
 730              	.LBI289:
  53:eurorack/stmlib/dsp/parameter_interpolator.h ****     state_ = state;
 731              		.loc 8 53 15 view .LVU195
 732              	.LBB292:
  54:eurorack/stmlib/dsp/parameter_interpolator.h ****     value_ = *state;
 733              		.loc 8 54 5 view .LVU196
  55:eurorack/stmlib/dsp/parameter_interpolator.h ****     increment_ = (new_value - *state) / static_cast<float>(size);
 734              		.loc 8 55 5 view .LVU197
 735              		.loc 8 56 5 view .LVU198
 736              		.loc 8 56 29 is_stmt 0 view .LVU199
 737 00d2 97EE296A 		vfnms.f32	s12, s14, s19
 738              	.LBE292:
 739              	.LBE295:
 740              	.LBE321:
 109:eurorack/plaits/dsp/oscillator/string_synth_oscillator.h ****         size);
 741              		.loc 2 109 26 view .LVU200
 742 00d6 9DED077A 		vldr.32	s14, [sp, #28]
 743              	.LVL40:
 109:eurorack/plaits/dsp/oscillator/string_synth_oscillator.h ****         size);
 744              		.loc 2 109 26 view .LVU201
 745 00da 37EE667A 		vsub.f32	s14, s14, s13
 746              	.LBB322:
 747              	.LBB303:
 748              	.LBB301:
 749              		.loc 8 56 29 view .LVU202
 750 00de F0EE636A 		vmov.f32	s13, s7
 751              	.LVL41:
 752              		.loc 8 56 29 view .LVU203
 753 00e2 D7EE296A 		vfnms.f32	s13, s14, s19
 754              	.LBE301:
 755              	.LBE303:
 756              	.LBE322:
 112:eurorack/plaits/dsp/oscillator/string_synth_oscillator.h ****     float next_sample = next_sample_;
 757              		.loc 2 112 11 view .LVU204
 758 00e6 94ED007A 		vldr.32	s14, [r4]
 759              	.LBB323:
 760              	.LBB296:
 761              	.LBB293:
 762              		.loc 8 56 39 view .LVU205
 763 00ea C6EE271A 		vdiv.f32	s3, s12, s15
 764              	.LVL42:
ARM GAS  /var/folders/9s/8rp0_f2s1n31qbztm3b5_fdh0000gn/T//cczTgMG8.s 			page 41


 765              		.loc 8 56 39 view .LVU206
 766              	.LBE293:
 767              	.LBE296:
 768              	.LBE323:
 107:eurorack/plaits/dsp/oscillator/string_synth_oscillator.h ****         &saw_1_gain_,
 769              		.loc 2 107 5 is_stmt 1 view .LVU207
 770              	.LBB324:
 771              	.LBI298:
  39:eurorack/stmlib/dsp/parameter_interpolator.h ****     Init(state, new_value, size);
 772              		.loc 8 39 3 view .LVU208
 773              	.LBE324:
  40:eurorack/stmlib/dsp/parameter_interpolator.h ****   }
 774              		.loc 8 40 5 view .LVU209
 775              	.LBB325:
 776              	.LBB304:
 777              	.LBI299:
  53:eurorack/stmlib/dsp/parameter_interpolator.h ****     state_ = state;
 778              		.loc 8 53 15 view .LVU210
 779              	.LBB302:
  54:eurorack/stmlib/dsp/parameter_interpolator.h ****     value_ = *state;
 780              		.loc 8 54 5 view .LVU211
  55:eurorack/stmlib/dsp/parameter_interpolator.h ****     increment_ = (new_value - *state) / static_cast<float>(size);
 781              		.loc 8 55 5 view .LVU212
 782              		.loc 8 56 5 view .LVU213
 783              		.loc 8 56 39 is_stmt 0 view .LVU214
 784 00ee 86EEA72A 		vdiv.f32	s4, s13, s15
 785              	.LVL43:
 786              		.loc 8 56 39 view .LVU215
 787              	.LBE302:
 788              	.LBE304:
 789              	.LBE325:
 112:eurorack/plaits/dsp/oscillator/string_synth_oscillator.h ****     float next_sample = next_sample_;
 790              		.loc 2 112 5 is_stmt 1 view .LVU216
 113:eurorack/plaits/dsp/oscillator/string_synth_oscillator.h ****     int segment = segment_;
 791              		.loc 2 113 5 view .LVU217
 792              		.loc 2 114 5 view .LVU218
 793              	.L31:
 115:eurorack/plaits/dsp/oscillator/string_synth_oscillator.h ****     while (size--) {
 794              		.loc 2 115 5 view .LVU219
 795              		.loc 2 115 16 view .LVU220
 796 00f2 013E     		subs	r6, r6, #1
 797              	.LVL44:
 798              		.loc 2 115 16 is_stmt 0 view .LVU221
 799 00f4 C0F08880 		bcc	.L25
 800              	.LBB326:
 116:eurorack/plaits/dsp/oscillator/string_synth_oscillator.h ****       float this_sample = next_sample;
 801              		.loc 2 116 7 is_stmt 1 view .LVU222
 802              	.LVL45:
 117:eurorack/plaits/dsp/oscillator/string_synth_oscillator.h ****       next_sample = 0.0f;
 803              		.loc 2 117 7 view .LVU223
 118:eurorack/plaits/dsp/oscillator/string_synth_oscillator.h ****   
 119:eurorack/plaits/dsp/oscillator/string_synth_oscillator.h ****       const float frequency = fm.Next();
 804              		.loc 2 119 7 view .LVU224
 805              	.LBB327:
 806              	.LBI327:
  57:eurorack/stmlib/dsp/parameter_interpolator.h ****   }
  58:eurorack/stmlib/dsp/parameter_interpolator.h **** 
ARM GAS  /var/folders/9s/8rp0_f2s1n31qbztm3b5_fdh0000gn/T//cczTgMG8.s 			page 42


  59:eurorack/stmlib/dsp/parameter_interpolator.h ****   inline float Next() {
 807              		.loc 8 59 16 view .LVU225
 808              	.LBB328:
  60:eurorack/stmlib/dsp/parameter_interpolator.h ****     value_ += increment_;
 809              		.loc 8 60 5 view .LVU226
 810              		.loc 8 60 12 is_stmt 0 view .LVU227
 811 00f8 75EE895A 		vadd.f32	s11, s11, s18
 812              	.LVL46:
  61:eurorack/stmlib/dsp/parameter_interpolator.h ****     return value_;
 813              		.loc 8 61 5 is_stmt 1 view .LVU228
 814              		.loc 8 61 5 is_stmt 0 view .LVU229
 815              	.LBE328:
 816              	.LBE327:
 120:eurorack/plaits/dsp/oscillator/string_synth_oscillator.h ****       const float saw_8_gain = saw_8_gain_modulation.Next();
 817              		.loc 2 120 7 is_stmt 1 view .LVU230
 818              	.LBB329:
 819              	.LBI329:
  59:eurorack/stmlib/dsp/parameter_interpolator.h ****     value_ += increment_;
 820              		.loc 8 59 16 view .LVU231
 821              	.LBB330:
  60:eurorack/stmlib/dsp/parameter_interpolator.h ****     return value_;
 822              		.loc 8 60 5 view .LVU232
  60:eurorack/stmlib/dsp/parameter_interpolator.h ****     return value_;
 823              		.loc 8 60 12 is_stmt 0 view .LVU233
 824 00fc 35EE005A 		vadd.f32	s10, s10, s0
 825              	.LVL47:
 826              		.loc 8 61 5 is_stmt 1 view .LVU234
 827              		.loc 8 61 5 is_stmt 0 view .LVU235
 828              	.LBE330:
 829              	.LBE329:
 121:eurorack/plaits/dsp/oscillator/string_synth_oscillator.h ****       const float saw_4_gain = saw_4_gain_modulation.Next();
 830              		.loc 2 121 7 is_stmt 1 view .LVU236
 831              	.LBB331:
 832              	.LBI331:
  59:eurorack/stmlib/dsp/parameter_interpolator.h ****     value_ += increment_;
 833              		.loc 8 59 16 view .LVU237
 834              	.LBB332:
  60:eurorack/stmlib/dsp/parameter_interpolator.h ****     return value_;
 835              		.loc 8 60 5 view .LVU238
  60:eurorack/stmlib/dsp/parameter_interpolator.h ****     return value_;
 836              		.loc 8 60 12 is_stmt 0 view .LVU239
 837 0100 74EE814A 		vadd.f32	s9, s9, s2
 838              	.LVL48:
 839              		.loc 8 61 5 is_stmt 1 view .LVU240
 840              		.loc 8 61 5 is_stmt 0 view .LVU241
 841              	.LBE332:
 842              	.LBE331:
 122:eurorack/plaits/dsp/oscillator/string_synth_oscillator.h ****       const float saw_2_gain = saw_2_gain_modulation.Next();
 843              		.loc 2 122 7 is_stmt 1 view .LVU242
 844              	.LBB333:
 845              	.LBI333:
  59:eurorack/stmlib/dsp/parameter_interpolator.h ****     value_ += increment_;
 846              		.loc 8 59 16 view .LVU243
 847              	.LBB334:
  60:eurorack/stmlib/dsp/parameter_interpolator.h ****     return value_;
 848              		.loc 8 60 5 view .LVU244
 849              	.LBE334:
ARM GAS  /var/folders/9s/8rp0_f2s1n31qbztm3b5_fdh0000gn/T//cczTgMG8.s 			page 43


 850              	.LBE333:
 123:eurorack/plaits/dsp/oscillator/string_synth_oscillator.h ****       const float saw_1_gain = saw_1_gain_modulation.Next();
 124:eurorack/plaits/dsp/oscillator/string_synth_oscillator.h **** 
 125:eurorack/plaits/dsp/oscillator/string_synth_oscillator.h ****       phase += frequency;
 851              		.loc 2 125 13 is_stmt 0 view .LVU245
 852 0104 37EE257A 		vadd.f32	s14, s14, s11
 853              	.LVL49:
 854              	.LBB336:
 855              	.LBB335:
  60:eurorack/stmlib/dsp/parameter_interpolator.h ****     return value_;
 856              		.loc 8 60 12 view .LVU246
 857 0108 34EE214A 		vadd.f32	s8, s8, s3
 858              	.LVL50:
 859              		.loc 8 61 5 is_stmt 1 view .LVU247
 860              		.loc 8 61 5 is_stmt 0 view .LVU248
 861              	.LBE335:
 862              	.LBE336:
 123:eurorack/plaits/dsp/oscillator/string_synth_oscillator.h ****       const float saw_1_gain = saw_1_gain_modulation.Next();
 863              		.loc 2 123 7 is_stmt 1 view .LVU249
 864              	.LBB337:
 865              	.LBI337:
  59:eurorack/stmlib/dsp/parameter_interpolator.h ****     value_ += increment_;
 866              		.loc 8 59 16 view .LVU250
 867              	.LBB338:
  60:eurorack/stmlib/dsp/parameter_interpolator.h ****     return value_;
 868              		.loc 8 60 5 view .LVU251
  60:eurorack/stmlib/dsp/parameter_interpolator.h ****     return value_;
 869              		.loc 8 60 12 is_stmt 0 view .LVU252
 870 010c 73EE823A 		vadd.f32	s7, s7, s4
 871              	.LVL51:
 872              		.loc 8 61 5 is_stmt 1 view .LVU253
 873              		.loc 8 61 5 is_stmt 0 view .LVU254
 874              	.LBE338:
 875              	.LBE337:
 876              		.loc 2 125 7 is_stmt 1 view .LVU255
 126:eurorack/plaits/dsp/oscillator/string_synth_oscillator.h ****       int next_segment = static_cast<int>(phase);
 877              		.loc 2 126 7 view .LVU256
 878              		.loc 2 126 11 is_stmt 0 view .LVU257
 879 0110 FDEEC77A 		vcvt.s32.f32	s15, s14
 880 0114 F7EE000A 		vmov.f32	s1, #1.0e+0
 881 0118 17EE901A 		vmov	r1, s15	@ int
 882              	.LVL52:
 127:eurorack/plaits/dsp/oscillator/string_synth_oscillator.h ****       if (next_segment != segment) {
 883              		.loc 2 127 7 is_stmt 1 view .LVU258
 884 011c DFED447A 		vldr.32	s15, .L41
 885              	.LBB339:
 886 0120 8B42     		cmp	r3, r1
 887 0122 30D0     		beq	.L26
 888              	.LBB340:
 128:eurorack/plaits/dsp/oscillator/string_synth_oscillator.h ****         float discontinuity = 0.0f;
 889              		.loc 2 128 9 view .LVU259
 890              	.LVL53:
 129:eurorack/plaits/dsp/oscillator/string_synth_oscillator.h ****         if (next_segment == 8) {
 891              		.loc 2 129 9 view .LVU260
 892 0124 0829     		cmp	r1, #8
 893 0126 07D1     		bne	.L27
 130:eurorack/plaits/dsp/oscillator/string_synth_oscillator.h ****           phase -= 8.0f;
ARM GAS  /var/folders/9s/8rp0_f2s1n31qbztm3b5_fdh0000gn/T//cczTgMG8.s 			page 44


 894              		.loc 2 130 11 view .LVU261
 895              		.loc 2 130 17 is_stmt 0 view .LVU262
 896 0128 37EE487A 		vsub.f32	s14, s14, s16
 897              	.LVL54:
 131:eurorack/plaits/dsp/oscillator/string_synth_oscillator.h ****           next_segment -= 8;
 898              		.loc 2 131 11 is_stmt 1 view .LVU263
 132:eurorack/plaits/dsp/oscillator/string_synth_oscillator.h ****           discontinuity -= saw_8_gain;
 899              		.loc 2 132 11 view .LVU264
 131:eurorack/plaits/dsp/oscillator/string_synth_oscillator.h ****           next_segment -= 8;
 900              		.loc 2 131 24 is_stmt 0 view .LVU265
 901 012c 0021     		movs	r1, #0
 902              		.loc 2 132 25 view .LVU266
 903 012e 77EEC56A 		vsub.f32	s13, s15, s10
 904              	.LVL55:
 133:eurorack/plaits/dsp/oscillator/string_synth_oscillator.h ****         }
 134:eurorack/plaits/dsp/oscillator/string_synth_oscillator.h ****         if ((next_segment & 3) == 0) {
 905              		.loc 2 134 9 is_stmt 1 view .LVU267
 906              	.L28:
 135:eurorack/plaits/dsp/oscillator/string_synth_oscillator.h ****           discontinuity -= saw_4_gain;
 907              		.loc 2 135 11 view .LVU268
 908              		.loc 2 135 25 is_stmt 0 view .LVU269
 909 0132 76EEE46A 		vsub.f32	s13, s13, s9
 910              	.LVL56:
 911              		.loc 2 135 25 view .LVU270
 912 0136 03E0     		b	.L29
 913              	.LVL57:
 914              	.L27:
 134:eurorack/plaits/dsp/oscillator/string_synth_oscillator.h ****           discontinuity -= saw_4_gain;
 915              		.loc 2 134 9 is_stmt 1 view .LVU271
 916 0138 8A07     		lsls	r2, r1, #30
 128:eurorack/plaits/dsp/oscillator/string_synth_oscillator.h ****         if (next_segment == 8) {
 917              		.loc 2 128 15 is_stmt 0 view .LVU272
 918 013a F0EE676A 		vmov.f32	s13, s15
 134:eurorack/plaits/dsp/oscillator/string_synth_oscillator.h ****           discontinuity -= saw_4_gain;
 919              		.loc 2 134 9 view .LVU273
 920 013e F8D0     		beq	.L28
 921              	.LVL58:
 922              	.L29:
 136:eurorack/plaits/dsp/oscillator/string_synth_oscillator.h ****         }
 137:eurorack/plaits/dsp/oscillator/string_synth_oscillator.h ****         if ((next_segment & 1) == 0) {
 923              		.loc 2 137 9 is_stmt 1 view .LVU274
 924 0140 CB07     		lsls	r3, r1, #31
 925              	.LVL59:
 138:eurorack/plaits/dsp/oscillator/string_synth_oscillator.h ****           discontinuity -= saw_2_gain;
 926              		.loc 2 138 11 view .LVU275
 927              		.loc 2 138 25 is_stmt 0 view .LVU276
 928 0142 58BF     		it	pl
 929 0144 76EEC46A 		vsubpl.f32	s13, s13, s8
 930              	.LVL60:
 139:eurorack/plaits/dsp/oscillator/string_synth_oscillator.h ****         }
 140:eurorack/plaits/dsp/oscillator/string_synth_oscillator.h ****         discontinuity -= saw_1_gain;
 931              		.loc 2 140 9 is_stmt 1 view .LVU277
 932              		.loc 2 140 23 is_stmt 0 view .LVU278
 933 0148 76EEE36A 		vsub.f32	s13, s13, s7
 934              	.LVL61:
 141:eurorack/plaits/dsp/oscillator/string_synth_oscillator.h ****         if (discontinuity != 0.0f) {
 935              		.loc 2 141 9 is_stmt 1 view .LVU279
ARM GAS  /var/folders/9s/8rp0_f2s1n31qbztm3b5_fdh0000gn/T//cczTgMG8.s 			page 45


 936              	.LBB341:
 937 014c F5EE406A 		vcmp.f32	s13, #0
 938 0150 F1EE10FA 		vmrs	APSR_nzcv, FPSCR
 939 0154 55D0     		beq	.L34
 940              	.LBB342:
 142:eurorack/plaits/dsp/oscillator/string_synth_oscillator.h ****           float fraction = phase - static_cast<float>(next_segment);
 941              		.loc 2 142 11 view .LVU280
 942              	.LVL62:
 143:eurorack/plaits/dsp/oscillator/string_synth_oscillator.h ****           float t = fraction / frequency;
 943              		.loc 2 143 11 view .LVU281
 142:eurorack/plaits/dsp/oscillator/string_synth_oscillator.h ****           float fraction = phase - static_cast<float>(next_segment);
 944              		.loc 2 142 36 is_stmt 0 view .LVU282
 945 0156 06EE101A 		vmov	s12, r1	@ int
 946 015a F8EEC69A 		vcvt.f32.s32	s19, s12
 142:eurorack/plaits/dsp/oscillator/string_synth_oscillator.h ****           float fraction = phase - static_cast<float>(next_segment);
 947              		.loc 2 142 17 view .LVU283
 948 015e 77EE699A 		vsub.f32	s19, s14, s19
 949              	.LVL63:
 950              		.loc 2 143 17 view .LVU284
 951 0162 89EEA56A 		vdiv.f32	s12, s19, s11
 952              	.LVL64:
 144:eurorack/plaits/dsp/oscillator/string_synth_oscillator.h ****           this_sample += stmlib::ThisBlepSample(t) * discontinuity;
 953              		.loc 2 144 11 is_stmt 1 view .LVU285
 954              	.LBB343:
 955              	.LBI343:
 956              		.file 9 "eurorack/stmlib/dsp/polyblep.h"
   1:eurorack/stmlib/dsp/polyblep.h **** // Copyright 2017 Emilie Gillet.
   2:eurorack/stmlib/dsp/polyblep.h **** //
   3:eurorack/stmlib/dsp/polyblep.h **** // Author: Emilie Gillet (emilie.o.gillet@gmail.com)
   4:eurorack/stmlib/dsp/polyblep.h **** //
   5:eurorack/stmlib/dsp/polyblep.h **** // Permission is hereby granted, free of charge, to any person obtaining a copy
   6:eurorack/stmlib/dsp/polyblep.h **** // of this software and associated documentation files (the "Software"), to deal
   7:eurorack/stmlib/dsp/polyblep.h **** // in the Software without restriction, including without limitation the rights
   8:eurorack/stmlib/dsp/polyblep.h **** // to use, copy, modify, merge, publish, distribute, sublicense, and/or sell
   9:eurorack/stmlib/dsp/polyblep.h **** // copies of the Software, and to permit persons to whom the Software is
  10:eurorack/stmlib/dsp/polyblep.h **** // furnished to do so, subject to the following conditions:
  11:eurorack/stmlib/dsp/polyblep.h **** // 
  12:eurorack/stmlib/dsp/polyblep.h **** // The above copyright notice and this permission notice shall be included in
  13:eurorack/stmlib/dsp/polyblep.h **** // all copies or substantial portions of the Software.
  14:eurorack/stmlib/dsp/polyblep.h **** // 
  15:eurorack/stmlib/dsp/polyblep.h **** // THE SOFTWARE IS PROVIDED "AS IS", WITHOUT WARRANTY OF ANY KIND, EXPRESS OR
  16:eurorack/stmlib/dsp/polyblep.h **** // IMPLIED, INCLUDING BUT NOT LIMITED TO THE WARRANTIES OF MERCHANTABILITY,
  17:eurorack/stmlib/dsp/polyblep.h **** // FITNESS FOR A PARTICULAR PURPOSE AND NONINFRINGEMENT. IN NO EVENT SHALL THE
  18:eurorack/stmlib/dsp/polyblep.h **** // AUTHORS OR COPYRIGHT HOLDERS BE LIABLE FOR ANY CLAIM, DAMAGES OR OTHER
  19:eurorack/stmlib/dsp/polyblep.h **** // LIABILITY, WHETHER IN AN ACTION OF CONTRACT, TORT OR OTHERWISE, ARISING FROM,
  20:eurorack/stmlib/dsp/polyblep.h **** // OUT OF OR IN CONNECTION WITH THE SOFTWARE OR THE USE OR OTHER DEALINGS IN
  21:eurorack/stmlib/dsp/polyblep.h **** // THE SOFTWARE.
  22:eurorack/stmlib/dsp/polyblep.h **** // 
  23:eurorack/stmlib/dsp/polyblep.h **** // See http://creativecommons.org/licenses/MIT/ for more information.
  24:eurorack/stmlib/dsp/polyblep.h **** //
  25:eurorack/stmlib/dsp/polyblep.h **** // -----------------------------------------------------------------------------
  26:eurorack/stmlib/dsp/polyblep.h **** //
  27:eurorack/stmlib/dsp/polyblep.h **** // Polynomial approximation of band-limited step for band-limited waveform
  28:eurorack/stmlib/dsp/polyblep.h **** // synthesis.
  29:eurorack/stmlib/dsp/polyblep.h **** 
  30:eurorack/stmlib/dsp/polyblep.h **** #ifndef STMLIB_DSP_POLYBLEP_H_
  31:eurorack/stmlib/dsp/polyblep.h **** #define STMLIB_DSP_POLYBLEP_H_
ARM GAS  /var/folders/9s/8rp0_f2s1n31qbztm3b5_fdh0000gn/T//cczTgMG8.s 			page 46


  32:eurorack/stmlib/dsp/polyblep.h **** 
  33:eurorack/stmlib/dsp/polyblep.h **** #include "stmlib/stmlib.h"
  34:eurorack/stmlib/dsp/polyblep.h **** 
  35:eurorack/stmlib/dsp/polyblep.h **** namespace stmlib {
  36:eurorack/stmlib/dsp/polyblep.h **** 
  37:eurorack/stmlib/dsp/polyblep.h **** inline float ThisBlepSample(float t) {
 957              		.loc 9 37 14 view .LVU286
 958              	.LBB344:
  38:eurorack/stmlib/dsp/polyblep.h ****   return 0.5f * t * t;
 959              		.loc 9 38 3 view .LVU287
 960              		.loc 9 38 15 is_stmt 0 view .LVU288
 961 0166 66EE289A 		vmul.f32	s19, s12, s17
 962              	.LVL65:
 963              		.loc 9 38 21 view .LVU289
 964 016a 69EE869A 		vmul.f32	s19, s19, s12
 965              	.LBE344:
 966              	.LBE343:
 967              	.LBB345:
 968              	.LBB346:
  39:eurorack/stmlib/dsp/polyblep.h **** }
  40:eurorack/stmlib/dsp/polyblep.h **** 
  41:eurorack/stmlib/dsp/polyblep.h **** inline float NextBlepSample(float t) {
  42:eurorack/stmlib/dsp/polyblep.h ****   t = 1.0f - t;
 969              		.loc 9 42 5 view .LVU290
 970 016e 30EEC66A 		vsub.f32	s12, s1, s12
 971              	.LVL66:
 972              		.loc 9 42 5 view .LVU291
 973              	.LBE346:
 974              	.LBE345:
 975              		.loc 2 144 23 view .LVU292
 976 0172 A6EEA93A 		vfma.f32	s6, s13, s19
 977              	.LVL67:
 145:eurorack/plaits/dsp/oscillator/string_synth_oscillator.h ****           next_sample += stmlib::NextBlepSample(t) * discontinuity;
 978              		.loc 2 145 11 is_stmt 1 view .LVU293
 979              	.LBB348:
 980              	.LBI345:
  41:eurorack/stmlib/dsp/polyblep.h ****   t = 1.0f - t;
 981              		.loc 9 41 14 view .LVU294
 982              	.LBB347:
 983              		.loc 9 42 3 view .LVU295
  43:eurorack/stmlib/dsp/polyblep.h ****   return -0.5f * t * t;
 984              		.loc 9 43 3 view .LVU296
 985              		.loc 9 43 16 is_stmt 0 view .LVU297
 986 0176 FEEE009A 		vmov.f32	s19, #-5.0e-1
 987 017a 66EE299A 		vmul.f32	s19, s12, s19
 988              		.loc 9 43 22 view .LVU298
 989 017e 29EE866A 		vmul.f32	s12, s19, s12
 990              	.LBE347:
 991              	.LBE348:
 992              		.loc 2 145 23 view .LVU299
 993 0182 E6EE867A 		vfma.f32	s15, s13, s12
 994              	.LVL68:
 995              	.L26:
 996              		.loc 2 145 23 view .LVU300
 997              	.LBE342:
 998              	.LBE341:
 999              	.LBE340:
ARM GAS  /var/folders/9s/8rp0_f2s1n31qbztm3b5_fdh0000gn/T//cczTgMG8.s 			page 47


 1000              	.LBE339:
 146:eurorack/plaits/dsp/oscillator/string_synth_oscillator.h ****         }
 147:eurorack/plaits/dsp/oscillator/string_synth_oscillator.h ****       }
 148:eurorack/plaits/dsp/oscillator/string_synth_oscillator.h ****       segment = next_segment;
 1001              		.loc 2 148 7 is_stmt 1 view .LVU301
 149:eurorack/plaits/dsp/oscillator/string_synth_oscillator.h ****       
 150:eurorack/plaits/dsp/oscillator/string_synth_oscillator.h ****       next_sample += (phase - 4.0f) * saw_8_gain * 0.125f;
 1002              		.loc 2 150 7 view .LVU302
 1003              		.loc 2 150 29 is_stmt 0 view .LVU303
 1004 0186 F1EE006A 		vmov.f32	s13, #4.0e+0
 151:eurorack/plaits/dsp/oscillator/string_synth_oscillator.h ****       next_sample += (phase - float(segment & 4) - 2.0f) * saw_4_gain * 0.25f;
 1005              		.loc 2 151 45 view .LVU304
 1006 018a 01F00403 		and	r3, r1, #4
 150:eurorack/plaits/dsp/oscillator/string_synth_oscillator.h ****       next_sample += (phase - float(segment & 4) - 2.0f) * saw_4_gain * 0.25f;
 1007              		.loc 2 150 19 view .LVU305
 1008 018e B4EE006A 		vmov.f32	s12, #1.25e-1
 150:eurorack/plaits/dsp/oscillator/string_synth_oscillator.h ****       next_sample += (phase - float(segment & 4) - 2.0f) * saw_4_gain * 0.25f;
 1009              		.loc 2 150 29 view .LVU306
 1010 0192 77EE666A 		vsub.f32	s13, s14, s13
 150:eurorack/plaits/dsp/oscillator/string_synth_oscillator.h ****       next_sample += (phase - float(segment & 4) - 2.0f) * saw_4_gain * 0.25f;
 1011              		.loc 2 150 37 view .LVU307
 1012 0196 66EE856A 		vmul.f32	s13, s13, s10
 150:eurorack/plaits/dsp/oscillator/string_synth_oscillator.h ****       next_sample += (phase - float(segment & 4) - 2.0f) * saw_4_gain * 0.25f;
 1013              		.loc 2 150 19 view .LVU308
 1014 019a E6EE867A 		vfma.f32	s15, s13, s12
 1015              	.LVL69:
 1016              		.loc 2 151 7 is_stmt 1 view .LVU309
 1017              		.loc 2 151 45 is_stmt 0 view .LVU310
 1018 019e 06EE103A 		vmov	s12, r3	@ int
 1019              		.loc 2 151 19 view .LVU311
 1020 01a2 F5EE006A 		vmov.f32	s13, #2.5e-1
 152:eurorack/plaits/dsp/oscillator/string_synth_oscillator.h ****       next_sample += (phase - float(segment & 6) - 1.0f) * saw_2_gain * 0.5f;
 1021              		.loc 2 152 45 view .LVU312
 1022 01a6 01F00603 		and	r3, r1, #6
 151:eurorack/plaits/dsp/oscillator/string_synth_oscillator.h ****       next_sample += (phase - float(segment & 4) - 2.0f) * saw_4_gain * 0.25f;
 1023              		.loc 2 151 31 view .LVU313
 1024 01aa B8EEC66A 		vcvt.f32.s32	s12, s12
 151:eurorack/plaits/dsp/oscillator/string_synth_oscillator.h ****       next_sample += (phase - float(segment & 4) - 2.0f) * saw_4_gain * 0.25f;
 1025              		.loc 2 151 29 view .LVU314
 1026 01ae 37EE466A 		vsub.f32	s12, s14, s12
 151:eurorack/plaits/dsp/oscillator/string_synth_oscillator.h ****       next_sample += (phase - float(segment & 4) - 2.0f) * saw_4_gain * 0.25f;
 1027              		.loc 2 151 50 view .LVU315
 1028 01b2 36EE626A 		vsub.f32	s12, s12, s5
 151:eurorack/plaits/dsp/oscillator/string_synth_oscillator.h ****       next_sample += (phase - float(segment & 4) - 2.0f) * saw_4_gain * 0.25f;
 1029              		.loc 2 151 58 view .LVU316
 1030 01b6 26EE246A 		vmul.f32	s12, s12, s9
 151:eurorack/plaits/dsp/oscillator/string_synth_oscillator.h ****       next_sample += (phase - float(segment & 4) - 2.0f) * saw_4_gain * 0.25f;
 1031              		.loc 2 151 19 view .LVU317
 1032 01ba E6EE267A 		vfma.f32	s15, s12, s13
 1033              	.LVL70:
 1034              		.loc 2 152 7 is_stmt 1 view .LVU318
 1035              		.loc 2 152 45 is_stmt 0 view .LVU319
 1036 01be 06EE903A 		vmov	s13, r3	@ int
 153:eurorack/plaits/dsp/oscillator/string_synth_oscillator.h ****       next_sample += (phase - float(segment & 7) - 0.5f) * saw_1_gain;
 1037              		.loc 2 153 45 view .LVU320
 1038 01c2 01F00703 		and	r3, r1, #7
 154:eurorack/plaits/dsp/oscillator/string_synth_oscillator.h ****       *out++ += 2.0f * this_sample;
ARM GAS  /var/folders/9s/8rp0_f2s1n31qbztm3b5_fdh0000gn/T//cczTgMG8.s 			page 48


 1039              		.loc 2 154 14 view .LVU321
 1040 01c6 B7EC016A 		vldmia.32	r7!, {s12}
 1041              	.LVL71:
 152:eurorack/plaits/dsp/oscillator/string_synth_oscillator.h ****       next_sample += (phase - float(segment & 6) - 1.0f) * saw_2_gain * 0.5f;
 1042              		.loc 2 152 31 view .LVU322
 1043 01ca F8EEE66A 		vcvt.f32.s32	s13, s13
 1044              		.loc 2 154 14 view .LVU323
 1045 01ce A3EE226A 		vfma.f32	s12, s6, s5
 152:eurorack/plaits/dsp/oscillator/string_synth_oscillator.h ****       next_sample += (phase - float(segment & 6) - 1.0f) * saw_2_gain * 0.5f;
 1046              		.loc 2 152 29 view .LVU324
 1047 01d2 77EE666A 		vsub.f32	s13, s14, s13
 152:eurorack/plaits/dsp/oscillator/string_synth_oscillator.h ****       next_sample += (phase - float(segment & 6) - 1.0f) * saw_2_gain * 0.5f;
 1048              		.loc 2 152 50 view .LVU325
 1049 01d6 76EEE06A 		vsub.f32	s13, s13, s1
 1050              		.loc 2 154 14 view .LVU326
 1051 01da 07ED016A 		vstr.32	s12, [r7, #-4]
 152:eurorack/plaits/dsp/oscillator/string_synth_oscillator.h ****       next_sample += (phase - float(segment & 6) - 1.0f) * saw_2_gain * 0.5f;
 1052              		.loc 2 152 58 view .LVU327
 1053 01de 66EE846A 		vmul.f32	s13, s13, s8
 152:eurorack/plaits/dsp/oscillator/string_synth_oscillator.h ****       next_sample += (phase - float(segment & 6) - 1.0f) * saw_2_gain * 0.5f;
 1054              		.loc 2 152 19 view .LVU328
 1055 01e2 E6EEA87A 		vfma.f32	s15, s13, s17
 1056              	.LVL72:
 153:eurorack/plaits/dsp/oscillator/string_synth_oscillator.h ****       next_sample += (phase - float(segment & 7) - 0.5f) * saw_1_gain;
 1057              		.loc 2 153 7 is_stmt 1 view .LVU329
 153:eurorack/plaits/dsp/oscillator/string_synth_oscillator.h ****       next_sample += (phase - float(segment & 7) - 0.5f) * saw_1_gain;
 1058              		.loc 2 153 45 is_stmt 0 view .LVU330
 1059 01e6 06EE903A 		vmov	s13, r3	@ int
 148:eurorack/plaits/dsp/oscillator/string_synth_oscillator.h ****       
 1060              		.loc 2 148 15 view .LVU331
 1061 01ea 0B46     		mov	r3, r1
 153:eurorack/plaits/dsp/oscillator/string_synth_oscillator.h ****       next_sample += (phase - float(segment & 7) - 0.5f) * saw_1_gain;
 1062              		.loc 2 153 31 view .LVU332
 1063 01ec F8EEE66A 		vcvt.f32.s32	s13, s13
 153:eurorack/plaits/dsp/oscillator/string_synth_oscillator.h ****       next_sample += (phase - float(segment & 7) - 0.5f) * saw_1_gain;
 1064              		.loc 2 153 29 view .LVU333
 1065 01f0 77EE666A 		vsub.f32	s13, s14, s13
 153:eurorack/plaits/dsp/oscillator/string_synth_oscillator.h ****       next_sample += (phase - float(segment & 7) - 0.5f) * saw_1_gain;
 1066              		.loc 2 153 50 view .LVU334
 1067 01f4 76EEE86A 		vsub.f32	s13, s13, s17
 1068              	.LVL73:
 1069              		.loc 2 154 7 is_stmt 1 view .LVU335
 153:eurorack/plaits/dsp/oscillator/string_synth_oscillator.h ****       next_sample += (phase - float(segment & 7) - 0.5f) * saw_1_gain;
 1070              		.loc 2 153 19 is_stmt 0 view .LVU336
 1071 01f8 E6EEA37A 		vfma.f32	s15, s13, s7
 1072              	.LVL74:
 153:eurorack/plaits/dsp/oscillator/string_synth_oscillator.h ****       next_sample += (phase - float(segment & 7) - 0.5f) * saw_1_gain;
 1073              		.loc 2 153 19 view .LVU337
 1074 01fc B0EE673A 		vmov.f32	s6, s15
 1075              	.LVL75:
 153:eurorack/plaits/dsp/oscillator/string_synth_oscillator.h ****       next_sample += (phase - float(segment & 7) - 0.5f) * saw_1_gain;
 1076              		.loc 2 153 19 view .LVU338
 1077              	.LBE326:
 115:eurorack/plaits/dsp/oscillator/string_synth_oscillator.h ****       float this_sample = next_sample;
 1078              		.loc 2 115 5 view .LVU339
 1079 0200 77E7     		b	.L31
 1080              	.LVL76:
ARM GAS  /var/folders/9s/8rp0_f2s1n31qbztm3b5_fdh0000gn/T//cczTgMG8.s 			page 49


 1081              	.L34:
 1082              	.LBB349:
 117:eurorack/plaits/dsp/oscillator/string_synth_oscillator.h ****   
 1083              		.loc 2 117 19 view .LVU340
 1084 0202 DFED0B7A 		vldr.32	s15, .L41
 1085 0206 BEE7     		b	.L26
 1086              	.LVL77:
 1087              	.L25:
 117:eurorack/plaits/dsp/oscillator/string_synth_oscillator.h ****   
 1088              		.loc 2 117 19 view .LVU341
 1089              	.LBE349:
 155:eurorack/plaits/dsp/oscillator/string_synth_oscillator.h ****     }
 156:eurorack/plaits/dsp/oscillator/string_synth_oscillator.h ****     next_sample_ = next_sample;
 1090              		.loc 2 156 5 is_stmt 1 view .LVU342
 1091              		.loc 2 156 18 is_stmt 0 view .LVU343
 1092 0208 84ED013A 		vstr.32	s6, [r4, #4]
 157:eurorack/plaits/dsp/oscillator/string_synth_oscillator.h ****     phase_ = phase;
 1093              		.loc 2 157 5 is_stmt 1 view .LVU344
 1094              		.loc 2 157 12 is_stmt 0 view .LVU345
 1095 020c 84ED007A 		vstr.32	s14, [r4]
 158:eurorack/plaits/dsp/oscillator/string_synth_oscillator.h ****     segment_ = segment;
 1096              		.loc 2 158 5 is_stmt 1 view .LVU346
 1097              		.loc 2 158 14 is_stmt 0 view .LVU347
 1098 0210 A360     		str	r3, [r4, #8]
 1099              	.LVL78:
 1100              	.LBB350:
 1101              	.LBI350:
  49:eurorack/stmlib/dsp/parameter_interpolator.h ****     *state_ = value_;
 1102              		.loc 8 49 3 is_stmt 1 view .LVU348
 1103              	.LBB351:
  50:eurorack/stmlib/dsp/parameter_interpolator.h ****   }
 1104              		.loc 8 50 5 view .LVU349
  50:eurorack/stmlib/dsp/parameter_interpolator.h ****   }
 1105              		.loc 8 50 13 is_stmt 0 view .LVU350
 1106 0212 C4ED073A 		vstr.32	s7, [r4, #28]
 1107              	.LVL79:
  50:eurorack/stmlib/dsp/parameter_interpolator.h ****   }
 1108              		.loc 8 50 13 view .LVU351
 1109              	.LBE351:
 1110              	.LBE350:
 1111              	.LBB352:
 1112              	.LBI352:
  49:eurorack/stmlib/dsp/parameter_interpolator.h ****     *state_ = value_;
 1113              		.loc 8 49 3 is_stmt 1 view .LVU352
 1114              	.LBB353:
  50:eurorack/stmlib/dsp/parameter_interpolator.h ****   }
 1115              		.loc 8 50 5 view .LVU353
  50:eurorack/stmlib/dsp/parameter_interpolator.h ****   }
 1116              		.loc 8 50 13 is_stmt 0 view .LVU354
 1117 0216 84ED064A 		vstr.32	s8, [r4, #24]
 1118              	.LVL80:
  50:eurorack/stmlib/dsp/parameter_interpolator.h ****   }
 1119              		.loc 8 50 13 view .LVU355
 1120              	.LBE353:
 1121              	.LBE352:
 1122              	.LBB354:
 1123              	.LBI354:
ARM GAS  /var/folders/9s/8rp0_f2s1n31qbztm3b5_fdh0000gn/T//cczTgMG8.s 			page 50


  49:eurorack/stmlib/dsp/parameter_interpolator.h ****     *state_ = value_;
 1124              		.loc 8 49 3 is_stmt 1 view .LVU356
 1125              	.LBB355:
  50:eurorack/stmlib/dsp/parameter_interpolator.h ****   }
 1126              		.loc 8 50 5 view .LVU357
  50:eurorack/stmlib/dsp/parameter_interpolator.h ****   }
 1127              		.loc 8 50 13 is_stmt 0 view .LVU358
 1128 021a C4ED054A 		vstr.32	s9, [r4, #20]
 1129              	.LVL81:
  50:eurorack/stmlib/dsp/parameter_interpolator.h ****   }
 1130              		.loc 8 50 13 view .LVU359
 1131              	.LBE355:
 1132              	.LBE354:
 1133              	.LBB356:
 1134              	.LBI356:
  49:eurorack/stmlib/dsp/parameter_interpolator.h ****     *state_ = value_;
 1135              		.loc 8 49 3 is_stmt 1 view .LVU360
 1136              	.LBB357:
  50:eurorack/stmlib/dsp/parameter_interpolator.h ****   }
 1137              		.loc 8 50 5 view .LVU361
  50:eurorack/stmlib/dsp/parameter_interpolator.h ****   }
 1138              		.loc 8 50 13 is_stmt 0 view .LVU362
 1139 021e 84ED045A 		vstr.32	s10, [r4, #16]
 1140              	.LVL82:
  50:eurorack/stmlib/dsp/parameter_interpolator.h ****   }
 1141              		.loc 8 50 13 view .LVU363
 1142              	.LBE357:
 1143              	.LBE356:
 1144              	.LBB358:
 1145              	.LBI358:
  49:eurorack/stmlib/dsp/parameter_interpolator.h ****     *state_ = value_;
 1146              		.loc 8 49 3 is_stmt 1 view .LVU364
 1147              	.LBB359:
  50:eurorack/stmlib/dsp/parameter_interpolator.h ****   }
 1148              		.loc 8 50 5 view .LVU365
  50:eurorack/stmlib/dsp/parameter_interpolator.h ****   }
 1149              		.loc 8 50 13 is_stmt 0 view .LVU366
 1150 0222 C4ED035A 		vstr.32	s11, [r4, #12]
 1151              	.LVL83:
 1152              	.L18:
  50:eurorack/stmlib/dsp/parameter_interpolator.h ****   }
 1153              		.loc 8 50 13 view .LVU367
 1154              	.LBE359:
 1155              	.LBE358:
 159:eurorack/plaits/dsp/oscillator/string_synth_oscillator.h ****   }
 1156              		.loc 2 159 3 view .LVU368
 1157 0226 09B0     		add	sp, sp, #36
 1158              		.cfi_def_cfa_offset 44
 1159              		@ sp needed
 1160 0228 BDEC048B 		vldm	sp!, {d8-d9}
 1161              		.cfi_restore 82
 1162              		.cfi_restore 83
 1163              		.cfi_restore 80
 1164              		.cfi_restore 81
 1165              		.cfi_def_cfa_offset 28
 1166 022c BDE8F083 		pop	{r4, r5, r6, r7, r8, r9, pc}
 1167              	.LVL84:
ARM GAS  /var/folders/9s/8rp0_f2s1n31qbztm3b5_fdh0000gn/T//cczTgMG8.s 			page 51


 1168              	.L42:
 1169              		.loc 2 159 3 view .LVU369
 1170              		.align	2
 1171              	.L41:
 1172 0230 00000000 		.word	0
 1173              		.cfi_endproc
 1174              	.LFE1474:
 1176              		.section	.text._ZN6plaits15InterpolateWaveEPKslf,"axG",%progbits,_ZN6plaits15InterpolateWaveEPKslf
 1177              		.align	1
 1178              		.weak	_ZN6plaits15InterpolateWaveEPKslf
 1179              		.syntax unified
 1180              		.thumb
 1181              		.thumb_func
 1183              	_ZN6plaits15InterpolateWaveEPKslf:
 1184              	.LVL85:
 1185              	.LFB1493:
  66:eurorack/plaits/dsp/oscillator/wavetable_oscillator.h ****   float a = static_cast<float>(table[index_integral]);
 1186              		.loc 3 66 29 is_stmt 1 view -0
 1187              		.cfi_startproc
 1188              		@ args = 0, pretend = 0, frame = 0
 1189              		@ frame_needed = 0, uses_anonymous_args = 0
 1190              		@ link register save eliminated.
  67:eurorack/plaits/dsp/oscillator/wavetable_oscillator.h ****   float b = static_cast<float>(table[index_integral + 1]);
 1191              		.loc 3 67 3 view .LVU371
  67:eurorack/plaits/dsp/oscillator/wavetable_oscillator.h ****   float b = static_cast<float>(table[index_integral + 1]);
 1192              		.loc 3 67 9 is_stmt 0 view .LVU372
 1193 0000 30F91130 		ldrsh	r3, [r0, r1, lsl #1]
  68:eurorack/plaits/dsp/oscillator/wavetable_oscillator.h ****   float t = index_fractional;
 1194              		.loc 3 68 56 view .LVU373
 1195 0004 00EB4100 		add	r0, r0, r1, lsl #1
 1196              	.LVL86:
  67:eurorack/plaits/dsp/oscillator/wavetable_oscillator.h ****   float b = static_cast<float>(table[index_integral + 1]);
 1197              		.loc 3 67 9 view .LVU374
 1198 0008 07EE103A 		vmov	s14, r3	@ int
  68:eurorack/plaits/dsp/oscillator/wavetable_oscillator.h ****   float t = index_fractional;
 1199              		.loc 3 68 9 view .LVU375
 1200 000c B0F90230 		ldrsh	r3, [r0, #2]
 1201 0010 07EE903A 		vmov	s15, r3	@ int
  67:eurorack/plaits/dsp/oscillator/wavetable_oscillator.h ****   float b = static_cast<float>(table[index_integral + 1]);
 1202              		.loc 3 67 9 view .LVU376
 1203 0014 B8EEC77A 		vcvt.f32.s32	s14, s14
 1204              	.LVL87:
  68:eurorack/plaits/dsp/oscillator/wavetable_oscillator.h ****   float t = index_fractional;
 1205              		.loc 3 68 3 is_stmt 1 view .LVU377
  69:eurorack/plaits/dsp/oscillator/wavetable_oscillator.h ****   return a + (b - a) * t;
 1206              		.loc 3 69 3 view .LVU378
  70:eurorack/plaits/dsp/oscillator/wavetable_oscillator.h **** }
 1207              		.loc 3 70 3 view .LVU379
  68:eurorack/plaits/dsp/oscillator/wavetable_oscillator.h ****   float t = index_fractional;
 1208              		.loc 3 68 9 is_stmt 0 view .LVU380
 1209 0018 F8EEE77A 		vcvt.f32.s32	s15, s15
  70:eurorack/plaits/dsp/oscillator/wavetable_oscillator.h **** }
 1210              		.loc 3 70 17 view .LVU381
 1211 001c 77EEC77A 		vsub.f32	s15, s15, s14
  71:eurorack/plaits/dsp/oscillator/wavetable_oscillator.h **** 
 1212              		.loc 3 71 1 view .LVU382
 1213 0020 A7EE807A 		vfma.f32	s14, s15, s0
ARM GAS  /var/folders/9s/8rp0_f2s1n31qbztm3b5_fdh0000gn/T//cczTgMG8.s 			page 52


 1214              	.LVL88:
  71:eurorack/plaits/dsp/oscillator/wavetable_oscillator.h **** 
 1215              		.loc 3 71 1 view .LVU383
 1216 0024 B0EE470A 		vmov.f32	s0, s14
 1217              	.LVL89:
  71:eurorack/plaits/dsp/oscillator/wavetable_oscillator.h **** 
 1218              		.loc 3 71 1 view .LVU384
 1219 0028 7047     		bx	lr
 1220              		.cfi_endproc
 1221              	.LFE1493:
 1223              		.section	.text._ZN6plaits11ChordEngine19ComputeRegistrationEfPf,"ax",%progbits
 1224              		.align	1
 1225              		.global	_ZN6plaits11ChordEngine19ComputeRegistrationEfPf
 1226              		.syntax unified
 1227              		.thumb
 1228              		.thumb_func
 1230              	_ZN6plaits11ChordEngine19ComputeRegistrationEfPf:
 1231              	.LVL90:
 1232              	.LFB1507:
  73:eurorack/plaits/dsp/engine/chord_engine.cc **** 
  74:eurorack/plaits/dsp/engine/chord_engine.cc **** const float fade_point[kChordNumVoices] = {
  75:eurorack/plaits/dsp/engine/chord_engine.cc ****   0.55f, 0.47f, 0.49f, 0.51f, 0.53f
  76:eurorack/plaits/dsp/engine/chord_engine.cc **** };
  77:eurorack/plaits/dsp/engine/chord_engine.cc **** 
  78:eurorack/plaits/dsp/engine/chord_engine.cc **** const int kRegistrationTableSize = 8;
  79:eurorack/plaits/dsp/engine/chord_engine.cc **** const float registrations[kRegistrationTableSize][kChordNumHarmonics * 2] = {
  80:eurorack/plaits/dsp/engine/chord_engine.cc ****   { 0.0f, 1.0f, 0.0f, 0.0f, 0.0f, 0.0f },  // Square
  81:eurorack/plaits/dsp/engine/chord_engine.cc ****   { 1.0f, 0.0f, 0.0f, 0.0f, 0.0f, 0.0f },  // Saw
  82:eurorack/plaits/dsp/engine/chord_engine.cc ****   { 0.5f, 0.0f, 0.5f, 0.0f, 0.0f, 0.0f },  // Saw + saw
  83:eurorack/plaits/dsp/engine/chord_engine.cc ****   { 0.33f, 0.0f, 0.33f, 0.0f, 0.33f, 0.0f },  // Full saw
  84:eurorack/plaits/dsp/engine/chord_engine.cc ****   { 0.33f, 0.0f, 0.0f, 0.33f, 0.0f, 0.33f },  // Full saw + square hybrid
  85:eurorack/plaits/dsp/engine/chord_engine.cc ****   { 0.5f, 0.0f, 0.0f, 0.0f, 0.0f, 0.5f },  // Saw + high square harmo
  86:eurorack/plaits/dsp/engine/chord_engine.cc ****   { 0.0f, 0.5f, 0.0f, 0.0f, 0.0f, 0.5f },  // Square + high square harmo
  87:eurorack/plaits/dsp/engine/chord_engine.cc ****   { 0.0f, 0.1f, 0.1f, 0.0f, 0.2f, 0.6f },  // // Saw+square + high harmo
  88:eurorack/plaits/dsp/engine/chord_engine.cc **** };
  89:eurorack/plaits/dsp/engine/chord_engine.cc **** 
  90:eurorack/plaits/dsp/engine/chord_engine.cc **** void ChordEngine::ComputeRegistration(
  91:eurorack/plaits/dsp/engine/chord_engine.cc ****     float registration,
  92:eurorack/plaits/dsp/engine/chord_engine.cc ****     float* amplitudes) {
 1233              		.loc 1 92 24 is_stmt 1 view -0
 1234              		.cfi_startproc
 1235              		@ args = 0, pretend = 0, frame = 0
 1236              		@ frame_needed = 0, uses_anonymous_args = 0
 1237              		@ link register save eliminated.
  93:eurorack/plaits/dsp/engine/chord_engine.cc ****   registration *= (kRegistrationTableSize - 1.001f);
 1238              		.loc 1 93 3 view .LVU386
 1239              		.loc 1 93 16 is_stmt 0 view .LVU387
 1240 0000 DFED0E7A 		vldr.32	s15, .L47
 1241 0004 1822     		movs	r2, #24
 1242 0006 0E4B     		ldr	r3, .L47+4
 1243 0008 20EE270A 		vmul.f32	s0, s0, s15
 1244              	.LVL91:
  94:eurorack/plaits/dsp/engine/chord_engine.cc ****   MAKE_INTEGRAL_FRACTIONAL(registration);
 1245              		.loc 1 94 3 is_stmt 1 view .LVU388
 1246 000c FDEEC07A 		vcvt.s32.f32	s15, s0
 1247              	.LVL92:
 1248              		.loc 1 94 3 view .LVU389
ARM GAS  /var/folders/9s/8rp0_f2s1n31qbztm3b5_fdh0000gn/T//cczTgMG8.s 			page 53


 1249 0010 B8EEE77A 		vcvt.f32.s32	s14, s15
