ARM GAS  /var/folders/9s/8rp0_f2s1n31qbztm3b5_fdh0000gn/T//cc5SCkU0.s 			page 1


   1              		.cpu cortex-m7
   2              		.arch armv7e-m
   3              		.fpu fpv5-d16
   4              		.eabi_attribute 28, 1
   5              		.eabi_attribute 20, 1
   6              		.eabi_attribute 21, 1
   7              		.eabi_attribute 23, 3
   8              		.eabi_attribute 24, 1
   9              		.eabi_attribute 25, 1
  10              		.eabi_attribute 26, 1
  11              		.eabi_attribute 30, 4
  12              		.eabi_attribute 34, 1
  13              		.eabi_attribute 18, 4
  14              		.file	"frame_transformation.cc"
  15              		.text
  16              	.Ltext0:
  17              		.cfi_sections	.debug_frame
  18              		.section	.text._ZN6stmlib11InterpolateEPKfff,"axG",%progbits,_ZN6stmlib11InterpolateEPKfff,comdat
  19              		.align	1
  20              		.weak	_ZN6stmlib11InterpolateEPKfff
  21              		.syntax unified
  22              		.thumb
  23              		.thumb_func
  25              	_ZN6stmlib11InterpolateEPKfff:
  26              	.LVL0:
  27              	.LFB1474:
  28              		.file 1 "eurorack/stmlib/dsp/dsp.h"
   1:eurorack/stmlib/dsp/dsp.h **** // Copyright 2012 Emilie Gillet.
   2:eurorack/stmlib/dsp/dsp.h **** //
   3:eurorack/stmlib/dsp/dsp.h **** // Author: Emilie Gillet (emilie.o.gillet@gmail.com)
   4:eurorack/stmlib/dsp/dsp.h **** //
   5:eurorack/stmlib/dsp/dsp.h **** // Permission is hereby granted, free of charge, to any person obtaining a copy
   6:eurorack/stmlib/dsp/dsp.h **** // of this software and associated documentation files (the "Software"), to deal
   7:eurorack/stmlib/dsp/dsp.h **** // in the Software without restriction, including without limitation the rights
   8:eurorack/stmlib/dsp/dsp.h **** // to use, copy, modify, merge, publish, distribute, sublicense, and/or sell
   9:eurorack/stmlib/dsp/dsp.h **** // copies of the Software, and to permit persons to whom the Software is
  10:eurorack/stmlib/dsp/dsp.h **** // furnished to do so, subject to the following conditions:
  11:eurorack/stmlib/dsp/dsp.h **** // 
  12:eurorack/stmlib/dsp/dsp.h **** // The above copyright notice and this permission notice shall be included in
  13:eurorack/stmlib/dsp/dsp.h **** // all copies or substantial portions of the Software.
  14:eurorack/stmlib/dsp/dsp.h **** // 
  15:eurorack/stmlib/dsp/dsp.h **** // THE SOFTWARE IS PROVIDED "AS IS", WITHOUT WARRANTY OF ANY KIND, EXPRESS OR
  16:eurorack/stmlib/dsp/dsp.h **** // IMPLIED, INCLUDING BUT NOT LIMITED TO THE WARRANTIES OF MERCHANTABILITY,
  17:eurorack/stmlib/dsp/dsp.h **** // FITNESS FOR A PARTICULAR PURPOSE AND NONINFRINGEMENT. IN NO EVENT SHALL THE
  18:eurorack/stmlib/dsp/dsp.h **** // AUTHORS OR COPYRIGHT HOLDERS BE LIABLE FOR ANY CLAIM, DAMAGES OR OTHER
  19:eurorack/stmlib/dsp/dsp.h **** // LIABILITY, WHETHER IN AN ACTION OF CONTRACT, TORT OR OTHERWISE, ARISING FROM,
  20:eurorack/stmlib/dsp/dsp.h **** // OUT OF OR IN CONNECTION WITH THE SOFTWARE OR THE USE OR OTHER DEALINGS IN
  21:eurorack/stmlib/dsp/dsp.h **** // THE SOFTWARE.
  22:eurorack/stmlib/dsp/dsp.h **** // 
  23:eurorack/stmlib/dsp/dsp.h **** // See http://creativecommons.org/licenses/MIT/ for more information.
  24:eurorack/stmlib/dsp/dsp.h **** //
  25:eurorack/stmlib/dsp/dsp.h **** // -----------------------------------------------------------------------------
  26:eurorack/stmlib/dsp/dsp.h **** //
  27:eurorack/stmlib/dsp/dsp.h **** // DSP utility routines.
  28:eurorack/stmlib/dsp/dsp.h **** 
  29:eurorack/stmlib/dsp/dsp.h **** #ifndef STMLIB_UTILS_DSP_DSP_H_
  30:eurorack/stmlib/dsp/dsp.h **** #define STMLIB_UTILS_DSP_DSP_H_
ARM GAS  /var/folders/9s/8rp0_f2s1n31qbztm3b5_fdh0000gn/T//cc5SCkU0.s 			page 2


  31:eurorack/stmlib/dsp/dsp.h **** 
  32:eurorack/stmlib/dsp/dsp.h **** #include "stmlib/stmlib.h"
  33:eurorack/stmlib/dsp/dsp.h **** 
  34:eurorack/stmlib/dsp/dsp.h **** #include <cmath>
  35:eurorack/stmlib/dsp/dsp.h **** #include <math.h>
  36:eurorack/stmlib/dsp/dsp.h **** 
  37:eurorack/stmlib/dsp/dsp.h **** namespace stmlib {
  38:eurorack/stmlib/dsp/dsp.h **** 
  39:eurorack/stmlib/dsp/dsp.h **** #define MAKE_INTEGRAL_FRACTIONAL(x) \
  40:eurorack/stmlib/dsp/dsp.h ****   int32_t x ## _integral = static_cast<int32_t>(x); \
  41:eurorack/stmlib/dsp/dsp.h ****   float x ## _fractional = x - static_cast<float>(x ## _integral);
  42:eurorack/stmlib/dsp/dsp.h **** 
  43:eurorack/stmlib/dsp/dsp.h **** inline float Interpolate(const float* table, float index, float size) {
  29              		.loc 1 43 71 view -0
  30              		.cfi_startproc
  31              		@ args = 0, pretend = 0, frame = 0
  32              		@ frame_needed = 0, uses_anonymous_args = 0
  33              		@ link register save eliminated.
  44:eurorack/stmlib/dsp/dsp.h ****   index *= size;
  34              		.loc 1 44 3 view .LVU1
  35              		.loc 1 44 9 is_stmt 0 view .LVU2
  36 0000 60EE200A 		vmul.f32	s1, s0, s1
  37              	.LVL1:
  45:eurorack/stmlib/dsp/dsp.h ****   MAKE_INTEGRAL_FRACTIONAL(index)
  38              		.loc 1 45 3 is_stmt 1 view .LVU3
  39 0004 FDEEE07A 		vcvt.s32.f32	s15, s1
  40              	.LVL2:
  41              		.loc 1 45 3 view .LVU4
  46:eurorack/stmlib/dsp/dsp.h ****   float a = table[index_integral];
  42              		.loc 1 46 3 view .LVU5
  43              		.loc 1 46 9 is_stmt 0 view .LVU6
  44 0008 17EE903A 		vmov	r3, s15	@ int
  45:eurorack/stmlib/dsp/dsp.h ****   MAKE_INTEGRAL_FRACTIONAL(index)
  45              		.loc 1 45 3 view .LVU7
  46 000c F8EEE77A 		vcvt.f32.s32	s15, s15
  47              	.LVL3:
  48              		.loc 1 46 9 view .LVU8
  49 0010 00EB8300 		add	r0, r0, r3, lsl #2
  50              	.LVL4:
  45:eurorack/stmlib/dsp/dsp.h ****   MAKE_INTEGRAL_FRACTIONAL(index)
  51              		.loc 1 45 3 view .LVU9
  52 0014 70EEE70A 		vsub.f32	s1, s1, s15
  53              	.LVL5:
  54              		.loc 1 46 9 view .LVU10
  55 0018 90ED000A 		vldr.32	s0, [r0]
  56              	.LVL6:
  47:eurorack/stmlib/dsp/dsp.h ****   float b = table[index_integral + 1];
  57              		.loc 1 47 3 is_stmt 1 view .LVU11
  48:eurorack/stmlib/dsp/dsp.h ****   return a + (b - a) * index_fractional;
  58              		.loc 1 48 3 view .LVU12
  59              		.loc 1 48 17 is_stmt 0 view .LVU13
  60 001c 90ED017A 		vldr.32	s14, [r0, #4]
  61 0020 37EE407A 		vsub.f32	s14, s14, s0
  49:eurorack/stmlib/dsp/dsp.h **** }
  62              		.loc 1 49 1 view .LVU14
  63 0024 A7EE200A 		vfma.f32	s0, s14, s1
  64              	.LVL7:
ARM GAS  /var/folders/9s/8rp0_f2s1n31qbztm3b5_fdh0000gn/T//cc5SCkU0.s 			page 3


  65              		.loc 1 49 1 view .LVU15
  66 0028 7047     		bx	lr
  67              		.cfi_endproc
  68              	.LFE1474:
  70              		.section	.text._ZN6stmlib16SemitonesToRatioEf,"axG",%progbits,_ZN6stmlib16SemitonesToRatioEf,comda
  71              		.align	1
  72              		.weak	_ZN6stmlib16SemitonesToRatioEf
  73              		.syntax unified
  74              		.thumb
  75              		.thumb_func
  77              	_ZN6stmlib16SemitonesToRatioEf:
  78              	.LVL8:
  79              	.LFB1485:
  80              		.file 2 "eurorack/stmlib/dsp/units.h"
   1:eurorack/stmlib/dsp/units.h **** // Copyright 2014 Emilie Gillet.
   2:eurorack/stmlib/dsp/units.h **** //
   3:eurorack/stmlib/dsp/units.h **** // Author: Emilie Gillet (emilie.o.gillet@gmail.com)
   4:eurorack/stmlib/dsp/units.h **** //
   5:eurorack/stmlib/dsp/units.h **** // Permission is hereby granted, free of charge, to any person obtaining a copy
   6:eurorack/stmlib/dsp/units.h **** // of this software and associated documentation files (the "Software"), to deal
   7:eurorack/stmlib/dsp/units.h **** // in the Software without restriction, including without limitation the rights
   8:eurorack/stmlib/dsp/units.h **** // to use, copy, modify, merge, publish, distribute, sublicense, and/or sell
   9:eurorack/stmlib/dsp/units.h **** // copies of the Software, and to permit persons to whom the Software is
  10:eurorack/stmlib/dsp/units.h **** // furnished to do so, subject to the following conditions:
  11:eurorack/stmlib/dsp/units.h **** // 
  12:eurorack/stmlib/dsp/units.h **** // The above copyright notice and this permission notice shall be included in
  13:eurorack/stmlib/dsp/units.h **** // all copies or substantial portions of the Software.
  14:eurorack/stmlib/dsp/units.h **** // 
  15:eurorack/stmlib/dsp/units.h **** // THE SOFTWARE IS PROVIDED "AS IS", WITHOUT WARRANTY OF ANY KIND, EXPRESS OR
  16:eurorack/stmlib/dsp/units.h **** // IMPLIED, INCLUDING BUT NOT LIMITED TO THE WARRANTIES OF MERCHANTABILITY,
  17:eurorack/stmlib/dsp/units.h **** // FITNESS FOR A PARTICULAR PURPOSE AND NONINFRINGEMENT. IN NO EVENT SHALL THE
  18:eurorack/stmlib/dsp/units.h **** // AUTHORS OR COPYRIGHT HOLDERS BE LIABLE FOR ANY CLAIM, DAMAGES OR OTHER
  19:eurorack/stmlib/dsp/units.h **** // LIABILITY, WHETHER IN AN ACTION OF CONTRACT, TORT OR OTHERWISE, ARISING FROM,
  20:eurorack/stmlib/dsp/units.h **** // OUT OF OR IN CONNECTION WITH THE SOFTWARE OR THE USE OR OTHER DEALINGS IN
  21:eurorack/stmlib/dsp/units.h **** // THE SOFTWARE.
  22:eurorack/stmlib/dsp/units.h **** // 
  23:eurorack/stmlib/dsp/units.h **** // See http://creativecommons.org/licenses/MIT/ for more information.
  24:eurorack/stmlib/dsp/units.h **** //
  25:eurorack/stmlib/dsp/units.h **** // -----------------------------------------------------------------------------
  26:eurorack/stmlib/dsp/units.h **** //
  27:eurorack/stmlib/dsp/units.h **** // Conversion from semitones to frequency ratio.
  28:eurorack/stmlib/dsp/units.h **** 
  29:eurorack/stmlib/dsp/units.h **** #ifndef STMLIB_DSP_UNITS_H_
  30:eurorack/stmlib/dsp/units.h **** #define STMLIB_DSP_UNITS_H_
  31:eurorack/stmlib/dsp/units.h **** 
  32:eurorack/stmlib/dsp/units.h **** #include "stmlib/stmlib.h"
  33:eurorack/stmlib/dsp/units.h **** #include "stmlib/dsp/dsp.h"
  34:eurorack/stmlib/dsp/units.h **** 
  35:eurorack/stmlib/dsp/units.h **** namespace stmlib {
  36:eurorack/stmlib/dsp/units.h **** 
  37:eurorack/stmlib/dsp/units.h **** extern const float lut_pitch_ratio_high[257];
  38:eurorack/stmlib/dsp/units.h **** extern const float lut_pitch_ratio_low[257];
  39:eurorack/stmlib/dsp/units.h **** 
  40:eurorack/stmlib/dsp/units.h **** inline float SemitonesToRatio(float semitones) {
  81              		.loc 2 40 48 is_stmt 1 view -0
  82              		.cfi_startproc
  83              		@ args = 0, pretend = 0, frame = 0
ARM GAS  /var/folders/9s/8rp0_f2s1n31qbztm3b5_fdh0000gn/T//cc5SCkU0.s 			page 4


  84              		@ frame_needed = 0, uses_anonymous_args = 0
  85              		@ link register save eliminated.
  41:eurorack/stmlib/dsp/units.h ****   float pitch = semitones + 128.0f;
  86              		.loc 2 41 3 view .LVU17
  87              		.loc 2 41 9 is_stmt 0 view .LVU18
  88 0000 DFED0E7A 		vldr.32	s15, .L3
  42:eurorack/stmlib/dsp/units.h ****   MAKE_INTEGRAL_FRACTIONAL(pitch)
  43:eurorack/stmlib/dsp/units.h **** 
  44:eurorack/stmlib/dsp/units.h ****   return lut_pitch_ratio_high[pitch_integral] * \
  45:eurorack/stmlib/dsp/units.h ****       lut_pitch_ratio_low[static_cast<int32_t>(pitch_fractional * 256.0f)];
  89              		.loc 2 45 74 view .LVU19
  90 0004 0E4A     		ldr	r2, .L3+4
  41:eurorack/stmlib/dsp/units.h ****   float pitch = semitones + 128.0f;
  91              		.loc 2 41 9 view .LVU20
  92 0006 30EE270A 		vadd.f32	s0, s0, s15
  93              	.LVL9:
  42:eurorack/stmlib/dsp/units.h ****   MAKE_INTEGRAL_FRACTIONAL(pitch)
  94              		.loc 2 42 3 is_stmt 1 view .LVU21
  95 000a FDEEC07A 		vcvt.s32.f32	s15, s0
  96              	.LVL10:
  42:eurorack/stmlib/dsp/units.h ****   MAKE_INTEGRAL_FRACTIONAL(pitch)
  97              		.loc 2 42 3 view .LVU22
  44:eurorack/stmlib/dsp/units.h ****       lut_pitch_ratio_low[static_cast<int32_t>(pitch_fractional * 256.0f)];
  98              		.loc 2 44 3 view .LVU23
  42:eurorack/stmlib/dsp/units.h ****   MAKE_INTEGRAL_FRACTIONAL(pitch)
  99              		.loc 2 42 3 is_stmt 0 view .LVU24
 100 000e B8EEE77A 		vcvt.f32.s32	s14, s15
  44:eurorack/stmlib/dsp/units.h ****       lut_pitch_ratio_low[static_cast<int32_t>(pitch_fractional * 256.0f)];
 101              		.loc 2 44 45 view .LVU25
 102 0012 17EE901A 		vmov	r1, s15	@ int
  42:eurorack/stmlib/dsp/units.h ****   MAKE_INTEGRAL_FRACTIONAL(pitch)
 103              		.loc 2 42 3 view .LVU26
 104 0016 30EE470A 		vsub.f32	s0, s0, s14
 105              	.LVL11:
 106              		.loc 2 45 27 view .LVU27
 107 001a BEEECC0A 		vcvt.s32.f32	s0, s0, #8
 108              	.LVL12:
 109              		.loc 2 45 74 view .LVU28
 110 001e 10EE103A 		vmov	r3, s0	@ int
 111 0022 02EB8302 		add	r2, r2, r3, lsl #2
  44:eurorack/stmlib/dsp/units.h ****       lut_pitch_ratio_low[static_cast<int32_t>(pitch_fractional * 256.0f)];
 112              		.loc 2 44 45 view .LVU29
 113 0026 074B     		ldr	r3, .L3+8
 114 0028 03EB8103 		add	r3, r3, r1, lsl #2
 115              		.loc 2 45 74 view .LVU30
 116 002c 92ED000A 		vldr.32	s0, [r2]
 117 0030 D3ED007A 		vldr.32	s15, [r3]
 118              	.LVL13:
  46:eurorack/stmlib/dsp/units.h **** }
 119              		.loc 2 46 1 view .LVU31
 120 0034 20EE270A 		vmul.f32	s0, s0, s15
 121 0038 7047     		bx	lr
 122              	.L4:
 123 003a 00BF     		.align	2
 124              	.L3:
 125 003c 00000043 		.word	1124073472
 126 0040 00000000 		.word	_ZN6stmlib19lut_pitch_ratio_lowE
ARM GAS  /var/folders/9s/8rp0_f2s1n31qbztm3b5_fdh0000gn/T//cc5SCkU0.s 			page 5


 127 0044 00000000 		.word	_ZN6stmlib20lut_pitch_ratio_highE
 128              		.cfi_endproc
 129              	.LFE1485:
 131              		.section	.text._ZN6stmlib6Random9GetSampleEv,"axG",%progbits,_ZN6stmlib6Random9GetSampleEv,comdat
 132              		.align	1
 133              		.weak	_ZN6stmlib6Random9GetSampleEv
 134              		.syntax unified
 135              		.thumb
 136              		.thumb_func
 138              	_ZN6stmlib6Random9GetSampleEv:
 139              	.LFB1491:
 140              		.file 3 "eurorack/stmlib/utils/random.h"
   1:eurorack/stmlib/utils/random.h **** // Copyright 2012 Emilie Gillet.
   2:eurorack/stmlib/utils/random.h **** //
   3:eurorack/stmlib/utils/random.h **** // Author: Emilie Gillet (emilie.o.gillet@gmail.com)
   4:eurorack/stmlib/utils/random.h **** //
   5:eurorack/stmlib/utils/random.h **** // Permission is hereby granted, free of charge, to any person obtaining a copy
   6:eurorack/stmlib/utils/random.h **** // of this software and associated documentation files (the "Software"), to deal
   7:eurorack/stmlib/utils/random.h **** // in the Software without restriction, including without limitation the rights
   8:eurorack/stmlib/utils/random.h **** // to use, copy, modify, merge, publish, distribute, sublicense, and/or sell
   9:eurorack/stmlib/utils/random.h **** // copies of the Software, and to permit persons to whom the Software is
  10:eurorack/stmlib/utils/random.h **** // furnished to do so, subject to the following conditions:
  11:eurorack/stmlib/utils/random.h **** // 
  12:eurorack/stmlib/utils/random.h **** // The above copyright notice and this permission notice shall be included in
  13:eurorack/stmlib/utils/random.h **** // all copies or substantial portions of the Software.
  14:eurorack/stmlib/utils/random.h **** // 
  15:eurorack/stmlib/utils/random.h **** // THE SOFTWARE IS PROVIDED "AS IS", WITHOUT WARRANTY OF ANY KIND, EXPRESS OR
  16:eurorack/stmlib/utils/random.h **** // IMPLIED, INCLUDING BUT NOT LIMITED TO THE WARRANTIES OF MERCHANTABILITY,
  17:eurorack/stmlib/utils/random.h **** // FITNESS FOR A PARTICULAR PURPOSE AND NONINFRINGEMENT. IN NO EVENT SHALL THE
  18:eurorack/stmlib/utils/random.h **** // AUTHORS OR COPYRIGHT HOLDERS BE LIABLE FOR ANY CLAIM, DAMAGES OR OTHER
  19:eurorack/stmlib/utils/random.h **** // LIABILITY, WHETHER IN AN ACTION OF CONTRACT, TORT OR OTHERWISE, ARISING FROM,
  20:eurorack/stmlib/utils/random.h **** // OUT OF OR IN CONNECTION WITH THE SOFTWARE OR THE USE OR OTHER DEALINGS IN
  21:eurorack/stmlib/utils/random.h **** // THE SOFTWARE.
  22:eurorack/stmlib/utils/random.h **** // 
  23:eurorack/stmlib/utils/random.h **** // See http://creativecommons.org/licenses/MIT/ for more information.
  24:eurorack/stmlib/utils/random.h **** //
  25:eurorack/stmlib/utils/random.h **** // -----------------------------------------------------------------------------
  26:eurorack/stmlib/utils/random.h **** //
  27:eurorack/stmlib/utils/random.h **** // Fast 16-bit pseudo random number generator.
  28:eurorack/stmlib/utils/random.h **** 
  29:eurorack/stmlib/utils/random.h **** #ifndef STMLIB_UTILS_RANDOM_H_
  30:eurorack/stmlib/utils/random.h **** #define STMLIB_UTILS_RANDOM_H_
  31:eurorack/stmlib/utils/random.h **** 
  32:eurorack/stmlib/utils/random.h **** #include "stmlib/stmlib.h"
  33:eurorack/stmlib/utils/random.h **** 
  34:eurorack/stmlib/utils/random.h **** namespace stmlib {
  35:eurorack/stmlib/utils/random.h **** 
  36:eurorack/stmlib/utils/random.h **** class Random {
  37:eurorack/stmlib/utils/random.h ****  public:
  38:eurorack/stmlib/utils/random.h ****   static inline uint32_t state() { return rng_state_; }
  39:eurorack/stmlib/utils/random.h **** 
  40:eurorack/stmlib/utils/random.h ****   static inline void Seed(uint32_t seed) {
  41:eurorack/stmlib/utils/random.h ****     rng_state_ = seed;
  42:eurorack/stmlib/utils/random.h ****   }
  43:eurorack/stmlib/utils/random.h **** 
  44:eurorack/stmlib/utils/random.h ****   static inline uint32_t GetWord() {
  45:eurorack/stmlib/utils/random.h ****     rng_state_ = rng_state_ * 1664525L + 1013904223L;
ARM GAS  /var/folders/9s/8rp0_f2s1n31qbztm3b5_fdh0000gn/T//cc5SCkU0.s 			page 6


  46:eurorack/stmlib/utils/random.h ****     return state();
  47:eurorack/stmlib/utils/random.h ****   }
  48:eurorack/stmlib/utils/random.h ****   
  49:eurorack/stmlib/utils/random.h ****   static inline int16_t GetSample() {
 141              		.loc 3 49 25 is_stmt 1 view -0
 142              		.cfi_startproc
 143              		@ args = 0, pretend = 0, frame = 0
 144              		@ frame_needed = 0, uses_anonymous_args = 0
 145              		@ link register save eliminated.
  50:eurorack/stmlib/utils/random.h ****     return static_cast<int16_t>(GetWord() >> 16);
 146              		.loc 3 50 5 view .LVU33
 147              	.LBB91:
 148              	.LBI91:
  44:eurorack/stmlib/utils/random.h ****     rng_state_ = rng_state_ * 1664525L + 1013904223L;
 149              		.loc 3 44 26 view .LVU34
 150              	.LBB92:
  45:eurorack/stmlib/utils/random.h ****     return state();
 151              		.loc 3 45 5 view .LVU35
  45:eurorack/stmlib/utils/random.h ****     return state();
 152              		.loc 3 45 29 is_stmt 0 view .LVU36
 153 0000 044B     		ldr	r3, .L6
  45:eurorack/stmlib/utils/random.h ****     return state();
 154              		.loc 3 45 40 view .LVU37
 155 0002 0549     		ldr	r1, .L6+4
  45:eurorack/stmlib/utils/random.h ****     return state();
 156              		.loc 3 45 29 view .LVU38
 157 0004 1A68     		ldr	r2, [r3]
  45:eurorack/stmlib/utils/random.h ****     return state();
 158              		.loc 3 45 40 view .LVU39
 159 0006 0548     		ldr	r0, .L6+8
 160 0008 01FB0200 		mla	r0, r1, r2, r0
  45:eurorack/stmlib/utils/random.h ****     return state();
 161              		.loc 3 45 16 view .LVU40
 162 000c 1860     		str	r0, [r3]
  46:eurorack/stmlib/utils/random.h ****   }
 163              		.loc 3 46 5 is_stmt 1 view .LVU41
 164              	.LBE92:
 165              	.LBE91:
  38:eurorack/stmlib/utils/random.h **** 
 166              		.loc 3 38 36 view .LVU42
  51:eurorack/stmlib/utils/random.h ****   }
 167              		.loc 3 51 3 is_stmt 0 view .LVU43
 168 000e 0014     		asrs	r0, r0, #16
 169 0010 7047     		bx	lr
 170              	.L7:
 171 0012 00BF     		.align	2
 172              	.L6:
 173 0014 00000000 		.word	_ZN6stmlib6Random10rng_state_E
 174 0018 0D661900 		.word	1664525
 175 001c 5FF36E3C 		.word	1013904223
 176              		.cfi_endproc
 177              	.LFE1491:
 179              		.section	.text._ZN6clouds19FrameTransformation5ResetEv,"ax",%progbits
 180              		.align	1
 181              		.global	_ZN6clouds19FrameTransformation5ResetEv
 182              		.syntax unified
 183              		.thumb
ARM GAS  /var/folders/9s/8rp0_f2s1n31qbztm3b5_fdh0000gn/T//cc5SCkU0.s 			page 7


 184              		.thumb_func
 186              	_ZN6clouds19FrameTransformation5ResetEv:
 187              	.LVL14:
 188              	.LFB1494:
 189              		.file 4 "eurorack/clouds/dsp/pvoc/frame_transformation.cc"
   1:eurorack/clouds/dsp/pvoc/frame_transformation.cc **** // Copyright 2014 Emilie Gillet.
   2:eurorack/clouds/dsp/pvoc/frame_transformation.cc **** //
   3:eurorack/clouds/dsp/pvoc/frame_transformation.cc **** // Author: Emilie Gillet (emilie.o.gillet@gmail.com)
   4:eurorack/clouds/dsp/pvoc/frame_transformation.cc **** //
   5:eurorack/clouds/dsp/pvoc/frame_transformation.cc **** // Permission is hereby granted, free of charge, to any person obtaining a copy
   6:eurorack/clouds/dsp/pvoc/frame_transformation.cc **** // of this software and associated documentation files (the "Software"), to deal
   7:eurorack/clouds/dsp/pvoc/frame_transformation.cc **** // in the Software without restriction, including without limitation the rights
   8:eurorack/clouds/dsp/pvoc/frame_transformation.cc **** // to use, copy, modify, merge, publish, distribute, sublicense, and/or sell
   9:eurorack/clouds/dsp/pvoc/frame_transformation.cc **** // copies of the Software, and to permit persons to whom the Software is
  10:eurorack/clouds/dsp/pvoc/frame_transformation.cc **** // furnished to do so, subject to the following conditions:
  11:eurorack/clouds/dsp/pvoc/frame_transformation.cc **** // 
  12:eurorack/clouds/dsp/pvoc/frame_transformation.cc **** // The above copyright notice and this permission notice shall be included in
  13:eurorack/clouds/dsp/pvoc/frame_transformation.cc **** // all copies or substantial portions of the Software.
  14:eurorack/clouds/dsp/pvoc/frame_transformation.cc **** // 
  15:eurorack/clouds/dsp/pvoc/frame_transformation.cc **** // THE SOFTWARE IS PROVIDED "AS IS", WITHOUT WARRANTY OF ANY KIND, EXPRESS OR
  16:eurorack/clouds/dsp/pvoc/frame_transformation.cc **** // IMPLIED, INCLUDING BUT NOT LIMITED TO THE WARRANTIES OF MERCHANTABILITY,
  17:eurorack/clouds/dsp/pvoc/frame_transformation.cc **** // FITNESS FOR A PARTICULAR PURPOSE AND NONINFRINGEMENT. IN NO EVENT SHALL THE
  18:eurorack/clouds/dsp/pvoc/frame_transformation.cc **** // AUTHORS OR COPYRIGHT HOLDERS BE LIABLE FOR ANY CLAIM, DAMAGES OR OTHER
  19:eurorack/clouds/dsp/pvoc/frame_transformation.cc **** // LIABILITY, WHETHER IN AN ACTION OF CONTRACT, TORT OR OTHERWISE, ARISING FROM,
  20:eurorack/clouds/dsp/pvoc/frame_transformation.cc **** // OUT OF OR IN CONNECTION WITH THE SOFTWARE OR THE USE OR OTHER DEALINGS IN
  21:eurorack/clouds/dsp/pvoc/frame_transformation.cc **** // THE SOFTWARE.
  22:eurorack/clouds/dsp/pvoc/frame_transformation.cc **** // 
  23:eurorack/clouds/dsp/pvoc/frame_transformation.cc **** // See http://creativecommons.org/licenses/MIT/ for more information.
  24:eurorack/clouds/dsp/pvoc/frame_transformation.cc **** //
  25:eurorack/clouds/dsp/pvoc/frame_transformation.cc **** // -----------------------------------------------------------------------------
  26:eurorack/clouds/dsp/pvoc/frame_transformation.cc **** //
  27:eurorack/clouds/dsp/pvoc/frame_transformation.cc **** // Transformations applied to a single STFT slice.
  28:eurorack/clouds/dsp/pvoc/frame_transformation.cc **** 
  29:eurorack/clouds/dsp/pvoc/frame_transformation.cc **** #include "clouds/dsp/pvoc/frame_transformation.h"
  30:eurorack/clouds/dsp/pvoc/frame_transformation.cc **** 
  31:eurorack/clouds/dsp/pvoc/frame_transformation.cc **** #include <algorithm>
  32:eurorack/clouds/dsp/pvoc/frame_transformation.cc **** 
  33:eurorack/clouds/dsp/pvoc/frame_transformation.cc **** #include "stmlib/dsp/atan.h"
  34:eurorack/clouds/dsp/pvoc/frame_transformation.cc **** #include "stmlib/dsp/units.h"
  35:eurorack/clouds/dsp/pvoc/frame_transformation.cc **** #include "stmlib/utils/random.h"
  36:eurorack/clouds/dsp/pvoc/frame_transformation.cc **** 
  37:eurorack/clouds/dsp/pvoc/frame_transformation.cc **** #include "clouds/dsp/frame.h"
  38:eurorack/clouds/dsp/pvoc/frame_transformation.cc **** #include "clouds/dsp/parameters.h"
  39:eurorack/clouds/dsp/pvoc/frame_transformation.cc **** 
  40:eurorack/clouds/dsp/pvoc/frame_transformation.cc **** namespace clouds {
  41:eurorack/clouds/dsp/pvoc/frame_transformation.cc **** 
  42:eurorack/clouds/dsp/pvoc/frame_transformation.cc **** using namespace std;
  43:eurorack/clouds/dsp/pvoc/frame_transformation.cc **** using namespace stmlib;
  44:eurorack/clouds/dsp/pvoc/frame_transformation.cc **** 
  45:eurorack/clouds/dsp/pvoc/frame_transformation.cc **** void FrameTransformation::Init(
  46:eurorack/clouds/dsp/pvoc/frame_transformation.cc ****     float* buffer,
  47:eurorack/clouds/dsp/pvoc/frame_transformation.cc ****     int32_t fft_size,
  48:eurorack/clouds/dsp/pvoc/frame_transformation.cc ****     int32_t num_textures) {
  49:eurorack/clouds/dsp/pvoc/frame_transformation.cc ****   fft_size_ = fft_size;
  50:eurorack/clouds/dsp/pvoc/frame_transformation.cc ****   size_ = (fft_size >> 1) - kHighFrequencyTruncation;
  51:eurorack/clouds/dsp/pvoc/frame_transformation.cc ****   
  52:eurorack/clouds/dsp/pvoc/frame_transformation.cc ****   for (int32_t i = 0; i < num_textures; ++i) {
ARM GAS  /var/folders/9s/8rp0_f2s1n31qbztm3b5_fdh0000gn/T//cc5SCkU0.s 			page 8


  53:eurorack/clouds/dsp/pvoc/frame_transformation.cc ****     textures_[i] = &buffer[i * size_];
  54:eurorack/clouds/dsp/pvoc/frame_transformation.cc ****   }
  55:eurorack/clouds/dsp/pvoc/frame_transformation.cc ****   phases_ = static_cast<uint16_t*>((void*)(textures_[num_textures - 1]));
  56:eurorack/clouds/dsp/pvoc/frame_transformation.cc ****   num_textures_ = num_textures - 1;  // Last texture is used for storing phases.
  57:eurorack/clouds/dsp/pvoc/frame_transformation.cc ****   phases_delta_ = phases_ + size_;
  58:eurorack/clouds/dsp/pvoc/frame_transformation.cc **** 
  59:eurorack/clouds/dsp/pvoc/frame_transformation.cc ****   glitch_algorithm_ = 0;
  60:eurorack/clouds/dsp/pvoc/frame_transformation.cc ****   Reset();
  61:eurorack/clouds/dsp/pvoc/frame_transformation.cc **** }
  62:eurorack/clouds/dsp/pvoc/frame_transformation.cc **** 
  63:eurorack/clouds/dsp/pvoc/frame_transformation.cc **** void FrameTransformation::Reset() {
 190              		.loc 4 63 35 is_stmt 1 view -0
 191              		.cfi_startproc
 192              		@ args = 0, pretend = 0, frame = 0
 193              		@ frame_needed = 0, uses_anonymous_args = 0
  64:eurorack/clouds/dsp/pvoc/frame_transformation.cc ****   for (int32_t i = 0; i < num_textures_; ++i) {
 194              		.loc 4 64 3 view .LVU45
  63:eurorack/clouds/dsp/pvoc/frame_transformation.cc ****   for (int32_t i = 0; i < num_textures_; ++i) {
 195              		.loc 4 63 35 is_stmt 0 view .LVU46
 196 0000 F8B5     		push	{r3, r4, r5, r6, r7, lr}
 197              		.cfi_def_cfa_offset 24
 198              		.cfi_offset 3, -24
 199              		.cfi_offset 4, -20
 200              		.cfi_offset 5, -16
 201              		.cfi_offset 6, -12
 202              		.cfi_offset 7, -8
 203              		.cfi_offset 14, -4
  63:eurorack/clouds/dsp/pvoc/frame_transformation.cc ****   for (int32_t i = 0; i < num_textures_; ++i) {
 204              		.loc 4 63 35 view .LVU47
 205 0002 0446     		mov	r4, r0
 206              	.LBB99:
 207              		.loc 4 64 27 view .LVU48
 208 0004 4768     		ldr	r7, [r0, #4]
 209 0006 00F10C06 		add	r6, r0, #12
 210              		.loc 4 64 16 view .LVU49
 211 000a 0025     		movs	r5, #0
 212              	.LVL15:
 213              	.L10:
 214              		.loc 4 64 25 is_stmt 1 discriminator 3 view .LVU50
 215 000c AF42     		cmp	r7, r5
 216 000e 08DD     		ble	.L8
  65:eurorack/clouds/dsp/pvoc/frame_transformation.cc ****     fill(&textures_[i][0], &textures_[i][size_], 0.0f);
 217              		.loc 4 65 5 discriminator 2 view .LVU51
 218              	.LVL16:
 219              	.LBB100:
 220              	.LBI100:
 221              		.file 5 "/Library/DaisyToolchain/0.2.0/arm/arm-none-eabi/include/c++/10.3.1/bits/stl_algobase.h"
   1:/Library/DaisyToolchain/0.2.0/arm/arm-none-eabi/include/c++/10.3.1/bits/stl_algobase.h **** // Core algorithmic facilities -*- C++ -*-
   2:/Library/DaisyToolchain/0.2.0/arm/arm-none-eabi/include/c++/10.3.1/bits/stl_algobase.h **** 
   3:/Library/DaisyToolchain/0.2.0/arm/arm-none-eabi/include/c++/10.3.1/bits/stl_algobase.h **** // Copyright (C) 2001-2020 Free Software Foundation, Inc.
   4:/Library/DaisyToolchain/0.2.0/arm/arm-none-eabi/include/c++/10.3.1/bits/stl_algobase.h **** //
   5:/Library/DaisyToolchain/0.2.0/arm/arm-none-eabi/include/c++/10.3.1/bits/stl_algobase.h **** // This file is part of the GNU ISO C++ Library.  This library is free
   6:/Library/DaisyToolchain/0.2.0/arm/arm-none-eabi/include/c++/10.3.1/bits/stl_algobase.h **** // software; you can redistribute it and/or modify it under the
   7:/Library/DaisyToolchain/0.2.0/arm/arm-none-eabi/include/c++/10.3.1/bits/stl_algobase.h **** // terms of the GNU General Public License as published by the
   8:/Library/DaisyToolchain/0.2.0/arm/arm-none-eabi/include/c++/10.3.1/bits/stl_algobase.h **** // Free Software Foundation; either version 3, or (at your option)
   9:/Library/DaisyToolchain/0.2.0/arm/arm-none-eabi/include/c++/10.3.1/bits/stl_algobase.h **** // any later version.
  10:/Library/DaisyToolchain/0.2.0/arm/arm-none-eabi/include/c++/10.3.1/bits/stl_algobase.h **** 
ARM GAS  /var/folders/9s/8rp0_f2s1n31qbztm3b5_fdh0000gn/T//cc5SCkU0.s 			page 9


  11:/Library/DaisyToolchain/0.2.0/arm/arm-none-eabi/include/c++/10.3.1/bits/stl_algobase.h **** // This library is distributed in the hope that it will be useful,
  12:/Library/DaisyToolchain/0.2.0/arm/arm-none-eabi/include/c++/10.3.1/bits/stl_algobase.h **** // but WITHOUT ANY WARRANTY; without even the implied warranty of
  13:/Library/DaisyToolchain/0.2.0/arm/arm-none-eabi/include/c++/10.3.1/bits/stl_algobase.h **** // MERCHANTABILITY or FITNESS FOR A PARTICULAR PURPOSE.  See the
  14:/Library/DaisyToolchain/0.2.0/arm/arm-none-eabi/include/c++/10.3.1/bits/stl_algobase.h **** // GNU General Public License for more details.
  15:/Library/DaisyToolchain/0.2.0/arm/arm-none-eabi/include/c++/10.3.1/bits/stl_algobase.h **** 
  16:/Library/DaisyToolchain/0.2.0/arm/arm-none-eabi/include/c++/10.3.1/bits/stl_algobase.h **** // Under Section 7 of GPL version 3, you are granted additional
  17:/Library/DaisyToolchain/0.2.0/arm/arm-none-eabi/include/c++/10.3.1/bits/stl_algobase.h **** // permissions described in the GCC Runtime Library Exception, version
  18:/Library/DaisyToolchain/0.2.0/arm/arm-none-eabi/include/c++/10.3.1/bits/stl_algobase.h **** // 3.1, as published by the Free Software Foundation.
  19:/Library/DaisyToolchain/0.2.0/arm/arm-none-eabi/include/c++/10.3.1/bits/stl_algobase.h **** 
  20:/Library/DaisyToolchain/0.2.0/arm/arm-none-eabi/include/c++/10.3.1/bits/stl_algobase.h **** // You should have received a copy of the GNU General Public License and
  21:/Library/DaisyToolchain/0.2.0/arm/arm-none-eabi/include/c++/10.3.1/bits/stl_algobase.h **** // a copy of the GCC Runtime Library Exception along with this program;
  22:/Library/DaisyToolchain/0.2.0/arm/arm-none-eabi/include/c++/10.3.1/bits/stl_algobase.h **** // see the files COPYING3 and COPYING.RUNTIME respectively.  If not, see
  23:/Library/DaisyToolchain/0.2.0/arm/arm-none-eabi/include/c++/10.3.1/bits/stl_algobase.h **** // <http://www.gnu.org/licenses/>.
  24:/Library/DaisyToolchain/0.2.0/arm/arm-none-eabi/include/c++/10.3.1/bits/stl_algobase.h **** 
  25:/Library/DaisyToolchain/0.2.0/arm/arm-none-eabi/include/c++/10.3.1/bits/stl_algobase.h **** /*
  26:/Library/DaisyToolchain/0.2.0/arm/arm-none-eabi/include/c++/10.3.1/bits/stl_algobase.h ****  *
  27:/Library/DaisyToolchain/0.2.0/arm/arm-none-eabi/include/c++/10.3.1/bits/stl_algobase.h ****  * Copyright (c) 1994
  28:/Library/DaisyToolchain/0.2.0/arm/arm-none-eabi/include/c++/10.3.1/bits/stl_algobase.h ****  * Hewlett-Packard Company
  29:/Library/DaisyToolchain/0.2.0/arm/arm-none-eabi/include/c++/10.3.1/bits/stl_algobase.h ****  *
  30:/Library/DaisyToolchain/0.2.0/arm/arm-none-eabi/include/c++/10.3.1/bits/stl_algobase.h ****  * Permission to use, copy, modify, distribute and sell this software
  31:/Library/DaisyToolchain/0.2.0/arm/arm-none-eabi/include/c++/10.3.1/bits/stl_algobase.h ****  * and its documentation for any purpose is hereby granted without fee,
  32:/Library/DaisyToolchain/0.2.0/arm/arm-none-eabi/include/c++/10.3.1/bits/stl_algobase.h ****  * provided that the above copyright notice appear in all copies and
  33:/Library/DaisyToolchain/0.2.0/arm/arm-none-eabi/include/c++/10.3.1/bits/stl_algobase.h ****  * that both that copyright notice and this permission notice appear
  34:/Library/DaisyToolchain/0.2.0/arm/arm-none-eabi/include/c++/10.3.1/bits/stl_algobase.h ****  * in supporting documentation.  Hewlett-Packard Company makes no
  35:/Library/DaisyToolchain/0.2.0/arm/arm-none-eabi/include/c++/10.3.1/bits/stl_algobase.h ****  * representations about the suitability of this software for any
  36:/Library/DaisyToolchain/0.2.0/arm/arm-none-eabi/include/c++/10.3.1/bits/stl_algobase.h ****  * purpose.  It is provided "as is" without express or implied warranty.
  37:/Library/DaisyToolchain/0.2.0/arm/arm-none-eabi/include/c++/10.3.1/bits/stl_algobase.h ****  *
  38:/Library/DaisyToolchain/0.2.0/arm/arm-none-eabi/include/c++/10.3.1/bits/stl_algobase.h ****  *
  39:/Library/DaisyToolchain/0.2.0/arm/arm-none-eabi/include/c++/10.3.1/bits/stl_algobase.h ****  * Copyright (c) 1996-1998
  40:/Library/DaisyToolchain/0.2.0/arm/arm-none-eabi/include/c++/10.3.1/bits/stl_algobase.h ****  * Silicon Graphics Computer Systems, Inc.
  41:/Library/DaisyToolchain/0.2.0/arm/arm-none-eabi/include/c++/10.3.1/bits/stl_algobase.h ****  *
  42:/Library/DaisyToolchain/0.2.0/arm/arm-none-eabi/include/c++/10.3.1/bits/stl_algobase.h ****  * Permission to use, copy, modify, distribute and sell this software
  43:/Library/DaisyToolchain/0.2.0/arm/arm-none-eabi/include/c++/10.3.1/bits/stl_algobase.h ****  * and its documentation for any purpose is hereby granted without fee,
  44:/Library/DaisyToolchain/0.2.0/arm/arm-none-eabi/include/c++/10.3.1/bits/stl_algobase.h ****  * provided that the above copyright notice appear in all copies and
  45:/Library/DaisyToolchain/0.2.0/arm/arm-none-eabi/include/c++/10.3.1/bits/stl_algobase.h ****  * that both that copyright notice and this permission notice appear
  46:/Library/DaisyToolchain/0.2.0/arm/arm-none-eabi/include/c++/10.3.1/bits/stl_algobase.h ****  * in supporting documentation.  Silicon Graphics makes no
  47:/Library/DaisyToolchain/0.2.0/arm/arm-none-eabi/include/c++/10.3.1/bits/stl_algobase.h ****  * representations about the suitability of this software for any
  48:/Library/DaisyToolchain/0.2.0/arm/arm-none-eabi/include/c++/10.3.1/bits/stl_algobase.h ****  * purpose.  It is provided "as is" without express or implied warranty.
  49:/Library/DaisyToolchain/0.2.0/arm/arm-none-eabi/include/c++/10.3.1/bits/stl_algobase.h ****  */
  50:/Library/DaisyToolchain/0.2.0/arm/arm-none-eabi/include/c++/10.3.1/bits/stl_algobase.h **** 
  51:/Library/DaisyToolchain/0.2.0/arm/arm-none-eabi/include/c++/10.3.1/bits/stl_algobase.h **** /** @file bits/stl_algobase.h
  52:/Library/DaisyToolchain/0.2.0/arm/arm-none-eabi/include/c++/10.3.1/bits/stl_algobase.h ****  *  This is an internal header file, included by other library headers.
  53:/Library/DaisyToolchain/0.2.0/arm/arm-none-eabi/include/c++/10.3.1/bits/stl_algobase.h ****  *  Do not attempt to use it directly. @headername{algorithm}
  54:/Library/DaisyToolchain/0.2.0/arm/arm-none-eabi/include/c++/10.3.1/bits/stl_algobase.h ****  */
  55:/Library/DaisyToolchain/0.2.0/arm/arm-none-eabi/include/c++/10.3.1/bits/stl_algobase.h **** 
  56:/Library/DaisyToolchain/0.2.0/arm/arm-none-eabi/include/c++/10.3.1/bits/stl_algobase.h **** #ifndef _STL_ALGOBASE_H
  57:/Library/DaisyToolchain/0.2.0/arm/arm-none-eabi/include/c++/10.3.1/bits/stl_algobase.h **** #define _STL_ALGOBASE_H 1
  58:/Library/DaisyToolchain/0.2.0/arm/arm-none-eabi/include/c++/10.3.1/bits/stl_algobase.h **** 
  59:/Library/DaisyToolchain/0.2.0/arm/arm-none-eabi/include/c++/10.3.1/bits/stl_algobase.h **** #include <bits/c++config.h>
  60:/Library/DaisyToolchain/0.2.0/arm/arm-none-eabi/include/c++/10.3.1/bits/stl_algobase.h **** #include <bits/functexcept.h>
  61:/Library/DaisyToolchain/0.2.0/arm/arm-none-eabi/include/c++/10.3.1/bits/stl_algobase.h **** #include <bits/cpp_type_traits.h>
  62:/Library/DaisyToolchain/0.2.0/arm/arm-none-eabi/include/c++/10.3.1/bits/stl_algobase.h **** #include <ext/type_traits.h>
  63:/Library/DaisyToolchain/0.2.0/arm/arm-none-eabi/include/c++/10.3.1/bits/stl_algobase.h **** #include <ext/numeric_traits.h>
  64:/Library/DaisyToolchain/0.2.0/arm/arm-none-eabi/include/c++/10.3.1/bits/stl_algobase.h **** #include <bits/stl_pair.h>
  65:/Library/DaisyToolchain/0.2.0/arm/arm-none-eabi/include/c++/10.3.1/bits/stl_algobase.h **** #include <bits/stl_iterator_base_types.h>
  66:/Library/DaisyToolchain/0.2.0/arm/arm-none-eabi/include/c++/10.3.1/bits/stl_algobase.h **** #include <bits/stl_iterator_base_funcs.h>
  67:/Library/DaisyToolchain/0.2.0/arm/arm-none-eabi/include/c++/10.3.1/bits/stl_algobase.h **** #include <bits/stl_iterator.h>
ARM GAS  /var/folders/9s/8rp0_f2s1n31qbztm3b5_fdh0000gn/T//cc5SCkU0.s 			page 10


  68:/Library/DaisyToolchain/0.2.0/arm/arm-none-eabi/include/c++/10.3.1/bits/stl_algobase.h **** #include <bits/concept_check.h>
  69:/Library/DaisyToolchain/0.2.0/arm/arm-none-eabi/include/c++/10.3.1/bits/stl_algobase.h **** #include <debug/debug.h>
  70:/Library/DaisyToolchain/0.2.0/arm/arm-none-eabi/include/c++/10.3.1/bits/stl_algobase.h **** #include <bits/move.h> // For std::swap
  71:/Library/DaisyToolchain/0.2.0/arm/arm-none-eabi/include/c++/10.3.1/bits/stl_algobase.h **** #include <bits/predefined_ops.h>
  72:/Library/DaisyToolchain/0.2.0/arm/arm-none-eabi/include/c++/10.3.1/bits/stl_algobase.h **** #if __cplusplus >= 201103L
  73:/Library/DaisyToolchain/0.2.0/arm/arm-none-eabi/include/c++/10.3.1/bits/stl_algobase.h **** # include <type_traits>
  74:/Library/DaisyToolchain/0.2.0/arm/arm-none-eabi/include/c++/10.3.1/bits/stl_algobase.h **** #endif
  75:/Library/DaisyToolchain/0.2.0/arm/arm-none-eabi/include/c++/10.3.1/bits/stl_algobase.h **** #if __cplusplus > 201703L
  76:/Library/DaisyToolchain/0.2.0/arm/arm-none-eabi/include/c++/10.3.1/bits/stl_algobase.h **** # include <compare>
  77:/Library/DaisyToolchain/0.2.0/arm/arm-none-eabi/include/c++/10.3.1/bits/stl_algobase.h **** #endif
  78:/Library/DaisyToolchain/0.2.0/arm/arm-none-eabi/include/c++/10.3.1/bits/stl_algobase.h **** 
  79:/Library/DaisyToolchain/0.2.0/arm/arm-none-eabi/include/c++/10.3.1/bits/stl_algobase.h **** namespace std _GLIBCXX_VISIBILITY(default)
  80:/Library/DaisyToolchain/0.2.0/arm/arm-none-eabi/include/c++/10.3.1/bits/stl_algobase.h **** {
  81:/Library/DaisyToolchain/0.2.0/arm/arm-none-eabi/include/c++/10.3.1/bits/stl_algobase.h **** _GLIBCXX_BEGIN_NAMESPACE_VERSION
  82:/Library/DaisyToolchain/0.2.0/arm/arm-none-eabi/include/c++/10.3.1/bits/stl_algobase.h **** 
  83:/Library/DaisyToolchain/0.2.0/arm/arm-none-eabi/include/c++/10.3.1/bits/stl_algobase.h ****   /*
  84:/Library/DaisyToolchain/0.2.0/arm/arm-none-eabi/include/c++/10.3.1/bits/stl_algobase.h ****    * A constexpr wrapper for __builtin_memcmp.
  85:/Library/DaisyToolchain/0.2.0/arm/arm-none-eabi/include/c++/10.3.1/bits/stl_algobase.h ****    * @param __num The number of elements of type _Tp (not bytes).
  86:/Library/DaisyToolchain/0.2.0/arm/arm-none-eabi/include/c++/10.3.1/bits/stl_algobase.h ****    */
  87:/Library/DaisyToolchain/0.2.0/arm/arm-none-eabi/include/c++/10.3.1/bits/stl_algobase.h ****   template<typename _Tp, typename _Up>
  88:/Library/DaisyToolchain/0.2.0/arm/arm-none-eabi/include/c++/10.3.1/bits/stl_algobase.h ****     _GLIBCXX14_CONSTEXPR
  89:/Library/DaisyToolchain/0.2.0/arm/arm-none-eabi/include/c++/10.3.1/bits/stl_algobase.h ****     inline int
  90:/Library/DaisyToolchain/0.2.0/arm/arm-none-eabi/include/c++/10.3.1/bits/stl_algobase.h ****     __memcmp(const _Tp* __first1, const _Up* __first2, size_t __num)
  91:/Library/DaisyToolchain/0.2.0/arm/arm-none-eabi/include/c++/10.3.1/bits/stl_algobase.h ****     {
  92:/Library/DaisyToolchain/0.2.0/arm/arm-none-eabi/include/c++/10.3.1/bits/stl_algobase.h **** #if __cplusplus >= 201103L
  93:/Library/DaisyToolchain/0.2.0/arm/arm-none-eabi/include/c++/10.3.1/bits/stl_algobase.h ****       static_assert(sizeof(_Tp) == sizeof(_Up), "can be compared with memcmp");
  94:/Library/DaisyToolchain/0.2.0/arm/arm-none-eabi/include/c++/10.3.1/bits/stl_algobase.h **** #endif
  95:/Library/DaisyToolchain/0.2.0/arm/arm-none-eabi/include/c++/10.3.1/bits/stl_algobase.h **** #ifdef __cpp_lib_is_constant_evaluated
  96:/Library/DaisyToolchain/0.2.0/arm/arm-none-eabi/include/c++/10.3.1/bits/stl_algobase.h ****       if (std::is_constant_evaluated())
  97:/Library/DaisyToolchain/0.2.0/arm/arm-none-eabi/include/c++/10.3.1/bits/stl_algobase.h **** 	{
  98:/Library/DaisyToolchain/0.2.0/arm/arm-none-eabi/include/c++/10.3.1/bits/stl_algobase.h **** 	  for(; __num > 0; ++__first1, ++__first2, --__num)
  99:/Library/DaisyToolchain/0.2.0/arm/arm-none-eabi/include/c++/10.3.1/bits/stl_algobase.h **** 	    if (*__first1 != *__first2)
 100:/Library/DaisyToolchain/0.2.0/arm/arm-none-eabi/include/c++/10.3.1/bits/stl_algobase.h **** 	      return *__first1 < *__first2 ? -1 : 1;
 101:/Library/DaisyToolchain/0.2.0/arm/arm-none-eabi/include/c++/10.3.1/bits/stl_algobase.h **** 	  return 0;
 102:/Library/DaisyToolchain/0.2.0/arm/arm-none-eabi/include/c++/10.3.1/bits/stl_algobase.h **** 	}
 103:/Library/DaisyToolchain/0.2.0/arm/arm-none-eabi/include/c++/10.3.1/bits/stl_algobase.h ****       else
 104:/Library/DaisyToolchain/0.2.0/arm/arm-none-eabi/include/c++/10.3.1/bits/stl_algobase.h **** #endif
 105:/Library/DaisyToolchain/0.2.0/arm/arm-none-eabi/include/c++/10.3.1/bits/stl_algobase.h **** 	return __builtin_memcmp(__first1, __first2, sizeof(_Tp) * __num);
 106:/Library/DaisyToolchain/0.2.0/arm/arm-none-eabi/include/c++/10.3.1/bits/stl_algobase.h ****     }
 107:/Library/DaisyToolchain/0.2.0/arm/arm-none-eabi/include/c++/10.3.1/bits/stl_algobase.h **** 
 108:/Library/DaisyToolchain/0.2.0/arm/arm-none-eabi/include/c++/10.3.1/bits/stl_algobase.h **** #if __cplusplus < 201103L
 109:/Library/DaisyToolchain/0.2.0/arm/arm-none-eabi/include/c++/10.3.1/bits/stl_algobase.h ****   // See http://gcc.gnu.org/ml/libstdc++/2004-08/msg00167.html: in a
 110:/Library/DaisyToolchain/0.2.0/arm/arm-none-eabi/include/c++/10.3.1/bits/stl_algobase.h ****   // nutshell, we are partially implementing the resolution of DR 187,
 111:/Library/DaisyToolchain/0.2.0/arm/arm-none-eabi/include/c++/10.3.1/bits/stl_algobase.h ****   // when it's safe, i.e., the value_types are equal.
 112:/Library/DaisyToolchain/0.2.0/arm/arm-none-eabi/include/c++/10.3.1/bits/stl_algobase.h ****   template<bool _BoolType>
 113:/Library/DaisyToolchain/0.2.0/arm/arm-none-eabi/include/c++/10.3.1/bits/stl_algobase.h ****     struct __iter_swap
 114:/Library/DaisyToolchain/0.2.0/arm/arm-none-eabi/include/c++/10.3.1/bits/stl_algobase.h ****     {
 115:/Library/DaisyToolchain/0.2.0/arm/arm-none-eabi/include/c++/10.3.1/bits/stl_algobase.h ****       template<typename _ForwardIterator1, typename _ForwardIterator2>
 116:/Library/DaisyToolchain/0.2.0/arm/arm-none-eabi/include/c++/10.3.1/bits/stl_algobase.h **** 	static void
 117:/Library/DaisyToolchain/0.2.0/arm/arm-none-eabi/include/c++/10.3.1/bits/stl_algobase.h **** 	iter_swap(_ForwardIterator1 __a, _ForwardIterator2 __b)
 118:/Library/DaisyToolchain/0.2.0/arm/arm-none-eabi/include/c++/10.3.1/bits/stl_algobase.h **** 	{
 119:/Library/DaisyToolchain/0.2.0/arm/arm-none-eabi/include/c++/10.3.1/bits/stl_algobase.h **** 	  typedef typename iterator_traits<_ForwardIterator1>::value_type
 120:/Library/DaisyToolchain/0.2.0/arm/arm-none-eabi/include/c++/10.3.1/bits/stl_algobase.h **** 	    _ValueType1;
 121:/Library/DaisyToolchain/0.2.0/arm/arm-none-eabi/include/c++/10.3.1/bits/stl_algobase.h **** 	  _ValueType1 __tmp = *__a;
 122:/Library/DaisyToolchain/0.2.0/arm/arm-none-eabi/include/c++/10.3.1/bits/stl_algobase.h **** 	  *__a = *__b;
 123:/Library/DaisyToolchain/0.2.0/arm/arm-none-eabi/include/c++/10.3.1/bits/stl_algobase.h **** 	  *__b = __tmp;
 124:/Library/DaisyToolchain/0.2.0/arm/arm-none-eabi/include/c++/10.3.1/bits/stl_algobase.h **** 	}
ARM GAS  /var/folders/9s/8rp0_f2s1n31qbztm3b5_fdh0000gn/T//cc5SCkU0.s 			page 11


 125:/Library/DaisyToolchain/0.2.0/arm/arm-none-eabi/include/c++/10.3.1/bits/stl_algobase.h ****     };
 126:/Library/DaisyToolchain/0.2.0/arm/arm-none-eabi/include/c++/10.3.1/bits/stl_algobase.h **** 
 127:/Library/DaisyToolchain/0.2.0/arm/arm-none-eabi/include/c++/10.3.1/bits/stl_algobase.h ****   template<>
 128:/Library/DaisyToolchain/0.2.0/arm/arm-none-eabi/include/c++/10.3.1/bits/stl_algobase.h ****     struct __iter_swap<true>
 129:/Library/DaisyToolchain/0.2.0/arm/arm-none-eabi/include/c++/10.3.1/bits/stl_algobase.h ****     {
 130:/Library/DaisyToolchain/0.2.0/arm/arm-none-eabi/include/c++/10.3.1/bits/stl_algobase.h ****       template<typename _ForwardIterator1, typename _ForwardIterator2>
 131:/Library/DaisyToolchain/0.2.0/arm/arm-none-eabi/include/c++/10.3.1/bits/stl_algobase.h **** 	static void
 132:/Library/DaisyToolchain/0.2.0/arm/arm-none-eabi/include/c++/10.3.1/bits/stl_algobase.h **** 	iter_swap(_ForwardIterator1 __a, _ForwardIterator2 __b)
 133:/Library/DaisyToolchain/0.2.0/arm/arm-none-eabi/include/c++/10.3.1/bits/stl_algobase.h **** 	{
 134:/Library/DaisyToolchain/0.2.0/arm/arm-none-eabi/include/c++/10.3.1/bits/stl_algobase.h **** 	  swap(*__a, *__b);
 135:/Library/DaisyToolchain/0.2.0/arm/arm-none-eabi/include/c++/10.3.1/bits/stl_algobase.h **** 	}
 136:/Library/DaisyToolchain/0.2.0/arm/arm-none-eabi/include/c++/10.3.1/bits/stl_algobase.h ****     };
 137:/Library/DaisyToolchain/0.2.0/arm/arm-none-eabi/include/c++/10.3.1/bits/stl_algobase.h **** #endif // C++03
 138:/Library/DaisyToolchain/0.2.0/arm/arm-none-eabi/include/c++/10.3.1/bits/stl_algobase.h **** 
 139:/Library/DaisyToolchain/0.2.0/arm/arm-none-eabi/include/c++/10.3.1/bits/stl_algobase.h ****   /**
 140:/Library/DaisyToolchain/0.2.0/arm/arm-none-eabi/include/c++/10.3.1/bits/stl_algobase.h ****    *  @brief Swaps the contents of two iterators.
 141:/Library/DaisyToolchain/0.2.0/arm/arm-none-eabi/include/c++/10.3.1/bits/stl_algobase.h ****    *  @ingroup mutating_algorithms
 142:/Library/DaisyToolchain/0.2.0/arm/arm-none-eabi/include/c++/10.3.1/bits/stl_algobase.h ****    *  @param  __a  An iterator.
 143:/Library/DaisyToolchain/0.2.0/arm/arm-none-eabi/include/c++/10.3.1/bits/stl_algobase.h ****    *  @param  __b  Another iterator.
 144:/Library/DaisyToolchain/0.2.0/arm/arm-none-eabi/include/c++/10.3.1/bits/stl_algobase.h ****    *  @return   Nothing.
 145:/Library/DaisyToolchain/0.2.0/arm/arm-none-eabi/include/c++/10.3.1/bits/stl_algobase.h ****    *
 146:/Library/DaisyToolchain/0.2.0/arm/arm-none-eabi/include/c++/10.3.1/bits/stl_algobase.h ****    *  This function swaps the values pointed to by two iterators, not the
 147:/Library/DaisyToolchain/0.2.0/arm/arm-none-eabi/include/c++/10.3.1/bits/stl_algobase.h ****    *  iterators themselves.
 148:/Library/DaisyToolchain/0.2.0/arm/arm-none-eabi/include/c++/10.3.1/bits/stl_algobase.h ****   */
 149:/Library/DaisyToolchain/0.2.0/arm/arm-none-eabi/include/c++/10.3.1/bits/stl_algobase.h ****   template<typename _ForwardIterator1, typename _ForwardIterator2>
 150:/Library/DaisyToolchain/0.2.0/arm/arm-none-eabi/include/c++/10.3.1/bits/stl_algobase.h ****     _GLIBCXX20_CONSTEXPR
 151:/Library/DaisyToolchain/0.2.0/arm/arm-none-eabi/include/c++/10.3.1/bits/stl_algobase.h ****     inline void
 152:/Library/DaisyToolchain/0.2.0/arm/arm-none-eabi/include/c++/10.3.1/bits/stl_algobase.h ****     iter_swap(_ForwardIterator1 __a, _ForwardIterator2 __b)
 153:/Library/DaisyToolchain/0.2.0/arm/arm-none-eabi/include/c++/10.3.1/bits/stl_algobase.h ****     {
 154:/Library/DaisyToolchain/0.2.0/arm/arm-none-eabi/include/c++/10.3.1/bits/stl_algobase.h ****       // concept requirements
 155:/Library/DaisyToolchain/0.2.0/arm/arm-none-eabi/include/c++/10.3.1/bits/stl_algobase.h ****       __glibcxx_function_requires(_Mutable_ForwardIteratorConcept<
 156:/Library/DaisyToolchain/0.2.0/arm/arm-none-eabi/include/c++/10.3.1/bits/stl_algobase.h **** 				  _ForwardIterator1>)
 157:/Library/DaisyToolchain/0.2.0/arm/arm-none-eabi/include/c++/10.3.1/bits/stl_algobase.h ****       __glibcxx_function_requires(_Mutable_ForwardIteratorConcept<
 158:/Library/DaisyToolchain/0.2.0/arm/arm-none-eabi/include/c++/10.3.1/bits/stl_algobase.h **** 				  _ForwardIterator2>)
 159:/Library/DaisyToolchain/0.2.0/arm/arm-none-eabi/include/c++/10.3.1/bits/stl_algobase.h **** 
 160:/Library/DaisyToolchain/0.2.0/arm/arm-none-eabi/include/c++/10.3.1/bits/stl_algobase.h **** #if __cplusplus < 201103L
 161:/Library/DaisyToolchain/0.2.0/arm/arm-none-eabi/include/c++/10.3.1/bits/stl_algobase.h ****       typedef typename iterator_traits<_ForwardIterator1>::value_type
 162:/Library/DaisyToolchain/0.2.0/arm/arm-none-eabi/include/c++/10.3.1/bits/stl_algobase.h **** 	_ValueType1;
 163:/Library/DaisyToolchain/0.2.0/arm/arm-none-eabi/include/c++/10.3.1/bits/stl_algobase.h ****       typedef typename iterator_traits<_ForwardIterator2>::value_type
 164:/Library/DaisyToolchain/0.2.0/arm/arm-none-eabi/include/c++/10.3.1/bits/stl_algobase.h **** 	_ValueType2;
 165:/Library/DaisyToolchain/0.2.0/arm/arm-none-eabi/include/c++/10.3.1/bits/stl_algobase.h **** 
 166:/Library/DaisyToolchain/0.2.0/arm/arm-none-eabi/include/c++/10.3.1/bits/stl_algobase.h ****       __glibcxx_function_requires(_ConvertibleConcept<_ValueType1,
 167:/Library/DaisyToolchain/0.2.0/arm/arm-none-eabi/include/c++/10.3.1/bits/stl_algobase.h **** 				  _ValueType2>)
 168:/Library/DaisyToolchain/0.2.0/arm/arm-none-eabi/include/c++/10.3.1/bits/stl_algobase.h ****       __glibcxx_function_requires(_ConvertibleConcept<_ValueType2,
 169:/Library/DaisyToolchain/0.2.0/arm/arm-none-eabi/include/c++/10.3.1/bits/stl_algobase.h **** 				  _ValueType1>)
 170:/Library/DaisyToolchain/0.2.0/arm/arm-none-eabi/include/c++/10.3.1/bits/stl_algobase.h **** 
 171:/Library/DaisyToolchain/0.2.0/arm/arm-none-eabi/include/c++/10.3.1/bits/stl_algobase.h ****       typedef typename iterator_traits<_ForwardIterator1>::reference
 172:/Library/DaisyToolchain/0.2.0/arm/arm-none-eabi/include/c++/10.3.1/bits/stl_algobase.h **** 	_ReferenceType1;
 173:/Library/DaisyToolchain/0.2.0/arm/arm-none-eabi/include/c++/10.3.1/bits/stl_algobase.h ****       typedef typename iterator_traits<_ForwardIterator2>::reference
 174:/Library/DaisyToolchain/0.2.0/arm/arm-none-eabi/include/c++/10.3.1/bits/stl_algobase.h **** 	_ReferenceType2;
 175:/Library/DaisyToolchain/0.2.0/arm/arm-none-eabi/include/c++/10.3.1/bits/stl_algobase.h ****       std::__iter_swap<__are_same<_ValueType1, _ValueType2>::__value
 176:/Library/DaisyToolchain/0.2.0/arm/arm-none-eabi/include/c++/10.3.1/bits/stl_algobase.h **** 	&& __are_same<_ValueType1&, _ReferenceType1>::__value
 177:/Library/DaisyToolchain/0.2.0/arm/arm-none-eabi/include/c++/10.3.1/bits/stl_algobase.h **** 	&& __are_same<_ValueType2&, _ReferenceType2>::__value>::
 178:/Library/DaisyToolchain/0.2.0/arm/arm-none-eabi/include/c++/10.3.1/bits/stl_algobase.h **** 	iter_swap(__a, __b);
 179:/Library/DaisyToolchain/0.2.0/arm/arm-none-eabi/include/c++/10.3.1/bits/stl_algobase.h **** #else
 180:/Library/DaisyToolchain/0.2.0/arm/arm-none-eabi/include/c++/10.3.1/bits/stl_algobase.h ****       // _GLIBCXX_RESOLVE_LIB_DEFECTS
 181:/Library/DaisyToolchain/0.2.0/arm/arm-none-eabi/include/c++/10.3.1/bits/stl_algobase.h ****       // 187. iter_swap underspecified
ARM GAS  /var/folders/9s/8rp0_f2s1n31qbztm3b5_fdh0000gn/T//cc5SCkU0.s 			page 12


 182:/Library/DaisyToolchain/0.2.0/arm/arm-none-eabi/include/c++/10.3.1/bits/stl_algobase.h ****       swap(*__a, *__b);
 183:/Library/DaisyToolchain/0.2.0/arm/arm-none-eabi/include/c++/10.3.1/bits/stl_algobase.h **** #endif
 184:/Library/DaisyToolchain/0.2.0/arm/arm-none-eabi/include/c++/10.3.1/bits/stl_algobase.h ****     }
 185:/Library/DaisyToolchain/0.2.0/arm/arm-none-eabi/include/c++/10.3.1/bits/stl_algobase.h **** 
 186:/Library/DaisyToolchain/0.2.0/arm/arm-none-eabi/include/c++/10.3.1/bits/stl_algobase.h ****   /**
 187:/Library/DaisyToolchain/0.2.0/arm/arm-none-eabi/include/c++/10.3.1/bits/stl_algobase.h ****    *  @brief Swap the elements of two sequences.
 188:/Library/DaisyToolchain/0.2.0/arm/arm-none-eabi/include/c++/10.3.1/bits/stl_algobase.h ****    *  @ingroup mutating_algorithms
 189:/Library/DaisyToolchain/0.2.0/arm/arm-none-eabi/include/c++/10.3.1/bits/stl_algobase.h ****    *  @param  __first1  A forward iterator.
 190:/Library/DaisyToolchain/0.2.0/arm/arm-none-eabi/include/c++/10.3.1/bits/stl_algobase.h ****    *  @param  __last1   A forward iterator.
 191:/Library/DaisyToolchain/0.2.0/arm/arm-none-eabi/include/c++/10.3.1/bits/stl_algobase.h ****    *  @param  __first2  A forward iterator.
 192:/Library/DaisyToolchain/0.2.0/arm/arm-none-eabi/include/c++/10.3.1/bits/stl_algobase.h ****    *  @return   An iterator equal to @p first2+(last1-first1).
 193:/Library/DaisyToolchain/0.2.0/arm/arm-none-eabi/include/c++/10.3.1/bits/stl_algobase.h ****    *
 194:/Library/DaisyToolchain/0.2.0/arm/arm-none-eabi/include/c++/10.3.1/bits/stl_algobase.h ****    *  Swaps each element in the range @p [first1,last1) with the
 195:/Library/DaisyToolchain/0.2.0/arm/arm-none-eabi/include/c++/10.3.1/bits/stl_algobase.h ****    *  corresponding element in the range @p [first2,(last1-first1)).
 196:/Library/DaisyToolchain/0.2.0/arm/arm-none-eabi/include/c++/10.3.1/bits/stl_algobase.h ****    *  The ranges must not overlap.
 197:/Library/DaisyToolchain/0.2.0/arm/arm-none-eabi/include/c++/10.3.1/bits/stl_algobase.h ****   */
 198:/Library/DaisyToolchain/0.2.0/arm/arm-none-eabi/include/c++/10.3.1/bits/stl_algobase.h ****   template<typename _ForwardIterator1, typename _ForwardIterator2>
 199:/Library/DaisyToolchain/0.2.0/arm/arm-none-eabi/include/c++/10.3.1/bits/stl_algobase.h ****     _GLIBCXX20_CONSTEXPR
 200:/Library/DaisyToolchain/0.2.0/arm/arm-none-eabi/include/c++/10.3.1/bits/stl_algobase.h ****     _ForwardIterator2
 201:/Library/DaisyToolchain/0.2.0/arm/arm-none-eabi/include/c++/10.3.1/bits/stl_algobase.h ****     swap_ranges(_ForwardIterator1 __first1, _ForwardIterator1 __last1,
 202:/Library/DaisyToolchain/0.2.0/arm/arm-none-eabi/include/c++/10.3.1/bits/stl_algobase.h **** 		_ForwardIterator2 __first2)
 203:/Library/DaisyToolchain/0.2.0/arm/arm-none-eabi/include/c++/10.3.1/bits/stl_algobase.h ****     {
 204:/Library/DaisyToolchain/0.2.0/arm/arm-none-eabi/include/c++/10.3.1/bits/stl_algobase.h ****       // concept requirements
 205:/Library/DaisyToolchain/0.2.0/arm/arm-none-eabi/include/c++/10.3.1/bits/stl_algobase.h ****       __glibcxx_function_requires(_Mutable_ForwardIteratorConcept<
 206:/Library/DaisyToolchain/0.2.0/arm/arm-none-eabi/include/c++/10.3.1/bits/stl_algobase.h **** 				  _ForwardIterator1>)
 207:/Library/DaisyToolchain/0.2.0/arm/arm-none-eabi/include/c++/10.3.1/bits/stl_algobase.h ****       __glibcxx_function_requires(_Mutable_ForwardIteratorConcept<
 208:/Library/DaisyToolchain/0.2.0/arm/arm-none-eabi/include/c++/10.3.1/bits/stl_algobase.h **** 				  _ForwardIterator2>)
 209:/Library/DaisyToolchain/0.2.0/arm/arm-none-eabi/include/c++/10.3.1/bits/stl_algobase.h ****       __glibcxx_requires_valid_range(__first1, __last1);
 210:/Library/DaisyToolchain/0.2.0/arm/arm-none-eabi/include/c++/10.3.1/bits/stl_algobase.h **** 
 211:/Library/DaisyToolchain/0.2.0/arm/arm-none-eabi/include/c++/10.3.1/bits/stl_algobase.h ****       for (; __first1 != __last1; ++__first1, (void)++__first2)
 212:/Library/DaisyToolchain/0.2.0/arm/arm-none-eabi/include/c++/10.3.1/bits/stl_algobase.h **** 	std::iter_swap(__first1, __first2);
 213:/Library/DaisyToolchain/0.2.0/arm/arm-none-eabi/include/c++/10.3.1/bits/stl_algobase.h ****       return __first2;
 214:/Library/DaisyToolchain/0.2.0/arm/arm-none-eabi/include/c++/10.3.1/bits/stl_algobase.h ****     }
 215:/Library/DaisyToolchain/0.2.0/arm/arm-none-eabi/include/c++/10.3.1/bits/stl_algobase.h **** 
 216:/Library/DaisyToolchain/0.2.0/arm/arm-none-eabi/include/c++/10.3.1/bits/stl_algobase.h ****   /**
 217:/Library/DaisyToolchain/0.2.0/arm/arm-none-eabi/include/c++/10.3.1/bits/stl_algobase.h ****    *  @brief This does what you think it does.
 218:/Library/DaisyToolchain/0.2.0/arm/arm-none-eabi/include/c++/10.3.1/bits/stl_algobase.h ****    *  @ingroup sorting_algorithms
 219:/Library/DaisyToolchain/0.2.0/arm/arm-none-eabi/include/c++/10.3.1/bits/stl_algobase.h ****    *  @param  __a  A thing of arbitrary type.
 220:/Library/DaisyToolchain/0.2.0/arm/arm-none-eabi/include/c++/10.3.1/bits/stl_algobase.h ****    *  @param  __b  Another thing of arbitrary type.
 221:/Library/DaisyToolchain/0.2.0/arm/arm-none-eabi/include/c++/10.3.1/bits/stl_algobase.h ****    *  @return   The lesser of the parameters.
 222:/Library/DaisyToolchain/0.2.0/arm/arm-none-eabi/include/c++/10.3.1/bits/stl_algobase.h ****    *
 223:/Library/DaisyToolchain/0.2.0/arm/arm-none-eabi/include/c++/10.3.1/bits/stl_algobase.h ****    *  This is the simple classic generic implementation.  It will work on
 224:/Library/DaisyToolchain/0.2.0/arm/arm-none-eabi/include/c++/10.3.1/bits/stl_algobase.h ****    *  temporary expressions, since they are only evaluated once, unlike a
 225:/Library/DaisyToolchain/0.2.0/arm/arm-none-eabi/include/c++/10.3.1/bits/stl_algobase.h ****    *  preprocessor macro.
 226:/Library/DaisyToolchain/0.2.0/arm/arm-none-eabi/include/c++/10.3.1/bits/stl_algobase.h ****   */
 227:/Library/DaisyToolchain/0.2.0/arm/arm-none-eabi/include/c++/10.3.1/bits/stl_algobase.h ****   template<typename _Tp>
 228:/Library/DaisyToolchain/0.2.0/arm/arm-none-eabi/include/c++/10.3.1/bits/stl_algobase.h ****     _GLIBCXX14_CONSTEXPR
 229:/Library/DaisyToolchain/0.2.0/arm/arm-none-eabi/include/c++/10.3.1/bits/stl_algobase.h ****     inline const _Tp&
 230:/Library/DaisyToolchain/0.2.0/arm/arm-none-eabi/include/c++/10.3.1/bits/stl_algobase.h ****     min(const _Tp& __a, const _Tp& __b)
 231:/Library/DaisyToolchain/0.2.0/arm/arm-none-eabi/include/c++/10.3.1/bits/stl_algobase.h ****     {
 232:/Library/DaisyToolchain/0.2.0/arm/arm-none-eabi/include/c++/10.3.1/bits/stl_algobase.h ****       // concept requirements
 233:/Library/DaisyToolchain/0.2.0/arm/arm-none-eabi/include/c++/10.3.1/bits/stl_algobase.h ****       __glibcxx_function_requires(_LessThanComparableConcept<_Tp>)
 234:/Library/DaisyToolchain/0.2.0/arm/arm-none-eabi/include/c++/10.3.1/bits/stl_algobase.h ****       //return __b < __a ? __b : __a;
 235:/Library/DaisyToolchain/0.2.0/arm/arm-none-eabi/include/c++/10.3.1/bits/stl_algobase.h ****       if (__b < __a)
 236:/Library/DaisyToolchain/0.2.0/arm/arm-none-eabi/include/c++/10.3.1/bits/stl_algobase.h **** 	return __b;
 237:/Library/DaisyToolchain/0.2.0/arm/arm-none-eabi/include/c++/10.3.1/bits/stl_algobase.h ****       return __a;
 238:/Library/DaisyToolchain/0.2.0/arm/arm-none-eabi/include/c++/10.3.1/bits/stl_algobase.h ****     }
ARM GAS  /var/folders/9s/8rp0_f2s1n31qbztm3b5_fdh0000gn/T//cc5SCkU0.s 			page 13


 239:/Library/DaisyToolchain/0.2.0/arm/arm-none-eabi/include/c++/10.3.1/bits/stl_algobase.h **** 
 240:/Library/DaisyToolchain/0.2.0/arm/arm-none-eabi/include/c++/10.3.1/bits/stl_algobase.h ****   /**
 241:/Library/DaisyToolchain/0.2.0/arm/arm-none-eabi/include/c++/10.3.1/bits/stl_algobase.h ****    *  @brief This does what you think it does.
 242:/Library/DaisyToolchain/0.2.0/arm/arm-none-eabi/include/c++/10.3.1/bits/stl_algobase.h ****    *  @ingroup sorting_algorithms
 243:/Library/DaisyToolchain/0.2.0/arm/arm-none-eabi/include/c++/10.3.1/bits/stl_algobase.h ****    *  @param  __a  A thing of arbitrary type.
 244:/Library/DaisyToolchain/0.2.0/arm/arm-none-eabi/include/c++/10.3.1/bits/stl_algobase.h ****    *  @param  __b  Another thing of arbitrary type.
 245:/Library/DaisyToolchain/0.2.0/arm/arm-none-eabi/include/c++/10.3.1/bits/stl_algobase.h ****    *  @return   The greater of the parameters.
 246:/Library/DaisyToolchain/0.2.0/arm/arm-none-eabi/include/c++/10.3.1/bits/stl_algobase.h ****    *
 247:/Library/DaisyToolchain/0.2.0/arm/arm-none-eabi/include/c++/10.3.1/bits/stl_algobase.h ****    *  This is the simple classic generic implementation.  It will work on
 248:/Library/DaisyToolchain/0.2.0/arm/arm-none-eabi/include/c++/10.3.1/bits/stl_algobase.h ****    *  temporary expressions, since they are only evaluated once, unlike a
 249:/Library/DaisyToolchain/0.2.0/arm/arm-none-eabi/include/c++/10.3.1/bits/stl_algobase.h ****    *  preprocessor macro.
 250:/Library/DaisyToolchain/0.2.0/arm/arm-none-eabi/include/c++/10.3.1/bits/stl_algobase.h ****   */
 251:/Library/DaisyToolchain/0.2.0/arm/arm-none-eabi/include/c++/10.3.1/bits/stl_algobase.h ****   template<typename _Tp>
 252:/Library/DaisyToolchain/0.2.0/arm/arm-none-eabi/include/c++/10.3.1/bits/stl_algobase.h ****     _GLIBCXX14_CONSTEXPR
 253:/Library/DaisyToolchain/0.2.0/arm/arm-none-eabi/include/c++/10.3.1/bits/stl_algobase.h ****     inline const _Tp&
 254:/Library/DaisyToolchain/0.2.0/arm/arm-none-eabi/include/c++/10.3.1/bits/stl_algobase.h ****     max(const _Tp& __a, const _Tp& __b)
 255:/Library/DaisyToolchain/0.2.0/arm/arm-none-eabi/include/c++/10.3.1/bits/stl_algobase.h ****     {
 256:/Library/DaisyToolchain/0.2.0/arm/arm-none-eabi/include/c++/10.3.1/bits/stl_algobase.h ****       // concept requirements
 257:/Library/DaisyToolchain/0.2.0/arm/arm-none-eabi/include/c++/10.3.1/bits/stl_algobase.h ****       __glibcxx_function_requires(_LessThanComparableConcept<_Tp>)
 258:/Library/DaisyToolchain/0.2.0/arm/arm-none-eabi/include/c++/10.3.1/bits/stl_algobase.h ****       //return  __a < __b ? __b : __a;
 259:/Library/DaisyToolchain/0.2.0/arm/arm-none-eabi/include/c++/10.3.1/bits/stl_algobase.h ****       if (__a < __b)
 260:/Library/DaisyToolchain/0.2.0/arm/arm-none-eabi/include/c++/10.3.1/bits/stl_algobase.h **** 	return __b;
 261:/Library/DaisyToolchain/0.2.0/arm/arm-none-eabi/include/c++/10.3.1/bits/stl_algobase.h ****       return __a;
 262:/Library/DaisyToolchain/0.2.0/arm/arm-none-eabi/include/c++/10.3.1/bits/stl_algobase.h ****     }
 263:/Library/DaisyToolchain/0.2.0/arm/arm-none-eabi/include/c++/10.3.1/bits/stl_algobase.h **** 
 264:/Library/DaisyToolchain/0.2.0/arm/arm-none-eabi/include/c++/10.3.1/bits/stl_algobase.h ****   /**
 265:/Library/DaisyToolchain/0.2.0/arm/arm-none-eabi/include/c++/10.3.1/bits/stl_algobase.h ****    *  @brief This does what you think it does.
 266:/Library/DaisyToolchain/0.2.0/arm/arm-none-eabi/include/c++/10.3.1/bits/stl_algobase.h ****    *  @ingroup sorting_algorithms
 267:/Library/DaisyToolchain/0.2.0/arm/arm-none-eabi/include/c++/10.3.1/bits/stl_algobase.h ****    *  @param  __a  A thing of arbitrary type.
 268:/Library/DaisyToolchain/0.2.0/arm/arm-none-eabi/include/c++/10.3.1/bits/stl_algobase.h ****    *  @param  __b  Another thing of arbitrary type.
 269:/Library/DaisyToolchain/0.2.0/arm/arm-none-eabi/include/c++/10.3.1/bits/stl_algobase.h ****    *  @param  __comp  A @link comparison_functors comparison functor@endlink.
 270:/Library/DaisyToolchain/0.2.0/arm/arm-none-eabi/include/c++/10.3.1/bits/stl_algobase.h ****    *  @return   The lesser of the parameters.
 271:/Library/DaisyToolchain/0.2.0/arm/arm-none-eabi/include/c++/10.3.1/bits/stl_algobase.h ****    *
 272:/Library/DaisyToolchain/0.2.0/arm/arm-none-eabi/include/c++/10.3.1/bits/stl_algobase.h ****    *  This will work on temporary expressions, since they are only evaluated
 273:/Library/DaisyToolchain/0.2.0/arm/arm-none-eabi/include/c++/10.3.1/bits/stl_algobase.h ****    *  once, unlike a preprocessor macro.
 274:/Library/DaisyToolchain/0.2.0/arm/arm-none-eabi/include/c++/10.3.1/bits/stl_algobase.h ****   */
 275:/Library/DaisyToolchain/0.2.0/arm/arm-none-eabi/include/c++/10.3.1/bits/stl_algobase.h ****   template<typename _Tp, typename _Compare>
 276:/Library/DaisyToolchain/0.2.0/arm/arm-none-eabi/include/c++/10.3.1/bits/stl_algobase.h ****     _GLIBCXX14_CONSTEXPR
 277:/Library/DaisyToolchain/0.2.0/arm/arm-none-eabi/include/c++/10.3.1/bits/stl_algobase.h ****     inline const _Tp&
 278:/Library/DaisyToolchain/0.2.0/arm/arm-none-eabi/include/c++/10.3.1/bits/stl_algobase.h ****     min(const _Tp& __a, const _Tp& __b, _Compare __comp)
 279:/Library/DaisyToolchain/0.2.0/arm/arm-none-eabi/include/c++/10.3.1/bits/stl_algobase.h ****     {
 280:/Library/DaisyToolchain/0.2.0/arm/arm-none-eabi/include/c++/10.3.1/bits/stl_algobase.h ****       //return __comp(__b, __a) ? __b : __a;
 281:/Library/DaisyToolchain/0.2.0/arm/arm-none-eabi/include/c++/10.3.1/bits/stl_algobase.h ****       if (__comp(__b, __a))
 282:/Library/DaisyToolchain/0.2.0/arm/arm-none-eabi/include/c++/10.3.1/bits/stl_algobase.h **** 	return __b;
 283:/Library/DaisyToolchain/0.2.0/arm/arm-none-eabi/include/c++/10.3.1/bits/stl_algobase.h ****       return __a;
 284:/Library/DaisyToolchain/0.2.0/arm/arm-none-eabi/include/c++/10.3.1/bits/stl_algobase.h ****     }
 285:/Library/DaisyToolchain/0.2.0/arm/arm-none-eabi/include/c++/10.3.1/bits/stl_algobase.h **** 
 286:/Library/DaisyToolchain/0.2.0/arm/arm-none-eabi/include/c++/10.3.1/bits/stl_algobase.h ****   /**
 287:/Library/DaisyToolchain/0.2.0/arm/arm-none-eabi/include/c++/10.3.1/bits/stl_algobase.h ****    *  @brief This does what you think it does.
 288:/Library/DaisyToolchain/0.2.0/arm/arm-none-eabi/include/c++/10.3.1/bits/stl_algobase.h ****    *  @ingroup sorting_algorithms
 289:/Library/DaisyToolchain/0.2.0/arm/arm-none-eabi/include/c++/10.3.1/bits/stl_algobase.h ****    *  @param  __a  A thing of arbitrary type.
 290:/Library/DaisyToolchain/0.2.0/arm/arm-none-eabi/include/c++/10.3.1/bits/stl_algobase.h ****    *  @param  __b  Another thing of arbitrary type.
 291:/Library/DaisyToolchain/0.2.0/arm/arm-none-eabi/include/c++/10.3.1/bits/stl_algobase.h ****    *  @param  __comp  A @link comparison_functors comparison functor@endlink.
 292:/Library/DaisyToolchain/0.2.0/arm/arm-none-eabi/include/c++/10.3.1/bits/stl_algobase.h ****    *  @return   The greater of the parameters.
 293:/Library/DaisyToolchain/0.2.0/arm/arm-none-eabi/include/c++/10.3.1/bits/stl_algobase.h ****    *
 294:/Library/DaisyToolchain/0.2.0/arm/arm-none-eabi/include/c++/10.3.1/bits/stl_algobase.h ****    *  This will work on temporary expressions, since they are only evaluated
 295:/Library/DaisyToolchain/0.2.0/arm/arm-none-eabi/include/c++/10.3.1/bits/stl_algobase.h ****    *  once, unlike a preprocessor macro.
ARM GAS  /var/folders/9s/8rp0_f2s1n31qbztm3b5_fdh0000gn/T//cc5SCkU0.s 			page 14


 296:/Library/DaisyToolchain/0.2.0/arm/arm-none-eabi/include/c++/10.3.1/bits/stl_algobase.h ****   */
 297:/Library/DaisyToolchain/0.2.0/arm/arm-none-eabi/include/c++/10.3.1/bits/stl_algobase.h ****   template<typename _Tp, typename _Compare>
 298:/Library/DaisyToolchain/0.2.0/arm/arm-none-eabi/include/c++/10.3.1/bits/stl_algobase.h ****     _GLIBCXX14_CONSTEXPR
 299:/Library/DaisyToolchain/0.2.0/arm/arm-none-eabi/include/c++/10.3.1/bits/stl_algobase.h ****     inline const _Tp&
 300:/Library/DaisyToolchain/0.2.0/arm/arm-none-eabi/include/c++/10.3.1/bits/stl_algobase.h ****     max(const _Tp& __a, const _Tp& __b, _Compare __comp)
 301:/Library/DaisyToolchain/0.2.0/arm/arm-none-eabi/include/c++/10.3.1/bits/stl_algobase.h ****     {
 302:/Library/DaisyToolchain/0.2.0/arm/arm-none-eabi/include/c++/10.3.1/bits/stl_algobase.h ****       //return __comp(__a, __b) ? __b : __a;
 303:/Library/DaisyToolchain/0.2.0/arm/arm-none-eabi/include/c++/10.3.1/bits/stl_algobase.h ****       if (__comp(__a, __b))
 304:/Library/DaisyToolchain/0.2.0/arm/arm-none-eabi/include/c++/10.3.1/bits/stl_algobase.h **** 	return __b;
 305:/Library/DaisyToolchain/0.2.0/arm/arm-none-eabi/include/c++/10.3.1/bits/stl_algobase.h ****       return __a;
 306:/Library/DaisyToolchain/0.2.0/arm/arm-none-eabi/include/c++/10.3.1/bits/stl_algobase.h ****     }
 307:/Library/DaisyToolchain/0.2.0/arm/arm-none-eabi/include/c++/10.3.1/bits/stl_algobase.h **** 
 308:/Library/DaisyToolchain/0.2.0/arm/arm-none-eabi/include/c++/10.3.1/bits/stl_algobase.h ****   // Fallback implementation of the function in bits/stl_iterator.h used to
 309:/Library/DaisyToolchain/0.2.0/arm/arm-none-eabi/include/c++/10.3.1/bits/stl_algobase.h ****   // remove the __normal_iterator wrapper. See copy, fill, ...
 310:/Library/DaisyToolchain/0.2.0/arm/arm-none-eabi/include/c++/10.3.1/bits/stl_algobase.h ****   template<typename _Iterator>
 311:/Library/DaisyToolchain/0.2.0/arm/arm-none-eabi/include/c++/10.3.1/bits/stl_algobase.h ****     _GLIBCXX20_CONSTEXPR
 312:/Library/DaisyToolchain/0.2.0/arm/arm-none-eabi/include/c++/10.3.1/bits/stl_algobase.h ****     inline _Iterator
 313:/Library/DaisyToolchain/0.2.0/arm/arm-none-eabi/include/c++/10.3.1/bits/stl_algobase.h ****     __niter_base(_Iterator __it)
 314:/Library/DaisyToolchain/0.2.0/arm/arm-none-eabi/include/c++/10.3.1/bits/stl_algobase.h ****     _GLIBCXX_NOEXCEPT_IF(std::is_nothrow_copy_constructible<_Iterator>::value)
 315:/Library/DaisyToolchain/0.2.0/arm/arm-none-eabi/include/c++/10.3.1/bits/stl_algobase.h ****     { return __it; }
 316:/Library/DaisyToolchain/0.2.0/arm/arm-none-eabi/include/c++/10.3.1/bits/stl_algobase.h **** 
 317:/Library/DaisyToolchain/0.2.0/arm/arm-none-eabi/include/c++/10.3.1/bits/stl_algobase.h ****   // Reverse the __niter_base transformation to get a
 318:/Library/DaisyToolchain/0.2.0/arm/arm-none-eabi/include/c++/10.3.1/bits/stl_algobase.h ****   // __normal_iterator back again (this assumes that __normal_iterator
 319:/Library/DaisyToolchain/0.2.0/arm/arm-none-eabi/include/c++/10.3.1/bits/stl_algobase.h ****   // is only used to wrap random access iterators, like pointers).
 320:/Library/DaisyToolchain/0.2.0/arm/arm-none-eabi/include/c++/10.3.1/bits/stl_algobase.h ****   template<typename _From, typename _To>
 321:/Library/DaisyToolchain/0.2.0/arm/arm-none-eabi/include/c++/10.3.1/bits/stl_algobase.h ****     _GLIBCXX20_CONSTEXPR
 322:/Library/DaisyToolchain/0.2.0/arm/arm-none-eabi/include/c++/10.3.1/bits/stl_algobase.h ****     inline _From
 323:/Library/DaisyToolchain/0.2.0/arm/arm-none-eabi/include/c++/10.3.1/bits/stl_algobase.h ****     __niter_wrap(_From __from, _To __res)
 324:/Library/DaisyToolchain/0.2.0/arm/arm-none-eabi/include/c++/10.3.1/bits/stl_algobase.h ****     { return __from + (__res - std::__niter_base(__from)); }
 325:/Library/DaisyToolchain/0.2.0/arm/arm-none-eabi/include/c++/10.3.1/bits/stl_algobase.h **** 
 326:/Library/DaisyToolchain/0.2.0/arm/arm-none-eabi/include/c++/10.3.1/bits/stl_algobase.h ****   // No need to wrap, iterator already has the right type.
 327:/Library/DaisyToolchain/0.2.0/arm/arm-none-eabi/include/c++/10.3.1/bits/stl_algobase.h ****   template<typename _Iterator>
 328:/Library/DaisyToolchain/0.2.0/arm/arm-none-eabi/include/c++/10.3.1/bits/stl_algobase.h ****     _GLIBCXX20_CONSTEXPR
 329:/Library/DaisyToolchain/0.2.0/arm/arm-none-eabi/include/c++/10.3.1/bits/stl_algobase.h ****     inline _Iterator
 330:/Library/DaisyToolchain/0.2.0/arm/arm-none-eabi/include/c++/10.3.1/bits/stl_algobase.h ****     __niter_wrap(const _Iterator&, _Iterator __res)
 331:/Library/DaisyToolchain/0.2.0/arm/arm-none-eabi/include/c++/10.3.1/bits/stl_algobase.h ****     { return __res; }
 332:/Library/DaisyToolchain/0.2.0/arm/arm-none-eabi/include/c++/10.3.1/bits/stl_algobase.h **** 
 333:/Library/DaisyToolchain/0.2.0/arm/arm-none-eabi/include/c++/10.3.1/bits/stl_algobase.h ****   // All of these auxiliary structs serve two purposes.  (1) Replace
 334:/Library/DaisyToolchain/0.2.0/arm/arm-none-eabi/include/c++/10.3.1/bits/stl_algobase.h ****   // calls to copy with memmove whenever possible.  (Memmove, not memcpy,
 335:/Library/DaisyToolchain/0.2.0/arm/arm-none-eabi/include/c++/10.3.1/bits/stl_algobase.h ****   // because the input and output ranges are permitted to overlap.)
 336:/Library/DaisyToolchain/0.2.0/arm/arm-none-eabi/include/c++/10.3.1/bits/stl_algobase.h ****   // (2) If we're using random access iterators, then write the loop as
 337:/Library/DaisyToolchain/0.2.0/arm/arm-none-eabi/include/c++/10.3.1/bits/stl_algobase.h ****   // a for loop with an explicit count.
 338:/Library/DaisyToolchain/0.2.0/arm/arm-none-eabi/include/c++/10.3.1/bits/stl_algobase.h **** 
 339:/Library/DaisyToolchain/0.2.0/arm/arm-none-eabi/include/c++/10.3.1/bits/stl_algobase.h ****   template<bool _IsMove, bool _IsSimple, typename _Category>
 340:/Library/DaisyToolchain/0.2.0/arm/arm-none-eabi/include/c++/10.3.1/bits/stl_algobase.h ****     struct __copy_move
 341:/Library/DaisyToolchain/0.2.0/arm/arm-none-eabi/include/c++/10.3.1/bits/stl_algobase.h ****     {
 342:/Library/DaisyToolchain/0.2.0/arm/arm-none-eabi/include/c++/10.3.1/bits/stl_algobase.h ****       template<typename _II, typename _OI>
 343:/Library/DaisyToolchain/0.2.0/arm/arm-none-eabi/include/c++/10.3.1/bits/stl_algobase.h **** 	_GLIBCXX20_CONSTEXPR
 344:/Library/DaisyToolchain/0.2.0/arm/arm-none-eabi/include/c++/10.3.1/bits/stl_algobase.h **** 	static _OI
 345:/Library/DaisyToolchain/0.2.0/arm/arm-none-eabi/include/c++/10.3.1/bits/stl_algobase.h **** 	__copy_m(_II __first, _II __last, _OI __result)
 346:/Library/DaisyToolchain/0.2.0/arm/arm-none-eabi/include/c++/10.3.1/bits/stl_algobase.h **** 	{
 347:/Library/DaisyToolchain/0.2.0/arm/arm-none-eabi/include/c++/10.3.1/bits/stl_algobase.h **** 	  for (; __first != __last; ++__result, (void)++__first)
 348:/Library/DaisyToolchain/0.2.0/arm/arm-none-eabi/include/c++/10.3.1/bits/stl_algobase.h **** 	    *__result = *__first;
 349:/Library/DaisyToolchain/0.2.0/arm/arm-none-eabi/include/c++/10.3.1/bits/stl_algobase.h **** 	  return __result;
 350:/Library/DaisyToolchain/0.2.0/arm/arm-none-eabi/include/c++/10.3.1/bits/stl_algobase.h **** 	}
 351:/Library/DaisyToolchain/0.2.0/arm/arm-none-eabi/include/c++/10.3.1/bits/stl_algobase.h ****     };
 352:/Library/DaisyToolchain/0.2.0/arm/arm-none-eabi/include/c++/10.3.1/bits/stl_algobase.h **** 
ARM GAS  /var/folders/9s/8rp0_f2s1n31qbztm3b5_fdh0000gn/T//cc5SCkU0.s 			page 15


 353:/Library/DaisyToolchain/0.2.0/arm/arm-none-eabi/include/c++/10.3.1/bits/stl_algobase.h **** #if __cplusplus >= 201103L
 354:/Library/DaisyToolchain/0.2.0/arm/arm-none-eabi/include/c++/10.3.1/bits/stl_algobase.h ****   template<typename _Category>
 355:/Library/DaisyToolchain/0.2.0/arm/arm-none-eabi/include/c++/10.3.1/bits/stl_algobase.h ****     struct __copy_move<true, false, _Category>
 356:/Library/DaisyToolchain/0.2.0/arm/arm-none-eabi/include/c++/10.3.1/bits/stl_algobase.h ****     {
 357:/Library/DaisyToolchain/0.2.0/arm/arm-none-eabi/include/c++/10.3.1/bits/stl_algobase.h ****       template<typename _II, typename _OI>
 358:/Library/DaisyToolchain/0.2.0/arm/arm-none-eabi/include/c++/10.3.1/bits/stl_algobase.h **** 	_GLIBCXX20_CONSTEXPR
 359:/Library/DaisyToolchain/0.2.0/arm/arm-none-eabi/include/c++/10.3.1/bits/stl_algobase.h **** 	static _OI
 360:/Library/DaisyToolchain/0.2.0/arm/arm-none-eabi/include/c++/10.3.1/bits/stl_algobase.h **** 	__copy_m(_II __first, _II __last, _OI __result)
 361:/Library/DaisyToolchain/0.2.0/arm/arm-none-eabi/include/c++/10.3.1/bits/stl_algobase.h **** 	{
 362:/Library/DaisyToolchain/0.2.0/arm/arm-none-eabi/include/c++/10.3.1/bits/stl_algobase.h **** 	  for (; __first != __last; ++__result, (void)++__first)
 363:/Library/DaisyToolchain/0.2.0/arm/arm-none-eabi/include/c++/10.3.1/bits/stl_algobase.h **** 	    *__result = std::move(*__first);
 364:/Library/DaisyToolchain/0.2.0/arm/arm-none-eabi/include/c++/10.3.1/bits/stl_algobase.h **** 	  return __result;
 365:/Library/DaisyToolchain/0.2.0/arm/arm-none-eabi/include/c++/10.3.1/bits/stl_algobase.h **** 	}
 366:/Library/DaisyToolchain/0.2.0/arm/arm-none-eabi/include/c++/10.3.1/bits/stl_algobase.h ****     };
 367:/Library/DaisyToolchain/0.2.0/arm/arm-none-eabi/include/c++/10.3.1/bits/stl_algobase.h **** #endif
 368:/Library/DaisyToolchain/0.2.0/arm/arm-none-eabi/include/c++/10.3.1/bits/stl_algobase.h **** 
 369:/Library/DaisyToolchain/0.2.0/arm/arm-none-eabi/include/c++/10.3.1/bits/stl_algobase.h ****   template<>
 370:/Library/DaisyToolchain/0.2.0/arm/arm-none-eabi/include/c++/10.3.1/bits/stl_algobase.h ****     struct __copy_move<false, false, random_access_iterator_tag>
 371:/Library/DaisyToolchain/0.2.0/arm/arm-none-eabi/include/c++/10.3.1/bits/stl_algobase.h ****     {
 372:/Library/DaisyToolchain/0.2.0/arm/arm-none-eabi/include/c++/10.3.1/bits/stl_algobase.h ****       template<typename _II, typename _OI>
 373:/Library/DaisyToolchain/0.2.0/arm/arm-none-eabi/include/c++/10.3.1/bits/stl_algobase.h **** 	_GLIBCXX20_CONSTEXPR
 374:/Library/DaisyToolchain/0.2.0/arm/arm-none-eabi/include/c++/10.3.1/bits/stl_algobase.h **** 	static _OI
 375:/Library/DaisyToolchain/0.2.0/arm/arm-none-eabi/include/c++/10.3.1/bits/stl_algobase.h **** 	__copy_m(_II __first, _II __last, _OI __result)
 376:/Library/DaisyToolchain/0.2.0/arm/arm-none-eabi/include/c++/10.3.1/bits/stl_algobase.h **** 	{
 377:/Library/DaisyToolchain/0.2.0/arm/arm-none-eabi/include/c++/10.3.1/bits/stl_algobase.h **** 	  typedef typename iterator_traits<_II>::difference_type _Distance;
 378:/Library/DaisyToolchain/0.2.0/arm/arm-none-eabi/include/c++/10.3.1/bits/stl_algobase.h **** 	  for(_Distance __n = __last - __first; __n > 0; --__n)
 379:/Library/DaisyToolchain/0.2.0/arm/arm-none-eabi/include/c++/10.3.1/bits/stl_algobase.h **** 	    {
 380:/Library/DaisyToolchain/0.2.0/arm/arm-none-eabi/include/c++/10.3.1/bits/stl_algobase.h **** 	      *__result = *__first;
 381:/Library/DaisyToolchain/0.2.0/arm/arm-none-eabi/include/c++/10.3.1/bits/stl_algobase.h **** 	      ++__first;
 382:/Library/DaisyToolchain/0.2.0/arm/arm-none-eabi/include/c++/10.3.1/bits/stl_algobase.h **** 	      ++__result;
 383:/Library/DaisyToolchain/0.2.0/arm/arm-none-eabi/include/c++/10.3.1/bits/stl_algobase.h **** 	    }
 384:/Library/DaisyToolchain/0.2.0/arm/arm-none-eabi/include/c++/10.3.1/bits/stl_algobase.h **** 	  return __result;
 385:/Library/DaisyToolchain/0.2.0/arm/arm-none-eabi/include/c++/10.3.1/bits/stl_algobase.h **** 	}
 386:/Library/DaisyToolchain/0.2.0/arm/arm-none-eabi/include/c++/10.3.1/bits/stl_algobase.h ****     };
 387:/Library/DaisyToolchain/0.2.0/arm/arm-none-eabi/include/c++/10.3.1/bits/stl_algobase.h **** 
 388:/Library/DaisyToolchain/0.2.0/arm/arm-none-eabi/include/c++/10.3.1/bits/stl_algobase.h **** #if __cplusplus >= 201103L
 389:/Library/DaisyToolchain/0.2.0/arm/arm-none-eabi/include/c++/10.3.1/bits/stl_algobase.h ****   template<>
 390:/Library/DaisyToolchain/0.2.0/arm/arm-none-eabi/include/c++/10.3.1/bits/stl_algobase.h ****     struct __copy_move<true, false, random_access_iterator_tag>
 391:/Library/DaisyToolchain/0.2.0/arm/arm-none-eabi/include/c++/10.3.1/bits/stl_algobase.h ****     {
 392:/Library/DaisyToolchain/0.2.0/arm/arm-none-eabi/include/c++/10.3.1/bits/stl_algobase.h ****       template<typename _II, typename _OI>
 393:/Library/DaisyToolchain/0.2.0/arm/arm-none-eabi/include/c++/10.3.1/bits/stl_algobase.h **** 	_GLIBCXX20_CONSTEXPR
 394:/Library/DaisyToolchain/0.2.0/arm/arm-none-eabi/include/c++/10.3.1/bits/stl_algobase.h **** 	static _OI
 395:/Library/DaisyToolchain/0.2.0/arm/arm-none-eabi/include/c++/10.3.1/bits/stl_algobase.h **** 	__copy_m(_II __first, _II __last, _OI __result)
 396:/Library/DaisyToolchain/0.2.0/arm/arm-none-eabi/include/c++/10.3.1/bits/stl_algobase.h **** 	{
 397:/Library/DaisyToolchain/0.2.0/arm/arm-none-eabi/include/c++/10.3.1/bits/stl_algobase.h **** 	  typedef typename iterator_traits<_II>::difference_type _Distance;
 398:/Library/DaisyToolchain/0.2.0/arm/arm-none-eabi/include/c++/10.3.1/bits/stl_algobase.h **** 	  for(_Distance __n = __last - __first; __n > 0; --__n)
 399:/Library/DaisyToolchain/0.2.0/arm/arm-none-eabi/include/c++/10.3.1/bits/stl_algobase.h **** 	    {
 400:/Library/DaisyToolchain/0.2.0/arm/arm-none-eabi/include/c++/10.3.1/bits/stl_algobase.h **** 	      *__result = std::move(*__first);
 401:/Library/DaisyToolchain/0.2.0/arm/arm-none-eabi/include/c++/10.3.1/bits/stl_algobase.h **** 	      ++__first;
 402:/Library/DaisyToolchain/0.2.0/arm/arm-none-eabi/include/c++/10.3.1/bits/stl_algobase.h **** 	      ++__result;
 403:/Library/DaisyToolchain/0.2.0/arm/arm-none-eabi/include/c++/10.3.1/bits/stl_algobase.h **** 	    }
 404:/Library/DaisyToolchain/0.2.0/arm/arm-none-eabi/include/c++/10.3.1/bits/stl_algobase.h **** 	  return __result;
 405:/Library/DaisyToolchain/0.2.0/arm/arm-none-eabi/include/c++/10.3.1/bits/stl_algobase.h **** 	}
 406:/Library/DaisyToolchain/0.2.0/arm/arm-none-eabi/include/c++/10.3.1/bits/stl_algobase.h ****     };
 407:/Library/DaisyToolchain/0.2.0/arm/arm-none-eabi/include/c++/10.3.1/bits/stl_algobase.h **** #endif
 408:/Library/DaisyToolchain/0.2.0/arm/arm-none-eabi/include/c++/10.3.1/bits/stl_algobase.h **** 
 409:/Library/DaisyToolchain/0.2.0/arm/arm-none-eabi/include/c++/10.3.1/bits/stl_algobase.h ****   template<bool _IsMove>
ARM GAS  /var/folders/9s/8rp0_f2s1n31qbztm3b5_fdh0000gn/T//cc5SCkU0.s 			page 16


 410:/Library/DaisyToolchain/0.2.0/arm/arm-none-eabi/include/c++/10.3.1/bits/stl_algobase.h ****     struct __copy_move<_IsMove, true, random_access_iterator_tag>
 411:/Library/DaisyToolchain/0.2.0/arm/arm-none-eabi/include/c++/10.3.1/bits/stl_algobase.h ****     {
 412:/Library/DaisyToolchain/0.2.0/arm/arm-none-eabi/include/c++/10.3.1/bits/stl_algobase.h ****       template<typename _Tp>
 413:/Library/DaisyToolchain/0.2.0/arm/arm-none-eabi/include/c++/10.3.1/bits/stl_algobase.h **** 	_GLIBCXX20_CONSTEXPR
 414:/Library/DaisyToolchain/0.2.0/arm/arm-none-eabi/include/c++/10.3.1/bits/stl_algobase.h **** 	static _Tp*
 415:/Library/DaisyToolchain/0.2.0/arm/arm-none-eabi/include/c++/10.3.1/bits/stl_algobase.h **** 	__copy_m(const _Tp* __first, const _Tp* __last, _Tp* __result)
 416:/Library/DaisyToolchain/0.2.0/arm/arm-none-eabi/include/c++/10.3.1/bits/stl_algobase.h **** 	{
 417:/Library/DaisyToolchain/0.2.0/arm/arm-none-eabi/include/c++/10.3.1/bits/stl_algobase.h **** #if __cplusplus >= 201103L
 418:/Library/DaisyToolchain/0.2.0/arm/arm-none-eabi/include/c++/10.3.1/bits/stl_algobase.h **** 	  using __assignable = conditional<_IsMove,
 419:/Library/DaisyToolchain/0.2.0/arm/arm-none-eabi/include/c++/10.3.1/bits/stl_algobase.h **** 					   is_move_assignable<_Tp>,
 420:/Library/DaisyToolchain/0.2.0/arm/arm-none-eabi/include/c++/10.3.1/bits/stl_algobase.h **** 					   is_copy_assignable<_Tp>>;
 421:/Library/DaisyToolchain/0.2.0/arm/arm-none-eabi/include/c++/10.3.1/bits/stl_algobase.h **** 	  // trivial types can have deleted assignment
 422:/Library/DaisyToolchain/0.2.0/arm/arm-none-eabi/include/c++/10.3.1/bits/stl_algobase.h **** 	  static_assert( __assignable::type::value, "type is not assignable" );
 423:/Library/DaisyToolchain/0.2.0/arm/arm-none-eabi/include/c++/10.3.1/bits/stl_algobase.h **** #endif
 424:/Library/DaisyToolchain/0.2.0/arm/arm-none-eabi/include/c++/10.3.1/bits/stl_algobase.h **** 	  const ptrdiff_t _Num = __last - __first;
 425:/Library/DaisyToolchain/0.2.0/arm/arm-none-eabi/include/c++/10.3.1/bits/stl_algobase.h **** 	  if (_Num)
 426:/Library/DaisyToolchain/0.2.0/arm/arm-none-eabi/include/c++/10.3.1/bits/stl_algobase.h **** 	    __builtin_memmove(__result, __first, sizeof(_Tp) * _Num);
 427:/Library/DaisyToolchain/0.2.0/arm/arm-none-eabi/include/c++/10.3.1/bits/stl_algobase.h **** 	  return __result + _Num;
 428:/Library/DaisyToolchain/0.2.0/arm/arm-none-eabi/include/c++/10.3.1/bits/stl_algobase.h **** 	}
 429:/Library/DaisyToolchain/0.2.0/arm/arm-none-eabi/include/c++/10.3.1/bits/stl_algobase.h ****     };
 430:/Library/DaisyToolchain/0.2.0/arm/arm-none-eabi/include/c++/10.3.1/bits/stl_algobase.h **** 
 431:/Library/DaisyToolchain/0.2.0/arm/arm-none-eabi/include/c++/10.3.1/bits/stl_algobase.h ****   // Helpers for streambuf iterators (either istream or ostream).
 432:/Library/DaisyToolchain/0.2.0/arm/arm-none-eabi/include/c++/10.3.1/bits/stl_algobase.h ****   // NB: avoid including <iosfwd>, relatively large.
 433:/Library/DaisyToolchain/0.2.0/arm/arm-none-eabi/include/c++/10.3.1/bits/stl_algobase.h ****   template<typename _CharT>
 434:/Library/DaisyToolchain/0.2.0/arm/arm-none-eabi/include/c++/10.3.1/bits/stl_algobase.h ****     struct char_traits;
 435:/Library/DaisyToolchain/0.2.0/arm/arm-none-eabi/include/c++/10.3.1/bits/stl_algobase.h **** 
 436:/Library/DaisyToolchain/0.2.0/arm/arm-none-eabi/include/c++/10.3.1/bits/stl_algobase.h ****   template<typename _CharT, typename _Traits>
 437:/Library/DaisyToolchain/0.2.0/arm/arm-none-eabi/include/c++/10.3.1/bits/stl_algobase.h ****     class istreambuf_iterator;
 438:/Library/DaisyToolchain/0.2.0/arm/arm-none-eabi/include/c++/10.3.1/bits/stl_algobase.h **** 
 439:/Library/DaisyToolchain/0.2.0/arm/arm-none-eabi/include/c++/10.3.1/bits/stl_algobase.h ****   template<typename _CharT, typename _Traits>
 440:/Library/DaisyToolchain/0.2.0/arm/arm-none-eabi/include/c++/10.3.1/bits/stl_algobase.h ****     class ostreambuf_iterator;
 441:/Library/DaisyToolchain/0.2.0/arm/arm-none-eabi/include/c++/10.3.1/bits/stl_algobase.h **** 
 442:/Library/DaisyToolchain/0.2.0/arm/arm-none-eabi/include/c++/10.3.1/bits/stl_algobase.h ****   template<bool _IsMove, typename _CharT>
 443:/Library/DaisyToolchain/0.2.0/arm/arm-none-eabi/include/c++/10.3.1/bits/stl_algobase.h ****     typename __gnu_cxx::__enable_if<__is_char<_CharT>::__value,
 444:/Library/DaisyToolchain/0.2.0/arm/arm-none-eabi/include/c++/10.3.1/bits/stl_algobase.h **** 	     ostreambuf_iterator<_CharT, char_traits<_CharT> > >::__type
 445:/Library/DaisyToolchain/0.2.0/arm/arm-none-eabi/include/c++/10.3.1/bits/stl_algobase.h ****     __copy_move_a2(_CharT*, _CharT*,
 446:/Library/DaisyToolchain/0.2.0/arm/arm-none-eabi/include/c++/10.3.1/bits/stl_algobase.h **** 		   ostreambuf_iterator<_CharT, char_traits<_CharT> >);
 447:/Library/DaisyToolchain/0.2.0/arm/arm-none-eabi/include/c++/10.3.1/bits/stl_algobase.h **** 
 448:/Library/DaisyToolchain/0.2.0/arm/arm-none-eabi/include/c++/10.3.1/bits/stl_algobase.h ****   template<bool _IsMove, typename _CharT>
 449:/Library/DaisyToolchain/0.2.0/arm/arm-none-eabi/include/c++/10.3.1/bits/stl_algobase.h ****     typename __gnu_cxx::__enable_if<__is_char<_CharT>::__value,
 450:/Library/DaisyToolchain/0.2.0/arm/arm-none-eabi/include/c++/10.3.1/bits/stl_algobase.h **** 	     ostreambuf_iterator<_CharT, char_traits<_CharT> > >::__type
 451:/Library/DaisyToolchain/0.2.0/arm/arm-none-eabi/include/c++/10.3.1/bits/stl_algobase.h ****     __copy_move_a2(const _CharT*, const _CharT*,
 452:/Library/DaisyToolchain/0.2.0/arm/arm-none-eabi/include/c++/10.3.1/bits/stl_algobase.h **** 		   ostreambuf_iterator<_CharT, char_traits<_CharT> >);
 453:/Library/DaisyToolchain/0.2.0/arm/arm-none-eabi/include/c++/10.3.1/bits/stl_algobase.h **** 
 454:/Library/DaisyToolchain/0.2.0/arm/arm-none-eabi/include/c++/10.3.1/bits/stl_algobase.h ****   template<bool _IsMove, typename _CharT>
 455:/Library/DaisyToolchain/0.2.0/arm/arm-none-eabi/include/c++/10.3.1/bits/stl_algobase.h ****     typename __gnu_cxx::__enable_if<__is_char<_CharT>::__value,
 456:/Library/DaisyToolchain/0.2.0/arm/arm-none-eabi/include/c++/10.3.1/bits/stl_algobase.h **** 				    _CharT*>::__type
 457:/Library/DaisyToolchain/0.2.0/arm/arm-none-eabi/include/c++/10.3.1/bits/stl_algobase.h ****     __copy_move_a2(istreambuf_iterator<_CharT, char_traits<_CharT> >,
 458:/Library/DaisyToolchain/0.2.0/arm/arm-none-eabi/include/c++/10.3.1/bits/stl_algobase.h **** 		   istreambuf_iterator<_CharT, char_traits<_CharT> >, _CharT*);
 459:/Library/DaisyToolchain/0.2.0/arm/arm-none-eabi/include/c++/10.3.1/bits/stl_algobase.h **** 
 460:/Library/DaisyToolchain/0.2.0/arm/arm-none-eabi/include/c++/10.3.1/bits/stl_algobase.h ****   template<bool _IsMove, typename _II, typename _OI>
 461:/Library/DaisyToolchain/0.2.0/arm/arm-none-eabi/include/c++/10.3.1/bits/stl_algobase.h ****     _GLIBCXX20_CONSTEXPR
 462:/Library/DaisyToolchain/0.2.0/arm/arm-none-eabi/include/c++/10.3.1/bits/stl_algobase.h ****     inline _OI
 463:/Library/DaisyToolchain/0.2.0/arm/arm-none-eabi/include/c++/10.3.1/bits/stl_algobase.h ****     __copy_move_a2(_II __first, _II __last, _OI __result)
 464:/Library/DaisyToolchain/0.2.0/arm/arm-none-eabi/include/c++/10.3.1/bits/stl_algobase.h ****     {
 465:/Library/DaisyToolchain/0.2.0/arm/arm-none-eabi/include/c++/10.3.1/bits/stl_algobase.h ****       typedef typename iterator_traits<_II>::iterator_category _Category;
 466:/Library/DaisyToolchain/0.2.0/arm/arm-none-eabi/include/c++/10.3.1/bits/stl_algobase.h **** #ifdef __cpp_lib_is_constant_evaluated
ARM GAS  /var/folders/9s/8rp0_f2s1n31qbztm3b5_fdh0000gn/T//cc5SCkU0.s 			page 17


 467:/Library/DaisyToolchain/0.2.0/arm/arm-none-eabi/include/c++/10.3.1/bits/stl_algobase.h ****       if (std::is_constant_evaluated())
 468:/Library/DaisyToolchain/0.2.0/arm/arm-none-eabi/include/c++/10.3.1/bits/stl_algobase.h **** 	return std::__copy_move<_IsMove, false, _Category>::
 469:/Library/DaisyToolchain/0.2.0/arm/arm-none-eabi/include/c++/10.3.1/bits/stl_algobase.h **** 	  __copy_m(__first, __last, __result);
 470:/Library/DaisyToolchain/0.2.0/arm/arm-none-eabi/include/c++/10.3.1/bits/stl_algobase.h **** #endif
 471:/Library/DaisyToolchain/0.2.0/arm/arm-none-eabi/include/c++/10.3.1/bits/stl_algobase.h ****       return std::__copy_move<_IsMove, __memcpyable<_OI, _II>::__value,
 472:/Library/DaisyToolchain/0.2.0/arm/arm-none-eabi/include/c++/10.3.1/bits/stl_algobase.h **** 			      _Category>::__copy_m(__first, __last, __result);
 473:/Library/DaisyToolchain/0.2.0/arm/arm-none-eabi/include/c++/10.3.1/bits/stl_algobase.h ****     }
 474:/Library/DaisyToolchain/0.2.0/arm/arm-none-eabi/include/c++/10.3.1/bits/stl_algobase.h **** 
 475:/Library/DaisyToolchain/0.2.0/arm/arm-none-eabi/include/c++/10.3.1/bits/stl_algobase.h **** _GLIBCXX_BEGIN_NAMESPACE_CONTAINER
 476:/Library/DaisyToolchain/0.2.0/arm/arm-none-eabi/include/c++/10.3.1/bits/stl_algobase.h **** 
 477:/Library/DaisyToolchain/0.2.0/arm/arm-none-eabi/include/c++/10.3.1/bits/stl_algobase.h ****   template<typename _Tp, typename _Ref, typename _Ptr>
 478:/Library/DaisyToolchain/0.2.0/arm/arm-none-eabi/include/c++/10.3.1/bits/stl_algobase.h ****     struct _Deque_iterator;
 479:/Library/DaisyToolchain/0.2.0/arm/arm-none-eabi/include/c++/10.3.1/bits/stl_algobase.h **** 
 480:/Library/DaisyToolchain/0.2.0/arm/arm-none-eabi/include/c++/10.3.1/bits/stl_algobase.h **** _GLIBCXX_END_NAMESPACE_CONTAINER
 481:/Library/DaisyToolchain/0.2.0/arm/arm-none-eabi/include/c++/10.3.1/bits/stl_algobase.h **** 
 482:/Library/DaisyToolchain/0.2.0/arm/arm-none-eabi/include/c++/10.3.1/bits/stl_algobase.h ****   template<bool _IsMove,
 483:/Library/DaisyToolchain/0.2.0/arm/arm-none-eabi/include/c++/10.3.1/bits/stl_algobase.h **** 	   typename _Tp, typename _Ref, typename _Ptr, typename _OI>
 484:/Library/DaisyToolchain/0.2.0/arm/arm-none-eabi/include/c++/10.3.1/bits/stl_algobase.h ****     _OI
 485:/Library/DaisyToolchain/0.2.0/arm/arm-none-eabi/include/c++/10.3.1/bits/stl_algobase.h ****     __copy_move_a1(_GLIBCXX_STD_C::_Deque_iterator<_Tp, _Ref, _Ptr>,
 486:/Library/DaisyToolchain/0.2.0/arm/arm-none-eabi/include/c++/10.3.1/bits/stl_algobase.h **** 		   _GLIBCXX_STD_C::_Deque_iterator<_Tp, _Ref, _Ptr>,
 487:/Library/DaisyToolchain/0.2.0/arm/arm-none-eabi/include/c++/10.3.1/bits/stl_algobase.h **** 		   _OI);
 488:/Library/DaisyToolchain/0.2.0/arm/arm-none-eabi/include/c++/10.3.1/bits/stl_algobase.h **** 
 489:/Library/DaisyToolchain/0.2.0/arm/arm-none-eabi/include/c++/10.3.1/bits/stl_algobase.h ****   template<bool _IsMove,
 490:/Library/DaisyToolchain/0.2.0/arm/arm-none-eabi/include/c++/10.3.1/bits/stl_algobase.h **** 	   typename _ITp, typename _IRef, typename _IPtr, typename _OTp>
 491:/Library/DaisyToolchain/0.2.0/arm/arm-none-eabi/include/c++/10.3.1/bits/stl_algobase.h ****     _GLIBCXX_STD_C::_Deque_iterator<_OTp, _OTp&, _OTp*>
 492:/Library/DaisyToolchain/0.2.0/arm/arm-none-eabi/include/c++/10.3.1/bits/stl_algobase.h ****     __copy_move_a1(_GLIBCXX_STD_C::_Deque_iterator<_ITp, _IRef, _IPtr>,
 493:/Library/DaisyToolchain/0.2.0/arm/arm-none-eabi/include/c++/10.3.1/bits/stl_algobase.h **** 		   _GLIBCXX_STD_C::_Deque_iterator<_ITp, _IRef, _IPtr>,
 494:/Library/DaisyToolchain/0.2.0/arm/arm-none-eabi/include/c++/10.3.1/bits/stl_algobase.h **** 		   _GLIBCXX_STD_C::_Deque_iterator<_OTp, _OTp&, _OTp*>);
 495:/Library/DaisyToolchain/0.2.0/arm/arm-none-eabi/include/c++/10.3.1/bits/stl_algobase.h **** 
 496:/Library/DaisyToolchain/0.2.0/arm/arm-none-eabi/include/c++/10.3.1/bits/stl_algobase.h ****   template<bool _IsMove, typename _II, typename _Tp>
 497:/Library/DaisyToolchain/0.2.0/arm/arm-none-eabi/include/c++/10.3.1/bits/stl_algobase.h ****     typename __gnu_cxx::__enable_if<
 498:/Library/DaisyToolchain/0.2.0/arm/arm-none-eabi/include/c++/10.3.1/bits/stl_algobase.h ****       __is_random_access_iter<_II>::__value,
 499:/Library/DaisyToolchain/0.2.0/arm/arm-none-eabi/include/c++/10.3.1/bits/stl_algobase.h ****       _GLIBCXX_STD_C::_Deque_iterator<_Tp, _Tp&, _Tp*> >::__type
 500:/Library/DaisyToolchain/0.2.0/arm/arm-none-eabi/include/c++/10.3.1/bits/stl_algobase.h ****     __copy_move_a1(_II, _II, _GLIBCXX_STD_C::_Deque_iterator<_Tp, _Tp&, _Tp*>);
 501:/Library/DaisyToolchain/0.2.0/arm/arm-none-eabi/include/c++/10.3.1/bits/stl_algobase.h **** 
 502:/Library/DaisyToolchain/0.2.0/arm/arm-none-eabi/include/c++/10.3.1/bits/stl_algobase.h ****   template<bool _IsMove, typename _II, typename _OI>
 503:/Library/DaisyToolchain/0.2.0/arm/arm-none-eabi/include/c++/10.3.1/bits/stl_algobase.h ****     _GLIBCXX20_CONSTEXPR
 504:/Library/DaisyToolchain/0.2.0/arm/arm-none-eabi/include/c++/10.3.1/bits/stl_algobase.h ****     inline _OI
 505:/Library/DaisyToolchain/0.2.0/arm/arm-none-eabi/include/c++/10.3.1/bits/stl_algobase.h ****     __copy_move_a1(_II __first, _II __last, _OI __result)
 506:/Library/DaisyToolchain/0.2.0/arm/arm-none-eabi/include/c++/10.3.1/bits/stl_algobase.h ****     { return std::__copy_move_a2<_IsMove>(__first, __last, __result); }
 507:/Library/DaisyToolchain/0.2.0/arm/arm-none-eabi/include/c++/10.3.1/bits/stl_algobase.h **** 
 508:/Library/DaisyToolchain/0.2.0/arm/arm-none-eabi/include/c++/10.3.1/bits/stl_algobase.h ****   template<bool _IsMove, typename _II, typename _OI>
 509:/Library/DaisyToolchain/0.2.0/arm/arm-none-eabi/include/c++/10.3.1/bits/stl_algobase.h ****     _GLIBCXX20_CONSTEXPR
 510:/Library/DaisyToolchain/0.2.0/arm/arm-none-eabi/include/c++/10.3.1/bits/stl_algobase.h ****     inline _OI
 511:/Library/DaisyToolchain/0.2.0/arm/arm-none-eabi/include/c++/10.3.1/bits/stl_algobase.h ****     __copy_move_a(_II __first, _II __last, _OI __result)
 512:/Library/DaisyToolchain/0.2.0/arm/arm-none-eabi/include/c++/10.3.1/bits/stl_algobase.h ****     {
 513:/Library/DaisyToolchain/0.2.0/arm/arm-none-eabi/include/c++/10.3.1/bits/stl_algobase.h ****       return std::__niter_wrap(__result,
 514:/Library/DaisyToolchain/0.2.0/arm/arm-none-eabi/include/c++/10.3.1/bits/stl_algobase.h **** 		std::__copy_move_a1<_IsMove>(std::__niter_base(__first),
 515:/Library/DaisyToolchain/0.2.0/arm/arm-none-eabi/include/c++/10.3.1/bits/stl_algobase.h **** 					     std::__niter_base(__last),
 516:/Library/DaisyToolchain/0.2.0/arm/arm-none-eabi/include/c++/10.3.1/bits/stl_algobase.h **** 					     std::__niter_base(__result)));
 517:/Library/DaisyToolchain/0.2.0/arm/arm-none-eabi/include/c++/10.3.1/bits/stl_algobase.h ****     }
 518:/Library/DaisyToolchain/0.2.0/arm/arm-none-eabi/include/c++/10.3.1/bits/stl_algobase.h **** 
 519:/Library/DaisyToolchain/0.2.0/arm/arm-none-eabi/include/c++/10.3.1/bits/stl_algobase.h ****   template<bool _IsMove,
 520:/Library/DaisyToolchain/0.2.0/arm/arm-none-eabi/include/c++/10.3.1/bits/stl_algobase.h **** 	   typename _Ite, typename _Seq, typename _Cat, typename _OI>
 521:/Library/DaisyToolchain/0.2.0/arm/arm-none-eabi/include/c++/10.3.1/bits/stl_algobase.h ****     _OI
 522:/Library/DaisyToolchain/0.2.0/arm/arm-none-eabi/include/c++/10.3.1/bits/stl_algobase.h ****     __copy_move_a(const ::__gnu_debug::_Safe_iterator<_Ite, _Seq, _Cat>&,
 523:/Library/DaisyToolchain/0.2.0/arm/arm-none-eabi/include/c++/10.3.1/bits/stl_algobase.h **** 		  const ::__gnu_debug::_Safe_iterator<_Ite, _Seq, _Cat>&,
ARM GAS  /var/folders/9s/8rp0_f2s1n31qbztm3b5_fdh0000gn/T//cc5SCkU0.s 			page 18


 524:/Library/DaisyToolchain/0.2.0/arm/arm-none-eabi/include/c++/10.3.1/bits/stl_algobase.h **** 		  _OI);
 525:/Library/DaisyToolchain/0.2.0/arm/arm-none-eabi/include/c++/10.3.1/bits/stl_algobase.h **** 
 526:/Library/DaisyToolchain/0.2.0/arm/arm-none-eabi/include/c++/10.3.1/bits/stl_algobase.h ****   template<bool _IsMove,
 527:/Library/DaisyToolchain/0.2.0/arm/arm-none-eabi/include/c++/10.3.1/bits/stl_algobase.h **** 	   typename _II, typename _Ite, typename _Seq, typename _Cat>
 528:/Library/DaisyToolchain/0.2.0/arm/arm-none-eabi/include/c++/10.3.1/bits/stl_algobase.h ****     __gnu_debug::_Safe_iterator<_Ite, _Seq, _Cat>
 529:/Library/DaisyToolchain/0.2.0/arm/arm-none-eabi/include/c++/10.3.1/bits/stl_algobase.h ****     __copy_move_a(_II, _II,
 530:/Library/DaisyToolchain/0.2.0/arm/arm-none-eabi/include/c++/10.3.1/bits/stl_algobase.h **** 		  const ::__gnu_debug::_Safe_iterator<_Ite, _Seq, _Cat>&);
 531:/Library/DaisyToolchain/0.2.0/arm/arm-none-eabi/include/c++/10.3.1/bits/stl_algobase.h **** 
 532:/Library/DaisyToolchain/0.2.0/arm/arm-none-eabi/include/c++/10.3.1/bits/stl_algobase.h ****   template<bool _IsMove,
 533:/Library/DaisyToolchain/0.2.0/arm/arm-none-eabi/include/c++/10.3.1/bits/stl_algobase.h **** 	   typename _IIte, typename _ISeq, typename _ICat,
 534:/Library/DaisyToolchain/0.2.0/arm/arm-none-eabi/include/c++/10.3.1/bits/stl_algobase.h **** 	   typename _OIte, typename _OSeq, typename _OCat>
 535:/Library/DaisyToolchain/0.2.0/arm/arm-none-eabi/include/c++/10.3.1/bits/stl_algobase.h ****     ::__gnu_debug::_Safe_iterator<_OIte, _OSeq, _OCat>
 536:/Library/DaisyToolchain/0.2.0/arm/arm-none-eabi/include/c++/10.3.1/bits/stl_algobase.h ****     __copy_move_a(const ::__gnu_debug::_Safe_iterator<_IIte, _ISeq, _ICat>&,
 537:/Library/DaisyToolchain/0.2.0/arm/arm-none-eabi/include/c++/10.3.1/bits/stl_algobase.h **** 		  const ::__gnu_debug::_Safe_iterator<_IIte, _ISeq, _ICat>&,
 538:/Library/DaisyToolchain/0.2.0/arm/arm-none-eabi/include/c++/10.3.1/bits/stl_algobase.h **** 		  const ::__gnu_debug::_Safe_iterator<_OIte, _OSeq, _OCat>&);
 539:/Library/DaisyToolchain/0.2.0/arm/arm-none-eabi/include/c++/10.3.1/bits/stl_algobase.h **** 
 540:/Library/DaisyToolchain/0.2.0/arm/arm-none-eabi/include/c++/10.3.1/bits/stl_algobase.h ****   /**
 541:/Library/DaisyToolchain/0.2.0/arm/arm-none-eabi/include/c++/10.3.1/bits/stl_algobase.h ****    *  @brief Copies the range [first,last) into result.
 542:/Library/DaisyToolchain/0.2.0/arm/arm-none-eabi/include/c++/10.3.1/bits/stl_algobase.h ****    *  @ingroup mutating_algorithms
 543:/Library/DaisyToolchain/0.2.0/arm/arm-none-eabi/include/c++/10.3.1/bits/stl_algobase.h ****    *  @param  __first  An input iterator.
 544:/Library/DaisyToolchain/0.2.0/arm/arm-none-eabi/include/c++/10.3.1/bits/stl_algobase.h ****    *  @param  __last   An input iterator.
 545:/Library/DaisyToolchain/0.2.0/arm/arm-none-eabi/include/c++/10.3.1/bits/stl_algobase.h ****    *  @param  __result An output iterator.
 546:/Library/DaisyToolchain/0.2.0/arm/arm-none-eabi/include/c++/10.3.1/bits/stl_algobase.h ****    *  @return   result + (last - first)
 547:/Library/DaisyToolchain/0.2.0/arm/arm-none-eabi/include/c++/10.3.1/bits/stl_algobase.h ****    *
 548:/Library/DaisyToolchain/0.2.0/arm/arm-none-eabi/include/c++/10.3.1/bits/stl_algobase.h ****    *  This inline function will boil down to a call to @c memmove whenever
 549:/Library/DaisyToolchain/0.2.0/arm/arm-none-eabi/include/c++/10.3.1/bits/stl_algobase.h ****    *  possible.  Failing that, if random access iterators are passed, then the
 550:/Library/DaisyToolchain/0.2.0/arm/arm-none-eabi/include/c++/10.3.1/bits/stl_algobase.h ****    *  loop count will be known (and therefore a candidate for compiler
 551:/Library/DaisyToolchain/0.2.0/arm/arm-none-eabi/include/c++/10.3.1/bits/stl_algobase.h ****    *  optimizations such as unrolling).  Result may not be contained within
 552:/Library/DaisyToolchain/0.2.0/arm/arm-none-eabi/include/c++/10.3.1/bits/stl_algobase.h ****    *  [first,last); the copy_backward function should be used instead.
 553:/Library/DaisyToolchain/0.2.0/arm/arm-none-eabi/include/c++/10.3.1/bits/stl_algobase.h ****    *
 554:/Library/DaisyToolchain/0.2.0/arm/arm-none-eabi/include/c++/10.3.1/bits/stl_algobase.h ****    *  Note that the end of the output range is permitted to be contained
 555:/Library/DaisyToolchain/0.2.0/arm/arm-none-eabi/include/c++/10.3.1/bits/stl_algobase.h ****    *  within [first,last).
 556:/Library/DaisyToolchain/0.2.0/arm/arm-none-eabi/include/c++/10.3.1/bits/stl_algobase.h ****   */
 557:/Library/DaisyToolchain/0.2.0/arm/arm-none-eabi/include/c++/10.3.1/bits/stl_algobase.h ****   template<typename _II, typename _OI>
 558:/Library/DaisyToolchain/0.2.0/arm/arm-none-eabi/include/c++/10.3.1/bits/stl_algobase.h ****     _GLIBCXX20_CONSTEXPR
 559:/Library/DaisyToolchain/0.2.0/arm/arm-none-eabi/include/c++/10.3.1/bits/stl_algobase.h ****     inline _OI
 560:/Library/DaisyToolchain/0.2.0/arm/arm-none-eabi/include/c++/10.3.1/bits/stl_algobase.h ****     copy(_II __first, _II __last, _OI __result)
 561:/Library/DaisyToolchain/0.2.0/arm/arm-none-eabi/include/c++/10.3.1/bits/stl_algobase.h ****     {
 562:/Library/DaisyToolchain/0.2.0/arm/arm-none-eabi/include/c++/10.3.1/bits/stl_algobase.h ****       // concept requirements
 563:/Library/DaisyToolchain/0.2.0/arm/arm-none-eabi/include/c++/10.3.1/bits/stl_algobase.h ****       __glibcxx_function_requires(_InputIteratorConcept<_II>)
 564:/Library/DaisyToolchain/0.2.0/arm/arm-none-eabi/include/c++/10.3.1/bits/stl_algobase.h ****       __glibcxx_function_requires(_OutputIteratorConcept<_OI,
 565:/Library/DaisyToolchain/0.2.0/arm/arm-none-eabi/include/c++/10.3.1/bits/stl_algobase.h **** 	    typename iterator_traits<_II>::value_type>)
 566:/Library/DaisyToolchain/0.2.0/arm/arm-none-eabi/include/c++/10.3.1/bits/stl_algobase.h ****       __glibcxx_requires_can_increment_range(__first, __last, __result);
 567:/Library/DaisyToolchain/0.2.0/arm/arm-none-eabi/include/c++/10.3.1/bits/stl_algobase.h **** 
 568:/Library/DaisyToolchain/0.2.0/arm/arm-none-eabi/include/c++/10.3.1/bits/stl_algobase.h ****       return std::__copy_move_a<__is_move_iterator<_II>::__value>
 569:/Library/DaisyToolchain/0.2.0/arm/arm-none-eabi/include/c++/10.3.1/bits/stl_algobase.h **** 	     (std::__miter_base(__first), std::__miter_base(__last), __result);
 570:/Library/DaisyToolchain/0.2.0/arm/arm-none-eabi/include/c++/10.3.1/bits/stl_algobase.h ****     }
 571:/Library/DaisyToolchain/0.2.0/arm/arm-none-eabi/include/c++/10.3.1/bits/stl_algobase.h **** 
 572:/Library/DaisyToolchain/0.2.0/arm/arm-none-eabi/include/c++/10.3.1/bits/stl_algobase.h **** #if __cplusplus >= 201103L
 573:/Library/DaisyToolchain/0.2.0/arm/arm-none-eabi/include/c++/10.3.1/bits/stl_algobase.h ****   /**
 574:/Library/DaisyToolchain/0.2.0/arm/arm-none-eabi/include/c++/10.3.1/bits/stl_algobase.h ****    *  @brief Moves the range [first,last) into result.
 575:/Library/DaisyToolchain/0.2.0/arm/arm-none-eabi/include/c++/10.3.1/bits/stl_algobase.h ****    *  @ingroup mutating_algorithms
 576:/Library/DaisyToolchain/0.2.0/arm/arm-none-eabi/include/c++/10.3.1/bits/stl_algobase.h ****    *  @param  __first  An input iterator.
 577:/Library/DaisyToolchain/0.2.0/arm/arm-none-eabi/include/c++/10.3.1/bits/stl_algobase.h ****    *  @param  __last   An input iterator.
 578:/Library/DaisyToolchain/0.2.0/arm/arm-none-eabi/include/c++/10.3.1/bits/stl_algobase.h ****    *  @param  __result An output iterator.
 579:/Library/DaisyToolchain/0.2.0/arm/arm-none-eabi/include/c++/10.3.1/bits/stl_algobase.h ****    *  @return   result + (last - first)
 580:/Library/DaisyToolchain/0.2.0/arm/arm-none-eabi/include/c++/10.3.1/bits/stl_algobase.h ****    *
ARM GAS  /var/folders/9s/8rp0_f2s1n31qbztm3b5_fdh0000gn/T//cc5SCkU0.s 			page 19


 581:/Library/DaisyToolchain/0.2.0/arm/arm-none-eabi/include/c++/10.3.1/bits/stl_algobase.h ****    *  This inline function will boil down to a call to @c memmove whenever
 582:/Library/DaisyToolchain/0.2.0/arm/arm-none-eabi/include/c++/10.3.1/bits/stl_algobase.h ****    *  possible.  Failing that, if random access iterators are passed, then the
 583:/Library/DaisyToolchain/0.2.0/arm/arm-none-eabi/include/c++/10.3.1/bits/stl_algobase.h ****    *  loop count will be known (and therefore a candidate for compiler
 584:/Library/DaisyToolchain/0.2.0/arm/arm-none-eabi/include/c++/10.3.1/bits/stl_algobase.h ****    *  optimizations such as unrolling).  Result may not be contained within
 585:/Library/DaisyToolchain/0.2.0/arm/arm-none-eabi/include/c++/10.3.1/bits/stl_algobase.h ****    *  [first,last); the move_backward function should be used instead.
 586:/Library/DaisyToolchain/0.2.0/arm/arm-none-eabi/include/c++/10.3.1/bits/stl_algobase.h ****    *
 587:/Library/DaisyToolchain/0.2.0/arm/arm-none-eabi/include/c++/10.3.1/bits/stl_algobase.h ****    *  Note that the end of the output range is permitted to be contained
 588:/Library/DaisyToolchain/0.2.0/arm/arm-none-eabi/include/c++/10.3.1/bits/stl_algobase.h ****    *  within [first,last).
 589:/Library/DaisyToolchain/0.2.0/arm/arm-none-eabi/include/c++/10.3.1/bits/stl_algobase.h ****   */
 590:/Library/DaisyToolchain/0.2.0/arm/arm-none-eabi/include/c++/10.3.1/bits/stl_algobase.h ****   template<typename _II, typename _OI>
 591:/Library/DaisyToolchain/0.2.0/arm/arm-none-eabi/include/c++/10.3.1/bits/stl_algobase.h ****     _GLIBCXX20_CONSTEXPR
 592:/Library/DaisyToolchain/0.2.0/arm/arm-none-eabi/include/c++/10.3.1/bits/stl_algobase.h ****     inline _OI
 593:/Library/DaisyToolchain/0.2.0/arm/arm-none-eabi/include/c++/10.3.1/bits/stl_algobase.h ****     move(_II __first, _II __last, _OI __result)
 594:/Library/DaisyToolchain/0.2.0/arm/arm-none-eabi/include/c++/10.3.1/bits/stl_algobase.h ****     {
 595:/Library/DaisyToolchain/0.2.0/arm/arm-none-eabi/include/c++/10.3.1/bits/stl_algobase.h ****       // concept requirements
 596:/Library/DaisyToolchain/0.2.0/arm/arm-none-eabi/include/c++/10.3.1/bits/stl_algobase.h ****       __glibcxx_function_requires(_InputIteratorConcept<_II>)
 597:/Library/DaisyToolchain/0.2.0/arm/arm-none-eabi/include/c++/10.3.1/bits/stl_algobase.h ****       __glibcxx_function_requires(_OutputIteratorConcept<_OI,
 598:/Library/DaisyToolchain/0.2.0/arm/arm-none-eabi/include/c++/10.3.1/bits/stl_algobase.h **** 	    typename iterator_traits<_II>::value_type>)
 599:/Library/DaisyToolchain/0.2.0/arm/arm-none-eabi/include/c++/10.3.1/bits/stl_algobase.h ****       __glibcxx_requires_can_increment_range(__first, __last, __result);
 600:/Library/DaisyToolchain/0.2.0/arm/arm-none-eabi/include/c++/10.3.1/bits/stl_algobase.h **** 
 601:/Library/DaisyToolchain/0.2.0/arm/arm-none-eabi/include/c++/10.3.1/bits/stl_algobase.h ****       return std::__copy_move_a<true>(std::__miter_base(__first),
 602:/Library/DaisyToolchain/0.2.0/arm/arm-none-eabi/include/c++/10.3.1/bits/stl_algobase.h **** 				      std::__miter_base(__last), __result);
 603:/Library/DaisyToolchain/0.2.0/arm/arm-none-eabi/include/c++/10.3.1/bits/stl_algobase.h ****     }
 604:/Library/DaisyToolchain/0.2.0/arm/arm-none-eabi/include/c++/10.3.1/bits/stl_algobase.h **** 
 605:/Library/DaisyToolchain/0.2.0/arm/arm-none-eabi/include/c++/10.3.1/bits/stl_algobase.h **** #define _GLIBCXX_MOVE3(_Tp, _Up, _Vp) std::move(_Tp, _Up, _Vp)
 606:/Library/DaisyToolchain/0.2.0/arm/arm-none-eabi/include/c++/10.3.1/bits/stl_algobase.h **** #else
 607:/Library/DaisyToolchain/0.2.0/arm/arm-none-eabi/include/c++/10.3.1/bits/stl_algobase.h **** #define _GLIBCXX_MOVE3(_Tp, _Up, _Vp) std::copy(_Tp, _Up, _Vp)
 608:/Library/DaisyToolchain/0.2.0/arm/arm-none-eabi/include/c++/10.3.1/bits/stl_algobase.h **** #endif
 609:/Library/DaisyToolchain/0.2.0/arm/arm-none-eabi/include/c++/10.3.1/bits/stl_algobase.h **** 
 610:/Library/DaisyToolchain/0.2.0/arm/arm-none-eabi/include/c++/10.3.1/bits/stl_algobase.h ****   template<bool _IsMove, bool _IsSimple, typename _Category>
 611:/Library/DaisyToolchain/0.2.0/arm/arm-none-eabi/include/c++/10.3.1/bits/stl_algobase.h ****     struct __copy_move_backward
 612:/Library/DaisyToolchain/0.2.0/arm/arm-none-eabi/include/c++/10.3.1/bits/stl_algobase.h ****     {
 613:/Library/DaisyToolchain/0.2.0/arm/arm-none-eabi/include/c++/10.3.1/bits/stl_algobase.h ****       template<typename _BI1, typename _BI2>
 614:/Library/DaisyToolchain/0.2.0/arm/arm-none-eabi/include/c++/10.3.1/bits/stl_algobase.h **** 	_GLIBCXX20_CONSTEXPR
 615:/Library/DaisyToolchain/0.2.0/arm/arm-none-eabi/include/c++/10.3.1/bits/stl_algobase.h **** 	static _BI2
 616:/Library/DaisyToolchain/0.2.0/arm/arm-none-eabi/include/c++/10.3.1/bits/stl_algobase.h **** 	__copy_move_b(_BI1 __first, _BI1 __last, _BI2 __result)
 617:/Library/DaisyToolchain/0.2.0/arm/arm-none-eabi/include/c++/10.3.1/bits/stl_algobase.h **** 	{
 618:/Library/DaisyToolchain/0.2.0/arm/arm-none-eabi/include/c++/10.3.1/bits/stl_algobase.h **** 	  while (__first != __last)
 619:/Library/DaisyToolchain/0.2.0/arm/arm-none-eabi/include/c++/10.3.1/bits/stl_algobase.h **** 	    *--__result = *--__last;
 620:/Library/DaisyToolchain/0.2.0/arm/arm-none-eabi/include/c++/10.3.1/bits/stl_algobase.h **** 	  return __result;
 621:/Library/DaisyToolchain/0.2.0/arm/arm-none-eabi/include/c++/10.3.1/bits/stl_algobase.h **** 	}
 622:/Library/DaisyToolchain/0.2.0/arm/arm-none-eabi/include/c++/10.3.1/bits/stl_algobase.h ****     };
 623:/Library/DaisyToolchain/0.2.0/arm/arm-none-eabi/include/c++/10.3.1/bits/stl_algobase.h **** 
 624:/Library/DaisyToolchain/0.2.0/arm/arm-none-eabi/include/c++/10.3.1/bits/stl_algobase.h **** #if __cplusplus >= 201103L
 625:/Library/DaisyToolchain/0.2.0/arm/arm-none-eabi/include/c++/10.3.1/bits/stl_algobase.h ****   template<typename _Category>
 626:/Library/DaisyToolchain/0.2.0/arm/arm-none-eabi/include/c++/10.3.1/bits/stl_algobase.h ****     struct __copy_move_backward<true, false, _Category>
 627:/Library/DaisyToolchain/0.2.0/arm/arm-none-eabi/include/c++/10.3.1/bits/stl_algobase.h ****     {
 628:/Library/DaisyToolchain/0.2.0/arm/arm-none-eabi/include/c++/10.3.1/bits/stl_algobase.h ****       template<typename _BI1, typename _BI2>
 629:/Library/DaisyToolchain/0.2.0/arm/arm-none-eabi/include/c++/10.3.1/bits/stl_algobase.h **** 	_GLIBCXX20_CONSTEXPR
 630:/Library/DaisyToolchain/0.2.0/arm/arm-none-eabi/include/c++/10.3.1/bits/stl_algobase.h **** 	static _BI2
 631:/Library/DaisyToolchain/0.2.0/arm/arm-none-eabi/include/c++/10.3.1/bits/stl_algobase.h **** 	__copy_move_b(_BI1 __first, _BI1 __last, _BI2 __result)
 632:/Library/DaisyToolchain/0.2.0/arm/arm-none-eabi/include/c++/10.3.1/bits/stl_algobase.h **** 	{
 633:/Library/DaisyToolchain/0.2.0/arm/arm-none-eabi/include/c++/10.3.1/bits/stl_algobase.h **** 	  while (__first != __last)
 634:/Library/DaisyToolchain/0.2.0/arm/arm-none-eabi/include/c++/10.3.1/bits/stl_algobase.h **** 	    *--__result = std::move(*--__last);
 635:/Library/DaisyToolchain/0.2.0/arm/arm-none-eabi/include/c++/10.3.1/bits/stl_algobase.h **** 	  return __result;
 636:/Library/DaisyToolchain/0.2.0/arm/arm-none-eabi/include/c++/10.3.1/bits/stl_algobase.h **** 	}
 637:/Library/DaisyToolchain/0.2.0/arm/arm-none-eabi/include/c++/10.3.1/bits/stl_algobase.h ****     };
ARM GAS  /var/folders/9s/8rp0_f2s1n31qbztm3b5_fdh0000gn/T//cc5SCkU0.s 			page 20


 638:/Library/DaisyToolchain/0.2.0/arm/arm-none-eabi/include/c++/10.3.1/bits/stl_algobase.h **** #endif
 639:/Library/DaisyToolchain/0.2.0/arm/arm-none-eabi/include/c++/10.3.1/bits/stl_algobase.h **** 
 640:/Library/DaisyToolchain/0.2.0/arm/arm-none-eabi/include/c++/10.3.1/bits/stl_algobase.h ****   template<>
 641:/Library/DaisyToolchain/0.2.0/arm/arm-none-eabi/include/c++/10.3.1/bits/stl_algobase.h ****     struct __copy_move_backward<false, false, random_access_iterator_tag>
 642:/Library/DaisyToolchain/0.2.0/arm/arm-none-eabi/include/c++/10.3.1/bits/stl_algobase.h ****     {
 643:/Library/DaisyToolchain/0.2.0/arm/arm-none-eabi/include/c++/10.3.1/bits/stl_algobase.h ****       template<typename _BI1, typename _BI2>
 644:/Library/DaisyToolchain/0.2.0/arm/arm-none-eabi/include/c++/10.3.1/bits/stl_algobase.h **** 	_GLIBCXX20_CONSTEXPR
 645:/Library/DaisyToolchain/0.2.0/arm/arm-none-eabi/include/c++/10.3.1/bits/stl_algobase.h **** 	static _BI2
 646:/Library/DaisyToolchain/0.2.0/arm/arm-none-eabi/include/c++/10.3.1/bits/stl_algobase.h **** 	__copy_move_b(_BI1 __first, _BI1 __last, _BI2 __result)
 647:/Library/DaisyToolchain/0.2.0/arm/arm-none-eabi/include/c++/10.3.1/bits/stl_algobase.h **** 	{
 648:/Library/DaisyToolchain/0.2.0/arm/arm-none-eabi/include/c++/10.3.1/bits/stl_algobase.h **** 	  typename iterator_traits<_BI1>::difference_type
 649:/Library/DaisyToolchain/0.2.0/arm/arm-none-eabi/include/c++/10.3.1/bits/stl_algobase.h **** 	    __n = __last - __first;
 650:/Library/DaisyToolchain/0.2.0/arm/arm-none-eabi/include/c++/10.3.1/bits/stl_algobase.h **** 	  for (; __n > 0; --__n)
 651:/Library/DaisyToolchain/0.2.0/arm/arm-none-eabi/include/c++/10.3.1/bits/stl_algobase.h **** 	    *--__result = *--__last;
 652:/Library/DaisyToolchain/0.2.0/arm/arm-none-eabi/include/c++/10.3.1/bits/stl_algobase.h **** 	  return __result;
 653:/Library/DaisyToolchain/0.2.0/arm/arm-none-eabi/include/c++/10.3.1/bits/stl_algobase.h **** 	}
 654:/Library/DaisyToolchain/0.2.0/arm/arm-none-eabi/include/c++/10.3.1/bits/stl_algobase.h ****     };
 655:/Library/DaisyToolchain/0.2.0/arm/arm-none-eabi/include/c++/10.3.1/bits/stl_algobase.h **** 
 656:/Library/DaisyToolchain/0.2.0/arm/arm-none-eabi/include/c++/10.3.1/bits/stl_algobase.h **** #if __cplusplus >= 201103L
 657:/Library/DaisyToolchain/0.2.0/arm/arm-none-eabi/include/c++/10.3.1/bits/stl_algobase.h ****   template<>
 658:/Library/DaisyToolchain/0.2.0/arm/arm-none-eabi/include/c++/10.3.1/bits/stl_algobase.h ****     struct __copy_move_backward<true, false, random_access_iterator_tag>
 659:/Library/DaisyToolchain/0.2.0/arm/arm-none-eabi/include/c++/10.3.1/bits/stl_algobase.h ****     {
 660:/Library/DaisyToolchain/0.2.0/arm/arm-none-eabi/include/c++/10.3.1/bits/stl_algobase.h ****       template<typename _BI1, typename _BI2>
 661:/Library/DaisyToolchain/0.2.0/arm/arm-none-eabi/include/c++/10.3.1/bits/stl_algobase.h **** 	_GLIBCXX20_CONSTEXPR
 662:/Library/DaisyToolchain/0.2.0/arm/arm-none-eabi/include/c++/10.3.1/bits/stl_algobase.h **** 	static _BI2
 663:/Library/DaisyToolchain/0.2.0/arm/arm-none-eabi/include/c++/10.3.1/bits/stl_algobase.h **** 	__copy_move_b(_BI1 __first, _BI1 __last, _BI2 __result)
 664:/Library/DaisyToolchain/0.2.0/arm/arm-none-eabi/include/c++/10.3.1/bits/stl_algobase.h **** 	{
 665:/Library/DaisyToolchain/0.2.0/arm/arm-none-eabi/include/c++/10.3.1/bits/stl_algobase.h **** 	  typename iterator_traits<_BI1>::difference_type
 666:/Library/DaisyToolchain/0.2.0/arm/arm-none-eabi/include/c++/10.3.1/bits/stl_algobase.h **** 	    __n = __last - __first;
 667:/Library/DaisyToolchain/0.2.0/arm/arm-none-eabi/include/c++/10.3.1/bits/stl_algobase.h **** 	  for (; __n > 0; --__n)
 668:/Library/DaisyToolchain/0.2.0/arm/arm-none-eabi/include/c++/10.3.1/bits/stl_algobase.h **** 	    *--__result = std::move(*--__last);
 669:/Library/DaisyToolchain/0.2.0/arm/arm-none-eabi/include/c++/10.3.1/bits/stl_algobase.h **** 	  return __result;
 670:/Library/DaisyToolchain/0.2.0/arm/arm-none-eabi/include/c++/10.3.1/bits/stl_algobase.h **** 	}
 671:/Library/DaisyToolchain/0.2.0/arm/arm-none-eabi/include/c++/10.3.1/bits/stl_algobase.h ****     };
 672:/Library/DaisyToolchain/0.2.0/arm/arm-none-eabi/include/c++/10.3.1/bits/stl_algobase.h **** #endif
 673:/Library/DaisyToolchain/0.2.0/arm/arm-none-eabi/include/c++/10.3.1/bits/stl_algobase.h **** 
 674:/Library/DaisyToolchain/0.2.0/arm/arm-none-eabi/include/c++/10.3.1/bits/stl_algobase.h ****   template<bool _IsMove>
 675:/Library/DaisyToolchain/0.2.0/arm/arm-none-eabi/include/c++/10.3.1/bits/stl_algobase.h ****     struct __copy_move_backward<_IsMove, true, random_access_iterator_tag>
 676:/Library/DaisyToolchain/0.2.0/arm/arm-none-eabi/include/c++/10.3.1/bits/stl_algobase.h ****     {
 677:/Library/DaisyToolchain/0.2.0/arm/arm-none-eabi/include/c++/10.3.1/bits/stl_algobase.h ****       template<typename _Tp>
 678:/Library/DaisyToolchain/0.2.0/arm/arm-none-eabi/include/c++/10.3.1/bits/stl_algobase.h **** 	_GLIBCXX20_CONSTEXPR
 679:/Library/DaisyToolchain/0.2.0/arm/arm-none-eabi/include/c++/10.3.1/bits/stl_algobase.h **** 	static _Tp*
 680:/Library/DaisyToolchain/0.2.0/arm/arm-none-eabi/include/c++/10.3.1/bits/stl_algobase.h **** 	__copy_move_b(const _Tp* __first, const _Tp* __last, _Tp* __result)
 681:/Library/DaisyToolchain/0.2.0/arm/arm-none-eabi/include/c++/10.3.1/bits/stl_algobase.h **** 	{
 682:/Library/DaisyToolchain/0.2.0/arm/arm-none-eabi/include/c++/10.3.1/bits/stl_algobase.h **** #if __cplusplus >= 201103L
 683:/Library/DaisyToolchain/0.2.0/arm/arm-none-eabi/include/c++/10.3.1/bits/stl_algobase.h **** 	  using __assignable = conditional<_IsMove,
 684:/Library/DaisyToolchain/0.2.0/arm/arm-none-eabi/include/c++/10.3.1/bits/stl_algobase.h **** 					   is_move_assignable<_Tp>,
 685:/Library/DaisyToolchain/0.2.0/arm/arm-none-eabi/include/c++/10.3.1/bits/stl_algobase.h **** 					   is_copy_assignable<_Tp>>;
 686:/Library/DaisyToolchain/0.2.0/arm/arm-none-eabi/include/c++/10.3.1/bits/stl_algobase.h **** 	  // trivial types can have deleted assignment
 687:/Library/DaisyToolchain/0.2.0/arm/arm-none-eabi/include/c++/10.3.1/bits/stl_algobase.h **** 	  static_assert( __assignable::type::value, "type is not assignable" );
 688:/Library/DaisyToolchain/0.2.0/arm/arm-none-eabi/include/c++/10.3.1/bits/stl_algobase.h **** #endif
 689:/Library/DaisyToolchain/0.2.0/arm/arm-none-eabi/include/c++/10.3.1/bits/stl_algobase.h **** 	  const ptrdiff_t _Num = __last - __first;
 690:/Library/DaisyToolchain/0.2.0/arm/arm-none-eabi/include/c++/10.3.1/bits/stl_algobase.h **** 	  if (_Num)
 691:/Library/DaisyToolchain/0.2.0/arm/arm-none-eabi/include/c++/10.3.1/bits/stl_algobase.h **** 	    __builtin_memmove(__result - _Num, __first, sizeof(_Tp) * _Num);
 692:/Library/DaisyToolchain/0.2.0/arm/arm-none-eabi/include/c++/10.3.1/bits/stl_algobase.h **** 	  return __result - _Num;
 693:/Library/DaisyToolchain/0.2.0/arm/arm-none-eabi/include/c++/10.3.1/bits/stl_algobase.h **** 	}
 694:/Library/DaisyToolchain/0.2.0/arm/arm-none-eabi/include/c++/10.3.1/bits/stl_algobase.h ****     };
ARM GAS  /var/folders/9s/8rp0_f2s1n31qbztm3b5_fdh0000gn/T//cc5SCkU0.s 			page 21


 695:/Library/DaisyToolchain/0.2.0/arm/arm-none-eabi/include/c++/10.3.1/bits/stl_algobase.h **** 
 696:/Library/DaisyToolchain/0.2.0/arm/arm-none-eabi/include/c++/10.3.1/bits/stl_algobase.h ****   template<bool _IsMove, typename _BI1, typename _BI2>
 697:/Library/DaisyToolchain/0.2.0/arm/arm-none-eabi/include/c++/10.3.1/bits/stl_algobase.h ****     _GLIBCXX20_CONSTEXPR
 698:/Library/DaisyToolchain/0.2.0/arm/arm-none-eabi/include/c++/10.3.1/bits/stl_algobase.h ****     inline _BI2
 699:/Library/DaisyToolchain/0.2.0/arm/arm-none-eabi/include/c++/10.3.1/bits/stl_algobase.h ****     __copy_move_backward_a2(_BI1 __first, _BI1 __last, _BI2 __result)
 700:/Library/DaisyToolchain/0.2.0/arm/arm-none-eabi/include/c++/10.3.1/bits/stl_algobase.h ****     {
 701:/Library/DaisyToolchain/0.2.0/arm/arm-none-eabi/include/c++/10.3.1/bits/stl_algobase.h ****       typedef typename iterator_traits<_BI1>::iterator_category _Category;
 702:/Library/DaisyToolchain/0.2.0/arm/arm-none-eabi/include/c++/10.3.1/bits/stl_algobase.h **** #ifdef __cpp_lib_is_constant_evaluated
 703:/Library/DaisyToolchain/0.2.0/arm/arm-none-eabi/include/c++/10.3.1/bits/stl_algobase.h ****       if (std::is_constant_evaluated())
 704:/Library/DaisyToolchain/0.2.0/arm/arm-none-eabi/include/c++/10.3.1/bits/stl_algobase.h **** 	return std::__copy_move_backward<_IsMove, false, _Category>::
 705:/Library/DaisyToolchain/0.2.0/arm/arm-none-eabi/include/c++/10.3.1/bits/stl_algobase.h **** 	  __copy_move_b(__first, __last, __result);
 706:/Library/DaisyToolchain/0.2.0/arm/arm-none-eabi/include/c++/10.3.1/bits/stl_algobase.h **** #endif
 707:/Library/DaisyToolchain/0.2.0/arm/arm-none-eabi/include/c++/10.3.1/bits/stl_algobase.h ****       return std::__copy_move_backward<_IsMove,
 708:/Library/DaisyToolchain/0.2.0/arm/arm-none-eabi/include/c++/10.3.1/bits/stl_algobase.h **** 				       __memcpyable<_BI2, _BI1>::__value,
 709:/Library/DaisyToolchain/0.2.0/arm/arm-none-eabi/include/c++/10.3.1/bits/stl_algobase.h **** 				       _Category>::__copy_move_b(__first,
 710:/Library/DaisyToolchain/0.2.0/arm/arm-none-eabi/include/c++/10.3.1/bits/stl_algobase.h **** 								 __last,
 711:/Library/DaisyToolchain/0.2.0/arm/arm-none-eabi/include/c++/10.3.1/bits/stl_algobase.h **** 								 __result);
 712:/Library/DaisyToolchain/0.2.0/arm/arm-none-eabi/include/c++/10.3.1/bits/stl_algobase.h ****     }
 713:/Library/DaisyToolchain/0.2.0/arm/arm-none-eabi/include/c++/10.3.1/bits/stl_algobase.h **** 
 714:/Library/DaisyToolchain/0.2.0/arm/arm-none-eabi/include/c++/10.3.1/bits/stl_algobase.h ****   template<bool _IsMove, typename _BI1, typename _BI2>
 715:/Library/DaisyToolchain/0.2.0/arm/arm-none-eabi/include/c++/10.3.1/bits/stl_algobase.h ****     _GLIBCXX20_CONSTEXPR
 716:/Library/DaisyToolchain/0.2.0/arm/arm-none-eabi/include/c++/10.3.1/bits/stl_algobase.h ****     inline _BI2
 717:/Library/DaisyToolchain/0.2.0/arm/arm-none-eabi/include/c++/10.3.1/bits/stl_algobase.h ****     __copy_move_backward_a1(_BI1 __first, _BI1 __last, _BI2 __result)
 718:/Library/DaisyToolchain/0.2.0/arm/arm-none-eabi/include/c++/10.3.1/bits/stl_algobase.h ****     { return std::__copy_move_backward_a2<_IsMove>(__first, __last, __result); }
 719:/Library/DaisyToolchain/0.2.0/arm/arm-none-eabi/include/c++/10.3.1/bits/stl_algobase.h **** 
 720:/Library/DaisyToolchain/0.2.0/arm/arm-none-eabi/include/c++/10.3.1/bits/stl_algobase.h ****   template<bool _IsMove,
 721:/Library/DaisyToolchain/0.2.0/arm/arm-none-eabi/include/c++/10.3.1/bits/stl_algobase.h **** 	   typename _Tp, typename _Ref, typename _Ptr, typename _OI>
 722:/Library/DaisyToolchain/0.2.0/arm/arm-none-eabi/include/c++/10.3.1/bits/stl_algobase.h ****     _OI
 723:/Library/DaisyToolchain/0.2.0/arm/arm-none-eabi/include/c++/10.3.1/bits/stl_algobase.h ****     __copy_move_backward_a1(_GLIBCXX_STD_C::_Deque_iterator<_Tp, _Ref, _Ptr>,
 724:/Library/DaisyToolchain/0.2.0/arm/arm-none-eabi/include/c++/10.3.1/bits/stl_algobase.h **** 			    _GLIBCXX_STD_C::_Deque_iterator<_Tp, _Ref, _Ptr>,
 725:/Library/DaisyToolchain/0.2.0/arm/arm-none-eabi/include/c++/10.3.1/bits/stl_algobase.h **** 			    _OI);
 726:/Library/DaisyToolchain/0.2.0/arm/arm-none-eabi/include/c++/10.3.1/bits/stl_algobase.h **** 
 727:/Library/DaisyToolchain/0.2.0/arm/arm-none-eabi/include/c++/10.3.1/bits/stl_algobase.h ****   template<bool _IsMove,
 728:/Library/DaisyToolchain/0.2.0/arm/arm-none-eabi/include/c++/10.3.1/bits/stl_algobase.h **** 	   typename _ITp, typename _IRef, typename _IPtr, typename _OTp>
 729:/Library/DaisyToolchain/0.2.0/arm/arm-none-eabi/include/c++/10.3.1/bits/stl_algobase.h ****     _GLIBCXX_STD_C::_Deque_iterator<_OTp, _OTp&, _OTp*>
 730:/Library/DaisyToolchain/0.2.0/arm/arm-none-eabi/include/c++/10.3.1/bits/stl_algobase.h ****     __copy_move_backward_a1(
 731:/Library/DaisyToolchain/0.2.0/arm/arm-none-eabi/include/c++/10.3.1/bits/stl_algobase.h **** 			_GLIBCXX_STD_C::_Deque_iterator<_ITp, _IRef, _IPtr>,
 732:/Library/DaisyToolchain/0.2.0/arm/arm-none-eabi/include/c++/10.3.1/bits/stl_algobase.h **** 			_GLIBCXX_STD_C::_Deque_iterator<_ITp, _IRef, _IPtr>,
 733:/Library/DaisyToolchain/0.2.0/arm/arm-none-eabi/include/c++/10.3.1/bits/stl_algobase.h **** 			_GLIBCXX_STD_C::_Deque_iterator<_OTp, _OTp&, _OTp*>);
 734:/Library/DaisyToolchain/0.2.0/arm/arm-none-eabi/include/c++/10.3.1/bits/stl_algobase.h **** 
 735:/Library/DaisyToolchain/0.2.0/arm/arm-none-eabi/include/c++/10.3.1/bits/stl_algobase.h ****   template<bool _IsMove, typename _II, typename _Tp>
 736:/Library/DaisyToolchain/0.2.0/arm/arm-none-eabi/include/c++/10.3.1/bits/stl_algobase.h ****     typename __gnu_cxx::__enable_if<
 737:/Library/DaisyToolchain/0.2.0/arm/arm-none-eabi/include/c++/10.3.1/bits/stl_algobase.h ****       __is_random_access_iter<_II>::__value,
 738:/Library/DaisyToolchain/0.2.0/arm/arm-none-eabi/include/c++/10.3.1/bits/stl_algobase.h ****       _GLIBCXX_STD_C::_Deque_iterator<_Tp, _Tp&, _Tp*> >::__type
 739:/Library/DaisyToolchain/0.2.0/arm/arm-none-eabi/include/c++/10.3.1/bits/stl_algobase.h ****     __copy_move_backward_a1(_II, _II,
 740:/Library/DaisyToolchain/0.2.0/arm/arm-none-eabi/include/c++/10.3.1/bits/stl_algobase.h **** 			    _GLIBCXX_STD_C::_Deque_iterator<_Tp, _Tp&, _Tp*>);
 741:/Library/DaisyToolchain/0.2.0/arm/arm-none-eabi/include/c++/10.3.1/bits/stl_algobase.h **** 
 742:/Library/DaisyToolchain/0.2.0/arm/arm-none-eabi/include/c++/10.3.1/bits/stl_algobase.h ****   template<bool _IsMove, typename _II, typename _OI>
 743:/Library/DaisyToolchain/0.2.0/arm/arm-none-eabi/include/c++/10.3.1/bits/stl_algobase.h ****     _GLIBCXX20_CONSTEXPR
 744:/Library/DaisyToolchain/0.2.0/arm/arm-none-eabi/include/c++/10.3.1/bits/stl_algobase.h ****     inline _OI
 745:/Library/DaisyToolchain/0.2.0/arm/arm-none-eabi/include/c++/10.3.1/bits/stl_algobase.h ****     __copy_move_backward_a(_II __first, _II __last, _OI __result)
 746:/Library/DaisyToolchain/0.2.0/arm/arm-none-eabi/include/c++/10.3.1/bits/stl_algobase.h ****     {
 747:/Library/DaisyToolchain/0.2.0/arm/arm-none-eabi/include/c++/10.3.1/bits/stl_algobase.h ****       return std::__niter_wrap(__result,
 748:/Library/DaisyToolchain/0.2.0/arm/arm-none-eabi/include/c++/10.3.1/bits/stl_algobase.h **** 		std::__copy_move_backward_a1<_IsMove>
 749:/Library/DaisyToolchain/0.2.0/arm/arm-none-eabi/include/c++/10.3.1/bits/stl_algobase.h **** 		  (std::__niter_base(__first), std::__niter_base(__last),
 750:/Library/DaisyToolchain/0.2.0/arm/arm-none-eabi/include/c++/10.3.1/bits/stl_algobase.h **** 		   std::__niter_base(__result)));
 751:/Library/DaisyToolchain/0.2.0/arm/arm-none-eabi/include/c++/10.3.1/bits/stl_algobase.h ****     }
ARM GAS  /var/folders/9s/8rp0_f2s1n31qbztm3b5_fdh0000gn/T//cc5SCkU0.s 			page 22


 752:/Library/DaisyToolchain/0.2.0/arm/arm-none-eabi/include/c++/10.3.1/bits/stl_algobase.h **** 
 753:/Library/DaisyToolchain/0.2.0/arm/arm-none-eabi/include/c++/10.3.1/bits/stl_algobase.h ****   template<bool _IsMove,
 754:/Library/DaisyToolchain/0.2.0/arm/arm-none-eabi/include/c++/10.3.1/bits/stl_algobase.h **** 	   typename _Ite, typename _Seq, typename _Cat, typename _OI>
 755:/Library/DaisyToolchain/0.2.0/arm/arm-none-eabi/include/c++/10.3.1/bits/stl_algobase.h ****     _OI
 756:/Library/DaisyToolchain/0.2.0/arm/arm-none-eabi/include/c++/10.3.1/bits/stl_algobase.h ****     __copy_move_backward_a(
 757:/Library/DaisyToolchain/0.2.0/arm/arm-none-eabi/include/c++/10.3.1/bits/stl_algobase.h **** 		const ::__gnu_debug::_Safe_iterator<_Ite, _Seq, _Cat>&,
 758:/Library/DaisyToolchain/0.2.0/arm/arm-none-eabi/include/c++/10.3.1/bits/stl_algobase.h **** 		const ::__gnu_debug::_Safe_iterator<_Ite, _Seq, _Cat>&,
 759:/Library/DaisyToolchain/0.2.0/arm/arm-none-eabi/include/c++/10.3.1/bits/stl_algobase.h **** 		_OI);
 760:/Library/DaisyToolchain/0.2.0/arm/arm-none-eabi/include/c++/10.3.1/bits/stl_algobase.h **** 
 761:/Library/DaisyToolchain/0.2.0/arm/arm-none-eabi/include/c++/10.3.1/bits/stl_algobase.h ****   template<bool _IsMove,
 762:/Library/DaisyToolchain/0.2.0/arm/arm-none-eabi/include/c++/10.3.1/bits/stl_algobase.h **** 	   typename _II, typename _Ite, typename _Seq, typename _Cat>
 763:/Library/DaisyToolchain/0.2.0/arm/arm-none-eabi/include/c++/10.3.1/bits/stl_algobase.h ****     __gnu_debug::_Safe_iterator<_Ite, _Seq, _Cat>
 764:/Library/DaisyToolchain/0.2.0/arm/arm-none-eabi/include/c++/10.3.1/bits/stl_algobase.h ****     __copy_move_backward_a(_II, _II,
 765:/Library/DaisyToolchain/0.2.0/arm/arm-none-eabi/include/c++/10.3.1/bits/stl_algobase.h **** 		const ::__gnu_debug::_Safe_iterator<_Ite, _Seq, _Cat>&);
 766:/Library/DaisyToolchain/0.2.0/arm/arm-none-eabi/include/c++/10.3.1/bits/stl_algobase.h **** 
 767:/Library/DaisyToolchain/0.2.0/arm/arm-none-eabi/include/c++/10.3.1/bits/stl_algobase.h ****   template<bool _IsMove,
 768:/Library/DaisyToolchain/0.2.0/arm/arm-none-eabi/include/c++/10.3.1/bits/stl_algobase.h **** 	   typename _IIte, typename _ISeq, typename _ICat,
 769:/Library/DaisyToolchain/0.2.0/arm/arm-none-eabi/include/c++/10.3.1/bits/stl_algobase.h **** 	   typename _OIte, typename _OSeq, typename _OCat>
 770:/Library/DaisyToolchain/0.2.0/arm/arm-none-eabi/include/c++/10.3.1/bits/stl_algobase.h ****     ::__gnu_debug::_Safe_iterator<_OIte, _OSeq, _OCat>
 771:/Library/DaisyToolchain/0.2.0/arm/arm-none-eabi/include/c++/10.3.1/bits/stl_algobase.h ****     __copy_move_backward_a(
 772:/Library/DaisyToolchain/0.2.0/arm/arm-none-eabi/include/c++/10.3.1/bits/stl_algobase.h **** 		const ::__gnu_debug::_Safe_iterator<_IIte, _ISeq, _ICat>&,
 773:/Library/DaisyToolchain/0.2.0/arm/arm-none-eabi/include/c++/10.3.1/bits/stl_algobase.h **** 		const ::__gnu_debug::_Safe_iterator<_IIte, _ISeq, _ICat>&,
 774:/Library/DaisyToolchain/0.2.0/arm/arm-none-eabi/include/c++/10.3.1/bits/stl_algobase.h **** 		const ::__gnu_debug::_Safe_iterator<_OIte, _OSeq, _OCat>&);
 775:/Library/DaisyToolchain/0.2.0/arm/arm-none-eabi/include/c++/10.3.1/bits/stl_algobase.h **** 
 776:/Library/DaisyToolchain/0.2.0/arm/arm-none-eabi/include/c++/10.3.1/bits/stl_algobase.h ****   /**
 777:/Library/DaisyToolchain/0.2.0/arm/arm-none-eabi/include/c++/10.3.1/bits/stl_algobase.h ****    *  @brief Copies the range [first,last) into result.
 778:/Library/DaisyToolchain/0.2.0/arm/arm-none-eabi/include/c++/10.3.1/bits/stl_algobase.h ****    *  @ingroup mutating_algorithms
 779:/Library/DaisyToolchain/0.2.0/arm/arm-none-eabi/include/c++/10.3.1/bits/stl_algobase.h ****    *  @param  __first  A bidirectional iterator.
 780:/Library/DaisyToolchain/0.2.0/arm/arm-none-eabi/include/c++/10.3.1/bits/stl_algobase.h ****    *  @param  __last   A bidirectional iterator.
 781:/Library/DaisyToolchain/0.2.0/arm/arm-none-eabi/include/c++/10.3.1/bits/stl_algobase.h ****    *  @param  __result A bidirectional iterator.
 782:/Library/DaisyToolchain/0.2.0/arm/arm-none-eabi/include/c++/10.3.1/bits/stl_algobase.h ****    *  @return   result - (last - first)
 783:/Library/DaisyToolchain/0.2.0/arm/arm-none-eabi/include/c++/10.3.1/bits/stl_algobase.h ****    *
 784:/Library/DaisyToolchain/0.2.0/arm/arm-none-eabi/include/c++/10.3.1/bits/stl_algobase.h ****    *  The function has the same effect as copy, but starts at the end of the
 785:/Library/DaisyToolchain/0.2.0/arm/arm-none-eabi/include/c++/10.3.1/bits/stl_algobase.h ****    *  range and works its way to the start, returning the start of the result.
 786:/Library/DaisyToolchain/0.2.0/arm/arm-none-eabi/include/c++/10.3.1/bits/stl_algobase.h ****    *  This inline function will boil down to a call to @c memmove whenever
 787:/Library/DaisyToolchain/0.2.0/arm/arm-none-eabi/include/c++/10.3.1/bits/stl_algobase.h ****    *  possible.  Failing that, if random access iterators are passed, then the
 788:/Library/DaisyToolchain/0.2.0/arm/arm-none-eabi/include/c++/10.3.1/bits/stl_algobase.h ****    *  loop count will be known (and therefore a candidate for compiler
 789:/Library/DaisyToolchain/0.2.0/arm/arm-none-eabi/include/c++/10.3.1/bits/stl_algobase.h ****    *  optimizations such as unrolling).
 790:/Library/DaisyToolchain/0.2.0/arm/arm-none-eabi/include/c++/10.3.1/bits/stl_algobase.h ****    *
 791:/Library/DaisyToolchain/0.2.0/arm/arm-none-eabi/include/c++/10.3.1/bits/stl_algobase.h ****    *  Result may not be in the range (first,last].  Use copy instead.  Note
 792:/Library/DaisyToolchain/0.2.0/arm/arm-none-eabi/include/c++/10.3.1/bits/stl_algobase.h ****    *  that the start of the output range may overlap [first,last).
 793:/Library/DaisyToolchain/0.2.0/arm/arm-none-eabi/include/c++/10.3.1/bits/stl_algobase.h ****   */
 794:/Library/DaisyToolchain/0.2.0/arm/arm-none-eabi/include/c++/10.3.1/bits/stl_algobase.h ****   template<typename _BI1, typename _BI2>
 795:/Library/DaisyToolchain/0.2.0/arm/arm-none-eabi/include/c++/10.3.1/bits/stl_algobase.h ****     _GLIBCXX20_CONSTEXPR
 796:/Library/DaisyToolchain/0.2.0/arm/arm-none-eabi/include/c++/10.3.1/bits/stl_algobase.h ****     inline _BI2
 797:/Library/DaisyToolchain/0.2.0/arm/arm-none-eabi/include/c++/10.3.1/bits/stl_algobase.h ****     copy_backward(_BI1 __first, _BI1 __last, _BI2 __result)
 798:/Library/DaisyToolchain/0.2.0/arm/arm-none-eabi/include/c++/10.3.1/bits/stl_algobase.h ****     {
 799:/Library/DaisyToolchain/0.2.0/arm/arm-none-eabi/include/c++/10.3.1/bits/stl_algobase.h ****       // concept requirements
 800:/Library/DaisyToolchain/0.2.0/arm/arm-none-eabi/include/c++/10.3.1/bits/stl_algobase.h ****       __glibcxx_function_requires(_BidirectionalIteratorConcept<_BI1>)
 801:/Library/DaisyToolchain/0.2.0/arm/arm-none-eabi/include/c++/10.3.1/bits/stl_algobase.h ****       __glibcxx_function_requires(_Mutable_BidirectionalIteratorConcept<_BI2>)
 802:/Library/DaisyToolchain/0.2.0/arm/arm-none-eabi/include/c++/10.3.1/bits/stl_algobase.h ****       __glibcxx_function_requires(_ConvertibleConcept<
 803:/Library/DaisyToolchain/0.2.0/arm/arm-none-eabi/include/c++/10.3.1/bits/stl_algobase.h **** 	    typename iterator_traits<_BI1>::value_type,
 804:/Library/DaisyToolchain/0.2.0/arm/arm-none-eabi/include/c++/10.3.1/bits/stl_algobase.h **** 	    typename iterator_traits<_BI2>::value_type>)
 805:/Library/DaisyToolchain/0.2.0/arm/arm-none-eabi/include/c++/10.3.1/bits/stl_algobase.h ****       __glibcxx_requires_can_decrement_range(__first, __last, __result);
 806:/Library/DaisyToolchain/0.2.0/arm/arm-none-eabi/include/c++/10.3.1/bits/stl_algobase.h **** 
 807:/Library/DaisyToolchain/0.2.0/arm/arm-none-eabi/include/c++/10.3.1/bits/stl_algobase.h ****       return std::__copy_move_backward_a<__is_move_iterator<_BI1>::__value>
 808:/Library/DaisyToolchain/0.2.0/arm/arm-none-eabi/include/c++/10.3.1/bits/stl_algobase.h **** 	     (std::__miter_base(__first), std::__miter_base(__last), __result);
ARM GAS  /var/folders/9s/8rp0_f2s1n31qbztm3b5_fdh0000gn/T//cc5SCkU0.s 			page 23


 809:/Library/DaisyToolchain/0.2.0/arm/arm-none-eabi/include/c++/10.3.1/bits/stl_algobase.h ****     }
 810:/Library/DaisyToolchain/0.2.0/arm/arm-none-eabi/include/c++/10.3.1/bits/stl_algobase.h **** 
 811:/Library/DaisyToolchain/0.2.0/arm/arm-none-eabi/include/c++/10.3.1/bits/stl_algobase.h **** #if __cplusplus >= 201103L
 812:/Library/DaisyToolchain/0.2.0/arm/arm-none-eabi/include/c++/10.3.1/bits/stl_algobase.h ****   /**
 813:/Library/DaisyToolchain/0.2.0/arm/arm-none-eabi/include/c++/10.3.1/bits/stl_algobase.h ****    *  @brief Moves the range [first,last) into result.
 814:/Library/DaisyToolchain/0.2.0/arm/arm-none-eabi/include/c++/10.3.1/bits/stl_algobase.h ****    *  @ingroup mutating_algorithms
 815:/Library/DaisyToolchain/0.2.0/arm/arm-none-eabi/include/c++/10.3.1/bits/stl_algobase.h ****    *  @param  __first  A bidirectional iterator.
 816:/Library/DaisyToolchain/0.2.0/arm/arm-none-eabi/include/c++/10.3.1/bits/stl_algobase.h ****    *  @param  __last   A bidirectional iterator.
 817:/Library/DaisyToolchain/0.2.0/arm/arm-none-eabi/include/c++/10.3.1/bits/stl_algobase.h ****    *  @param  __result A bidirectional iterator.
 818:/Library/DaisyToolchain/0.2.0/arm/arm-none-eabi/include/c++/10.3.1/bits/stl_algobase.h ****    *  @return   result - (last - first)
 819:/Library/DaisyToolchain/0.2.0/arm/arm-none-eabi/include/c++/10.3.1/bits/stl_algobase.h ****    *
 820:/Library/DaisyToolchain/0.2.0/arm/arm-none-eabi/include/c++/10.3.1/bits/stl_algobase.h ****    *  The function has the same effect as move, but starts at the end of the
 821:/Library/DaisyToolchain/0.2.0/arm/arm-none-eabi/include/c++/10.3.1/bits/stl_algobase.h ****    *  range and works its way to the start, returning the start of the result.
 822:/Library/DaisyToolchain/0.2.0/arm/arm-none-eabi/include/c++/10.3.1/bits/stl_algobase.h ****    *  This inline function will boil down to a call to @c memmove whenever
 823:/Library/DaisyToolchain/0.2.0/arm/arm-none-eabi/include/c++/10.3.1/bits/stl_algobase.h ****    *  possible.  Failing that, if random access iterators are passed, then the
 824:/Library/DaisyToolchain/0.2.0/arm/arm-none-eabi/include/c++/10.3.1/bits/stl_algobase.h ****    *  loop count will be known (and therefore a candidate for compiler
 825:/Library/DaisyToolchain/0.2.0/arm/arm-none-eabi/include/c++/10.3.1/bits/stl_algobase.h ****    *  optimizations such as unrolling).
 826:/Library/DaisyToolchain/0.2.0/arm/arm-none-eabi/include/c++/10.3.1/bits/stl_algobase.h ****    *
 827:/Library/DaisyToolchain/0.2.0/arm/arm-none-eabi/include/c++/10.3.1/bits/stl_algobase.h ****    *  Result may not be in the range (first,last].  Use move instead.  Note
 828:/Library/DaisyToolchain/0.2.0/arm/arm-none-eabi/include/c++/10.3.1/bits/stl_algobase.h ****    *  that the start of the output range may overlap [first,last).
 829:/Library/DaisyToolchain/0.2.0/arm/arm-none-eabi/include/c++/10.3.1/bits/stl_algobase.h ****   */
 830:/Library/DaisyToolchain/0.2.0/arm/arm-none-eabi/include/c++/10.3.1/bits/stl_algobase.h ****   template<typename _BI1, typename _BI2>
 831:/Library/DaisyToolchain/0.2.0/arm/arm-none-eabi/include/c++/10.3.1/bits/stl_algobase.h ****     _GLIBCXX20_CONSTEXPR
 832:/Library/DaisyToolchain/0.2.0/arm/arm-none-eabi/include/c++/10.3.1/bits/stl_algobase.h ****     inline _BI2
 833:/Library/DaisyToolchain/0.2.0/arm/arm-none-eabi/include/c++/10.3.1/bits/stl_algobase.h ****     move_backward(_BI1 __first, _BI1 __last, _BI2 __result)
 834:/Library/DaisyToolchain/0.2.0/arm/arm-none-eabi/include/c++/10.3.1/bits/stl_algobase.h ****     {
 835:/Library/DaisyToolchain/0.2.0/arm/arm-none-eabi/include/c++/10.3.1/bits/stl_algobase.h ****       // concept requirements
 836:/Library/DaisyToolchain/0.2.0/arm/arm-none-eabi/include/c++/10.3.1/bits/stl_algobase.h ****       __glibcxx_function_requires(_BidirectionalIteratorConcept<_BI1>)
 837:/Library/DaisyToolchain/0.2.0/arm/arm-none-eabi/include/c++/10.3.1/bits/stl_algobase.h ****       __glibcxx_function_requires(_Mutable_BidirectionalIteratorConcept<_BI2>)
 838:/Library/DaisyToolchain/0.2.0/arm/arm-none-eabi/include/c++/10.3.1/bits/stl_algobase.h ****       __glibcxx_function_requires(_ConvertibleConcept<
 839:/Library/DaisyToolchain/0.2.0/arm/arm-none-eabi/include/c++/10.3.1/bits/stl_algobase.h **** 	    typename iterator_traits<_BI1>::value_type,
 840:/Library/DaisyToolchain/0.2.0/arm/arm-none-eabi/include/c++/10.3.1/bits/stl_algobase.h **** 	    typename iterator_traits<_BI2>::value_type>)
 841:/Library/DaisyToolchain/0.2.0/arm/arm-none-eabi/include/c++/10.3.1/bits/stl_algobase.h ****       __glibcxx_requires_can_decrement_range(__first, __last, __result);
 842:/Library/DaisyToolchain/0.2.0/arm/arm-none-eabi/include/c++/10.3.1/bits/stl_algobase.h **** 
 843:/Library/DaisyToolchain/0.2.0/arm/arm-none-eabi/include/c++/10.3.1/bits/stl_algobase.h ****       return std::__copy_move_backward_a<true>(std::__miter_base(__first),
 844:/Library/DaisyToolchain/0.2.0/arm/arm-none-eabi/include/c++/10.3.1/bits/stl_algobase.h **** 					       std::__miter_base(__last),
 845:/Library/DaisyToolchain/0.2.0/arm/arm-none-eabi/include/c++/10.3.1/bits/stl_algobase.h **** 					       __result);
 846:/Library/DaisyToolchain/0.2.0/arm/arm-none-eabi/include/c++/10.3.1/bits/stl_algobase.h ****     }
 847:/Library/DaisyToolchain/0.2.0/arm/arm-none-eabi/include/c++/10.3.1/bits/stl_algobase.h **** 
 848:/Library/DaisyToolchain/0.2.0/arm/arm-none-eabi/include/c++/10.3.1/bits/stl_algobase.h **** #define _GLIBCXX_MOVE_BACKWARD3(_Tp, _Up, _Vp) std::move_backward(_Tp, _Up, _Vp)
 849:/Library/DaisyToolchain/0.2.0/arm/arm-none-eabi/include/c++/10.3.1/bits/stl_algobase.h **** #else
 850:/Library/DaisyToolchain/0.2.0/arm/arm-none-eabi/include/c++/10.3.1/bits/stl_algobase.h **** #define _GLIBCXX_MOVE_BACKWARD3(_Tp, _Up, _Vp) std::copy_backward(_Tp, _Up, _Vp)
 851:/Library/DaisyToolchain/0.2.0/arm/arm-none-eabi/include/c++/10.3.1/bits/stl_algobase.h **** #endif
 852:/Library/DaisyToolchain/0.2.0/arm/arm-none-eabi/include/c++/10.3.1/bits/stl_algobase.h **** 
 853:/Library/DaisyToolchain/0.2.0/arm/arm-none-eabi/include/c++/10.3.1/bits/stl_algobase.h ****   template<typename _ForwardIterator, typename _Tp>
 854:/Library/DaisyToolchain/0.2.0/arm/arm-none-eabi/include/c++/10.3.1/bits/stl_algobase.h ****     _GLIBCXX20_CONSTEXPR
 855:/Library/DaisyToolchain/0.2.0/arm/arm-none-eabi/include/c++/10.3.1/bits/stl_algobase.h ****     inline typename
 856:/Library/DaisyToolchain/0.2.0/arm/arm-none-eabi/include/c++/10.3.1/bits/stl_algobase.h ****     __gnu_cxx::__enable_if<!__is_scalar<_Tp>::__value, void>::__type
 857:/Library/DaisyToolchain/0.2.0/arm/arm-none-eabi/include/c++/10.3.1/bits/stl_algobase.h ****     __fill_a1(_ForwardIterator __first, _ForwardIterator __last,
 858:/Library/DaisyToolchain/0.2.0/arm/arm-none-eabi/include/c++/10.3.1/bits/stl_algobase.h **** 	      const _Tp& __value)
 859:/Library/DaisyToolchain/0.2.0/arm/arm-none-eabi/include/c++/10.3.1/bits/stl_algobase.h ****     {
 860:/Library/DaisyToolchain/0.2.0/arm/arm-none-eabi/include/c++/10.3.1/bits/stl_algobase.h ****       for (; __first != __last; ++__first)
 861:/Library/DaisyToolchain/0.2.0/arm/arm-none-eabi/include/c++/10.3.1/bits/stl_algobase.h **** 	*__first = __value;
 862:/Library/DaisyToolchain/0.2.0/arm/arm-none-eabi/include/c++/10.3.1/bits/stl_algobase.h ****     }
 863:/Library/DaisyToolchain/0.2.0/arm/arm-none-eabi/include/c++/10.3.1/bits/stl_algobase.h **** 
 864:/Library/DaisyToolchain/0.2.0/arm/arm-none-eabi/include/c++/10.3.1/bits/stl_algobase.h ****   template<typename _ForwardIterator, typename _Tp>
 865:/Library/DaisyToolchain/0.2.0/arm/arm-none-eabi/include/c++/10.3.1/bits/stl_algobase.h ****     _GLIBCXX20_CONSTEXPR
ARM GAS  /var/folders/9s/8rp0_f2s1n31qbztm3b5_fdh0000gn/T//cc5SCkU0.s 			page 24


 866:/Library/DaisyToolchain/0.2.0/arm/arm-none-eabi/include/c++/10.3.1/bits/stl_algobase.h ****     inline typename
 867:/Library/DaisyToolchain/0.2.0/arm/arm-none-eabi/include/c++/10.3.1/bits/stl_algobase.h ****     __gnu_cxx::__enable_if<__is_scalar<_Tp>::__value, void>::__type
 868:/Library/DaisyToolchain/0.2.0/arm/arm-none-eabi/include/c++/10.3.1/bits/stl_algobase.h ****     __fill_a1(_ForwardIterator __first, _ForwardIterator __last,
 869:/Library/DaisyToolchain/0.2.0/arm/arm-none-eabi/include/c++/10.3.1/bits/stl_algobase.h **** 	      const _Tp& __value)
 870:/Library/DaisyToolchain/0.2.0/arm/arm-none-eabi/include/c++/10.3.1/bits/stl_algobase.h ****     {
 871:/Library/DaisyToolchain/0.2.0/arm/arm-none-eabi/include/c++/10.3.1/bits/stl_algobase.h ****       const _Tp __tmp = __value;
 872:/Library/DaisyToolchain/0.2.0/arm/arm-none-eabi/include/c++/10.3.1/bits/stl_algobase.h ****       for (; __first != __last; ++__first)
 873:/Library/DaisyToolchain/0.2.0/arm/arm-none-eabi/include/c++/10.3.1/bits/stl_algobase.h **** 	*__first = __tmp;
 874:/Library/DaisyToolchain/0.2.0/arm/arm-none-eabi/include/c++/10.3.1/bits/stl_algobase.h ****     }
 875:/Library/DaisyToolchain/0.2.0/arm/arm-none-eabi/include/c++/10.3.1/bits/stl_algobase.h **** 
 876:/Library/DaisyToolchain/0.2.0/arm/arm-none-eabi/include/c++/10.3.1/bits/stl_algobase.h ****   // Specialization: for char types we can use memset.
 877:/Library/DaisyToolchain/0.2.0/arm/arm-none-eabi/include/c++/10.3.1/bits/stl_algobase.h ****   template<typename _Tp>
 878:/Library/DaisyToolchain/0.2.0/arm/arm-none-eabi/include/c++/10.3.1/bits/stl_algobase.h ****     _GLIBCXX20_CONSTEXPR
 879:/Library/DaisyToolchain/0.2.0/arm/arm-none-eabi/include/c++/10.3.1/bits/stl_algobase.h ****     inline typename
 880:/Library/DaisyToolchain/0.2.0/arm/arm-none-eabi/include/c++/10.3.1/bits/stl_algobase.h ****     __gnu_cxx::__enable_if<__is_byte<_Tp>::__value, void>::__type
 881:/Library/DaisyToolchain/0.2.0/arm/arm-none-eabi/include/c++/10.3.1/bits/stl_algobase.h ****     __fill_a1(_Tp* __first, _Tp* __last, const _Tp& __c)
 882:/Library/DaisyToolchain/0.2.0/arm/arm-none-eabi/include/c++/10.3.1/bits/stl_algobase.h ****     {
 883:/Library/DaisyToolchain/0.2.0/arm/arm-none-eabi/include/c++/10.3.1/bits/stl_algobase.h ****       const _Tp __tmp = __c;
 884:/Library/DaisyToolchain/0.2.0/arm/arm-none-eabi/include/c++/10.3.1/bits/stl_algobase.h **** #if __cpp_lib_is_constant_evaluated
 885:/Library/DaisyToolchain/0.2.0/arm/arm-none-eabi/include/c++/10.3.1/bits/stl_algobase.h ****       if (std::is_constant_evaluated())
 886:/Library/DaisyToolchain/0.2.0/arm/arm-none-eabi/include/c++/10.3.1/bits/stl_algobase.h **** 	{
 887:/Library/DaisyToolchain/0.2.0/arm/arm-none-eabi/include/c++/10.3.1/bits/stl_algobase.h **** 	  for (; __first != __last; ++__first)
 888:/Library/DaisyToolchain/0.2.0/arm/arm-none-eabi/include/c++/10.3.1/bits/stl_algobase.h **** 	    *__first = __tmp;
 889:/Library/DaisyToolchain/0.2.0/arm/arm-none-eabi/include/c++/10.3.1/bits/stl_algobase.h **** 	  return;
 890:/Library/DaisyToolchain/0.2.0/arm/arm-none-eabi/include/c++/10.3.1/bits/stl_algobase.h **** 	}
 891:/Library/DaisyToolchain/0.2.0/arm/arm-none-eabi/include/c++/10.3.1/bits/stl_algobase.h **** #endif
 892:/Library/DaisyToolchain/0.2.0/arm/arm-none-eabi/include/c++/10.3.1/bits/stl_algobase.h ****       if (const size_t __len = __last - __first)
 893:/Library/DaisyToolchain/0.2.0/arm/arm-none-eabi/include/c++/10.3.1/bits/stl_algobase.h **** 	__builtin_memset(__first, static_cast<unsigned char>(__tmp), __len);
 894:/Library/DaisyToolchain/0.2.0/arm/arm-none-eabi/include/c++/10.3.1/bits/stl_algobase.h ****     }
 895:/Library/DaisyToolchain/0.2.0/arm/arm-none-eabi/include/c++/10.3.1/bits/stl_algobase.h **** 
 896:/Library/DaisyToolchain/0.2.0/arm/arm-none-eabi/include/c++/10.3.1/bits/stl_algobase.h ****   template<typename _Ite, typename _Cont, typename _Tp>
 897:/Library/DaisyToolchain/0.2.0/arm/arm-none-eabi/include/c++/10.3.1/bits/stl_algobase.h ****     _GLIBCXX20_CONSTEXPR
 898:/Library/DaisyToolchain/0.2.0/arm/arm-none-eabi/include/c++/10.3.1/bits/stl_algobase.h ****     inline void
 899:/Library/DaisyToolchain/0.2.0/arm/arm-none-eabi/include/c++/10.3.1/bits/stl_algobase.h ****     __fill_a1(::__gnu_cxx::__normal_iterator<_Ite, _Cont> __first,
 900:/Library/DaisyToolchain/0.2.0/arm/arm-none-eabi/include/c++/10.3.1/bits/stl_algobase.h **** 	      ::__gnu_cxx::__normal_iterator<_Ite, _Cont> __last,
 901:/Library/DaisyToolchain/0.2.0/arm/arm-none-eabi/include/c++/10.3.1/bits/stl_algobase.h **** 	      const _Tp& __value)
 902:/Library/DaisyToolchain/0.2.0/arm/arm-none-eabi/include/c++/10.3.1/bits/stl_algobase.h ****     { std::__fill_a1(__first.base(), __last.base(), __value); }
 903:/Library/DaisyToolchain/0.2.0/arm/arm-none-eabi/include/c++/10.3.1/bits/stl_algobase.h **** 
 904:/Library/DaisyToolchain/0.2.0/arm/arm-none-eabi/include/c++/10.3.1/bits/stl_algobase.h ****   template<typename _Tp, typename _VTp>
 905:/Library/DaisyToolchain/0.2.0/arm/arm-none-eabi/include/c++/10.3.1/bits/stl_algobase.h ****     void
 906:/Library/DaisyToolchain/0.2.0/arm/arm-none-eabi/include/c++/10.3.1/bits/stl_algobase.h ****     __fill_a1(const _GLIBCXX_STD_C::_Deque_iterator<_Tp, _Tp&, _Tp*>&,
 907:/Library/DaisyToolchain/0.2.0/arm/arm-none-eabi/include/c++/10.3.1/bits/stl_algobase.h **** 	      const _GLIBCXX_STD_C::_Deque_iterator<_Tp, _Tp&, _Tp*>&,
 908:/Library/DaisyToolchain/0.2.0/arm/arm-none-eabi/include/c++/10.3.1/bits/stl_algobase.h **** 	      const _VTp&);
 909:/Library/DaisyToolchain/0.2.0/arm/arm-none-eabi/include/c++/10.3.1/bits/stl_algobase.h **** 
 910:/Library/DaisyToolchain/0.2.0/arm/arm-none-eabi/include/c++/10.3.1/bits/stl_algobase.h ****   template<typename _FIte, typename _Tp>
 911:/Library/DaisyToolchain/0.2.0/arm/arm-none-eabi/include/c++/10.3.1/bits/stl_algobase.h ****     _GLIBCXX20_CONSTEXPR
 912:/Library/DaisyToolchain/0.2.0/arm/arm-none-eabi/include/c++/10.3.1/bits/stl_algobase.h ****     inline void
 913:/Library/DaisyToolchain/0.2.0/arm/arm-none-eabi/include/c++/10.3.1/bits/stl_algobase.h ****     __fill_a(_FIte __first, _FIte __last, const _Tp& __value)
 914:/Library/DaisyToolchain/0.2.0/arm/arm-none-eabi/include/c++/10.3.1/bits/stl_algobase.h ****     { std::__fill_a1(__first, __last, __value); }
 915:/Library/DaisyToolchain/0.2.0/arm/arm-none-eabi/include/c++/10.3.1/bits/stl_algobase.h **** 
 916:/Library/DaisyToolchain/0.2.0/arm/arm-none-eabi/include/c++/10.3.1/bits/stl_algobase.h ****   template<typename _Ite, typename _Seq, typename _Cat, typename _Tp>
 917:/Library/DaisyToolchain/0.2.0/arm/arm-none-eabi/include/c++/10.3.1/bits/stl_algobase.h ****     void
 918:/Library/DaisyToolchain/0.2.0/arm/arm-none-eabi/include/c++/10.3.1/bits/stl_algobase.h ****     __fill_a(const ::__gnu_debug::_Safe_iterator<_Ite, _Seq, _Cat>&,
 919:/Library/DaisyToolchain/0.2.0/arm/arm-none-eabi/include/c++/10.3.1/bits/stl_algobase.h **** 	     const ::__gnu_debug::_Safe_iterator<_Ite, _Seq, _Cat>&,
 920:/Library/DaisyToolchain/0.2.0/arm/arm-none-eabi/include/c++/10.3.1/bits/stl_algobase.h **** 	     const _Tp&);
 921:/Library/DaisyToolchain/0.2.0/arm/arm-none-eabi/include/c++/10.3.1/bits/stl_algobase.h **** 
 922:/Library/DaisyToolchain/0.2.0/arm/arm-none-eabi/include/c++/10.3.1/bits/stl_algobase.h ****   /**
ARM GAS  /var/folders/9s/8rp0_f2s1n31qbztm3b5_fdh0000gn/T//cc5SCkU0.s 			page 25


 923:/Library/DaisyToolchain/0.2.0/arm/arm-none-eabi/include/c++/10.3.1/bits/stl_algobase.h ****    *  @brief Fills the range [first,last) with copies of value.
 924:/Library/DaisyToolchain/0.2.0/arm/arm-none-eabi/include/c++/10.3.1/bits/stl_algobase.h ****    *  @ingroup mutating_algorithms
 925:/Library/DaisyToolchain/0.2.0/arm/arm-none-eabi/include/c++/10.3.1/bits/stl_algobase.h ****    *  @param  __first  A forward iterator.
 926:/Library/DaisyToolchain/0.2.0/arm/arm-none-eabi/include/c++/10.3.1/bits/stl_algobase.h ****    *  @param  __last   A forward iterator.
 927:/Library/DaisyToolchain/0.2.0/arm/arm-none-eabi/include/c++/10.3.1/bits/stl_algobase.h ****    *  @param  __value  A reference-to-const of arbitrary type.
 928:/Library/DaisyToolchain/0.2.0/arm/arm-none-eabi/include/c++/10.3.1/bits/stl_algobase.h ****    *  @return   Nothing.
 929:/Library/DaisyToolchain/0.2.0/arm/arm-none-eabi/include/c++/10.3.1/bits/stl_algobase.h ****    *
 930:/Library/DaisyToolchain/0.2.0/arm/arm-none-eabi/include/c++/10.3.1/bits/stl_algobase.h ****    *  This function fills a range with copies of the same value.  For char
 931:/Library/DaisyToolchain/0.2.0/arm/arm-none-eabi/include/c++/10.3.1/bits/stl_algobase.h ****    *  types filling contiguous areas of memory, this becomes an inline call
 932:/Library/DaisyToolchain/0.2.0/arm/arm-none-eabi/include/c++/10.3.1/bits/stl_algobase.h ****    *  to @c memset or @c wmemset.
 933:/Library/DaisyToolchain/0.2.0/arm/arm-none-eabi/include/c++/10.3.1/bits/stl_algobase.h ****   */
 934:/Library/DaisyToolchain/0.2.0/arm/arm-none-eabi/include/c++/10.3.1/bits/stl_algobase.h ****   template<typename _ForwardIterator, typename _Tp>
 935:/Library/DaisyToolchain/0.2.0/arm/arm-none-eabi/include/c++/10.3.1/bits/stl_algobase.h ****     _GLIBCXX20_CONSTEXPR
 936:/Library/DaisyToolchain/0.2.0/arm/arm-none-eabi/include/c++/10.3.1/bits/stl_algobase.h ****     inline void
 937:/Library/DaisyToolchain/0.2.0/arm/arm-none-eabi/include/c++/10.3.1/bits/stl_algobase.h ****     fill(_ForwardIterator __first, _ForwardIterator __last, const _Tp& __value)
 222              		.loc 5 937 5 discriminator 2 view .LVU52
 223              	.LBB101:
 224              	.LBI101:
 913:/Library/DaisyToolchain/0.2.0/arm/arm-none-eabi/include/c++/10.3.1/bits/stl_algobase.h ****     { std::__fill_a1(__first, __last, __value); }
 225              		.loc 5 913 5 discriminator 2 view .LVU53
 226              	.LBB102:
 227              	.LBI102:
 868:/Library/DaisyToolchain/0.2.0/arm/arm-none-eabi/include/c++/10.3.1/bits/stl_algobase.h **** 	      const _Tp& __value)
 228              		.loc 5 868 5 discriminator 2 view .LVU54
 868:/Library/DaisyToolchain/0.2.0/arm/arm-none-eabi/include/c++/10.3.1/bits/stl_algobase.h **** 	      const _Tp& __value)
 229              		.loc 5 868 5 is_stmt 0 discriminator 2 view .LVU55
 230              	.LBE102:
 231              	.LBE101:
 232              	.LBE100:
 233              		.loc 4 65 47 discriminator 2 view .LVU56
 234 0010 A268     		ldr	r2, [r4, #8]
 235              	.LBB109:
 236              	.LBB107:
 237              	.LBB105:
 238              	.LBB103:
 873:/Library/DaisyToolchain/0.2.0/arm/arm-none-eabi/include/c++/10.3.1/bits/stl_algobase.h ****     }
 239              		.loc 5 873 11 discriminator 2 view .LVU57
 240 0012 0021     		movs	r1, #0
 241 0014 56F8040B 		ldr	r0, [r6], #4
 242              	.LVL17:
 873:/Library/DaisyToolchain/0.2.0/arm/arm-none-eabi/include/c++/10.3.1/bits/stl_algobase.h ****     }
 243              		.loc 5 873 11 discriminator 2 view .LVU58
 244              	.LBE103:
 245              	.LBE105:
 246              	.LBE107:
 247              	.LBE109:
  64:eurorack/clouds/dsp/pvoc/frame_transformation.cc ****     fill(&textures_[i][0], &textures_[i][size_], 0.0f);
 248              		.loc 4 64 3 discriminator 2 view .LVU59
 249 0018 0135     		adds	r5, r5, #1
 250              	.LVL18:
 251              	.LBB110:
 252              	.LBB108:
 253              	.LBB106:
 254              	.LBB104:
 873:/Library/DaisyToolchain/0.2.0/arm/arm-none-eabi/include/c++/10.3.1/bits/stl_algobase.h ****     }
 255              		.loc 5 873 11 discriminator 2 view .LVU60
 256 001a 9200     		lsls	r2, r2, #2
ARM GAS  /var/folders/9s/8rp0_f2s1n31qbztm3b5_fdh0000gn/T//cc5SCkU0.s 			page 26


 257 001c FFF7FEFF 		bl	memset
 258              	.LVL19:
 873:/Library/DaisyToolchain/0.2.0/arm/arm-none-eabi/include/c++/10.3.1/bits/stl_algobase.h ****     }
 259              		.loc 5 873 11 discriminator 2 view .LVU61
 260              	.LBE104:
 261              	.LBE106:
 262              	.LBE108:
 263              	.LBE110:
  64:eurorack/clouds/dsp/pvoc/frame_transformation.cc ****     fill(&textures_[i][0], &textures_[i][size_], 0.0f);
 264              		.loc 4 64 3 is_stmt 1 discriminator 2 view .LVU62
  64:eurorack/clouds/dsp/pvoc/frame_transformation.cc ****     fill(&textures_[i][0], &textures_[i][size_], 0.0f);
 265              		.loc 4 64 3 is_stmt 0 discriminator 2 view .LVU63
 266 0020 F4E7     		b	.L10
 267              	.L8:
  64:eurorack/clouds/dsp/pvoc/frame_transformation.cc ****     fill(&textures_[i][0], &textures_[i][size_], 0.0f);
 268              		.loc 4 64 3 discriminator 2 view .LVU64
 269              	.LBE99:
  66:eurorack/clouds/dsp/pvoc/frame_transformation.cc ****   }
  67:eurorack/clouds/dsp/pvoc/frame_transformation.cc **** }
 270              		.loc 4 67 1 view .LVU65
 271 0022 F8BD     		pop	{r3, r4, r5, r6, r7, pc}
 272              		.loc 4 67 1 view .LVU66
 273              		.cfi_endproc
 274              	.LFE1494:
 276              		.section	.text._ZN6clouds19FrameTransformation4InitEPfll,"ax",%progbits
 277              		.align	1
 278              		.global	_ZN6clouds19FrameTransformation4InitEPfll
 279              		.syntax unified
 280              		.thumb
 281              		.thumb_func
 283              	_ZN6clouds19FrameTransformation4InitEPfll:
 284              	.LVL20:
 285              	.LFB1493:
  48:eurorack/clouds/dsp/pvoc/frame_transformation.cc ****   fft_size_ = fft_size;
 286              		.loc 4 48 27 is_stmt 1 view -0
 287              		.cfi_startproc
 288              		@ args = 0, pretend = 0, frame = 0
 289              		@ frame_needed = 0, uses_anonymous_args = 0
 290              		@ link register save eliminated.
  49:eurorack/clouds/dsp/pvoc/frame_transformation.cc ****   size_ = (fft_size >> 1) - kHighFrequencyTruncation;
 291              		.loc 4 49 3 view .LVU68
  49:eurorack/clouds/dsp/pvoc/frame_transformation.cc ****   size_ = (fft_size >> 1) - kHighFrequencyTruncation;
 292              		.loc 4 49 13 is_stmt 0 view .LVU69
 293 0000 0260     		str	r2, [r0]
  50:eurorack/clouds/dsp/pvoc/frame_transformation.cc ****   
 294              		.loc 4 50 3 is_stmt 1 view .LVU70
  50:eurorack/clouds/dsp/pvoc/frame_transformation.cc ****   
 295              		.loc 4 50 21 is_stmt 0 view .LVU71
 296 0002 5210     		asrs	r2, r2, #1
 297              	.LVL21:
  50:eurorack/clouds/dsp/pvoc/frame_transformation.cc ****   
 298              		.loc 4 50 27 view .LVU72
 299 0004 103A     		subs	r2, r2, #16
  48:eurorack/clouds/dsp/pvoc/frame_transformation.cc ****   fft_size_ = fft_size;
 300              		.loc 4 48 27 view .LVU73
 301 0006 70B4     		push	{r4, r5, r6}
 302              		.cfi_def_cfa_offset 12
ARM GAS  /var/folders/9s/8rp0_f2s1n31qbztm3b5_fdh0000gn/T//cc5SCkU0.s 			page 27


 303              		.cfi_offset 4, -12
 304              		.cfi_offset 5, -8
 305              		.cfi_offset 6, -4
 306 0008 9600     		lsls	r6, r2, #2
 307 000a 00F10C05 		add	r5, r0, #12
 308              	.LBB111:
  52:eurorack/clouds/dsp/pvoc/frame_transformation.cc ****     textures_[i] = &buffer[i * size_];
 309              		.loc 4 52 16 view .LVU74
 310 000e 0024     		movs	r4, #0
 311              	.LBE111:
  50:eurorack/clouds/dsp/pvoc/frame_transformation.cc ****   
 312              		.loc 4 50 9 view .LVU75
 313 0010 8260     		str	r2, [r0, #8]
  52:eurorack/clouds/dsp/pvoc/frame_transformation.cc ****     textures_[i] = &buffer[i * size_];
 314              		.loc 4 52 3 is_stmt 1 view .LVU76
 315              	.LVL22:
 316              	.L13:
 317              	.LBB112:
  52:eurorack/clouds/dsp/pvoc/frame_transformation.cc ****     textures_[i] = &buffer[i * size_];
 318              		.loc 4 52 25 discriminator 3 view .LVU77
 319 0012 9C42     		cmp	r4, r3
 320 0014 04DA     		bge	.L12
  53:eurorack/clouds/dsp/pvoc/frame_transformation.cc ****   }
 321              		.loc 4 53 5 discriminator 2 view .LVU78
  53:eurorack/clouds/dsp/pvoc/frame_transformation.cc ****   }
 322              		.loc 4 53 18 is_stmt 0 discriminator 2 view .LVU79
 323 0016 45F8041B 		str	r1, [r5], #4
  52:eurorack/clouds/dsp/pvoc/frame_transformation.cc ****     textures_[i] = &buffer[i * size_];
 324              		.loc 4 52 3 is_stmt 1 discriminator 2 view .LVU80
 325 001a 0134     		adds	r4, r4, #1
 326              	.LVL23:
  52:eurorack/clouds/dsp/pvoc/frame_transformation.cc ****     textures_[i] = &buffer[i * size_];
 327              		.loc 4 52 3 is_stmt 0 discriminator 2 view .LVU81
 328 001c 3144     		add	r1, r1, r6
 329 001e F8E7     		b	.L13
 330              	.L12:
  52:eurorack/clouds/dsp/pvoc/frame_transformation.cc ****     textures_[i] = &buffer[i * size_];
 331              		.loc 4 52 3 discriminator 2 view .LVU82
 332              	.LBE112:
  55:eurorack/clouds/dsp/pvoc/frame_transformation.cc ****   num_textures_ = num_textures - 1;  // Last texture is used for storing phases.
 333              		.loc 4 55 3 is_stmt 1 view .LVU83
  55:eurorack/clouds/dsp/pvoc/frame_transformation.cc ****   num_textures_ = num_textures - 1;  // Last texture is used for storing phases.
 334              		.loc 4 55 67 is_stmt 0 view .LVU84
 335 0020 591E     		subs	r1, r3, #1
  55:eurorack/clouds/dsp/pvoc/frame_transformation.cc ****   num_textures_ = num_textures - 1;  // Last texture is used for storing phases.
 336              		.loc 4 55 70 view .LVU85
 337 0022 00EB8303 		add	r3, r0, r3, lsl #2
 338              	.LVL24:
  55:eurorack/clouds/dsp/pvoc/frame_transformation.cc ****   num_textures_ = num_textures - 1;  // Last texture is used for storing phases.
 339              		.loc 4 55 70 view .LVU86
 340 0026 9B68     		ldr	r3, [r3, #8]
  56:eurorack/clouds/dsp/pvoc/frame_transformation.cc ****   phases_delta_ = phases_ + size_;
 341              		.loc 4 56 17 view .LVU87
 342 0028 4160     		str	r1, [r0, #4]
  57:eurorack/clouds/dsp/pvoc/frame_transformation.cc **** 
 343              		.loc 4 57 27 view .LVU88
 344 002a 03EB4202 		add	r2, r3, r2, lsl #1
ARM GAS  /var/folders/9s/8rp0_f2s1n31qbztm3b5_fdh0000gn/T//cc5SCkU0.s 			page 28


  55:eurorack/clouds/dsp/pvoc/frame_transformation.cc ****   num_textures_ = num_textures - 1;  // Last texture is used for storing phases.
 345              		.loc 4 55 11 view .LVU89
 346 002e 8362     		str	r3, [r0, #40]
  56:eurorack/clouds/dsp/pvoc/frame_transformation.cc ****   phases_delta_ = phases_ + size_;
 347              		.loc 4 56 3 is_stmt 1 view .LVU90
  57:eurorack/clouds/dsp/pvoc/frame_transformation.cc **** 
 348              		.loc 4 57 3 view .LVU91
  59:eurorack/clouds/dsp/pvoc/frame_transformation.cc ****   Reset();
 349              		.loc 4 59 21 is_stmt 0 view .LVU92
 350 0030 0023     		movs	r3, #0
  57:eurorack/clouds/dsp/pvoc/frame_transformation.cc **** 
 351              		.loc 4 57 17 view .LVU93
 352 0032 C262     		str	r2, [r0, #44]
  59:eurorack/clouds/dsp/pvoc/frame_transformation.cc ****   Reset();
 353              		.loc 4 59 3 is_stmt 1 view .LVU94
  59:eurorack/clouds/dsp/pvoc/frame_transformation.cc ****   Reset();
 354              		.loc 4 59 21 is_stmt 0 view .LVU95
 355 0034 80F83030 		strb	r3, [r0, #48]
  60:eurorack/clouds/dsp/pvoc/frame_transformation.cc **** }
 356              		.loc 4 60 3 is_stmt 1 view .LVU96
  61:eurorack/clouds/dsp/pvoc/frame_transformation.cc **** 
 357              		.loc 4 61 1 is_stmt 0 view .LVU97
 358 0038 70BC     		pop	{r4, r5, r6}
 359              		.cfi_restore 6
 360              		.cfi_restore 5
 361              		.cfi_restore 4
 362              		.cfi_def_cfa_offset 0
 363              	.LVL25:
  60:eurorack/clouds/dsp/pvoc/frame_transformation.cc **** }
 364              		.loc 4 60 8 view .LVU98
 365 003a FFF7FEBF 		b	_ZN6clouds19FrameTransformation5ResetEv
 366              	.LVL26:
  60:eurorack/clouds/dsp/pvoc/frame_transformation.cc **** }
 367              		.loc 4 60 8 view .LVU99
 368              		.cfi_endproc
 369              	.LFE1493:
 371              		.section	.text._ZN6clouds19FrameTransformation18RectangularToPolarEPf,"ax",%progbits
 372              		.align	1
 373              		.global	_ZN6clouds19FrameTransformation18RectangularToPolarEPf
 374              		.syntax unified
 375              		.thumb
 376              		.thumb_func
 378              	_ZN6clouds19FrameTransformation18RectangularToPolarEPf:
 379              	.LVL27:
 380              	.LFB1496:
  68:eurorack/clouds/dsp/pvoc/frame_transformation.cc **** 
  69:eurorack/clouds/dsp/pvoc/frame_transformation.cc **** void FrameTransformation::Process(
  70:eurorack/clouds/dsp/pvoc/frame_transformation.cc ****     const Parameters& parameters,
  71:eurorack/clouds/dsp/pvoc/frame_transformation.cc ****     float* fft_out,
  72:eurorack/clouds/dsp/pvoc/frame_transformation.cc ****     float* ifft_in) {
  73:eurorack/clouds/dsp/pvoc/frame_transformation.cc ****   fft_out[0] = 0.0f;
  74:eurorack/clouds/dsp/pvoc/frame_transformation.cc ****   fft_out[fft_size_ >> 1] = 0.0f;
  75:eurorack/clouds/dsp/pvoc/frame_transformation.cc **** 
  76:eurorack/clouds/dsp/pvoc/frame_transformation.cc ****   bool freeze = parameters.freeze;
  77:eurorack/clouds/dsp/pvoc/frame_transformation.cc ****   bool glitch = parameters.gate;
  78:eurorack/clouds/dsp/pvoc/frame_transformation.cc ****   float pitch_ratio = SemitonesToRatio(parameters.pitch);
  79:eurorack/clouds/dsp/pvoc/frame_transformation.cc ****   
ARM GAS  /var/folders/9s/8rp0_f2s1n31qbztm3b5_fdh0000gn/T//cc5SCkU0.s 			page 29


  80:eurorack/clouds/dsp/pvoc/frame_transformation.cc ****   if (!freeze) {
  81:eurorack/clouds/dsp/pvoc/frame_transformation.cc ****     RectangularToPolar(fft_out);
  82:eurorack/clouds/dsp/pvoc/frame_transformation.cc ****     StoreMagnitudes(
  83:eurorack/clouds/dsp/pvoc/frame_transformation.cc ****         fft_out,
  84:eurorack/clouds/dsp/pvoc/frame_transformation.cc ****         parameters.position,
  85:eurorack/clouds/dsp/pvoc/frame_transformation.cc ****         parameters.spectral.refresh_rate);
  86:eurorack/clouds/dsp/pvoc/frame_transformation.cc ****   }
  87:eurorack/clouds/dsp/pvoc/frame_transformation.cc ****   float* temp = &fft_out[0];
  88:eurorack/clouds/dsp/pvoc/frame_transformation.cc ****   ReplayMagnitudes(ifft_in, parameters.position);
  89:eurorack/clouds/dsp/pvoc/frame_transformation.cc ****   WarpMagnitudes(ifft_in, temp, parameters.spectral.warp);
  90:eurorack/clouds/dsp/pvoc/frame_transformation.cc ****   ShiftMagnitudes(temp, ifft_in, pitch_ratio);
  91:eurorack/clouds/dsp/pvoc/frame_transformation.cc ****   if (glitch) {
  92:eurorack/clouds/dsp/pvoc/frame_transformation.cc ****     AddGlitch(ifft_in);
  93:eurorack/clouds/dsp/pvoc/frame_transformation.cc ****   }
  94:eurorack/clouds/dsp/pvoc/frame_transformation.cc ****   QuantizeMagnitudes(ifft_in, parameters.spectral.quantization);
  95:eurorack/clouds/dsp/pvoc/frame_transformation.cc ****   SetPhases(ifft_in, parameters.spectral.phase_randomization, pitch_ratio);
  96:eurorack/clouds/dsp/pvoc/frame_transformation.cc ****   PolarToRectangular(ifft_in);
  97:eurorack/clouds/dsp/pvoc/frame_transformation.cc **** 
  98:eurorack/clouds/dsp/pvoc/frame_transformation.cc ****   if (!glitch) {
  99:eurorack/clouds/dsp/pvoc/frame_transformation.cc ****     // Decide on which glitch algorithm will be used next time... if glitch
 100:eurorack/clouds/dsp/pvoc/frame_transformation.cc ****     // is enabled on the next frame!
 101:eurorack/clouds/dsp/pvoc/frame_transformation.cc ****     glitch_algorithm_ = stmlib::Random::GetSample() & 3;
 102:eurorack/clouds/dsp/pvoc/frame_transformation.cc ****   }
 103:eurorack/clouds/dsp/pvoc/frame_transformation.cc **** 
 104:eurorack/clouds/dsp/pvoc/frame_transformation.cc ****   ifft_in[0] = 0.0f;
 105:eurorack/clouds/dsp/pvoc/frame_transformation.cc ****   ifft_in[fft_size_ >> 1] = 0.0f;
 106:eurorack/clouds/dsp/pvoc/frame_transformation.cc **** }
 107:eurorack/clouds/dsp/pvoc/frame_transformation.cc **** 
 108:eurorack/clouds/dsp/pvoc/frame_transformation.cc **** void FrameTransformation::RectangularToPolar(float* fft_data) {
 381              		.loc 4 108 63 is_stmt 1 view -0
 382              		.cfi_startproc
 383              		@ args = 0, pretend = 0, frame = 0
 384              		@ frame_needed = 0, uses_anonymous_args = 0
 109:eurorack/clouds/dsp/pvoc/frame_transformation.cc ****   float* real = &fft_data[0];
 385              		.loc 4 109 3 view .LVU101
 110:eurorack/clouds/dsp/pvoc/frame_transformation.cc ****   float* imag = &fft_data[fft_size_ >> 1];
 386              		.loc 4 110 3 view .LVU102
 111:eurorack/clouds/dsp/pvoc/frame_transformation.cc ****   float* magnitude = &fft_data[0];
 387              		.loc 4 111 3 view .LVU103
 112:eurorack/clouds/dsp/pvoc/frame_transformation.cc ****   for (int32_t i = 1; i < size_; ++i) {
 388              		.loc 4 112 3 view .LVU104
 110:eurorack/clouds/dsp/pvoc/frame_transformation.cc ****   float* imag = &fft_data[fft_size_ >> 1];
 389              		.loc 4 110 37 is_stmt 0 view .LVU105
 390 0000 0368     		ldr	r3, [r0]
 391              	.LBB127:
 392              		.loc 4 112 16 view .LVU106
 393 0002 0122     		movs	r2, #1
 394              	.LBE127:
 110:eurorack/clouds/dsp/pvoc/frame_transformation.cc ****   float* imag = &fft_data[fft_size_ >> 1];
 395              		.loc 4 110 37 view .LVU107
 396 0004 5B10     		asrs	r3, r3, #1
 397 0006 0133     		adds	r3, r3, #1
 108:eurorack/clouds/dsp/pvoc/frame_transformation.cc ****   float* real = &fft_data[0];
 398              		.loc 4 108 63 view .LVU108
 399 0008 F0B5     		push	{r4, r5, r6, r7, lr}
 400              		.cfi_def_cfa_offset 20
 401              		.cfi_offset 4, -20
ARM GAS  /var/folders/9s/8rp0_f2s1n31qbztm3b5_fdh0000gn/T//cc5SCkU0.s 			page 30


 402              		.cfi_offset 5, -16
 403              		.cfi_offset 6, -12
 404              		.cfi_offset 7, -8
 405              		.cfi_offset 14, -4
 406              	.LBB153:
 407              		.loc 4 112 27 view .LVU109
 408 000a 8568     		ldr	r5, [r0, #8]
 409 000c 0C1D     		adds	r4, r1, #4
 410 000e 01EB830E 		add	lr, r1, r3, lsl #2
 411              	.LVL28:
 412              	.L23:
 413              		.loc 4 112 25 is_stmt 1 discriminator 3 view .LVU110
 414 0012 9542     		cmp	r5, r2
 415 0014 6BDD     		ble	.L15
 416              	.LBB128:
 113:eurorack/clouds/dsp/pvoc/frame_transformation.cc ****     uint16_t angle = fast_atan2r(imag[i], real[i], &magnitude[i]);
 417              		.loc 4 113 5 discriminator 2 view .LVU111
 418              		.loc 4 113 33 is_stmt 0 discriminator 2 view .LVU112
 419 0016 BEEC017A 		vldmia.32	lr!, {s14}
 420 001a D4ED005A 		vldr.32	s11, [r4]
 421              	.LVL29:
 422              	.LBB129:
 423              	.LBI129:
 424              		.file 6 "eurorack/stmlib/dsp/atan.h"
   1:eurorack/stmlib/dsp/atan.h **** // Copyright 2014 Emilie Gillet.
   2:eurorack/stmlib/dsp/atan.h **** //
   3:eurorack/stmlib/dsp/atan.h **** // Author: Emilie Gillet (emilie.o.gillet@gmail.com)
   4:eurorack/stmlib/dsp/atan.h **** //
   5:eurorack/stmlib/dsp/atan.h **** // Permission is hereby granted, free of charge, to any person obtaining a copy
   6:eurorack/stmlib/dsp/atan.h **** // of this software and associated documentation files (the "Software"), to deal
   7:eurorack/stmlib/dsp/atan.h **** // in the Software without restriction, including without limitation the rights
   8:eurorack/stmlib/dsp/atan.h **** // to use, copy, modify, merge, publish, distribute, sublicense, and/or sell
   9:eurorack/stmlib/dsp/atan.h **** // copies of the Software, and to permit persons to whom the Software is
  10:eurorack/stmlib/dsp/atan.h **** // furnished to do so, subject to the following conditions:
  11:eurorack/stmlib/dsp/atan.h **** // 
  12:eurorack/stmlib/dsp/atan.h **** // The above copyright notice and this permission notice shall be included in
  13:eurorack/stmlib/dsp/atan.h **** // all copies or substantial portions of the Software.
  14:eurorack/stmlib/dsp/atan.h **** // 
  15:eurorack/stmlib/dsp/atan.h **** // THE SOFTWARE IS PROVIDED "AS IS", WITHOUT WARRANTY OF ANY KIND, EXPRESS OR
  16:eurorack/stmlib/dsp/atan.h **** // IMPLIED, INCLUDING BUT NOT LIMITED TO THE WARRANTIES OF MERCHANTABILITY,
  17:eurorack/stmlib/dsp/atan.h **** // FITNESS FOR A PARTICULAR PURPOSE AND NONINFRINGEMENT. IN NO EVENT SHALL THE
  18:eurorack/stmlib/dsp/atan.h **** // AUTHORS OR COPYRIGHT HOLDERS BE LIABLE FOR ANY CLAIM, DAMAGES OR OTHER
  19:eurorack/stmlib/dsp/atan.h **** // LIABILITY, WHETHER IN AN ACTION OF CONTRACT, TORT OR OTHERWISE, ARISING FROM,
  20:eurorack/stmlib/dsp/atan.h **** // OUT OF OR IN CONNECTION WITH THE SOFTWARE OR THE USE OR OTHER DEALINGS IN
  21:eurorack/stmlib/dsp/atan.h **** // THE SOFTWARE.
  22:eurorack/stmlib/dsp/atan.h **** // 
  23:eurorack/stmlib/dsp/atan.h **** // See http://creativecommons.org/licenses/MIT/ for more information.
  24:eurorack/stmlib/dsp/atan.h **** //
  25:eurorack/stmlib/dsp/atan.h **** // -----------------------------------------------------------------------------
  26:eurorack/stmlib/dsp/atan.h **** //
  27:eurorack/stmlib/dsp/atan.h **** // Fast arc-tangent routines.
  28:eurorack/stmlib/dsp/atan.h **** 
  29:eurorack/stmlib/dsp/atan.h **** #ifndef STMLIB_DSP_ATAN_H_
  30:eurorack/stmlib/dsp/atan.h **** #define STMLIB_DSP_ATAN_H_
  31:eurorack/stmlib/dsp/atan.h **** 
  32:eurorack/stmlib/dsp/atan.h **** #include "stmlib/stmlib.h"
  33:eurorack/stmlib/dsp/atan.h **** 
ARM GAS  /var/folders/9s/8rp0_f2s1n31qbztm3b5_fdh0000gn/T//cc5SCkU0.s 			page 31


  34:eurorack/stmlib/dsp/atan.h **** #include "stmlib/dsp/rsqrt.h"
  35:eurorack/stmlib/dsp/atan.h **** 
  36:eurorack/stmlib/dsp/atan.h **** #include <cmath>
  37:eurorack/stmlib/dsp/atan.h **** 
  38:eurorack/stmlib/dsp/atan.h **** namespace stmlib {
  39:eurorack/stmlib/dsp/atan.h **** 
  40:eurorack/stmlib/dsp/atan.h **** static inline uint16_t fast_atan2(float y, float x) {
  41:eurorack/stmlib/dsp/atan.h ****   static const uint32_t sign_mask = 0x80000000;
  42:eurorack/stmlib/dsp/atan.h ****   static const float b = 0.596227f;
  43:eurorack/stmlib/dsp/atan.h ****   uint32_t ux_s = sign_mask & unsafe_bit_cast<uint32_t, float>(x);
  44:eurorack/stmlib/dsp/atan.h ****   uint32_t uy_s = sign_mask & unsafe_bit_cast<uint32_t, float>(y);
  45:eurorack/stmlib/dsp/atan.h ****   uint32_t offset = ((~ux_s & uy_s) >> 29 | ux_s >> 30) << 14;
  46:eurorack/stmlib/dsp/atan.h ****   float bxy_a = fabsf(b * x * y);
  47:eurorack/stmlib/dsp/atan.h ****   float num = bxy_a + y * y;
  48:eurorack/stmlib/dsp/atan.h ****   float atan_1q = num / (x * x + bxy_a + num);
  49:eurorack/stmlib/dsp/atan.h ****   uint32_t uatan_2q = (ux_s ^ uy_s) | unsafe_bit_cast<uint32_t, float>(atan_1q);
  50:eurorack/stmlib/dsp/atan.h ****   return unsafe_bit_cast<float, uint32_t>(uatan_2q) * 16384 + offset;
  51:eurorack/stmlib/dsp/atan.h **** } 
  52:eurorack/stmlib/dsp/atan.h **** 
  53:eurorack/stmlib/dsp/atan.h **** extern const uint16_t atan_lut[513];
  54:eurorack/stmlib/dsp/atan.h **** 
  55:eurorack/stmlib/dsp/atan.h **** static inline uint16_t fast_atan2r(float y, float x, float* r) {
 425              		.loc 6 55 24 is_stmt 1 discriminator 2 view .LVU113
 426              	.LBB130:
  56:eurorack/stmlib/dsp/atan.h ****   float squared_magnitude = x * x + y * y;
 427              		.loc 6 56 3 discriminator 2 view .LVU114
 428              		.loc 6 56 39 is_stmt 0 discriminator 2 view .LVU115
 429 001e 27EE075A 		vmul.f32	s10, s14, s14
 430              		.loc 6 56 9 discriminator 2 view .LVU116
 431 0022 A5EEA55A 		vfma.f32	s10, s11, s11
 432              	.LVL30:
  57:eurorack/stmlib/dsp/atan.h ****   if (squared_magnitude == 0.0f) {
 433              		.loc 6 57 3 is_stmt 1 discriminator 2 view .LVU117
 434 0026 B5EE405A 		vcmp.f32	s10, #0
 435 002a F1EE10FA 		vmrs	APSR_nzcv, FPSCR
 436 002e 0ED1     		bne	.L17
  58:eurorack/stmlib/dsp/atan.h ****     *r = 0.0f;
 437              		.loc 6 58 5 view .LVU118
 438              		.loc 6 58 8 is_stmt 0 view .LVU119
 439 0030 0023     		movs	r3, #0
 440 0032 2360     		str	r3, [r4]	@ float
  59:eurorack/stmlib/dsp/atan.h ****     return 0.0f;
 441              		.loc 6 59 5 is_stmt 1 view .LVU120
 442              		.loc 6 59 12 is_stmt 0 view .LVU121
 443 0034 0023     		movs	r3, #0
 444              	.LVL31:
 445              	.L18:
 446              		.loc 6 59 12 view .LVU122
 447              	.LBE130:
 448              	.LBE129:
 114:eurorack/clouds/dsp/pvoc/frame_transformation.cc ****     phases_delta_[i] = angle - phases_[i];
 449              		.loc 4 114 5 is_stmt 1 view .LVU123
 450              		.loc 4 114 41 is_stmt 0 view .LVU124
 451 0036 876A     		ldr	r7, [r0, #40]
 452 0038 0434     		adds	r4, r4, #4
 453              		.loc 4 114 22 view .LVU125
 454 003a C16A     		ldr	r1, [r0, #44]
ARM GAS  /var/folders/9s/8rp0_f2s1n31qbztm3b5_fdh0000gn/T//cc5SCkU0.s 			page 32


 455              		.loc 4 114 30 view .LVU126
 456 003c 37F81260 		ldrh	r6, [r7, r2, lsl #1]
 457 0040 9E1B     		subs	r6, r3, r6
 458              		.loc 4 114 22 view .LVU127
 459 0042 21F81260 		strh	r6, [r1, r2, lsl #1]	@ movhi
 115:eurorack/clouds/dsp/pvoc/frame_transformation.cc ****     phases_[i] = angle;
 460              		.loc 4 115 5 is_stmt 1 view .LVU128
 461              		.loc 4 115 16 is_stmt 0 view .LVU129
 462 0046 27F81230 		strh	r3, [r7, r2, lsl #1]	@ movhi
 463              	.LBE128:
 112:eurorack/clouds/dsp/pvoc/frame_transformation.cc ****     uint16_t angle = fast_atan2r(imag[i], real[i], &magnitude[i]);
 464              		.loc 4 112 3 is_stmt 1 view .LVU130
 465 004a 0132     		adds	r2, r2, #1
 466              	.LVL32:
 112:eurorack/clouds/dsp/pvoc/frame_transformation.cc ****     uint16_t angle = fast_atan2r(imag[i], real[i], &magnitude[i]);
 467              		.loc 4 112 3 is_stmt 0 view .LVU131
 468 004c E1E7     		b	.L23
 469              	.LVL33:
 470              	.L17:
 471              	.LBB152:
 472              	.LBB151:
 473              	.LBB150:
  60:eurorack/stmlib/dsp/atan.h ****   }
  61:eurorack/stmlib/dsp/atan.h ****   float rinv = fast_rsqrt_carmack(squared_magnitude);
 474              		.loc 6 61 3 is_stmt 1 view .LVU132
 475              	.LBB131:
 476              	.LBI131:
 477              		.file 7 "eurorack/stmlib/dsp/rsqrt.h"
   1:eurorack/stmlib/dsp/rsqrt.h **** // Copyright 2014 Emilie Gillet.
   2:eurorack/stmlib/dsp/rsqrt.h **** //
   3:eurorack/stmlib/dsp/rsqrt.h **** // Author: Emilie Gillet (emilie.o.gillet@gmail.com)
   4:eurorack/stmlib/dsp/rsqrt.h **** //
   5:eurorack/stmlib/dsp/rsqrt.h **** // Permission is hereby granted, free of charge, to any person obtaining a copy
   6:eurorack/stmlib/dsp/rsqrt.h **** // of this software and associated documentation files (the "Software"), to deal
   7:eurorack/stmlib/dsp/rsqrt.h **** // in the Software without restriction, including without limitation the rights
   8:eurorack/stmlib/dsp/rsqrt.h **** // to use, copy, modify, merge, publish, distribute, sublicense, and/or sell
   9:eurorack/stmlib/dsp/rsqrt.h **** // copies of the Software, and to permit persons to whom the Software is
  10:eurorack/stmlib/dsp/rsqrt.h **** // furnished to do so, subject to the following conditions:
  11:eurorack/stmlib/dsp/rsqrt.h **** // 
  12:eurorack/stmlib/dsp/rsqrt.h **** // The above copyright notice and this permission notice shall be included in
  13:eurorack/stmlib/dsp/rsqrt.h **** // all copies or substantial portions of the Software.
  14:eurorack/stmlib/dsp/rsqrt.h **** // 
  15:eurorack/stmlib/dsp/rsqrt.h **** // THE SOFTWARE IS PROVIDED "AS IS", WITHOUT WARRANTY OF ANY KIND, EXPRESS OR
  16:eurorack/stmlib/dsp/rsqrt.h **** // IMPLIED, INCLUDING BUT NOT LIMITED TO THE WARRANTIES OF MERCHANTABILITY,
  17:eurorack/stmlib/dsp/rsqrt.h **** // FITNESS FOR A PARTICULAR PURPOSE AND NONINFRINGEMENT. IN NO EVENT SHALL THE
  18:eurorack/stmlib/dsp/rsqrt.h **** // AUTHORS OR COPYRIGHT HOLDERS BE LIABLE FOR ANY CLAIM, DAMAGES OR OTHER
  19:eurorack/stmlib/dsp/rsqrt.h **** // LIABILITY, WHETHER IN AN ACTION OF CONTRACT, TORT OR OTHERWISE, ARISING FROM,
  20:eurorack/stmlib/dsp/rsqrt.h **** // OUT OF OR IN CONNECTION WITH THE SOFTWARE OR THE USE OR OTHER DEALINGS IN
  21:eurorack/stmlib/dsp/rsqrt.h **** // THE SOFTWARE.
  22:eurorack/stmlib/dsp/rsqrt.h **** // 
  23:eurorack/stmlib/dsp/rsqrt.h **** // See http://creativecommons.org/licenses/MIT/ for more information.
  24:eurorack/stmlib/dsp/rsqrt.h **** //
  25:eurorack/stmlib/dsp/rsqrt.h **** // -----------------------------------------------------------------------------
  26:eurorack/stmlib/dsp/rsqrt.h **** //
  27:eurorack/stmlib/dsp/rsqrt.h **** // Fast reciprocal of square-root routines.
  28:eurorack/stmlib/dsp/rsqrt.h **** 
  29:eurorack/stmlib/dsp/rsqrt.h **** #ifndef STMLIB_DSP_RSQRT_H_
ARM GAS  /var/folders/9s/8rp0_f2s1n31qbztm3b5_fdh0000gn/T//cc5SCkU0.s 			page 33


  30:eurorack/stmlib/dsp/rsqrt.h **** #define STMLIB_DSP_RSQRT_H_
  31:eurorack/stmlib/dsp/rsqrt.h **** 
  32:eurorack/stmlib/dsp/rsqrt.h **** #include "stmlib/stmlib.h"
  33:eurorack/stmlib/dsp/rsqrt.h **** 
  34:eurorack/stmlib/dsp/rsqrt.h **** namespace stmlib {
  35:eurorack/stmlib/dsp/rsqrt.h **** 
  36:eurorack/stmlib/dsp/rsqrt.h **** template<typename To, typename From>
  37:eurorack/stmlib/dsp/rsqrt.h **** struct unsafe_bit_cast_t {
  38:eurorack/stmlib/dsp/rsqrt.h ****   union {
  39:eurorack/stmlib/dsp/rsqrt.h ****     From from;
  40:eurorack/stmlib/dsp/rsqrt.h ****     To to;
  41:eurorack/stmlib/dsp/rsqrt.h ****   };
  42:eurorack/stmlib/dsp/rsqrt.h **** };
  43:eurorack/stmlib/dsp/rsqrt.h **** 
  44:eurorack/stmlib/dsp/rsqrt.h **** template<typename To, typename From>
  45:eurorack/stmlib/dsp/rsqrt.h **** To unsafe_bit_cast(From from) {
  46:eurorack/stmlib/dsp/rsqrt.h ****     unsafe_bit_cast_t<To, From> u;
  47:eurorack/stmlib/dsp/rsqrt.h ****     u.from = from;
  48:eurorack/stmlib/dsp/rsqrt.h ****     return u.to;
  49:eurorack/stmlib/dsp/rsqrt.h **** }
  50:eurorack/stmlib/dsp/rsqrt.h **** 
  51:eurorack/stmlib/dsp/rsqrt.h **** 
  52:eurorack/stmlib/dsp/rsqrt.h **** static inline float fast_rsqrt_carmack(float x) {
 478              		.loc 7 52 21 view .LVU133
 479              	.LBB132:
  53:eurorack/stmlib/dsp/rsqrt.h ****   uint32_t i;
 480              		.loc 7 53 3 view .LVU134
  54:eurorack/stmlib/dsp/rsqrt.h ****   float x2, y;
 481              		.loc 7 54 3 view .LVU135
  55:eurorack/stmlib/dsp/rsqrt.h ****   const float threehalfs = 1.5f;
 482              		.loc 7 55 3 view .LVU136
  56:eurorack/stmlib/dsp/rsqrt.h ****   y = x;
 483              		.loc 7 56 3 view .LVU137
  57:eurorack/stmlib/dsp/rsqrt.h ****   i = unsafe_bit_cast<uint32_t, float>(y);
 484              		.loc 7 57 3 view .LVU138
 485              	.LBB133:
 486              	.LBI133:
  45:eurorack/stmlib/dsp/rsqrt.h ****     unsafe_bit_cast_t<To, From> u;
 487              		.loc 7 45 4 view .LVU139
  45:eurorack/stmlib/dsp/rsqrt.h ****     unsafe_bit_cast_t<To, From> u;
 488              		.loc 7 45 4 is_stmt 0 view .LVU140
 489              	.LBE133:
  58:eurorack/stmlib/dsp/rsqrt.h ****   i = 0x5f3759df - (i >> 1);
 490              		.loc 7 58 3 is_stmt 1 view .LVU141
  59:eurorack/stmlib/dsp/rsqrt.h ****   y = unsafe_bit_cast<float, uint32_t>(i);
 491              		.loc 7 59 3 view .LVU142
 492              	.LBB134:
 493              	.LBI134:
  45:eurorack/stmlib/dsp/rsqrt.h ****     unsafe_bit_cast_t<To, From> u;
 494              		.loc 7 45 4 view .LVU143
 495              	.LBB135:
  48:eurorack/stmlib/dsp/rsqrt.h **** }
 496              		.loc 7 48 14 is_stmt 0 view .LVU144
 497 004e 15EE101A 		vmov	r1, s10	@ int
 498              	.LBE135:
 499              	.LBE134:
  60:eurorack/stmlib/dsp/rsqrt.h ****   x2 = x * 0.5f;
ARM GAS  /var/folders/9s/8rp0_f2s1n31qbztm3b5_fdh0000gn/T//cc5SCkU0.s 			page 34


 500              		.loc 7 60 6 view .LVU145
 501 0052 F6EE007A 		vmov.f32	s15, #5.0e-1
 502              	.LBB139:
 503              	.LBB136:
  48:eurorack/stmlib/dsp/rsqrt.h **** }
 504              		.loc 7 48 14 view .LVU146
 505 0056 264B     		ldr	r3, .L27
 506              	.LBE136:
 507              	.LBE139:
  61:eurorack/stmlib/dsp/rsqrt.h ****   y = y * (threehalfs - (x2 * y * y));
 508              		.loc 7 61 23 view .LVU147
 509 0058 F7EE086A 		vmov.f32	s13, #1.5e+0
 510              	.LBB140:
 511              	.LBB137:
  48:eurorack/stmlib/dsp/rsqrt.h **** }
 512              		.loc 7 48 14 view .LVU148
 513 005c A3EB5103 		sub	r3, r3, r1, lsr #1
 514              	.LVL34:
  48:eurorack/stmlib/dsp/rsqrt.h **** }
 515              		.loc 7 48 14 view .LVU149
 516              	.LBE137:
 517              	.LBE140:
  60:eurorack/stmlib/dsp/rsqrt.h ****   x2 = x * 0.5f;
 518              		.loc 7 60 6 view .LVU150
 519 0060 65EE274A 		vmul.f32	s9, s10, s15
 520              	.LBB141:
 521              	.LBB138:
  48:eurorack/stmlib/dsp/rsqrt.h **** }
 522              		.loc 7 48 14 view .LVU151
 523 0064 06EE103A 		vmov	s12, r3	@ int
 524              	.LVL35:
  48:eurorack/stmlib/dsp/rsqrt.h **** }
 525              		.loc 7 48 14 view .LVU152
 526              	.LBE138:
 527              	.LBE141:
  60:eurorack/stmlib/dsp/rsqrt.h ****   x2 = x * 0.5f;
 528              		.loc 7 60 3 is_stmt 1 view .LVU153
 529              		.loc 7 61 3 view .LVU154
 530              	.LBE132:
 531              	.LBE131:
  62:eurorack/stmlib/dsp/atan.h ****   *r = rinv * squared_magnitude;
  63:eurorack/stmlib/dsp/atan.h **** 
  64:eurorack/stmlib/dsp/atan.h ****   static const uint32_t sign_mask = 0x80000000;
  65:eurorack/stmlib/dsp/atan.h ****   uint32_t ux_s = sign_mask & unsafe_bit_cast<uint32_t, float>(x);
 532              		.loc 6 65 65 is_stmt 0 view .LVU155
 533 0068 15EE903A 		vmov	r3, s11	@ int
 534              	.LVL36:
  66:eurorack/stmlib/dsp/atan.h ****   uint32_t uy_s = sign_mask & unsafe_bit_cast<uint32_t, float>(y);
  67:eurorack/stmlib/dsp/atan.h ****   uint32_t quadrant = ((~ux_s & uy_s) >> 29 | ux_s >> 30);
  68:eurorack/stmlib/dsp/atan.h ****   uint16_t angle = 0;
  69:eurorack/stmlib/dsp/atan.h ****   x = fabsf(x);
 535              		.loc 6 69 5 view .LVU156
 536 006c F0EEE55A 		vabs.f32	s11, s11
 537              	.LVL37:
 538              	.LBB145:
 539              	.LBB142:
 540              		.loc 7 61 29 view .LVU157
ARM GAS  /var/folders/9s/8rp0_f2s1n31qbztm3b5_fdh0000gn/T//cc5SCkU0.s 			page 35


 541 0070 64EE864A 		vmul.f32	s9, s9, s12
 542              	.LVL38:
 543              		.loc 7 61 29 view .LVU158
 544              	.LBE142:
 545              	.LBE145:
  65:eurorack/stmlib/dsp/atan.h ****   uint32_t uy_s = sign_mask & unsafe_bit_cast<uint32_t, float>(y);
 546              		.loc 6 65 65 view .LVU159
 547 0074 03F00047 		and	r7, r3, #-2147483648
  66:eurorack/stmlib/dsp/atan.h ****   uint32_t uy_s = sign_mask & unsafe_bit_cast<uint32_t, float>(y);
 548              		.loc 6 66 65 view .LVU160
 549 0078 17EE103A 		vmov	r3, s14	@ int
  70:eurorack/stmlib/dsp/atan.h ****   y = fabsf(y);
 550              		.loc 6 70 5 view .LVU161
 551 007c B0EEC77A 		vabs.f32	s14, s14
 552              	.LVL39:
 553              	.LBB146:
 554              	.LBB143:
 555              		.loc 7 61 23 view .LVU162
 556 0080 E6EE646A 		vfms.f32	s13, s12, s9
 557              	.LBE143:
 558              	.LBE146:
  66:eurorack/stmlib/dsp/atan.h ****   uint32_t uy_s = sign_mask & unsafe_bit_cast<uint32_t, float>(y);
 559              		.loc 6 66 65 view .LVU163
 560 0084 03F0004C 		and	ip, r3, #-2147483648
  71:eurorack/stmlib/dsp/atan.h ****   if (y > x) {
 561              		.loc 6 71 3 view .LVU164
 562 0088 F4EEC75A 		vcmpe.f32	s11, s14
  67:eurorack/stmlib/dsp/atan.h ****   uint16_t angle = 0;
 563              		.loc 6 67 52 view .LVU165
 564 008c BB0F     		lsrs	r3, r7, #30
  67:eurorack/stmlib/dsp/atan.h ****   uint16_t angle = 0;
 565              		.loc 6 67 31 view .LVU166
 566 008e 2CEA0706 		bic	r6, ip, r7
 567              		.loc 6 71 3 view .LVU167
 568 0092 F1EE10FA 		vmrs	APSR_nzcv, FPSCR
  67:eurorack/stmlib/dsp/atan.h ****   uint16_t angle = 0;
 569              		.loc 6 67 12 view .LVU168
 570 0096 43EA5676 		orr	r6, r3, r6, lsr #29
 571 009a 164B     		ldr	r3, .L27+4
 572              	.LBB147:
 573              	.LBB144:
 574              		.loc 7 61 5 view .LVU169
 575 009c 66EE266A 		vmul.f32	s13, s12, s13
 576              	.LVL40:
  62:eurorack/stmlib/dsp/rsqrt.h **** 	return y;
 577              		.loc 7 62 2 is_stmt 1 view .LVU170
 578              		.loc 7 62 2 is_stmt 0 view .LVU171
 579              	.LBE144:
 580              	.LBE147:
  62:eurorack/stmlib/dsp/atan.h **** 
 581              		.loc 6 62 3 is_stmt 1 view .LVU172
 582 00a0 9FED156A 		vldr.32	s12, .L27+8
  62:eurorack/stmlib/dsp/atan.h **** 
 583              		.loc 6 62 13 is_stmt 0 view .LVU173
 584 00a4 25EE265A 		vmul.f32	s10, s10, s13
 585              	.LVL41:
  62:eurorack/stmlib/dsp/atan.h **** 
ARM GAS  /var/folders/9s/8rp0_f2s1n31qbztm3b5_fdh0000gn/T//cc5SCkU0.s 			page 36


 586              		.loc 6 62 6 view .LVU174
 587 00a8 84ED005A 		vstr.32	s10, [r4]
 588              	.LVL42:
  64:eurorack/stmlib/dsp/atan.h ****   uint32_t ux_s = sign_mask & unsafe_bit_cast<uint32_t, float>(x);
 589              		.loc 6 64 3 is_stmt 1 view .LVU175
  65:eurorack/stmlib/dsp/atan.h ****   uint32_t uy_s = sign_mask & unsafe_bit_cast<uint32_t, float>(y);
 590              		.loc 6 65 3 view .LVU176
 591              	.LBB148:
 592              	.LBI148:
  45:eurorack/stmlib/dsp/rsqrt.h ****     unsafe_bit_cast_t<To, From> u;
 593              		.loc 7 45 4 view .LVU177
  45:eurorack/stmlib/dsp/rsqrt.h ****     unsafe_bit_cast_t<To, From> u;
 594              		.loc 7 45 4 is_stmt 0 view .LVU178
 595              	.LBE148:
  66:eurorack/stmlib/dsp/atan.h ****   uint32_t quadrant = ((~ux_s & uy_s) >> 29 | ux_s >> 30);
 596              		.loc 6 66 3 is_stmt 1 view .LVU179
 597              	.LBB149:
 598              	.LBI149:
  45:eurorack/stmlib/dsp/rsqrt.h ****     unsafe_bit_cast_t<To, From> u;
 599              		.loc 7 45 4 view .LVU180
  45:eurorack/stmlib/dsp/rsqrt.h ****     unsafe_bit_cast_t<To, From> u;
 600              		.loc 7 45 4 is_stmt 0 view .LVU181
 601              	.LBE149:
  67:eurorack/stmlib/dsp/atan.h ****   uint16_t angle = 0;
 602              		.loc 6 67 3 is_stmt 1 view .LVU182
  68:eurorack/stmlib/dsp/atan.h ****   x = fabsf(x);
 603              		.loc 6 68 3 view .LVU183
  69:eurorack/stmlib/dsp/atan.h ****   y = fabsf(y);
 604              		.loc 6 69 3 view .LVU184
  70:eurorack/stmlib/dsp/atan.h ****   if (y > x) {
 605              		.loc 6 70 3 view .LVU185
 606              		.loc 6 71 3 view .LVU186
 607 00ac 14D5     		bpl	.L26
  72:eurorack/stmlib/dsp/atan.h ****     angle = 16384 - atan_lut[static_cast<uint32_t>(x * rinv * 512.0f + 0.5f)];
 608              		.loc 6 72 5 view .LVU187
 609              		.loc 6 72 54 is_stmt 0 view .LVU188
 610 00ae 65EEA65A 		vmul.f32	s11, s11, s13
 611              	.LVL43:
 612              		.loc 6 72 70 view .LVU189
 613 00b2 E5EE867A 		vfma.f32	s15, s11, s12
 614              		.loc 6 72 30 view .LVU190
 615 00b6 FCEEE77A 		vcvt.u32.f32	s15, s15
 616              		.loc 6 72 11 view .LVU191
 617 00ba 17EE901A 		vmov	r1, s15	@ int
 618 00be 33F81130 		ldrh	r3, [r3, r1, lsl #1]
 619 00c2 C3F58043 		rsb	r3, r3, #16384
 620 00c6 9BB2     		uxth	r3, r3
 621              	.LVL44:
 622              	.L21:
  73:eurorack/stmlib/dsp/atan.h ****   } else {
  74:eurorack/stmlib/dsp/atan.h ****     angle = atan_lut[static_cast<uint32_t>(y * rinv * 512.0f + 0.5f)];
  75:eurorack/stmlib/dsp/atan.h ****   }
  76:eurorack/stmlib/dsp/atan.h ****   if (ux_s ^ uy_s) {
 623              		.loc 6 76 3 is_stmt 1 view .LVU192
 624 00c8 6745     		cmp	r7, ip
  77:eurorack/stmlib/dsp/atan.h ****     angle = -angle;
 625              		.loc 6 77 5 view .LVU193
ARM GAS  /var/folders/9s/8rp0_f2s1n31qbztm3b5_fdh0000gn/T//cc5SCkU0.s 			page 37


 626              		.loc 6 77 11 is_stmt 0 view .LVU194
 627 00ca 1CBF     		itt	ne
 628 00cc 5B42     		rsbne	r3, r3, #0
 629              	.LVL45:
 630              		.loc 6 77 11 view .LVU195
 631 00ce 9BB2     		uxthne	r3, r3
 632              	.LVL46:
  78:eurorack/stmlib/dsp/atan.h ****   }
  79:eurorack/stmlib/dsp/atan.h ****   return angle + (quadrant << 14);
 633              		.loc 6 79 3 is_stmt 1 view .LVU196
 634              		.loc 6 79 33 is_stmt 0 view .LVU197
 635 00d0 03EB8633 		add	r3, r3, r6, lsl #14
 636              	.LVL47:
 637              		.loc 6 79 33 view .LVU198
 638 00d4 9BB2     		uxth	r3, r3
 639 00d6 AEE7     		b	.L18
 640              	.LVL48:
 641              	.L26:
  74:eurorack/stmlib/dsp/atan.h ****   }
 642              		.loc 6 74 5 is_stmt 1 view .LVU199
  74:eurorack/stmlib/dsp/atan.h ****   }
 643              		.loc 6 74 46 is_stmt 0 view .LVU200
 644 00d8 27EE267A 		vmul.f32	s14, s14, s13
 645              	.LVL49:
  74:eurorack/stmlib/dsp/atan.h ****   }
 646              		.loc 6 74 62 view .LVU201
 647 00dc E7EE067A 		vfma.f32	s15, s14, s12
  74:eurorack/stmlib/dsp/atan.h ****   }
 648              		.loc 6 74 22 view .LVU202
 649 00e0 FCEEE77A 		vcvt.u32.f32	s15, s15
  74:eurorack/stmlib/dsp/atan.h ****   }
 650              		.loc 6 74 11 view .LVU203
 651 00e4 17EE901A 		vmov	r1, s15	@ int
 652 00e8 33F81130 		ldrh	r3, [r3, r1, lsl #1]
 653              	.LVL50:
  74:eurorack/stmlib/dsp/atan.h ****   }
 654              		.loc 6 74 11 view .LVU204
 655 00ec ECE7     		b	.L21
 656              	.LVL51:
 657              	.L15:
  74:eurorack/stmlib/dsp/atan.h ****   }
 658              		.loc 6 74 11 view .LVU205
 659              	.LBE150:
 660              	.LBE151:
 661              	.LBE152:
 662              	.LBE153:
 116:eurorack/clouds/dsp/pvoc/frame_transformation.cc ****   }
 117:eurorack/clouds/dsp/pvoc/frame_transformation.cc **** }
 663              		.loc 4 117 1 view .LVU206
 664 00ee F0BD     		pop	{r4, r5, r6, r7, pc}
 665              	.L28:
 666              		.align	2
 667              	.L27:
 668 00f0 DF59375F 		.word	1597463007
 669 00f4 00000000 		.word	_ZN6stmlib8atan_lutE
 670 00f8 00000044 		.word	1140850688
 671              		.cfi_endproc
ARM GAS  /var/folders/9s/8rp0_f2s1n31qbztm3b5_fdh0000gn/T//cc5SCkU0.s 			page 38


 672              	.LFE1496:
 674              		.section	.text._ZN6clouds19FrameTransformation9SetPhasesEPfff,"ax",%progbits
 675              		.align	1
 676              		.global	_ZN6clouds19FrameTransformation9SetPhasesEPfff
 677              		.syntax unified
 678              		.thumb
 679              		.thumb_func
 681              	_ZN6clouds19FrameTransformation9SetPhasesEPfff:
 682              	.LVL52:
 683              	.LFB1497:
 118:eurorack/clouds/dsp/pvoc/frame_transformation.cc **** 
 119:eurorack/clouds/dsp/pvoc/frame_transformation.cc **** void FrameTransformation::SetPhases(
 120:eurorack/clouds/dsp/pvoc/frame_transformation.cc ****     float* destination,
 121:eurorack/clouds/dsp/pvoc/frame_transformation.cc ****     float phase_randomization,
 122:eurorack/clouds/dsp/pvoc/frame_transformation.cc ****     float pitch_ratio) {
 684              		.loc 4 122 24 is_stmt 1 view -0
 685              		.cfi_startproc
 686              		@ args = 0, pretend = 0, frame = 0
 687              		@ frame_needed = 0, uses_anonymous_args = 0
 123:eurorack/clouds/dsp/pvoc/frame_transformation.cc ****   uint32_t* synthesis_phase = (uint32_t*) &destination[fft_size_ >> 1];
 688              		.loc 4 123 3 view .LVU208
 122:eurorack/clouds/dsp/pvoc/frame_transformation.cc ****   uint32_t* synthesis_phase = (uint32_t*) &destination[fft_size_ >> 1];
 689              		.loc 4 122 24 is_stmt 0 view .LVU209
 690 0000 F8B5     		push	{r3, r4, r5, r6, r7, lr}
 691              		.cfi_def_cfa_offset 24
 692              		.cfi_offset 3, -24
 693              		.cfi_offset 4, -20
 694              		.cfi_offset 5, -16
 695              		.cfi_offset 6, -12
 696              		.cfi_offset 7, -8
 697              		.cfi_offset 14, -4
 698              		.loc 4 123 66 view .LVU210
 699 0002 0568     		ldr	r5, [r0]
 122:eurorack/clouds/dsp/pvoc/frame_transformation.cc ****   uint32_t* synthesis_phase = (uint32_t*) &destination[fft_size_ >> 1];
 700              		.loc 4 122 24 view .LVU211
 701 0004 0646     		mov	r6, r0
 702              	.LBB154:
 124:eurorack/clouds/dsp/pvoc/frame_transformation.cc ****   for (int32_t i = 0; i < size_; ++i) {
 703              		.loc 4 124 16 view .LVU212
 704 0006 0023     		movs	r3, #0
 705              	.LBE154:
 123:eurorack/clouds/dsp/pvoc/frame_transformation.cc ****   uint32_t* synthesis_phase = (uint32_t*) &destination[fft_size_ >> 1];
 706              		.loc 4 123 66 view .LVU213
 707 0008 6D10     		asrs	r5, r5, #1
 123:eurorack/clouds/dsp/pvoc/frame_transformation.cc ****   uint32_t* synthesis_phase = (uint32_t*) &destination[fft_size_ >> 1];
 708              		.loc 4 123 13 view .LVU214
 709 000a 01EB8501 		add	r1, r1, r5, lsl #2
 710              	.LVL53:
 711              		.loc 4 124 3 is_stmt 1 view .LVU215
 712              	.L31:
 713              	.LBB155:
 714              		.loc 4 124 25 discriminator 3 view .LVU216
 715 000e B268     		ldr	r2, [r6, #8]
 716 0010 9A42     		cmp	r2, r3
 717 0012 16DD     		ble	.L30
 125:eurorack/clouds/dsp/pvoc/frame_transformation.cc ****     synthesis_phase[i] = phases_[i];
 718              		.loc 4 125 5 discriminator 2 view .LVU217
ARM GAS  /var/folders/9s/8rp0_f2s1n31qbztm3b5_fdh0000gn/T//cc5SCkU0.s 			page 39


 126:eurorack/clouds/dsp/pvoc/frame_transformation.cc ****     phases_[i] += static_cast<uint16_t>(
 127:eurorack/clouds/dsp/pvoc/frame_transformation.cc ****         static_cast<float>(phases_delta_[i]) * pitch_ratio);
 719              		.loc 4 127 43 is_stmt 0 discriminator 2 view .LVU218
 720 0014 F46A     		ldr	r4, [r6, #44]
 125:eurorack/clouds/dsp/pvoc/frame_transformation.cc ****     synthesis_phase[i] = phases_[i];
 721              		.loc 4 125 35 discriminator 2 view .LVU219
 722 0016 B06A     		ldr	r0, [r6, #40]
 723              		.loc 4 127 9 discriminator 2 view .LVU220
 724 0018 34F81340 		ldrh	r4, [r4, r3, lsl #1]
 125:eurorack/clouds/dsp/pvoc/frame_transformation.cc ****     synthesis_phase[i] = phases_[i];
 725              		.loc 4 125 35 discriminator 2 view .LVU221
 726 001c 30F81320 		ldrh	r2, [r0, r3, lsl #1]
 727              		.loc 4 127 9 discriminator 2 view .LVU222
 728 0020 07EE904A 		vmov	s15, r4	@ int
 125:eurorack/clouds/dsp/pvoc/frame_transformation.cc ****     synthesis_phase[i] = phases_[i];
 729              		.loc 4 125 35 discriminator 2 view .LVU223
 730 0024 41F82320 		str	r2, [r1, r3, lsl #2]
 126:eurorack/clouds/dsp/pvoc/frame_transformation.cc ****     phases_[i] += static_cast<uint16_t>(
 731              		.loc 4 126 5 is_stmt 1 discriminator 2 view .LVU224
 732              		.loc 4 127 9 is_stmt 0 discriminator 2 view .LVU225
 733 0028 F8EE677A 		vcvt.f32.u32	s15, s15
 734              		.loc 4 127 46 discriminator 2 view .LVU226
 735 002c 67EEA07A 		vmul.f32	s15, s15, s1
 126:eurorack/clouds/dsp/pvoc/frame_transformation.cc ****     phases_[i] += static_cast<uint16_t>(
 736              		.loc 4 126 19 discriminator 2 view .LVU227
 737 0030 FCEEE77A 		vcvt.u32.f32	s15, s15
 126:eurorack/clouds/dsp/pvoc/frame_transformation.cc ****     phases_[i] += static_cast<uint16_t>(
 738              		.loc 4 126 16 discriminator 2 view .LVU228
 739 0034 17EE904A 		vmov	r4, s15	@ int
 740 0038 2244     		add	r2, r2, r4
 741 003a 20F81320 		strh	r2, [r0, r3, lsl #1]	@ movhi
 124:eurorack/clouds/dsp/pvoc/frame_transformation.cc ****     synthesis_phase[i] = phases_[i];
 742              		.loc 4 124 3 is_stmt 1 discriminator 2 view .LVU229
 743 003e 0133     		adds	r3, r3, #1
 744              	.LVL54:
 124:eurorack/clouds/dsp/pvoc/frame_transformation.cc ****     synthesis_phase[i] = phases_[i];
 745              		.loc 4 124 3 is_stmt 0 discriminator 2 view .LVU230
 746 0040 E5E7     		b	.L31
 747              	.L30:
 124:eurorack/clouds/dsp/pvoc/frame_transformation.cc ****     synthesis_phase[i] = phases_[i];
 748              		.loc 4 124 3 discriminator 2 view .LVU231
 749              	.LBE155:
 128:eurorack/clouds/dsp/pvoc/frame_transformation.cc ****   }
 129:eurorack/clouds/dsp/pvoc/frame_transformation.cc ****   float r = phase_randomization;
 750              		.loc 4 129 3 is_stmt 1 view .LVU232
 751              	.LVL55:
 130:eurorack/clouds/dsp/pvoc/frame_transformation.cc ****   r = (r - 0.05f) * 1.06f;
 752              		.loc 4 130 3 view .LVU233
 753              		.loc 4 130 10 is_stmt 0 view .LVU234
 754 0042 DFED187A 		vldr.32	s15, .L38
 755 0046 30EE670A 		vsub.f32	s0, s0, s15
 756              	.LVL56:
 757              		.loc 4 130 5 view .LVU235
 758 004a DFED177A 		vldr.32	s15, .L38+4
 759 004e 20EE270A 		vmul.f32	s0, s0, s15
 760              	.LVL57:
 131:eurorack/clouds/dsp/pvoc/frame_transformation.cc ****   CONSTRAIN(r, 0.0f, 1.0f);
ARM GAS  /var/folders/9s/8rp0_f2s1n31qbztm3b5_fdh0000gn/T//cc5SCkU0.s 			page 40


 761              		.loc 4 131 3 is_stmt 1 view .LVU236
 762 0052 B5EEC00A 		vcmpe.f32	s0, #0
 763 0056 F1EE10FA 		vmrs	APSR_nzcv, FPSCR
 764 005a 1ED4     		bmi	.L36
 765              		.loc 4 131 3 discriminator 2 view .LVU237
 766 005c F7EE007A 		vmov.f32	s15, #1.0e+0
 767 0060 B4EE670A 		vcmp.f32	s0, s15
 768 0064 F1EE10FA 		vmrs	APSR_nzcv, FPSCR
 769 0068 37FE800A 		vselgt.f32	s0, s15, s0
 770              	.LVL58:
 771              	.L32:
 772              		.loc 4 131 27 discriminator 6 view .LVU238
 132:eurorack/clouds/dsp/pvoc/frame_transformation.cc ****   r *= r;
 773              		.loc 4 132 3 discriminator 6 view .LVU239
 133:eurorack/clouds/dsp/pvoc/frame_transformation.cc ****   int32_t amount = static_cast<int32_t>(r * 32768.0f);
 774              		.loc 4 133 3 discriminator 6 view .LVU240
 132:eurorack/clouds/dsp/pvoc/frame_transformation.cc ****   r *= r;
 775              		.loc 4 132 5 is_stmt 0 discriminator 6 view .LVU241
 776 006c 20EE000A 		vmul.f32	s0, s0, s0
 777              	.LVL59:
 132:eurorack/clouds/dsp/pvoc/frame_transformation.cc ****   r *= r;
 778              		.loc 4 132 5 discriminator 6 view .LVU242
 779 0070 0D1F     		subs	r5, r1, #4
 780              	.LBB156:
 134:eurorack/clouds/dsp/pvoc/frame_transformation.cc ****   for (int32_t i = 0; i < size_; ++i) {
 781              		.loc 4 134 16 discriminator 6 view .LVU243
 782 0072 0027     		movs	r7, #0
 783              	.LBE156:
 133:eurorack/clouds/dsp/pvoc/frame_transformation.cc ****   int32_t amount = static_cast<int32_t>(r * 32768.0f);
 784              		.loc 4 133 11 discriminator 6 view .LVU244
 785 0074 F0EE407A 		vmov.f32	s15, s0
 786 0078 FEEEE87A 		vcvt.s32.f32	s15, s15, #15
 787 007c 17EE904A 		vmov	r4, s15	@ int
 788              	.LVL60:
 789              		.loc 4 134 3 is_stmt 1 discriminator 6 view .LVU245
 790              	.L35:
 791              	.LBB157:
 792              		.loc 4 134 25 discriminator 3 view .LVU246
 793 0080 B368     		ldr	r3, [r6, #8]
 794 0082 BB42     		cmp	r3, r7
 795 0084 0CDD     		ble	.L29
 135:eurorack/clouds/dsp/pvoc/frame_transformation.cc ****     synthesis_phase[i] += \
 796              		.loc 4 135 5 discriminator 2 view .LVU247
 136:eurorack/clouds/dsp/pvoc/frame_transformation.cc ****         static_cast<int32_t>(stmlib::Random::GetSample()) * amount >> 14;
 797              		.loc 4 136 55 is_stmt 0 discriminator 2 view .LVU248
 798 0086 FFF7FEFF 		bl	_ZN6stmlib6Random9GetSampleEv
 799              	.LVL61:
 135:eurorack/clouds/dsp/pvoc/frame_transformation.cc ****     synthesis_phase[i] += \
 800              		.loc 4 135 24 discriminator 2 view .LVU249
 801 008a 55F8043F 		ldr	r3, [r5, #4]!
 802              		.loc 4 136 59 discriminator 2 view .LVU250
 803 008e 6043     		muls	r0, r4, r0
 134:eurorack/clouds/dsp/pvoc/frame_transformation.cc ****   for (int32_t i = 0; i < size_; ++i) {
 804              		.loc 4 134 3 discriminator 2 view .LVU251
 805 0090 0137     		adds	r7, r7, #1
 806              	.LVL62:
 135:eurorack/clouds/dsp/pvoc/frame_transformation.cc ****     synthesis_phase[i] += \
ARM GAS  /var/folders/9s/8rp0_f2s1n31qbztm3b5_fdh0000gn/T//cc5SCkU0.s 			page 41


 807              		.loc 4 135 24 discriminator 2 view .LVU252
 808 0092 03EBA030 		add	r0, r3, r0, asr #14
 809 0096 2860     		str	r0, [r5]
 134:eurorack/clouds/dsp/pvoc/frame_transformation.cc ****   for (int32_t i = 0; i < size_; ++i) {
 810              		.loc 4 134 3 is_stmt 1 discriminator 2 view .LVU253
 811              	.LVL63:
 134:eurorack/clouds/dsp/pvoc/frame_transformation.cc ****   for (int32_t i = 0; i < size_; ++i) {
 812              		.loc 4 134 3 is_stmt 0 discriminator 2 view .LVU254
 813 0098 F2E7     		b	.L35
 814              	.LVL64:
 815              	.L36:
 134:eurorack/clouds/dsp/pvoc/frame_transformation.cc ****   for (int32_t i = 0; i < size_; ++i) {
 816              		.loc 4 134 3 discriminator 2 view .LVU255
 817              	.LBE157:
 131:eurorack/clouds/dsp/pvoc/frame_transformation.cc ****   r *= r;
 818              		.loc 4 131 3 view .LVU256
 819 009a 9FED040A 		vldr.32	s0, .L38+8
 820              	.LVL65:
 131:eurorack/clouds/dsp/pvoc/frame_transformation.cc ****   r *= r;
 821              		.loc 4 131 3 view .LVU257
 822 009e E5E7     		b	.L32
 823              	.LVL66:
 824              	.L29:
 137:eurorack/clouds/dsp/pvoc/frame_transformation.cc ****   }
 138:eurorack/clouds/dsp/pvoc/frame_transformation.cc **** }
 825              		.loc 4 138 1 view .LVU258
 826 00a0 F8BD     		pop	{r3, r4, r5, r6, r7, pc}
 827              	.LVL67:
 828              	.L39:
 829              		.loc 4 138 1 view .LVU259
 830 00a2 00BF     		.align	2
 831              	.L38:
 832 00a4 CDCC4C3D 		.word	1028443341
 833 00a8 14AE873F 		.word	1065856532
 834 00ac 00000000 		.word	0
 835              		.cfi_endproc
 836              	.LFE1497:
 838              		.section	.text._ZN6clouds19FrameTransformation18PolarToRectangularEPf,"ax",%progbits
 839              		.align	1
 840              		.global	_ZN6clouds19FrameTransformation18PolarToRectangularEPf
 841              		.syntax unified
 842              		.thumb
 843              		.thumb_func
 845              	_ZN6clouds19FrameTransformation18PolarToRectangularEPf:
 846              	.LVL68:
 847              	.LFB1498:
 139:eurorack/clouds/dsp/pvoc/frame_transformation.cc **** 
 140:eurorack/clouds/dsp/pvoc/frame_transformation.cc **** void FrameTransformation::PolarToRectangular(float* fft_data) {
 848              		.loc 4 140 63 is_stmt 1 view -0
 849              		.cfi_startproc
 850              		@ args = 0, pretend = 0, frame = 0
 851              		@ frame_needed = 0, uses_anonymous_args = 0
 141:eurorack/clouds/dsp/pvoc/frame_transformation.cc ****   float* real = &fft_data[0];
 852              		.loc 4 141 3 view .LVU261
 142:eurorack/clouds/dsp/pvoc/frame_transformation.cc ****   float* imag = &fft_data[fft_size_ >> 1];
 853              		.loc 4 142 3 view .LVU262
 854              		.loc 4 142 37 is_stmt 0 view .LVU263
ARM GAS  /var/folders/9s/8rp0_f2s1n31qbztm3b5_fdh0000gn/T//cc5SCkU0.s 			page 42


 855 0000 0268     		ldr	r2, [r0]
 856 0002 01F1040C 		add	ip, r1, #4
 857 0006 5210     		asrs	r2, r2, #1
 140:eurorack/clouds/dsp/pvoc/frame_transformation.cc ****   float* real = &fft_data[0];
 858              		.loc 4 140 63 view .LVU264
 859 0008 F8B5     		push	{r3, r4, r5, r6, r7, lr}
 860              		.cfi_def_cfa_offset 24
 861              		.cfi_offset 3, -24
 862              		.cfi_offset 4, -20
 863              		.cfi_offset 5, -16
 864              		.cfi_offset 6, -12
 865              		.cfi_offset 7, -8
 866              		.cfi_offset 14, -4
 867              		.loc 4 142 41 view .LVU265
 868 000a 9700     		lsls	r7, r2, #2
 869              	.LVL69:
 143:eurorack/clouds/dsp/pvoc/frame_transformation.cc ****   float* magnitude = &fft_data[0];
 870              		.loc 4 143 3 is_stmt 1 view .LVU266
 144:eurorack/clouds/dsp/pvoc/frame_transformation.cc ****   uint32_t* angle = (uint32_t*) &fft_data[fft_size_ >> 1];
 871              		.loc 4 144 3 view .LVU267
 145:eurorack/clouds/dsp/pvoc/frame_transformation.cc ****   for (int32_t i = 1; i < size_; ++i) {
 872              		.loc 4 145 3 view .LVU268
 140:eurorack/clouds/dsp/pvoc/frame_transformation.cc ****   float* real = &fft_data[0];
 873              		.loc 4 140 63 is_stmt 0 view .LVU269
 874 000c 0E46     		mov	r6, r1
 875              	.LBB162:
 876              		.loc 4 145 27 view .LVU270
 877 000e 8368     		ldr	r3, [r0, #8]
 878              		.loc 4 145 16 view .LVU271
 879 0010 0125     		movs	r5, #1
 880 0012 391D     		adds	r1, r7, #4
 881              	.LVL70:
 882              		.loc 4 145 16 view .LVU272
 883 0014 3144     		add	r1, r1, r6
 884              	.LVL71:
 885              	.L44:
 886              		.loc 4 145 25 is_stmt 1 discriminator 3 view .LVU273
 887 0016 AB42     		cmp	r3, r5
 888 0018 1ADC     		bgt	.L41
 889 001a D41A     		subs	r4, r2, r3
 890 001c 07EB8300 		add	r0, r7, r3, lsl #2
 891 0020 9900     		lsls	r1, r3, #2
 892 0022 A400     		lsls	r4, r4, #2
 893 0024 9A42     		cmp	r2, r3
 894 0026 B8BF     		it	lt
 895 0028 0024     		movlt	r4, #0
 896 002a 0519     		adds	r5, r0, r4
 897              	.LVL72:
 898              		.loc 4 145 25 is_stmt 0 discriminator 3 view .LVU274
 899 002c B5EB830F 		cmp	r5, r3, lsl #2
 900 0030 06EB8305 		add	r5, r6, r3, lsl #2
 901 0034 25DD     		ble	.L42
 902 0036 2144     		add	r1, r1, r4
 903 0038 8142     		cmp	r1, r0
 904 003a 22DD     		ble	.L42
 905 003c 2846     		mov	r0, r5
 906              	.L46:
ARM GAS  /var/folders/9s/8rp0_f2s1n31qbztm3b5_fdh0000gn/T//cc5SCkU0.s 			page 43


 907              	.LVL73:
 908              		.loc 4 145 25 discriminator 3 view .LVU275
 909              	.LBE162:
 910              	.LBB167:
 146:eurorack/clouds/dsp/pvoc/frame_transformation.cc ****     fast_p2r(magnitude[i], angle[i], &real[i], &imag[i]);
 147:eurorack/clouds/dsp/pvoc/frame_transformation.cc ****   }
 148:eurorack/clouds/dsp/pvoc/frame_transformation.cc ****   for (int32_t i = size_; i < fft_size_ >> 1; ++i) {
 911              		.loc 4 148 29 is_stmt 1 view .LVU276
 912 003e 9A42     		cmp	r2, r3
 913 0040 2BDD     		ble	.L40
 149:eurorack/clouds/dsp/pvoc/frame_transformation.cc ****     real[i] = imag[i] = 0.0f;
 914              		.loc 4 149 5 view .LVU277
 915              		.loc 4 149 23 is_stmt 0 view .LVU278
 916 0042 C419     		adds	r4, r0, r7
 917 0044 0021     		movs	r1, #0
 148:eurorack/clouds/dsp/pvoc/frame_transformation.cc ****     real[i] = imag[i] = 0.0f;
 918              		.loc 4 148 3 view .LVU279
 919 0046 0133     		adds	r3, r3, #1
 920              	.LVL74:
 921              		.loc 4 149 23 view .LVU280
 922 0048 2160     		str	r1, [r4]	@ float
 923              		.loc 4 149 13 view .LVU281
 924 004a 40F8041B 		str	r1, [r0], #4	@ float
 148:eurorack/clouds/dsp/pvoc/frame_transformation.cc ****     real[i] = imag[i] = 0.0f;
 925              		.loc 4 148 3 is_stmt 1 view .LVU282
 926              	.LVL75:
 148:eurorack/clouds/dsp/pvoc/frame_transformation.cc ****     real[i] = imag[i] = 0.0f;
 927              		.loc 4 148 3 is_stmt 0 view .LVU283
 928 004e F6E7     		b	.L46
 929              	.LVL76:
 930              	.L41:
 148:eurorack/clouds/dsp/pvoc/frame_transformation.cc ****     real[i] = imag[i] = 0.0f;
 931              		.loc 4 148 3 view .LVU284
 932              	.LBE167:
 933              	.LBB168:
 146:eurorack/clouds/dsp/pvoc/frame_transformation.cc ****     fast_p2r(magnitude[i], angle[i], &real[i], &imag[i]);
 934              		.loc 4 146 5 is_stmt 1 discriminator 2 view .LVU285
 935              	.LBB163:
 936              	.LBB164:
 937              		.file 8 "eurorack/clouds/dsp/pvoc/frame_transformation.h"
   1:eurorack/clouds/dsp/pvoc/frame_transformation.h **** // Copyright 2014 Emilie Gillet.
   2:eurorack/clouds/dsp/pvoc/frame_transformation.h **** //
   3:eurorack/clouds/dsp/pvoc/frame_transformation.h **** // Author: Emilie Gillet (emilie.o.gillet@gmail.com)
   4:eurorack/clouds/dsp/pvoc/frame_transformation.h **** //
   5:eurorack/clouds/dsp/pvoc/frame_transformation.h **** // Permission is hereby granted, free of charge, to any person obtaining a copy
   6:eurorack/clouds/dsp/pvoc/frame_transformation.h **** // of this software and associated documentation files (the "Software"), to deal
   7:eurorack/clouds/dsp/pvoc/frame_transformation.h **** // in the Software without restriction, including without limitation the rights
   8:eurorack/clouds/dsp/pvoc/frame_transformation.h **** // to use, copy, modify, merge, publish, distribute, sublicense, and/or sell
   9:eurorack/clouds/dsp/pvoc/frame_transformation.h **** // copies of the Software, and to permit persons to whom the Software is
  10:eurorack/clouds/dsp/pvoc/frame_transformation.h **** // furnished to do so, subject to the following conditions:
  11:eurorack/clouds/dsp/pvoc/frame_transformation.h **** // 
  12:eurorack/clouds/dsp/pvoc/frame_transformation.h **** // The above copyright notice and this permission notice shall be included in
  13:eurorack/clouds/dsp/pvoc/frame_transformation.h **** // all copies or substantial portions of the Software.
  14:eurorack/clouds/dsp/pvoc/frame_transformation.h **** // 
  15:eurorack/clouds/dsp/pvoc/frame_transformation.h **** // THE SOFTWARE IS PROVIDED "AS IS", WITHOUT WARRANTY OF ANY KIND, EXPRESS OR
  16:eurorack/clouds/dsp/pvoc/frame_transformation.h **** // IMPLIED, INCLUDING BUT NOT LIMITED TO THE WARRANTIES OF MERCHANTABILITY,
  17:eurorack/clouds/dsp/pvoc/frame_transformation.h **** // FITNESS FOR A PARTICULAR PURPOSE AND NONINFRINGEMENT. IN NO EVENT SHALL THE
ARM GAS  /var/folders/9s/8rp0_f2s1n31qbztm3b5_fdh0000gn/T//cc5SCkU0.s 			page 44


  18:eurorack/clouds/dsp/pvoc/frame_transformation.h **** // AUTHORS OR COPYRIGHT HOLDERS BE LIABLE FOR ANY CLAIM, DAMAGES OR OTHER
  19:eurorack/clouds/dsp/pvoc/frame_transformation.h **** // LIABILITY, WHETHER IN AN ACTION OF CONTRACT, TORT OR OTHERWISE, ARISING FROM,
  20:eurorack/clouds/dsp/pvoc/frame_transformation.h **** // OUT OF OR IN CONNECTION WITH THE SOFTWARE OR THE USE OR OTHER DEALINGS IN
  21:eurorack/clouds/dsp/pvoc/frame_transformation.h **** // THE SOFTWARE.
  22:eurorack/clouds/dsp/pvoc/frame_transformation.h **** // 
  23:eurorack/clouds/dsp/pvoc/frame_transformation.h **** // See http://creativecommons.org/licenses/MIT/ for more information.
  24:eurorack/clouds/dsp/pvoc/frame_transformation.h **** //
  25:eurorack/clouds/dsp/pvoc/frame_transformation.h **** // -----------------------------------------------------------------------------
  26:eurorack/clouds/dsp/pvoc/frame_transformation.h **** //
  27:eurorack/clouds/dsp/pvoc/frame_transformation.h **** // Transformations applied to a single STFT slice.
  28:eurorack/clouds/dsp/pvoc/frame_transformation.h **** 
  29:eurorack/clouds/dsp/pvoc/frame_transformation.h **** #ifndef CLOUDS_DSP_PVOC_FRAME_TRANSFORMATION_H_
  30:eurorack/clouds/dsp/pvoc/frame_transformation.h **** #define CLOUDS_DSP_PVOC_FRAME_TRANSFORMATION_H_
  31:eurorack/clouds/dsp/pvoc/frame_transformation.h **** 
  32:eurorack/clouds/dsp/pvoc/frame_transformation.h **** #include "stmlib/stmlib.h"
  33:eurorack/clouds/dsp/pvoc/frame_transformation.h **** 
  34:eurorack/clouds/dsp/pvoc/frame_transformation.h **** #include "clouds/dsp/pvoc/stft.h"
  35:eurorack/clouds/dsp/pvoc/frame_transformation.h **** 
  36:eurorack/clouds/dsp/pvoc/frame_transformation.h **** #include "clouds/resources.h"
  37:eurorack/clouds/dsp/pvoc/frame_transformation.h **** 
  38:eurorack/clouds/dsp/pvoc/frame_transformation.h **** namespace clouds {
  39:eurorack/clouds/dsp/pvoc/frame_transformation.h **** 
  40:eurorack/clouds/dsp/pvoc/frame_transformation.h **** const int32_t kMaxNumTextures = 7;
  41:eurorack/clouds/dsp/pvoc/frame_transformation.h **** const int32_t kHighFrequencyTruncation = 16;
  42:eurorack/clouds/dsp/pvoc/frame_transformation.h **** 
  43:eurorack/clouds/dsp/pvoc/frame_transformation.h **** struct Parameters;
  44:eurorack/clouds/dsp/pvoc/frame_transformation.h **** 
  45:eurorack/clouds/dsp/pvoc/frame_transformation.h **** class FrameTransformation {
  46:eurorack/clouds/dsp/pvoc/frame_transformation.h ****  public:
  47:eurorack/clouds/dsp/pvoc/frame_transformation.h ****   FrameTransformation() { }
  48:eurorack/clouds/dsp/pvoc/frame_transformation.h ****   ~FrameTransformation() { }
  49:eurorack/clouds/dsp/pvoc/frame_transformation.h ****   
  50:eurorack/clouds/dsp/pvoc/frame_transformation.h ****   void Init(float* buffer, int32_t fft_size, int32_t num_textures);
  51:eurorack/clouds/dsp/pvoc/frame_transformation.h ****   void Reset();
  52:eurorack/clouds/dsp/pvoc/frame_transformation.h ****   
  53:eurorack/clouds/dsp/pvoc/frame_transformation.h ****   void Process(
  54:eurorack/clouds/dsp/pvoc/frame_transformation.h ****       const Parameters& parameters,
  55:eurorack/clouds/dsp/pvoc/frame_transformation.h ****       float* fft_out,
  56:eurorack/clouds/dsp/pvoc/frame_transformation.h ****       float* ifft_in);
  57:eurorack/clouds/dsp/pvoc/frame_transformation.h ****   
  58:eurorack/clouds/dsp/pvoc/frame_transformation.h ****  private:
  59:eurorack/clouds/dsp/pvoc/frame_transformation.h ****   void RectangularToPolar(float* fft_data);
  60:eurorack/clouds/dsp/pvoc/frame_transformation.h ****   void PolarToRectangular(float* fft_data);
  61:eurorack/clouds/dsp/pvoc/frame_transformation.h ****   void AddGlitch(float* xf_polar);
  62:eurorack/clouds/dsp/pvoc/frame_transformation.h ****   void ShiftMagnitudes(
  63:eurorack/clouds/dsp/pvoc/frame_transformation.h ****       float* source,
  64:eurorack/clouds/dsp/pvoc/frame_transformation.h ****       float* xf_polar,
  65:eurorack/clouds/dsp/pvoc/frame_transformation.h ****       float pitch_ratio);
  66:eurorack/clouds/dsp/pvoc/frame_transformation.h ****   void WarpMagnitudes(
  67:eurorack/clouds/dsp/pvoc/frame_transformation.h ****       float* source,
  68:eurorack/clouds/dsp/pvoc/frame_transformation.h ****       float* xf_polar,
  69:eurorack/clouds/dsp/pvoc/frame_transformation.h ****       float amount);
  70:eurorack/clouds/dsp/pvoc/frame_transformation.h ****   void QuantizeMagnitudes(float* xf_polar, float amount);
  71:eurorack/clouds/dsp/pvoc/frame_transformation.h ****   void StoreMagnitudes(float* xf_polar, float position, float feedback);
  72:eurorack/clouds/dsp/pvoc/frame_transformation.h ****   void SetPhases(float* destination, float diffusion, float pitch_ratio);
  73:eurorack/clouds/dsp/pvoc/frame_transformation.h ****   void ReplayMagnitudes(float* xf_polar, float position);
  74:eurorack/clouds/dsp/pvoc/frame_transformation.h ****   void DiffuseMagnitudes(float* xf_polar, float diffusion);
ARM GAS  /var/folders/9s/8rp0_f2s1n31qbztm3b5_fdh0000gn/T//cc5SCkU0.s 			page 45


  75:eurorack/clouds/dsp/pvoc/frame_transformation.h ****   
  76:eurorack/clouds/dsp/pvoc/frame_transformation.h ****   inline void fast_p2r(float magnitude, uint16_t angle, float* re, float* im) {
  77:eurorack/clouds/dsp/pvoc/frame_transformation.h ****     angle >>= 6;
 938              		.loc 8 77 11 is_stmt 0 discriminator 2 view .LVU286
 939 0050 0888     		ldrh	r0, [r1]
 940              	.LBE164:
 941              	.LBE163:
 145:eurorack/clouds/dsp/pvoc/frame_transformation.cc ****     fast_p2r(magnitude[i], angle[i], &real[i], &imag[i]);
 942              		.loc 4 145 3 discriminator 2 view .LVU287
 943 0052 0135     		adds	r5, r5, #1
 944              	.LVL77:
 146:eurorack/clouds/dsp/pvoc/frame_transformation.cc ****   }
 945              		.loc 4 146 13 discriminator 2 view .LVU288
 946 0054 DCED006A 		vldr.32	s13, [ip]
 947              	.LVL78:
 948              	.LBB166:
 949              	.LBI163:
  76:eurorack/clouds/dsp/pvoc/frame_transformation.h ****     angle >>= 6;
 950              		.loc 8 76 15 is_stmt 1 discriminator 2 view .LVU289
 951              	.LBB165:
 952              		.loc 8 77 5 discriminator 2 view .LVU290
 953              		.loc 8 77 11 is_stmt 0 discriminator 2 view .LVU291
 954 0058 8409     		lsrs	r4, r0, #6
 955              	.LVL79:
  78:eurorack/clouds/dsp/pvoc/frame_transformation.h ****     *re = magnitude * lut_sin[angle + 256];
 956              		.loc 8 78 5 is_stmt 1 discriminator 2 view .LVU292
 957              		.loc 8 78 42 is_stmt 0 discriminator 2 view .LVU293
 958 005a 1048     		ldr	r0, .L49
 959              		.loc 8 78 37 discriminator 2 view .LVU294
 960 005c 04F5807E 		add	lr, r4, #256
 961              		.loc 8 78 42 discriminator 2 view .LVU295
 962 0060 00EB8E0E 		add	lr, r0, lr, lsl #2
  79:eurorack/clouds/dsp/pvoc/frame_transformation.h ****     *im = magnitude * lut_sin[angle];
 963              		.loc 8 79 36 discriminator 2 view .LVU296
 964 0064 00EB8400 		add	r0, r0, r4, lsl #2
  78:eurorack/clouds/dsp/pvoc/frame_transformation.h ****     *re = magnitude * lut_sin[angle + 256];
 965              		.loc 8 78 21 discriminator 2 view .LVU297
 966 0068 9EED007A 		vldr.32	s14, [lr]
 967 006c 27EE267A 		vmul.f32	s14, s14, s13
  78:eurorack/clouds/dsp/pvoc/frame_transformation.h ****     *re = magnitude * lut_sin[angle + 256];
 968              		.loc 8 78 9 discriminator 2 view .LVU298
 969 0070 ACEC017A 		vstmia.32	ip!, {s14}
 970              	.LVL80:
 971              		.loc 8 79 5 is_stmt 1 discriminator 2 view .LVU299
 972              		.loc 8 79 21 is_stmt 0 discriminator 2 view .LVU300
 973 0074 D0ED007A 		vldr.32	s15, [r0]
 974 0078 67EEA67A 		vmul.f32	s15, s15, s13
 975              		.loc 8 79 9 discriminator 2 view .LVU301
 976 007c E1EC017A 		vstmia.32	r1!, {s15}
 977              	.LVL81:
 978              		.loc 8 79 9 discriminator 2 view .LVU302
 979              	.LBE165:
 980              	.LBE166:
 145:eurorack/clouds/dsp/pvoc/frame_transformation.cc ****     fast_p2r(magnitude[i], angle[i], &real[i], &imag[i]);
 981              		.loc 4 145 3 is_stmt 1 discriminator 2 view .LVU303
 145:eurorack/clouds/dsp/pvoc/frame_transformation.cc ****     fast_p2r(magnitude[i], angle[i], &real[i], &imag[i]);
 982              		.loc 4 145 3 is_stmt 0 discriminator 2 view .LVU304
ARM GAS  /var/folders/9s/8rp0_f2s1n31qbztm3b5_fdh0000gn/T//cc5SCkU0.s 			page 46


 983 0080 C9E7     		b	.L44
 984              	.LVL82:
 985              	.L42:
 145:eurorack/clouds/dsp/pvoc/frame_transformation.cc ****     fast_p2r(magnitude[i], angle[i], &real[i], &imag[i]);
 986              		.loc 4 145 3 discriminator 2 view .LVU305
 987              	.LBE168:
 988              	.LBB169:
 989              		.loc 4 149 23 view .LVU306
 990 0082 2246     		mov	r2, r4
 991 0084 0021     		movs	r1, #0
 992 0086 3044     		add	r0, r0, r6
 993 0088 FFF7FEFF 		bl	memset
 994              	.LVL83:
 995              		.loc 4 149 13 view .LVU307
 996 008c 2246     		mov	r2, r4
 997 008e 2846     		mov	r0, r5
 998 0090 0021     		movs	r1, #0
 999              	.LBE169:
 150:eurorack/clouds/dsp/pvoc/frame_transformation.cc ****   }
 151:eurorack/clouds/dsp/pvoc/frame_transformation.cc **** }
 1000              		.loc 4 151 1 view .LVU308
 1001 0092 BDE8F840 		pop	{r3, r4, r5, r6, r7, lr}
 1002              		.cfi_remember_state
 1003              		.cfi_restore 14
 1004              		.cfi_restore 7
 1005              		.cfi_restore 6
 1006              		.cfi_restore 5
 1007              		.cfi_restore 4
 1008              		.cfi_restore 3
 1009              		.cfi_def_cfa_offset 0
 1010              	.LVL84:
 1011              	.LBB170:
 149:eurorack/clouds/dsp/pvoc/frame_transformation.cc ****   }
 1012              		.loc 4 149 13 view .LVU309
 1013 0096 FFF7FEBF 		b	memset
 1014              	.LVL85:
 1015              	.L40:
 1016              		.cfi_restore_state
 149:eurorack/clouds/dsp/pvoc/frame_transformation.cc ****   }
 1017              		.loc 4 149 13 view .LVU310
 1018              	.LBE170:
 1019              		.loc 4 151 1 view .LVU311
 1020 009a F8BD     		pop	{r3, r4, r5, r6, r7, pc}
 1021              	.LVL86:
 1022              	.L50:
 1023              		.loc 4 151 1 view .LVU312
 1024              		.align	2
 1025              	.L49:
 1026 009c 00000000 		.word	_ZN6clouds7lut_sinE
 1027              		.cfi_endproc
 1028              	.LFE1498:
 1030              		.section	.text._ZN6clouds19FrameTransformation14WarpMagnitudesEPfS1_f,"ax",%progbits
 1031              		.align	1
 1032              		.global	_ZN6clouds19FrameTransformation14WarpMagnitudesEPfS1_f
 1033              		.syntax unified
 1034              		.thumb
 1035              		.thumb_func
ARM GAS  /var/folders/9s/8rp0_f2s1n31qbztm3b5_fdh0000gn/T//cc5SCkU0.s 			page 47


 1037              	_ZN6clouds19FrameTransformation14WarpMagnitudesEPfS1_f:
 1038              	.LVL87:
 1039              	.LFB1501:
 152:eurorack/clouds/dsp/pvoc/frame_transformation.cc **** 
 153:eurorack/clouds/dsp/pvoc/frame_transformation.cc **** void FrameTransformation::AddGlitch(float* xf_polar) {
 154:eurorack/clouds/dsp/pvoc/frame_transformation.cc ****   float* x = xf_polar;
 155:eurorack/clouds/dsp/pvoc/frame_transformation.cc ****   switch (glitch_algorithm_) {
 156:eurorack/clouds/dsp/pvoc/frame_transformation.cc ****     case 0:
 157:eurorack/clouds/dsp/pvoc/frame_transformation.cc ****       // Spectral hold and blow.
 158:eurorack/clouds/dsp/pvoc/frame_transformation.cc ****       {
 159:eurorack/clouds/dsp/pvoc/frame_transformation.cc ****         // Create trails
 160:eurorack/clouds/dsp/pvoc/frame_transformation.cc ****         float held = 0.0;
 161:eurorack/clouds/dsp/pvoc/frame_transformation.cc ****         for (int32_t i = 0; i < size_; ++i) {
 162:eurorack/clouds/dsp/pvoc/frame_transformation.cc ****           if ((stmlib::Random::GetSample() & 15) == 0) {
 163:eurorack/clouds/dsp/pvoc/frame_transformation.cc ****             held = x[i];
 164:eurorack/clouds/dsp/pvoc/frame_transformation.cc ****           }
 165:eurorack/clouds/dsp/pvoc/frame_transformation.cc ****           x[i] = held;
 166:eurorack/clouds/dsp/pvoc/frame_transformation.cc ****           held = held * 1.01f;
 167:eurorack/clouds/dsp/pvoc/frame_transformation.cc ****         }
 168:eurorack/clouds/dsp/pvoc/frame_transformation.cc ****       }
 169:eurorack/clouds/dsp/pvoc/frame_transformation.cc ****       break;
 170:eurorack/clouds/dsp/pvoc/frame_transformation.cc ****       
 171:eurorack/clouds/dsp/pvoc/frame_transformation.cc ****     case 1:
 172:eurorack/clouds/dsp/pvoc/frame_transformation.cc ****       // Spectral shift up with aliasing.
 173:eurorack/clouds/dsp/pvoc/frame_transformation.cc ****       {
 174:eurorack/clouds/dsp/pvoc/frame_transformation.cc ****         float factor = 1.0f + (stmlib::Random::GetSample() & 7) / 4.0f;
 175:eurorack/clouds/dsp/pvoc/frame_transformation.cc ****         float source = 0.0f;
 176:eurorack/clouds/dsp/pvoc/frame_transformation.cc ****         for (int32_t i = 0; i < size_; ++i) {
 177:eurorack/clouds/dsp/pvoc/frame_transformation.cc ****           source += factor;
 178:eurorack/clouds/dsp/pvoc/frame_transformation.cc ****           if (source >= size_) {
 179:eurorack/clouds/dsp/pvoc/frame_transformation.cc ****             source = 0.0f;
 180:eurorack/clouds/dsp/pvoc/frame_transformation.cc ****           }
 181:eurorack/clouds/dsp/pvoc/frame_transformation.cc ****           x[i] = x[static_cast<int32_t>(source)];
 182:eurorack/clouds/dsp/pvoc/frame_transformation.cc ****         }
 183:eurorack/clouds/dsp/pvoc/frame_transformation.cc ****       }
 184:eurorack/clouds/dsp/pvoc/frame_transformation.cc ****       break;
 185:eurorack/clouds/dsp/pvoc/frame_transformation.cc ****       
 186:eurorack/clouds/dsp/pvoc/frame_transformation.cc ****     case 2:
 187:eurorack/clouds/dsp/pvoc/frame_transformation.cc ****       // Kill largest harmonic and boost second largest.
 188:eurorack/clouds/dsp/pvoc/frame_transformation.cc ****       *std::max_element(&x[0], &x[size_]) = 0.0f;
 189:eurorack/clouds/dsp/pvoc/frame_transformation.cc ****       *std::max_element(&x[0], &x[size_]) *= 8.0f;
 190:eurorack/clouds/dsp/pvoc/frame_transformation.cc ****       break;
 191:eurorack/clouds/dsp/pvoc/frame_transformation.cc ****       
 192:eurorack/clouds/dsp/pvoc/frame_transformation.cc ****     case 3:
 193:eurorack/clouds/dsp/pvoc/frame_transformation.cc ****       {
 194:eurorack/clouds/dsp/pvoc/frame_transformation.cc ****         // Nasty high-pass
 195:eurorack/clouds/dsp/pvoc/frame_transformation.cc ****         for (int32_t i = 0; i < size_; ++i) {
 196:eurorack/clouds/dsp/pvoc/frame_transformation.cc ****           uint32_t random = stmlib::Random::GetSample() & 15;
 197:eurorack/clouds/dsp/pvoc/frame_transformation.cc ****           if (random == 0) {
 198:eurorack/clouds/dsp/pvoc/frame_transformation.cc ****             x[i] *= static_cast<float>(i) / 16.0f;
 199:eurorack/clouds/dsp/pvoc/frame_transformation.cc ****           }
 200:eurorack/clouds/dsp/pvoc/frame_transformation.cc ****         }
 201:eurorack/clouds/dsp/pvoc/frame_transformation.cc ****       }
 202:eurorack/clouds/dsp/pvoc/frame_transformation.cc ****       break;
 203:eurorack/clouds/dsp/pvoc/frame_transformation.cc ****       
 204:eurorack/clouds/dsp/pvoc/frame_transformation.cc ****     default:
 205:eurorack/clouds/dsp/pvoc/frame_transformation.cc ****       break;
ARM GAS  /var/folders/9s/8rp0_f2s1n31qbztm3b5_fdh0000gn/T//cc5SCkU0.s 			page 48


 206:eurorack/clouds/dsp/pvoc/frame_transformation.cc ****   }
 207:eurorack/clouds/dsp/pvoc/frame_transformation.cc **** }
 208:eurorack/clouds/dsp/pvoc/frame_transformation.cc **** 
 209:eurorack/clouds/dsp/pvoc/frame_transformation.cc **** void FrameTransformation::QuantizeMagnitudes(float* xf_polar, float amount) {
 210:eurorack/clouds/dsp/pvoc/frame_transformation.cc ****   if (amount <= 0.48f) {
 211:eurorack/clouds/dsp/pvoc/frame_transformation.cc ****     amount = amount * 2.0f;
 212:eurorack/clouds/dsp/pvoc/frame_transformation.cc ****     float scale_down = 0.5f * SemitonesToRatio(
 213:eurorack/clouds/dsp/pvoc/frame_transformation.cc ****         -108.0f * (1.0f - amount * amount)) / float(fft_size_);
 214:eurorack/clouds/dsp/pvoc/frame_transformation.cc ****     float scale_up = 1.0f / scale_down;
 215:eurorack/clouds/dsp/pvoc/frame_transformation.cc ****     for (int32_t i = 0.0f; i < size_; ++i) {
 216:eurorack/clouds/dsp/pvoc/frame_transformation.cc ****       xf_polar[i] = scale_up * static_cast<float>(
 217:eurorack/clouds/dsp/pvoc/frame_transformation.cc ****           static_cast<int32_t>(scale_down * xf_polar[i]));
 218:eurorack/clouds/dsp/pvoc/frame_transformation.cc ****     }
 219:eurorack/clouds/dsp/pvoc/frame_transformation.cc ****   } else if (amount >= 0.52f) {
 220:eurorack/clouds/dsp/pvoc/frame_transformation.cc ****     amount = (amount - 0.52f) * 2.0f;
 221:eurorack/clouds/dsp/pvoc/frame_transformation.cc ****     float norm = *std::max_element(&xf_polar[0], &xf_polar[size_]);
 222:eurorack/clouds/dsp/pvoc/frame_transformation.cc ****     float inv_norm = 1.0f / (norm + 0.0001f);
 223:eurorack/clouds/dsp/pvoc/frame_transformation.cc ****     for (int32_t i = 1.0f; i < size_; ++i) {
 224:eurorack/clouds/dsp/pvoc/frame_transformation.cc ****       float x = xf_polar[i] * inv_norm;
 225:eurorack/clouds/dsp/pvoc/frame_transformation.cc ****       float warped = 4.0f * x * (1.0f - x) * (1.0f - x) * (1.0f - x);
 226:eurorack/clouds/dsp/pvoc/frame_transformation.cc ****       xf_polar[i] = (x + (warped - x) * amount) * norm;
 227:eurorack/clouds/dsp/pvoc/frame_transformation.cc ****     }
 228:eurorack/clouds/dsp/pvoc/frame_transformation.cc ****   }
 229:eurorack/clouds/dsp/pvoc/frame_transformation.cc **** }
 230:eurorack/clouds/dsp/pvoc/frame_transformation.cc **** 
 231:eurorack/clouds/dsp/pvoc/frame_transformation.cc **** const float kWarpPolynomials[6][4] = {
 232:eurorack/clouds/dsp/pvoc/frame_transformation.cc ****   { 10.5882f, -14.8824f, 5.29412f, 0.0f },
 233:eurorack/clouds/dsp/pvoc/frame_transformation.cc ****   { -7.3333f, +9.0, -1.79167f, 0.125f },
 234:eurorack/clouds/dsp/pvoc/frame_transformation.cc ****   { 0.0f, 0.0f, 1.0f, 0.0f },
 235:eurorack/clouds/dsp/pvoc/frame_transformation.cc ****   { 0.0f, 0.5f, 0.5f, 0.0f },
 236:eurorack/clouds/dsp/pvoc/frame_transformation.cc ****   { -7.3333f, +9.5f, -2.416667f, 0.25f },
 237:eurorack/clouds/dsp/pvoc/frame_transformation.cc ****   { -7.3333f, +9.5f, -2.416667f, 0.25f },
 238:eurorack/clouds/dsp/pvoc/frame_transformation.cc **** };
 239:eurorack/clouds/dsp/pvoc/frame_transformation.cc **** 
 240:eurorack/clouds/dsp/pvoc/frame_transformation.cc **** void FrameTransformation::WarpMagnitudes(
 241:eurorack/clouds/dsp/pvoc/frame_transformation.cc ****     float* source,
 242:eurorack/clouds/dsp/pvoc/frame_transformation.cc ****     float* xf_polar,
 243:eurorack/clouds/dsp/pvoc/frame_transformation.cc ****     float amount) {
 1040              		.loc 4 243 19 is_stmt 1 view -0
 1041              		.cfi_startproc
 1042              		@ args = 0, pretend = 0, frame = 16
 1043              		@ frame_needed = 0, uses_anonymous_args = 0
 244:eurorack/clouds/dsp/pvoc/frame_transformation.cc ****   float bin_width = 1.0f / static_cast<float>(size_);
 1044              		.loc 4 244 3 view .LVU314
 243:eurorack/clouds/dsp/pvoc/frame_transformation.cc ****   float bin_width = 1.0f / static_cast<float>(size_);
 1045              		.loc 4 243 19 is_stmt 0 view .LVU315
 1046 0000 F0B5     		push	{r4, r5, r6, r7, lr}
 1047              		.cfi_def_cfa_offset 20
 1048              		.cfi_offset 4, -20
 1049              		.cfi_offset 5, -16
 1050              		.cfi_offset 6, -12
 1051              		.cfi_offset 7, -8
 1052              		.cfi_offset 14, -4
 1053              		.loc 4 244 47 view .LVU316
 1054 0002 8768     		ldr	r7, [r0, #8]
 243:eurorack/clouds/dsp/pvoc/frame_transformation.cc ****   float bin_width = 1.0f / static_cast<float>(size_);
 1055              		.loc 4 243 19 view .LVU317
ARM GAS  /var/folders/9s/8rp0_f2s1n31qbztm3b5_fdh0000gn/T//cc5SCkU0.s 			page 49


 1056 0004 0E46     		mov	r6, r1
 1057 0006 2A4B     		ldr	r3, .L56
 1058              		.loc 4 244 28 view .LVU318
 1059 0008 07EE907A 		vmov	s15, r7	@ int
 243:eurorack/clouds/dsp/pvoc/frame_transformation.cc ****   float bin_width = 1.0f / static_cast<float>(size_);
 1060              		.loc 4 243 19 view .LVU319
 1061 000c 2DED088B 		vpush.64	{d8, d9, d10, d11}
 1062              		.cfi_def_cfa_offset 52
 1063              		.cfi_offset 80, -52
 1064              		.cfi_offset 81, -48
 1065              		.cfi_offset 82, -44
 1066              		.cfi_offset 83, -40
 1067              		.cfi_offset 84, -36
 1068              		.cfi_offset 85, -32
 1069              		.cfi_offset 86, -28
 1070              		.cfi_offset 87, -24
 1071              		.loc 4 244 28 view .LVU320
 1072 0010 F8EEE78A 		vcvt.f32.s32	s17, s15
 243:eurorack/clouds/dsp/pvoc/frame_transformation.cc ****   float bin_width = 1.0f / static_cast<float>(size_);
 1073              		.loc 4 243 19 view .LVU321
 1074 0014 85B0     		sub	sp, sp, #20
 1075              		.cfi_def_cfa_offset 72
 1076              		.loc 4 244 9 view .LVU322
 1077 0016 F7EE007A 		vmov.f32	s15, #1.0e+0
 1078 001a 6846     		mov	r0, sp
 1079              	.LVL88:
 1080              		.loc 4 244 9 view .LVU323
 1081 001c 87EEA8BA 		vdiv.f32	s22, s15, s17
 1082              	.LVL89:
 245:eurorack/clouds/dsp/pvoc/frame_transformation.cc ****   float f = 0.0;
 1083              		.loc 4 245 3 is_stmt 1 view .LVU324
 246:eurorack/clouds/dsp/pvoc/frame_transformation.cc ****   
 247:eurorack/clouds/dsp/pvoc/frame_transformation.cc ****   float coefficients[4];
 1084              		.loc 4 247 3 view .LVU325
 248:eurorack/clouds/dsp/pvoc/frame_transformation.cc ****   amount *= 4.0f;
 1085              		.loc 4 248 3 view .LVU326
 1086              		.loc 4 248 10 is_stmt 0 view .LVU327
 1087 0020 F1EE007A 		vmov.f32	s15, #4.0e+0
 1088 0024 20EE270A 		vmul.f32	s0, s0, s15
 1089              	.LVL90:
 249:eurorack/clouds/dsp/pvoc/frame_transformation.cc ****   MAKE_INTEGRAL_FRACTIONAL(amount);
 1090              		.loc 4 249 3 is_stmt 1 view .LVU328
 1091 0028 FDEEC07A 		vcvt.s32.f32	s15, s0
 1092              	.LVL91:
 1093              		.loc 4 249 3 view .LVU329
 1094 002c B8EEE77A 		vcvt.f32.s32	s14, s15
 1095 0030 17EE901A 		vmov	r1, s15	@ int
 1096              	.LVL92:
 1097              		.loc 4 249 3 is_stmt 0 view .LVU330
 1098 0034 03EB0113 		add	r3, r3, r1, lsl #4
 1099              	.LBB171:
 250:eurorack/clouds/dsp/pvoc/frame_transformation.cc ****   for (int32_t i = 0; i < 4; ++i) {
 1100              		.loc 4 250 16 view .LVU331
 1101 0038 0021     		movs	r1, #0
 1102              	.LBE171:
 249:eurorack/clouds/dsp/pvoc/frame_transformation.cc ****   MAKE_INTEGRAL_FRACTIONAL(amount);
 1103              		.loc 4 249 3 view .LVU332
ARM GAS  /var/folders/9s/8rp0_f2s1n31qbztm3b5_fdh0000gn/T//cc5SCkU0.s 			page 50


 1104 003a 30EE470A 		vsub.f32	s0, s0, s14
 1105              	.LVL93:
 249:eurorack/clouds/dsp/pvoc/frame_transformation.cc ****   MAKE_INTEGRAL_FRACTIONAL(amount);
 1106              		.loc 4 249 35 is_stmt 1 view .LVU333
 1107              		.loc 4 250 3 view .LVU334
 1108              	.LBB178:
 1109              		.loc 4 250 25 view .LVU335
 1110              	.L52:
 251:eurorack/clouds/dsp/pvoc/frame_transformation.cc ****     coefficients[i] = Crossfade(
 1111              		.loc 4 251 5 discriminator 2 view .LVU336
 252:eurorack/clouds/dsp/pvoc/frame_transformation.cc ****         kWarpPolynomials[amount_integral][i],
 1112              		.loc 4 252 44 is_stmt 0 discriminator 2 view .LVU337
 1113 003e F3EC017A 		vldmia.32	r3!, {s15}
 1114              	.LVL94:
 1115              	.LBB172:
 1116              	.LBI172:
  50:eurorack/stmlib/dsp/dsp.h **** 
  51:eurorack/stmlib/dsp/dsp.h **** 
  52:eurorack/stmlib/dsp/dsp.h **** inline float InterpolateHermite(const float* table, float index, float size) {
  53:eurorack/stmlib/dsp/dsp.h ****   index *= size;
  54:eurorack/stmlib/dsp/dsp.h ****   MAKE_INTEGRAL_FRACTIONAL(index)
  55:eurorack/stmlib/dsp/dsp.h ****   const float xm1 = table[index_integral - 1];
  56:eurorack/stmlib/dsp/dsp.h ****   const float x0 = table[index_integral + 0];
  57:eurorack/stmlib/dsp/dsp.h ****   const float x1 = table[index_integral + 1];
  58:eurorack/stmlib/dsp/dsp.h ****   const float x2 = table[index_integral + 2];
  59:eurorack/stmlib/dsp/dsp.h ****   const float c = (x1 - xm1) * 0.5f;
  60:eurorack/stmlib/dsp/dsp.h ****   const float v = x0 - x1;
  61:eurorack/stmlib/dsp/dsp.h ****   const float w = c + v;
  62:eurorack/stmlib/dsp/dsp.h ****   const float a = w + v + (x2 - x0) * 0.5f;
  63:eurorack/stmlib/dsp/dsp.h ****   const float b_neg = w + a;
  64:eurorack/stmlib/dsp/dsp.h ****   const float f = index_fractional;
  65:eurorack/stmlib/dsp/dsp.h ****   return (((a * f) - b_neg) * f + c) * f + x0;
  66:eurorack/stmlib/dsp/dsp.h **** }
  67:eurorack/stmlib/dsp/dsp.h **** 
  68:eurorack/stmlib/dsp/dsp.h **** inline float InterpolateWrap(const float* table, float index, float size) {
  69:eurorack/stmlib/dsp/dsp.h ****   index -= static_cast<float>(static_cast<int32_t>(index));
  70:eurorack/stmlib/dsp/dsp.h ****   index *= size;
  71:eurorack/stmlib/dsp/dsp.h ****   MAKE_INTEGRAL_FRACTIONAL(index)
  72:eurorack/stmlib/dsp/dsp.h ****   float a = table[index_integral];
  73:eurorack/stmlib/dsp/dsp.h ****   float b = table[index_integral + 1];
  74:eurorack/stmlib/dsp/dsp.h ****   return a + (b - a) * index_fractional;
  75:eurorack/stmlib/dsp/dsp.h **** }
  76:eurorack/stmlib/dsp/dsp.h **** 
  77:eurorack/stmlib/dsp/dsp.h **** inline float SmoothStep(float value) {
  78:eurorack/stmlib/dsp/dsp.h ****   return value * value * (3.0f - 2.0f * value);
  79:eurorack/stmlib/dsp/dsp.h **** }
  80:eurorack/stmlib/dsp/dsp.h **** 
  81:eurorack/stmlib/dsp/dsp.h **** #define ONE_POLE(out, in, coefficient) out += (coefficient) * ((in) - out);
  82:eurorack/stmlib/dsp/dsp.h **** #define SLOPE(out, in, positive, negative) { \
  83:eurorack/stmlib/dsp/dsp.h ****   float error = (in) - out; \
  84:eurorack/stmlib/dsp/dsp.h ****   out += (error > 0 ? positive : negative) * error; \
  85:eurorack/stmlib/dsp/dsp.h **** }
  86:eurorack/stmlib/dsp/dsp.h **** #define SLEW(out, in, delta) { \
  87:eurorack/stmlib/dsp/dsp.h ****   float error = (in) - out; \
  88:eurorack/stmlib/dsp/dsp.h ****   float d = (delta); \
  89:eurorack/stmlib/dsp/dsp.h ****   if (error > d) { \
  90:eurorack/stmlib/dsp/dsp.h ****     error = d; \
ARM GAS  /var/folders/9s/8rp0_f2s1n31qbztm3b5_fdh0000gn/T//cc5SCkU0.s 			page 51


  91:eurorack/stmlib/dsp/dsp.h ****   } else if (error < -d) { \
  92:eurorack/stmlib/dsp/dsp.h ****     error = -d; \
  93:eurorack/stmlib/dsp/dsp.h ****   } \
  94:eurorack/stmlib/dsp/dsp.h ****   out += error; \
  95:eurorack/stmlib/dsp/dsp.h **** }
  96:eurorack/stmlib/dsp/dsp.h **** 
  97:eurorack/stmlib/dsp/dsp.h **** inline float Crossfade(float a, float b, float fade) {
 1117              		.loc 1 97 14 is_stmt 1 discriminator 2 view .LVU338
 1118              	.LBB173:
  98:eurorack/stmlib/dsp/dsp.h ****   return a + (b - a) * fade;
 1119              		.loc 1 98 3 discriminator 2 view .LVU339
 1120              	.LBE173:
 1121              	.LBE172:
 250:eurorack/clouds/dsp/pvoc/frame_transformation.cc ****     coefficients[i] = Crossfade(
 1122              		.loc 4 250 3 is_stmt 0 discriminator 2 view .LVU340
 1123 0042 0131     		adds	r1, r1, #1
 1124              	.LVL95:
 1125              	.LBB176:
 1126              	.LBB174:
 1127              		.loc 1 98 17 discriminator 2 view .LVU341
 1128 0044 93ED037A 		vldr.32	s14, [r3, #12]
 1129              	.LBE174:
 1130              	.LBE176:
 250:eurorack/clouds/dsp/pvoc/frame_transformation.cc ****     coefficients[i] = Crossfade(
 1131              		.loc 4 250 25 discriminator 2 view .LVU342
 1132 0048 0429     		cmp	r1, #4
 1133              	.LBB177:
 1134              	.LBB175:
 1135              		.loc 1 98 17 discriminator 2 view .LVU343
 1136 004a 37EE677A 		vsub.f32	s14, s14, s15
 1137              		.loc 1 98 24 discriminator 2 view .LVU344
 1138 004e E0EE077A 		vfma.f32	s15, s0, s14
 1139              	.LVL96:
 1140              		.loc 1 98 24 discriminator 2 view .LVU345
 1141              	.LBE175:
 1142              	.LBE177:
 251:eurorack/clouds/dsp/pvoc/frame_transformation.cc ****         kWarpPolynomials[amount_integral][i],
 1143              		.loc 4 251 21 discriminator 2 view .LVU346
 1144 0052 E0EC017A 		vstmia.32	r0!, {s15}
 250:eurorack/clouds/dsp/pvoc/frame_transformation.cc ****     coefficients[i] = Crossfade(
 1145              		.loc 4 250 3 is_stmt 1 discriminator 2 view .LVU347
 1146              	.LVL97:
 250:eurorack/clouds/dsp/pvoc/frame_transformation.cc ****     coefficients[i] = Crossfade(
 1147              		.loc 4 250 25 discriminator 2 view .LVU348
 1148 0056 F2D1     		bne	.L52
 1149              	.LBE178:
 253:eurorack/clouds/dsp/pvoc/frame_transformation.cc ****         kWarpPolynomials[amount_integral + 1][i],
 254:eurorack/clouds/dsp/pvoc/frame_transformation.cc ****         amount_fractional);
 255:eurorack/clouds/dsp/pvoc/frame_transformation.cc ****   }
 256:eurorack/clouds/dsp/pvoc/frame_transformation.cc ****   
 257:eurorack/clouds/dsp/pvoc/frame_transformation.cc ****   float a = coefficients[0];
 1150              		.loc 4 257 3 view .LVU349
 1151              		.loc 4 257 9 is_stmt 0 view .LVU350
 1152 0058 DDED00AA 		vldr.32	s21, [sp]
 1153              	.LVL98:
 258:eurorack/clouds/dsp/pvoc/frame_transformation.cc ****   float b = coefficients[1];
 1154              		.loc 4 258 3 is_stmt 1 view .LVU351
ARM GAS  /var/folders/9s/8rp0_f2s1n31qbztm3b5_fdh0000gn/T//cc5SCkU0.s 			page 52


 1155 005c 141D     		adds	r4, r2, #4
 1156              		.loc 4 258 9 is_stmt 0 view .LVU352
 1157 005e 9DED01AA 		vldr.32	s20, [sp, #4]
 1158              	.LVL99:
 259:eurorack/clouds/dsp/pvoc/frame_transformation.cc ****   float c = coefficients[2];
 1159              		.loc 4 259 3 is_stmt 1 view .LVU353
 1160              	.LBB179:
 260:eurorack/clouds/dsp/pvoc/frame_transformation.cc ****   float d = coefficients[3];
 261:eurorack/clouds/dsp/pvoc/frame_transformation.cc ****   
 262:eurorack/clouds/dsp/pvoc/frame_transformation.cc ****   for (int32_t i = 1.0f; i < size_; ++i) {
 1161              		.loc 4 262 16 is_stmt 0 view .LVU354
 1162 0062 0125     		movs	r5, #1
 1163              	.LBE179:
 259:eurorack/clouds/dsp/pvoc/frame_transformation.cc ****   float c = coefficients[2];
 1164              		.loc 4 259 9 view .LVU355
 1165 0064 DDED029A 		vldr.32	s19, [sp, #8]
 1166              	.LVL100:
 260:eurorack/clouds/dsp/pvoc/frame_transformation.cc ****   float d = coefficients[3];
 1167              		.loc 4 260 3 is_stmt 1 view .LVU356
 260:eurorack/clouds/dsp/pvoc/frame_transformation.cc ****   float d = coefficients[3];
 1168              		.loc 4 260 9 is_stmt 0 view .LVU357
 1169 0068 9DED039A 		vldr.32	s18, [sp, #12]
 1170              	.LVL101:
 1171              		.loc 4 262 3 is_stmt 1 view .LVU358
 245:eurorack/clouds/dsp/pvoc/frame_transformation.cc ****   
 1172              		.loc 4 245 9 is_stmt 0 view .LVU359
 1173 006c 9FED118A 		vldr.32	s16, .L56+4
 1174              	.LVL102:
 1175              	.L54:
 1176              	.LBB182:
 1177              		.loc 4 262 28 is_stmt 1 discriminator 3 view .LVU360
 1178 0070 AF42     		cmp	r7, r5
 1179 0072 18DD     		ble	.L51
 1180              	.LBB180:
 263:eurorack/clouds/dsp/pvoc/frame_transformation.cc ****     f += bin_width;
 1181              		.loc 4 263 5 discriminator 2 view .LVU361
 1182              		.loc 4 263 7 is_stmt 0 discriminator 2 view .LVU362
 1183 0074 38EE0B8A 		vadd.f32	s16, s16, s22
 1184              	.LVL103:
 264:eurorack/clouds/dsp/pvoc/frame_transformation.cc ****     float wf = (d + f * (c + f * (b + a * f))) * size_;
 1185              		.loc 4 264 5 is_stmt 1 discriminator 2 view .LVU363
 265:eurorack/clouds/dsp/pvoc/frame_transformation.cc ****     xf_polar[i] = Interpolate(source, wf, 1.0f);
 1186              		.loc 4 265 30 is_stmt 0 discriminator 2 view .LVU364
 1187 0078 3046     		mov	r0, r6
 264:eurorack/clouds/dsp/pvoc/frame_transformation.cc ****     float wf = (d + f * (c + f * (b + a * f))) * size_;
 1188              		.loc 4 264 37 discriminator 2 view .LVU365
 1189 007a B0EE4A7A 		vmov.f32	s14, s20
 1190              	.LBE180:
 262:eurorack/clouds/dsp/pvoc/frame_transformation.cc ****     f += bin_width;
 1191              		.loc 4 262 3 discriminator 2 view .LVU366
 1192 007e 0135     		adds	r5, r5, #1
 1193              	.LVL104:
 1194              	.LBB181:
 264:eurorack/clouds/dsp/pvoc/frame_transformation.cc ****     float wf = (d + f * (c + f * (b + a * f))) * size_;
 1195              		.loc 4 264 28 discriminator 2 view .LVU367
 1196 0080 F0EE697A 		vmov.f32	s15, s19
 264:eurorack/clouds/dsp/pvoc/frame_transformation.cc ****     float wf = (d + f * (c + f * (b + a * f))) * size_;
ARM GAS  /var/folders/9s/8rp0_f2s1n31qbztm3b5_fdh0000gn/T//cc5SCkU0.s 			page 53


 1197              		.loc 4 264 19 discriminator 2 view .LVU368
 1198 0084 B0EE490A 		vmov.f32	s0, s18
 264:eurorack/clouds/dsp/pvoc/frame_transformation.cc ****     float wf = (d + f * (c + f * (b + a * f))) * size_;
 1199              		.loc 4 264 37 discriminator 2 view .LVU369
 1200 0088 AAEE887A 		vfma.f32	s14, s21, s16
 1201              		.loc 4 265 30 discriminator 2 view .LVU370
 1202 008c F7EE000A 		vmov.f32	s1, #1.0e+0
 264:eurorack/clouds/dsp/pvoc/frame_transformation.cc ****     float wf = (d + f * (c + f * (b + a * f))) * size_;
 1203              		.loc 4 264 28 discriminator 2 view .LVU371
 1204 0090 E7EE087A 		vfma.f32	s15, s14, s16
 264:eurorack/clouds/dsp/pvoc/frame_transformation.cc ****     float wf = (d + f * (c + f * (b + a * f))) * size_;
 1205              		.loc 4 264 19 discriminator 2 view .LVU372
 1206 0094 A7EE880A 		vfma.f32	s0, s15, s16
 1207              	.LVL105:
 1208              		.loc 4 265 5 is_stmt 1 discriminator 2 view .LVU373
 1209              		.loc 4 265 30 is_stmt 0 discriminator 2 view .LVU374
 1210 0098 28EE800A 		vmul.f32	s0, s17, s0
 1211              	.LVL106:
 1212              		.loc 4 265 30 discriminator 2 view .LVU375
 1213 009c FFF7FEFF 		bl	_ZN6stmlib11InterpolateEPKfff
 1214              	.LVL107:
 1215              		.loc 4 265 17 discriminator 2 view .LVU376
 1216 00a0 A4EC010A 		vstmia.32	r4!, {s0}
 1217              	.LBE181:
 262:eurorack/clouds/dsp/pvoc/frame_transformation.cc ****     f += bin_width;
 1218              		.loc 4 262 3 is_stmt 1 discriminator 2 view .LVU377
 1219              	.LVL108:
 262:eurorack/clouds/dsp/pvoc/frame_transformation.cc ****     f += bin_width;
 1220              		.loc 4 262 3 is_stmt 0 discriminator 2 view .LVU378
 1221 00a4 E4E7     		b	.L54
 1222              	.LVL109:
 1223              	.L51:
 262:eurorack/clouds/dsp/pvoc/frame_transformation.cc ****     f += bin_width;
 1224              		.loc 4 262 3 discriminator 2 view .LVU379
 1225              	.LBE182:
 266:eurorack/clouds/dsp/pvoc/frame_transformation.cc ****   }
 267:eurorack/clouds/dsp/pvoc/frame_transformation.cc **** }
 1226              		.loc 4 267 1 view .LVU380
 1227 00a6 05B0     		add	sp, sp, #20
 1228              		.cfi_def_cfa_offset 52
 1229              		@ sp needed
 1230 00a8 BDEC088B 		vldm	sp!, {d8-d11}
 1231              		.cfi_restore 86
 1232              		.cfi_restore 87
 1233              		.cfi_restore 84
 1234              		.cfi_restore 85
 1235              		.cfi_restore 82
 1236              		.cfi_restore 83
 1237              		.cfi_restore 80
 1238              		.cfi_restore 81
 1239              		.cfi_def_cfa_offset 20
 1240              	.LVL110:
 1241              		.loc 4 267 1 view .LVU381
 1242 00ac F0BD     		pop	{r4, r5, r6, r7, pc}
 1243              	.LVL111:
 1244              	.L57:
 1245              		.loc 4 267 1 view .LVU382
ARM GAS  /var/folders/9s/8rp0_f2s1n31qbztm3b5_fdh0000gn/T//cc5SCkU0.s 			page 54


 1246 00ae 00BF     		.align	2
 1247              	.L56:
 1248 00b0 00000000 		.word	.LANCHOR0
 1249 00b4 00000000 		.word	0
 1250              		.cfi_endproc
