ARM GAS  /var/folders/9s/8rp0_f2s1n31qbztm3b5_fdh0000gn/T//cc7CgoqZ.s 			page 1


   1              		.cpu cortex-m7
   2              		.arch armv7e-m
   3              		.fpu fpv5-d16
   4              		.eabi_attribute 28, 1
   5              		.eabi_attribute 20, 1
   6              		.eabi_attribute 21, 1
   7              		.eabi_attribute 23, 3
   8              		.eabi_attribute 24, 1
   9              		.eabi_attribute 25, 1
  10              		.eabi_attribute 26, 1
  11              		.eabi_attribute 30, 4
  12              		.eabi_attribute 34, 1
  13              		.eabi_attribute 18, 4
  14              		.file	"grain_engine.cc"
  15              		.text
  16              	.Ltext0:
  17              		.cfi_sections	.debug_frame
  18              		.section	.text._ZN6plaits11GrainEngine5ResetEv,"ax",%progbits
  19              		.align	1
  20              		.global	_ZN6plaits11GrainEngine5ResetEv
  21              		.syntax unified
  22              		.thumb
  23              		.thumb_func
  25              	_ZN6plaits11GrainEngine5ResetEv:
  26              	.LVL0:
  27              	.LFB1610:
  28              		.file 1 "eurorack/plaits/dsp/engine/grain_engine.cc"
   1:eurorack/plaits/dsp/engine/grain_engine.cc **** // Copyright 2016 Emilie Gillet.
   2:eurorack/plaits/dsp/engine/grain_engine.cc **** //
   3:eurorack/plaits/dsp/engine/grain_engine.cc **** // Author: Emilie Gillet (emilie.o.gillet@gmail.com)
   4:eurorack/plaits/dsp/engine/grain_engine.cc **** //
   5:eurorack/plaits/dsp/engine/grain_engine.cc **** // Permission is hereby granted, free of charge, to any person obtaining a copy
   6:eurorack/plaits/dsp/engine/grain_engine.cc **** // of this software and associated documentation files (the "Software"), to deal
   7:eurorack/plaits/dsp/engine/grain_engine.cc **** // in the Software without restriction, including without limitation the rights
   8:eurorack/plaits/dsp/engine/grain_engine.cc **** // to use, copy, modify, merge, publish, distribute, sublicense, and/or sell
   9:eurorack/plaits/dsp/engine/grain_engine.cc **** // copies of the Software, and to permit persons to whom the Software is
  10:eurorack/plaits/dsp/engine/grain_engine.cc **** // furnished to do so, subject to the following conditions:
  11:eurorack/plaits/dsp/engine/grain_engine.cc **** // 
  12:eurorack/plaits/dsp/engine/grain_engine.cc **** // The above copyright notice and this permission notice shall be included in
  13:eurorack/plaits/dsp/engine/grain_engine.cc **** // all copies or substantial portions of the Software.
  14:eurorack/plaits/dsp/engine/grain_engine.cc **** // 
  15:eurorack/plaits/dsp/engine/grain_engine.cc **** // THE SOFTWARE IS PROVIDED "AS IS", WITHOUT WARRANTY OF ANY KIND, EXPRESS OR
  16:eurorack/plaits/dsp/engine/grain_engine.cc **** // IMPLIED, INCLUDING BUT NOT LIMITED TO THE WARRANTIES OF MERCHANTABILITY,
  17:eurorack/plaits/dsp/engine/grain_engine.cc **** // FITNESS FOR A PARTICULAR PURPOSE AND NONINFRINGEMENT. IN NO EVENT SHALL THE
  18:eurorack/plaits/dsp/engine/grain_engine.cc **** // AUTHORS OR COPYRIGHT HOLDERS BE LIABLE FOR ANY CLAIM, DAMAGES OR OTHER
  19:eurorack/plaits/dsp/engine/grain_engine.cc **** // LIABILITY, WHETHER IN AN ACTION OF CONTRACT, TORT OR OTHERWISE, ARISING FROM,
  20:eurorack/plaits/dsp/engine/grain_engine.cc **** // OUT OF OR IN CONNECTION WITH THE SOFTWARE OR THE USE OR OTHER DEALINGS IN
  21:eurorack/plaits/dsp/engine/grain_engine.cc **** // THE SOFTWARE.
  22:eurorack/plaits/dsp/engine/grain_engine.cc **** // 
  23:eurorack/plaits/dsp/engine/grain_engine.cc **** // See http://creativecommons.org/licenses/MIT/ for more information.
  24:eurorack/plaits/dsp/engine/grain_engine.cc **** //
  25:eurorack/plaits/dsp/engine/grain_engine.cc **** // -----------------------------------------------------------------------------
  26:eurorack/plaits/dsp/engine/grain_engine.cc **** //
  27:eurorack/plaits/dsp/engine/grain_engine.cc **** // Windowed sine segments.
  28:eurorack/plaits/dsp/engine/grain_engine.cc **** 
  29:eurorack/plaits/dsp/engine/grain_engine.cc **** #include <algorithm>
  30:eurorack/plaits/dsp/engine/grain_engine.cc **** 
ARM GAS  /var/folders/9s/8rp0_f2s1n31qbztm3b5_fdh0000gn/T//cc7CgoqZ.s 			page 2


  31:eurorack/plaits/dsp/engine/grain_engine.cc **** #include "plaits/dsp/engine/grain_engine.h"
  32:eurorack/plaits/dsp/engine/grain_engine.cc **** 
  33:eurorack/plaits/dsp/engine/grain_engine.cc **** namespace plaits {
  34:eurorack/plaits/dsp/engine/grain_engine.cc **** 
  35:eurorack/plaits/dsp/engine/grain_engine.cc **** using namespace std;
  36:eurorack/plaits/dsp/engine/grain_engine.cc **** using namespace stmlib;
  37:eurorack/plaits/dsp/engine/grain_engine.cc **** 
  38:eurorack/plaits/dsp/engine/grain_engine.cc **** void GrainEngine::Init(BufferAllocator* allocator) {
  39:eurorack/plaits/dsp/engine/grain_engine.cc ****   grainlet_[0].Init();
  40:eurorack/plaits/dsp/engine/grain_engine.cc ****   grainlet_[1].Init();
  41:eurorack/plaits/dsp/engine/grain_engine.cc ****   // vosim_oscillator_.Init();
  42:eurorack/plaits/dsp/engine/grain_engine.cc ****   z_oscillator_.Init();
  43:eurorack/plaits/dsp/engine/grain_engine.cc ****   dc_blocker_[0].Init();
  44:eurorack/plaits/dsp/engine/grain_engine.cc ****   dc_blocker_[1].Init();
  45:eurorack/plaits/dsp/engine/grain_engine.cc **** }
  46:eurorack/plaits/dsp/engine/grain_engine.cc **** 
  47:eurorack/plaits/dsp/engine/grain_engine.cc **** void GrainEngine::Reset() {
  29              		.loc 1 47 27 view -0
  30              		.cfi_startproc
  31              		@ args = 0, pretend = 0, frame = 0
  32              		@ frame_needed = 0, uses_anonymous_args = 0
  33              		@ link register save eliminated.
  48:eurorack/plaits/dsp/engine/grain_engine.cc ****   
  49:eurorack/plaits/dsp/engine/grain_engine.cc **** }
  34              		.loc 1 49 1 is_stmt 0 view .LVU1
  35 0000 7047     		bx	lr
  36              		.cfi_endproc
  37              	.LFE1610:
  39              		.section	.text._ZN6plaits11GrainEngine4InitEPN6stmlib15BufferAllocatorE,"ax",%progbits
  40              		.align	1
  41              		.global	_ZN6plaits11GrainEngine4InitEPN6stmlib15BufferAllocatorE
  42              		.syntax unified
  43              		.thumb
  44              		.thumb_func
  46              	_ZN6plaits11GrainEngine4InitEPN6stmlib15BufferAllocatorE:
  47              	.LVL1:
  48              	.LFB1609:
  38:eurorack/plaits/dsp/engine/grain_engine.cc ****   grainlet_[0].Init();
  49              		.loc 1 38 52 is_stmt 1 view -0
  50              		.cfi_startproc
  51              		@ args = 0, pretend = 0, frame = 0
  52              		@ frame_needed = 0, uses_anonymous_args = 0
  53              		@ link register save eliminated.
  39:eurorack/plaits/dsp/engine/grain_engine.cc ****   grainlet_[1].Init();
  54              		.loc 1 39 3 view .LVU3
  55              	.LBB128:
  56              	.LBI128:
  57              		.file 2 "eurorack/plaits/dsp/oscillator/grainlet_oscillator.h"
   1:eurorack/plaits/dsp/oscillator/grainlet_oscillator.h **** // Copyright 2016 Emilie Gillet.
   2:eurorack/plaits/dsp/oscillator/grainlet_oscillator.h **** //
   3:eurorack/plaits/dsp/oscillator/grainlet_oscillator.h **** // Author: Emilie Gillet (emilie.o.gillet@gmail.com)
   4:eurorack/plaits/dsp/oscillator/grainlet_oscillator.h **** //
   5:eurorack/plaits/dsp/oscillator/grainlet_oscillator.h **** // Permission is hereby granted, free of charge, to any person obtaining a copy
   6:eurorack/plaits/dsp/oscillator/grainlet_oscillator.h **** // of this software and associated documentation files (the "Software"), to deal
   7:eurorack/plaits/dsp/oscillator/grainlet_oscillator.h **** // in the Software without restriction, including without limitation the rights
   8:eurorack/plaits/dsp/oscillator/grainlet_oscillator.h **** // to use, copy, modify, merge, publish, distribute, sublicense, and/or sell
   9:eurorack/plaits/dsp/oscillator/grainlet_oscillator.h **** // copies of the Software, and to permit persons to whom the Software is
ARM GAS  /var/folders/9s/8rp0_f2s1n31qbztm3b5_fdh0000gn/T//cc7CgoqZ.s 			page 3


  10:eurorack/plaits/dsp/oscillator/grainlet_oscillator.h **** // furnished to do so, subject to the following conditions:
  11:eurorack/plaits/dsp/oscillator/grainlet_oscillator.h **** // 
  12:eurorack/plaits/dsp/oscillator/grainlet_oscillator.h **** // The above copyright notice and this permission notice shall be included in
  13:eurorack/plaits/dsp/oscillator/grainlet_oscillator.h **** // all copies or substantial portions of the Software.
  14:eurorack/plaits/dsp/oscillator/grainlet_oscillator.h **** // 
  15:eurorack/plaits/dsp/oscillator/grainlet_oscillator.h **** // THE SOFTWARE IS PROVIDED "AS IS", WITHOUT WARRANTY OF ANY KIND, EXPRESS OR
  16:eurorack/plaits/dsp/oscillator/grainlet_oscillator.h **** // IMPLIED, INCLUDING BUT NOT LIMITED TO THE WARRANTIES OF MERCHANTABILITY,
  17:eurorack/plaits/dsp/oscillator/grainlet_oscillator.h **** // FITNESS FOR A PARTICULAR PURPOSE AND NONINFRINGEMENT. IN NO EVENT SHALL THE
  18:eurorack/plaits/dsp/oscillator/grainlet_oscillator.h **** // AUTHORS OR COPYRIGHT HOLDERS BE LIABLE FOR ANY CLAIM, DAMAGES OR OTHER
  19:eurorack/plaits/dsp/oscillator/grainlet_oscillator.h **** // LIABILITY, WHETHER IN AN ACTION OF CONTRACT, TORT OR OTHERWISE, ARISING FROM,
  20:eurorack/plaits/dsp/oscillator/grainlet_oscillator.h **** // OUT OF OR IN CONNECTION WITH THE SOFTWARE OR THE USE OR OTHER DEALINGS IN
  21:eurorack/plaits/dsp/oscillator/grainlet_oscillator.h **** // THE SOFTWARE.
  22:eurorack/plaits/dsp/oscillator/grainlet_oscillator.h **** // 
  23:eurorack/plaits/dsp/oscillator/grainlet_oscillator.h **** // See http://creativecommons.org/licenses/MIT/ for more information.
  24:eurorack/plaits/dsp/oscillator/grainlet_oscillator.h **** //
  25:eurorack/plaits/dsp/oscillator/grainlet_oscillator.h **** // -----------------------------------------------------------------------------
  26:eurorack/plaits/dsp/oscillator/grainlet_oscillator.h **** //
  27:eurorack/plaits/dsp/oscillator/grainlet_oscillator.h **** // A phase-distortd single cycle sine * another continuously running sine,
  28:eurorack/plaits/dsp/oscillator/grainlet_oscillator.h **** // the whole thing synced to a main oscillator.
  29:eurorack/plaits/dsp/oscillator/grainlet_oscillator.h **** 
  30:eurorack/plaits/dsp/oscillator/grainlet_oscillator.h **** #ifndef PLAITS_DSP_OSCILLATOR_GRAINLET_OSCILLATOR_H_
  31:eurorack/plaits/dsp/oscillator/grainlet_oscillator.h **** #define PLAITS_DSP_OSCILLATOR_GRAINLET_OSCILLATOR_H_
  32:eurorack/plaits/dsp/oscillator/grainlet_oscillator.h **** 
  33:eurorack/plaits/dsp/oscillator/grainlet_oscillator.h **** #include "stmlib/dsp/dsp.h"
  34:eurorack/plaits/dsp/oscillator/grainlet_oscillator.h **** #include "stmlib/dsp/parameter_interpolator.h"
  35:eurorack/plaits/dsp/oscillator/grainlet_oscillator.h **** #include "stmlib/dsp/polyblep.h"
  36:eurorack/plaits/dsp/oscillator/grainlet_oscillator.h **** 
  37:eurorack/plaits/dsp/oscillator/grainlet_oscillator.h **** #include "plaits/dsp/oscillator/oscillator.h"
  38:eurorack/plaits/dsp/oscillator/grainlet_oscillator.h **** #include "plaits/resources.h"
  39:eurorack/plaits/dsp/oscillator/grainlet_oscillator.h **** 
  40:eurorack/plaits/dsp/oscillator/grainlet_oscillator.h **** namespace plaits {
  41:eurorack/plaits/dsp/oscillator/grainlet_oscillator.h **** 
  42:eurorack/plaits/dsp/oscillator/grainlet_oscillator.h **** class GrainletOscillator {
  43:eurorack/plaits/dsp/oscillator/grainlet_oscillator.h ****  public:
  44:eurorack/plaits/dsp/oscillator/grainlet_oscillator.h ****   GrainletOscillator() { }
  45:eurorack/plaits/dsp/oscillator/grainlet_oscillator.h ****   ~GrainletOscillator() { }
  46:eurorack/plaits/dsp/oscillator/grainlet_oscillator.h **** 
  47:eurorack/plaits/dsp/oscillator/grainlet_oscillator.h ****   void Init() {
  58              		.loc 2 47 8 view .LVU4
  59              	.LBB129:
  48:eurorack/plaits/dsp/oscillator/grainlet_oscillator.h ****     carrier_phase_ = 0.0f;
  60              		.loc 2 48 5 view .LVU5
  61              		.loc 2 48 20 is_stmt 0 view .LVU6
  62 0000 0023     		movs	r3, #0
  63              	.LBE129:
  64              	.LBE128:
  65              	.LBB131:
  66              	.LBB132:
  67              	.LBB133:
  68              		.file 3 "eurorack/stmlib/dsp/filter.h"
   1:eurorack/stmlib/dsp/filter.h **** // Copyright 2014 Emilie Gillet.
   2:eurorack/stmlib/dsp/filter.h **** //
   3:eurorack/stmlib/dsp/filter.h **** // Author: Emilie Gillet (emilie.o.gillet@gmail.com)
   4:eurorack/stmlib/dsp/filter.h **** //
   5:eurorack/stmlib/dsp/filter.h **** // Permission is hereby granted, free of charge, to any person obtaining a copy
   6:eurorack/stmlib/dsp/filter.h **** // of this software and associated documentation files (the "Software"), to deal
   7:eurorack/stmlib/dsp/filter.h **** // in the Software without restriction, including without limitation the rights
ARM GAS  /var/folders/9s/8rp0_f2s1n31qbztm3b5_fdh0000gn/T//cc7CgoqZ.s 			page 4


   8:eurorack/stmlib/dsp/filter.h **** // to use, copy, modify, merge, publish, distribute, sublicense, and/or sell
   9:eurorack/stmlib/dsp/filter.h **** // copies of the Software, and to permit persons to whom the Software is
  10:eurorack/stmlib/dsp/filter.h **** // furnished to do so, subject to the following conditions:
  11:eurorack/stmlib/dsp/filter.h **** // 
  12:eurorack/stmlib/dsp/filter.h **** // The above copyright notice and this permission notice shall be included in
  13:eurorack/stmlib/dsp/filter.h **** // all copies or substantial portions of the Software.
  14:eurorack/stmlib/dsp/filter.h **** // 
  15:eurorack/stmlib/dsp/filter.h **** // THE SOFTWARE IS PROVIDED "AS IS", WITHOUT WARRANTY OF ANY KIND, EXPRESS OR
  16:eurorack/stmlib/dsp/filter.h **** // IMPLIED, INCLUDING BUT NOT LIMITED TO THE WARRANTIES OF MERCHANTABILITY,
  17:eurorack/stmlib/dsp/filter.h **** // FITNESS FOR A PARTICULAR PURPOSE AND NONINFRINGEMENT. IN NO EVENT SHALL THE
  18:eurorack/stmlib/dsp/filter.h **** // AUTHORS OR COPYRIGHT HOLDERS BE LIABLE FOR ANY CLAIM, DAMAGES OR OTHER
  19:eurorack/stmlib/dsp/filter.h **** // LIABILITY, WHETHER IN AN ACTION OF CONTRACT, TORT OR OTHERWISE, ARISING FROM,
  20:eurorack/stmlib/dsp/filter.h **** // OUT OF OR IN CONNECTION WITH THE SOFTWARE OR THE USE OR OTHER DEALINGS IN
  21:eurorack/stmlib/dsp/filter.h **** // THE SOFTWARE.
  22:eurorack/stmlib/dsp/filter.h **** // 
  23:eurorack/stmlib/dsp/filter.h **** // See http://creativecommons.org/licenses/MIT/ for more information.
  24:eurorack/stmlib/dsp/filter.h **** //
  25:eurorack/stmlib/dsp/filter.h **** // -----------------------------------------------------------------------------
  26:eurorack/stmlib/dsp/filter.h **** //
  27:eurorack/stmlib/dsp/filter.h **** // Zero-delay-feedback filters (one pole and SVF).
  28:eurorack/stmlib/dsp/filter.h **** // Naive SVF.
  29:eurorack/stmlib/dsp/filter.h **** 
  30:eurorack/stmlib/dsp/filter.h **** #ifndef STMLIB_DSP_FILTER_H_
  31:eurorack/stmlib/dsp/filter.h **** #define STMLIB_DSP_FILTER_H_
  32:eurorack/stmlib/dsp/filter.h **** 
  33:eurorack/stmlib/dsp/filter.h **** #include "stmlib/stmlib.h"
  34:eurorack/stmlib/dsp/filter.h **** 
  35:eurorack/stmlib/dsp/filter.h **** #include <cmath>
  36:eurorack/stmlib/dsp/filter.h **** #include <algorithm>
  37:eurorack/stmlib/dsp/filter.h **** 
  38:eurorack/stmlib/dsp/filter.h **** namespace stmlib {
  39:eurorack/stmlib/dsp/filter.h **** 
  40:eurorack/stmlib/dsp/filter.h **** enum FilterMode {
  41:eurorack/stmlib/dsp/filter.h ****   FILTER_MODE_LOW_PASS,
  42:eurorack/stmlib/dsp/filter.h ****   FILTER_MODE_BAND_PASS,
  43:eurorack/stmlib/dsp/filter.h ****   FILTER_MODE_BAND_PASS_NORMALIZED,
  44:eurorack/stmlib/dsp/filter.h ****   FILTER_MODE_HIGH_PASS
  45:eurorack/stmlib/dsp/filter.h **** };
  46:eurorack/stmlib/dsp/filter.h **** 
  47:eurorack/stmlib/dsp/filter.h **** enum FrequencyApproximation {
  48:eurorack/stmlib/dsp/filter.h ****   FREQUENCY_EXACT,
  49:eurorack/stmlib/dsp/filter.h ****   FREQUENCY_ACCURATE,
  50:eurorack/stmlib/dsp/filter.h ****   FREQUENCY_FAST,
  51:eurorack/stmlib/dsp/filter.h ****   FREQUENCY_DIRTY
  52:eurorack/stmlib/dsp/filter.h **** };
  53:eurorack/stmlib/dsp/filter.h **** 
  54:eurorack/stmlib/dsp/filter.h **** #define M_PI_F float(M_PI)
  55:eurorack/stmlib/dsp/filter.h **** #define M_PI_POW_2 M_PI * M_PI
  56:eurorack/stmlib/dsp/filter.h **** #define M_PI_POW_3 M_PI_POW_2 * M_PI
  57:eurorack/stmlib/dsp/filter.h **** #define M_PI_POW_5 M_PI_POW_3 * M_PI_POW_2
  58:eurorack/stmlib/dsp/filter.h **** #define M_PI_POW_7 M_PI_POW_5 * M_PI_POW_2
  59:eurorack/stmlib/dsp/filter.h **** #define M_PI_POW_9 M_PI_POW_7 * M_PI_POW_2
  60:eurorack/stmlib/dsp/filter.h **** #define M_PI_POW_11 M_PI_POW_9 * M_PI_POW_2
  61:eurorack/stmlib/dsp/filter.h **** 
  62:eurorack/stmlib/dsp/filter.h **** class DCBlocker {
  63:eurorack/stmlib/dsp/filter.h ****  public:
  64:eurorack/stmlib/dsp/filter.h ****   DCBlocker() { }
ARM GAS  /var/folders/9s/8rp0_f2s1n31qbztm3b5_fdh0000gn/T//cc7CgoqZ.s 			page 5


  65:eurorack/stmlib/dsp/filter.h ****   ~DCBlocker() { }
  66:eurorack/stmlib/dsp/filter.h ****   
  67:eurorack/stmlib/dsp/filter.h ****   void Init(float pole) {
  68:eurorack/stmlib/dsp/filter.h ****     x_ = 0.0f;
  69:eurorack/stmlib/dsp/filter.h ****     y_ = 0.0f;
  70:eurorack/stmlib/dsp/filter.h ****     pole_ = pole;
  71:eurorack/stmlib/dsp/filter.h ****   }
  72:eurorack/stmlib/dsp/filter.h ****   
  73:eurorack/stmlib/dsp/filter.h ****   inline void Process(float* in_out, size_t size) {
  74:eurorack/stmlib/dsp/filter.h ****     float x = x_;
  75:eurorack/stmlib/dsp/filter.h ****     float y = y_;
  76:eurorack/stmlib/dsp/filter.h ****     const float pole = pole_;
  77:eurorack/stmlib/dsp/filter.h ****     while (size--) {
  78:eurorack/stmlib/dsp/filter.h ****       float old_x = x;
  79:eurorack/stmlib/dsp/filter.h ****       x = *in_out;
  80:eurorack/stmlib/dsp/filter.h ****       *in_out++ = y = y * pole + x - old_x;
  81:eurorack/stmlib/dsp/filter.h ****     }
  82:eurorack/stmlib/dsp/filter.h ****     x_ = x;
  83:eurorack/stmlib/dsp/filter.h ****     y_ = y;
  84:eurorack/stmlib/dsp/filter.h ****   }
  85:eurorack/stmlib/dsp/filter.h ****   
  86:eurorack/stmlib/dsp/filter.h ****  private:
  87:eurorack/stmlib/dsp/filter.h ****   float pole_;
  88:eurorack/stmlib/dsp/filter.h ****   float x_;
  89:eurorack/stmlib/dsp/filter.h ****   float y_;
  90:eurorack/stmlib/dsp/filter.h **** };
  91:eurorack/stmlib/dsp/filter.h **** 
  92:eurorack/stmlib/dsp/filter.h **** class OnePole {
  93:eurorack/stmlib/dsp/filter.h ****  public:
  94:eurorack/stmlib/dsp/filter.h ****   OnePole() { }
  95:eurorack/stmlib/dsp/filter.h ****   ~OnePole() { }
  96:eurorack/stmlib/dsp/filter.h ****   
  97:eurorack/stmlib/dsp/filter.h ****   void Init() {
  98:eurorack/stmlib/dsp/filter.h ****     set_f<FREQUENCY_DIRTY>(0.01f);
  99:eurorack/stmlib/dsp/filter.h ****     Reset();
 100:eurorack/stmlib/dsp/filter.h ****   }
 101:eurorack/stmlib/dsp/filter.h ****   
 102:eurorack/stmlib/dsp/filter.h ****   void Reset() {
 103:eurorack/stmlib/dsp/filter.h ****     state_ = 0.0f;
 104:eurorack/stmlib/dsp/filter.h ****   }
 105:eurorack/stmlib/dsp/filter.h ****   
 106:eurorack/stmlib/dsp/filter.h ****   template<FrequencyApproximation approximation>
 107:eurorack/stmlib/dsp/filter.h ****   static inline float tan(float f) {
 108:eurorack/stmlib/dsp/filter.h ****     if (approximation == FREQUENCY_EXACT) {
 109:eurorack/stmlib/dsp/filter.h ****       // Clip coefficient to about 100.
 110:eurorack/stmlib/dsp/filter.h ****       f = f < 0.497f ? f : 0.497f;
 111:eurorack/stmlib/dsp/filter.h ****       return tanf(M_PI_F * f);
 112:eurorack/stmlib/dsp/filter.h ****     } else if (approximation == FREQUENCY_DIRTY) {
 113:eurorack/stmlib/dsp/filter.h ****       // Optimized for frequencies below 8kHz.
 114:eurorack/stmlib/dsp/filter.h ****       const float a = 3.736e-01f * M_PI_POW_3;
 115:eurorack/stmlib/dsp/filter.h ****       return f * (M_PI_F + a * f * f);
 116:eurorack/stmlib/dsp/filter.h ****     } else if (approximation == FREQUENCY_FAST) {
 117:eurorack/stmlib/dsp/filter.h ****       // The usual tangent approximation uses 3.1755e-01 and 2.033e-01, but
 118:eurorack/stmlib/dsp/filter.h ****       // the coefficients used here are optimized to minimize error for the
 119:eurorack/stmlib/dsp/filter.h ****       // 16Hz to 16kHz range, with a sample rate of 48kHz.
 120:eurorack/stmlib/dsp/filter.h ****       const float a = 3.260e-01f * M_PI_POW_3;
 121:eurorack/stmlib/dsp/filter.h ****       const float b = 1.823e-01f * M_PI_POW_5;
ARM GAS  /var/folders/9s/8rp0_f2s1n31qbztm3b5_fdh0000gn/T//cc7CgoqZ.s 			page 6


 122:eurorack/stmlib/dsp/filter.h ****       float f2 = f * f;
 123:eurorack/stmlib/dsp/filter.h ****       return f * (M_PI_F + f2 * (a + b * f2));
 124:eurorack/stmlib/dsp/filter.h ****     } else if (approximation == FREQUENCY_ACCURATE) {
 125:eurorack/stmlib/dsp/filter.h ****       // These coefficients don't need to be tweaked for the audio range.
 126:eurorack/stmlib/dsp/filter.h ****       const float a = 3.333314036e-01f * M_PI_POW_3;
 127:eurorack/stmlib/dsp/filter.h ****       const float b = 1.333923995e-01f * M_PI_POW_5;
 128:eurorack/stmlib/dsp/filter.h ****       const float c = 5.33740603e-02f * M_PI_POW_7;
 129:eurorack/stmlib/dsp/filter.h ****       const float d = 2.900525e-03f * M_PI_POW_9;
 130:eurorack/stmlib/dsp/filter.h ****       const float e = 9.5168091e-03f * M_PI_POW_11;
 131:eurorack/stmlib/dsp/filter.h ****       float f2 = f * f;
 132:eurorack/stmlib/dsp/filter.h ****       return f * (M_PI_F + f2 * (a + f2 * (b + f2 * (c + f2 * (d + f2 * e)))));
 133:eurorack/stmlib/dsp/filter.h ****     }
 134:eurorack/stmlib/dsp/filter.h ****   }
 135:eurorack/stmlib/dsp/filter.h ****   
 136:eurorack/stmlib/dsp/filter.h ****   // Set frequency and resonance from true units. Various approximations
 137:eurorack/stmlib/dsp/filter.h ****   // are available to avoid the cost of tanf.
 138:eurorack/stmlib/dsp/filter.h ****   template<FrequencyApproximation approximation>
 139:eurorack/stmlib/dsp/filter.h ****   inline void set_f(float f) {
 140:eurorack/stmlib/dsp/filter.h ****     g_ = tan<approximation>(f);
  69              		.loc 3 140 8 view .LVU7
  70 0002 0F49     		ldr	r1, .L3
  71              	.LVL2:
 141:eurorack/stmlib/dsp/filter.h ****     gi_ = 1.0f / (1.0f + g_);
  72              		.loc 3 141 9 view .LVU8
  73 0004 0F4A     		ldr	r2, .L3+4
  74              	.LBE133:
  75              	.LBE132:
  76              	.LBE131:
  77              	.LBB138:
  78              	.LBB130:
  79              		.loc 2 48 20 view .LVU9
  80 0006 0361     		str	r3, [r0, #16]	@ float
  49:eurorack/plaits/dsp/oscillator/grainlet_oscillator.h ****     formant_phase_ = 0.0f;
  81              		.loc 2 49 5 is_stmt 1 view .LVU10
  82              		.loc 2 49 20 is_stmt 0 view .LVU11
  83 0008 4361     		str	r3, [r0, #20]	@ float
  50:eurorack/plaits/dsp/oscillator/grainlet_oscillator.h ****     next_sample_ = 0.0f;
  84              		.loc 2 50 5 is_stmt 1 view .LVU12
  85              		.loc 2 50 18 is_stmt 0 view .LVU13
  86 000a 8361     		str	r3, [r0, #24]	@ float
  51:eurorack/plaits/dsp/oscillator/grainlet_oscillator.h ****   
  52:eurorack/plaits/dsp/oscillator/grainlet_oscillator.h ****     carrier_frequency_ = 0.0f;
  87              		.loc 2 52 5 is_stmt 1 view .LVU14
  88              		.loc 2 52 24 is_stmt 0 view .LVU15
  89 000c C361     		str	r3, [r0, #28]	@ float
  53:eurorack/plaits/dsp/oscillator/grainlet_oscillator.h ****     formant_frequency_ = 0.0f;
  90              		.loc 2 53 5 is_stmt 1 view .LVU16
  91              		.loc 2 53 24 is_stmt 0 view .LVU17
  92 000e 0362     		str	r3, [r0, #32]	@ float
  54:eurorack/plaits/dsp/oscillator/grainlet_oscillator.h ****     carrier_shape_ = 0.0f;
  93              		.loc 2 54 5 is_stmt 1 view .LVU18
  94              		.loc 2 54 20 is_stmt 0 view .LVU19
  95 0010 4362     		str	r3, [r0, #36]	@ float
  55:eurorack/plaits/dsp/oscillator/grainlet_oscillator.h ****     carrier_bleed_ = 0.0f;
  96              		.loc 2 55 5 is_stmt 1 view .LVU20
  97              		.loc 2 55 20 is_stmt 0 view .LVU21
  98 0012 8362     		str	r3, [r0, #40]	@ float
ARM GAS  /var/folders/9s/8rp0_f2s1n31qbztm3b5_fdh0000gn/T//cc7CgoqZ.s 			page 7


  99              	.LVL3:
 100              		.loc 2 55 20 view .LVU22
 101              	.LBE130:
 102              	.LBE138:
  40:eurorack/plaits/dsp/engine/grain_engine.cc ****   // vosim_oscillator_.Init();
 103              		.loc 1 40 3 is_stmt 1 view .LVU23
 104              	.LBB139:
 105              	.LBI139:
  47:eurorack/plaits/dsp/oscillator/grainlet_oscillator.h ****     carrier_phase_ = 0.0f;
 106              		.loc 2 47 8 view .LVU24
 107              	.LBB140:
  48:eurorack/plaits/dsp/oscillator/grainlet_oscillator.h ****     formant_phase_ = 0.0f;
 108              		.loc 2 48 5 view .LVU25
  48:eurorack/plaits/dsp/oscillator/grainlet_oscillator.h ****     formant_phase_ = 0.0f;
 109              		.loc 2 48 20 is_stmt 0 view .LVU26
 110 0014 C362     		str	r3, [r0, #44]	@ float
  49:eurorack/plaits/dsp/oscillator/grainlet_oscillator.h ****     next_sample_ = 0.0f;
 111              		.loc 2 49 5 is_stmt 1 view .LVU27
  49:eurorack/plaits/dsp/oscillator/grainlet_oscillator.h ****     next_sample_ = 0.0f;
 112              		.loc 2 49 20 is_stmt 0 view .LVU28
 113 0016 0363     		str	r3, [r0, #48]	@ float
  50:eurorack/plaits/dsp/oscillator/grainlet_oscillator.h ****   
 114              		.loc 2 50 5 is_stmt 1 view .LVU29
  50:eurorack/plaits/dsp/oscillator/grainlet_oscillator.h ****   
 115              		.loc 2 50 18 is_stmt 0 view .LVU30
 116 0018 4363     		str	r3, [r0, #52]	@ float
  52:eurorack/plaits/dsp/oscillator/grainlet_oscillator.h ****     formant_frequency_ = 0.0f;
 117              		.loc 2 52 5 is_stmt 1 view .LVU31
  52:eurorack/plaits/dsp/oscillator/grainlet_oscillator.h ****     formant_frequency_ = 0.0f;
 118              		.loc 2 52 24 is_stmt 0 view .LVU32
 119 001a 8363     		str	r3, [r0, #56]	@ float
  53:eurorack/plaits/dsp/oscillator/grainlet_oscillator.h ****     carrier_shape_ = 0.0f;
 120              		.loc 2 53 5 is_stmt 1 view .LVU33
  53:eurorack/plaits/dsp/oscillator/grainlet_oscillator.h ****     carrier_shape_ = 0.0f;
 121              		.loc 2 53 24 is_stmt 0 view .LVU34
 122 001c C363     		str	r3, [r0, #60]	@ float
  54:eurorack/plaits/dsp/oscillator/grainlet_oscillator.h ****     carrier_bleed_ = 0.0f;
 123              		.loc 2 54 5 is_stmt 1 view .LVU35
  54:eurorack/plaits/dsp/oscillator/grainlet_oscillator.h ****     carrier_bleed_ = 0.0f;
 124              		.loc 2 54 20 is_stmt 0 view .LVU36
 125 001e 0364     		str	r3, [r0, #64]	@ float
 126              		.loc 2 55 5 is_stmt 1 view .LVU37
 127              		.loc 2 55 20 is_stmt 0 view .LVU38
 128 0020 4364     		str	r3, [r0, #68]	@ float
 129              	.LVL4:
 130              		.loc 2 55 20 view .LVU39
 131              	.LBE140:
 132              	.LBE139:
  42:eurorack/plaits/dsp/engine/grain_engine.cc ****   dc_blocker_[0].Init();
 133              		.loc 1 42 3 is_stmt 1 view .LVU40
 134              	.LBB141:
 135              	.LBI141:
 136              		.file 4 "eurorack/plaits/dsp/oscillator/z_oscillator.h"
   1:eurorack/plaits/dsp/oscillator/z_oscillator.h **** // Copyright 2016 Emilie Gillet.
   2:eurorack/plaits/dsp/oscillator/z_oscillator.h **** //
   3:eurorack/plaits/dsp/oscillator/z_oscillator.h **** // Author: Emilie Gillet (emilie.o.gillet@gmail.com)
   4:eurorack/plaits/dsp/oscillator/z_oscillator.h **** //
ARM GAS  /var/folders/9s/8rp0_f2s1n31qbztm3b5_fdh0000gn/T//cc7CgoqZ.s 			page 8


   5:eurorack/plaits/dsp/oscillator/z_oscillator.h **** // Permission is hereby granted, free of charge, to any person obtaining a copy
   6:eurorack/plaits/dsp/oscillator/z_oscillator.h **** // of this software and associated documentation files (the "Software"), to deal
   7:eurorack/plaits/dsp/oscillator/z_oscillator.h **** // in the Software without restriction, including without limitation the rights
   8:eurorack/plaits/dsp/oscillator/z_oscillator.h **** // to use, copy, modify, merge, publish, distribute, sublicense, and/or sell
   9:eurorack/plaits/dsp/oscillator/z_oscillator.h **** // copies of the Software, and to permit persons to whom the Software is
  10:eurorack/plaits/dsp/oscillator/z_oscillator.h **** // furnished to do so, subject to the following conditions:
  11:eurorack/plaits/dsp/oscillator/z_oscillator.h **** // 
  12:eurorack/plaits/dsp/oscillator/z_oscillator.h **** // The above copyright notice and this permission notice shall be included in
  13:eurorack/plaits/dsp/oscillator/z_oscillator.h **** // all copies or substantial portions of the Software.
  14:eurorack/plaits/dsp/oscillator/z_oscillator.h **** // 
  15:eurorack/plaits/dsp/oscillator/z_oscillator.h **** // THE SOFTWARE IS PROVIDED "AS IS", WITHOUT WARRANTY OF ANY KIND, EXPRESS OR
  16:eurorack/plaits/dsp/oscillator/z_oscillator.h **** // IMPLIED, INCLUDING BUT NOT LIMITED TO THE WARRANTIES OF MERCHANTABILITY,
  17:eurorack/plaits/dsp/oscillator/z_oscillator.h **** // FITNESS FOR A PARTICULAR PURPOSE AND NONINFRINGEMENT. IN NO EVENT SHALL THE
  18:eurorack/plaits/dsp/oscillator/z_oscillator.h **** // AUTHORS OR COPYRIGHT HOLDERS BE LIABLE FOR ANY CLAIM, DAMAGES OR OTHER
  19:eurorack/plaits/dsp/oscillator/z_oscillator.h **** // LIABILITY, WHETHER IN AN ACTION OF CONTRACT, TORT OR OTHERWISE, ARISING FROM,
  20:eurorack/plaits/dsp/oscillator/z_oscillator.h **** // OUT OF OR IN CONNECTION WITH THE SOFTWARE OR THE USE OR OTHER DEALINGS IN
  21:eurorack/plaits/dsp/oscillator/z_oscillator.h **** // THE SOFTWARE.
  22:eurorack/plaits/dsp/oscillator/z_oscillator.h **** // 
  23:eurorack/plaits/dsp/oscillator/z_oscillator.h **** // See http://creativecommons.org/licenses/MIT/ for more information.
  24:eurorack/plaits/dsp/oscillator/z_oscillator.h **** //
  25:eurorack/plaits/dsp/oscillator/z_oscillator.h **** // -----------------------------------------------------------------------------
  26:eurorack/plaits/dsp/oscillator/z_oscillator.h **** //
  27:eurorack/plaits/dsp/oscillator/z_oscillator.h **** // Sinewave multiplied by and sync'ed to a carrier.
  28:eurorack/plaits/dsp/oscillator/z_oscillator.h **** 
  29:eurorack/plaits/dsp/oscillator/z_oscillator.h **** #ifndef PLAITS_DSP_OSCILLATOR_Z_OSCILLATOR_H_
  30:eurorack/plaits/dsp/oscillator/z_oscillator.h **** #define PLAITS_DSP_OSCILLATOR_Z_OSCILLATOR_H_
  31:eurorack/plaits/dsp/oscillator/z_oscillator.h **** 
  32:eurorack/plaits/dsp/oscillator/z_oscillator.h **** #include <algorithm>
  33:eurorack/plaits/dsp/oscillator/z_oscillator.h **** 
  34:eurorack/plaits/dsp/oscillator/z_oscillator.h **** #include "stmlib/dsp/dsp.h"
  35:eurorack/plaits/dsp/oscillator/z_oscillator.h **** #include "stmlib/dsp/parameter_interpolator.h"
  36:eurorack/plaits/dsp/oscillator/z_oscillator.h **** #include "stmlib/dsp/polyblep.h"
  37:eurorack/plaits/dsp/oscillator/z_oscillator.h **** 
  38:eurorack/plaits/dsp/oscillator/z_oscillator.h **** #include "plaits/resources.h"
  39:eurorack/plaits/dsp/oscillator/z_oscillator.h **** 
  40:eurorack/plaits/dsp/oscillator/z_oscillator.h **** namespace plaits {
  41:eurorack/plaits/dsp/oscillator/z_oscillator.h **** 
  42:eurorack/plaits/dsp/oscillator/z_oscillator.h **** class ZOscillator {
  43:eurorack/plaits/dsp/oscillator/z_oscillator.h ****  public:
  44:eurorack/plaits/dsp/oscillator/z_oscillator.h ****   ZOscillator() { }
  45:eurorack/plaits/dsp/oscillator/z_oscillator.h ****   ~ZOscillator() { }
  46:eurorack/plaits/dsp/oscillator/z_oscillator.h **** 
  47:eurorack/plaits/dsp/oscillator/z_oscillator.h ****   void Init() {
 137              		.loc 4 47 8 view .LVU41
 138              	.LBB142:
  48:eurorack/plaits/dsp/oscillator/z_oscillator.h ****     carrier_phase_ = 0.0f;
 139              		.loc 4 48 5 view .LVU42
 140              		.loc 4 48 20 is_stmt 0 view .LVU43
 141 0022 8364     		str	r3, [r0, #72]	@ float
  49:eurorack/plaits/dsp/oscillator/z_oscillator.h ****     discontinuity_phase_ = 0.0f;
 142              		.loc 4 49 5 is_stmt 1 view .LVU44
 143              		.loc 4 49 26 is_stmt 0 view .LVU45
 144 0024 C364     		str	r3, [r0, #76]	@ float
  50:eurorack/plaits/dsp/oscillator/z_oscillator.h ****     formant_phase_ = 0.0f;
 145              		.loc 4 50 5 is_stmt 1 view .LVU46
 146              		.loc 4 50 20 is_stmt 0 view .LVU47
 147 0026 0365     		str	r3, [r0, #80]	@ float
ARM GAS  /var/folders/9s/8rp0_f2s1n31qbztm3b5_fdh0000gn/T//cc7CgoqZ.s 			page 9


  51:eurorack/plaits/dsp/oscillator/z_oscillator.h ****     next_sample_ = 0.0f;
 148              		.loc 4 51 5 is_stmt 1 view .LVU48
 149              		.loc 4 51 18 is_stmt 0 view .LVU49
 150 0028 4365     		str	r3, [r0, #84]	@ float
  52:eurorack/plaits/dsp/oscillator/z_oscillator.h ****   
  53:eurorack/plaits/dsp/oscillator/z_oscillator.h ****     carrier_frequency_ = 0.0f;
 151              		.loc 4 53 5 is_stmt 1 view .LVU50
 152              		.loc 4 53 24 is_stmt 0 view .LVU51
 153 002a 8365     		str	r3, [r0, #88]	@ float
  54:eurorack/plaits/dsp/oscillator/z_oscillator.h ****     formant_frequency_ = 0.0f;
 154              		.loc 4 54 5 is_stmt 1 view .LVU52
 155              		.loc 4 54 24 is_stmt 0 view .LVU53
 156 002c C365     		str	r3, [r0, #92]	@ float
  55:eurorack/plaits/dsp/oscillator/z_oscillator.h ****     carrier_shape_ = 0.0f;
 157              		.loc 4 55 5 is_stmt 1 view .LVU54
 158              		.loc 4 55 20 is_stmt 0 view .LVU55
 159 002e 0366     		str	r3, [r0, #96]	@ float
  56:eurorack/plaits/dsp/oscillator/z_oscillator.h ****     mode_ = 0.0f;
 160              		.loc 4 56 5 is_stmt 1 view .LVU56
 161              		.loc 4 56 11 is_stmt 0 view .LVU57
 162 0030 4366     		str	r3, [r0, #100]	@ float
 163              	.LVL5:
 164              		.loc 4 56 11 view .LVU58
 165              	.LBE142:
 166              	.LBE141:
  43:eurorack/plaits/dsp/engine/grain_engine.cc ****   dc_blocker_[1].Init();
 167              		.loc 1 43 3 is_stmt 1 view .LVU59
 168              	.LBB143:
 169              	.LBI131:
  97:eurorack/stmlib/dsp/filter.h ****     set_f<FREQUENCY_DIRTY>(0.01f);
 170              		.loc 3 97 8 view .LVU60
 171              	.LBE143:
  98:eurorack/stmlib/dsp/filter.h ****     Reset();
 172              		.loc 3 98 5 view .LVU61
 173              	.LBB144:
 174              	.LBB135:
 175              	.LBI132:
 139:eurorack/stmlib/dsp/filter.h ****     g_ = tan<approximation>(f);
 176              		.loc 3 139 15 view .LVU62
 177              	.LBB134:
 140:eurorack/stmlib/dsp/filter.h ****     gi_ = 1.0f / (1.0f + g_);
 178              		.loc 3 140 8 is_stmt 0 view .LVU63
 179 0032 8166     		str	r1, [r0, #104]	@ float
 180              		.loc 3 141 9 view .LVU64
 181 0034 C266     		str	r2, [r0, #108]	@ float
 182              	.LVL6:
 183              		.loc 3 141 9 view .LVU65
 184              	.LBE134:
 185              	.LBE135:
 186              	.LBE144:
  99:eurorack/stmlib/dsp/filter.h ****   }
 187              		.loc 3 99 5 is_stmt 1 view .LVU66
 188              	.LBB145:
 189              	.LBB136:
 190              	.LBI136:
 102:eurorack/stmlib/dsp/filter.h ****     state_ = 0.0f;
 191              		.loc 3 102 8 view .LVU67
ARM GAS  /var/folders/9s/8rp0_f2s1n31qbztm3b5_fdh0000gn/T//cc7CgoqZ.s 			page 10


 192              	.LBB137:
 103:eurorack/stmlib/dsp/filter.h ****   }
 193              		.loc 3 103 5 view .LVU68
 103:eurorack/stmlib/dsp/filter.h ****   }
 194              		.loc 3 103 12 is_stmt 0 view .LVU69
 195 0036 0367     		str	r3, [r0, #112]	@ float
 196              	.LVL7:
 103:eurorack/stmlib/dsp/filter.h ****   }
 197              		.loc 3 103 12 view .LVU70
 198              	.LBE137:
 199              	.LBE136:
 200              	.LBE145:
  44:eurorack/plaits/dsp/engine/grain_engine.cc **** }
 201              		.loc 1 44 3 is_stmt 1 view .LVU71
 202              	.LBB146:
 203              	.LBI146:
  97:eurorack/stmlib/dsp/filter.h ****     set_f<FREQUENCY_DIRTY>(0.01f);
 204              		.loc 3 97 8 view .LVU72
 205              	.LBE146:
  98:eurorack/stmlib/dsp/filter.h ****     Reset();
 206              		.loc 3 98 5 view .LVU73
 207              	.LBB151:
 208              	.LBB147:
 209              	.LBI147:
 139:eurorack/stmlib/dsp/filter.h ****     g_ = tan<approximation>(f);
 210              		.loc 3 139 15 view .LVU74
 211              	.LBB148:
 140:eurorack/stmlib/dsp/filter.h ****     gi_ = 1.0f / (1.0f + g_);
 212              		.loc 3 140 8 is_stmt 0 view .LVU75
 213 0038 4167     		str	r1, [r0, #116]	@ float
 214              		.loc 3 141 9 view .LVU76
 215 003a 8267     		str	r2, [r0, #120]	@ float
 216              	.LVL8:
 217              		.loc 3 141 9 view .LVU77
 218              	.LBE148:
 219              	.LBE147:
 220              	.LBE151:
  99:eurorack/stmlib/dsp/filter.h ****   }
 221              		.loc 3 99 5 is_stmt 1 view .LVU78
 222              	.LBB152:
 223              	.LBB149:
 224              	.LBI149:
 102:eurorack/stmlib/dsp/filter.h ****     state_ = 0.0f;
 225              		.loc 3 102 8 view .LVU79
 226              	.LBB150:
 103:eurorack/stmlib/dsp/filter.h ****   }
 227              		.loc 3 103 5 view .LVU80
 103:eurorack/stmlib/dsp/filter.h ****   }
 228              		.loc 3 103 12 is_stmt 0 view .LVU81
 229 003c C367     		str	r3, [r0, #124]	@ float
 230              	.LVL9:
 103:eurorack/stmlib/dsp/filter.h ****   }
 231              		.loc 3 103 12 view .LVU82
 232              	.LBE150:
 233              	.LBE149:
 234              	.LBE152:
  45:eurorack/plaits/dsp/engine/grain_engine.cc **** 
ARM GAS  /var/folders/9s/8rp0_f2s1n31qbztm3b5_fdh0000gn/T//cc7CgoqZ.s 			page 11


 235              		.loc 1 45 1 view .LVU83
 236 003e 7047     		bx	lr
 237              	.L4:
 238              		.align	2
 239              	.L3:
 240 0040 22BA003D 		.word	1023457826
 241 0044 2033783F 		.word	1064842016
 242              		.cfi_endproc
 243              	.LFE1609:
 245              		.section	.text._ZN6stmlib15InterpolateWrapEPKfff,"axG",%progbits,_ZN6stmlib15InterpolateWrapEPKfff
 246              		.align	1
 247              		.weak	_ZN6stmlib15InterpolateWrapEPKfff
 248              		.syntax unified
 249              		.thumb
 250              		.thumb_func
 252              	_ZN6stmlib15InterpolateWrapEPKfff:
 253              	.LVL10:
 254              	.LFB1484:
 255              		.file 5 "eurorack/stmlib/dsp/dsp.h"
   1:eurorack/stmlib/dsp/dsp.h **** // Copyright 2012 Emilie Gillet.
   2:eurorack/stmlib/dsp/dsp.h **** //
   3:eurorack/stmlib/dsp/dsp.h **** // Author: Emilie Gillet (emilie.o.gillet@gmail.com)
   4:eurorack/stmlib/dsp/dsp.h **** //
   5:eurorack/stmlib/dsp/dsp.h **** // Permission is hereby granted, free of charge, to any person obtaining a copy
   6:eurorack/stmlib/dsp/dsp.h **** // of this software and associated documentation files (the "Software"), to deal
   7:eurorack/stmlib/dsp/dsp.h **** // in the Software without restriction, including without limitation the rights
   8:eurorack/stmlib/dsp/dsp.h **** // to use, copy, modify, merge, publish, distribute, sublicense, and/or sell
   9:eurorack/stmlib/dsp/dsp.h **** // copies of the Software, and to permit persons to whom the Software is
  10:eurorack/stmlib/dsp/dsp.h **** // furnished to do so, subject to the following conditions:
  11:eurorack/stmlib/dsp/dsp.h **** // 
  12:eurorack/stmlib/dsp/dsp.h **** // The above copyright notice and this permission notice shall be included in
  13:eurorack/stmlib/dsp/dsp.h **** // all copies or substantial portions of the Software.
  14:eurorack/stmlib/dsp/dsp.h **** // 
  15:eurorack/stmlib/dsp/dsp.h **** // THE SOFTWARE IS PROVIDED "AS IS", WITHOUT WARRANTY OF ANY KIND, EXPRESS OR
  16:eurorack/stmlib/dsp/dsp.h **** // IMPLIED, INCLUDING BUT NOT LIMITED TO THE WARRANTIES OF MERCHANTABILITY,
  17:eurorack/stmlib/dsp/dsp.h **** // FITNESS FOR A PARTICULAR PURPOSE AND NONINFRINGEMENT. IN NO EVENT SHALL THE
  18:eurorack/stmlib/dsp/dsp.h **** // AUTHORS OR COPYRIGHT HOLDERS BE LIABLE FOR ANY CLAIM, DAMAGES OR OTHER
  19:eurorack/stmlib/dsp/dsp.h **** // LIABILITY, WHETHER IN AN ACTION OF CONTRACT, TORT OR OTHERWISE, ARISING FROM,
  20:eurorack/stmlib/dsp/dsp.h **** // OUT OF OR IN CONNECTION WITH THE SOFTWARE OR THE USE OR OTHER DEALINGS IN
  21:eurorack/stmlib/dsp/dsp.h **** // THE SOFTWARE.
  22:eurorack/stmlib/dsp/dsp.h **** // 
  23:eurorack/stmlib/dsp/dsp.h **** // See http://creativecommons.org/licenses/MIT/ for more information.
  24:eurorack/stmlib/dsp/dsp.h **** //
  25:eurorack/stmlib/dsp/dsp.h **** // -----------------------------------------------------------------------------
  26:eurorack/stmlib/dsp/dsp.h **** //
  27:eurorack/stmlib/dsp/dsp.h **** // DSP utility routines.
  28:eurorack/stmlib/dsp/dsp.h **** 
  29:eurorack/stmlib/dsp/dsp.h **** #ifndef STMLIB_UTILS_DSP_DSP_H_
  30:eurorack/stmlib/dsp/dsp.h **** #define STMLIB_UTILS_DSP_DSP_H_
  31:eurorack/stmlib/dsp/dsp.h **** 
  32:eurorack/stmlib/dsp/dsp.h **** #include "stmlib/stmlib.h"
  33:eurorack/stmlib/dsp/dsp.h **** 
  34:eurorack/stmlib/dsp/dsp.h **** #include <cmath>
  35:eurorack/stmlib/dsp/dsp.h **** #include <math.h>
  36:eurorack/stmlib/dsp/dsp.h **** 
  37:eurorack/stmlib/dsp/dsp.h **** namespace stmlib {
  38:eurorack/stmlib/dsp/dsp.h **** 
ARM GAS  /var/folders/9s/8rp0_f2s1n31qbztm3b5_fdh0000gn/T//cc7CgoqZ.s 			page 12


  39:eurorack/stmlib/dsp/dsp.h **** #define MAKE_INTEGRAL_FRACTIONAL(x) \
  40:eurorack/stmlib/dsp/dsp.h ****   int32_t x ## _integral = static_cast<int32_t>(x); \
  41:eurorack/stmlib/dsp/dsp.h ****   float x ## _fractional = x - static_cast<float>(x ## _integral);
  42:eurorack/stmlib/dsp/dsp.h **** 
  43:eurorack/stmlib/dsp/dsp.h **** inline float Interpolate(const float* table, float index, float size) {
  44:eurorack/stmlib/dsp/dsp.h ****   index *= size;
  45:eurorack/stmlib/dsp/dsp.h ****   MAKE_INTEGRAL_FRACTIONAL(index)
  46:eurorack/stmlib/dsp/dsp.h ****   float a = table[index_integral];
  47:eurorack/stmlib/dsp/dsp.h ****   float b = table[index_integral + 1];
  48:eurorack/stmlib/dsp/dsp.h ****   return a + (b - a) * index_fractional;
  49:eurorack/stmlib/dsp/dsp.h **** }
  50:eurorack/stmlib/dsp/dsp.h **** 
  51:eurorack/stmlib/dsp/dsp.h **** 
  52:eurorack/stmlib/dsp/dsp.h **** inline float InterpolateHermite(const float* table, float index, float size) {
  53:eurorack/stmlib/dsp/dsp.h ****   index *= size;
  54:eurorack/stmlib/dsp/dsp.h ****   MAKE_INTEGRAL_FRACTIONAL(index)
  55:eurorack/stmlib/dsp/dsp.h ****   const float xm1 = table[index_integral - 1];
  56:eurorack/stmlib/dsp/dsp.h ****   const float x0 = table[index_integral + 0];
  57:eurorack/stmlib/dsp/dsp.h ****   const float x1 = table[index_integral + 1];
  58:eurorack/stmlib/dsp/dsp.h ****   const float x2 = table[index_integral + 2];
  59:eurorack/stmlib/dsp/dsp.h ****   const float c = (x1 - xm1) * 0.5f;
  60:eurorack/stmlib/dsp/dsp.h ****   const float v = x0 - x1;
  61:eurorack/stmlib/dsp/dsp.h ****   const float w = c + v;
  62:eurorack/stmlib/dsp/dsp.h ****   const float a = w + v + (x2 - x0) * 0.5f;
  63:eurorack/stmlib/dsp/dsp.h ****   const float b_neg = w + a;
  64:eurorack/stmlib/dsp/dsp.h ****   const float f = index_fractional;
  65:eurorack/stmlib/dsp/dsp.h ****   return (((a * f) - b_neg) * f + c) * f + x0;
  66:eurorack/stmlib/dsp/dsp.h **** }
  67:eurorack/stmlib/dsp/dsp.h **** 
  68:eurorack/stmlib/dsp/dsp.h **** inline float InterpolateWrap(const float* table, float index, float size) {
 256              		.loc 5 68 75 is_stmt 1 view -0
 257              		.cfi_startproc
 258              		@ args = 0, pretend = 0, frame = 0
 259              		@ frame_needed = 0, uses_anonymous_args = 0
 260              		@ link register save eliminated.
  69:eurorack/stmlib/dsp/dsp.h ****   index -= static_cast<float>(static_cast<int32_t>(index));
 261              		.loc 5 69 3 view .LVU85
 262              		.loc 5 69 31 is_stmt 0 view .LVU86
 263 0000 FDEEC07A 		vcvt.s32.f32	s15, s0
 264              		.loc 5 69 12 view .LVU87
 265 0004 F8EEE77A 		vcvt.f32.s32	s15, s15
 266              		.loc 5 69 9 view .LVU88
 267 0008 30EE670A 		vsub.f32	s0, s0, s15
 268              	.LVL11:
  70:eurorack/stmlib/dsp/dsp.h ****   index *= size;
 269              		.loc 5 70 3 is_stmt 1 view .LVU89
 270              		.loc 5 70 9 is_stmt 0 view .LVU90
 271 000c 60EE200A 		vmul.f32	s1, s0, s1
 272              	.LVL12:
  71:eurorack/stmlib/dsp/dsp.h ****   MAKE_INTEGRAL_FRACTIONAL(index)
 273              		.loc 5 71 3 is_stmt 1 view .LVU91
 274 0010 FDEEE07A 		vcvt.s32.f32	s15, s1
 275              	.LVL13:
 276              		.loc 5 71 3 view .LVU92
  72:eurorack/stmlib/dsp/dsp.h ****   float a = table[index_integral];
 277              		.loc 5 72 3 view .LVU93
 278              		.loc 5 72 9 is_stmt 0 view .LVU94
ARM GAS  /var/folders/9s/8rp0_f2s1n31qbztm3b5_fdh0000gn/T//cc7CgoqZ.s 			page 13


 279 0014 17EE903A 		vmov	r3, s15	@ int
  71:eurorack/stmlib/dsp/dsp.h ****   MAKE_INTEGRAL_FRACTIONAL(index)
 280              		.loc 5 71 3 view .LVU95
 281 0018 F8EEE77A 		vcvt.f32.s32	s15, s15
 282              	.LVL14:
 283              		.loc 5 72 9 view .LVU96
 284 001c 00EB8300 		add	r0, r0, r3, lsl #2
 285              	.LVL15:
  71:eurorack/stmlib/dsp/dsp.h ****   MAKE_INTEGRAL_FRACTIONAL(index)
 286              		.loc 5 71 3 view .LVU97
 287 0020 70EEE70A 		vsub.f32	s1, s1, s15
 288              	.LVL16:
 289              		.loc 5 72 9 view .LVU98
 290 0024 90ED000A 		vldr.32	s0, [r0]
 291              	.LVL17:
  73:eurorack/stmlib/dsp/dsp.h ****   float b = table[index_integral + 1];
 292              		.loc 5 73 3 is_stmt 1 view .LVU99
  74:eurorack/stmlib/dsp/dsp.h ****   return a + (b - a) * index_fractional;
 293              		.loc 5 74 3 view .LVU100
 294              		.loc 5 74 17 is_stmt 0 view .LVU101
 295 0028 90ED017A 		vldr.32	s14, [r0, #4]
 296 002c 37EE407A 		vsub.f32	s14, s14, s0
  75:eurorack/stmlib/dsp/dsp.h **** }
 297              		.loc 5 75 1 view .LVU102
 298 0030 A7EE200A 		vfma.f32	s0, s14, s1
 299              	.LVL18:
 300              		.loc 5 75 1 view .LVU103
 301 0034 7047     		bx	lr
 302              		.cfi_endproc
 303              	.LFE1484:
 305              		.section	.text._ZN6plaits18GrainletOscillator8GrainletEffff.isra.0,"axG",%progbits,_ZN6plaits18Gra
 306              		.align	1
 307              		.syntax unified
 308              		.thumb
 309              		.thumb_func
 311              	_ZN6plaits18GrainletOscillator8GrainletEffff.isra.0:
 312              	.LVL19:
 313              	.LFB1620:
  56:eurorack/plaits/dsp/oscillator/grainlet_oscillator.h ****   }
  57:eurorack/plaits/dsp/oscillator/grainlet_oscillator.h ****   
  58:eurorack/plaits/dsp/oscillator/grainlet_oscillator.h ****   void Render(
  59:eurorack/plaits/dsp/oscillator/grainlet_oscillator.h ****       float carrier_frequency,
  60:eurorack/plaits/dsp/oscillator/grainlet_oscillator.h ****       float formant_frequency,
  61:eurorack/plaits/dsp/oscillator/grainlet_oscillator.h ****       float carrier_shape,
  62:eurorack/plaits/dsp/oscillator/grainlet_oscillator.h ****       float carrier_bleed,
  63:eurorack/plaits/dsp/oscillator/grainlet_oscillator.h ****       float* out,
  64:eurorack/plaits/dsp/oscillator/grainlet_oscillator.h ****       size_t size) {
  65:eurorack/plaits/dsp/oscillator/grainlet_oscillator.h ****     if (carrier_frequency >= kMaxFrequency * 0.5f) {
  66:eurorack/plaits/dsp/oscillator/grainlet_oscillator.h ****       carrier_frequency = kMaxFrequency * 0.5f;
  67:eurorack/plaits/dsp/oscillator/grainlet_oscillator.h ****     }
  68:eurorack/plaits/dsp/oscillator/grainlet_oscillator.h ****     if (formant_frequency >= kMaxFrequency) {
  69:eurorack/plaits/dsp/oscillator/grainlet_oscillator.h ****       formant_frequency = kMaxFrequency;
  70:eurorack/plaits/dsp/oscillator/grainlet_oscillator.h ****     }
  71:eurorack/plaits/dsp/oscillator/grainlet_oscillator.h ****     
  72:eurorack/plaits/dsp/oscillator/grainlet_oscillator.h ****     stmlib::ParameterInterpolator carrier_frequency_modulation(
  73:eurorack/plaits/dsp/oscillator/grainlet_oscillator.h ****         &carrier_frequency_,
  74:eurorack/plaits/dsp/oscillator/grainlet_oscillator.h ****         carrier_frequency,
ARM GAS  /var/folders/9s/8rp0_f2s1n31qbztm3b5_fdh0000gn/T//cc7CgoqZ.s 			page 14


  75:eurorack/plaits/dsp/oscillator/grainlet_oscillator.h ****         size);
  76:eurorack/plaits/dsp/oscillator/grainlet_oscillator.h ****     stmlib::ParameterInterpolator formant_frequency_modulation(
  77:eurorack/plaits/dsp/oscillator/grainlet_oscillator.h ****         &formant_frequency_,
  78:eurorack/plaits/dsp/oscillator/grainlet_oscillator.h ****         formant_frequency,
  79:eurorack/plaits/dsp/oscillator/grainlet_oscillator.h ****         size);
  80:eurorack/plaits/dsp/oscillator/grainlet_oscillator.h ****     stmlib::ParameterInterpolator carrier_shape_modulation(
  81:eurorack/plaits/dsp/oscillator/grainlet_oscillator.h ****         &carrier_shape_,
  82:eurorack/plaits/dsp/oscillator/grainlet_oscillator.h ****         carrier_shape,
  83:eurorack/plaits/dsp/oscillator/grainlet_oscillator.h ****         size);
  84:eurorack/plaits/dsp/oscillator/grainlet_oscillator.h ****     stmlib::ParameterInterpolator carrier_bleed_modulation(
  85:eurorack/plaits/dsp/oscillator/grainlet_oscillator.h ****         &carrier_bleed_,
  86:eurorack/plaits/dsp/oscillator/grainlet_oscillator.h ****         carrier_bleed,
  87:eurorack/plaits/dsp/oscillator/grainlet_oscillator.h ****         size);
  88:eurorack/plaits/dsp/oscillator/grainlet_oscillator.h **** 
  89:eurorack/plaits/dsp/oscillator/grainlet_oscillator.h ****     float next_sample = next_sample_;
  90:eurorack/plaits/dsp/oscillator/grainlet_oscillator.h ****     
  91:eurorack/plaits/dsp/oscillator/grainlet_oscillator.h ****     while (size--) {
  92:eurorack/plaits/dsp/oscillator/grainlet_oscillator.h ****       bool reset = false;
  93:eurorack/plaits/dsp/oscillator/grainlet_oscillator.h ****       float reset_time = 0.0f;
  94:eurorack/plaits/dsp/oscillator/grainlet_oscillator.h **** 
  95:eurorack/plaits/dsp/oscillator/grainlet_oscillator.h ****       float this_sample = next_sample;
  96:eurorack/plaits/dsp/oscillator/grainlet_oscillator.h ****       next_sample = 0.0f;
  97:eurorack/plaits/dsp/oscillator/grainlet_oscillator.h ****     
  98:eurorack/plaits/dsp/oscillator/grainlet_oscillator.h ****       const float f0 = carrier_frequency_modulation.Next();
  99:eurorack/plaits/dsp/oscillator/grainlet_oscillator.h ****       const float f1 = formant_frequency_modulation.Next();
 100:eurorack/plaits/dsp/oscillator/grainlet_oscillator.h ****     
 101:eurorack/plaits/dsp/oscillator/grainlet_oscillator.h ****       carrier_phase_ += f0;
 102:eurorack/plaits/dsp/oscillator/grainlet_oscillator.h ****       reset = carrier_phase_ >= 1.0f;
 103:eurorack/plaits/dsp/oscillator/grainlet_oscillator.h ****       
 104:eurorack/plaits/dsp/oscillator/grainlet_oscillator.h ****       if (reset) {
 105:eurorack/plaits/dsp/oscillator/grainlet_oscillator.h ****         carrier_phase_ -= 1.0f;
 106:eurorack/plaits/dsp/oscillator/grainlet_oscillator.h ****         reset_time = carrier_phase_ / f0;
 107:eurorack/plaits/dsp/oscillator/grainlet_oscillator.h ****         float before = Grainlet(
 108:eurorack/plaits/dsp/oscillator/grainlet_oscillator.h ****             1.0f,
 109:eurorack/plaits/dsp/oscillator/grainlet_oscillator.h ****             formant_phase_ + (1.0f - reset_time) * f1,
 110:eurorack/plaits/dsp/oscillator/grainlet_oscillator.h ****             carrier_shape_modulation.subsample(1.0f - reset_time),
 111:eurorack/plaits/dsp/oscillator/grainlet_oscillator.h ****             carrier_bleed_modulation.subsample(1.0f - reset_time));
 112:eurorack/plaits/dsp/oscillator/grainlet_oscillator.h **** 
 113:eurorack/plaits/dsp/oscillator/grainlet_oscillator.h ****         float after = Grainlet(
 114:eurorack/plaits/dsp/oscillator/grainlet_oscillator.h ****             0.0f,
 115:eurorack/plaits/dsp/oscillator/grainlet_oscillator.h ****             0.0f,
 116:eurorack/plaits/dsp/oscillator/grainlet_oscillator.h ****             carrier_shape_modulation.subsample(1.0f),
 117:eurorack/plaits/dsp/oscillator/grainlet_oscillator.h ****             carrier_bleed_modulation.subsample(1.0f));
 118:eurorack/plaits/dsp/oscillator/grainlet_oscillator.h **** 
 119:eurorack/plaits/dsp/oscillator/grainlet_oscillator.h ****         float discontinuity = after - before;
 120:eurorack/plaits/dsp/oscillator/grainlet_oscillator.h ****         this_sample += discontinuity * stmlib::ThisBlepSample(reset_time);
 121:eurorack/plaits/dsp/oscillator/grainlet_oscillator.h ****         next_sample += discontinuity * stmlib::NextBlepSample(reset_time);
 122:eurorack/plaits/dsp/oscillator/grainlet_oscillator.h ****         formant_phase_ = reset_time * f1;
 123:eurorack/plaits/dsp/oscillator/grainlet_oscillator.h ****       } else {
 124:eurorack/plaits/dsp/oscillator/grainlet_oscillator.h ****         formant_phase_ += f1;
 125:eurorack/plaits/dsp/oscillator/grainlet_oscillator.h ****         if (formant_phase_ >= 1.0f) {
 126:eurorack/plaits/dsp/oscillator/grainlet_oscillator.h ****           formant_phase_ -= 1.0f;
 127:eurorack/plaits/dsp/oscillator/grainlet_oscillator.h ****         }
 128:eurorack/plaits/dsp/oscillator/grainlet_oscillator.h ****       }
 129:eurorack/plaits/dsp/oscillator/grainlet_oscillator.h ****       
 130:eurorack/plaits/dsp/oscillator/grainlet_oscillator.h ****       next_sample += Grainlet(
 131:eurorack/plaits/dsp/oscillator/grainlet_oscillator.h ****           carrier_phase_,
ARM GAS  /var/folders/9s/8rp0_f2s1n31qbztm3b5_fdh0000gn/T//cc7CgoqZ.s 			page 15


 132:eurorack/plaits/dsp/oscillator/grainlet_oscillator.h ****           formant_phase_,
 133:eurorack/plaits/dsp/oscillator/grainlet_oscillator.h ****           carrier_shape_modulation.Next(),
 134:eurorack/plaits/dsp/oscillator/grainlet_oscillator.h ****           carrier_bleed_modulation.Next());
 135:eurorack/plaits/dsp/oscillator/grainlet_oscillator.h ****       *out++ = this_sample;
 136:eurorack/plaits/dsp/oscillator/grainlet_oscillator.h ****     }
 137:eurorack/plaits/dsp/oscillator/grainlet_oscillator.h ****     
 138:eurorack/plaits/dsp/oscillator/grainlet_oscillator.h ****     next_sample_ = next_sample;
 139:eurorack/plaits/dsp/oscillator/grainlet_oscillator.h ****   }
 140:eurorack/plaits/dsp/oscillator/grainlet_oscillator.h **** 
 141:eurorack/plaits/dsp/oscillator/grainlet_oscillator.h ****  private:
 142:eurorack/plaits/dsp/oscillator/grainlet_oscillator.h ****   inline float Sine(float phase) {
 143:eurorack/plaits/dsp/oscillator/grainlet_oscillator.h ****     return stmlib::InterpolateWrap(lut_sine, phase, 1024.0f);
 144:eurorack/plaits/dsp/oscillator/grainlet_oscillator.h ****   }
 145:eurorack/plaits/dsp/oscillator/grainlet_oscillator.h ****   
 146:eurorack/plaits/dsp/oscillator/grainlet_oscillator.h ****   inline float Carrier(float phase, float shape) {
 147:eurorack/plaits/dsp/oscillator/grainlet_oscillator.h ****     shape *= 3.0f;
 148:eurorack/plaits/dsp/oscillator/grainlet_oscillator.h ****     MAKE_INTEGRAL_FRACTIONAL(shape);
 149:eurorack/plaits/dsp/oscillator/grainlet_oscillator.h ****     float t = 1.0f - shape_fractional;
 150:eurorack/plaits/dsp/oscillator/grainlet_oscillator.h ****     
 151:eurorack/plaits/dsp/oscillator/grainlet_oscillator.h ****     if (shape_integral == 0) {
 152:eurorack/plaits/dsp/oscillator/grainlet_oscillator.h ****       phase = phase * (1.0f + t * t * t * 15.0f);
 153:eurorack/plaits/dsp/oscillator/grainlet_oscillator.h ****       if (phase >= 1.0f) {
 154:eurorack/plaits/dsp/oscillator/grainlet_oscillator.h ****         phase = 1.0f;
 155:eurorack/plaits/dsp/oscillator/grainlet_oscillator.h ****       }
 156:eurorack/plaits/dsp/oscillator/grainlet_oscillator.h ****       phase += 0.75f;
 157:eurorack/plaits/dsp/oscillator/grainlet_oscillator.h ****     } else if (shape_integral == 1) {
 158:eurorack/plaits/dsp/oscillator/grainlet_oscillator.h ****       float breakpoint = 0.001f + 0.499f * t * t * t;
 159:eurorack/plaits/dsp/oscillator/grainlet_oscillator.h ****       if (phase < breakpoint) {
 160:eurorack/plaits/dsp/oscillator/grainlet_oscillator.h ****         phase *= (0.5f / breakpoint);
 161:eurorack/plaits/dsp/oscillator/grainlet_oscillator.h ****       } else {
 162:eurorack/plaits/dsp/oscillator/grainlet_oscillator.h ****         phase = 0.5f + (phase - breakpoint) * 0.5f / (1.0f - breakpoint);
 163:eurorack/plaits/dsp/oscillator/grainlet_oscillator.h ****       }
 164:eurorack/plaits/dsp/oscillator/grainlet_oscillator.h ****       phase += 0.75f;
 165:eurorack/plaits/dsp/oscillator/grainlet_oscillator.h ****     } else {
 166:eurorack/plaits/dsp/oscillator/grainlet_oscillator.h ****       t = 1.0f - t;
 167:eurorack/plaits/dsp/oscillator/grainlet_oscillator.h ****       phase = 0.25f + phase * (0.5f + t * t * t * 14.5f);
 168:eurorack/plaits/dsp/oscillator/grainlet_oscillator.h ****       if (phase >= 0.75f) phase = 0.75f;
 169:eurorack/plaits/dsp/oscillator/grainlet_oscillator.h ****     }
 170:eurorack/plaits/dsp/oscillator/grainlet_oscillator.h ****     return (Sine(phase) + 1.0f) * 0.25f;
 171:eurorack/plaits/dsp/oscillator/grainlet_oscillator.h ****   }
 172:eurorack/plaits/dsp/oscillator/grainlet_oscillator.h **** 
 173:eurorack/plaits/dsp/oscillator/grainlet_oscillator.h ****   inline float Grainlet(
 314              		.loc 2 173 16 is_stmt 1 view -0
 315              		.cfi_startproc
 316              		@ args = 0, pretend = 0, frame = 0
 317              		@ frame_needed = 0, uses_anonymous_args = 0
 174:eurorack/plaits/dsp/oscillator/grainlet_oscillator.h ****       float carrier_phase,
 175:eurorack/plaits/dsp/oscillator/grainlet_oscillator.h ****       float formant_phase,
 176:eurorack/plaits/dsp/oscillator/grainlet_oscillator.h ****       float shape,
 177:eurorack/plaits/dsp/oscillator/grainlet_oscillator.h ****       float bleed) {
 178:eurorack/plaits/dsp/oscillator/grainlet_oscillator.h ****     float carrier = Carrier(carrier_phase, shape);
 318              		.loc 2 178 5 view .LVU105
 319              	.LBB162:
 320              	.LBI162:
 146:eurorack/plaits/dsp/oscillator/grainlet_oscillator.h ****     shape *= 3.0f;
 321              		.loc 2 146 16 view .LVU106
 322              	.LBB163:
ARM GAS  /var/folders/9s/8rp0_f2s1n31qbztm3b5_fdh0000gn/T//cc7CgoqZ.s 			page 16


 147:eurorack/plaits/dsp/oscillator/grainlet_oscillator.h ****     MAKE_INTEGRAL_FRACTIONAL(shape);
 323              		.loc 2 147 5 view .LVU107
 147:eurorack/plaits/dsp/oscillator/grainlet_oscillator.h ****     MAKE_INTEGRAL_FRACTIONAL(shape);
 324              		.loc 2 147 11 is_stmt 0 view .LVU108
 325 0000 F0EE087A 		vmov.f32	s15, #3.0e+0
 326 0004 F6EE085A 		vmov.f32	s11, #7.5e-1
 327 0008 21EE271A 		vmul.f32	s2, s2, s15
 328              	.LVL20:
 148:eurorack/plaits/dsp/oscillator/grainlet_oscillator.h ****     float t = 1.0f - shape_fractional;
 329              		.loc 2 148 5 is_stmt 1 view .LVU109
 330              	.LBE163:
 331              	.LBE162:
 173:eurorack/plaits/dsp/oscillator/grainlet_oscillator.h ****       float carrier_phase,
 332              		.loc 2 173 16 is_stmt 0 view .LVU110
 333 000c 08B5     		push	{r3, lr}
 334              		.cfi_def_cfa_offset 8
 335              		.cfi_offset 3, -8
 336              		.cfi_offset 14, -4
 337              	.LBB179:
 338              	.LBB172:
 148:eurorack/plaits/dsp/oscillator/grainlet_oscillator.h ****     float t = 1.0f - shape_fractional;
 339              		.loc 2 148 5 view .LVU111
 340 000e FDEEC17A 		vcvt.s32.f32	s15, s2
 341              	.LBE172:
 342              	.LBE179:
 173:eurorack/plaits/dsp/oscillator/grainlet_oscillator.h ****       float carrier_phase,
 343              		.loc 2 173 16 view .LVU112
 344 0012 2DED068B 		vpush.64	{d8, d9, d10}
 345              		.cfi_def_cfa_offset 32
 346              		.cfi_offset 80, -32
 347              		.cfi_offset 81, -28
 348              		.cfi_offset 82, -24
 349              		.cfi_offset 83, -20
 350              		.cfi_offset 84, -16
 351              		.cfi_offset 85, -12
 352              	.LBB180:
 353              	.LBB173:
 148:eurorack/plaits/dsp/oscillator/grainlet_oscillator.h ****     float t = 1.0f - shape_fractional;
 354              		.loc 2 148 5 view .LVU113
 355 0016 17EE903A 		vmov	r3, s15	@ int
 356              	.LVL21:
 148:eurorack/plaits/dsp/oscillator/grainlet_oscillator.h ****     float t = 1.0f - shape_fractional;
 357              		.loc 2 148 5 is_stmt 1 view .LVU114
 148:eurorack/plaits/dsp/oscillator/grainlet_oscillator.h ****     float t = 1.0f - shape_fractional;
 358              		.loc 2 148 36 view .LVU115
 149:eurorack/plaits/dsp/oscillator/grainlet_oscillator.h ****     
 359              		.loc 2 149 5 view .LVU116
 148:eurorack/plaits/dsp/oscillator/grainlet_oscillator.h ****     float t = 1.0f - shape_fractional;
 360              		.loc 2 148 5 is_stmt 0 view .LVU117
 361 001a F8EEE77A 		vcvt.f32.s32	s15, s15
 149:eurorack/plaits/dsp/oscillator/grainlet_oscillator.h ****     
 362              		.loc 2 149 11 view .LVU118
 363 001e F7EE008A 		vmov.f32	s17, #1.0e+0
 364              	.LBE173:
 365              	.LBE180:
 173:eurorack/plaits/dsp/oscillator/grainlet_oscillator.h ****       float carrier_phase,
 366              		.loc 2 173 16 view .LVU119
ARM GAS  /var/folders/9s/8rp0_f2s1n31qbztm3b5_fdh0000gn/T//cc7CgoqZ.s 			page 17


 367 0022 F0EE609A 		vmov.f32	s19, s1
 368              	.LBB181:
 369              	.LBB174:
 148:eurorack/plaits/dsp/oscillator/grainlet_oscillator.h ****     float t = 1.0f - shape_fractional;
 370              		.loc 2 148 5 view .LVU120
 371 0026 31EE671A 		vsub.f32	s2, s2, s15
 372              	.LVL22:
 148:eurorack/plaits/dsp/oscillator/grainlet_oscillator.h ****     float t = 1.0f - shape_fractional;
 373              		.loc 2 148 5 view .LVU121
 374              	.LBE174:
 375              	.LBE181:
 173:eurorack/plaits/dsp/oscillator/grainlet_oscillator.h ****       float carrier_phase,
 376              		.loc 2 173 16 view .LVU122
 377 002a B0EE619A 		vmov.f32	s18, s3
 378 002e B5EE00AA 		vmov.f32	s20, #2.5e-1
 379              	.LBB182:
 380              	.LBB175:
 149:eurorack/plaits/dsp/oscillator/grainlet_oscillator.h ****     
 381              		.loc 2 149 11 view .LVU123
 382 0032 38EEC11A 		vsub.f32	s2, s17, s2
 383              	.LVL23:
 151:eurorack/plaits/dsp/oscillator/grainlet_oscillator.h ****       phase = phase * (1.0f + t * t * t * 15.0f);
 384              		.loc 2 151 5 is_stmt 1 view .LVU124
 385              	.LBB164:
 386 0036 93BB     		cbnz	r3, .L7
 152:eurorack/plaits/dsp/oscillator/grainlet_oscillator.h ****       if (phase >= 1.0f) {
 387              		.loc 2 152 7 view .LVU125
 152:eurorack/plaits/dsp/oscillator/grainlet_oscillator.h ****       if (phase >= 1.0f) {
 388              		.loc 2 152 33 is_stmt 0 view .LVU126
 389 0038 61EE017A 		vmul.f32	s15, s2, s2
 152:eurorack/plaits/dsp/oscillator/grainlet_oscillator.h ****       if (phase >= 1.0f) {
 390              		.loc 2 152 29 view .LVU127
 391 003c B0EE687A 		vmov.f32	s14, s17
 152:eurorack/plaits/dsp/oscillator/grainlet_oscillator.h ****       if (phase >= 1.0f) {
 392              		.loc 2 152 37 view .LVU128
 393 0040 27EE811A 		vmul.f32	s2, s15, s2
 394              	.LVL24:
 152:eurorack/plaits/dsp/oscillator/grainlet_oscillator.h ****       if (phase >= 1.0f) {
 395              		.loc 2 152 29 view .LVU129
 396 0044 F2EE0E7A 		vmov.f32	s15, #1.5e+1
 397 0048 A1EE277A 		vfma.f32	s14, s2, s15
 398              	.LVL25:
 152:eurorack/plaits/dsp/oscillator/grainlet_oscillator.h ****       if (phase >= 1.0f) {
 399              		.loc 2 152 13 view .LVU130
 400 004c 60EE077A 		vmul.f32	s15, s0, s14
 401              	.LVL26:
 153:eurorack/plaits/dsp/oscillator/grainlet_oscillator.h ****         phase = 1.0f;
 402              		.loc 2 153 7 is_stmt 1 view .LVU131
 154:eurorack/plaits/dsp/oscillator/grainlet_oscillator.h ****       }
 403              		.loc 2 154 15 is_stmt 0 view .LVU132
 404 0050 F4EE687A 		vcmp.f32	s15, s17
 405 0054 F1EE10FA 		vmrs	APSR_nzcv, FPSCR
 406 0058 68FEA77A 		vselge.f32	s15, s17, s15
 407              	.LVL27:
 156:eurorack/plaits/dsp/oscillator/grainlet_oscillator.h ****     } else if (shape_integral == 1) {
 408              		.loc 2 156 7 is_stmt 1 view .LVU133
 409              	.L14:
ARM GAS  /var/folders/9s/8rp0_f2s1n31qbztm3b5_fdh0000gn/T//cc7CgoqZ.s 			page 18


 410              	.LBB165:
 411              	.LBB166:
 164:eurorack/plaits/dsp/oscillator/grainlet_oscillator.h ****     } else {
 412              		.loc 2 164 7 view .LVU134
 164:eurorack/plaits/dsp/oscillator/grainlet_oscillator.h ****     } else {
 413              		.loc 2 164 13 is_stmt 0 view .LVU135
 414 005c 77EEA57A 		vadd.f32	s15, s15, s11
 415              	.LVL28:
 416              	.L10:
 164:eurorack/plaits/dsp/oscillator/grainlet_oscillator.h ****     } else {
 417              		.loc 2 164 13 view .LVU136
 418              	.LBE166:
 419              	.LBE165:
 420              	.LBE164:
 170:eurorack/plaits/dsp/oscillator/grainlet_oscillator.h ****   }
 421              		.loc 2 170 5 is_stmt 1 view .LVU137
 422              	.LBB169:
 423              	.LBI169:
 142:eurorack/plaits/dsp/oscillator/grainlet_oscillator.h ****     return stmlib::InterpolateWrap(lut_sine, phase, 1024.0f);
 424              		.loc 2 142 16 view .LVU138
 425              	.LBB170:
 143:eurorack/plaits/dsp/oscillator/grainlet_oscillator.h ****   }
 426              		.loc 2 143 5 view .LVU139
 143:eurorack/plaits/dsp/oscillator/grainlet_oscillator.h ****   }
 427              		.loc 2 143 35 is_stmt 0 view .LVU140
 428 0060 B0EE670A 		vmov.f32	s0, s15
 429 0064 DFED2A0A 		vldr.32	s1, .L20
 430              	.LVL29:
 143:eurorack/plaits/dsp/oscillator/grainlet_oscillator.h ****   }
 431              		.loc 2 143 35 view .LVU141
 432 0068 2A48     		ldr	r0, .L20+4
 433 006a FFF7FEFF 		bl	_ZN6stmlib15InterpolateWrapEPKfff
 434              	.LVL30:
 143:eurorack/plaits/dsp/oscillator/grainlet_oscillator.h ****   }
 435              		.loc 2 143 35 view .LVU142
 436 006e B0EE408A 		vmov.f32	s16, s0
 437              	.LVL31:
 143:eurorack/plaits/dsp/oscillator/grainlet_oscillator.h ****   }
 438              		.loc 2 143 35 view .LVU143
 439              	.LBE170:
 440              	.LBE169:
 441              	.LBE175:
 442              	.LBE182:
 179:eurorack/plaits/dsp/oscillator/grainlet_oscillator.h ****     float formant = Sine(formant_phase);
 443              		.loc 2 179 5 is_stmt 1 view .LVU144
 444              	.LBB183:
 445              	.LBI183:
 142:eurorack/plaits/dsp/oscillator/grainlet_oscillator.h ****     return stmlib::InterpolateWrap(lut_sine, phase, 1024.0f);
 446              		.loc 2 142 16 view .LVU145
 447              	.LBB184:
 143:eurorack/plaits/dsp/oscillator/grainlet_oscillator.h ****   }
 448              		.loc 2 143 5 view .LVU146
 143:eurorack/plaits/dsp/oscillator/grainlet_oscillator.h ****   }
 449              		.loc 2 143 35 is_stmt 0 view .LVU147
 450 0072 DFED270A 		vldr.32	s1, .L20
 451 0076 B0EE690A 		vmov.f32	s0, s19
 452              	.LVL32:
ARM GAS  /var/folders/9s/8rp0_f2s1n31qbztm3b5_fdh0000gn/T//cc7CgoqZ.s 			page 19


 143:eurorack/plaits/dsp/oscillator/grainlet_oscillator.h ****   }
 453              		.loc 2 143 35 view .LVU148
 454 007a 2648     		ldr	r0, .L20+4
 455              	.LBE184:
 456              	.LBE183:
 457              	.LBB186:
 458              	.LBB176:
 170:eurorack/plaits/dsp/oscillator/grainlet_oscillator.h ****   }
 459              		.loc 2 170 25 view .LVU149
 460 007c 38EE288A 		vadd.f32	s16, s16, s17
 461              	.LVL33:
 170:eurorack/plaits/dsp/oscillator/grainlet_oscillator.h ****   }
 462              		.loc 2 170 25 view .LVU150
 463              	.LBE176:
 464              	.LBE186:
 465              	.LBB187:
 466              	.LBB185:
 143:eurorack/plaits/dsp/oscillator/grainlet_oscillator.h ****   }
 467              		.loc 2 143 35 view .LVU151
 468 0080 FFF7FEFF 		bl	_ZN6stmlib15InterpolateWrapEPKfff
 469              	.LVL34:
 143:eurorack/plaits/dsp/oscillator/grainlet_oscillator.h ****   }
 470              		.loc 2 143 35 view .LVU152
 471              	.LBE185:
 472              	.LBE187:
 180:eurorack/plaits/dsp/oscillator/grainlet_oscillator.h ****     return carrier * (formant + bleed) / (1.0f + bleed);
 473              		.loc 2 180 5 is_stmt 1 view .LVU153
 474              		.loc 2 180 31 is_stmt 0 view .LVU154
 475 0084 39EE000A 		vadd.f32	s0, s18, s0
 476              	.LVL35:
 477              	.LBB188:
 478              	.LBB177:
 170:eurorack/plaits/dsp/oscillator/grainlet_oscillator.h ****   }
 479              		.loc 2 170 35 view .LVU155
 480 0088 28EE0A8A 		vmul.f32	s16, s16, s20
 481              	.LBE177:
 482              	.LBE188:
 483              		.loc 2 180 20 view .LVU156
 484 008c 28EE008A 		vmul.f32	s16, s16, s0
 485              		.loc 2 180 48 view .LVU157
 486 0090 39EE280A 		vadd.f32	s0, s18, s17
 181:eurorack/plaits/dsp/oscillator/grainlet_oscillator.h ****   }
 487              		.loc 2 181 3 view .LVU158
 488 0094 88EE000A 		vdiv.f32	s0, s16, s0
 489 0098 BDEC068B 		vldm	sp!, {d8-d10}
 490              		.cfi_remember_state
 491              		.cfi_restore 84
 492              		.cfi_restore 85
 493              		.cfi_restore 82
 494              		.cfi_restore 83
 495              		.cfi_restore 80
 496              		.cfi_restore 81
 497              		.cfi_def_cfa_offset 8
 498              	.LVL36:
 499              		.loc 2 181 3 view .LVU159
 500 009c 08BD     		pop	{r3, pc}
 501              	.LVL37:
ARM GAS  /var/folders/9s/8rp0_f2s1n31qbztm3b5_fdh0000gn/T//cc7CgoqZ.s 			page 20


 502              	.L7:
 503              		.cfi_restore_state
 157:eurorack/plaits/dsp/oscillator/grainlet_oscillator.h ****       float breakpoint = 0.001f + 0.499f * t * t * t;
 504              		.loc 2 157 12 is_stmt 1 view .LVU160
 505              	.LBB189:
 506              	.LBB178:
 507              	.LBB171:
 508              	.LBB168:
 509 009e 012B     		cmp	r3, #1
 510 00a0 B6EE006A 		vmov.f32	s12, #5.0e-1
 511 00a4 1ED1     		bne	.L11
 512              	.LBB167:
 158:eurorack/plaits/dsp/oscillator/grainlet_oscillator.h ****       if (phase < breakpoint) {
 513              		.loc 2 158 7 view .LVU161
 158:eurorack/plaits/dsp/oscillator/grainlet_oscillator.h ****       if (phase < breakpoint) {
 514              		.loc 2 158 42 is_stmt 0 view .LVU162
 515 00a6 DFED1C7A 		vldr.32	s15, .L20+8
 158:eurorack/plaits/dsp/oscillator/grainlet_oscillator.h ****       if (phase < breakpoint) {
 516              		.loc 2 158 13 view .LVU163
 517 00aa DFED1C6A 		vldr.32	s13, .L20+12
 158:eurorack/plaits/dsp/oscillator/grainlet_oscillator.h ****       if (phase < breakpoint) {
 518              		.loc 2 158 42 view .LVU164
 519 00ae 61EE277A 		vmul.f32	s15, s2, s15
 158:eurorack/plaits/dsp/oscillator/grainlet_oscillator.h ****       if (phase < breakpoint) {
 520              		.loc 2 158 46 view .LVU165
 521 00b2 67EE817A 		vmul.f32	s15, s15, s2
 158:eurorack/plaits/dsp/oscillator/grainlet_oscillator.h ****       if (phase < breakpoint) {
 522              		.loc 2 158 13 view .LVU166
 523 00b6 E1EE276A 		vfma.f32	s13, s2, s15
 524              	.LVL38:
 159:eurorack/plaits/dsp/oscillator/grainlet_oscillator.h ****         phase *= (0.5f / breakpoint);
 525              		.loc 2 159 7 is_stmt 1 view .LVU167
 526 00ba B4EEE60A 		vcmpe.f32	s0, s13
 527 00be F1EE10FA 		vmrs	APSR_nzcv, FPSCR
 160:eurorack/plaits/dsp/oscillator/grainlet_oscillator.h ****       } else {
 528              		.loc 2 160 9 view .LVU168
 162:eurorack/plaits/dsp/oscillator/grainlet_oscillator.h ****       }
 529              		.loc 2 162 31 is_stmt 0 view .LVU169
 530 00c2 5BBF     		ittet	pl
 531 00c4 70EE667A 		vsubpl.f32	s15, s0, s13
 162:eurorack/plaits/dsp/oscillator/grainlet_oscillator.h ****       }
 532              		.loc 2 162 60 view .LVU170
 533 00c8 78EEE66A 		vsubpl.f32	s13, s17, s13
 534              	.LVL39:
 160:eurorack/plaits/dsp/oscillator/grainlet_oscillator.h ****       } else {
 535              		.loc 2 160 24 view .LVU171
 536 00cc 86EE267A 		vdivmi.f32	s14, s12, s13
 162:eurorack/plaits/dsp/oscillator/grainlet_oscillator.h ****       }
 537              		.loc 2 162 45 view .LVU172
 538 00d0 27EE860A 		vmulpl.f32	s0, s15, s12
 539              	.LVL40:
 162:eurorack/plaits/dsp/oscillator/grainlet_oscillator.h ****       }
 540              		.loc 2 162 52 view .LVU173
 541 00d4 56BF     		itet	pl
 542 00d6 C0EE267A 		vdivpl.f32	s15, s0, s13
 160:eurorack/plaits/dsp/oscillator/grainlet_oscillator.h ****       } else {
 543              		.loc 2 160 15 view .LVU174
ARM GAS  /var/folders/9s/8rp0_f2s1n31qbztm3b5_fdh0000gn/T//cc7CgoqZ.s 			page 21


 544 00da 67EE007A 		vmulmi.f32	s15, s14, s0
 545              	.LVL41:
 162:eurorack/plaits/dsp/oscillator/grainlet_oscillator.h ****       }
 546              		.loc 2 162 9 is_stmt 1 view .LVU175
 162:eurorack/plaits/dsp/oscillator/grainlet_oscillator.h ****       }
 547              		.loc 2 162 15 is_stmt 0 view .LVU176
 548 00de 77EE867A 		vaddpl.f32	s15, s15, s12
 549              	.LVL42:
 162:eurorack/plaits/dsp/oscillator/grainlet_oscillator.h ****       }
 550              		.loc 2 162 15 view .LVU177
 551 00e2 BBE7     		b	.L14
 552              	.LVL43:
 553              	.L11:
 162:eurorack/plaits/dsp/oscillator/grainlet_oscillator.h ****       }
 554              		.loc 2 162 15 view .LVU178
 555              	.LBE167:
 166:eurorack/plaits/dsp/oscillator/grainlet_oscillator.h ****       phase = 0.25f + phase * (0.5f + t * t * t * 14.5f);
 556              		.loc 2 166 7 is_stmt 1 view .LVU179
 166:eurorack/plaits/dsp/oscillator/grainlet_oscillator.h ****       phase = 0.25f + phase * (0.5f + t * t * t * 14.5f);
 557              		.loc 2 166 9 is_stmt 0 view .LVU180
 558 00e4 38EEC11A 		vsub.f32	s2, s17, s2
 559              	.LVL44:
 167:eurorack/plaits/dsp/oscillator/grainlet_oscillator.h ****       if (phase >= 0.75f) phase = 0.75f;
 560              		.loc 2 167 7 is_stmt 1 view .LVU181
 167:eurorack/plaits/dsp/oscillator/grainlet_oscillator.h ****       if (phase >= 0.75f) phase = 0.75f;
 561              		.loc 2 167 41 is_stmt 0 view .LVU182
 562 00e8 61EE017A 		vmul.f32	s15, s2, s2
 167:eurorack/plaits/dsp/oscillator/grainlet_oscillator.h ****       if (phase >= 0.75f) phase = 0.75f;
 563              		.loc 2 167 45 view .LVU183
 564 00ec 27EE811A 		vmul.f32	s2, s15, s2
 565              	.LVL45:
 167:eurorack/plaits/dsp/oscillator/grainlet_oscillator.h ****       if (phase >= 0.75f) phase = 0.75f;
 566              		.loc 2 167 37 view .LVU184
 567 00f0 F2EE0D7A 		vmov.f32	s15, #1.45e+1
 568 00f4 A1EE276A 		vfma.f32	s12, s2, s15
 167:eurorack/plaits/dsp/oscillator/grainlet_oscillator.h ****       if (phase >= 0.75f) phase = 0.75f;
 569              		.loc 2 167 13 view .LVU185
 570 00f8 F0EE4A7A 		vmov.f32	s15, s20
 571 00fc E0EE067A 		vfma.f32	s15, s0, s12
 572              	.LVL46:
 168:eurorack/plaits/dsp/oscillator/grainlet_oscillator.h ****     }
 573              		.loc 2 168 7 is_stmt 1 view .LVU186
 168:eurorack/plaits/dsp/oscillator/grainlet_oscillator.h ****     }
 574              		.loc 2 168 33 is_stmt 0 view .LVU187
 575 0100 F4EE657A 		vcmp.f32	s15, s11
 576 0104 F1EE10FA 		vmrs	APSR_nzcv, FPSCR
 577 0108 65FEA77A 		vselge.f32	s15, s11, s15
 578              	.LVL47:
 168:eurorack/plaits/dsp/oscillator/grainlet_oscillator.h ****     }
 579              		.loc 2 168 33 view .LVU188
 580 010c A8E7     		b	.L10
 581              	.L21:
 582 010e 00BF     		.align	2
 583              	.L20:
 584 0110 00008044 		.word	1149239296
 585 0114 00000000 		.word	_ZN6plaits8lut_sineE
 586 0118 EE7CFF3E 		.word	1056931054
ARM GAS  /var/folders/9s/8rp0_f2s1n31qbztm3b5_fdh0000gn/T//cc7CgoqZ.s 			page 22


 587 011c 6F12833A 		.word	981668463
 588              	.LBE168:
 589              	.LBE171:
 590              	.LBE178:
 591              	.LBE189:
 592              		.cfi_endproc
 593              	.LFE1620:
 595              		.section	.text._ZN6plaits11ZOscillator1ZEfffff.isra.0,"axG",%progbits,_ZN6plaits11ZOscillator6Rend
 596              		.align	1
 597              		.syntax unified
 598              		.thumb
 599              		.thumb_func
 601              	_ZN6plaits11ZOscillator1ZEfffff.isra.0:
 602              	.LVL48:
 603              	.LFB1622:
  57:eurorack/plaits/dsp/oscillator/z_oscillator.h ****   }
  58:eurorack/plaits/dsp/oscillator/z_oscillator.h ****   
  59:eurorack/plaits/dsp/oscillator/z_oscillator.h ****   void Render(
  60:eurorack/plaits/dsp/oscillator/z_oscillator.h ****       float carrier_frequency,
  61:eurorack/plaits/dsp/oscillator/z_oscillator.h ****       float formant_frequency,
  62:eurorack/plaits/dsp/oscillator/z_oscillator.h ****       float carrier_shape,
  63:eurorack/plaits/dsp/oscillator/z_oscillator.h ****       float mode,
  64:eurorack/plaits/dsp/oscillator/z_oscillator.h ****       float* out,
  65:eurorack/plaits/dsp/oscillator/z_oscillator.h ****       size_t size) {
  66:eurorack/plaits/dsp/oscillator/z_oscillator.h ****     if (carrier_frequency >= kMaxFrequency * 0.5f) {
  67:eurorack/plaits/dsp/oscillator/z_oscillator.h ****       carrier_frequency = kMaxFrequency * 0.5f;
  68:eurorack/plaits/dsp/oscillator/z_oscillator.h ****     }
  69:eurorack/plaits/dsp/oscillator/z_oscillator.h ****     if (formant_frequency >= kMaxFrequency) {
  70:eurorack/plaits/dsp/oscillator/z_oscillator.h ****       formant_frequency = kMaxFrequency;
  71:eurorack/plaits/dsp/oscillator/z_oscillator.h ****     }
  72:eurorack/plaits/dsp/oscillator/z_oscillator.h ****     
  73:eurorack/plaits/dsp/oscillator/z_oscillator.h ****     stmlib::ParameterInterpolator carrier_frequency_modulation(
  74:eurorack/plaits/dsp/oscillator/z_oscillator.h ****         &carrier_frequency_,
  75:eurorack/plaits/dsp/oscillator/z_oscillator.h ****         carrier_frequency,
  76:eurorack/plaits/dsp/oscillator/z_oscillator.h ****         size);
  77:eurorack/plaits/dsp/oscillator/z_oscillator.h ****     stmlib::ParameterInterpolator formant_frequency_modulation(
  78:eurorack/plaits/dsp/oscillator/z_oscillator.h ****         &formant_frequency_,
  79:eurorack/plaits/dsp/oscillator/z_oscillator.h ****         formant_frequency,
  80:eurorack/plaits/dsp/oscillator/z_oscillator.h ****         size);
  81:eurorack/plaits/dsp/oscillator/z_oscillator.h ****     stmlib::ParameterInterpolator carrier_shape_modulation(
  82:eurorack/plaits/dsp/oscillator/z_oscillator.h ****         &carrier_shape_,
  83:eurorack/plaits/dsp/oscillator/z_oscillator.h ****         carrier_shape,
  84:eurorack/plaits/dsp/oscillator/z_oscillator.h ****         size);
  85:eurorack/plaits/dsp/oscillator/z_oscillator.h ****     stmlib::ParameterInterpolator mode_modulation(
  86:eurorack/plaits/dsp/oscillator/z_oscillator.h ****         &mode_,
  87:eurorack/plaits/dsp/oscillator/z_oscillator.h ****         mode,
  88:eurorack/plaits/dsp/oscillator/z_oscillator.h ****         size);
  89:eurorack/plaits/dsp/oscillator/z_oscillator.h **** 
  90:eurorack/plaits/dsp/oscillator/z_oscillator.h ****     float next_sample = next_sample_;
  91:eurorack/plaits/dsp/oscillator/z_oscillator.h ****     
  92:eurorack/plaits/dsp/oscillator/z_oscillator.h ****     while (size--) {
  93:eurorack/plaits/dsp/oscillator/z_oscillator.h ****       bool reset = false;
  94:eurorack/plaits/dsp/oscillator/z_oscillator.h ****       float reset_time = 0.0f;
  95:eurorack/plaits/dsp/oscillator/z_oscillator.h **** 
  96:eurorack/plaits/dsp/oscillator/z_oscillator.h ****       float this_sample = next_sample;
  97:eurorack/plaits/dsp/oscillator/z_oscillator.h ****       next_sample = 0.0f;
  98:eurorack/plaits/dsp/oscillator/z_oscillator.h ****     
ARM GAS  /var/folders/9s/8rp0_f2s1n31qbztm3b5_fdh0000gn/T//cc7CgoqZ.s 			page 23


  99:eurorack/plaits/dsp/oscillator/z_oscillator.h ****       const float f0 = carrier_frequency_modulation.Next();
 100:eurorack/plaits/dsp/oscillator/z_oscillator.h ****       const float f1 = formant_frequency_modulation.Next();
 101:eurorack/plaits/dsp/oscillator/z_oscillator.h ****     
 102:eurorack/plaits/dsp/oscillator/z_oscillator.h ****       discontinuity_phase_ += 2.0f * f0;
 103:eurorack/plaits/dsp/oscillator/z_oscillator.h ****       carrier_phase_ += f0;
 104:eurorack/plaits/dsp/oscillator/z_oscillator.h ****       reset = discontinuity_phase_ >= 1.0f;
 105:eurorack/plaits/dsp/oscillator/z_oscillator.h ****       
 106:eurorack/plaits/dsp/oscillator/z_oscillator.h ****       if (reset) {
 107:eurorack/plaits/dsp/oscillator/z_oscillator.h ****         discontinuity_phase_ -= 1.0f;
 108:eurorack/plaits/dsp/oscillator/z_oscillator.h ****         reset_time = discontinuity_phase_ / (2.0f * f0);
 109:eurorack/plaits/dsp/oscillator/z_oscillator.h ****         
 110:eurorack/plaits/dsp/oscillator/z_oscillator.h ****         float carrier_phase_before = carrier_phase_ >= 1.0f ? 1.0f : 0.5f;
 111:eurorack/plaits/dsp/oscillator/z_oscillator.h ****         float carrier_phase_after = carrier_phase_ >= 1.0f ? 0.0f : 0.5f;
 112:eurorack/plaits/dsp/oscillator/z_oscillator.h ****         float before = Z(
 113:eurorack/plaits/dsp/oscillator/z_oscillator.h ****             carrier_phase_before,
 114:eurorack/plaits/dsp/oscillator/z_oscillator.h ****             1.0f,
 115:eurorack/plaits/dsp/oscillator/z_oscillator.h ****             formant_phase_ + (1.0f - reset_time) * f1,
 116:eurorack/plaits/dsp/oscillator/z_oscillator.h ****             carrier_shape_modulation.subsample(1.0f - reset_time),
 117:eurorack/plaits/dsp/oscillator/z_oscillator.h ****             mode_modulation.subsample(1.0f - reset_time));
 118:eurorack/plaits/dsp/oscillator/z_oscillator.h **** 
 119:eurorack/plaits/dsp/oscillator/z_oscillator.h ****         float after = Z(
 120:eurorack/plaits/dsp/oscillator/z_oscillator.h ****             carrier_phase_after,
 121:eurorack/plaits/dsp/oscillator/z_oscillator.h ****             0.0f,
 122:eurorack/plaits/dsp/oscillator/z_oscillator.h ****             0.0f,
 123:eurorack/plaits/dsp/oscillator/z_oscillator.h ****             carrier_shape_modulation.subsample(1.0f),
 124:eurorack/plaits/dsp/oscillator/z_oscillator.h ****             mode_modulation.subsample(1.0f));
 125:eurorack/plaits/dsp/oscillator/z_oscillator.h **** 
 126:eurorack/plaits/dsp/oscillator/z_oscillator.h ****         float discontinuity = after - before;
 127:eurorack/plaits/dsp/oscillator/z_oscillator.h ****         this_sample += discontinuity * stmlib::ThisBlepSample(reset_time);
 128:eurorack/plaits/dsp/oscillator/z_oscillator.h ****         next_sample += discontinuity * stmlib::NextBlepSample(reset_time);
 129:eurorack/plaits/dsp/oscillator/z_oscillator.h ****         formant_phase_ = reset_time * f1;
 130:eurorack/plaits/dsp/oscillator/z_oscillator.h ****         
 131:eurorack/plaits/dsp/oscillator/z_oscillator.h ****         if (carrier_phase_ > 1.0f) {
 132:eurorack/plaits/dsp/oscillator/z_oscillator.h ****           carrier_phase_ = discontinuity_phase_ * 0.5f;
 133:eurorack/plaits/dsp/oscillator/z_oscillator.h ****         }
 134:eurorack/plaits/dsp/oscillator/z_oscillator.h ****       } else {
 135:eurorack/plaits/dsp/oscillator/z_oscillator.h ****         formant_phase_ += f1;
 136:eurorack/plaits/dsp/oscillator/z_oscillator.h ****         if (formant_phase_ >= 1.0f) {
 137:eurorack/plaits/dsp/oscillator/z_oscillator.h ****           formant_phase_ -= 1.0f;
 138:eurorack/plaits/dsp/oscillator/z_oscillator.h ****         }
 139:eurorack/plaits/dsp/oscillator/z_oscillator.h ****       }
 140:eurorack/plaits/dsp/oscillator/z_oscillator.h ****       
 141:eurorack/plaits/dsp/oscillator/z_oscillator.h ****       if (carrier_phase_ >= 1.0f) {
 142:eurorack/plaits/dsp/oscillator/z_oscillator.h ****         carrier_phase_ -= 1.0f;
 143:eurorack/plaits/dsp/oscillator/z_oscillator.h ****       }
 144:eurorack/plaits/dsp/oscillator/z_oscillator.h ****       
 145:eurorack/plaits/dsp/oscillator/z_oscillator.h ****       next_sample += Z(
 146:eurorack/plaits/dsp/oscillator/z_oscillator.h ****           carrier_phase_,
 147:eurorack/plaits/dsp/oscillator/z_oscillator.h ****           discontinuity_phase_,
 148:eurorack/plaits/dsp/oscillator/z_oscillator.h ****           formant_phase_,
 149:eurorack/plaits/dsp/oscillator/z_oscillator.h ****           carrier_shape_modulation.Next(),
 150:eurorack/plaits/dsp/oscillator/z_oscillator.h ****           mode_modulation.Next());
 151:eurorack/plaits/dsp/oscillator/z_oscillator.h ****       *out++ = this_sample;
 152:eurorack/plaits/dsp/oscillator/z_oscillator.h ****     }
 153:eurorack/plaits/dsp/oscillator/z_oscillator.h ****     
 154:eurorack/plaits/dsp/oscillator/z_oscillator.h ****     next_sample_ = next_sample;
 155:eurorack/plaits/dsp/oscillator/z_oscillator.h ****   }
ARM GAS  /var/folders/9s/8rp0_f2s1n31qbztm3b5_fdh0000gn/T//cc7CgoqZ.s 			page 24


 156:eurorack/plaits/dsp/oscillator/z_oscillator.h **** 
 157:eurorack/plaits/dsp/oscillator/z_oscillator.h ****  private:
 158:eurorack/plaits/dsp/oscillator/z_oscillator.h ****   inline float Sine(float phase) {
 159:eurorack/plaits/dsp/oscillator/z_oscillator.h ****     return stmlib::InterpolateWrap(lut_sine, phase, 1024.0f);
 160:eurorack/plaits/dsp/oscillator/z_oscillator.h ****   }
 161:eurorack/plaits/dsp/oscillator/z_oscillator.h **** 
 162:eurorack/plaits/dsp/oscillator/z_oscillator.h ****   inline float Z(float c, float d, float f, float shape, float mode) {
 604              		.loc 4 162 16 is_stmt 1 view -0
 605              		.cfi_startproc
 606              		@ args = 0, pretend = 0, frame = 0
 607              		@ frame_needed = 0, uses_anonymous_args = 0
 608              		.loc 4 162 16 is_stmt 0 view .LVU190
 609 0000 08B5     		push	{r3, lr}
 610              		.cfi_def_cfa_offset 8
 611              		.cfi_offset 3, -8
 612              		.cfi_offset 14, -4
 613 0002 2DED0A8B 		vpush.64	{d8, d9, d10, d11, d12}
 614              		.cfi_def_cfa_offset 48
 615              		.cfi_offset 80, -48
 616              		.cfi_offset 81, -44
 617              		.cfi_offset 82, -40
 618              		.cfi_offset 83, -36
 619              		.cfi_offset 84, -32
 620              		.cfi_offset 85, -28
 621              		.cfi_offset 86, -24
 622              		.cfi_offset 87, -20
 623              		.cfi_offset 88, -16
 624              		.cfi_offset 89, -12
 163:eurorack/plaits/dsp/oscillator/z_oscillator.h ****     float ramp_down = 0.5f * (1.0f + Sine(0.5f * d + 0.25f));
 625              		.loc 4 163 42 view .LVU191
 626 0006 F5EE00BA 		vmov.f32	s23, #2.5e-1
 627              	.LBB200:
 628              	.LBB201:
 159:eurorack/plaits/dsp/oscillator/z_oscillator.h ****   }
 629              		.loc 4 159 35 view .LVU192
 630 000a 3F48     		ldr	r0, .L40
 631              	.LBE201:
 632              	.LBE200:
 162:eurorack/plaits/dsp/oscillator/z_oscillator.h ****     float ramp_down = 0.5f * (1.0f + Sine(0.5f * d + 0.25f));
 633              		.loc 4 162 16 view .LVU193
 634 000c F0EE607A 		vmov.f32	s15, s1
 635              	.LBB206:
 636              	.LBB202:
 159:eurorack/plaits/dsp/oscillator/z_oscillator.h ****   }
 637              		.loc 4 159 35 view .LVU194
 638 0010 DFED3E0A 		vldr.32	s1, .L40+4
 639              	.LVL49:
 159:eurorack/plaits/dsp/oscillator/z_oscillator.h ****   }
 640              		.loc 4 159 35 view .LVU195
 641              	.LBE202:
 642              	.LBE206:
 643              		.loc 4 163 42 view .LVU196
 644 0014 B6EE00BA 		vmov.f32	s22, #5.0e-1
 162:eurorack/plaits/dsp/oscillator/z_oscillator.h ****     float ramp_down = 0.5f * (1.0f + Sine(0.5f * d + 0.25f));
 645              		.loc 4 162 16 view .LVU197
 646 0018 F0EE40AA 		vmov.f32	s21, s0
 647              	.LBB207:
ARM GAS  /var/folders/9s/8rp0_f2s1n31qbztm3b5_fdh0000gn/T//cc7CgoqZ.s 			page 25


 648              	.LBB203:
 159:eurorack/plaits/dsp/oscillator/z_oscillator.h ****   }
 649              		.loc 4 159 35 view .LVU198
 650 001c B0EE6B0A 		vmov.f32	s0, s23
 651              	.LVL50:
 159:eurorack/plaits/dsp/oscillator/z_oscillator.h ****   }
 652              		.loc 4 159 35 view .LVU199
 653              	.LBE203:
 654              	.LBE207:
 162:eurorack/plaits/dsp/oscillator/z_oscillator.h ****     float ramp_down = 0.5f * (1.0f + Sine(0.5f * d + 0.25f));
 655              		.loc 4 162 16 view .LVU200
 656 0020 B0EE429A 		vmov.f32	s18, s4
 657 0024 B0EE41CA 		vmov.f32	s24, s2
 658              	.LBB208:
 659              	.LBB204:
 159:eurorack/plaits/dsp/oscillator/z_oscillator.h ****   }
 660              		.loc 4 159 35 view .LVU201
 661 0028 A7EE8B0A 		vfma.f32	s0, s15, s22
 662              	.LBE204:
 663              	.LBE208:
 162:eurorack/plaits/dsp/oscillator/z_oscillator.h ****     float ramp_down = 0.5f * (1.0f + Sine(0.5f * d + 0.25f));
 664              		.loc 4 162 16 view .LVU202
 665 002c F0EE618A 		vmov.f32	s17, s3
 666              	.LVL51:
 667              		.loc 4 163 5 is_stmt 1 view .LVU203
 668              	.LBB209:
 669              	.LBI200:
 158:eurorack/plaits/dsp/oscillator/z_oscillator.h ****     return stmlib::InterpolateWrap(lut_sine, phase, 1024.0f);
 670              		.loc 4 158 16 view .LVU204
 671              	.LBB205:
 159:eurorack/plaits/dsp/oscillator/z_oscillator.h ****   }
 672              		.loc 4 159 5 view .LVU205
 159:eurorack/plaits/dsp/oscillator/z_oscillator.h ****   }
 673              		.loc 4 159 35 is_stmt 0 view .LVU206
 674 0030 FFF7FEFF 		bl	_ZN6stmlib15InterpolateWrapEPKfff
 675              	.LVL52:
 159:eurorack/plaits/dsp/oscillator/z_oscillator.h ****   }
 676              		.loc 4 159 35 view .LVU207
 677              	.LBE205:
 678              	.LBE209:
 164:eurorack/plaits/dsp/oscillator/z_oscillator.h ****     
 165:eurorack/plaits/dsp/oscillator/z_oscillator.h ****     float offset;
 166:eurorack/plaits/dsp/oscillator/z_oscillator.h ****     float phase_shift;
 167:eurorack/plaits/dsp/oscillator/z_oscillator.h ****     if (mode < 0.333f) {
 679              		.loc 4 167 5 view .LVU208
 680 0034 DFED367A 		vldr.32	s15, .L40+8
 163:eurorack/plaits/dsp/oscillator/z_oscillator.h ****     
 681              		.loc 4 163 36 view .LVU209
 682 0038 B7EE008A 		vmov.f32	s16, #1.0e+0
 683              		.loc 4 167 5 view .LVU210
 684 003c B4EEE79A 		vcmpe.f32	s18, s15
 163:eurorack/plaits/dsp/oscillator/z_oscillator.h ****     
 685              		.loc 4 163 36 view .LVU211
 686 0040 30EE080A 		vadd.f32	s0, s0, s16
 687              		.loc 4 167 5 view .LVU212
 688 0044 F1EE10FA 		vmrs	APSR_nzcv, FPSCR
 163:eurorack/plaits/dsp/oscillator/z_oscillator.h ****     
ARM GAS  /var/folders/9s/8rp0_f2s1n31qbztm3b5_fdh0000gn/T//cc7CgoqZ.s 			page 26


 689              		.loc 4 163 60 view .LVU213
 690 0048 60EE0B9A 		vmul.f32	s19, s0, s22
 691              	.LVL53:
 165:eurorack/plaits/dsp/oscillator/z_oscillator.h ****     float phase_shift;
 692              		.loc 4 165 5 is_stmt 1 view .LVU214
 166:eurorack/plaits/dsp/oscillator/z_oscillator.h ****     if (mode < 0.333f) {
 693              		.loc 4 166 5 view .LVU215
 694              		.loc 4 167 5 view .LVU216
 695 004c 32D5     		bpl	.L37
 168:eurorack/plaits/dsp/oscillator/z_oscillator.h ****       offset = 1.0f;
 696              		.loc 4 168 7 view .LVU217
 697              	.LVL54:
 169:eurorack/plaits/dsp/oscillator/z_oscillator.h ****       phase_shift = 0.25f + mode * 1.50f;
 698              		.loc 4 169 7 view .LVU218
 699              		.loc 4 169 19 is_stmt 0 view .LVU219
 700 004e F7EE087A 		vmov.f32	s15, #1.5e+0
 701 0052 B0EE6BAA 		vmov.f32	s20, s23
 702 0056 A9EE27AA 		vfma.f32	s20, s18, s15
 703              	.LVL55:
 168:eurorack/plaits/dsp/oscillator/z_oscillator.h ****       offset = 1.0f;
 704              		.loc 4 168 14 view .LVU220
 705 005a B0EE489A 		vmov.f32	s18, s16
 706              	.LVL56:
 707              	.L25:
 170:eurorack/plaits/dsp/oscillator/z_oscillator.h ****     } else if (mode < 0.666f) {
 171:eurorack/plaits/dsp/oscillator/z_oscillator.h ****       phase_shift = 0.7495f - (mode - 0.33f) * 0.75f;
 172:eurorack/plaits/dsp/oscillator/z_oscillator.h ****       offset = -Sine(phase_shift);
 173:eurorack/plaits/dsp/oscillator/z_oscillator.h ****     } else {
 174:eurorack/plaits/dsp/oscillator/z_oscillator.h ****       phase_shift = 0.7495f - (mode - 0.33f) * 0.75f;
 175:eurorack/plaits/dsp/oscillator/z_oscillator.h ****       offset = 0.001f;
 176:eurorack/plaits/dsp/oscillator/z_oscillator.h ****     }
 177:eurorack/plaits/dsp/oscillator/z_oscillator.h ****     
 178:eurorack/plaits/dsp/oscillator/z_oscillator.h ****     float discontinuity = Sine(f + phase_shift);
 708              		.loc 4 178 5 is_stmt 1 view .LVU221
 709              	.LBB210:
 710              	.LBI210:
 158:eurorack/plaits/dsp/oscillator/z_oscillator.h ****     return stmlib::InterpolateWrap(lut_sine, phase, 1024.0f);
 711              		.loc 4 158 16 view .LVU222
 712              	.LBB211:
 159:eurorack/plaits/dsp/oscillator/z_oscillator.h ****   }
 713              		.loc 4 159 5 view .LVU223
 159:eurorack/plaits/dsp/oscillator/z_oscillator.h ****   }
 714              		.loc 4 159 35 is_stmt 0 view .LVU224
 715 005e 3AEE0C0A 		vadd.f32	s0, s20, s24
 716              	.LVL57:
 159:eurorack/plaits/dsp/oscillator/z_oscillator.h ****   }
 717              		.loc 4 159 35 view .LVU225
 718 0062 DFED2A0A 		vldr.32	s1, .L40+4
 719 0066 2848     		ldr	r0, .L40
 720 0068 FFF7FEFF 		bl	_ZN6stmlib15InterpolateWrapEPKfff
 721              	.LVL58:
 159:eurorack/plaits/dsp/oscillator/z_oscillator.h ****   }
 722              		.loc 4 159 35 view .LVU226
 723              	.LBE211:
 724              	.LBE210:
 179:eurorack/plaits/dsp/oscillator/z_oscillator.h ****     float contour;
 180:eurorack/plaits/dsp/oscillator/z_oscillator.h ****     if (shape < 0.5f) {
ARM GAS  /var/folders/9s/8rp0_f2s1n31qbztm3b5_fdh0000gn/T//cc7CgoqZ.s 			page 27


 725              		.loc 4 180 5 view .LVU227
 726 006c F4EECB8A 		vcmpe.f32	s17, s22
 727              	.LBB213:
 728              	.LBB212:
 159:eurorack/plaits/dsp/oscillator/z_oscillator.h ****   }
 729              		.loc 4 159 35 view .LVU228
 730 0070 B0EE40AA 		vmov.f32	s20, s0
 731              	.LVL59:
 159:eurorack/plaits/dsp/oscillator/z_oscillator.h ****   }
 732              		.loc 4 159 35 view .LVU229
 733              	.LBE212:
 734              	.LBE213:
 179:eurorack/plaits/dsp/oscillator/z_oscillator.h ****     float contour;
 735              		.loc 4 179 5 is_stmt 1 view .LVU230
 736              		.loc 4 180 5 view .LVU231
 737 0074 F1EE10FA 		vmrs	APSR_nzcv, FPSCR
 738 0078 3AD5     		bpl	.L39
 181:eurorack/plaits/dsp/oscillator/z_oscillator.h ****       shape *= 2.0f;
 739              		.loc 4 181 7 view .LVU232
 182:eurorack/plaits/dsp/oscillator/z_oscillator.h ****       if (c >= 0.5f) {
 740              		.loc 4 182 7 is_stmt 0 view .LVU233
 741 007a F4EECBAA 		vcmpe.f32	s21, s22
 742              	.LBB214:
 743              	.LBB215:
 159:eurorack/plaits/dsp/oscillator/z_oscillator.h ****   }
 744              		.loc 4 159 35 view .LVU234
 745 007e DFED230A 		vldr.32	s1, .L40+4
 746              	.LBE215:
 747              	.LBE214:
 181:eurorack/plaits/dsp/oscillator/z_oscillator.h ****       shape *= 2.0f;
 748              		.loc 4 181 13 view .LVU235
 749 0082 78EEA88A 		vadd.f32	s17, s17, s17
 750              	.LVL60:
 751              		.loc 4 182 7 is_stmt 1 view .LVU236
 752              	.LBB218:
 753              	.LBB216:
 159:eurorack/plaits/dsp/oscillator/z_oscillator.h ****   }
 754              		.loc 4 159 35 is_stmt 0 view .LVU237
 755 0086 2048     		ldr	r0, .L40
 756 0088 3AEEAB0A 		vadd.f32	s0, s21, s23
 757              	.LVL61:
 159:eurorack/plaits/dsp/oscillator/z_oscillator.h ****   }
 758              		.loc 4 159 35 view .LVU238
 759              	.LBE216:
 760              	.LBE218:
 761              		.loc 4 182 7 view .LVU239
 762 008c F1EE10FA 		vmrs	APSR_nzcv, FPSCR
 183:eurorack/plaits/dsp/oscillator/z_oscillator.h ****         ramp_down *= shape;
 763              		.loc 4 183 9 is_stmt 1 view .LVU240
 764              		.loc 4 183 19 is_stmt 0 view .LVU241
 765 0090 A8BF     		it	ge
 766 0092 69EEA89A 		vmulge.f32	s19, s19, s17
 767              	.LVL62:
 184:eurorack/plaits/dsp/oscillator/z_oscillator.h ****       }
 185:eurorack/plaits/dsp/oscillator/z_oscillator.h ****       contour = 1.0f + (Sine(c + 0.25f) - 1.0f) * shape;
 768              		.loc 4 185 7 is_stmt 1 view .LVU242
 769              	.LBB219:
ARM GAS  /var/folders/9s/8rp0_f2s1n31qbztm3b5_fdh0000gn/T//cc7CgoqZ.s 			page 28


 770              	.LBI214:
 158:eurorack/plaits/dsp/oscillator/z_oscillator.h ****     return stmlib::InterpolateWrap(lut_sine, phase, 1024.0f);
 771              		.loc 4 158 16 view .LVU243
 772              	.LBB217:
 159:eurorack/plaits/dsp/oscillator/z_oscillator.h ****   }
 773              		.loc 4 159 5 view .LVU244
 159:eurorack/plaits/dsp/oscillator/z_oscillator.h ****   }
 774              		.loc 4 159 35 is_stmt 0 view .LVU245
 775 0096 FFF7FEFF 		bl	_ZN6stmlib15InterpolateWrapEPKfff
 776              	.LVL63:
 159:eurorack/plaits/dsp/oscillator/z_oscillator.h ****   }
 777              		.loc 4 159 35 view .LVU246
 778              	.LBE217:
 779              	.LBE219:
 780              		.loc 4 185 41 view .LVU247
 781 009a 30EE480A 		vsub.f32	s0, s0, s16
 782              		.loc 4 185 15 view .LVU248
 783 009e A8EE808A 		vfma.f32	s16, s17, s0
 784              	.LVL64:
 785              	.L31:
 186:eurorack/plaits/dsp/oscillator/z_oscillator.h ****     } else {
 187:eurorack/plaits/dsp/oscillator/z_oscillator.h ****       contour = Sine(c + shape * 0.5f);
 188:eurorack/plaits/dsp/oscillator/z_oscillator.h ****     }
 189:eurorack/plaits/dsp/oscillator/z_oscillator.h ****     return (ramp_down * (offset + discontinuity) - offset) * contour;
 786              		.loc 4 189 5 is_stmt 1 view .LVU249
 787              		.loc 4 189 33 is_stmt 0 view .LVU250
 788 00a2 39EE0AAA 		vadd.f32	s20, s18, s20
 789              	.LVL65:
 790              		.loc 4 189 50 view .LVU251
 791 00a6 9AEE299A 		vfnms.f32	s18, s20, s19
 792              	.LVL66:
 190:eurorack/plaits/dsp/oscillator/z_oscillator.h ****   }
 793              		.loc 4 190 3 view .LVU252
 794 00aa 29EE080A 		vmul.f32	s0, s18, s16
 795 00ae BDEC0A8B 		vldm	sp!, {d8-d12}
 796              		.cfi_remember_state
 797              		.cfi_restore 88
 798              		.cfi_restore 89
 799              		.cfi_restore 86
 800              		.cfi_restore 87
 801              		.cfi_restore 84
 802              		.cfi_restore 85
 803              		.cfi_restore 82
 804              		.cfi_restore 83
 805              		.cfi_restore 80
 806              		.cfi_restore 81
 807              		.cfi_def_cfa_offset 8
 808              	.LVL67:
 809              		.loc 4 190 3 view .LVU253
 810 00b2 08BD     		pop	{r3, pc}
 811              	.LVL68:
 812              	.L37:
 813              		.cfi_restore_state
 170:eurorack/plaits/dsp/oscillator/z_oscillator.h ****       phase_shift = 0.7495f - (mode - 0.33f) * 0.75f;
 814              		.loc 4 170 12 is_stmt 1 view .LVU254
 171:eurorack/plaits/dsp/oscillator/z_oscillator.h ****       offset = -Sine(phase_shift);
 815              		.loc 4 171 37 is_stmt 0 view .LVU255
ARM GAS  /var/folders/9s/8rp0_f2s1n31qbztm3b5_fdh0000gn/T//cc7CgoqZ.s 			page 29


 816 00b4 DFED177A 		vldr.32	s15, .L40+12
 171:eurorack/plaits/dsp/oscillator/z_oscillator.h ****       offset = -Sine(phase_shift);
 817              		.loc 4 171 19 view .LVU256
 818 00b8 B6EE087A 		vmov.f32	s14, #7.5e-1
 819 00bc 9FED16AA 		vldr.32	s20, .L40+16
 171:eurorack/plaits/dsp/oscillator/z_oscillator.h ****       offset = -Sine(phase_shift);
 820              		.loc 4 171 37 view .LVU257
 821 00c0 79EE677A 		vsub.f32	s15, s18, s15
 171:eurorack/plaits/dsp/oscillator/z_oscillator.h ****       offset = -Sine(phase_shift);
 822              		.loc 4 171 19 view .LVU258
 823 00c4 A7EEC7AA 		vfms.f32	s20, s15, s14
 170:eurorack/plaits/dsp/oscillator/z_oscillator.h ****       phase_shift = 0.7495f - (mode - 0.33f) * 0.75f;
 824              		.loc 4 170 12 view .LVU259
 825 00c8 DFED147A 		vldr.32	s15, .L40+20
 826 00cc B4EEE79A 		vcmpe.f32	s18, s15
 827 00d0 F1EE10FA 		vmrs	APSR_nzcv, FPSCR
 828 00d4 09D5     		bpl	.L38
 171:eurorack/plaits/dsp/oscillator/z_oscillator.h ****       offset = -Sine(phase_shift);
 829              		.loc 4 171 7 is_stmt 1 view .LVU260
 830              	.LVL69:
 172:eurorack/plaits/dsp/oscillator/z_oscillator.h ****     } else {
 831              		.loc 4 172 7 view .LVU261
 832              	.LBB220:
 833              	.LBI220:
 158:eurorack/plaits/dsp/oscillator/z_oscillator.h ****     return stmlib::InterpolateWrap(lut_sine, phase, 1024.0f);
 834              		.loc 4 158 16 view .LVU262
 835              	.LBB221:
 159:eurorack/plaits/dsp/oscillator/z_oscillator.h ****   }
 836              		.loc 4 159 5 view .LVU263
 159:eurorack/plaits/dsp/oscillator/z_oscillator.h ****   }
 837              		.loc 4 159 35 is_stmt 0 view .LVU264
 838 00d6 B0EE4A0A 		vmov.f32	s0, s20
 839 00da DFED0C0A 		vldr.32	s1, .L40+4
 840 00de 0A48     		ldr	r0, .L40
 841 00e0 FFF7FEFF 		bl	_ZN6stmlib15InterpolateWrapEPKfff
 842              	.LVL70:
 159:eurorack/plaits/dsp/oscillator/z_oscillator.h ****   }
 843              		.loc 4 159 35 view .LVU265
 844              	.LBE221:
 845              	.LBE220:
 172:eurorack/plaits/dsp/oscillator/z_oscillator.h ****     } else {
 846              		.loc 4 172 14 view .LVU266
 847 00e4 B1EE409A 		vneg.f32	s18, s0
 848              	.LVL71:
 172:eurorack/plaits/dsp/oscillator/z_oscillator.h ****     } else {
 849              		.loc 4 172 14 view .LVU267
 850 00e8 B9E7     		b	.L25
 851              	.LVL72:
 852              	.L38:
 175:eurorack/plaits/dsp/oscillator/z_oscillator.h ****     }
 853              		.loc 4 175 14 view .LVU268
 854 00ea 9FED0D9A 		vldr.32	s18, .L40+24
 855              	.LVL73:
 175:eurorack/plaits/dsp/oscillator/z_oscillator.h ****     }
 856              		.loc 4 175 14 view .LVU269
 857 00ee B6E7     		b	.L25
 858              	.LVL74:
ARM GAS  /var/folders/9s/8rp0_f2s1n31qbztm3b5_fdh0000gn/T//cc7CgoqZ.s 			page 30


 859              	.L39:
 187:eurorack/plaits/dsp/oscillator/z_oscillator.h ****     }
 860              		.loc 4 187 7 is_stmt 1 view .LVU270
 861              	.LBB222:
 862              	.LBI222:
 158:eurorack/plaits/dsp/oscillator/z_oscillator.h ****     return stmlib::InterpolateWrap(lut_sine, phase, 1024.0f);
 863              		.loc 4 158 16 view .LVU271
 864              	.LBB223:
 159:eurorack/plaits/dsp/oscillator/z_oscillator.h ****   }
 865              		.loc 4 159 5 view .LVU272
 159:eurorack/plaits/dsp/oscillator/z_oscillator.h ****   }
 866              		.loc 4 159 35 is_stmt 0 view .LVU273
 867 00f0 B0EE6A0A 		vmov.f32	s0, s21
 868              	.LVL75:
 159:eurorack/plaits/dsp/oscillator/z_oscillator.h ****   }
 869              		.loc 4 159 35 view .LVU274
 870 00f4 DFED050A 		vldr.32	s1, .L40+4
 871 00f8 0348     		ldr	r0, .L40
 872 00fa A8EE8B0A 		vfma.f32	s0, s17, s22
 873              	.LVL76:
 159:eurorack/plaits/dsp/oscillator/z_oscillator.h ****   }
 874              		.loc 4 159 35 view .LVU275
 875 00fe FFF7FEFF 		bl	_ZN6stmlib15InterpolateWrapEPKfff
 876              	.LVL77:
 159:eurorack/plaits/dsp/oscillator/z_oscillator.h ****   }
 877              		.loc 4 159 35 view .LVU276
 878 0102 B0EE408A 		vmov.f32	s16, s0
 879              	.LVL78:
 159:eurorack/plaits/dsp/oscillator/z_oscillator.h ****   }
 880              		.loc 4 159 35 view .LVU277
 881 0106 CCE7     		b	.L31
 882              	.L41:
 883              		.align	2
 884              	.L40:
 885 0108 00000000 		.word	_ZN6plaits8lut_sineE
 886 010c 00008044 		.word	1149239296
 887 0110 FA7EAA3E 		.word	1051361018
 888 0114 C3F5A83E 		.word	1051260355
 889 0118 3BDF3F3F 		.word	1061150523
 890 011c FA7E2A3F 		.word	1059749626
 891 0120 6F12833A 		.word	981668463
 892              	.LBE223:
 893              	.LBE222:
 894              		.cfi_endproc
 895              	.LFE1622:
 897              		.section	.text._ZN6stmlib16SemitonesToRatioEf,"axG",%progbits,_ZN6stmlib16SemitonesToRatioEf,comda
 898              		.align	1
 899              		.weak	_ZN6stmlib16SemitonesToRatioEf
 900              		.syntax unified
 901              		.thumb
 902              		.thumb_func
 904              	_ZN6stmlib16SemitonesToRatioEf:
 905              	.LVL79:
 906              	.LFB1493:
 907              		.file 6 "eurorack/stmlib/dsp/units.h"
   1:eurorack/stmlib/dsp/units.h **** // Copyright 2014 Emilie Gillet.
   2:eurorack/stmlib/dsp/units.h **** //
ARM GAS  /var/folders/9s/8rp0_f2s1n31qbztm3b5_fdh0000gn/T//cc7CgoqZ.s 			page 31


   3:eurorack/stmlib/dsp/units.h **** // Author: Emilie Gillet (emilie.o.gillet@gmail.com)
   4:eurorack/stmlib/dsp/units.h **** //
   5:eurorack/stmlib/dsp/units.h **** // Permission is hereby granted, free of charge, to any person obtaining a copy
   6:eurorack/stmlib/dsp/units.h **** // of this software and associated documentation files (the "Software"), to deal
   7:eurorack/stmlib/dsp/units.h **** // in the Software without restriction, including without limitation the rights
   8:eurorack/stmlib/dsp/units.h **** // to use, copy, modify, merge, publish, distribute, sublicense, and/or sell
   9:eurorack/stmlib/dsp/units.h **** // copies of the Software, and to permit persons to whom the Software is
  10:eurorack/stmlib/dsp/units.h **** // furnished to do so, subject to the following conditions:
  11:eurorack/stmlib/dsp/units.h **** // 
  12:eurorack/stmlib/dsp/units.h **** // The above copyright notice and this permission notice shall be included in
  13:eurorack/stmlib/dsp/units.h **** // all copies or substantial portions of the Software.
  14:eurorack/stmlib/dsp/units.h **** // 
  15:eurorack/stmlib/dsp/units.h **** // THE SOFTWARE IS PROVIDED "AS IS", WITHOUT WARRANTY OF ANY KIND, EXPRESS OR
  16:eurorack/stmlib/dsp/units.h **** // IMPLIED, INCLUDING BUT NOT LIMITED TO THE WARRANTIES OF MERCHANTABILITY,
  17:eurorack/stmlib/dsp/units.h **** // FITNESS FOR A PARTICULAR PURPOSE AND NONINFRINGEMENT. IN NO EVENT SHALL THE
  18:eurorack/stmlib/dsp/units.h **** // AUTHORS OR COPYRIGHT HOLDERS BE LIABLE FOR ANY CLAIM, DAMAGES OR OTHER
  19:eurorack/stmlib/dsp/units.h **** // LIABILITY, WHETHER IN AN ACTION OF CONTRACT, TORT OR OTHERWISE, ARISING FROM,
  20:eurorack/stmlib/dsp/units.h **** // OUT OF OR IN CONNECTION WITH THE SOFTWARE OR THE USE OR OTHER DEALINGS IN
  21:eurorack/stmlib/dsp/units.h **** // THE SOFTWARE.
  22:eurorack/stmlib/dsp/units.h **** // 
  23:eurorack/stmlib/dsp/units.h **** // See http://creativecommons.org/licenses/MIT/ for more information.
  24:eurorack/stmlib/dsp/units.h **** //
  25:eurorack/stmlib/dsp/units.h **** // -----------------------------------------------------------------------------
  26:eurorack/stmlib/dsp/units.h **** //
  27:eurorack/stmlib/dsp/units.h **** // Conversion from semitones to frequency ratio.
  28:eurorack/stmlib/dsp/units.h **** 
  29:eurorack/stmlib/dsp/units.h **** #ifndef STMLIB_DSP_UNITS_H_
  30:eurorack/stmlib/dsp/units.h **** #define STMLIB_DSP_UNITS_H_
  31:eurorack/stmlib/dsp/units.h **** 
  32:eurorack/stmlib/dsp/units.h **** #include "stmlib/stmlib.h"
  33:eurorack/stmlib/dsp/units.h **** #include "stmlib/dsp/dsp.h"
  34:eurorack/stmlib/dsp/units.h **** 
  35:eurorack/stmlib/dsp/units.h **** namespace stmlib {
  36:eurorack/stmlib/dsp/units.h **** 
  37:eurorack/stmlib/dsp/units.h **** extern const float lut_pitch_ratio_high[257];
  38:eurorack/stmlib/dsp/units.h **** extern const float lut_pitch_ratio_low[257];
  39:eurorack/stmlib/dsp/units.h **** 
  40:eurorack/stmlib/dsp/units.h **** inline float SemitonesToRatio(float semitones) {
 908              		.loc 6 40 48 is_stmt 1 view -0
 909              		.cfi_startproc
 910              		@ args = 0, pretend = 0, frame = 0
 911              		@ frame_needed = 0, uses_anonymous_args = 0
 912              		@ link register save eliminated.
  41:eurorack/stmlib/dsp/units.h ****   float pitch = semitones + 128.0f;
 913              		.loc 6 41 3 view .LVU279
 914              		.loc 6 41 9 is_stmt 0 view .LVU280
 915 0000 DFED0E7A 		vldr.32	s15, .L43
  42:eurorack/stmlib/dsp/units.h ****   MAKE_INTEGRAL_FRACTIONAL(pitch)
  43:eurorack/stmlib/dsp/units.h **** 
  44:eurorack/stmlib/dsp/units.h ****   return lut_pitch_ratio_high[pitch_integral] * \
  45:eurorack/stmlib/dsp/units.h ****       lut_pitch_ratio_low[static_cast<int32_t>(pitch_fractional * 256.0f)];
 916              		.loc 6 45 74 view .LVU281
 917 0004 0E4A     		ldr	r2, .L43+4
  41:eurorack/stmlib/dsp/units.h ****   float pitch = semitones + 128.0f;
 918              		.loc 6 41 9 view .LVU282
 919 0006 30EE270A 		vadd.f32	s0, s0, s15
 920              	.LVL80:
ARM GAS  /var/folders/9s/8rp0_f2s1n31qbztm3b5_fdh0000gn/T//cc7CgoqZ.s 			page 32


  42:eurorack/stmlib/dsp/units.h ****   MAKE_INTEGRAL_FRACTIONAL(pitch)
 921              		.loc 6 42 3 is_stmt 1 view .LVU283
 922 000a FDEEC07A 		vcvt.s32.f32	s15, s0
 923              	.LVL81:
  42:eurorack/stmlib/dsp/units.h ****   MAKE_INTEGRAL_FRACTIONAL(pitch)
 924              		.loc 6 42 3 view .LVU284
  44:eurorack/stmlib/dsp/units.h ****       lut_pitch_ratio_low[static_cast<int32_t>(pitch_fractional * 256.0f)];
 925              		.loc 6 44 3 view .LVU285
  42:eurorack/stmlib/dsp/units.h ****   MAKE_INTEGRAL_FRACTIONAL(pitch)
 926              		.loc 6 42 3 is_stmt 0 view .LVU286
 927 000e B8EEE77A 		vcvt.f32.s32	s14, s15
  44:eurorack/stmlib/dsp/units.h ****       lut_pitch_ratio_low[static_cast<int32_t>(pitch_fractional * 256.0f)];
 928              		.loc 6 44 45 view .LVU287
 929 0012 17EE901A 		vmov	r1, s15	@ int
  42:eurorack/stmlib/dsp/units.h ****   MAKE_INTEGRAL_FRACTIONAL(pitch)
 930              		.loc 6 42 3 view .LVU288
 931 0016 30EE470A 		vsub.f32	s0, s0, s14
 932              	.LVL82:
 933              		.loc 6 45 27 view .LVU289
 934 001a BEEECC0A 		vcvt.s32.f32	s0, s0, #8
 935              	.LVL83:
 936              		.loc 6 45 74 view .LVU290
 937 001e 10EE103A 		vmov	r3, s0	@ int
 938 0022 02EB8302 		add	r2, r2, r3, lsl #2
  44:eurorack/stmlib/dsp/units.h ****       lut_pitch_ratio_low[static_cast<int32_t>(pitch_fractional * 256.0f)];
 939              		.loc 6 44 45 view .LVU291
 940 0026 074B     		ldr	r3, .L43+8
 941 0028 03EB8103 		add	r3, r3, r1, lsl #2
 942              		.loc 6 45 74 view .LVU292
 943 002c 92ED000A 		vldr.32	s0, [r2]
 944 0030 D3ED007A 		vldr.32	s15, [r3]
 945              	.LVL84:
  46:eurorack/stmlib/dsp/units.h **** }
 946              		.loc 6 46 1 view .LVU293
 947 0034 20EE270A 		vmul.f32	s0, s0, s15
 948 0038 7047     		bx	lr
 949              	.L44:
 950 003a 00BF     		.align	2
 951              	.L43:
 952 003c 00000043 		.word	1124073472
 953 0040 00000000 		.word	_ZN6stmlib19lut_pitch_ratio_lowE
 954 0044 00000000 		.word	_ZN6stmlib20lut_pitch_ratio_highE
 955              		.cfi_endproc
 956              	.LFE1493:
 958              		.section	.text._ZN6plaits15NoteToFrequencyEf,"axG",%progbits,_ZN6plaits15NoteToFrequencyEf,comdat
 959              		.align	1
 960              		.weak	_ZN6plaits15NoteToFrequencyEf
 961              		.syntax unified
 962              		.thumb
 963              		.thumb_func
 965              	_ZN6plaits15NoteToFrequencyEf:
 966              	.LVL85:
 967              	.LFB1510:
 968              		.file 7 "eurorack/plaits/dsp/engine/engine.h"
   1:eurorack/plaits/dsp/engine/engine.h **** // Copyright 2016 Emilie Gillet.
   2:eurorack/plaits/dsp/engine/engine.h **** //
   3:eurorack/plaits/dsp/engine/engine.h **** // Author: Emilie Gillet (emilie.o.gillet@gmail.com)
ARM GAS  /var/folders/9s/8rp0_f2s1n31qbztm3b5_fdh0000gn/T//cc7CgoqZ.s 			page 33


   4:eurorack/plaits/dsp/engine/engine.h **** //
   5:eurorack/plaits/dsp/engine/engine.h **** // Permission is hereby granted, free of charge, to any person obtaining a copy
   6:eurorack/plaits/dsp/engine/engine.h **** // of this software and associated documentation files (the "Software"), to deal
   7:eurorack/plaits/dsp/engine/engine.h **** // in the Software without restriction, including without limitation the rights
   8:eurorack/plaits/dsp/engine/engine.h **** // to use, copy, modify, merge, publish, distribute, sublicense, and/or sell
   9:eurorack/plaits/dsp/engine/engine.h **** // copies of the Software, and to permit persons to whom the Software is
  10:eurorack/plaits/dsp/engine/engine.h **** // furnished to do so, subject to the following conditions:
  11:eurorack/plaits/dsp/engine/engine.h **** // 
  12:eurorack/plaits/dsp/engine/engine.h **** // The above copyright notice and this permission notice shall be included in
  13:eurorack/plaits/dsp/engine/engine.h **** // all copies or substantial portions of the Software.
  14:eurorack/plaits/dsp/engine/engine.h **** // 
  15:eurorack/plaits/dsp/engine/engine.h **** // THE SOFTWARE IS PROVIDED "AS IS", WITHOUT WARRANTY OF ANY KIND, EXPRESS OR
  16:eurorack/plaits/dsp/engine/engine.h **** // IMPLIED, INCLUDING BUT NOT LIMITED TO THE WARRANTIES OF MERCHANTABILITY,
  17:eurorack/plaits/dsp/engine/engine.h **** // FITNESS FOR A PARTICULAR PURPOSE AND NONINFRINGEMENT. IN NO EVENT SHALL THE
  18:eurorack/plaits/dsp/engine/engine.h **** // AUTHORS OR COPYRIGHT HOLDERS BE LIABLE FOR ANY CLAIM, DAMAGES OR OTHER
  19:eurorack/plaits/dsp/engine/engine.h **** // LIABILITY, WHETHER IN AN ACTION OF CONTRACT, TORT OR OTHERWISE, ARISING FROM,
  20:eurorack/plaits/dsp/engine/engine.h **** // OUT OF OR IN CONNECTION WITH THE SOFTWARE OR THE USE OR OTHER DEALINGS IN
  21:eurorack/plaits/dsp/engine/engine.h **** // THE SOFTWARE.
  22:eurorack/plaits/dsp/engine/engine.h **** // 
  23:eurorack/plaits/dsp/engine/engine.h **** // See http://creativecommons.org/licenses/MIT/ for more information.
  24:eurorack/plaits/dsp/engine/engine.h **** //
  25:eurorack/plaits/dsp/engine/engine.h **** // -----------------------------------------------------------------------------
  26:eurorack/plaits/dsp/engine/engine.h **** //
  27:eurorack/plaits/dsp/engine/engine.h **** // Base class for all engines.
  28:eurorack/plaits/dsp/engine/engine.h **** 
  29:eurorack/plaits/dsp/engine/engine.h **** #ifndef PLAITS_DSP_ENGINE_ENGINE_H_
  30:eurorack/plaits/dsp/engine/engine.h **** #define PLAITS_DSP_ENGINE_ENGINE_H_
  31:eurorack/plaits/dsp/engine/engine.h **** 
  32:eurorack/plaits/dsp/engine/engine.h **** #include "plaits/dsp/dsp.h"
  33:eurorack/plaits/dsp/engine/engine.h **** 
  34:eurorack/plaits/dsp/engine/engine.h **** #include "stmlib/dsp/units.h"
  35:eurorack/plaits/dsp/engine/engine.h **** #include "stmlib/utils/buffer_allocator.h"
  36:eurorack/plaits/dsp/engine/engine.h **** 
  37:eurorack/plaits/dsp/engine/engine.h **** namespace plaits {
  38:eurorack/plaits/dsp/engine/engine.h **** 
  39:eurorack/plaits/dsp/engine/engine.h **** inline float NoteToFrequency(float midi_note) {
 969              		.loc 7 39 47 is_stmt 1 view -0
 970              		.cfi_startproc
 971              		@ args = 0, pretend = 0, frame = 0
 972              		@ frame_needed = 0, uses_anonymous_args = 0
  40:eurorack/plaits/dsp/engine/engine.h ****   midi_note -= 9.0f;
 973              		.loc 7 40 3 view .LVU295
 974              		.loc 7 40 13 is_stmt 0 view .LVU296
 975 0000 F2EE027A 		vmov.f32	s15, #9.0e+0
  39:eurorack/plaits/dsp/engine/engine.h ****   midi_note -= 9.0f;
 976              		.loc 7 39 47 view .LVU297
 977 0004 08B5     		push	{r3, lr}
 978              		.cfi_def_cfa_offset 8
 979              		.cfi_offset 3, -8
 980              		.cfi_offset 14, -4
 981              		.loc 7 40 13 view .LVU298
 982 0006 30EE670A 		vsub.f32	s0, s0, s15
 983              	.LVL86:
  41:eurorack/plaits/dsp/engine/engine.h ****   CONSTRAIN(midi_note, -128.0f, 127.0f);
 984              		.loc 7 41 3 is_stmt 1 view .LVU299
 985 000a DFED0C7A 		vldr.32	s15, .L50
 986 000e B4EEE70A 		vcmpe.f32	s0, s15
ARM GAS  /var/folders/9s/8rp0_f2s1n31qbztm3b5_fdh0000gn/T//cc7CgoqZ.s 			page 34


 987 0012 F1EE10FA 		vmrs	APSR_nzcv, FPSCR
 988 0016 0ED4     		bmi	.L48
 989              		.loc 7 41 3 discriminator 2 view .LVU300
 990 0018 DFED097A 		vldr.32	s15, .L50+4
 991 001c B4EE670A 		vcmp.f32	s0, s15
 992 0020 F1EE10FA 		vmrs	APSR_nzcv, FPSCR
 993 0024 37FE800A 		vselgt.f32	s0, s15, s0
 994              	.LVL87:
 995              	.L46:
 996              		.loc 7 41 40 discriminator 6 view .LVU301
  42:eurorack/plaits/dsp/engine/engine.h ****   return a0 * 0.25f * stmlib::SemitonesToRatio(midi_note);
 997              		.loc 7 42 3 discriminator 6 view .LVU302
 998              		.loc 7 42 47 is_stmt 0 discriminator 6 view .LVU303
 999 0028 FFF7FEFF 		bl	_ZN6stmlib16SemitonesToRatioEf
 1000              	.LVL88:
  43:eurorack/plaits/dsp/engine/engine.h **** }
 1001              		.loc 7 43 1 discriminator 6 view .LVU304
 1002 002c DFED057A 		vldr.32	s15, .L50+8
 1003 0030 20EE270A 		vmul.f32	s0, s0, s15
 1004 0034 08BD     		pop	{r3, pc}
 1005              	.LVL89:
 1006              	.L48:
  41:eurorack/plaits/dsp/engine/engine.h ****   CONSTRAIN(midi_note, -128.0f, 127.0f);
 1007              		.loc 7 41 3 view .LVU305
 1008 0036 B0EE670A 		vmov.f32	s0, s15
 1009              	.LVL90:
  41:eurorack/plaits/dsp/engine/engine.h ****   CONSTRAIN(midi_note, -128.0f, 127.0f);
 1010              		.loc 7 41 3 view .LVU306
 1011 003a F5E7     		b	.L46
 1012              	.L51:
 1013              		.align	2
 1014              	.L50:
 1015 003c 000000C3 		.word	-1023410176
 1016 0040 0000FE42 		.word	1123942400
 1017 0044 51969639 		.word	966170193
 1018              		.cfi_endproc
 1019              	.LFE1510:
 1021              		.section	.text._ZN6plaits18GrainletOscillator6RenderEffffPfj,"axG",%progbits,_ZN6plaits18GrainletO
 1022              		.align	1
 1023              		.weak	_ZN6plaits18GrainletOscillator6RenderEffffPfj
 1024              		.syntax unified
 1025              		.thumb
 1026              		.thumb_func
 1028              	_ZN6plaits18GrainletOscillator6RenderEffffPfj:
 1029              	.LVL91:
 1030              	.LFB1580:
  58:eurorack/plaits/dsp/oscillator/grainlet_oscillator.h ****       float carrier_frequency,
 1031              		.loc 2 58 8 is_stmt 1 view -0
 1032              		.cfi_startproc
 1033              		@ args = 0, pretend = 0, frame = 0
 1034              		@ frame_needed = 0, uses_anonymous_args = 0
  65:eurorack/plaits/dsp/oscillator/grainlet_oscillator.h ****       carrier_frequency = kMaxFrequency * 0.5f;
 1035              		.loc 2 65 5 view .LVU308
 1036 0000 F4EE007A 		vmov.f32	s15, #1.25e-1
  58:eurorack/plaits/dsp/oscillator/grainlet_oscillator.h ****       float carrier_frequency,
 1037              		.loc 2 58 8 is_stmt 0 view .LVU309
 1038 0004 70B5     		push	{r4, r5, r6, lr}
ARM GAS  /var/folders/9s/8rp0_f2s1n31qbztm3b5_fdh0000gn/T//cc7CgoqZ.s 			page 35


 1039              		.cfi_def_cfa_offset 16
 1040              		.cfi_offset 4, -16
 1041              		.cfi_offset 5, -12
 1042              		.cfi_offset 6, -8
 1043              		.cfi_offset 14, -4
  66:eurorack/plaits/dsp/oscillator/grainlet_oscillator.h ****     }
 1044              		.loc 2 66 25 view .LVU310
 1045 0006 B4EE670A 		vcmp.f32	s0, s15
  58:eurorack/plaits/dsp/oscillator/grainlet_oscillator.h ****       float carrier_frequency,
 1046              		.loc 2 58 8 view .LVU311
 1047 000a 0446     		mov	r4, r0
 1048 000c 0E46     		mov	r6, r1
 1049 000e 1546     		mov	r5, r2
  66:eurorack/plaits/dsp/oscillator/grainlet_oscillator.h ****     }
 1050              		.loc 2 66 25 view .LVU312
 1051 0010 F1EE10FA 		vmrs	APSR_nzcv, FPSCR
  58:eurorack/plaits/dsp/oscillator/grainlet_oscillator.h ****       float carrier_frequency,
 1052              		.loc 2 58 8 view .LVU313
 1053 0014 2DED0E8B 		vpush.64	{d8, d9, d10, d11, d12, d13, d14}
 1054              		.cfi_def_cfa_offset 72
 1055              		.cfi_offset 80, -72
 1056              		.cfi_offset 81, -68
 1057              		.cfi_offset 82, -64
 1058              		.cfi_offset 83, -60
 1059              		.cfi_offset 84, -56
 1060              		.cfi_offset 85, -52
 1061              		.cfi_offset 86, -48
 1062              		.cfi_offset 87, -44
 1063              		.cfi_offset 88, -40
 1064              		.cfi_offset 89, -36
 1065              		.cfi_offset 90, -32
 1066              		.cfi_offset 91, -28
 1067              		.cfi_offset 92, -24
 1068              		.cfi_offset 93, -20
  66:eurorack/plaits/dsp/oscillator/grainlet_oscillator.h ****     }
 1069              		.loc 2 66 25 view .LVU314
 1070 0018 27FE800A 		vselge.f32	s0, s15, s0
 1071              	.LVL92:
  68:eurorack/plaits/dsp/oscillator/grainlet_oscillator.h ****       formant_frequency = kMaxFrequency;
 1072              		.loc 2 68 5 is_stmt 1 view .LVU315
 1073 001c F5EE007A 		vmov.f32	s15, #2.5e-1
 1074              	.LBB275:
 1075              	.LBB276:
 1076              	.LBB277:
 1077              		.file 8 "eurorack/stmlib/dsp/parameter_interpolator.h"
   1:eurorack/stmlib/dsp/parameter_interpolator.h **** // Copyright 2015 Emilie Gillet.
   2:eurorack/stmlib/dsp/parameter_interpolator.h **** //
   3:eurorack/stmlib/dsp/parameter_interpolator.h **** // Author: Emilie Gillet (emilie.o.gillet@gmail.com)
   4:eurorack/stmlib/dsp/parameter_interpolator.h **** //
   5:eurorack/stmlib/dsp/parameter_interpolator.h **** // Permission is hereby granted, free of charge, to any person obtaining a copy
   6:eurorack/stmlib/dsp/parameter_interpolator.h **** // of this software and associated documentation files (the "Software"), to deal
   7:eurorack/stmlib/dsp/parameter_interpolator.h **** // in the Software without restriction, including without limitation the rights
   8:eurorack/stmlib/dsp/parameter_interpolator.h **** // to use, copy, modify, merge, publish, distribute, sublicense, and/or sell
   9:eurorack/stmlib/dsp/parameter_interpolator.h **** // copies of the Software, and to permit persons to whom the Software is
  10:eurorack/stmlib/dsp/parameter_interpolator.h **** // furnished to do so, subject to the following conditions:
  11:eurorack/stmlib/dsp/parameter_interpolator.h **** // 
  12:eurorack/stmlib/dsp/parameter_interpolator.h **** // The above copyright notice and this permission notice shall be included in
ARM GAS  /var/folders/9s/8rp0_f2s1n31qbztm3b5_fdh0000gn/T//cc7CgoqZ.s 			page 36


  13:eurorack/stmlib/dsp/parameter_interpolator.h **** // all copies or substantial portions of the Software.
  14:eurorack/stmlib/dsp/parameter_interpolator.h **** // 
  15:eurorack/stmlib/dsp/parameter_interpolator.h **** // THE SOFTWARE IS PROVIDED "AS IS", WITHOUT WARRANTY OF ANY KIND, EXPRESS OR
  16:eurorack/stmlib/dsp/parameter_interpolator.h **** // IMPLIED, INCLUDING BUT NOT LIMITED TO THE WARRANTIES OF MERCHANTABILITY,
  17:eurorack/stmlib/dsp/parameter_interpolator.h **** // FITNESS FOR A PARTICULAR PURPOSE AND NONINFRINGEMENT. IN NO EVENT SHALL THE
  18:eurorack/stmlib/dsp/parameter_interpolator.h **** // AUTHORS OR COPYRIGHT HOLDERS BE LIABLE FOR ANY CLAIM, DAMAGES OR OTHER
  19:eurorack/stmlib/dsp/parameter_interpolator.h **** // LIABILITY, WHETHER IN AN ACTION OF CONTRACT, TORT OR OTHERWISE, ARISING FROM,
  20:eurorack/stmlib/dsp/parameter_interpolator.h **** // OUT OF OR IN CONNECTION WITH THE SOFTWARE OR THE USE OR OTHER DEALINGS IN
  21:eurorack/stmlib/dsp/parameter_interpolator.h **** // THE SOFTWARE.
  22:eurorack/stmlib/dsp/parameter_interpolator.h **** // 
  23:eurorack/stmlib/dsp/parameter_interpolator.h **** // See http://creativecommons.org/licenses/MIT/ for more information.
  24:eurorack/stmlib/dsp/parameter_interpolator.h **** //
  25:eurorack/stmlib/dsp/parameter_interpolator.h **** // -----------------------------------------------------------------------------
  26:eurorack/stmlib/dsp/parameter_interpolator.h **** //
  27:eurorack/stmlib/dsp/parameter_interpolator.h **** // Linear interpolation of parameters in rendering loops.
  28:eurorack/stmlib/dsp/parameter_interpolator.h **** 
  29:eurorack/stmlib/dsp/parameter_interpolator.h **** #ifndef STMLIB_DSP_PARAMETER_INTERPOLATOR_H_
  30:eurorack/stmlib/dsp/parameter_interpolator.h **** #define STMLIB_DSP_PARAMETER_INTERPOLATOR_H_
  31:eurorack/stmlib/dsp/parameter_interpolator.h **** 
  32:eurorack/stmlib/dsp/parameter_interpolator.h **** #include "stmlib/stmlib.h"
  33:eurorack/stmlib/dsp/parameter_interpolator.h **** 
  34:eurorack/stmlib/dsp/parameter_interpolator.h **** namespace stmlib {
  35:eurorack/stmlib/dsp/parameter_interpolator.h **** 
  36:eurorack/stmlib/dsp/parameter_interpolator.h **** class ParameterInterpolator {
  37:eurorack/stmlib/dsp/parameter_interpolator.h ****  public:
  38:eurorack/stmlib/dsp/parameter_interpolator.h ****   ParameterInterpolator() { }
  39:eurorack/stmlib/dsp/parameter_interpolator.h ****   ParameterInterpolator(float* state, float new_value, size_t size) {
  40:eurorack/stmlib/dsp/parameter_interpolator.h ****     Init(state, new_value, size);
  41:eurorack/stmlib/dsp/parameter_interpolator.h ****   }
  42:eurorack/stmlib/dsp/parameter_interpolator.h **** 
  43:eurorack/stmlib/dsp/parameter_interpolator.h ****   ParameterInterpolator(float* state, float new_value, float step) {
  44:eurorack/stmlib/dsp/parameter_interpolator.h ****     state_ = state;
  45:eurorack/stmlib/dsp/parameter_interpolator.h ****     value_ = *state;
  46:eurorack/stmlib/dsp/parameter_interpolator.h ****     increment_ = (new_value - *state) * step;
  47:eurorack/stmlib/dsp/parameter_interpolator.h ****   }
  48:eurorack/stmlib/dsp/parameter_interpolator.h **** 
  49:eurorack/stmlib/dsp/parameter_interpolator.h ****   ~ParameterInterpolator() {
  50:eurorack/stmlib/dsp/parameter_interpolator.h ****     *state_ = value_;
  51:eurorack/stmlib/dsp/parameter_interpolator.h ****   }
  52:eurorack/stmlib/dsp/parameter_interpolator.h ****   
  53:eurorack/stmlib/dsp/parameter_interpolator.h ****   inline void Init(float* state, float new_value, size_t size) {
  54:eurorack/stmlib/dsp/parameter_interpolator.h ****     state_ = state;
  55:eurorack/stmlib/dsp/parameter_interpolator.h ****     value_ = *state;
 1078              		.loc 8 55 14 is_stmt 0 view .LVU316
 1079 0020 90ED039A 		vldr.32	s18, [r0, #12]
 1080              	.LBE277:
 1081              	.LBE276:
 1082              	.LBE275:
 1083              	.LBB284:
 1084              	.LBB285:
 1085              	.LBB286:
 1086 0024 D0ED048A 		vldr.32	s17, [r0, #16]
 1087              	.LBE286:
 1088              	.LBE285:
 1089              	.LBE284:
  69:eurorack/plaits/dsp/oscillator/grainlet_oscillator.h ****     }
 1090              		.loc 2 69 25 view .LVU317
ARM GAS  /var/folders/9s/8rp0_f2s1n31qbztm3b5_fdh0000gn/T//cc7CgoqZ.s 			page 37


 1091 0028 F4EE670A 		vcmp.f32	s1, s15
 1092              	.LBB291:
 1093              	.LBB292:
 1094              	.LBB293:
 1095              		.loc 8 55 14 view .LVU318
 1096 002c D0ED059A 		vldr.32	s19, [r0, #20]
 1097              	.LBE293:
 1098              	.LBE292:
 1099              	.LBE291:
 1100              	.LBB298:
 1101              	.LBB299:
 1102              	.LBB300:
 1103 0030 90ED06DA 		vldr.32	s26, [r0, #24]
 1104              	.LBE300:
 1105              	.LBE299:
 1106              	.LBE298:
 1107              	.LBB305:
 1108              	.LBB281:
 1109              	.LBB278:
  56:eurorack/stmlib/dsp/parameter_interpolator.h ****     increment_ = (new_value - *state) / static_cast<float>(size);
 1110              		.loc 8 56 29 view .LVU319
 1111 0034 30EE490A 		vsub.f32	s0, s0, s18
 1112              	.LVL93:
 1113              		.loc 8 56 29 view .LVU320
 1114              	.LBE278:
 1115              	.LBE281:
 1116              	.LBE305:
 1117              	.LBB306:
 1118              	.LBB296:
 1119              	.LBB294:
 1120 0038 31EE691A 		vsub.f32	s2, s2, s19
 1121              	.LVL94:
 1122              		.loc 8 56 29 view .LVU321
 1123              	.LBE294:
 1124              	.LBE296:
 1125              	.LBE306:
  89:eurorack/plaits/dsp/oscillator/grainlet_oscillator.h ****     
 1126              		.loc 2 89 11 view .LVU322
 1127 003c 90ED02EA 		vldr.32	s28, [r0, #8]
  69:eurorack/plaits/dsp/oscillator/grainlet_oscillator.h ****     }
 1128              		.loc 2 69 25 view .LVU323
 1129 0040 F1EE10FA 		vmrs	APSR_nzcv, FPSCR
 1130              	.LVL95:
 1131              	.LBB307:
 1132              	.LBB303:
 1133              	.LBB301:
 1134              		.loc 8 56 29 view .LVU324
 1135 0044 71EECD1A 		vsub.f32	s3, s3, s26
 1136              	.LVL96:
 1137              		.loc 8 56 29 view .LVU325
 1138              	.LBE301:
 1139              	.LBE303:
 1140              	.LBE307:
  69:eurorack/plaits/dsp/oscillator/grainlet_oscillator.h ****     }
 1141              		.loc 2 69 25 view .LVU326
 1142 0048 67FEA00A 		vselge.f32	s1, s15, s1
 1143              	.LVL97:
ARM GAS  /var/folders/9s/8rp0_f2s1n31qbztm3b5_fdh0000gn/T//cc7CgoqZ.s 			page 38


  72:eurorack/plaits/dsp/oscillator/grainlet_oscillator.h ****         &carrier_frequency_,
 1144              		.loc 2 72 5 is_stmt 1 view .LVU327
 1145              	.LBB308:
 1146              	.LBI275:
  39:eurorack/stmlib/dsp/parameter_interpolator.h ****     Init(state, new_value, size);
 1147              		.loc 8 39 3 view .LVU328
 1148              	.LBE308:
  40:eurorack/stmlib/dsp/parameter_interpolator.h ****   }
 1149              		.loc 8 40 5 view .LVU329
 1150              	.LBB309:
 1151              	.LBB282:
 1152              	.LBI276:
  53:eurorack/stmlib/dsp/parameter_interpolator.h ****     state_ = state;
 1153              		.loc 8 53 15 view .LVU330
 1154              	.LBB279:
  54:eurorack/stmlib/dsp/parameter_interpolator.h ****     value_ = *state;
 1155              		.loc 8 54 5 view .LVU331
  55:eurorack/stmlib/dsp/parameter_interpolator.h ****     increment_ = (new_value - *state) / static_cast<float>(size);
 1156              		.loc 8 55 5 view .LVU332
 1157              		.loc 8 56 5 view .LVU333
 1158              		.loc 8 56 41 is_stmt 0 view .LVU334
 1159 004c 07EE902A 		vmov	s15, r2	@ int
 1160              	.LBE279:
 1161              	.LBE282:
 1162              	.LBE309:
 1163              	.LBB310:
 1164              	.LBB289:
 1165              	.LBB287:
 1166              		.loc 8 56 29 view .LVU335
 1167 0050 70EEE80A 		vsub.f32	s1, s1, s17
 1168              	.LVL98:
 1169              		.loc 8 56 29 view .LVU336
 1170              	.LBE287:
 1171              	.LBE289:
 1172              	.LBE310:
 1173              	.LBB311:
 1174              	.LBB283:
 1175              	.LBB280:
 1176              		.loc 8 56 41 view .LVU337
 1177 0054 F8EE677A 		vcvt.f32.u32	s15, s15
 1178              		.loc 8 56 39 view .LVU338
 1179 0058 C0EE27AA 		vdiv.f32	s21, s0, s15
 1180              	.LVL99:
 1181              		.loc 8 56 39 view .LVU339
 1182              	.LBE280:
 1183              	.LBE283:
 1184              	.LBE311:
  76:eurorack/plaits/dsp/oscillator/grainlet_oscillator.h ****         &formant_frequency_,
 1185              		.loc 2 76 5 is_stmt 1 view .LVU340
 1186              	.LBB312:
 1187              	.LBI284:
  39:eurorack/stmlib/dsp/parameter_interpolator.h ****     Init(state, new_value, size);
 1188              		.loc 8 39 3 view .LVU341
 1189              	.LBE312:
  40:eurorack/stmlib/dsp/parameter_interpolator.h ****   }
 1190              		.loc 8 40 5 view .LVU342
 1191              	.LBB313:
ARM GAS  /var/folders/9s/8rp0_f2s1n31qbztm3b5_fdh0000gn/T//cc7CgoqZ.s 			page 39


 1192              	.LBB290:
 1193              	.LBI285:
  53:eurorack/stmlib/dsp/parameter_interpolator.h ****     state_ = state;
 1194              		.loc 8 53 15 view .LVU343
 1195              	.LBB288:
  54:eurorack/stmlib/dsp/parameter_interpolator.h ****     value_ = *state;
 1196              		.loc 8 54 5 view .LVU344
  55:eurorack/stmlib/dsp/parameter_interpolator.h ****     increment_ = (new_value - *state) / static_cast<float>(size);
 1197              		.loc 8 55 5 view .LVU345
 1198              		.loc 8 56 5 view .LVU346
 1199              		.loc 8 56 39 is_stmt 0 view .LVU347
 1200 005c C0EEA7BA 		vdiv.f32	s23, s1, s15
 1201              	.LVL100:
 1202              		.loc 8 56 39 view .LVU348
 1203              	.LBE288:
 1204              	.LBE290:
 1205              	.LBE313:
  80:eurorack/plaits/dsp/oscillator/grainlet_oscillator.h ****         &carrier_shape_,
 1206              		.loc 2 80 5 is_stmt 1 view .LVU349
 1207              	.LBB314:
 1208              	.LBI291:
  39:eurorack/stmlib/dsp/parameter_interpolator.h ****     Init(state, new_value, size);
 1209              		.loc 8 39 3 view .LVU350
 1210              	.LBE314:
  40:eurorack/stmlib/dsp/parameter_interpolator.h ****   }
 1211              		.loc 8 40 5 view .LVU351
 1212              	.LBB315:
 1213              	.LBB297:
 1214              	.LBI292:
  53:eurorack/stmlib/dsp/parameter_interpolator.h ****     state_ = state;
 1215              		.loc 8 53 15 view .LVU352
 1216              	.LBB295:
  54:eurorack/stmlib/dsp/parameter_interpolator.h ****     value_ = *state;
 1217              		.loc 8 54 5 view .LVU353
  55:eurorack/stmlib/dsp/parameter_interpolator.h ****     increment_ = (new_value - *state) / static_cast<float>(size);
 1218              		.loc 8 55 5 view .LVU354
 1219              		.loc 8 56 5 view .LVU355
 1220              		.loc 8 56 39 is_stmt 0 view .LVU356
 1221 0060 81EE27CA 		vdiv.f32	s24, s2, s15
 1222              	.LVL101:
 1223              		.loc 8 56 39 view .LVU357
 1224              	.LBE295:
 1225              	.LBE297:
 1226              	.LBE315:
  84:eurorack/plaits/dsp/oscillator/grainlet_oscillator.h ****         &carrier_bleed_,
 1227              		.loc 2 84 5 is_stmt 1 view .LVU358
 1228              	.LBB316:
 1229              	.LBI298:
  39:eurorack/stmlib/dsp/parameter_interpolator.h ****     Init(state, new_value, size);
 1230              		.loc 8 39 3 view .LVU359
 1231              	.LBE316:
  40:eurorack/stmlib/dsp/parameter_interpolator.h ****   }
 1232              		.loc 8 40 5 view .LVU360
 1233              	.LBB317:
 1234              	.LBB304:
 1235              	.LBI299:
  53:eurorack/stmlib/dsp/parameter_interpolator.h ****     state_ = state;
ARM GAS  /var/folders/9s/8rp0_f2s1n31qbztm3b5_fdh0000gn/T//cc7CgoqZ.s 			page 40


 1236              		.loc 8 53 15 view .LVU361
 1237              	.LBB302:
  54:eurorack/stmlib/dsp/parameter_interpolator.h ****     value_ = *state;
 1238              		.loc 8 54 5 view .LVU362
  55:eurorack/stmlib/dsp/parameter_interpolator.h ****     increment_ = (new_value - *state) / static_cast<float>(size);
 1239              		.loc 8 55 5 view .LVU363
 1240              		.loc 8 56 5 view .LVU364
 1241              		.loc 8 56 39 is_stmt 0 view .LVU365
 1242 0064 81EEA7BA 		vdiv.f32	s22, s3, s15
 1243              	.LVL102:
 1244              		.loc 8 56 39 view .LVU366
 1245              	.LBE302:
 1246              	.LBE304:
 1247              	.LBE317:
  89:eurorack/plaits/dsp/oscillator/grainlet_oscillator.h ****     
 1248              		.loc 2 89 5 is_stmt 1 view .LVU367
 1249              	.L62:
  91:eurorack/plaits/dsp/oscillator/grainlet_oscillator.h ****       bool reset = false;
 1250              		.loc 2 91 5 view .LVU368
  91:eurorack/plaits/dsp/oscillator/grainlet_oscillator.h ****       bool reset = false;
 1251              		.loc 2 91 16 view .LVU369
 1252 0068 013D     		subs	r5, r5, #1
 1253              	.LVL103:
  91:eurorack/plaits/dsp/oscillator/grainlet_oscillator.h ****       bool reset = false;
 1254              		.loc 2 91 16 is_stmt 0 view .LVU370
 1255 006a 6DD3     		bcc	.L57
 1256              	.LBB318:
  92:eurorack/plaits/dsp/oscillator/grainlet_oscillator.h ****       float reset_time = 0.0f;
 1257              		.loc 2 92 7 is_stmt 1 view .LVU371
 1258              	.LVL104:
  93:eurorack/plaits/dsp/oscillator/grainlet_oscillator.h **** 
 1259              		.loc 2 93 7 view .LVU372
  95:eurorack/plaits/dsp/oscillator/grainlet_oscillator.h ****       next_sample = 0.0f;
 1260              		.loc 2 95 7 view .LVU373
  96:eurorack/plaits/dsp/oscillator/grainlet_oscillator.h ****     
 1261              		.loc 2 96 7 view .LVU374
  98:eurorack/plaits/dsp/oscillator/grainlet_oscillator.h ****       const float f1 = formant_frequency_modulation.Next();
 1262              		.loc 2 98 7 view .LVU375
 1263              	.LBB319:
 1264              	.LBI319:
  57:eurorack/stmlib/dsp/parameter_interpolator.h ****   }
  58:eurorack/stmlib/dsp/parameter_interpolator.h **** 
  59:eurorack/stmlib/dsp/parameter_interpolator.h ****   inline float Next() {
 1265              		.loc 8 59 16 view .LVU376
 1266              	.LBB320:
  60:eurorack/stmlib/dsp/parameter_interpolator.h ****     value_ += increment_;
 1267              		.loc 8 60 5 view .LVU377
 1268              	.LBE320:
 1269              	.LBE319:
 101:eurorack/plaits/dsp/oscillator/grainlet_oscillator.h ****       reset = carrier_phase_ >= 1.0f;
 1270              		.loc 2 101 22 is_stmt 0 view .LVU378
 1271 006c D4ED007A 		vldr.32	s15, [r4]
 1272              	.LBB322:
 1273              	.LBB321:
 1274              		.loc 8 60 12 view .LVU379
 1275 0070 39EE2A9A 		vadd.f32	s18, s18, s21
 1276              	.LVL105:
ARM GAS  /var/folders/9s/8rp0_f2s1n31qbztm3b5_fdh0000gn/T//cc7CgoqZ.s 			page 41


  61:eurorack/stmlib/dsp/parameter_interpolator.h ****     return value_;
 1277              		.loc 8 61 5 is_stmt 1 view .LVU380
 1278              		.loc 8 61 5 is_stmt 0 view .LVU381
 1279              	.LBE321:
 1280              	.LBE322:
  99:eurorack/plaits/dsp/oscillator/grainlet_oscillator.h ****     
 1281              		.loc 2 99 7 is_stmt 1 view .LVU382
 1282              	.LBB323:
 1283              	.LBI323:
  59:eurorack/stmlib/dsp/parameter_interpolator.h ****     value_ += increment_;
 1284              		.loc 8 59 16 view .LVU383
 1285              	.LBB324:
  60:eurorack/stmlib/dsp/parameter_interpolator.h ****     return value_;
 1286              		.loc 8 60 5 view .LVU384
 1287              	.LBE324:
 1288              	.LBE323:
 1289              	.LBB326:
 1290              	.LBB327:
 109:eurorack/plaits/dsp/oscillator/grainlet_oscillator.h ****             carrier_shape_modulation.subsample(1.0f - reset_time),
 1291              		.loc 2 109 13 is_stmt 0 view .LVU385
 1292 0074 D4ED010A 		vldr.32	s1, [r4, #4]
 1293              	.LBE327:
 104:eurorack/plaits/dsp/oscillator/grainlet_oscillator.h ****         carrier_phase_ -= 1.0f;
 1294              		.loc 2 104 7 view .LVU386
 1295 0078 B7EE000A 		vmov.f32	s0, #1.0e+0
 1296 007c 9FED398A 		vldr.32	s16, .L68
 1297              	.LBE326:
 1298              	.LBB345:
 1299              	.LBB325:
  60:eurorack/stmlib/dsp/parameter_interpolator.h ****     return value_;
 1300              		.loc 8 60 12 view .LVU387
 1301 0080 78EEAB8A 		vadd.f32	s17, s17, s23
 1302              	.LVL106:
 1303              		.loc 8 61 5 is_stmt 1 view .LVU388
 1304              		.loc 8 61 5 is_stmt 0 view .LVU389
 1305              	.LBE325:
 1306              	.LBE345:
 101:eurorack/plaits/dsp/oscillator/grainlet_oscillator.h ****       reset = carrier_phase_ >= 1.0f;
 1307              		.loc 2 101 7 is_stmt 1 view .LVU390
 101:eurorack/plaits/dsp/oscillator/grainlet_oscillator.h ****       reset = carrier_phase_ >= 1.0f;
 1308              		.loc 2 101 22 is_stmt 0 view .LVU391
 1309 0084 79EE277A 		vadd.f32	s15, s18, s15
 1310 0088 3BEE0DAA 		vadd.f32	s20, s22, s26
 1311 008c 7CEE29CA 		vadd.f32	s25, s24, s19
 1312              	.LBB346:
 104:eurorack/plaits/dsp/oscillator/grainlet_oscillator.h ****         carrier_phase_ -= 1.0f;
 1313              		.loc 2 104 7 view .LVU392
 1314 0090 F4EEC07A 		vcmpe.f32	s15, s0
 1315              	.LBE346:
 101:eurorack/plaits/dsp/oscillator/grainlet_oscillator.h ****       reset = carrier_phase_ >= 1.0f;
 1316              		.loc 2 101 22 view .LVU393
 1317 0094 C4ED007A 		vstr.32	s15, [r4]
 102:eurorack/plaits/dsp/oscillator/grainlet_oscillator.h ****       
 1318              		.loc 2 102 7 is_stmt 1 view .LVU394
 1319              	.LVL107:
 104:eurorack/plaits/dsp/oscillator/grainlet_oscillator.h ****         carrier_phase_ -= 1.0f;
 1320              		.loc 2 104 7 view .LVU395
ARM GAS  /var/folders/9s/8rp0_f2s1n31qbztm3b5_fdh0000gn/T//cc7CgoqZ.s 			page 42


 1321              	.LBB347:
 1322 0098 F1EE10FA 		vmrs	APSR_nzcv, FPSCR
 1323 009c 48DB     		blt	.L66
 1324              	.LBB344:
 105:eurorack/plaits/dsp/oscillator/grainlet_oscillator.h ****         reset_time = carrier_phase_ / f0;
 1325              		.loc 2 105 9 view .LVU396
 105:eurorack/plaits/dsp/oscillator/grainlet_oscillator.h ****         reset_time = carrier_phase_ / f0;
 1326              		.loc 2 105 24 is_stmt 0 view .LVU397
 1327 009e 77EEC07A 		vsub.f32	s15, s15, s0
 1328              	.LVL108:
 107:eurorack/plaits/dsp/oscillator/grainlet_oscillator.h ****             1.0f,
 1329              		.loc 2 107 32 view .LVU398
 1330 00a2 B0EE691A 		vmov.f32	s2, s19
 1331 00a6 F0EE4D1A 		vmov.f32	s3, s26
 106:eurorack/plaits/dsp/oscillator/grainlet_oscillator.h ****         float before = Grainlet(
 1332              		.loc 2 106 20 view .LVU399
 1333 00aa C7EE89DA 		vdiv.f32	s27, s15, s18
 105:eurorack/plaits/dsp/oscillator/grainlet_oscillator.h ****         reset_time = carrier_phase_ / f0;
 1334              		.loc 2 105 24 view .LVU400
 1335 00ae C4ED007A 		vstr.32	s15, [r4]
 1336              	.LVL109:
 106:eurorack/plaits/dsp/oscillator/grainlet_oscillator.h ****         float before = Grainlet(
 1337              		.loc 2 106 9 is_stmt 1 view .LVU401
 107:eurorack/plaits/dsp/oscillator/grainlet_oscillator.h ****             1.0f,
 1338              		.loc 2 107 9 view .LVU402
 109:eurorack/plaits/dsp/oscillator/grainlet_oscillator.h ****             carrier_shape_modulation.subsample(1.0f - reset_time),
 1339              		.loc 2 109 36 is_stmt 0 view .LVU403
 1340 00b2 70EE6DEA 		vsub.f32	s29, s0, s27
 1341              	.LVL110:
 1342              	.LBB328:
 1343              	.LBI328:
  62:eurorack/stmlib/dsp/parameter_interpolator.h ****   }
  63:eurorack/stmlib/dsp/parameter_interpolator.h **** 
  64:eurorack/stmlib/dsp/parameter_interpolator.h ****   inline float subsample(float t) {
 1344              		.loc 8 64 16 is_stmt 1 view .LVU404
 1345              	.LBB329:
  65:eurorack/stmlib/dsp/parameter_interpolator.h ****     return value_ + increment_ * t;
 1346              		.loc 8 65 5 view .LVU405
 1347              		.loc 8 65 5 is_stmt 0 view .LVU406
 1348              	.LBE329:
 1349              	.LBE328:
 1350              	.LBB330:
 1351              	.LBI330:
  64:eurorack/stmlib/dsp/parameter_interpolator.h ****     return value_ + increment_ * t;
 1352              		.loc 8 64 16 is_stmt 1 view .LVU407
 1353              	.LBB331:
 1354              		.loc 8 65 5 view .LVU408
 1355              		.loc 8 65 5 is_stmt 0 view .LVU409
 1356              	.LBE331:
 1357              	.LBE330:
 107:eurorack/plaits/dsp/oscillator/grainlet_oscillator.h ****             1.0f,
 1358              		.loc 2 107 32 view .LVU410
 1359 00b6 EEEE8B1A 		vfma.f32	s3, s29, s22
 1360 00ba AEEE8C1A 		vfma.f32	s2, s29, s24
 1361 00be EEEEA80A 		vfma.f32	s1, s29, s17
 1362 00c2 FFF7FEFF 		bl	_ZN6plaits18GrainletOscillator8GrainletEffff.isra.0
 1363              	.LVL111:
ARM GAS  /var/folders/9s/8rp0_f2s1n31qbztm3b5_fdh0000gn/T//cc7CgoqZ.s 			page 43


 113:eurorack/plaits/dsp/oscillator/grainlet_oscillator.h ****             0.0f,
 1364              		.loc 2 113 31 view .LVU411
 1365 00c6 F0EE480A 		vmov.f32	s1, s16
 107:eurorack/plaits/dsp/oscillator/grainlet_oscillator.h ****             1.0f,
 1366              		.loc 2 107 32 view .LVU412
 1367 00ca F0EE409A 		vmov.f32	s19, s0
 1368              	.LVL112:
 113:eurorack/plaits/dsp/oscillator/grainlet_oscillator.h ****             0.0f,
 1369              		.loc 2 113 9 is_stmt 1 view .LVU413
 1370              	.LBB332:
 1371              	.LBI332:
  64:eurorack/stmlib/dsp/parameter_interpolator.h ****     return value_ + increment_ * t;
 1372              		.loc 8 64 16 view .LVU414
 1373              	.LBB333:
 1374              		.loc 8 65 5 view .LVU415
 1375              		.loc 8 65 5 is_stmt 0 view .LVU416
 1376              	.LBE333:
 1377              	.LBE332:
 1378              	.LBB334:
 1379              	.LBI334:
  64:eurorack/stmlib/dsp/parameter_interpolator.h ****     return value_ + increment_ * t;
 1380              		.loc 8 64 16 is_stmt 1 view .LVU417
 1381              	.LBB335:
 1382              		.loc 8 65 5 view .LVU418
 1383              		.loc 8 65 5 is_stmt 0 view .LVU419
 1384              	.LBE335:
 1385              	.LBE334:
 113:eurorack/plaits/dsp/oscillator/grainlet_oscillator.h ****             0.0f,
 1386              		.loc 2 113 31 view .LVU420
 1387 00ce F0EE4A1A 		vmov.f32	s3, s20
 1388 00d2 B0EE480A 		vmov.f32	s0, s16
 1389              	.LVL113:
 113:eurorack/plaits/dsp/oscillator/grainlet_oscillator.h ****             0.0f,
 1390              		.loc 2 113 31 view .LVU421
 1391 00d6 B0EE6C1A 		vmov.f32	s2, s25
 1392 00da FFF7FEFF 		bl	_ZN6plaits18GrainletOscillator8GrainletEffff.isra.0
 1393              	.LVL114:
 119:eurorack/plaits/dsp/oscillator/grainlet_oscillator.h ****         this_sample += discontinuity * stmlib::ThisBlepSample(reset_time);
 1394              		.loc 2 119 9 is_stmt 1 view .LVU422
 1395              	.LBB336:
 1396              	.LBB337:
 1397              		.file 9 "eurorack/stmlib/dsp/polyblep.h"
   1:eurorack/stmlib/dsp/polyblep.h **** // Copyright 2017 Emilie Gillet.
   2:eurorack/stmlib/dsp/polyblep.h **** //
   3:eurorack/stmlib/dsp/polyblep.h **** // Author: Emilie Gillet (emilie.o.gillet@gmail.com)
   4:eurorack/stmlib/dsp/polyblep.h **** //
   5:eurorack/stmlib/dsp/polyblep.h **** // Permission is hereby granted, free of charge, to any person obtaining a copy
   6:eurorack/stmlib/dsp/polyblep.h **** // of this software and associated documentation files (the "Software"), to deal
   7:eurorack/stmlib/dsp/polyblep.h **** // in the Software without restriction, including without limitation the rights
   8:eurorack/stmlib/dsp/polyblep.h **** // to use, copy, modify, merge, publish, distribute, sublicense, and/or sell
   9:eurorack/stmlib/dsp/polyblep.h **** // copies of the Software, and to permit persons to whom the Software is
  10:eurorack/stmlib/dsp/polyblep.h **** // furnished to do so, subject to the following conditions:
  11:eurorack/stmlib/dsp/polyblep.h **** // 
  12:eurorack/stmlib/dsp/polyblep.h **** // The above copyright notice and this permission notice shall be included in
  13:eurorack/stmlib/dsp/polyblep.h **** // all copies or substantial portions of the Software.
  14:eurorack/stmlib/dsp/polyblep.h **** // 
  15:eurorack/stmlib/dsp/polyblep.h **** // THE SOFTWARE IS PROVIDED "AS IS", WITHOUT WARRANTY OF ANY KIND, EXPRESS OR
ARM GAS  /var/folders/9s/8rp0_f2s1n31qbztm3b5_fdh0000gn/T//cc7CgoqZ.s 			page 44


  16:eurorack/stmlib/dsp/polyblep.h **** // IMPLIED, INCLUDING BUT NOT LIMITED TO THE WARRANTIES OF MERCHANTABILITY,
  17:eurorack/stmlib/dsp/polyblep.h **** // FITNESS FOR A PARTICULAR PURPOSE AND NONINFRINGEMENT. IN NO EVENT SHALL THE
  18:eurorack/stmlib/dsp/polyblep.h **** // AUTHORS OR COPYRIGHT HOLDERS BE LIABLE FOR ANY CLAIM, DAMAGES OR OTHER
  19:eurorack/stmlib/dsp/polyblep.h **** // LIABILITY, WHETHER IN AN ACTION OF CONTRACT, TORT OR OTHERWISE, ARISING FROM,
  20:eurorack/stmlib/dsp/polyblep.h **** // OUT OF OR IN CONNECTION WITH THE SOFTWARE OR THE USE OR OTHER DEALINGS IN
  21:eurorack/stmlib/dsp/polyblep.h **** // THE SOFTWARE.
  22:eurorack/stmlib/dsp/polyblep.h **** // 
  23:eurorack/stmlib/dsp/polyblep.h **** // See http://creativecommons.org/licenses/MIT/ for more information.
  24:eurorack/stmlib/dsp/polyblep.h **** //
  25:eurorack/stmlib/dsp/polyblep.h **** // -----------------------------------------------------------------------------
  26:eurorack/stmlib/dsp/polyblep.h **** //
  27:eurorack/stmlib/dsp/polyblep.h **** // Polynomial approximation of band-limited step for band-limited waveform
  28:eurorack/stmlib/dsp/polyblep.h **** // synthesis.
  29:eurorack/stmlib/dsp/polyblep.h **** 
  30:eurorack/stmlib/dsp/polyblep.h **** #ifndef STMLIB_DSP_POLYBLEP_H_
  31:eurorack/stmlib/dsp/polyblep.h **** #define STMLIB_DSP_POLYBLEP_H_
  32:eurorack/stmlib/dsp/polyblep.h **** 
  33:eurorack/stmlib/dsp/polyblep.h **** #include "stmlib/stmlib.h"
  34:eurorack/stmlib/dsp/polyblep.h **** 
  35:eurorack/stmlib/dsp/polyblep.h **** namespace stmlib {
  36:eurorack/stmlib/dsp/polyblep.h **** 
  37:eurorack/stmlib/dsp/polyblep.h **** inline float ThisBlepSample(float t) {
  38:eurorack/stmlib/dsp/polyblep.h ****   return 0.5f * t * t;
 1398              		.loc 9 38 15 is_stmt 0 view .LVU423
 1399 00de F6EE007A 		vmov.f32	s15, #5.0e-1
 1400              	.LBE337:
 1401              	.LBE336:
 119:eurorack/plaits/dsp/oscillator/grainlet_oscillator.h ****         this_sample += discontinuity * stmlib::ThisBlepSample(reset_time);
 1402              		.loc 2 119 15 view .LVU424
 1403 00e2 30EE690A 		vsub.f32	s0, s0, s19
 1404              	.LVL115:
 120:eurorack/plaits/dsp/oscillator/grainlet_oscillator.h ****         next_sample += discontinuity * stmlib::NextBlepSample(reset_time);
 1405              		.loc 2 120 9 is_stmt 1 view .LVU425
 1406              	.LBB339:
 1407              	.LBI336:
  37:eurorack/stmlib/dsp/polyblep.h ****   return 0.5f * t * t;
 1408              		.loc 9 37 14 view .LVU426
 1409              	.LBB338:
 1410              		.loc 9 38 3 view .LVU427
 1411              		.loc 9 38 15 is_stmt 0 view .LVU428
 1412 00e6 6DEEA77A 		vmul.f32	s15, s27, s15
 1413              		.loc 9 38 21 view .LVU429
 1414 00ea 67EEAD7A 		vmul.f32	s15, s15, s27
 1415              	.LBE338:
 1416              	.LBE339:
 122:eurorack/plaits/dsp/oscillator/grainlet_oscillator.h ****       } else {
 1417              		.loc 2 122 37 view .LVU430
 1418 00ee 6DEEA8DA 		vmul.f32	s27, s27, s17
 1419              	.LVL116:
 120:eurorack/plaits/dsp/oscillator/grainlet_oscillator.h ****         next_sample += discontinuity * stmlib::NextBlepSample(reset_time);
 1420              		.loc 2 120 21 view .LVU431
 1421 00f2 A0EE27EA 		vfma.f32	s28, s0, s15
 1422              	.LVL117:
 121:eurorack/plaits/dsp/oscillator/grainlet_oscillator.h ****         formant_phase_ = reset_time * f1;
 1423              		.loc 2 121 9 is_stmt 1 view .LVU432
 1424              	.LBB340:
 1425              	.LBI340:
ARM GAS  /var/folders/9s/8rp0_f2s1n31qbztm3b5_fdh0000gn/T//cc7CgoqZ.s 			page 45


  39:eurorack/stmlib/dsp/polyblep.h **** }
  40:eurorack/stmlib/dsp/polyblep.h **** 
  41:eurorack/stmlib/dsp/polyblep.h **** inline float NextBlepSample(float t) {
 1426              		.loc 9 41 14 view .LVU433
 1427              	.LBB341:
  42:eurorack/stmlib/dsp/polyblep.h ****   t = 1.0f - t;
 1428              		.loc 9 42 3 view .LVU434
  43:eurorack/stmlib/dsp/polyblep.h ****   return -0.5f * t * t;
 1429              		.loc 9 43 3 view .LVU435
 1430              		.loc 9 43 16 is_stmt 0 view .LVU436
 1431 00f6 FEEE007A 		vmov.f32	s15, #-5.0e-1
 1432              	.LBE341:
 1433              	.LBE340:
 122:eurorack/plaits/dsp/oscillator/grainlet_oscillator.h ****       } else {
 1434              		.loc 2 122 24 view .LVU437
 1435 00fa C4ED01DA 		vstr.32	s27, [r4, #4]
 1436              	.LBB343:
 1437              	.LBB342:
 1438              		.loc 9 43 16 view .LVU438
 1439 00fe 6EEEA77A 		vmul.f32	s15, s29, s15
 1440              		.loc 9 43 22 view .LVU439
 1441 0102 67EEAE7A 		vmul.f32	s15, s15, s29
 1442              	.LBE342:
 1443              	.LBE343:
 121:eurorack/plaits/dsp/oscillator/grainlet_oscillator.h ****         formant_phase_ = reset_time * f1;
 1444              		.loc 2 121 21 view .LVU440
 1445 0106 A7EE808A 		vfma.f32	s16, s15, s0
 1446              	.LVL118:
 122:eurorack/plaits/dsp/oscillator/grainlet_oscillator.h ****       } else {
 1447              		.loc 2 122 9 is_stmt 1 view .LVU441
 1448              	.L60:
 122:eurorack/plaits/dsp/oscillator/grainlet_oscillator.h ****       } else {
 1449              		.loc 2 122 9 is_stmt 0 view .LVU442
 1450              	.LBE344:
 1451              	.LBE347:
 130:eurorack/plaits/dsp/oscillator/grainlet_oscillator.h ****           carrier_phase_,
 1452              		.loc 2 130 7 is_stmt 1 view .LVU443
 1453              	.LBB348:
 1454              	.LBI348:
  59:eurorack/stmlib/dsp/parameter_interpolator.h ****     value_ += increment_;
 1455              		.loc 8 59 16 view .LVU444
 1456              	.LBB349:
  60:eurorack/stmlib/dsp/parameter_interpolator.h ****     return value_;
 1457              		.loc 8 60 5 view .LVU445
 1458              	.LBE349:
 1459              	.LBE348:
 130:eurorack/plaits/dsp/oscillator/grainlet_oscillator.h ****           carrier_phase_,
 1460              		.loc 2 130 30 is_stmt 0 view .LVU446
 1461 010a D4ED010A 		vldr.32	s1, [r4, #4]
 1462 010e F0EE4A1A 		vmov.f32	s3, s20
 1463 0112 94ED000A 		vldr.32	s0, [r4]
 1464 0116 B0EE6C1A 		vmov.f32	s2, s25
 1465 011a FFF7FEFF 		bl	_ZN6plaits18GrainletOscillator8GrainletEffff.isra.0
 1466              	.LVL119:
 1467              	.LBB351:
 1468              	.LBB350:
  60:eurorack/stmlib/dsp/parameter_interpolator.h ****     return value_;
ARM GAS  /var/folders/9s/8rp0_f2s1n31qbztm3b5_fdh0000gn/T//cc7CgoqZ.s 			page 46


 1469              		.loc 8 60 12 view .LVU447
 1470 011e F0EE6C9A 		vmov.f32	s19, s25
 1471              	.LVL120:
  61:eurorack/stmlib/dsp/parameter_interpolator.h ****   }
 1472              		.loc 8 61 5 is_stmt 1 view .LVU448
  61:eurorack/stmlib/dsp/parameter_interpolator.h ****   }
 1473              		.loc 8 61 5 is_stmt 0 view .LVU449
 1474              	.LBE350:
 1475              	.LBE351:
 1476              	.LBB352:
 1477              	.LBI352:
  59:eurorack/stmlib/dsp/parameter_interpolator.h ****     value_ += increment_;
 1478              		.loc 8 59 16 is_stmt 1 view .LVU450
 1479              	.LBB353:
  60:eurorack/stmlib/dsp/parameter_interpolator.h ****     return value_;
 1480              		.loc 8 60 5 view .LVU451
 1481              	.LBE353:
 1482              	.LBE352:
 135:eurorack/plaits/dsp/oscillator/grainlet_oscillator.h ****     }
 1483              		.loc 2 135 14 is_stmt 0 view .LVU452
 1484 0122 A6EC01EA 		vstmia.32	r6!, {s28}
 1485              	.LVL121:
 1486              	.LBB355:
 1487              	.LBB354:
  60:eurorack/stmlib/dsp/parameter_interpolator.h ****     return value_;
 1488              		.loc 8 60 12 view .LVU453
 1489 0126 B0EE4ADA 		vmov.f32	s26, s20
 1490              	.LVL122:
  61:eurorack/stmlib/dsp/parameter_interpolator.h ****   }
 1491              		.loc 8 61 5 is_stmt 1 view .LVU454
  61:eurorack/stmlib/dsp/parameter_interpolator.h ****   }
 1492              		.loc 8 61 5 is_stmt 0 view .LVU455
 1493              	.LBE354:
 1494              	.LBE355:
 135:eurorack/plaits/dsp/oscillator/grainlet_oscillator.h ****     }
 1495              		.loc 2 135 7 is_stmt 1 view .LVU456
 130:eurorack/plaits/dsp/oscillator/grainlet_oscillator.h ****           carrier_phase_,
 1496              		.loc 2 130 19 is_stmt 0 view .LVU457
 1497 012a 38EE00EA 		vadd.f32	s28, s16, s0
 1498              	.LVL123:
 130:eurorack/plaits/dsp/oscillator/grainlet_oscillator.h ****           carrier_phase_,
 1499              		.loc 2 130 19 view .LVU458
 1500              	.LBE318:
  91:eurorack/plaits/dsp/oscillator/grainlet_oscillator.h ****       bool reset = false;
 1501              		.loc 2 91 5 view .LVU459
 1502 012e 9BE7     		b	.L62
 1503              	.LVL124:
 1504              	.L66:
 1505              	.LBB357:
 1506              	.LBB356:
 124:eurorack/plaits/dsp/oscillator/grainlet_oscillator.h ****         if (formant_phase_ >= 1.0f) {
 1507              		.loc 2 124 9 is_stmt 1 view .LVU460
 124:eurorack/plaits/dsp/oscillator/grainlet_oscillator.h ****         if (formant_phase_ >= 1.0f) {
 1508              		.loc 2 124 24 is_stmt 0 view .LVU461
 1509 0130 78EEA00A 		vadd.f32	s1, s17, s1
 125:eurorack/plaits/dsp/oscillator/grainlet_oscillator.h ****           formant_phase_ -= 1.0f;
 1510              		.loc 2 125 9 is_stmt 1 view .LVU462
ARM GAS  /var/folders/9s/8rp0_f2s1n31qbztm3b5_fdh0000gn/T//cc7CgoqZ.s 			page 47


 1511 0134 F4EEC00A 		vcmpe.f32	s1, s0
 1512 0138 F1EE10FA 		vmrs	APSR_nzcv, FPSCR
 126:eurorack/plaits/dsp/oscillator/grainlet_oscillator.h ****         }
 1513              		.loc 2 126 11 view .LVU463
 126:eurorack/plaits/dsp/oscillator/grainlet_oscillator.h ****         }
 1514              		.loc 2 126 26 is_stmt 0 view .LVU464
 1515 013c A8BF     		it	ge
 1516 013e 70EEC00A 		vsubge.f32	s1, s1, s0
 1517 0142 C4ED010A 		vstr.32	s1, [r4, #4]
 1518 0146 E0E7     		b	.L60
 1519              	.LVL125:
 1520              	.L57:
 126:eurorack/plaits/dsp/oscillator/grainlet_oscillator.h ****         }
 1521              		.loc 2 126 26 view .LVU465
 1522              	.LBE356:
 1523              	.LBE357:
 138:eurorack/plaits/dsp/oscillator/grainlet_oscillator.h ****   }
 1524              		.loc 2 138 5 is_stmt 1 view .LVU466
 138:eurorack/plaits/dsp/oscillator/grainlet_oscillator.h ****   }
 1525              		.loc 2 138 18 is_stmt 0 view .LVU467
 1526 0148 84ED02EA 		vstr.32	s28, [r4, #8]
 1527              	.LVL126:
 1528              	.LBB358:
 1529              	.LBI358:
  49:eurorack/stmlib/dsp/parameter_interpolator.h ****     *state_ = value_;
 1530              		.loc 8 49 3 is_stmt 1 view .LVU468
 1531              	.LBB359:
  50:eurorack/stmlib/dsp/parameter_interpolator.h ****   }
 1532              		.loc 8 50 5 view .LVU469
  50:eurorack/stmlib/dsp/parameter_interpolator.h ****   }
 1533              		.loc 8 50 13 is_stmt 0 view .LVU470
 1534 014c 84ED06DA 		vstr.32	s26, [r4, #24]
 1535              	.LVL127:
  50:eurorack/stmlib/dsp/parameter_interpolator.h ****   }
 1536              		.loc 8 50 13 view .LVU471
 1537              	.LBE359:
 1538              	.LBE358:
 1539              	.LBB360:
 1540              	.LBI360:
  49:eurorack/stmlib/dsp/parameter_interpolator.h ****     *state_ = value_;
 1541              		.loc 8 49 3 is_stmt 1 view .LVU472
 1542              	.LBB361:
  50:eurorack/stmlib/dsp/parameter_interpolator.h ****   }
 1543              		.loc 8 50 5 view .LVU473
  50:eurorack/stmlib/dsp/parameter_interpolator.h ****   }
 1544              		.loc 8 50 13 is_stmt 0 view .LVU474
 1545 0150 C4ED059A 		vstr.32	s19, [r4, #20]
 1546              	.LVL128:
  50:eurorack/stmlib/dsp/parameter_interpolator.h ****   }
 1547              		.loc 8 50 13 view .LVU475
 1548              	.LBE361:
 1549              	.LBE360:
 1550              	.LBB362:
 1551              	.LBI362:
  49:eurorack/stmlib/dsp/parameter_interpolator.h ****     *state_ = value_;
 1552              		.loc 8 49 3 is_stmt 1 view .LVU476
 1553              	.LBB363:
ARM GAS  /var/folders/9s/8rp0_f2s1n31qbztm3b5_fdh0000gn/T//cc7CgoqZ.s 			page 48


  50:eurorack/stmlib/dsp/parameter_interpolator.h ****   }
 1554              		.loc 8 50 5 view .LVU477
  50:eurorack/stmlib/dsp/parameter_interpolator.h ****   }
 1555              		.loc 8 50 13 is_stmt 0 view .LVU478
 1556 0154 C4ED048A 		vstr.32	s17, [r4, #16]
 1557              	.LVL129:
  50:eurorack/stmlib/dsp/parameter_interpolator.h ****   }
 1558              		.loc 8 50 13 view .LVU479
 1559              	.LBE363:
 1560              	.LBE362:
 1561              	.LBB364:
 1562              	.LBI364:
  49:eurorack/stmlib/dsp/parameter_interpolator.h ****     *state_ = value_;
 1563              		.loc 8 49 3 is_stmt 1 view .LVU480
 1564              	.LBB365:
  50:eurorack/stmlib/dsp/parameter_interpolator.h ****   }
 1565              		.loc 8 50 5 view .LVU481
  50:eurorack/stmlib/dsp/parameter_interpolator.h ****   }
 1566              		.loc 8 50 13 is_stmt 0 view .LVU482
 1567 0158 84ED039A 		vstr.32	s18, [r4, #12]
 1568              	.LVL130:
  50:eurorack/stmlib/dsp/parameter_interpolator.h ****   }
 1569              		.loc 8 50 13 view .LVU483
 1570              	.LBE365:
 1571              	.LBE364:
 139:eurorack/plaits/dsp/oscillator/grainlet_oscillator.h **** 
 1572              		.loc 2 139 3 view .LVU484
 1573 015c BDEC0E8B 		vldm	sp!, {d8-d14}
 1574              		.cfi_restore 92
 1575              		.cfi_restore 93
 1576              		.cfi_restore 90
 1577              		.cfi_restore 91
 1578              		.cfi_restore 88
 1579              		.cfi_restore 89
 1580              		.cfi_restore 86
 1581              		.cfi_restore 87
 1582              		.cfi_restore 84
 1583              		.cfi_restore 85
 1584              		.cfi_restore 82
 1585              		.cfi_restore 83
 1586              		.cfi_restore 80
 1587              		.cfi_restore 81
 1588              		.cfi_def_cfa_offset 16
 1589              	.LVL131:
 139:eurorack/plaits/dsp/oscillator/grainlet_oscillator.h **** 
 1590              		.loc 2 139 3 view .LVU485
 1591 0160 70BD     		pop	{r4, r5, r6, pc}
 1592              	.LVL132:
 1593              	.L69:
 139:eurorack/plaits/dsp/oscillator/grainlet_oscillator.h **** 
 1594              		.loc 2 139 3 view .LVU486
 1595 0162 00BF     		.align	2
 1596              	.L68:
 1597 0164 00000000 		.word	0
 1598              		.cfi_endproc
 1599              	.LFE1580:
 1601              		.section	.text._ZN6plaits11ZOscillator6RenderEffffPfj,"axG",%progbits,_ZN6plaits11ZOscillator6Rend
ARM GAS  /var/folders/9s/8rp0_f2s1n31qbztm3b5_fdh0000gn/T//cc7CgoqZ.s 			page 49


 1602              		.align	1
 1603              		.weak	_ZN6plaits11ZOscillator6RenderEffffPfj
 1604              		.syntax unified
 1605              		.thumb
 1606              		.thumb_func
 1608              	_ZN6plaits11ZOscillator6RenderEffffPfj:
 1609              	.LVL133:
 1610              	.LFB1600:
  59:eurorack/plaits/dsp/oscillator/z_oscillator.h ****       float carrier_frequency,
 1611              		.loc 4 59 8 is_stmt 1 view -0
 1612              		.cfi_startproc
 1613              		@ args = 0, pretend = 0, frame = 16
 1614              		@ frame_needed = 0, uses_anonymous_args = 0
  66:eurorack/plaits/dsp/oscillator/z_oscillator.h ****       carrier_frequency = kMaxFrequency * 0.5f;
 1615              		.loc 4 66 5 view .LVU488
 1616 0000 F4EE007A 		vmov.f32	s15, #1.25e-1
  59:eurorack/plaits/dsp/oscillator/z_oscillator.h ****       float carrier_frequency,
 1617              		.loc 4 59 8 is_stmt 0 view .LVU489
 1618 0004 70B5     		push	{r4, r5, r6, lr}
 1619              		.cfi_def_cfa_offset 16
 1620              		.cfi_offset 4, -16
 1621              		.cfi_offset 5, -12
 1622              		.cfi_offset 6, -8
 1623              		.cfi_offset 14, -4
  67:eurorack/plaits/dsp/oscillator/z_oscillator.h ****     }
 1624              		.loc 4 67 25 view .LVU490
 1625 0006 B4EE670A 		vcmp.f32	s0, s15
  59:eurorack/plaits/dsp/oscillator/z_oscillator.h ****       float carrier_frequency,
 1626              		.loc 4 59 8 view .LVU491
 1627 000a 0446     		mov	r4, r0
 1628 000c 0E46     		mov	r6, r1
 1629 000e 1546     		mov	r5, r2
  67:eurorack/plaits/dsp/oscillator/z_oscillator.h ****     }
 1630              		.loc 4 67 25 view .LVU492
 1631 0010 F1EE10FA 		vmrs	APSR_nzcv, FPSCR
  59:eurorack/plaits/dsp/oscillator/z_oscillator.h ****       float carrier_frequency,
 1632              		.loc 4 59 8 view .LVU493
 1633 0014 2DED108B 		vpush.64	{d8, d9, d10, d11, d12, d13, d14, d15}
 1634              		.cfi_def_cfa_offset 80
 1635              		.cfi_offset 80, -80
 1636              		.cfi_offset 81, -76
 1637              		.cfi_offset 82, -72
 1638              		.cfi_offset 83, -68
 1639              		.cfi_offset 84, -64
 1640              		.cfi_offset 85, -60
 1641              		.cfi_offset 86, -56
 1642              		.cfi_offset 87, -52
 1643              		.cfi_offset 88, -48
 1644              		.cfi_offset 89, -44
 1645              		.cfi_offset 90, -40
 1646              		.cfi_offset 91, -36
 1647              		.cfi_offset 92, -32
 1648              		.cfi_offset 93, -28
 1649              		.cfi_offset 94, -24
 1650              		.cfi_offset 95, -20
  67:eurorack/plaits/dsp/oscillator/z_oscillator.h ****     }
 1651              		.loc 4 67 25 view .LVU494
ARM GAS  /var/folders/9s/8rp0_f2s1n31qbztm3b5_fdh0000gn/T//cc7CgoqZ.s 			page 50


 1652 0018 27FE800A 		vselge.f32	s0, s15, s0
 1653              	.LVL134:
  69:eurorack/plaits/dsp/oscillator/z_oscillator.h ****       formant_frequency = kMaxFrequency;
 1654              		.loc 4 69 5 is_stmt 1 view .LVU495
 1655 001c F5EE007A 		vmov.f32	s15, #2.5e-1
 1656              	.LBB417:
 1657              	.LBB418:
 1658              	.LBB419:
  55:eurorack/stmlib/dsp/parameter_interpolator.h ****     increment_ = (new_value - *state) / static_cast<float>(size);
 1659              		.loc 8 55 14 is_stmt 0 view .LVU496
 1660 0020 90ED04EA 		vldr.32	s28, [r0, #16]
 1661              	.LBE419:
 1662              	.LBE418:
 1663              	.LBE417:
  59:eurorack/plaits/dsp/oscillator/z_oscillator.h ****       float carrier_frequency,
 1664              		.loc 4 59 8 view .LVU497
 1665 0024 84B0     		sub	sp, sp, #16
 1666              		.cfi_def_cfa_offset 96
 1667              	.LBB426:
 1668              	.LBB427:
 1669              	.LBB428:
  55:eurorack/stmlib/dsp/parameter_interpolator.h ****     increment_ = (new_value - *state) / static_cast<float>(size);
 1670              		.loc 8 55 14 view .LVU498
 1671 0026 90ED05FA 		vldr.32	s30, [r0, #20]
 1672              	.LBE428:
 1673              	.LBE427:
 1674              	.LBE426:
  70:eurorack/plaits/dsp/oscillator/z_oscillator.h ****     }
 1675              		.loc 4 70 25 view .LVU499
 1676 002a F4EE670A 		vcmp.f32	s1, s15
 1677              	.LBB433:
 1678              	.LBB434:
 1679              	.LBB435:
  55:eurorack/stmlib/dsp/parameter_interpolator.h ****     increment_ = (new_value - *state) / static_cast<float>(size);
 1680              		.loc 8 55 14 view .LVU500
 1681 002e 90ED069A 		vldr.32	s18, [r0, #24]
 1682              	.LBE435:
 1683              	.LBE434:
 1684              	.LBE433:
 1685              	.LBB440:
 1686              	.LBB441:
 1687              	.LBB442:
 1688 0032 D0ED079A 		vldr.32	s19, [r0, #28]
 1689              	.LBE442:
 1690              	.LBE441:
 1691              	.LBE440:
 1692              	.LBB447:
 1693              	.LBB423:
 1694              	.LBB420:
  56:eurorack/stmlib/dsp/parameter_interpolator.h ****   }
 1695              		.loc 8 56 29 view .LVU501
 1696 0036 30EE4E0A 		vsub.f32	s0, s0, s28
 1697              	.LVL135:
  56:eurorack/stmlib/dsp/parameter_interpolator.h ****   }
 1698              		.loc 8 56 29 view .LVU502
 1699              	.LBE420:
 1700              	.LBE423:
ARM GAS  /var/folders/9s/8rp0_f2s1n31qbztm3b5_fdh0000gn/T//cc7CgoqZ.s 			page 51


 1701              	.LBE447:
 1702              	.LBB448:
 1703              	.LBB438:
 1704              	.LBB436:
 1705 003a 31EE491A 		vsub.f32	s2, s2, s18
 1706              	.LVL136:
  56:eurorack/stmlib/dsp/parameter_interpolator.h ****   }
 1707              		.loc 8 56 29 view .LVU503
 1708              	.LBE436:
 1709              	.LBE438:
 1710              	.LBE448:
  90:eurorack/plaits/dsp/oscillator/z_oscillator.h ****     
 1711              		.loc 4 90 11 view .LVU504
 1712 003e D0ED03FA 		vldr.32	s31, [r0, #12]
  70:eurorack/plaits/dsp/oscillator/z_oscillator.h ****     }
 1713              		.loc 4 70 25 view .LVU505
 1714 0042 F1EE10FA 		vmrs	APSR_nzcv, FPSCR
 1715              	.LVL137:
 1716              	.LBB449:
 1717              	.LBB445:
 1718              	.LBB443:
  56:eurorack/stmlib/dsp/parameter_interpolator.h ****   }
 1719              		.loc 8 56 29 view .LVU506
 1720 0046 71EEE91A 		vsub.f32	s3, s3, s19
 1721              	.LVL138:
  56:eurorack/stmlib/dsp/parameter_interpolator.h ****   }
 1722              		.loc 8 56 29 view .LVU507
 1723              	.LBE443:
 1724              	.LBE445:
 1725              	.LBE449:
  70:eurorack/plaits/dsp/oscillator/z_oscillator.h ****     }
 1726              		.loc 4 70 25 view .LVU508
 1727 004a 67FEA00A 		vselge.f32	s1, s15, s1
 1728              	.LVL139:
  73:eurorack/plaits/dsp/oscillator/z_oscillator.h ****         &carrier_frequency_,
 1729              		.loc 4 73 5 is_stmt 1 view .LVU509
 1730              	.LBB450:
 1731              	.LBI417:
  39:eurorack/stmlib/dsp/parameter_interpolator.h ****     Init(state, new_value, size);
 1732              		.loc 8 39 3 view .LVU510
 1733              	.LBE450:
  40:eurorack/stmlib/dsp/parameter_interpolator.h ****   }
 1734              		.loc 8 40 5 view .LVU511
 1735              	.LBB451:
 1736              	.LBB424:
 1737              	.LBI418:
  53:eurorack/stmlib/dsp/parameter_interpolator.h ****     state_ = state;
 1738              		.loc 8 53 15 view .LVU512
 1739              	.LBB421:
  54:eurorack/stmlib/dsp/parameter_interpolator.h ****     value_ = *state;
 1740              		.loc 8 54 5 view .LVU513
  55:eurorack/stmlib/dsp/parameter_interpolator.h ****     increment_ = (new_value - *state) / static_cast<float>(size);
 1741              		.loc 8 55 5 view .LVU514
  56:eurorack/stmlib/dsp/parameter_interpolator.h ****   }
 1742              		.loc 8 56 5 view .LVU515
  56:eurorack/stmlib/dsp/parameter_interpolator.h ****   }
 1743              		.loc 8 56 41 is_stmt 0 view .LVU516
ARM GAS  /var/folders/9s/8rp0_f2s1n31qbztm3b5_fdh0000gn/T//cc7CgoqZ.s 			page 52


 1744 004e 07EE902A 		vmov	s15, r2	@ int
 1745              	.LBE421:
 1746              	.LBE424:
 1747              	.LBE451:
 1748              	.LBB452:
 1749              	.LBB431:
 1750              	.LBB429:
  56:eurorack/stmlib/dsp/parameter_interpolator.h ****   }
 1751              		.loc 8 56 29 view .LVU517
 1752 0052 70EECF0A 		vsub.f32	s1, s1, s30
 1753              	.LVL140:
  56:eurorack/stmlib/dsp/parameter_interpolator.h ****   }
 1754              		.loc 8 56 29 view .LVU518
 1755              	.LBE429:
 1756              	.LBE431:
 1757              	.LBE452:
 1758              	.LBB453:
 1759              	.LBB425:
 1760              	.LBB422:
  56:eurorack/stmlib/dsp/parameter_interpolator.h ****   }
 1761              		.loc 8 56 41 view .LVU519
 1762 0056 F8EE677A 		vcvt.f32.u32	s15, s15
  56:eurorack/stmlib/dsp/parameter_interpolator.h ****   }
 1763              		.loc 8 56 39 view .LVU520
 1764 005a C0EE27BA 		vdiv.f32	s23, s0, s15
 1765              	.LVL141:
  56:eurorack/stmlib/dsp/parameter_interpolator.h ****   }
 1766              		.loc 8 56 39 view .LVU521
 1767              	.LBE422:
 1768              	.LBE425:
 1769              	.LBE453:
  77:eurorack/plaits/dsp/oscillator/z_oscillator.h ****         &formant_frequency_,
 1770              		.loc 4 77 5 is_stmt 1 view .LVU522
 1771              	.LBB454:
 1772              	.LBI426:
  39:eurorack/stmlib/dsp/parameter_interpolator.h ****     Init(state, new_value, size);
 1773              		.loc 8 39 3 view .LVU523
 1774              	.LBE454:
  40:eurorack/stmlib/dsp/parameter_interpolator.h ****   }
 1775              		.loc 8 40 5 view .LVU524
 1776              	.LBB455:
 1777              	.LBB432:
 1778              	.LBI427:
  53:eurorack/stmlib/dsp/parameter_interpolator.h ****     state_ = state;
 1779              		.loc 8 53 15 view .LVU525
 1780              	.LBB430:
  54:eurorack/stmlib/dsp/parameter_interpolator.h ****     value_ = *state;
 1781              		.loc 8 54 5 view .LVU526
  55:eurorack/stmlib/dsp/parameter_interpolator.h ****     increment_ = (new_value - *state) / static_cast<float>(size);
 1782              		.loc 8 55 5 view .LVU527
  56:eurorack/stmlib/dsp/parameter_interpolator.h ****   }
 1783              		.loc 8 56 5 view .LVU528
  56:eurorack/stmlib/dsp/parameter_interpolator.h ****   }
 1784              		.loc 8 56 39 is_stmt 0 view .LVU529
 1785 005e C0EEA7CA 		vdiv.f32	s25, s1, s15
 1786              	.LVL142:
  56:eurorack/stmlib/dsp/parameter_interpolator.h ****   }
ARM GAS  /var/folders/9s/8rp0_f2s1n31qbztm3b5_fdh0000gn/T//cc7CgoqZ.s 			page 53


 1787              		.loc 8 56 39 view .LVU530
 1788              	.LBE430:
 1789              	.LBE432:
 1790              	.LBE455:
  81:eurorack/plaits/dsp/oscillator/z_oscillator.h ****         &carrier_shape_,
 1791              		.loc 4 81 5 is_stmt 1 view .LVU531
 1792              	.LBB456:
 1793              	.LBI433:
  39:eurorack/stmlib/dsp/parameter_interpolator.h ****     Init(state, new_value, size);
 1794              		.loc 8 39 3 view .LVU532
 1795              	.LBE456:
  40:eurorack/stmlib/dsp/parameter_interpolator.h ****   }
 1796              		.loc 8 40 5 view .LVU533
 1797              	.LBB457:
 1798              	.LBB439:
 1799              	.LBI434:
  53:eurorack/stmlib/dsp/parameter_interpolator.h ****     state_ = state;
 1800              		.loc 8 53 15 view .LVU534
 1801              	.LBB437:
  54:eurorack/stmlib/dsp/parameter_interpolator.h ****     value_ = *state;
 1802              		.loc 8 54 5 view .LVU535
  55:eurorack/stmlib/dsp/parameter_interpolator.h ****     increment_ = (new_value - *state) / static_cast<float>(size);
 1803              		.loc 8 55 5 view .LVU536
  56:eurorack/stmlib/dsp/parameter_interpolator.h ****   }
 1804              		.loc 8 56 5 view .LVU537
  56:eurorack/stmlib/dsp/parameter_interpolator.h ****   }
 1805              		.loc 8 56 39 is_stmt 0 view .LVU538
 1806 0062 81EE27DA 		vdiv.f32	s26, s2, s15
 1807              	.LVL143:
  56:eurorack/stmlib/dsp/parameter_interpolator.h ****   }
 1808              		.loc 8 56 39 view .LVU539
 1809              	.LBE437:
 1810              	.LBE439:
 1811              	.LBE457:
  85:eurorack/plaits/dsp/oscillator/z_oscillator.h ****         &mode_,
 1812              		.loc 4 85 5 is_stmt 1 view .LVU540
 1813              	.LBB458:
 1814              	.LBI440:
  39:eurorack/stmlib/dsp/parameter_interpolator.h ****     Init(state, new_value, size);
 1815              		.loc 8 39 3 view .LVU541
 1816              	.LBE458:
  40:eurorack/stmlib/dsp/parameter_interpolator.h ****   }
 1817              		.loc 8 40 5 view .LVU542
 1818              	.LBB459:
 1819              	.LBB446:
 1820              	.LBI441:
  53:eurorack/stmlib/dsp/parameter_interpolator.h ****     state_ = state;
 1821              		.loc 8 53 15 view .LVU543
 1822              	.LBB444:
  54:eurorack/stmlib/dsp/parameter_interpolator.h ****     value_ = *state;
 1823              		.loc 8 54 5 view .LVU544
  55:eurorack/stmlib/dsp/parameter_interpolator.h ****     increment_ = (new_value - *state) / static_cast<float>(size);
 1824              		.loc 8 55 5 view .LVU545
  56:eurorack/stmlib/dsp/parameter_interpolator.h ****   }
 1825              		.loc 8 56 5 view .LVU546
  56:eurorack/stmlib/dsp/parameter_interpolator.h ****   }
 1826              		.loc 8 56 39 is_stmt 0 view .LVU547
ARM GAS  /var/folders/9s/8rp0_f2s1n31qbztm3b5_fdh0000gn/T//cc7CgoqZ.s 			page 54


 1827 0066 81EEA7CA 		vdiv.f32	s24, s3, s15
 1828              	.LVL144:
  56:eurorack/stmlib/dsp/parameter_interpolator.h ****   }
 1829              		.loc 8 56 39 view .LVU548
 1830              	.LBE444:
 1831              	.LBE446:
 1832              	.LBE459:
  90:eurorack/plaits/dsp/oscillator/z_oscillator.h ****     
 1833              		.loc 4 90 5 is_stmt 1 view .LVU549
 1834              	.L84:
  92:eurorack/plaits/dsp/oscillator/z_oscillator.h ****       bool reset = false;
 1835              		.loc 4 92 5 view .LVU550
  92:eurorack/plaits/dsp/oscillator/z_oscillator.h ****       bool reset = false;
 1836              		.loc 4 92 16 view .LVU551
 1837 006a 013D     		subs	r5, r5, #1
 1838              	.LVL145:
  92:eurorack/plaits/dsp/oscillator/z_oscillator.h ****       bool reset = false;
 1839              		.loc 4 92 16 is_stmt 0 view .LVU552
 1840 006c C0F0A980 		bcc	.L75
 1841              	.LBB460:
  93:eurorack/plaits/dsp/oscillator/z_oscillator.h ****       float reset_time = 0.0f;
 1842              		.loc 4 93 7 is_stmt 1 view .LVU553
 1843              	.LVL146:
  94:eurorack/plaits/dsp/oscillator/z_oscillator.h **** 
 1844              		.loc 4 94 7 view .LVU554
  96:eurorack/plaits/dsp/oscillator/z_oscillator.h ****       next_sample = 0.0f;
 1845              		.loc 4 96 7 view .LVU555
  97:eurorack/plaits/dsp/oscillator/z_oscillator.h ****     
 1846              		.loc 4 97 7 view .LVU556
  99:eurorack/plaits/dsp/oscillator/z_oscillator.h ****       const float f1 = formant_frequency_modulation.Next();
 1847              		.loc 4 99 7 view .LVU557
 1848              	.LBB461:
 1849              	.LBI461:
  59:eurorack/stmlib/dsp/parameter_interpolator.h ****     value_ += increment_;
 1850              		.loc 8 59 16 view .LVU558
 1851              	.LBB462:
  60:eurorack/stmlib/dsp/parameter_interpolator.h ****     return value_;
 1852              		.loc 8 60 5 view .LVU559
 1853              	.LBE462:
 1854              	.LBE461:
 102:eurorack/plaits/dsp/oscillator/z_oscillator.h ****       carrier_phase_ += f0;
 1855              		.loc 4 102 28 is_stmt 0 view .LVU560
 1856 0070 94ED018A 		vldr.32	s16, [r4, #4]
 1857              	.LBB464:
 1858              	.LBB463:
  60:eurorack/stmlib/dsp/parameter_interpolator.h ****     return value_;
 1859              		.loc 8 60 12 view .LVU561
 1860 0074 3EEE2BEA 		vadd.f32	s28, s28, s23
 1861              	.LVL147:
  61:eurorack/stmlib/dsp/parameter_interpolator.h ****   }
 1862              		.loc 8 61 5 is_stmt 1 view .LVU562
  61:eurorack/stmlib/dsp/parameter_interpolator.h ****   }
 1863              		.loc 8 61 5 is_stmt 0 view .LVU563
 1864              	.LBE463:
 1865              	.LBE464:
 100:eurorack/plaits/dsp/oscillator/z_oscillator.h ****     
 1866              		.loc 4 100 7 is_stmt 1 view .LVU564
ARM GAS  /var/folders/9s/8rp0_f2s1n31qbztm3b5_fdh0000gn/T//cc7CgoqZ.s 			page 55


 1867              	.LBB465:
 1868              	.LBI465:
  59:eurorack/stmlib/dsp/parameter_interpolator.h ****     value_ += increment_;
 1869              		.loc 8 59 16 view .LVU565
 1870              	.LBB466:
  60:eurorack/stmlib/dsp/parameter_interpolator.h ****     return value_;
 1871              		.loc 8 60 5 view .LVU566
 1872              	.LBE466:
 1873              	.LBE465:
 103:eurorack/plaits/dsp/oscillator/z_oscillator.h ****       reset = discontinuity_phase_ >= 1.0f;
 1874              		.loc 4 103 22 is_stmt 0 view .LVU567
 1875 0078 94ED007A 		vldr.32	s14, [r4]
 1876              	.LBB468:
 106:eurorack/plaits/dsp/oscillator/z_oscillator.h ****         discontinuity_phase_ -= 1.0f;
 1877              		.loc 4 106 7 view .LVU568
 1878 007c F7EE00EA 		vmov.f32	s29, #1.0e+0
 1879              	.LBB469:
 115:eurorack/plaits/dsp/oscillator/z_oscillator.h ****             carrier_shape_modulation.subsample(1.0f - reset_time),
 1880              		.loc 4 115 13 view .LVU569
 1881 0080 94ED021A 		vldr.32	s2, [r4, #8]
 1882              	.LBE469:
 1883              	.LBE468:
 1884              	.LBB491:
 1885              	.LBB467:
  60:eurorack/stmlib/dsp/parameter_interpolator.h ****     return value_;
 1886              		.loc 8 60 12 view .LVU570
 1887 0084 3FEE2CFA 		vadd.f32	s30, s30, s25
 1888              	.LVL148:
  61:eurorack/stmlib/dsp/parameter_interpolator.h ****   }
 1889              		.loc 8 61 5 is_stmt 1 view .LVU571
  61:eurorack/stmlib/dsp/parameter_interpolator.h ****   }
 1890              		.loc 8 61 5 is_stmt 0 view .LVU572
 1891              	.LBE467:
 1892              	.LBE491:
 102:eurorack/plaits/dsp/oscillator/z_oscillator.h ****       carrier_phase_ += f0;
 1893              		.loc 4 102 7 is_stmt 1 view .LVU573
 1894 0088 DFED558A 		vldr.32	s17, .L93
 102:eurorack/plaits/dsp/oscillator/z_oscillator.h ****       carrier_phase_ += f0;
 1895              		.loc 4 102 36 is_stmt 0 view .LVU574
 1896 008c 7EEE0E7A 		vadd.f32	s15, s28, s28
 103:eurorack/plaits/dsp/oscillator/z_oscillator.h ****       reset = discontinuity_phase_ >= 1.0f;
 1897              		.loc 4 103 22 view .LVU575
 1898 0090 3EEE077A 		vadd.f32	s14, s28, s14
 1899 0094 7CEE29AA 		vadd.f32	s21, s24, s19
 102:eurorack/plaits/dsp/oscillator/z_oscillator.h ****       carrier_phase_ += f0;
 1900              		.loc 4 102 28 view .LVU576
 1901 0098 37EE888A 		vadd.f32	s16, s15, s16
 1902 009c 3DEE09BA 		vadd.f32	s22, s26, s18
 103:eurorack/plaits/dsp/oscillator/z_oscillator.h ****       reset = discontinuity_phase_ >= 1.0f;
 1903              		.loc 4 103 22 view .LVU577
 1904 00a0 84ED007A 		vstr.32	s14, [r4]
 1905              	.LBB492:
 106:eurorack/plaits/dsp/oscillator/z_oscillator.h ****         discontinuity_phase_ -= 1.0f;
 1906              		.loc 4 106 7 view .LVU578
 1907 00a4 B4EEEE8A 		vcmpe.f32	s16, s29
 1908              	.LBE492:
 102:eurorack/plaits/dsp/oscillator/z_oscillator.h ****       carrier_phase_ += f0;
ARM GAS  /var/folders/9s/8rp0_f2s1n31qbztm3b5_fdh0000gn/T//cc7CgoqZ.s 			page 56


 1909              		.loc 4 102 28 view .LVU579
 1910 00a8 84ED018A 		vstr.32	s16, [r4, #4]
 103:eurorack/plaits/dsp/oscillator/z_oscillator.h ****       reset = discontinuity_phase_ >= 1.0f;
 1911              		.loc 4 103 7 is_stmt 1 view .LVU580
 104:eurorack/plaits/dsp/oscillator/z_oscillator.h ****       
 1912              		.loc 4 104 7 view .LVU581
 1913              	.LVL149:
 106:eurorack/plaits/dsp/oscillator/z_oscillator.h ****         discontinuity_phase_ -= 1.0f;
 1914              		.loc 4 106 7 view .LVU582
 1915              	.LBB493:
 1916 00ac F1EE10FA 		vmrs	APSR_nzcv, FPSCR
 1917 00b0 7BDB     		blt	.L91
 1918              	.LBB490:
 107:eurorack/plaits/dsp/oscillator/z_oscillator.h ****         reset_time = discontinuity_phase_ / (2.0f * f0);
 1919              		.loc 4 107 9 view .LVU583
 107:eurorack/plaits/dsp/oscillator/z_oscillator.h ****         reset_time = discontinuity_phase_ / (2.0f * f0);
 1920              		.loc 4 107 30 is_stmt 0 view .LVU584
 1921 00b2 38EE6E8A 		vsub.f32	s16, s16, s29
 1922              	.LVL150:
 107:eurorack/plaits/dsp/oscillator/z_oscillator.h ****         reset_time = discontinuity_phase_ / (2.0f * f0);
 1923              		.loc 4 107 30 view .LVU585
 1924 00b6 8DED017A 		vstr.32	s14, [sp, #4]	@ int
 110:eurorack/plaits/dsp/oscillator/z_oscillator.h ****         float carrier_phase_after = carrier_phase_ >= 1.0f ? 0.0f : 0.5f;
 1925              		.loc 4 110 61 view .LVU586
 1926 00ba B4EEEE7A 		vcmpe.f32	s14, s29
 1927 00be F6EE006A 		vmov.f32	s13, #5.0e-1
 108:eurorack/plaits/dsp/oscillator/z_oscillator.h ****         
 1928              		.loc 4 108 20 view .LVU587
 1929 00c2 88EE27AA 		vdiv.f32	s20, s16, s15
 107:eurorack/plaits/dsp/oscillator/z_oscillator.h ****         reset_time = discontinuity_phase_ / (2.0f * f0);
 1930              		.loc 4 107 30 view .LVU588
 1931 00c6 84ED018A 		vstr.32	s16, [r4, #4]
 1932              	.LVL151:
 108:eurorack/plaits/dsp/oscillator/z_oscillator.h ****         
 1933              		.loc 4 108 9 is_stmt 1 view .LVU589
 110:eurorack/plaits/dsp/oscillator/z_oscillator.h ****         float carrier_phase_after = carrier_phase_ >= 1.0f ? 0.0f : 0.5f;
 1934              		.loc 4 110 9 view .LVU590
 112:eurorack/plaits/dsp/oscillator/z_oscillator.h ****             carrier_phase_before,
 1935              		.loc 4 112 9 view .LVU591
 112:eurorack/plaits/dsp/oscillator/z_oscillator.h ****             carrier_phase_before,
 1936              		.loc 4 112 9 is_stmt 0 view .LVU592
 1937 00ca CDED036A 		vstr.32	s13, [sp, #12]	@ int
 110:eurorack/plaits/dsp/oscillator/z_oscillator.h ****         float carrier_phase_after = carrier_phase_ >= 1.0f ? 0.0f : 0.5f;
 1938              		.loc 4 110 61 view .LVU593
 1939 00ce F1EE10FA 		vmrs	APSR_nzcv, FPSCR
 112:eurorack/plaits/dsp/oscillator/z_oscillator.h ****             carrier_phase_before,
 1940              		.loc 4 112 25 view .LVU594
 1941 00d2 F0EE491A 		vmov.f32	s3, s18
 1942 00d6 B0EE692A 		vmov.f32	s4, s19
 111:eurorack/plaits/dsp/oscillator/z_oscillator.h ****         float before = Z(
 1943              		.loc 4 111 60 view .LVU595
 1944 00da B5BF     		itete	lt
 1945 00dc F0EE667A 		vmovlt.f32	s15, s13
 111:eurorack/plaits/dsp/oscillator/z_oscillator.h ****         float before = Z(
 1946              		.loc 4 111 60 view .LVU596
 1947 00e0 F0EE687A 		vmovge.f32	s15, s17
 110:eurorack/plaits/dsp/oscillator/z_oscillator.h ****         float carrier_phase_after = carrier_phase_ >= 1.0f ? 0.0f : 0.5f;
ARM GAS  /var/folders/9s/8rp0_f2s1n31qbztm3b5_fdh0000gn/T//cc7CgoqZ.s 			page 57


 1948              		.loc 4 110 61 view .LVU597
 1949 00e4 B0EE660A 		vmovlt.f32	s0, s13
 1950 00e8 B0EE6E0A 		vmovge.f32	s0, s29
 112:eurorack/plaits/dsp/oscillator/z_oscillator.h ****             carrier_phase_before,
 1951              		.loc 4 112 25 view .LVU598
 1952 00ec F7EE000A 		vmov.f32	s1, #1.0e+0
 1953 00f0 CDED027A 		vstr.32	s15, [sp, #8]	@ int
 1954              	.LVL152:
 115:eurorack/plaits/dsp/oscillator/z_oscillator.h ****             carrier_shape_modulation.subsample(1.0f - reset_time),
 1955              		.loc 4 115 36 view .LVU599
 1956 00f4 7EEECADA 		vsub.f32	s27, s29, s20
 1957              	.LVL153:
 1958              	.LBB470:
 1959              	.LBI470:
  64:eurorack/stmlib/dsp/parameter_interpolator.h ****     return value_ + increment_ * t;
 1960              		.loc 8 64 16 is_stmt 1 view .LVU600
 1961              	.LBB471:
 1962              		.loc 8 65 5 view .LVU601
 1963              		.loc 8 65 5 is_stmt 0 view .LVU602
 1964              	.LBE471:
 1965              	.LBE470:
 1966              	.LBB472:
 1967              	.LBI472:
  64:eurorack/stmlib/dsp/parameter_interpolator.h ****     return value_ + increment_ * t;
 1968              		.loc 8 64 16 is_stmt 1 view .LVU603
 1969              	.LBB473:
 1970              		.loc 8 65 5 view .LVU604
 1971              		.loc 8 65 5 is_stmt 0 view .LVU605
 1972              	.LBE473:
 1973              	.LBE472:
 112:eurorack/plaits/dsp/oscillator/z_oscillator.h ****             carrier_phase_before,
 1974              		.loc 4 112 25 view .LVU606
 1975 00f8 ADEE8C2A 		vfma.f32	s4, s27, s24
 1976 00fc EDEE8D1A 		vfma.f32	s3, s27, s26
 1977 0100 ADEE8F1A 		vfma.f32	s2, s27, s30
 1978 0104 FFF7FEFF 		bl	_ZN6plaits11ZOscillator1ZEfffff.isra.0
 1979              	.LVL154:
 119:eurorack/plaits/dsp/oscillator/z_oscillator.h ****             carrier_phase_after,
 1980              		.loc 4 119 24 view .LVU607
 1981 0108 DDED027A 		vldr.32	s15, [sp, #8]	@ int
 1982 010c 9FED341A 		vldr.32	s2, .L93
 112:eurorack/plaits/dsp/oscillator/z_oscillator.h ****             carrier_phase_before,
 1983              		.loc 4 112 25 view .LVU608
 1984 0110 B0EE409A 		vmov.f32	s18, s0
 1985              	.LVL155:
 119:eurorack/plaits/dsp/oscillator/z_oscillator.h ****             carrier_phase_after,
 1986              		.loc 4 119 9 is_stmt 1 view .LVU609
 1987              	.LBB474:
 1988              	.LBI474:
  64:eurorack/stmlib/dsp/parameter_interpolator.h ****     return value_ + increment_ * t;
 1989              		.loc 8 64 16 view .LVU610
 1990              	.LBB475:
 1991              		.loc 8 65 5 view .LVU611
 1992              		.loc 8 65 5 is_stmt 0 view .LVU612
 1993              	.LBE475:
 1994              	.LBE474:
 1995              	.LBB476:
ARM GAS  /var/folders/9s/8rp0_f2s1n31qbztm3b5_fdh0000gn/T//cc7CgoqZ.s 			page 58


 1996              	.LBI476:
  64:eurorack/stmlib/dsp/parameter_interpolator.h ****     return value_ + increment_ * t;
 1997              		.loc 8 64 16 is_stmt 1 view .LVU613
 1998              	.LBB477:
 1999              		.loc 8 65 5 view .LVU614
 2000              		.loc 8 65 5 is_stmt 0 view .LVU615
 2001              	.LBE477:
 2002              	.LBE476:
 119:eurorack/plaits/dsp/oscillator/z_oscillator.h ****             carrier_phase_after,
 2003              		.loc 4 119 24 view .LVU616
 2004 0114 B0EE6A2A 		vmov.f32	s4, s21
 2005 0118 B0EE670A 		vmov.f32	s0, s15
 2006              	.LVL156:
 119:eurorack/plaits/dsp/oscillator/z_oscillator.h ****             carrier_phase_after,
 2007              		.loc 4 119 24 view .LVU617
 2008 011c F0EE4B1A 		vmov.f32	s3, s22
 2009 0120 F0EE410A 		vmov.f32	s1, s2
 2010 0124 FFF7FEFF 		bl	_ZN6plaits11ZOscillator1ZEfffff.isra.0
 2011              	.LVL157:
 126:eurorack/plaits/dsp/oscillator/z_oscillator.h ****         this_sample += discontinuity * stmlib::ThisBlepSample(reset_time);
 2012              		.loc 4 126 9 is_stmt 1 view .LVU618
 2013              	.LBB478:
 2014              	.LBB479:
  38:eurorack/stmlib/dsp/polyblep.h **** }
 2015              		.loc 9 38 15 is_stmt 0 view .LVU619
 2016 0128 DDED036A 		vldr.32	s13, [sp, #12]	@ int
 2017              	.LBE479:
 2018              	.LBE478:
 126:eurorack/plaits/dsp/oscillator/z_oscillator.h ****         this_sample += discontinuity * stmlib::ThisBlepSample(reset_time);
 2019              		.loc 4 126 15 view .LVU620
 2020 012c 30EE490A 		vsub.f32	s0, s0, s18
 2021              	.LVL158:
 127:eurorack/plaits/dsp/oscillator/z_oscillator.h ****         next_sample += discontinuity * stmlib::NextBlepSample(reset_time);
 2022              		.loc 4 127 9 is_stmt 1 view .LVU621
 2023              	.LBB483:
 2024              	.LBI478:
  37:eurorack/stmlib/dsp/polyblep.h ****   return 0.5f * t * t;
 2025              		.loc 9 37 14 view .LVU622
 2026              	.LBB480:
  38:eurorack/stmlib/dsp/polyblep.h **** }
 2027              		.loc 9 38 3 view .LVU623
  38:eurorack/stmlib/dsp/polyblep.h **** }
 2028              		.loc 9 38 3 is_stmt 0 view .LVU624
 2029              	.LBE480:
 2030              	.LBE483:
 131:eurorack/plaits/dsp/oscillator/z_oscillator.h ****           carrier_phase_ = discontinuity_phase_ * 0.5f;
 2031              		.loc 4 131 9 view .LVU625
 2032 0130 9DED017A 		vldr.32	s14, [sp, #4]	@ int
 2033              	.LBB484:
 2034              	.LBB481:
  38:eurorack/stmlib/dsp/polyblep.h **** }
 2035              		.loc 9 38 15 view .LVU626
 2036 0134 6AEE267A 		vmul.f32	s15, s20, s13
 2037              	.LBE481:
 2038              	.LBE484:
 131:eurorack/plaits/dsp/oscillator/z_oscillator.h ****           carrier_phase_ = discontinuity_phase_ * 0.5f;
 2039              		.loc 4 131 9 view .LVU627
ARM GAS  /var/folders/9s/8rp0_f2s1n31qbztm3b5_fdh0000gn/T//cc7CgoqZ.s 			page 59


 2040 0138 B4EEEE7A 		vcmpe.f32	s14, s29
 2041              	.LBB485:
 2042              	.LBB482:
  38:eurorack/stmlib/dsp/polyblep.h **** }
 2043              		.loc 9 38 21 view .LVU628
 2044 013c 67EE8A7A 		vmul.f32	s15, s15, s20
 2045              	.LBE482:
 2046              	.LBE485:
 131:eurorack/plaits/dsp/oscillator/z_oscillator.h ****           carrier_phase_ = discontinuity_phase_ * 0.5f;
 2047              		.loc 4 131 9 view .LVU629
 2048 0140 F1EE10FA 		vmrs	APSR_nzcv, FPSCR
 129:eurorack/plaits/dsp/oscillator/z_oscillator.h ****         
 2049              		.loc 4 129 37 view .LVU630
 2050 0144 2AEE0FAA 		vmul.f32	s20, s20, s30
 2051              	.LVL159:
 127:eurorack/plaits/dsp/oscillator/z_oscillator.h ****         next_sample += discontinuity * stmlib::NextBlepSample(reset_time);
 2052              		.loc 4 127 21 view .LVU631
 2053 0148 E0EE27FA 		vfma.f32	s31, s0, s15
 2054              	.LVL160:
 128:eurorack/plaits/dsp/oscillator/z_oscillator.h ****         formant_phase_ = reset_time * f1;
 2055              		.loc 4 128 9 is_stmt 1 view .LVU632
 2056              	.LBB486:
 2057              	.LBI486:
  41:eurorack/stmlib/dsp/polyblep.h ****   t = 1.0f - t;
 2058              		.loc 9 41 14 view .LVU633
 2059              	.LBB487:
  42:eurorack/stmlib/dsp/polyblep.h ****   return -0.5f * t * t;
 2060              		.loc 9 42 3 view .LVU634
 2061              		.loc 9 43 3 view .LVU635
 2062              		.loc 9 43 16 is_stmt 0 view .LVU636
 2063 014c FEEE007A 		vmov.f32	s15, #-5.0e-1
 2064              	.LBE487:
 2065              	.LBE486:
 129:eurorack/plaits/dsp/oscillator/z_oscillator.h ****         
 2066              		.loc 4 129 24 view .LVU637
 2067 0150 84ED02AA 		vstr.32	s20, [r4, #8]
 2068              	.LBB489:
 2069              	.LBB488:
 2070              		.loc 9 43 16 view .LVU638
 2071 0154 6DEEA77A 		vmul.f32	s15, s27, s15
 2072              		.loc 9 43 22 view .LVU639
 2073 0158 67EEAD7A 		vmul.f32	s15, s15, s27
 2074              	.LBE488:
 2075              	.LBE489:
 128:eurorack/plaits/dsp/oscillator/z_oscillator.h ****         formant_phase_ = reset_time * f1;
 2076              		.loc 4 128 21 view .LVU640
 2077 015c E7EE808A 		vfma.f32	s17, s15, s0
 2078              	.LVL161:
 129:eurorack/plaits/dsp/oscillator/z_oscillator.h ****         
 2079              		.loc 4 129 9 is_stmt 1 view .LVU641
 131:eurorack/plaits/dsp/oscillator/z_oscillator.h ****           carrier_phase_ = discontinuity_phase_ * 0.5f;
 2080              		.loc 4 131 9 view .LVU642
 2081 0160 03DD     		ble	.L79
 132:eurorack/plaits/dsp/oscillator/z_oscillator.h ****         }
 2082              		.loc 4 132 11 view .LVU643
 132:eurorack/plaits/dsp/oscillator/z_oscillator.h ****         }
 2083              		.loc 4 132 49 is_stmt 0 view .LVU644
ARM GAS  /var/folders/9s/8rp0_f2s1n31qbztm3b5_fdh0000gn/T//cc7CgoqZ.s 			page 60


 2084 0162 28EE268A 		vmul.f32	s16, s16, s13
 2085              	.LVL162:
 132:eurorack/plaits/dsp/oscillator/z_oscillator.h ****         }
 2086              		.loc 4 132 26 view .LVU645
 2087 0166 84ED008A 		vstr.32	s16, [r4]
 2088              	.LVL163:
 2089              	.L79:
 132:eurorack/plaits/dsp/oscillator/z_oscillator.h ****         }
 2090              		.loc 4 132 26 view .LVU646
 2091              	.LBE490:
 2092              	.LBE493:
 141:eurorack/plaits/dsp/oscillator/z_oscillator.h ****         carrier_phase_ -= 1.0f;
 2093              		.loc 4 141 7 is_stmt 1 view .LVU647
 141:eurorack/plaits/dsp/oscillator/z_oscillator.h ****         carrier_phase_ -= 1.0f;
 2094              		.loc 4 141 11 is_stmt 0 view .LVU648
 2095 016a D4ED007A 		vldr.32	s15, [r4]
 145:eurorack/plaits/dsp/oscillator/z_oscillator.h ****           carrier_phase_,
 2096              		.loc 4 145 23 view .LVU649
 2097 016e B0EE6A2A 		vmov.f32	s4, s21
 2098 0172 94ED021A 		vldr.32	s2, [r4, #8]
 2099 0176 F0EE4B1A 		vmov.f32	s3, s22
 141:eurorack/plaits/dsp/oscillator/z_oscillator.h ****         carrier_phase_ -= 1.0f;
 2100              		.loc 4 141 7 view .LVU650
 2101 017a F4EEEE7A 		vcmpe.f32	s15, s29
 145:eurorack/plaits/dsp/oscillator/z_oscillator.h ****           carrier_phase_,
 2102              		.loc 4 145 23 view .LVU651
 2103 017e D4ED010A 		vldr.32	s1, [r4, #4]
 2104              	.LBB494:
 2105              	.LBB495:
  60:eurorack/stmlib/dsp/parameter_interpolator.h ****     return value_;
 2106              		.loc 8 60 12 view .LVU652
 2107 0182 B0EE4B9A 		vmov.f32	s18, s22
 2108              	.LBE495:
 2109              	.LBE494:
 2110              	.LBB497:
 2111              	.LBB498:
 2112 0186 F0EE6A9A 		vmov.f32	s19, s21
 2113              	.LVL164:
  60:eurorack/stmlib/dsp/parameter_interpolator.h ****     return value_;
 2114              		.loc 8 60 12 view .LVU653
 2115              	.LBE498:
 2116              	.LBE497:
 141:eurorack/plaits/dsp/oscillator/z_oscillator.h ****         carrier_phase_ -= 1.0f;
 2117              		.loc 4 141 7 view .LVU654
 2118 018a F1EE10FA 		vmrs	APSR_nzcv, FPSCR
 142:eurorack/plaits/dsp/oscillator/z_oscillator.h ****       }
 2119              		.loc 4 142 9 is_stmt 1 view .LVU655
 142:eurorack/plaits/dsp/oscillator/z_oscillator.h ****       }
 2120              		.loc 4 142 24 is_stmt 0 view .LVU656
 2121 018e A4BF     		itt	ge
 2122 0190 77EEEE7A 		vsubge.f32	s15, s15, s29
 2123 0194 C4ED007A 		vstrge.32	s15, [r4]
 145:eurorack/plaits/dsp/oscillator/z_oscillator.h ****           carrier_phase_,
 2124              		.loc 4 145 7 is_stmt 1 view .LVU657
 2125              	.LVL165:
 2126              	.LBB500:
 2127              	.LBI494:
ARM GAS  /var/folders/9s/8rp0_f2s1n31qbztm3b5_fdh0000gn/T//cc7CgoqZ.s 			page 61


  59:eurorack/stmlib/dsp/parameter_interpolator.h ****     value_ += increment_;
 2128              		.loc 8 59 16 view .LVU658
 2129              	.LBB496:
  60:eurorack/stmlib/dsp/parameter_interpolator.h ****     return value_;
 2130              		.loc 8 60 5 view .LVU659
  61:eurorack/stmlib/dsp/parameter_interpolator.h ****   }
 2131              		.loc 8 61 5 view .LVU660
  61:eurorack/stmlib/dsp/parameter_interpolator.h ****   }
 2132              		.loc 8 61 5 is_stmt 0 view .LVU661
 2133              	.LBE496:
 2134              	.LBE500:
 2135              	.LBB501:
 2136              	.LBI497:
  59:eurorack/stmlib/dsp/parameter_interpolator.h ****     value_ += increment_;
 2137              		.loc 8 59 16 is_stmt 1 view .LVU662
 2138              	.LBB499:
  60:eurorack/stmlib/dsp/parameter_interpolator.h ****     return value_;
 2139              		.loc 8 60 5 view .LVU663
  61:eurorack/stmlib/dsp/parameter_interpolator.h ****   }
 2140              		.loc 8 61 5 view .LVU664
  61:eurorack/stmlib/dsp/parameter_interpolator.h ****   }
 2141              		.loc 8 61 5 is_stmt 0 view .LVU665
 2142              	.LBE499:
 2143              	.LBE501:
 145:eurorack/plaits/dsp/oscillator/z_oscillator.h ****           carrier_phase_,
 2144              		.loc 4 145 23 view .LVU666
 2145 0198 94ED000A 		vldr.32	s0, [r4]
 2146 019c FFF7FEFF 		bl	_ZN6plaits11ZOscillator1ZEfffff.isra.0
 2147              	.LVL166:
 151:eurorack/plaits/dsp/oscillator/z_oscillator.h ****     }
 2148              		.loc 4 151 7 is_stmt 1 view .LVU667
 151:eurorack/plaits/dsp/oscillator/z_oscillator.h ****     }
 2149              		.loc 4 151 14 is_stmt 0 view .LVU668
 2150 01a0 E6EC01FA 		vstmia.32	r6!, {s31}
 2151              	.LVL167:
 145:eurorack/plaits/dsp/oscillator/z_oscillator.h ****           carrier_phase_,
 2152              		.loc 4 145 19 view .LVU669
 2153 01a4 78EE80FA 		vadd.f32	s31, s17, s0
 2154              	.LVL168:
 145:eurorack/plaits/dsp/oscillator/z_oscillator.h ****           carrier_phase_,
 2155              		.loc 4 145 19 view .LVU670
 2156              	.LBE460:
  92:eurorack/plaits/dsp/oscillator/z_oscillator.h ****       bool reset = false;
 2157              		.loc 4 92 5 view .LVU671
 2158 01a8 5FE7     		b	.L84
 2159              	.LVL169:
 2160              	.L91:
 2161              	.LBB503:
 2162              	.LBB502:
 135:eurorack/plaits/dsp/oscillator/z_oscillator.h ****         if (formant_phase_ >= 1.0f) {
 2163              		.loc 4 135 9 is_stmt 1 view .LVU672
 135:eurorack/plaits/dsp/oscillator/z_oscillator.h ****         if (formant_phase_ >= 1.0f) {
 2164              		.loc 4 135 24 is_stmt 0 view .LVU673
 2165 01aa 3FEE011A 		vadd.f32	s2, s30, s2
 136:eurorack/plaits/dsp/oscillator/z_oscillator.h ****           formant_phase_ -= 1.0f;
 2166              		.loc 4 136 9 is_stmt 1 view .LVU674
 2167 01ae B4EEEE1A 		vcmpe.f32	s2, s29
ARM GAS  /var/folders/9s/8rp0_f2s1n31qbztm3b5_fdh0000gn/T//cc7CgoqZ.s 			page 62


 2168 01b2 F1EE10FA 		vmrs	APSR_nzcv, FPSCR
 137:eurorack/plaits/dsp/oscillator/z_oscillator.h ****         }
 2169              		.loc 4 137 11 view .LVU675
 137:eurorack/plaits/dsp/oscillator/z_oscillator.h ****         }
 2170              		.loc 4 137 26 is_stmt 0 view .LVU676
 2171 01b6 A8BF     		it	ge
 2172 01b8 31EE6E1A 		vsubge.f32	s2, s2, s29
 2173 01bc 84ED021A 		vstr.32	s2, [r4, #8]
 2174 01c0 D3E7     		b	.L79
 2175              	.LVL170:
 2176              	.L75:
 137:eurorack/plaits/dsp/oscillator/z_oscillator.h ****         }
 2177              		.loc 4 137 26 view .LVU677
 2178              	.LBE502:
 2179              	.LBE503:
 154:eurorack/plaits/dsp/oscillator/z_oscillator.h ****   }
 2180              		.loc 4 154 5 is_stmt 1 view .LVU678
 154:eurorack/plaits/dsp/oscillator/z_oscillator.h ****   }
 2181              		.loc 4 154 18 is_stmt 0 view .LVU679
 2182 01c2 C4ED03FA 		vstr.32	s31, [r4, #12]
 2183              	.LVL171:
 2184              	.LBB504:
 2185              	.LBI504:
  49:eurorack/stmlib/dsp/parameter_interpolator.h ****     *state_ = value_;
 2186              		.loc 8 49 3 is_stmt 1 view .LVU680
 2187              	.LBB505:
  50:eurorack/stmlib/dsp/parameter_interpolator.h ****   }
 2188              		.loc 8 50 5 view .LVU681
  50:eurorack/stmlib/dsp/parameter_interpolator.h ****   }
 2189              		.loc 8 50 13 is_stmt 0 view .LVU682
 2190 01c6 C4ED079A 		vstr.32	s19, [r4, #28]
 2191              	.LVL172:
  50:eurorack/stmlib/dsp/parameter_interpolator.h ****   }
 2192              		.loc 8 50 13 view .LVU683
 2193              	.LBE505:
 2194              	.LBE504:
 2195              	.LBB506:
 2196              	.LBI506:
  49:eurorack/stmlib/dsp/parameter_interpolator.h ****     *state_ = value_;
 2197              		.loc 8 49 3 is_stmt 1 view .LVU684
 2198              	.LBB507:
  50:eurorack/stmlib/dsp/parameter_interpolator.h ****   }
 2199              		.loc 8 50 5 view .LVU685
  50:eurorack/stmlib/dsp/parameter_interpolator.h ****   }
 2200              		.loc 8 50 13 is_stmt 0 view .LVU686
 2201 01ca 84ED069A 		vstr.32	s18, [r4, #24]
 2202              	.LVL173:
  50:eurorack/stmlib/dsp/parameter_interpolator.h ****   }
 2203              		.loc 8 50 13 view .LVU687
 2204              	.LBE507:
 2205              	.LBE506:
 2206              	.LBB508:
 2207              	.LBI508:
  49:eurorack/stmlib/dsp/parameter_interpolator.h ****     *state_ = value_;
 2208              		.loc 8 49 3 is_stmt 1 view .LVU688
 2209              	.LBB509:
  50:eurorack/stmlib/dsp/parameter_interpolator.h ****   }
ARM GAS  /var/folders/9s/8rp0_f2s1n31qbztm3b5_fdh0000gn/T//cc7CgoqZ.s 			page 63


 2210              		.loc 8 50 5 view .LVU689
  50:eurorack/stmlib/dsp/parameter_interpolator.h ****   }
 2211              		.loc 8 50 13 is_stmt 0 view .LVU690
 2212 01ce 84ED05FA 		vstr.32	s30, [r4, #20]
 2213              	.LVL174:
  50:eurorack/stmlib/dsp/parameter_interpolator.h ****   }
 2214              		.loc 8 50 13 view .LVU691
 2215              	.LBE509:
 2216              	.LBE508:
 2217              	.LBB510:
 2218              	.LBI510:
  49:eurorack/stmlib/dsp/parameter_interpolator.h ****     *state_ = value_;
 2219              		.loc 8 49 3 is_stmt 1 view .LVU692
 2220              	.LBB511:
  50:eurorack/stmlib/dsp/parameter_interpolator.h ****   }
 2221              		.loc 8 50 5 view .LVU693
  50:eurorack/stmlib/dsp/parameter_interpolator.h ****   }
 2222              		.loc 8 50 13 is_stmt 0 view .LVU694
 2223 01d2 84ED04EA 		vstr.32	s28, [r4, #16]
 2224              	.LVL175:
  50:eurorack/stmlib/dsp/parameter_interpolator.h ****   }
 2225              		.loc 8 50 13 view .LVU695
 2226              	.LBE511:
 2227              	.LBE510:
 155:eurorack/plaits/dsp/oscillator/z_oscillator.h **** 
 2228              		.loc 4 155 3 view .LVU696
 2229 01d6 04B0     		add	sp, sp, #16
 2230              		.cfi_def_cfa_offset 80
 2231              		@ sp needed
 2232 01d8 BDEC108B 		vldm	sp!, {d8-d15}
 2233              		.cfi_restore 94
 2234              		.cfi_restore 95
 2235              		.cfi_restore 92
 2236              		.cfi_restore 93
 2237              		.cfi_restore 90
 2238              		.cfi_restore 91
 2239              		.cfi_restore 88
 2240              		.cfi_restore 89
 2241              		.cfi_restore 86
 2242              		.cfi_restore 87
 2243              		.cfi_restore 84
 2244              		.cfi_restore 85
 2245              		.cfi_restore 82
 2246              		.cfi_restore 83
 2247              		.cfi_restore 80
 2248              		.cfi_restore 81
 2249              		.cfi_def_cfa_offset 16
 2250              	.LVL176:
 155:eurorack/plaits/dsp/oscillator/z_oscillator.h **** 
 2251              		.loc 4 155 3 view .LVU697
 2252 01dc 70BD     		pop	{r4, r5, r6, pc}
 2253              	.LVL177:
 2254              	.L94:
 155:eurorack/plaits/dsp/oscillator/z_oscillator.h **** 
 2255              		.loc 4 155 3 view .LVU698
 2256 01de 00BF     		.align	2
 2257              	.L93:
ARM GAS  /var/folders/9s/8rp0_f2s1n31qbztm3b5_fdh0000gn/T//cc7CgoqZ.s 			page 64


 2258 01e0 00000000 		.word	0
 2259              		.cfi_endproc
 2260              	.LFE1600:
 2262              		.section	.text._ZN6plaits11GrainEngine6RenderERKNS_16EngineParametersEPfS4_jPb,"ax",%progbits
 2263              		.align	1
 2264              		.global	_ZN6plaits11GrainEngine6RenderERKNS_16EngineParametersEPfS4_jPb
 2265              		.syntax unified
 2266              		.thumb
 2267              		.thumb_func
 2269              	_ZN6plaits11GrainEngine6RenderERKNS_16EngineParametersEPfS4_jPb:
 2270              	.LVL178:
 2271              	.LFB1611:
  50:eurorack/plaits/dsp/engine/grain_engine.cc **** 
  51:eurorack/plaits/dsp/engine/grain_engine.cc **** void GrainEngine::Render(
  52:eurorack/plaits/dsp/engine/grain_engine.cc ****     const EngineParameters& parameters,
  53:eurorack/plaits/dsp/engine/grain_engine.cc ****     float* out,
  54:eurorack/plaits/dsp/engine/grain_engine.cc ****     float* aux,
  55:eurorack/plaits/dsp/engine/grain_engine.cc ****     size_t size,
  56:eurorack/plaits/dsp/engine/grain_engine.cc ****     bool* already_enveloped) {
 2272              		.loc 1 56 30 is_stmt 1 view -0
 2273              		.cfi_startproc
 2274              		@ args = 8, pretend = 0, frame = 8
 2275              		@ frame_needed = 0, uses_anonymous_args = 0
  57:eurorack/plaits/dsp/engine/grain_engine.cc ****   const float root = parameters.note;
 2276              		.loc 1 57 3 view .LVU700
  56:eurorack/plaits/dsp/engine/grain_engine.cc ****   const float root = parameters.note;
 2277              		.loc 1 56 30 is_stmt 0 view .LVU701
 2278 0000 2DE9F041 		push	{r4, r5, r6, r7, r8, lr}
 2279              		.cfi_def_cfa_offset 24
 2280              		.cfi_offset 4, -24
 2281              		.cfi_offset 5, -20
 2282              		.cfi_offset 6, -16
 2283              		.cfi_offset 7, -12
 2284              		.cfi_offset 8, -8
 2285              		.cfi_offset 14, -4
 2286 0004 2DED088B 		vpush.64	{d8, d9, d10, d11}
 2287              		.cfi_def_cfa_offset 56
 2288              		.cfi_offset 80, -56
 2289              		.cfi_offset 81, -52
 2290              		.cfi_offset 82, -48
 2291              		.cfi_offset 83, -44
 2292              		.cfi_offset 84, -40
 2293              		.cfi_offset 85, -36
 2294              		.cfi_offset 86, -32
 2295              		.cfi_offset 87, -28
 2296              		.loc 1 57 15 view .LVU702
 2297 0008 91ED019A 		vldr.32	s18, [r1, #4]
 2298              	.LVL179:
  58:eurorack/plaits/dsp/engine/grain_engine.cc ****   const float f0 = NoteToFrequency(root);
 2299              		.loc 1 58 3 is_stmt 1 view .LVU703
  59:eurorack/plaits/dsp/engine/grain_engine.cc ****   
  60:eurorack/plaits/dsp/engine/grain_engine.cc ****   const float f1 = NoteToFrequency(24.0f + 84.0f * parameters.timbre);
 2300              		.loc 1 60 35 is_stmt 0 view .LVU704
 2301 000c B3EE08BA 		vmov.f32	s22, #2.4e+1
  56:eurorack/plaits/dsp/engine/grain_engine.cc ****   const float root = parameters.note;
 2302              		.loc 1 56 30 view .LVU705
 2303 0010 82B0     		sub	sp, sp, #8
ARM GAS  /var/folders/9s/8rp0_f2s1n31qbztm3b5_fdh0000gn/T//cc7CgoqZ.s 			page 65


 2304              		.cfi_def_cfa_offset 64
  56:eurorack/plaits/dsp/engine/grain_engine.cc ****   const float root = parameters.note;
 2305              		.loc 1 56 30 view .LVU706
 2306 0012 0F46     		mov	r7, r1
  58:eurorack/plaits/dsp/engine/grain_engine.cc ****   const float f0 = NoteToFrequency(root);
 2307              		.loc 1 58 35 view .LVU707
 2308 0014 B0EE490A 		vmov.f32	s0, s18
  56:eurorack/plaits/dsp/engine/grain_engine.cc ****   const float root = parameters.note;
 2309              		.loc 1 56 30 view .LVU708
 2310 0018 0446     		mov	r4, r0
 2311 001a 1646     		mov	r6, r2
 2312 001c 1D46     		mov	r5, r3
  58:eurorack/plaits/dsp/engine/grain_engine.cc ****   const float f0 = NoteToFrequency(root);
 2313              		.loc 1 58 35 view .LVU709
 2314 001e FFF7FEFF 		bl	_ZN6plaits15NoteToFrequencyEf
 2315              	.LVL180:
  58:eurorack/plaits/dsp/engine/grain_engine.cc ****   const float f0 = NoteToFrequency(root);
 2316              		.loc 1 58 35 view .LVU710
 2317 0022 F0EE408A 		vmov.f32	s17, s0
 2318              	.LVL181:
 2319              		.loc 1 60 3 is_stmt 1 view .LVU711
 2320              		.loc 1 60 35 is_stmt 0 view .LVU712
 2321 0026 B0EE4B0A 		vmov.f32	s0, s22
 2322              	.LVL182:
 2323              		.loc 1 60 35 view .LVU713
 2324 002a 97ED027A 		vldr.32	s14, [r7, #8]
 2325 002e DFED657A 		vldr.32	s15, .L109
 2326 0032 F7EE009A 		vmov.f32	s19, #1.0e+0
  56:eurorack/plaits/dsp/engine/grain_engine.cc ****   const float root = parameters.note;
 2327              		.loc 1 56 30 view .LVU714
 2328 0036 DDF84080 		ldr	r8, [sp, #64]
 2329              		.loc 1 60 35 view .LVU715
 2330 003a A7EE270A 		vfma.f32	s0, s14, s15
 2331 003e FFF7FEFF 		bl	_ZN6plaits15NoteToFrequencyEf
 2332              	.LVL183:
 2333 0042 B0EE408A 		vmov.f32	s16, s0
 2334              	.LVL184:
  61:eurorack/plaits/dsp/engine/grain_engine.cc ****   const float ratio = SemitonesToRatio(-24.0f + 48.0f * parameters.harmonics);
 2335              		.loc 1 61 3 is_stmt 1 view .LVU716
 2336              		.loc 1 61 39 is_stmt 0 view .LVU717
 2337 0046 BBEE080A 		vmov.f32	s0, #-2.4e+1
 2338              	.LVL185:
 2339              		.loc 1 61 68 view .LVU718
 2340 004a D7ED04AA 		vldr.32	s21, [r7, #16]
 2341              		.loc 1 61 39 view .LVU719
 2342 004e DFED5E7A 		vldr.32	s15, .L109+4
 2343 0052 AAEEA70A 		vfma.f32	s0, s21, s15
 2344 0056 FFF7FEFF 		bl	_ZN6stmlib16SemitonesToRatioEf
 2345              	.LVL186:
  62:eurorack/plaits/dsp/engine/grain_engine.cc ****   const float carrier_bleed = parameters.harmonics < 0.5f
  63:eurorack/plaits/dsp/engine/grain_engine.cc ****       ? 1.0f - 2.0f * parameters.harmonics
 2346              		.loc 1 63 7 view .LVU720
 2347 005a F6EE007A 		vmov.f32	s15, #5.0e-1
 2348 005e F0EE001A 		vmov.f32	s3, #2.0e+0
  64:eurorack/plaits/dsp/engine/grain_engine.cc ****       : 0.0f;
  65:eurorack/plaits/dsp/engine/grain_engine.cc ****   const float carrier_bleed_fixed = carrier_bleed * (2.0f - carrier_bleed);
  66:eurorack/plaits/dsp/engine/grain_engine.cc ****   const float carrier_shape = 0.33f + (parameters.morph - 0.33f) * \
ARM GAS  /var/folders/9s/8rp0_f2s1n31qbztm3b5_fdh0000gn/T//cc7CgoqZ.s 			page 66


 2349              		.loc 1 66 57 view .LVU721
 2350 0062 97ED037A 		vldr.32	s14, [r7, #12]
 2351 0066 9FED591A 		vldr.32	s2, .L109+8
  61:eurorack/plaits/dsp/engine/grain_engine.cc ****   const float carrier_bleed = parameters.harmonics < 0.5f
 2352              		.loc 1 61 39 view .LVU722
 2353 006a B0EE40AA 		vmov.f32	s20, s0
 2354              	.LVL187:
  62:eurorack/plaits/dsp/engine/grain_engine.cc ****   const float carrier_bleed = parameters.harmonics < 0.5f
 2355              		.loc 1 62 3 is_stmt 1 view .LVU723
  63:eurorack/plaits/dsp/engine/grain_engine.cc ****       : 0.0f;
 2356              		.loc 1 63 7 is_stmt 0 view .LVU724
 2357 006e F4EEE7AA 		vcmpe.f32	s21, s15
  67:eurorack/plaits/dsp/engine/grain_engine.cc ****       max(1.0f - f0 * 24.0f, 0.0f);
  68:eurorack/plaits/dsp/engine/grain_engine.cc ****   
  69:eurorack/plaits/dsp/engine/grain_engine.cc ****   grainlet_[0].Render(f0, f1, carrier_shape, carrier_bleed_fixed, out, size);
 2358              		.loc 1 69 22 view .LVU725
 2359 0072 3146     		mov	r1, r6
  66:eurorack/plaits/dsp/engine/grain_engine.cc ****       max(1.0f - f0 * 24.0f, 0.0f);
 2360              		.loc 1 66 57 view .LVU726
 2361 0074 37EE417A 		vsub.f32	s14, s14, s2
 2362              		.loc 1 69 22 view .LVU727
 2363 0078 4246     		mov	r2, r8
 2364 007a F0EE480A 		vmov.f32	s1, s16
 2365 007e 04F11000 		add	r0, r4, #16
  63:eurorack/plaits/dsp/engine/grain_engine.cc ****       : 0.0f;
 2366              		.loc 1 63 7 view .LVU728
 2367 0082 F1EE10FA 		vmrs	APSR_nzcv, FPSCR
 2368              		.loc 1 69 22 view .LVU729
 2369 0086 B0EE680A 		vmov.f32	s0, s17
 2370              	.LVL188:
  63:eurorack/plaits/dsp/engine/grain_engine.cc ****       : 0.0f;
 2371              		.loc 1 63 7 view .LVU730
 2372 008a 4ABF     		itet	mi
 2373 008c F0EE697A 		vmovmi.f32	s15, s19
 2374 0090 DFED4F7A 		vldrpl.32	s15, .L109+12
 2375 0094 EAEEE17A 		vfmsmi.f32	s15, s21, s3
 2376              	.LVL189:
  65:eurorack/plaits/dsp/engine/grain_engine.cc ****   const float carrier_shape = 0.33f + (parameters.morph - 0.33f) * \
 2377              		.loc 1 65 3 is_stmt 1 view .LVU731
  65:eurorack/plaits/dsp/engine/grain_engine.cc ****   const float carrier_shape = 0.33f + (parameters.morph - 0.33f) * \
 2378              		.loc 1 65 59 is_stmt 0 view .LVU732
 2379 0098 71EEE71A 		vsub.f32	s3, s3, s15
  65:eurorack/plaits/dsp/engine/grain_engine.cc ****   const float carrier_shape = 0.33f + (parameters.morph - 0.33f) * \
 2380              		.loc 1 65 15 view .LVU733
 2381 009c 61EEA71A 		vmul.f32	s3, s3, s15
 2382              	.LVL190:
  66:eurorack/plaits/dsp/engine/grain_engine.cc ****       max(1.0f - f0 * 24.0f, 0.0f);
 2383              		.loc 1 66 3 is_stmt 1 view .LVU734
  67:eurorack/plaits/dsp/engine/grain_engine.cc ****       max(1.0f - f0 * 24.0f, 0.0f);
 2384              		.loc 1 67 16 is_stmt 0 view .LVU735
 2385 00a0 F0EE697A 		vmov.f32	s15, s19
 2386              	.LVL191:
 2387              		.loc 1 69 22 view .LVU736
 2388 00a4 CDED011A 		vstr.32	s3, [sp, #4]	@ int
  67:eurorack/plaits/dsp/engine/grain_engine.cc ****       max(1.0f - f0 * 24.0f, 0.0f);
 2389              		.loc 1 67 16 view .LVU737
 2390 00a8 E8EECB7A 		vfms.f32	s15, s17, s22
ARM GAS  /var/folders/9s/8rp0_f2s1n31qbztm3b5_fdh0000gn/T//cc7CgoqZ.s 			page 67


 2391              	.LVL192:
 2392              	.LBB531:
 2393              	.LBI531:
 2394              		.file 10 "/Library/DaisyToolchain/0.2.0/arm/arm-none-eabi/include/c++/10.3.1/bits/stl_algobase.h"
   1:/Library/DaisyToolchain/0.2.0/arm/arm-none-eabi/include/c++/10.3.1/bits/stl_algobase.h **** // Core algorithmic facilities -*- C++ -*-
   2:/Library/DaisyToolchain/0.2.0/arm/arm-none-eabi/include/c++/10.3.1/bits/stl_algobase.h **** 
   3:/Library/DaisyToolchain/0.2.0/arm/arm-none-eabi/include/c++/10.3.1/bits/stl_algobase.h **** // Copyright (C) 2001-2020 Free Software Foundation, Inc.
   4:/Library/DaisyToolchain/0.2.0/arm/arm-none-eabi/include/c++/10.3.1/bits/stl_algobase.h **** //
   5:/Library/DaisyToolchain/0.2.0/arm/arm-none-eabi/include/c++/10.3.1/bits/stl_algobase.h **** // This file is part of the GNU ISO C++ Library.  This library is free
   6:/Library/DaisyToolchain/0.2.0/arm/arm-none-eabi/include/c++/10.3.1/bits/stl_algobase.h **** // software; you can redistribute it and/or modify it under the
   7:/Library/DaisyToolchain/0.2.0/arm/arm-none-eabi/include/c++/10.3.1/bits/stl_algobase.h **** // terms of the GNU General Public License as published by the
   8:/Library/DaisyToolchain/0.2.0/arm/arm-none-eabi/include/c++/10.3.1/bits/stl_algobase.h **** // Free Software Foundation; either version 3, or (at your option)
   9:/Library/DaisyToolchain/0.2.0/arm/arm-none-eabi/include/c++/10.3.1/bits/stl_algobase.h **** // any later version.
  10:/Library/DaisyToolchain/0.2.0/arm/arm-none-eabi/include/c++/10.3.1/bits/stl_algobase.h **** 
  11:/Library/DaisyToolchain/0.2.0/arm/arm-none-eabi/include/c++/10.3.1/bits/stl_algobase.h **** // This library is distributed in the hope that it will be useful,
  12:/Library/DaisyToolchain/0.2.0/arm/arm-none-eabi/include/c++/10.3.1/bits/stl_algobase.h **** // but WITHOUT ANY WARRANTY; without even the implied warranty of
  13:/Library/DaisyToolchain/0.2.0/arm/arm-none-eabi/include/c++/10.3.1/bits/stl_algobase.h **** // MERCHANTABILITY or FITNESS FOR A PARTICULAR PURPOSE.  See the
  14:/Library/DaisyToolchain/0.2.0/arm/arm-none-eabi/include/c++/10.3.1/bits/stl_algobase.h **** // GNU General Public License for more details.
  15:/Library/DaisyToolchain/0.2.0/arm/arm-none-eabi/include/c++/10.3.1/bits/stl_algobase.h **** 
  16:/Library/DaisyToolchain/0.2.0/arm/arm-none-eabi/include/c++/10.3.1/bits/stl_algobase.h **** // Under Section 7 of GPL version 3, you are granted additional
  17:/Library/DaisyToolchain/0.2.0/arm/arm-none-eabi/include/c++/10.3.1/bits/stl_algobase.h **** // permissions described in the GCC Runtime Library Exception, version
  18:/Library/DaisyToolchain/0.2.0/arm/arm-none-eabi/include/c++/10.3.1/bits/stl_algobase.h **** // 3.1, as published by the Free Software Foundation.
  19:/Library/DaisyToolchain/0.2.0/arm/arm-none-eabi/include/c++/10.3.1/bits/stl_algobase.h **** 
  20:/Library/DaisyToolchain/0.2.0/arm/arm-none-eabi/include/c++/10.3.1/bits/stl_algobase.h **** // You should have received a copy of the GNU General Public License and
  21:/Library/DaisyToolchain/0.2.0/arm/arm-none-eabi/include/c++/10.3.1/bits/stl_algobase.h **** // a copy of the GCC Runtime Library Exception along with this program;
  22:/Library/DaisyToolchain/0.2.0/arm/arm-none-eabi/include/c++/10.3.1/bits/stl_algobase.h **** // see the files COPYING3 and COPYING.RUNTIME respectively.  If not, see
  23:/Library/DaisyToolchain/0.2.0/arm/arm-none-eabi/include/c++/10.3.1/bits/stl_algobase.h **** // <http://www.gnu.org/licenses/>.
  24:/Library/DaisyToolchain/0.2.0/arm/arm-none-eabi/include/c++/10.3.1/bits/stl_algobase.h **** 
  25:/Library/DaisyToolchain/0.2.0/arm/arm-none-eabi/include/c++/10.3.1/bits/stl_algobase.h **** /*
  26:/Library/DaisyToolchain/0.2.0/arm/arm-none-eabi/include/c++/10.3.1/bits/stl_algobase.h ****  *
  27:/Library/DaisyToolchain/0.2.0/arm/arm-none-eabi/include/c++/10.3.1/bits/stl_algobase.h ****  * Copyright (c) 1994
  28:/Library/DaisyToolchain/0.2.0/arm/arm-none-eabi/include/c++/10.3.1/bits/stl_algobase.h ****  * Hewlett-Packard Company
  29:/Library/DaisyToolchain/0.2.0/arm/arm-none-eabi/include/c++/10.3.1/bits/stl_algobase.h ****  *
  30:/Library/DaisyToolchain/0.2.0/arm/arm-none-eabi/include/c++/10.3.1/bits/stl_algobase.h ****  * Permission to use, copy, modify, distribute and sell this software
  31:/Library/DaisyToolchain/0.2.0/arm/arm-none-eabi/include/c++/10.3.1/bits/stl_algobase.h ****  * and its documentation for any purpose is hereby granted without fee,
  32:/Library/DaisyToolchain/0.2.0/arm/arm-none-eabi/include/c++/10.3.1/bits/stl_algobase.h ****  * provided that the above copyright notice appear in all copies and
  33:/Library/DaisyToolchain/0.2.0/arm/arm-none-eabi/include/c++/10.3.1/bits/stl_algobase.h ****  * that both that copyright notice and this permission notice appear
  34:/Library/DaisyToolchain/0.2.0/arm/arm-none-eabi/include/c++/10.3.1/bits/stl_algobase.h ****  * in supporting documentation.  Hewlett-Packard Company makes no
  35:/Library/DaisyToolchain/0.2.0/arm/arm-none-eabi/include/c++/10.3.1/bits/stl_algobase.h ****  * representations about the suitability of this software for any
  36:/Library/DaisyToolchain/0.2.0/arm/arm-none-eabi/include/c++/10.3.1/bits/stl_algobase.h ****  * purpose.  It is provided "as is" without express or implied warranty.
  37:/Library/DaisyToolchain/0.2.0/arm/arm-none-eabi/include/c++/10.3.1/bits/stl_algobase.h ****  *
  38:/Library/DaisyToolchain/0.2.0/arm/arm-none-eabi/include/c++/10.3.1/bits/stl_algobase.h ****  *
  39:/Library/DaisyToolchain/0.2.0/arm/arm-none-eabi/include/c++/10.3.1/bits/stl_algobase.h ****  * Copyright (c) 1996-1998
  40:/Library/DaisyToolchain/0.2.0/arm/arm-none-eabi/include/c++/10.3.1/bits/stl_algobase.h ****  * Silicon Graphics Computer Systems, Inc.
  41:/Library/DaisyToolchain/0.2.0/arm/arm-none-eabi/include/c++/10.3.1/bits/stl_algobase.h ****  *
  42:/Library/DaisyToolchain/0.2.0/arm/arm-none-eabi/include/c++/10.3.1/bits/stl_algobase.h ****  * Permission to use, copy, modify, distribute and sell this software
  43:/Library/DaisyToolchain/0.2.0/arm/arm-none-eabi/include/c++/10.3.1/bits/stl_algobase.h ****  * and its documentation for any purpose is hereby granted without fee,
  44:/Library/DaisyToolchain/0.2.0/arm/arm-none-eabi/include/c++/10.3.1/bits/stl_algobase.h ****  * provided that the above copyright notice appear in all copies and
  45:/Library/DaisyToolchain/0.2.0/arm/arm-none-eabi/include/c++/10.3.1/bits/stl_algobase.h ****  * that both that copyright notice and this permission notice appear
  46:/Library/DaisyToolchain/0.2.0/arm/arm-none-eabi/include/c++/10.3.1/bits/stl_algobase.h ****  * in supporting documentation.  Silicon Graphics makes no
  47:/Library/DaisyToolchain/0.2.0/arm/arm-none-eabi/include/c++/10.3.1/bits/stl_algobase.h ****  * representations about the suitability of this software for any
  48:/Library/DaisyToolchain/0.2.0/arm/arm-none-eabi/include/c++/10.3.1/bits/stl_algobase.h ****  * purpose.  It is provided "as is" without express or implied warranty.
  49:/Library/DaisyToolchain/0.2.0/arm/arm-none-eabi/include/c++/10.3.1/bits/stl_algobase.h ****  */
  50:/Library/DaisyToolchain/0.2.0/arm/arm-none-eabi/include/c++/10.3.1/bits/stl_algobase.h **** 
  51:/Library/DaisyToolchain/0.2.0/arm/arm-none-eabi/include/c++/10.3.1/bits/stl_algobase.h **** /** @file bits/stl_algobase.h
  52:/Library/DaisyToolchain/0.2.0/arm/arm-none-eabi/include/c++/10.3.1/bits/stl_algobase.h ****  *  This is an internal header file, included by other library headers.
  53:/Library/DaisyToolchain/0.2.0/arm/arm-none-eabi/include/c++/10.3.1/bits/stl_algobase.h ****  *  Do not attempt to use it directly. @headername{algorithm}
ARM GAS  /var/folders/9s/8rp0_f2s1n31qbztm3b5_fdh0000gn/T//cc7CgoqZ.s 			page 68


  54:/Library/DaisyToolchain/0.2.0/arm/arm-none-eabi/include/c++/10.3.1/bits/stl_algobase.h ****  */
  55:/Library/DaisyToolchain/0.2.0/arm/arm-none-eabi/include/c++/10.3.1/bits/stl_algobase.h **** 
  56:/Library/DaisyToolchain/0.2.0/arm/arm-none-eabi/include/c++/10.3.1/bits/stl_algobase.h **** #ifndef _STL_ALGOBASE_H
  57:/Library/DaisyToolchain/0.2.0/arm/arm-none-eabi/include/c++/10.3.1/bits/stl_algobase.h **** #define _STL_ALGOBASE_H 1
  58:/Library/DaisyToolchain/0.2.0/arm/arm-none-eabi/include/c++/10.3.1/bits/stl_algobase.h **** 
  59:/Library/DaisyToolchain/0.2.0/arm/arm-none-eabi/include/c++/10.3.1/bits/stl_algobase.h **** #include <bits/c++config.h>
  60:/Library/DaisyToolchain/0.2.0/arm/arm-none-eabi/include/c++/10.3.1/bits/stl_algobase.h **** #include <bits/functexcept.h>
  61:/Library/DaisyToolchain/0.2.0/arm/arm-none-eabi/include/c++/10.3.1/bits/stl_algobase.h **** #include <bits/cpp_type_traits.h>
  62:/Library/DaisyToolchain/0.2.0/arm/arm-none-eabi/include/c++/10.3.1/bits/stl_algobase.h **** #include <ext/type_traits.h>
  63:/Library/DaisyToolchain/0.2.0/arm/arm-none-eabi/include/c++/10.3.1/bits/stl_algobase.h **** #include <ext/numeric_traits.h>
  64:/Library/DaisyToolchain/0.2.0/arm/arm-none-eabi/include/c++/10.3.1/bits/stl_algobase.h **** #include <bits/stl_pair.h>
  65:/Library/DaisyToolchain/0.2.0/arm/arm-none-eabi/include/c++/10.3.1/bits/stl_algobase.h **** #include <bits/stl_iterator_base_types.h>
  66:/Library/DaisyToolchain/0.2.0/arm/arm-none-eabi/include/c++/10.3.1/bits/stl_algobase.h **** #include <bits/stl_iterator_base_funcs.h>
  67:/Library/DaisyToolchain/0.2.0/arm/arm-none-eabi/include/c++/10.3.1/bits/stl_algobase.h **** #include <bits/stl_iterator.h>
  68:/Library/DaisyToolchain/0.2.0/arm/arm-none-eabi/include/c++/10.3.1/bits/stl_algobase.h **** #include <bits/concept_check.h>
  69:/Library/DaisyToolchain/0.2.0/arm/arm-none-eabi/include/c++/10.3.1/bits/stl_algobase.h **** #include <debug/debug.h>
  70:/Library/DaisyToolchain/0.2.0/arm/arm-none-eabi/include/c++/10.3.1/bits/stl_algobase.h **** #include <bits/move.h> // For std::swap
  71:/Library/DaisyToolchain/0.2.0/arm/arm-none-eabi/include/c++/10.3.1/bits/stl_algobase.h **** #include <bits/predefined_ops.h>
  72:/Library/DaisyToolchain/0.2.0/arm/arm-none-eabi/include/c++/10.3.1/bits/stl_algobase.h **** #if __cplusplus >= 201103L
  73:/Library/DaisyToolchain/0.2.0/arm/arm-none-eabi/include/c++/10.3.1/bits/stl_algobase.h **** # include <type_traits>
  74:/Library/DaisyToolchain/0.2.0/arm/arm-none-eabi/include/c++/10.3.1/bits/stl_algobase.h **** #endif
  75:/Library/DaisyToolchain/0.2.0/arm/arm-none-eabi/include/c++/10.3.1/bits/stl_algobase.h **** #if __cplusplus > 201703L
  76:/Library/DaisyToolchain/0.2.0/arm/arm-none-eabi/include/c++/10.3.1/bits/stl_algobase.h **** # include <compare>
  77:/Library/DaisyToolchain/0.2.0/arm/arm-none-eabi/include/c++/10.3.1/bits/stl_algobase.h **** #endif
  78:/Library/DaisyToolchain/0.2.0/arm/arm-none-eabi/include/c++/10.3.1/bits/stl_algobase.h **** 
  79:/Library/DaisyToolchain/0.2.0/arm/arm-none-eabi/include/c++/10.3.1/bits/stl_algobase.h **** namespace std _GLIBCXX_VISIBILITY(default)
  80:/Library/DaisyToolchain/0.2.0/arm/arm-none-eabi/include/c++/10.3.1/bits/stl_algobase.h **** {
  81:/Library/DaisyToolchain/0.2.0/arm/arm-none-eabi/include/c++/10.3.1/bits/stl_algobase.h **** _GLIBCXX_BEGIN_NAMESPACE_VERSION
  82:/Library/DaisyToolchain/0.2.0/arm/arm-none-eabi/include/c++/10.3.1/bits/stl_algobase.h **** 
  83:/Library/DaisyToolchain/0.2.0/arm/arm-none-eabi/include/c++/10.3.1/bits/stl_algobase.h ****   /*
  84:/Library/DaisyToolchain/0.2.0/arm/arm-none-eabi/include/c++/10.3.1/bits/stl_algobase.h ****    * A constexpr wrapper for __builtin_memcmp.
  85:/Library/DaisyToolchain/0.2.0/arm/arm-none-eabi/include/c++/10.3.1/bits/stl_algobase.h ****    * @param __num The number of elements of type _Tp (not bytes).
  86:/Library/DaisyToolchain/0.2.0/arm/arm-none-eabi/include/c++/10.3.1/bits/stl_algobase.h ****    */
  87:/Library/DaisyToolchain/0.2.0/arm/arm-none-eabi/include/c++/10.3.1/bits/stl_algobase.h ****   template<typename _Tp, typename _Up>
  88:/Library/DaisyToolchain/0.2.0/arm/arm-none-eabi/include/c++/10.3.1/bits/stl_algobase.h ****     _GLIBCXX14_CONSTEXPR
  89:/Library/DaisyToolchain/0.2.0/arm/arm-none-eabi/include/c++/10.3.1/bits/stl_algobase.h ****     inline int
  90:/Library/DaisyToolchain/0.2.0/arm/arm-none-eabi/include/c++/10.3.1/bits/stl_algobase.h ****     __memcmp(const _Tp* __first1, const _Up* __first2, size_t __num)
  91:/Library/DaisyToolchain/0.2.0/arm/arm-none-eabi/include/c++/10.3.1/bits/stl_algobase.h ****     {
  92:/Library/DaisyToolchain/0.2.0/arm/arm-none-eabi/include/c++/10.3.1/bits/stl_algobase.h **** #if __cplusplus >= 201103L
  93:/Library/DaisyToolchain/0.2.0/arm/arm-none-eabi/include/c++/10.3.1/bits/stl_algobase.h ****       static_assert(sizeof(_Tp) == sizeof(_Up), "can be compared with memcmp");
  94:/Library/DaisyToolchain/0.2.0/arm/arm-none-eabi/include/c++/10.3.1/bits/stl_algobase.h **** #endif
  95:/Library/DaisyToolchain/0.2.0/arm/arm-none-eabi/include/c++/10.3.1/bits/stl_algobase.h **** #ifdef __cpp_lib_is_constant_evaluated
  96:/Library/DaisyToolchain/0.2.0/arm/arm-none-eabi/include/c++/10.3.1/bits/stl_algobase.h ****       if (std::is_constant_evaluated())
  97:/Library/DaisyToolchain/0.2.0/arm/arm-none-eabi/include/c++/10.3.1/bits/stl_algobase.h **** 	{
  98:/Library/DaisyToolchain/0.2.0/arm/arm-none-eabi/include/c++/10.3.1/bits/stl_algobase.h **** 	  for(; __num > 0; ++__first1, ++__first2, --__num)
  99:/Library/DaisyToolchain/0.2.0/arm/arm-none-eabi/include/c++/10.3.1/bits/stl_algobase.h **** 	    if (*__first1 != *__first2)
 100:/Library/DaisyToolchain/0.2.0/arm/arm-none-eabi/include/c++/10.3.1/bits/stl_algobase.h **** 	      return *__first1 < *__first2 ? -1 : 1;
 101:/Library/DaisyToolchain/0.2.0/arm/arm-none-eabi/include/c++/10.3.1/bits/stl_algobase.h **** 	  return 0;
 102:/Library/DaisyToolchain/0.2.0/arm/arm-none-eabi/include/c++/10.3.1/bits/stl_algobase.h **** 	}
 103:/Library/DaisyToolchain/0.2.0/arm/arm-none-eabi/include/c++/10.3.1/bits/stl_algobase.h ****       else
 104:/Library/DaisyToolchain/0.2.0/arm/arm-none-eabi/include/c++/10.3.1/bits/stl_algobase.h **** #endif
 105:/Library/DaisyToolchain/0.2.0/arm/arm-none-eabi/include/c++/10.3.1/bits/stl_algobase.h **** 	return __builtin_memcmp(__first1, __first2, sizeof(_Tp) * __num);
 106:/Library/DaisyToolchain/0.2.0/arm/arm-none-eabi/include/c++/10.3.1/bits/stl_algobase.h ****     }
 107:/Library/DaisyToolchain/0.2.0/arm/arm-none-eabi/include/c++/10.3.1/bits/stl_algobase.h **** 
 108:/Library/DaisyToolchain/0.2.0/arm/arm-none-eabi/include/c++/10.3.1/bits/stl_algobase.h **** #if __cplusplus < 201103L
 109:/Library/DaisyToolchain/0.2.0/arm/arm-none-eabi/include/c++/10.3.1/bits/stl_algobase.h ****   // See http://gcc.gnu.org/ml/libstdc++/2004-08/msg00167.html: in a
 110:/Library/DaisyToolchain/0.2.0/arm/arm-none-eabi/include/c++/10.3.1/bits/stl_algobase.h ****   // nutshell, we are partially implementing the resolution of DR 187,
ARM GAS  /var/folders/9s/8rp0_f2s1n31qbztm3b5_fdh0000gn/T//cc7CgoqZ.s 			page 69


 111:/Library/DaisyToolchain/0.2.0/arm/arm-none-eabi/include/c++/10.3.1/bits/stl_algobase.h ****   // when it's safe, i.e., the value_types are equal.
 112:/Library/DaisyToolchain/0.2.0/arm/arm-none-eabi/include/c++/10.3.1/bits/stl_algobase.h ****   template<bool _BoolType>
 113:/Library/DaisyToolchain/0.2.0/arm/arm-none-eabi/include/c++/10.3.1/bits/stl_algobase.h ****     struct __iter_swap
 114:/Library/DaisyToolchain/0.2.0/arm/arm-none-eabi/include/c++/10.3.1/bits/stl_algobase.h ****     {
 115:/Library/DaisyToolchain/0.2.0/arm/arm-none-eabi/include/c++/10.3.1/bits/stl_algobase.h ****       template<typename _ForwardIterator1, typename _ForwardIterator2>
 116:/Library/DaisyToolchain/0.2.0/arm/arm-none-eabi/include/c++/10.3.1/bits/stl_algobase.h **** 	static void
 117:/Library/DaisyToolchain/0.2.0/arm/arm-none-eabi/include/c++/10.3.1/bits/stl_algobase.h **** 	iter_swap(_ForwardIterator1 __a, _ForwardIterator2 __b)
 118:/Library/DaisyToolchain/0.2.0/arm/arm-none-eabi/include/c++/10.3.1/bits/stl_algobase.h **** 	{
 119:/Library/DaisyToolchain/0.2.0/arm/arm-none-eabi/include/c++/10.3.1/bits/stl_algobase.h **** 	  typedef typename iterator_traits<_ForwardIterator1>::value_type
 120:/Library/DaisyToolchain/0.2.0/arm/arm-none-eabi/include/c++/10.3.1/bits/stl_algobase.h **** 	    _ValueType1;
 121:/Library/DaisyToolchain/0.2.0/arm/arm-none-eabi/include/c++/10.3.1/bits/stl_algobase.h **** 	  _ValueType1 __tmp = *__a;
 122:/Library/DaisyToolchain/0.2.0/arm/arm-none-eabi/include/c++/10.3.1/bits/stl_algobase.h **** 	  *__a = *__b;
 123:/Library/DaisyToolchain/0.2.0/arm/arm-none-eabi/include/c++/10.3.1/bits/stl_algobase.h **** 	  *__b = __tmp;
 124:/Library/DaisyToolchain/0.2.0/arm/arm-none-eabi/include/c++/10.3.1/bits/stl_algobase.h **** 	}
 125:/Library/DaisyToolchain/0.2.0/arm/arm-none-eabi/include/c++/10.3.1/bits/stl_algobase.h ****     };
 126:/Library/DaisyToolchain/0.2.0/arm/arm-none-eabi/include/c++/10.3.1/bits/stl_algobase.h **** 
 127:/Library/DaisyToolchain/0.2.0/arm/arm-none-eabi/include/c++/10.3.1/bits/stl_algobase.h ****   template<>
 128:/Library/DaisyToolchain/0.2.0/arm/arm-none-eabi/include/c++/10.3.1/bits/stl_algobase.h ****     struct __iter_swap<true>
 129:/Library/DaisyToolchain/0.2.0/arm/arm-none-eabi/include/c++/10.3.1/bits/stl_algobase.h ****     {
 130:/Library/DaisyToolchain/0.2.0/arm/arm-none-eabi/include/c++/10.3.1/bits/stl_algobase.h ****       template<typename _ForwardIterator1, typename _ForwardIterator2>
 131:/Library/DaisyToolchain/0.2.0/arm/arm-none-eabi/include/c++/10.3.1/bits/stl_algobase.h **** 	static void
 132:/Library/DaisyToolchain/0.2.0/arm/arm-none-eabi/include/c++/10.3.1/bits/stl_algobase.h **** 	iter_swap(_ForwardIterator1 __a, _ForwardIterator2 __b)
 133:/Library/DaisyToolchain/0.2.0/arm/arm-none-eabi/include/c++/10.3.1/bits/stl_algobase.h **** 	{
 134:/Library/DaisyToolchain/0.2.0/arm/arm-none-eabi/include/c++/10.3.1/bits/stl_algobase.h **** 	  swap(*__a, *__b);
 135:/Library/DaisyToolchain/0.2.0/arm/arm-none-eabi/include/c++/10.3.1/bits/stl_algobase.h **** 	}
 136:/Library/DaisyToolchain/0.2.0/arm/arm-none-eabi/include/c++/10.3.1/bits/stl_algobase.h ****     };
 137:/Library/DaisyToolchain/0.2.0/arm/arm-none-eabi/include/c++/10.3.1/bits/stl_algobase.h **** #endif // C++03
 138:/Library/DaisyToolchain/0.2.0/arm/arm-none-eabi/include/c++/10.3.1/bits/stl_algobase.h **** 
 139:/Library/DaisyToolchain/0.2.0/arm/arm-none-eabi/include/c++/10.3.1/bits/stl_algobase.h ****   /**
 140:/Library/DaisyToolchain/0.2.0/arm/arm-none-eabi/include/c++/10.3.1/bits/stl_algobase.h ****    *  @brief Swaps the contents of two iterators.
 141:/Library/DaisyToolchain/0.2.0/arm/arm-none-eabi/include/c++/10.3.1/bits/stl_algobase.h ****    *  @ingroup mutating_algorithms
 142:/Library/DaisyToolchain/0.2.0/arm/arm-none-eabi/include/c++/10.3.1/bits/stl_algobase.h ****    *  @param  __a  An iterator.
 143:/Library/DaisyToolchain/0.2.0/arm/arm-none-eabi/include/c++/10.3.1/bits/stl_algobase.h ****    *  @param  __b  Another iterator.
 144:/Library/DaisyToolchain/0.2.0/arm/arm-none-eabi/include/c++/10.3.1/bits/stl_algobase.h ****    *  @return   Nothing.
 145:/Library/DaisyToolchain/0.2.0/arm/arm-none-eabi/include/c++/10.3.1/bits/stl_algobase.h ****    *
 146:/Library/DaisyToolchain/0.2.0/arm/arm-none-eabi/include/c++/10.3.1/bits/stl_algobase.h ****    *  This function swaps the values pointed to by two iterators, not the
 147:/Library/DaisyToolchain/0.2.0/arm/arm-none-eabi/include/c++/10.3.1/bits/stl_algobase.h ****    *  iterators themselves.
 148:/Library/DaisyToolchain/0.2.0/arm/arm-none-eabi/include/c++/10.3.1/bits/stl_algobase.h ****   */
 149:/Library/DaisyToolchain/0.2.0/arm/arm-none-eabi/include/c++/10.3.1/bits/stl_algobase.h ****   template<typename _ForwardIterator1, typename _ForwardIterator2>
 150:/Library/DaisyToolchain/0.2.0/arm/arm-none-eabi/include/c++/10.3.1/bits/stl_algobase.h ****     _GLIBCXX20_CONSTEXPR
 151:/Library/DaisyToolchain/0.2.0/arm/arm-none-eabi/include/c++/10.3.1/bits/stl_algobase.h ****     inline void
 152:/Library/DaisyToolchain/0.2.0/arm/arm-none-eabi/include/c++/10.3.1/bits/stl_algobase.h ****     iter_swap(_ForwardIterator1 __a, _ForwardIterator2 __b)
 153:/Library/DaisyToolchain/0.2.0/arm/arm-none-eabi/include/c++/10.3.1/bits/stl_algobase.h ****     {
 154:/Library/DaisyToolchain/0.2.0/arm/arm-none-eabi/include/c++/10.3.1/bits/stl_algobase.h ****       // concept requirements
 155:/Library/DaisyToolchain/0.2.0/arm/arm-none-eabi/include/c++/10.3.1/bits/stl_algobase.h ****       __glibcxx_function_requires(_Mutable_ForwardIteratorConcept<
 156:/Library/DaisyToolchain/0.2.0/arm/arm-none-eabi/include/c++/10.3.1/bits/stl_algobase.h **** 				  _ForwardIterator1>)
 157:/Library/DaisyToolchain/0.2.0/arm/arm-none-eabi/include/c++/10.3.1/bits/stl_algobase.h ****       __glibcxx_function_requires(_Mutable_ForwardIteratorConcept<
 158:/Library/DaisyToolchain/0.2.0/arm/arm-none-eabi/include/c++/10.3.1/bits/stl_algobase.h **** 				  _ForwardIterator2>)
 159:/Library/DaisyToolchain/0.2.0/arm/arm-none-eabi/include/c++/10.3.1/bits/stl_algobase.h **** 
 160:/Library/DaisyToolchain/0.2.0/arm/arm-none-eabi/include/c++/10.3.1/bits/stl_algobase.h **** #if __cplusplus < 201103L
 161:/Library/DaisyToolchain/0.2.0/arm/arm-none-eabi/include/c++/10.3.1/bits/stl_algobase.h ****       typedef typename iterator_traits<_ForwardIterator1>::value_type
 162:/Library/DaisyToolchain/0.2.0/arm/arm-none-eabi/include/c++/10.3.1/bits/stl_algobase.h **** 	_ValueType1;
 163:/Library/DaisyToolchain/0.2.0/arm/arm-none-eabi/include/c++/10.3.1/bits/stl_algobase.h ****       typedef typename iterator_traits<_ForwardIterator2>::value_type
 164:/Library/DaisyToolchain/0.2.0/arm/arm-none-eabi/include/c++/10.3.1/bits/stl_algobase.h **** 	_ValueType2;
 165:/Library/DaisyToolchain/0.2.0/arm/arm-none-eabi/include/c++/10.3.1/bits/stl_algobase.h **** 
 166:/Library/DaisyToolchain/0.2.0/arm/arm-none-eabi/include/c++/10.3.1/bits/stl_algobase.h ****       __glibcxx_function_requires(_ConvertibleConcept<_ValueType1,
 167:/Library/DaisyToolchain/0.2.0/arm/arm-none-eabi/include/c++/10.3.1/bits/stl_algobase.h **** 				  _ValueType2>)
ARM GAS  /var/folders/9s/8rp0_f2s1n31qbztm3b5_fdh0000gn/T//cc7CgoqZ.s 			page 70


 168:/Library/DaisyToolchain/0.2.0/arm/arm-none-eabi/include/c++/10.3.1/bits/stl_algobase.h ****       __glibcxx_function_requires(_ConvertibleConcept<_ValueType2,
 169:/Library/DaisyToolchain/0.2.0/arm/arm-none-eabi/include/c++/10.3.1/bits/stl_algobase.h **** 				  _ValueType1>)
 170:/Library/DaisyToolchain/0.2.0/arm/arm-none-eabi/include/c++/10.3.1/bits/stl_algobase.h **** 
 171:/Library/DaisyToolchain/0.2.0/arm/arm-none-eabi/include/c++/10.3.1/bits/stl_algobase.h ****       typedef typename iterator_traits<_ForwardIterator1>::reference
 172:/Library/DaisyToolchain/0.2.0/arm/arm-none-eabi/include/c++/10.3.1/bits/stl_algobase.h **** 	_ReferenceType1;
 173:/Library/DaisyToolchain/0.2.0/arm/arm-none-eabi/include/c++/10.3.1/bits/stl_algobase.h ****       typedef typename iterator_traits<_ForwardIterator2>::reference
 174:/Library/DaisyToolchain/0.2.0/arm/arm-none-eabi/include/c++/10.3.1/bits/stl_algobase.h **** 	_ReferenceType2;
 175:/Library/DaisyToolchain/0.2.0/arm/arm-none-eabi/include/c++/10.3.1/bits/stl_algobase.h ****       std::__iter_swap<__are_same<_ValueType1, _ValueType2>::__value
 176:/Library/DaisyToolchain/0.2.0/arm/arm-none-eabi/include/c++/10.3.1/bits/stl_algobase.h **** 	&& __are_same<_ValueType1&, _ReferenceType1>::__value
 177:/Library/DaisyToolchain/0.2.0/arm/arm-none-eabi/include/c++/10.3.1/bits/stl_algobase.h **** 	&& __are_same<_ValueType2&, _ReferenceType2>::__value>::
 178:/Library/DaisyToolchain/0.2.0/arm/arm-none-eabi/include/c++/10.3.1/bits/stl_algobase.h **** 	iter_swap(__a, __b);
 179:/Library/DaisyToolchain/0.2.0/arm/arm-none-eabi/include/c++/10.3.1/bits/stl_algobase.h **** #else
 180:/Library/DaisyToolchain/0.2.0/arm/arm-none-eabi/include/c++/10.3.1/bits/stl_algobase.h ****       // _GLIBCXX_RESOLVE_LIB_DEFECTS
 181:/Library/DaisyToolchain/0.2.0/arm/arm-none-eabi/include/c++/10.3.1/bits/stl_algobase.h ****       // 187. iter_swap underspecified
 182:/Library/DaisyToolchain/0.2.0/arm/arm-none-eabi/include/c++/10.3.1/bits/stl_algobase.h ****       swap(*__a, *__b);
 183:/Library/DaisyToolchain/0.2.0/arm/arm-none-eabi/include/c++/10.3.1/bits/stl_algobase.h **** #endif
 184:/Library/DaisyToolchain/0.2.0/arm/arm-none-eabi/include/c++/10.3.1/bits/stl_algobase.h ****     }
 185:/Library/DaisyToolchain/0.2.0/arm/arm-none-eabi/include/c++/10.3.1/bits/stl_algobase.h **** 
 186:/Library/DaisyToolchain/0.2.0/arm/arm-none-eabi/include/c++/10.3.1/bits/stl_algobase.h ****   /**
 187:/Library/DaisyToolchain/0.2.0/arm/arm-none-eabi/include/c++/10.3.1/bits/stl_algobase.h ****    *  @brief Swap the elements of two sequences.
 188:/Library/DaisyToolchain/0.2.0/arm/arm-none-eabi/include/c++/10.3.1/bits/stl_algobase.h ****    *  @ingroup mutating_algorithms
 189:/Library/DaisyToolchain/0.2.0/arm/arm-none-eabi/include/c++/10.3.1/bits/stl_algobase.h ****    *  @param  __first1  A forward iterator.
 190:/Library/DaisyToolchain/0.2.0/arm/arm-none-eabi/include/c++/10.3.1/bits/stl_algobase.h ****    *  @param  __last1   A forward iterator.
 191:/Library/DaisyToolchain/0.2.0/arm/arm-none-eabi/include/c++/10.3.1/bits/stl_algobase.h ****    *  @param  __first2  A forward iterator.
 192:/Library/DaisyToolchain/0.2.0/arm/arm-none-eabi/include/c++/10.3.1/bits/stl_algobase.h ****    *  @return   An iterator equal to @p first2+(last1-first1).
 193:/Library/DaisyToolchain/0.2.0/arm/arm-none-eabi/include/c++/10.3.1/bits/stl_algobase.h ****    *
 194:/Library/DaisyToolchain/0.2.0/arm/arm-none-eabi/include/c++/10.3.1/bits/stl_algobase.h ****    *  Swaps each element in the range @p [first1,last1) with the
 195:/Library/DaisyToolchain/0.2.0/arm/arm-none-eabi/include/c++/10.3.1/bits/stl_algobase.h ****    *  corresponding element in the range @p [first2,(last1-first1)).
 196:/Library/DaisyToolchain/0.2.0/arm/arm-none-eabi/include/c++/10.3.1/bits/stl_algobase.h ****    *  The ranges must not overlap.
 197:/Library/DaisyToolchain/0.2.0/arm/arm-none-eabi/include/c++/10.3.1/bits/stl_algobase.h ****   */
 198:/Library/DaisyToolchain/0.2.0/arm/arm-none-eabi/include/c++/10.3.1/bits/stl_algobase.h ****   template<typename _ForwardIterator1, typename _ForwardIterator2>
 199:/Library/DaisyToolchain/0.2.0/arm/arm-none-eabi/include/c++/10.3.1/bits/stl_algobase.h ****     _GLIBCXX20_CONSTEXPR
 200:/Library/DaisyToolchain/0.2.0/arm/arm-none-eabi/include/c++/10.3.1/bits/stl_algobase.h ****     _ForwardIterator2
 201:/Library/DaisyToolchain/0.2.0/arm/arm-none-eabi/include/c++/10.3.1/bits/stl_algobase.h ****     swap_ranges(_ForwardIterator1 __first1, _ForwardIterator1 __last1,
 202:/Library/DaisyToolchain/0.2.0/arm/arm-none-eabi/include/c++/10.3.1/bits/stl_algobase.h **** 		_ForwardIterator2 __first2)
 203:/Library/DaisyToolchain/0.2.0/arm/arm-none-eabi/include/c++/10.3.1/bits/stl_algobase.h ****     {
 204:/Library/DaisyToolchain/0.2.0/arm/arm-none-eabi/include/c++/10.3.1/bits/stl_algobase.h ****       // concept requirements
 205:/Library/DaisyToolchain/0.2.0/arm/arm-none-eabi/include/c++/10.3.1/bits/stl_algobase.h ****       __glibcxx_function_requires(_Mutable_ForwardIteratorConcept<
 206:/Library/DaisyToolchain/0.2.0/arm/arm-none-eabi/include/c++/10.3.1/bits/stl_algobase.h **** 				  _ForwardIterator1>)
 207:/Library/DaisyToolchain/0.2.0/arm/arm-none-eabi/include/c++/10.3.1/bits/stl_algobase.h ****       __glibcxx_function_requires(_Mutable_ForwardIteratorConcept<
 208:/Library/DaisyToolchain/0.2.0/arm/arm-none-eabi/include/c++/10.3.1/bits/stl_algobase.h **** 				  _ForwardIterator2>)
 209:/Library/DaisyToolchain/0.2.0/arm/arm-none-eabi/include/c++/10.3.1/bits/stl_algobase.h ****       __glibcxx_requires_valid_range(__first1, __last1);
 210:/Library/DaisyToolchain/0.2.0/arm/arm-none-eabi/include/c++/10.3.1/bits/stl_algobase.h **** 
 211:/Library/DaisyToolchain/0.2.0/arm/arm-none-eabi/include/c++/10.3.1/bits/stl_algobase.h ****       for (; __first1 != __last1; ++__first1, (void)++__first2)
 212:/Library/DaisyToolchain/0.2.0/arm/arm-none-eabi/include/c++/10.3.1/bits/stl_algobase.h **** 	std::iter_swap(__first1, __first2);
 213:/Library/DaisyToolchain/0.2.0/arm/arm-none-eabi/include/c++/10.3.1/bits/stl_algobase.h ****       return __first2;
 214:/Library/DaisyToolchain/0.2.0/arm/arm-none-eabi/include/c++/10.3.1/bits/stl_algobase.h ****     }
 215:/Library/DaisyToolchain/0.2.0/arm/arm-none-eabi/include/c++/10.3.1/bits/stl_algobase.h **** 
 216:/Library/DaisyToolchain/0.2.0/arm/arm-none-eabi/include/c++/10.3.1/bits/stl_algobase.h ****   /**
 217:/Library/DaisyToolchain/0.2.0/arm/arm-none-eabi/include/c++/10.3.1/bits/stl_algobase.h ****    *  @brief This does what you think it does.
 218:/Library/DaisyToolchain/0.2.0/arm/arm-none-eabi/include/c++/10.3.1/bits/stl_algobase.h ****    *  @ingroup sorting_algorithms
 219:/Library/DaisyToolchain/0.2.0/arm/arm-none-eabi/include/c++/10.3.1/bits/stl_algobase.h ****    *  @param  __a  A thing of arbitrary type.
 220:/Library/DaisyToolchain/0.2.0/arm/arm-none-eabi/include/c++/10.3.1/bits/stl_algobase.h ****    *  @param  __b  Another thing of arbitrary type.
 221:/Library/DaisyToolchain/0.2.0/arm/arm-none-eabi/include/c++/10.3.1/bits/stl_algobase.h ****    *  @return   The lesser of the parameters.
 222:/Library/DaisyToolchain/0.2.0/arm/arm-none-eabi/include/c++/10.3.1/bits/stl_algobase.h ****    *
 223:/Library/DaisyToolchain/0.2.0/arm/arm-none-eabi/include/c++/10.3.1/bits/stl_algobase.h ****    *  This is the simple classic generic implementation.  It will work on
 224:/Library/DaisyToolchain/0.2.0/arm/arm-none-eabi/include/c++/10.3.1/bits/stl_algobase.h ****    *  temporary expressions, since they are only evaluated once, unlike a
ARM GAS  /var/folders/9s/8rp0_f2s1n31qbztm3b5_fdh0000gn/T//cc7CgoqZ.s 			page 71


 225:/Library/DaisyToolchain/0.2.0/arm/arm-none-eabi/include/c++/10.3.1/bits/stl_algobase.h ****    *  preprocessor macro.
 226:/Library/DaisyToolchain/0.2.0/arm/arm-none-eabi/include/c++/10.3.1/bits/stl_algobase.h ****   */
 227:/Library/DaisyToolchain/0.2.0/arm/arm-none-eabi/include/c++/10.3.1/bits/stl_algobase.h ****   template<typename _Tp>
 228:/Library/DaisyToolchain/0.2.0/arm/arm-none-eabi/include/c++/10.3.1/bits/stl_algobase.h ****     _GLIBCXX14_CONSTEXPR
 229:/Library/DaisyToolchain/0.2.0/arm/arm-none-eabi/include/c++/10.3.1/bits/stl_algobase.h ****     inline const _Tp&
 230:/Library/DaisyToolchain/0.2.0/arm/arm-none-eabi/include/c++/10.3.1/bits/stl_algobase.h ****     min(const _Tp& __a, const _Tp& __b)
 231:/Library/DaisyToolchain/0.2.0/arm/arm-none-eabi/include/c++/10.3.1/bits/stl_algobase.h ****     {
 232:/Library/DaisyToolchain/0.2.0/arm/arm-none-eabi/include/c++/10.3.1/bits/stl_algobase.h ****       // concept requirements
 233:/Library/DaisyToolchain/0.2.0/arm/arm-none-eabi/include/c++/10.3.1/bits/stl_algobase.h ****       __glibcxx_function_requires(_LessThanComparableConcept<_Tp>)
 234:/Library/DaisyToolchain/0.2.0/arm/arm-none-eabi/include/c++/10.3.1/bits/stl_algobase.h ****       //return __b < __a ? __b : __a;
 235:/Library/DaisyToolchain/0.2.0/arm/arm-none-eabi/include/c++/10.3.1/bits/stl_algobase.h ****       if (__b < __a)
 236:/Library/DaisyToolchain/0.2.0/arm/arm-none-eabi/include/c++/10.3.1/bits/stl_algobase.h **** 	return __b;
 237:/Library/DaisyToolchain/0.2.0/arm/arm-none-eabi/include/c++/10.3.1/bits/stl_algobase.h ****       return __a;
 238:/Library/DaisyToolchain/0.2.0/arm/arm-none-eabi/include/c++/10.3.1/bits/stl_algobase.h ****     }
 239:/Library/DaisyToolchain/0.2.0/arm/arm-none-eabi/include/c++/10.3.1/bits/stl_algobase.h **** 
 240:/Library/DaisyToolchain/0.2.0/arm/arm-none-eabi/include/c++/10.3.1/bits/stl_algobase.h ****   /**
 241:/Library/DaisyToolchain/0.2.0/arm/arm-none-eabi/include/c++/10.3.1/bits/stl_algobase.h ****    *  @brief This does what you think it does.
 242:/Library/DaisyToolchain/0.2.0/arm/arm-none-eabi/include/c++/10.3.1/bits/stl_algobase.h ****    *  @ingroup sorting_algorithms
 243:/Library/DaisyToolchain/0.2.0/arm/arm-none-eabi/include/c++/10.3.1/bits/stl_algobase.h ****    *  @param  __a  A thing of arbitrary type.
 244:/Library/DaisyToolchain/0.2.0/arm/arm-none-eabi/include/c++/10.3.1/bits/stl_algobase.h ****    *  @param  __b  Another thing of arbitrary type.
 245:/Library/DaisyToolchain/0.2.0/arm/arm-none-eabi/include/c++/10.3.1/bits/stl_algobase.h ****    *  @return   The greater of the parameters.
 246:/Library/DaisyToolchain/0.2.0/arm/arm-none-eabi/include/c++/10.3.1/bits/stl_algobase.h ****    *
 247:/Library/DaisyToolchain/0.2.0/arm/arm-none-eabi/include/c++/10.3.1/bits/stl_algobase.h ****    *  This is the simple classic generic implementation.  It will work on
 248:/Library/DaisyToolchain/0.2.0/arm/arm-none-eabi/include/c++/10.3.1/bits/stl_algobase.h ****    *  temporary expressions, since they are only evaluated once, unlike a
 249:/Library/DaisyToolchain/0.2.0/arm/arm-none-eabi/include/c++/10.3.1/bits/stl_algobase.h ****    *  preprocessor macro.
 250:/Library/DaisyToolchain/0.2.0/arm/arm-none-eabi/include/c++/10.3.1/bits/stl_algobase.h ****   */
 251:/Library/DaisyToolchain/0.2.0/arm/arm-none-eabi/include/c++/10.3.1/bits/stl_algobase.h ****   template<typename _Tp>
 252:/Library/DaisyToolchain/0.2.0/arm/arm-none-eabi/include/c++/10.3.1/bits/stl_algobase.h ****     _GLIBCXX14_CONSTEXPR
 253:/Library/DaisyToolchain/0.2.0/arm/arm-none-eabi/include/c++/10.3.1/bits/stl_algobase.h ****     inline const _Tp&
 254:/Library/DaisyToolchain/0.2.0/arm/arm-none-eabi/include/c++/10.3.1/bits/stl_algobase.h ****     max(const _Tp& __a, const _Tp& __b)
 2395              		.loc 10 254 5 is_stmt 1 view .LVU738
 2396              	.LBB532:
 255:/Library/DaisyToolchain/0.2.0/arm/arm-none-eabi/include/c++/10.3.1/bits/stl_algobase.h ****     {
 256:/Library/DaisyToolchain/0.2.0/arm/arm-none-eabi/include/c++/10.3.1/bits/stl_algobase.h ****       // concept requirements
 257:/Library/DaisyToolchain/0.2.0/arm/arm-none-eabi/include/c++/10.3.1/bits/stl_algobase.h ****       __glibcxx_function_requires(_LessThanComparableConcept<_Tp>)
 258:/Library/DaisyToolchain/0.2.0/arm/arm-none-eabi/include/c++/10.3.1/bits/stl_algobase.h ****       //return  __a < __b ? __b : __a;
 259:/Library/DaisyToolchain/0.2.0/arm/arm-none-eabi/include/c++/10.3.1/bits/stl_algobase.h ****       if (__a < __b)
 2397              		.loc 10 259 7 is_stmt 0 view .LVU739
 2398 00ac F5EEC07A 		vcmpe.f32	s15, #0
 2399 00b0 F1EE10FA 		vmrs	APSR_nzcv, FPSCR
 2400              	.LVL193:
