ARM GAS  /var/folders/9s/8rp0_f2s1n31qbztm3b5_fdh0000gn/T//ccAcUEVW.s 			page 1


   1              		.cpu cortex-m7
   2              		.arch armv7e-m
   3              		.fpu fpv5-d16
   4              		.eabi_attribute 28, 1
   5              		.eabi_attribute 20, 1
   6              		.eabi_attribute 21, 1
   7              		.eabi_attribute 23, 3
   8              		.eabi_attribute 24, 1
   9              		.eabi_attribute 25, 1
  10              		.eabi_attribute 26, 1
  11              		.eabi_attribute 30, 4
  12              		.eabi_attribute 34, 1
  13              		.eabi_attribute 18, 4
  14              		.file	"granular_processor.cc"
  15              		.text
  16              	.Ltext0:
  17              		.cfi_sections	.debug_frame
  18              		.section	.text._ZNK6clouds11AudioBufferILNS_10ResolutionE3EE7ReadZOHElt.isra.0,"axG",%progbits,_ZN
  19              		.align	1
  20              		.syntax unified
  21              		.thumb
  22              		.thumb_func
  24              	_ZNK6clouds11AudioBufferILNS_10ResolutionE3EE7ReadZOHElt.isra.0:
  25              	.LVL0:
  26              	.LFB2211:
  27              		.file 1 "eurorack/clouds/dsp/audio_buffer.h"
   1:eurorack/clouds/dsp/audio_buffer.h **** // Copyright 2014 Emilie Gillet.
   2:eurorack/clouds/dsp/audio_buffer.h **** //
   3:eurorack/clouds/dsp/audio_buffer.h **** // Author: Emilie Gillet (emilie.o.gillet@gmail.com)
   4:eurorack/clouds/dsp/audio_buffer.h **** //
   5:eurorack/clouds/dsp/audio_buffer.h **** // Permission is hereby granted, free of charge, to any person obtaining a copy
   6:eurorack/clouds/dsp/audio_buffer.h **** // of this software and associated documentation files (the "Software"), to deal
   7:eurorack/clouds/dsp/audio_buffer.h **** // in the Software without restriction, including without limitation the rights
   8:eurorack/clouds/dsp/audio_buffer.h **** // to use, copy, modify, merge, publish, distribute, sublicense, and/or sell
   9:eurorack/clouds/dsp/audio_buffer.h **** // copies of the Software, and to permit persons to whom the Software is
  10:eurorack/clouds/dsp/audio_buffer.h **** // furnished to do so, subject to the following conditions:
  11:eurorack/clouds/dsp/audio_buffer.h **** // 
  12:eurorack/clouds/dsp/audio_buffer.h **** // The above copyright notice and this permission notice shall be included in
  13:eurorack/clouds/dsp/audio_buffer.h **** // all copies or substantial portions of the Software.
  14:eurorack/clouds/dsp/audio_buffer.h **** // 
  15:eurorack/clouds/dsp/audio_buffer.h **** // THE SOFTWARE IS PROVIDED "AS IS", WITHOUT WARRANTY OF ANY KIND, EXPRESS OR
  16:eurorack/clouds/dsp/audio_buffer.h **** // IMPLIED, INCLUDING BUT NOT LIMITED TO THE WARRANTIES OF MERCHANTABILITY,
  17:eurorack/clouds/dsp/audio_buffer.h **** // FITNESS FOR A PARTICULAR PURPOSE AND NONINFRINGEMENT. IN NO EVENT SHALL THE
  18:eurorack/clouds/dsp/audio_buffer.h **** // AUTHORS OR COPYRIGHT HOLDERS BE LIABLE FOR ANY CLAIM, DAMAGES OR OTHER
  19:eurorack/clouds/dsp/audio_buffer.h **** // LIABILITY, WHETHER IN AN ACTION OF CONTRACT, TORT OR OTHERWISE, ARISING FROM,
  20:eurorack/clouds/dsp/audio_buffer.h **** // OUT OF OR IN CONNECTION WITH THE SOFTWARE OR THE USE OR OTHER DEALINGS IN
  21:eurorack/clouds/dsp/audio_buffer.h **** // THE SOFTWARE.
  22:eurorack/clouds/dsp/audio_buffer.h **** // 
  23:eurorack/clouds/dsp/audio_buffer.h **** // See http://creativecommons.org/licenses/MIT/ for more information.
  24:eurorack/clouds/dsp/audio_buffer.h **** //
  25:eurorack/clouds/dsp/audio_buffer.h **** // -----------------------------------------------------------------------------
  26:eurorack/clouds/dsp/audio_buffer.h **** //
  27:eurorack/clouds/dsp/audio_buffer.h **** // Circular buffer storing audio samples.
  28:eurorack/clouds/dsp/audio_buffer.h **** 
  29:eurorack/clouds/dsp/audio_buffer.h **** #ifndef CLOUDS_DSP_AUDIO_BUFFER_H_
  30:eurorack/clouds/dsp/audio_buffer.h **** #define CLOUDS_DSP_AUDIO_BUFFER_H_
  31:eurorack/clouds/dsp/audio_buffer.h **** 
ARM GAS  /var/folders/9s/8rp0_f2s1n31qbztm3b5_fdh0000gn/T//ccAcUEVW.s 			page 2


  32:eurorack/clouds/dsp/audio_buffer.h **** #include <algorithm>
  33:eurorack/clouds/dsp/audio_buffer.h **** 
  34:eurorack/clouds/dsp/audio_buffer.h **** #include "stmlib/stmlib.h"
  35:eurorack/clouds/dsp/audio_buffer.h **** 
  36:eurorack/clouds/dsp/audio_buffer.h **** #include "stmlib/dsp/dsp.h"
  37:eurorack/clouds/dsp/audio_buffer.h **** #include "stmlib/utils/dsp.h"
  38:eurorack/clouds/dsp/audio_buffer.h **** 
  39:eurorack/clouds/dsp/audio_buffer.h **** #include "clouds/dsp/mu_law.h"
  40:eurorack/clouds/dsp/audio_buffer.h **** 
  41:eurorack/clouds/dsp/audio_buffer.h **** const int32_t kCrossFadeSize = 256;
  42:eurorack/clouds/dsp/audio_buffer.h **** const int32_t kInterpolationTail = 8;
  43:eurorack/clouds/dsp/audio_buffer.h **** 
  44:eurorack/clouds/dsp/audio_buffer.h **** namespace clouds {
  45:eurorack/clouds/dsp/audio_buffer.h **** 
  46:eurorack/clouds/dsp/audio_buffer.h **** enum Resolution {
  47:eurorack/clouds/dsp/audio_buffer.h ****   RESOLUTION_16_BIT,
  48:eurorack/clouds/dsp/audio_buffer.h ****   RESOLUTION_8_BIT,
  49:eurorack/clouds/dsp/audio_buffer.h ****   RESOLUTION_8_BIT_DITHERED,
  50:eurorack/clouds/dsp/audio_buffer.h ****   RESOLUTION_8_BIT_MU_LAW,
  51:eurorack/clouds/dsp/audio_buffer.h **** };
  52:eurorack/clouds/dsp/audio_buffer.h **** 
  53:eurorack/clouds/dsp/audio_buffer.h **** enum InterpolationMethod {
  54:eurorack/clouds/dsp/audio_buffer.h ****   INTERPOLATION_ZOH,
  55:eurorack/clouds/dsp/audio_buffer.h ****   INTERPOLATION_LINEAR,
  56:eurorack/clouds/dsp/audio_buffer.h ****   INTERPOLATION_HERMITE
  57:eurorack/clouds/dsp/audio_buffer.h **** };
  58:eurorack/clouds/dsp/audio_buffer.h **** 
  59:eurorack/clouds/dsp/audio_buffer.h **** template<Resolution resolution>
  60:eurorack/clouds/dsp/audio_buffer.h **** class AudioBuffer {
  61:eurorack/clouds/dsp/audio_buffer.h ****  public:
  62:eurorack/clouds/dsp/audio_buffer.h ****   AudioBuffer() { }
  63:eurorack/clouds/dsp/audio_buffer.h ****   ~AudioBuffer() { }
  64:eurorack/clouds/dsp/audio_buffer.h ****   
  65:eurorack/clouds/dsp/audio_buffer.h ****   void Init(
  66:eurorack/clouds/dsp/audio_buffer.h ****       void* buffer,
  67:eurorack/clouds/dsp/audio_buffer.h ****       int32_t size,
  68:eurorack/clouds/dsp/audio_buffer.h ****       int16_t* tail_buffer) {
  69:eurorack/clouds/dsp/audio_buffer.h ****     s16_ = static_cast<int16_t*>(buffer);
  70:eurorack/clouds/dsp/audio_buffer.h ****     s8_ = static_cast<int8_t*>(buffer);
  71:eurorack/clouds/dsp/audio_buffer.h ****     size_ = size - kInterpolationTail;
  72:eurorack/clouds/dsp/audio_buffer.h ****     write_head_ = 0;
  73:eurorack/clouds/dsp/audio_buffer.h ****     quantization_error_ = 0.0f;
  74:eurorack/clouds/dsp/audio_buffer.h ****     crossfade_counter_ = 0;
  75:eurorack/clouds/dsp/audio_buffer.h ****     if (resolution == RESOLUTION_16_BIT) {
  76:eurorack/clouds/dsp/audio_buffer.h ****       std::fill(&s16_[0], &s16_[size], 0);
  77:eurorack/clouds/dsp/audio_buffer.h ****     } else {
  78:eurorack/clouds/dsp/audio_buffer.h ****       std::fill(
  79:eurorack/clouds/dsp/audio_buffer.h ****           &s8_[0],
  80:eurorack/clouds/dsp/audio_buffer.h ****           &s8_[size],
  81:eurorack/clouds/dsp/audio_buffer.h ****           resolution == RESOLUTION_8_BIT_MU_LAW ? 127 : 0);
  82:eurorack/clouds/dsp/audio_buffer.h ****     }
  83:eurorack/clouds/dsp/audio_buffer.h ****     tail_ = tail_buffer;
  84:eurorack/clouds/dsp/audio_buffer.h ****   }
  85:eurorack/clouds/dsp/audio_buffer.h ****   
  86:eurorack/clouds/dsp/audio_buffer.h ****   inline void Resync(int32_t head) {
  87:eurorack/clouds/dsp/audio_buffer.h ****     write_head_ = head;
  88:eurorack/clouds/dsp/audio_buffer.h ****     crossfade_counter_ = 0;
ARM GAS  /var/folders/9s/8rp0_f2s1n31qbztm3b5_fdh0000gn/T//ccAcUEVW.s 			page 3


  89:eurorack/clouds/dsp/audio_buffer.h ****   }
  90:eurorack/clouds/dsp/audio_buffer.h ****   
  91:eurorack/clouds/dsp/audio_buffer.h ****   inline void Write(float in) {
  92:eurorack/clouds/dsp/audio_buffer.h ****     if (resolution == RESOLUTION_16_BIT) {
  93:eurorack/clouds/dsp/audio_buffer.h ****       s16_[write_head_] = stmlib::Clip16(
  94:eurorack/clouds/dsp/audio_buffer.h ****             static_cast<int32_t>(in * 32768.0f));
  95:eurorack/clouds/dsp/audio_buffer.h ****     } else if (resolution == RESOLUTION_8_BIT_DITHERED) {
  96:eurorack/clouds/dsp/audio_buffer.h ****       float sample = in * 127.0f;
  97:eurorack/clouds/dsp/audio_buffer.h ****       sample += quantization_error_;
  98:eurorack/clouds/dsp/audio_buffer.h ****       int32_t quantized = static_cast<int32_t>(sample);
  99:eurorack/clouds/dsp/audio_buffer.h ****       if (quantized < -127) quantized = -127;
 100:eurorack/clouds/dsp/audio_buffer.h ****       else if (quantized > 127) quantized = 127;
 101:eurorack/clouds/dsp/audio_buffer.h ****       quantization_error_ = sample - static_cast<float>(in);
 102:eurorack/clouds/dsp/audio_buffer.h ****       s8_[write_head_] = quantized;
 103:eurorack/clouds/dsp/audio_buffer.h ****     } else if (resolution == RESOLUTION_8_BIT_MU_LAW) {
 104:eurorack/clouds/dsp/audio_buffer.h ****       int16_t sample = stmlib::Clip16(static_cast<int32_t>(in * 32768.0f));
 105:eurorack/clouds/dsp/audio_buffer.h ****       s8_[write_head_] = Lin2MuLaw(sample);
 106:eurorack/clouds/dsp/audio_buffer.h ****     } else {
 107:eurorack/clouds/dsp/audio_buffer.h ****       s8_[write_head_] = static_cast<int8_t>(
 108:eurorack/clouds/dsp/audio_buffer.h ****           stmlib::Clip16(in * 32768.0f) >> 8);
 109:eurorack/clouds/dsp/audio_buffer.h ****     }
 110:eurorack/clouds/dsp/audio_buffer.h ****     
 111:eurorack/clouds/dsp/audio_buffer.h ****     if (resolution == RESOLUTION_16_BIT) {
 112:eurorack/clouds/dsp/audio_buffer.h ****       if (write_head_ < kInterpolationTail) {
 113:eurorack/clouds/dsp/audio_buffer.h ****         s16_[write_head_ + size_] = s16_[write_head_];
 114:eurorack/clouds/dsp/audio_buffer.h ****       }
 115:eurorack/clouds/dsp/audio_buffer.h ****     } else {
 116:eurorack/clouds/dsp/audio_buffer.h ****       if (write_head_ < kInterpolationTail) {
 117:eurorack/clouds/dsp/audio_buffer.h ****         s8_[write_head_ + size_] = s8_[write_head_];
 118:eurorack/clouds/dsp/audio_buffer.h ****       }
 119:eurorack/clouds/dsp/audio_buffer.h ****     }
 120:eurorack/clouds/dsp/audio_buffer.h ****     ++write_head_;
 121:eurorack/clouds/dsp/audio_buffer.h ****     if (write_head_ >= size_) {
 122:eurorack/clouds/dsp/audio_buffer.h ****       write_head_ = 0;
 123:eurorack/clouds/dsp/audio_buffer.h ****     }
 124:eurorack/clouds/dsp/audio_buffer.h ****   }
 125:eurorack/clouds/dsp/audio_buffer.h ****   
 126:eurorack/clouds/dsp/audio_buffer.h ****   inline void WriteFade(
 127:eurorack/clouds/dsp/audio_buffer.h ****       const float* in,
 128:eurorack/clouds/dsp/audio_buffer.h ****       int32_t size,
 129:eurorack/clouds/dsp/audio_buffer.h ****       int32_t stride,
 130:eurorack/clouds/dsp/audio_buffer.h ****       bool write) {
 131:eurorack/clouds/dsp/audio_buffer.h ****     if (!write) {
 132:eurorack/clouds/dsp/audio_buffer.h ****       // Continue recording samples to have something to crossfade with
 133:eurorack/clouds/dsp/audio_buffer.h ****       // when recording resumes.
 134:eurorack/clouds/dsp/audio_buffer.h ****       if (crossfade_counter_ < kCrossFadeSize) {
 135:eurorack/clouds/dsp/audio_buffer.h ****         while (size--) {
 136:eurorack/clouds/dsp/audio_buffer.h ****           if (crossfade_counter_ < kCrossFadeSize) {
 137:eurorack/clouds/dsp/audio_buffer.h ****             tail_[crossfade_counter_++] = stmlib::Clip16(
 138:eurorack/clouds/dsp/audio_buffer.h ****                 static_cast<int32_t>(*in * 32767.0f));
 139:eurorack/clouds/dsp/audio_buffer.h ****             in += stride;
 140:eurorack/clouds/dsp/audio_buffer.h ****           }
 141:eurorack/clouds/dsp/audio_buffer.h ****         }
 142:eurorack/clouds/dsp/audio_buffer.h ****       }
 143:eurorack/clouds/dsp/audio_buffer.h ****     } else if (write && !crossfade_counter_ && 
 144:eurorack/clouds/dsp/audio_buffer.h ****         resolution == RESOLUTION_16_BIT &&
 145:eurorack/clouds/dsp/audio_buffer.h ****         write_head_ >= kInterpolationTail && write_head_ < (size_ - size)) {
ARM GAS  /var/folders/9s/8rp0_f2s1n31qbztm3b5_fdh0000gn/T//ccAcUEVW.s 			page 4


 146:eurorack/clouds/dsp/audio_buffer.h ****       // Fast write routine for the most common case.
 147:eurorack/clouds/dsp/audio_buffer.h ****       while (size--) {
 148:eurorack/clouds/dsp/audio_buffer.h ****         s16_[write_head_] = stmlib::Clip16(
 149:eurorack/clouds/dsp/audio_buffer.h ****             static_cast<int32_t>(*in * 32767.0f));
 150:eurorack/clouds/dsp/audio_buffer.h ****         ++write_head_;
 151:eurorack/clouds/dsp/audio_buffer.h ****         in += stride;
 152:eurorack/clouds/dsp/audio_buffer.h ****       }
 153:eurorack/clouds/dsp/audio_buffer.h ****     } else {
 154:eurorack/clouds/dsp/audio_buffer.h ****       while (size--) {
 155:eurorack/clouds/dsp/audio_buffer.h ****         float sample = *in;
 156:eurorack/clouds/dsp/audio_buffer.h ****         if (crossfade_counter_) {
 157:eurorack/clouds/dsp/audio_buffer.h ****           --crossfade_counter_;
 158:eurorack/clouds/dsp/audio_buffer.h ****           float tail_sample = tail_[kCrossFadeSize - crossfade_counter_];
 159:eurorack/clouds/dsp/audio_buffer.h ****           float gain = crossfade_counter_ * (1.0f / float(kCrossFadeSize));
 160:eurorack/clouds/dsp/audio_buffer.h ****           sample += (tail_sample / 32768.0f - sample) * gain;
 161:eurorack/clouds/dsp/audio_buffer.h ****         }
 162:eurorack/clouds/dsp/audio_buffer.h ****         Write(sample);
 163:eurorack/clouds/dsp/audio_buffer.h ****         in += stride;
 164:eurorack/clouds/dsp/audio_buffer.h ****       }
 165:eurorack/clouds/dsp/audio_buffer.h ****     }
 166:eurorack/clouds/dsp/audio_buffer.h ****   }
 167:eurorack/clouds/dsp/audio_buffer.h ****   
 168:eurorack/clouds/dsp/audio_buffer.h ****   inline void Write(const float* in, int32_t size, int32_t stride) {
 169:eurorack/clouds/dsp/audio_buffer.h ****     if (resolution == RESOLUTION_16_BIT
 170:eurorack/clouds/dsp/audio_buffer.h ****         && write_head_ >= kInterpolationTail && write_head_ < (size_ - size)) {
 171:eurorack/clouds/dsp/audio_buffer.h ****       // Fast write routine for the most common case.
 172:eurorack/clouds/dsp/audio_buffer.h ****       while (size--) {
 173:eurorack/clouds/dsp/audio_buffer.h ****         s16_[write_head_] = stmlib::Clip16(
 174:eurorack/clouds/dsp/audio_buffer.h ****             static_cast<int32_t>(*in * 32768.0f));
 175:eurorack/clouds/dsp/audio_buffer.h ****         ++write_head_;
 176:eurorack/clouds/dsp/audio_buffer.h ****         in += stride;
 177:eurorack/clouds/dsp/audio_buffer.h ****       }
 178:eurorack/clouds/dsp/audio_buffer.h ****     } else {
 179:eurorack/clouds/dsp/audio_buffer.h ****       while (size--) {
 180:eurorack/clouds/dsp/audio_buffer.h ****         Write(*in);
 181:eurorack/clouds/dsp/audio_buffer.h ****         in += stride;
 182:eurorack/clouds/dsp/audio_buffer.h ****       }
 183:eurorack/clouds/dsp/audio_buffer.h ****     }
 184:eurorack/clouds/dsp/audio_buffer.h ****   }
 185:eurorack/clouds/dsp/audio_buffer.h ****   
 186:eurorack/clouds/dsp/audio_buffer.h ****   template<InterpolationMethod method>
 187:eurorack/clouds/dsp/audio_buffer.h ****   inline float Read(int32_t integral, uint16_t fractional) const {
 188:eurorack/clouds/dsp/audio_buffer.h ****     if (method == INTERPOLATION_ZOH) {
 189:eurorack/clouds/dsp/audio_buffer.h ****       return ReadZOH(integral, fractional);
 190:eurorack/clouds/dsp/audio_buffer.h ****     } else if (method == INTERPOLATION_LINEAR) {
 191:eurorack/clouds/dsp/audio_buffer.h ****       return ReadLinear(integral, fractional);
 192:eurorack/clouds/dsp/audio_buffer.h ****     } else if (method == INTERPOLATION_HERMITE) {
 193:eurorack/clouds/dsp/audio_buffer.h ****       return ReadHermite(integral, fractional);
 194:eurorack/clouds/dsp/audio_buffer.h ****     }
 195:eurorack/clouds/dsp/audio_buffer.h ****   }
 196:eurorack/clouds/dsp/audio_buffer.h ****   
 197:eurorack/clouds/dsp/audio_buffer.h ****   inline float ReadZOH(int32_t integral, uint16_t fractional) const {
  28              		.loc 1 197 16 view -0
  29              		.cfi_startproc
  30              		@ args = 0, pretend = 0, frame = 0
  31              		@ frame_needed = 0, uses_anonymous_args = 0
  32              		@ link register save eliminated.
ARM GAS  /var/folders/9s/8rp0_f2s1n31qbztm3b5_fdh0000gn/T//ccAcUEVW.s 			page 5


 198:eurorack/clouds/dsp/audio_buffer.h ****     if (integral >= size_) {
  33              		.loc 1 198 21 is_stmt 0 view .LVU1
  34 0000 0369     		ldr	r3, [r0, #16]
  35              		.loc 1 198 5 view .LVU2
  36 0002 8B42     		cmp	r3, r1
 199:eurorack/clouds/dsp/audio_buffer.h ****       integral -= size_;
  37              		.loc 1 199 16 view .LVU3
  38 0004 D8BF     		it	le
  39 0006 C91A     		suble	r1, r1, r3
  40              	.LVL1:
  41              	.LBB867:
  42              	.LBI867:
  43              		.file 2 "eurorack/clouds/dsp/mu_law.h"
   1:eurorack/clouds/dsp/mu_law.h **** // Copyright 2014 Emilie Gillet.
   2:eurorack/clouds/dsp/mu_law.h **** //
   3:eurorack/clouds/dsp/mu_law.h **** // Author: Emilie Gillet (emilie.o.gillet@gmail.com)
   4:eurorack/clouds/dsp/mu_law.h **** //
   5:eurorack/clouds/dsp/mu_law.h **** // Permission is hereby granted, free of charge, to any person obtaining a copy
   6:eurorack/clouds/dsp/mu_law.h **** // of this software and associated documentation files (the "Software"), to deal
   7:eurorack/clouds/dsp/mu_law.h **** // in the Software without restriction, including without limitation the rights
   8:eurorack/clouds/dsp/mu_law.h **** // to use, copy, modify, merge, publish, distribute, sublicense, and/or sell
   9:eurorack/clouds/dsp/mu_law.h **** // copies of the Software, and to permit persons to whom the Software is
  10:eurorack/clouds/dsp/mu_law.h **** // furnished to do so, subject to the following conditions:
  11:eurorack/clouds/dsp/mu_law.h **** // 
  12:eurorack/clouds/dsp/mu_law.h **** // The above copyright notice and this permission notice shall be included in
  13:eurorack/clouds/dsp/mu_law.h **** // all copies or substantial portions of the Software.
  14:eurorack/clouds/dsp/mu_law.h **** // 
  15:eurorack/clouds/dsp/mu_law.h **** // THE SOFTWARE IS PROVIDED "AS IS", WITHOUT WARRANTY OF ANY KIND, EXPRESS OR
  16:eurorack/clouds/dsp/mu_law.h **** // IMPLIED, INCLUDING BUT NOT LIMITED TO THE WARRANTIES OF MERCHANTABILITY,
  17:eurorack/clouds/dsp/mu_law.h **** // FITNESS FOR A PARTICULAR PURPOSE AND NONINFRINGEMENT. IN NO EVENT SHALL THE
  18:eurorack/clouds/dsp/mu_law.h **** // AUTHORS OR COPYRIGHT HOLDERS BE LIABLE FOR ANY CLAIM, DAMAGES OR OTHER
  19:eurorack/clouds/dsp/mu_law.h **** // LIABILITY, WHETHER IN AN ACTION OF CONTRACT, TORT OR OTHERWISE, ARISING FROM,
  20:eurorack/clouds/dsp/mu_law.h **** // OUT OF OR IN CONNECTION WITH THE SOFTWARE OR THE USE OR OTHER DEALINGS IN
  21:eurorack/clouds/dsp/mu_law.h **** // THE SOFTWARE.
  22:eurorack/clouds/dsp/mu_law.h **** // 
  23:eurorack/clouds/dsp/mu_law.h **** // See http://creativecommons.org/licenses/MIT/ for more information.
  24:eurorack/clouds/dsp/mu_law.h **** //
  25:eurorack/clouds/dsp/mu_law.h **** // -----------------------------------------------------------------------------
  26:eurorack/clouds/dsp/mu_law.h **** //
  27:eurorack/clouds/dsp/mu_law.h **** // Mu-law encoding.
  28:eurorack/clouds/dsp/mu_law.h **** 
  29:eurorack/clouds/dsp/mu_law.h **** #ifndef CLOUDS_DSP_MU_LAW_H_
  30:eurorack/clouds/dsp/mu_law.h **** #define CLOUDS_DSP_MU_LAW_H_
  31:eurorack/clouds/dsp/mu_law.h **** 
  32:eurorack/clouds/dsp/mu_law.h **** #include "stmlib/stmlib.h"
  33:eurorack/clouds/dsp/mu_law.h **** 
  34:eurorack/clouds/dsp/mu_law.h **** namespace clouds {
  35:eurorack/clouds/dsp/mu_law.h **** 
  36:eurorack/clouds/dsp/mu_law.h **** // inline short MuLaw2Lin(uint8_t u_val) {
  37:eurorack/clouds/dsp/mu_law.h **** //   int16_t t;
  38:eurorack/clouds/dsp/mu_law.h **** //   u_val = ~u_val;
  39:eurorack/clouds/dsp/mu_law.h **** //   t = ((u_val & 0xf) << 3) + 0x84;
  40:eurorack/clouds/dsp/mu_law.h **** //   t <<= ((unsigned)u_val & 0x70) >> 4;
  41:eurorack/clouds/dsp/mu_law.h **** //   return ((u_val & 0x80) ? (0x84 - t) : (t - 0x84));
  42:eurorack/clouds/dsp/mu_law.h **** // }
  43:eurorack/clouds/dsp/mu_law.h **** 
  44:eurorack/clouds/dsp/mu_law.h **** extern int16_t lut_ulaw[256];
ARM GAS  /var/folders/9s/8rp0_f2s1n31qbztm3b5_fdh0000gn/T//ccAcUEVW.s 			page 6


  45:eurorack/clouds/dsp/mu_law.h **** 
  46:eurorack/clouds/dsp/mu_law.h **** inline short MuLaw2Lin(uint8_t u_val) {
  44              		.loc 2 46 14 is_stmt 1 view .LVU4
  45              	.LBB868:
  47:eurorack/clouds/dsp/mu_law.h ****   return lut_ulaw[u_val];
  46              		.loc 2 47 3 view .LVU5
  47              		.loc 2 47 3 is_stmt 0 view .LVU6
  48              	.LBE868:
  49              	.LBE867:
 200:eurorack/clouds/dsp/audio_buffer.h ****     }
 201:eurorack/clouds/dsp/audio_buffer.h ****     
 202:eurorack/clouds/dsp/audio_buffer.h ****     float x0, scale;
 203:eurorack/clouds/dsp/audio_buffer.h ****     if (resolution == RESOLUTION_16_BIT) {
 204:eurorack/clouds/dsp/audio_buffer.h ****       x0 = s16_[integral];
 205:eurorack/clouds/dsp/audio_buffer.h ****       scale = 1.0f / 32768.0f;
 206:eurorack/clouds/dsp/audio_buffer.h ****     } else if (resolution == RESOLUTION_8_BIT_MU_LAW) {
 207:eurorack/clouds/dsp/audio_buffer.h ****       x0 = MuLaw2Lin(s8_[integral]);
  50              		.loc 1 207 34 view .LVU7
  51 0008 4368     		ldr	r3, [r0, #4]
  52              	.LBB870:
  53              	.LBB869:
  54              		.loc 2 47 19 view .LVU8
  55 000a 5A5C     		ldrb	r2, [r3, r1]	@ zero_extendqisi2
  56              	.LBE869:
  57              	.LBE870:
  58              		.loc 1 207 10 view .LVU9
  59 000c 034B     		ldr	r3, .L3
  60 000e 33F91230 		ldrsh	r3, [r3, r2, lsl #1]
  61 0012 00EE103A 		vmov	s0, r3	@ int
 208:eurorack/clouds/dsp/audio_buffer.h ****       scale = 1.0f / 32768.0f;
 209:eurorack/clouds/dsp/audio_buffer.h ****     } else {
 210:eurorack/clouds/dsp/audio_buffer.h ****       x0 = s8_[integral];
 211:eurorack/clouds/dsp/audio_buffer.h ****       scale = 1.0f / 128.0f;
 212:eurorack/clouds/dsp/audio_buffer.h ****     }
 213:eurorack/clouds/dsp/audio_buffer.h ****     return x0 * scale;
 214:eurorack/clouds/dsp/audio_buffer.h ****   }
  62              		.loc 1 214 3 view .LVU10
  63 0016 BAEEE80A 		vcvt.f32.s32	s0, s0, #15
  64 001a 7047     		bx	lr
  65              	.L4:
  66              		.align	2
  67              	.L3:
  68 001c 00000000 		.word	_ZN6clouds8lut_ulawE
  69              		.cfi_endproc
  70              	.LFE2211:
  72              		.section	.text._ZN6clouds8FxEngineILj4096ELNS_6FormatE1EE7Context11InterpolateINS2_9DelayLineINS2_
  73              		.align	1
  74              		.syntax unified
  75              		.thumb
  76              		.thumb_func
  78              	_ZN6clouds8FxEngineILj4096ELNS_6FormatE1EE7Context11InterpolateINS2_9DelayLineINS2_7ReserveILl2047E
  79              	.LVL2:
  80              	.LFB2143:
  81              		.file 3 "eurorack/clouds/dsp/fx/fx_engine.h"
   1:eurorack/clouds/dsp/fx/fx_engine.h **** // Copyright 2014 Emilie Gillet.
   2:eurorack/clouds/dsp/fx/fx_engine.h **** //
   3:eurorack/clouds/dsp/fx/fx_engine.h **** // Author: Emilie Gillet (emilie.o.gillet@gmail.com)
ARM GAS  /var/folders/9s/8rp0_f2s1n31qbztm3b5_fdh0000gn/T//ccAcUEVW.s 			page 7


   4:eurorack/clouds/dsp/fx/fx_engine.h **** //
   5:eurorack/clouds/dsp/fx/fx_engine.h **** // Permission is hereby granted, free of charge, to any person obtaining a copy
   6:eurorack/clouds/dsp/fx/fx_engine.h **** // of this software and associated documentation files (the "Software"), to deal
   7:eurorack/clouds/dsp/fx/fx_engine.h **** // in the Software without restriction, including without limitation the rights
   8:eurorack/clouds/dsp/fx/fx_engine.h **** // to use, copy, modify, merge, publish, distribute, sublicense, and/or sell
   9:eurorack/clouds/dsp/fx/fx_engine.h **** // copies of the Software, and to permit persons to whom the Software is
  10:eurorack/clouds/dsp/fx/fx_engine.h **** // furnished to do so, subject to the following conditions:
  11:eurorack/clouds/dsp/fx/fx_engine.h **** // 
  12:eurorack/clouds/dsp/fx/fx_engine.h **** // The above copyright notice and this permission notice shall be included in
  13:eurorack/clouds/dsp/fx/fx_engine.h **** // all copies or substantial portions of the Software.
  14:eurorack/clouds/dsp/fx/fx_engine.h **** // 
  15:eurorack/clouds/dsp/fx/fx_engine.h **** // THE SOFTWARE IS PROVIDED "AS IS", WITHOUT WARRANTY OF ANY KIND, EXPRESS OR
  16:eurorack/clouds/dsp/fx/fx_engine.h **** // IMPLIED, INCLUDING BUT NOT LIMITED TO THE WARRANTIES OF MERCHANTABILITY,
  17:eurorack/clouds/dsp/fx/fx_engine.h **** // FITNESS FOR A PARTICULAR PURPOSE AND NONINFRINGEMENT. IN NO EVENT SHALL THE
  18:eurorack/clouds/dsp/fx/fx_engine.h **** // AUTHORS OR COPYRIGHT HOLDERS BE LIABLE FOR ANY CLAIM, DAMAGES OR OTHER
  19:eurorack/clouds/dsp/fx/fx_engine.h **** // LIABILITY, WHETHER IN AN ACTION OF CONTRACT, TORT OR OTHERWISE, ARISING FROM,
  20:eurorack/clouds/dsp/fx/fx_engine.h **** // OUT OF OR IN CONNECTION WITH THE SOFTWARE OR THE USE OR OTHER DEALINGS IN
  21:eurorack/clouds/dsp/fx/fx_engine.h **** // THE SOFTWARE.
  22:eurorack/clouds/dsp/fx/fx_engine.h **** // 
  23:eurorack/clouds/dsp/fx/fx_engine.h **** // See http://creativecommons.org/licenses/MIT/ for more information.
  24:eurorack/clouds/dsp/fx/fx_engine.h **** //
  25:eurorack/clouds/dsp/fx/fx_engine.h **** // -----------------------------------------------------------------------------
  26:eurorack/clouds/dsp/fx/fx_engine.h **** //
  27:eurorack/clouds/dsp/fx/fx_engine.h **** // Base class for building reverbs.
  28:eurorack/clouds/dsp/fx/fx_engine.h **** 
  29:eurorack/clouds/dsp/fx/fx_engine.h **** #ifndef CLOUDS_DSP_FX_FX_ENGINE_H_
  30:eurorack/clouds/dsp/fx/fx_engine.h **** #define CLOUDS_DSP_FX_FX_ENGINE_H_
  31:eurorack/clouds/dsp/fx/fx_engine.h **** 
  32:eurorack/clouds/dsp/fx/fx_engine.h **** #include <algorithm>
  33:eurorack/clouds/dsp/fx/fx_engine.h **** 
  34:eurorack/clouds/dsp/fx/fx_engine.h **** #include "stmlib/stmlib.h"
  35:eurorack/clouds/dsp/fx/fx_engine.h **** 
  36:eurorack/clouds/dsp/fx/fx_engine.h **** #include "stmlib/dsp/dsp.h"
  37:eurorack/clouds/dsp/fx/fx_engine.h **** #include "stmlib/dsp/cosine_oscillator.h"
  38:eurorack/clouds/dsp/fx/fx_engine.h **** 
  39:eurorack/clouds/dsp/fx/fx_engine.h **** namespace clouds {
  40:eurorack/clouds/dsp/fx/fx_engine.h **** 
  41:eurorack/clouds/dsp/fx/fx_engine.h **** #define TAIL , -1
  42:eurorack/clouds/dsp/fx/fx_engine.h **** 
  43:eurorack/clouds/dsp/fx/fx_engine.h **** enum Format {
  44:eurorack/clouds/dsp/fx/fx_engine.h ****   FORMAT_12_BIT,
  45:eurorack/clouds/dsp/fx/fx_engine.h ****   FORMAT_16_BIT,
  46:eurorack/clouds/dsp/fx/fx_engine.h ****   FORMAT_32_BIT
  47:eurorack/clouds/dsp/fx/fx_engine.h **** };
  48:eurorack/clouds/dsp/fx/fx_engine.h **** 
  49:eurorack/clouds/dsp/fx/fx_engine.h **** enum LFOIndex {
  50:eurorack/clouds/dsp/fx/fx_engine.h ****   LFO_1,
  51:eurorack/clouds/dsp/fx/fx_engine.h ****   LFO_2
  52:eurorack/clouds/dsp/fx/fx_engine.h **** };
  53:eurorack/clouds/dsp/fx/fx_engine.h **** 
  54:eurorack/clouds/dsp/fx/fx_engine.h **** template<Format format>
  55:eurorack/clouds/dsp/fx/fx_engine.h **** struct DataType { };
  56:eurorack/clouds/dsp/fx/fx_engine.h **** 
  57:eurorack/clouds/dsp/fx/fx_engine.h **** template<>
  58:eurorack/clouds/dsp/fx/fx_engine.h **** struct DataType<FORMAT_12_BIT> {
  59:eurorack/clouds/dsp/fx/fx_engine.h ****   typedef uint16_t T;
  60:eurorack/clouds/dsp/fx/fx_engine.h ****   
ARM GAS  /var/folders/9s/8rp0_f2s1n31qbztm3b5_fdh0000gn/T//ccAcUEVW.s 			page 8


  61:eurorack/clouds/dsp/fx/fx_engine.h ****   static inline float Decompress(T value) {
  62:eurorack/clouds/dsp/fx/fx_engine.h ****     return static_cast<float>(static_cast<int16_t>(value)) / 4096.0f;
  63:eurorack/clouds/dsp/fx/fx_engine.h ****   }
  64:eurorack/clouds/dsp/fx/fx_engine.h ****   
  65:eurorack/clouds/dsp/fx/fx_engine.h ****   static inline T Compress(float value) {
  66:eurorack/clouds/dsp/fx/fx_engine.h ****     return static_cast<uint16_t>(
  67:eurorack/clouds/dsp/fx/fx_engine.h ****         stmlib::Clip16(static_cast<int32_t>(value * 4096.0f)));
  68:eurorack/clouds/dsp/fx/fx_engine.h ****   }
  69:eurorack/clouds/dsp/fx/fx_engine.h **** };
  70:eurorack/clouds/dsp/fx/fx_engine.h **** 
  71:eurorack/clouds/dsp/fx/fx_engine.h **** template<>
  72:eurorack/clouds/dsp/fx/fx_engine.h **** struct DataType<FORMAT_16_BIT> {
  73:eurorack/clouds/dsp/fx/fx_engine.h ****   typedef uint16_t T;
  74:eurorack/clouds/dsp/fx/fx_engine.h ****   
  75:eurorack/clouds/dsp/fx/fx_engine.h ****   static inline float Decompress(T value) {
  76:eurorack/clouds/dsp/fx/fx_engine.h ****     return static_cast<float>(static_cast<int16_t>(value)) / 32768.0f;
  77:eurorack/clouds/dsp/fx/fx_engine.h ****   }
  78:eurorack/clouds/dsp/fx/fx_engine.h ****   
  79:eurorack/clouds/dsp/fx/fx_engine.h ****   static inline T Compress(float value) {
  80:eurorack/clouds/dsp/fx/fx_engine.h ****     return static_cast<uint16_t>(
  81:eurorack/clouds/dsp/fx/fx_engine.h ****         stmlib::Clip16(static_cast<int32_t>(value * 32768.0f)));
  82:eurorack/clouds/dsp/fx/fx_engine.h ****   }
  83:eurorack/clouds/dsp/fx/fx_engine.h **** };
  84:eurorack/clouds/dsp/fx/fx_engine.h **** 
  85:eurorack/clouds/dsp/fx/fx_engine.h **** template<>
  86:eurorack/clouds/dsp/fx/fx_engine.h **** struct DataType<FORMAT_32_BIT> {
  87:eurorack/clouds/dsp/fx/fx_engine.h ****   typedef float T;
  88:eurorack/clouds/dsp/fx/fx_engine.h ****   
  89:eurorack/clouds/dsp/fx/fx_engine.h ****   static inline float Decompress(T value) {
  90:eurorack/clouds/dsp/fx/fx_engine.h ****     return value;;
  91:eurorack/clouds/dsp/fx/fx_engine.h ****   }
  92:eurorack/clouds/dsp/fx/fx_engine.h ****   
  93:eurorack/clouds/dsp/fx/fx_engine.h ****   static inline T Compress(float value) {
  94:eurorack/clouds/dsp/fx/fx_engine.h ****     return value;
  95:eurorack/clouds/dsp/fx/fx_engine.h ****   }
  96:eurorack/clouds/dsp/fx/fx_engine.h **** };
  97:eurorack/clouds/dsp/fx/fx_engine.h **** 
  98:eurorack/clouds/dsp/fx/fx_engine.h **** template<
  99:eurorack/clouds/dsp/fx/fx_engine.h ****     size_t size,
 100:eurorack/clouds/dsp/fx/fx_engine.h ****     Format format = FORMAT_12_BIT>
 101:eurorack/clouds/dsp/fx/fx_engine.h **** class FxEngine {
 102:eurorack/clouds/dsp/fx/fx_engine.h ****  public:
 103:eurorack/clouds/dsp/fx/fx_engine.h ****   typedef typename DataType<format>::T T;
 104:eurorack/clouds/dsp/fx/fx_engine.h ****   FxEngine() { }
 105:eurorack/clouds/dsp/fx/fx_engine.h ****   ~FxEngine() { }
 106:eurorack/clouds/dsp/fx/fx_engine.h **** 
 107:eurorack/clouds/dsp/fx/fx_engine.h ****   void Init(T* buffer) {
 108:eurorack/clouds/dsp/fx/fx_engine.h ****     buffer_ = buffer;
 109:eurorack/clouds/dsp/fx/fx_engine.h ****     Clear();
 110:eurorack/clouds/dsp/fx/fx_engine.h ****   }
 111:eurorack/clouds/dsp/fx/fx_engine.h ****   
 112:eurorack/clouds/dsp/fx/fx_engine.h ****   void Clear() {
 113:eurorack/clouds/dsp/fx/fx_engine.h ****     std::fill(&buffer_[0], &buffer_[size], 0);
 114:eurorack/clouds/dsp/fx/fx_engine.h ****     write_ptr_ = 0;
 115:eurorack/clouds/dsp/fx/fx_engine.h ****   }
 116:eurorack/clouds/dsp/fx/fx_engine.h **** 
 117:eurorack/clouds/dsp/fx/fx_engine.h ****   struct Empty { };
ARM GAS  /var/folders/9s/8rp0_f2s1n31qbztm3b5_fdh0000gn/T//ccAcUEVW.s 			page 9


 118:eurorack/clouds/dsp/fx/fx_engine.h ****   
 119:eurorack/clouds/dsp/fx/fx_engine.h ****   template<int32_t l, typename T = Empty>
 120:eurorack/clouds/dsp/fx/fx_engine.h ****   struct Reserve {
 121:eurorack/clouds/dsp/fx/fx_engine.h ****     typedef T Tail;
 122:eurorack/clouds/dsp/fx/fx_engine.h ****     enum {
 123:eurorack/clouds/dsp/fx/fx_engine.h ****       length = l
 124:eurorack/clouds/dsp/fx/fx_engine.h ****     };
 125:eurorack/clouds/dsp/fx/fx_engine.h ****   };
 126:eurorack/clouds/dsp/fx/fx_engine.h ****   
 127:eurorack/clouds/dsp/fx/fx_engine.h ****   template<typename Memory, int32_t index>
 128:eurorack/clouds/dsp/fx/fx_engine.h ****   struct DelayLine {
 129:eurorack/clouds/dsp/fx/fx_engine.h ****     enum {
 130:eurorack/clouds/dsp/fx/fx_engine.h ****       length = DelayLine<typename Memory::Tail, index - 1>::length,
 131:eurorack/clouds/dsp/fx/fx_engine.h ****       base = DelayLine<Memory, index - 1>::base + DelayLine<Memory, index - 1>::length + 1
 132:eurorack/clouds/dsp/fx/fx_engine.h ****     };
 133:eurorack/clouds/dsp/fx/fx_engine.h ****   };
 134:eurorack/clouds/dsp/fx/fx_engine.h **** 
 135:eurorack/clouds/dsp/fx/fx_engine.h ****   template<typename Memory>
 136:eurorack/clouds/dsp/fx/fx_engine.h ****   struct DelayLine<Memory, 0> {
 137:eurorack/clouds/dsp/fx/fx_engine.h ****     enum {
 138:eurorack/clouds/dsp/fx/fx_engine.h ****       length = Memory::length,
 139:eurorack/clouds/dsp/fx/fx_engine.h ****       base = 0
 140:eurorack/clouds/dsp/fx/fx_engine.h ****     };
 141:eurorack/clouds/dsp/fx/fx_engine.h ****   };
 142:eurorack/clouds/dsp/fx/fx_engine.h **** 
 143:eurorack/clouds/dsp/fx/fx_engine.h ****   class Context {
 144:eurorack/clouds/dsp/fx/fx_engine.h ****    friend class FxEngine;
 145:eurorack/clouds/dsp/fx/fx_engine.h ****    public:
 146:eurorack/clouds/dsp/fx/fx_engine.h ****     Context() { }
 147:eurorack/clouds/dsp/fx/fx_engine.h ****     ~Context() { }
 148:eurorack/clouds/dsp/fx/fx_engine.h ****     
 149:eurorack/clouds/dsp/fx/fx_engine.h ****     inline void Load(float value) {
 150:eurorack/clouds/dsp/fx/fx_engine.h ****       accumulator_ = value;
 151:eurorack/clouds/dsp/fx/fx_engine.h ****     }
 152:eurorack/clouds/dsp/fx/fx_engine.h **** 
 153:eurorack/clouds/dsp/fx/fx_engine.h ****     inline void Read(float value, float scale) {
 154:eurorack/clouds/dsp/fx/fx_engine.h ****       accumulator_ += value * scale;
 155:eurorack/clouds/dsp/fx/fx_engine.h ****     }
 156:eurorack/clouds/dsp/fx/fx_engine.h **** 
 157:eurorack/clouds/dsp/fx/fx_engine.h ****     inline void Read(float value) {
 158:eurorack/clouds/dsp/fx/fx_engine.h ****       accumulator_ += value;
 159:eurorack/clouds/dsp/fx/fx_engine.h ****     }
 160:eurorack/clouds/dsp/fx/fx_engine.h **** 
 161:eurorack/clouds/dsp/fx/fx_engine.h ****     inline void Write(float& value) {
 162:eurorack/clouds/dsp/fx/fx_engine.h ****       value = accumulator_;
 163:eurorack/clouds/dsp/fx/fx_engine.h ****     }
 164:eurorack/clouds/dsp/fx/fx_engine.h **** 
 165:eurorack/clouds/dsp/fx/fx_engine.h ****     inline void Write(float& value, float scale) {
 166:eurorack/clouds/dsp/fx/fx_engine.h ****       value = accumulator_;
 167:eurorack/clouds/dsp/fx/fx_engine.h ****       accumulator_ *= scale;
 168:eurorack/clouds/dsp/fx/fx_engine.h ****     }
 169:eurorack/clouds/dsp/fx/fx_engine.h ****     
 170:eurorack/clouds/dsp/fx/fx_engine.h ****     template<typename D>
 171:eurorack/clouds/dsp/fx/fx_engine.h ****     inline void Write(D& d, int32_t offset, float scale) {
 172:eurorack/clouds/dsp/fx/fx_engine.h ****       STATIC_ASSERT(D::base + D::length <= size, delay_memory_full);
 173:eurorack/clouds/dsp/fx/fx_engine.h ****       T w = DataType<format>::Compress(accumulator_);
 174:eurorack/clouds/dsp/fx/fx_engine.h ****       if (offset == -1) {
ARM GAS  /var/folders/9s/8rp0_f2s1n31qbztm3b5_fdh0000gn/T//ccAcUEVW.s 			page 10


 175:eurorack/clouds/dsp/fx/fx_engine.h ****         buffer_[(write_ptr_ + D::base + D::length - 1) & MASK] = w;
 176:eurorack/clouds/dsp/fx/fx_engine.h ****       } else {
 177:eurorack/clouds/dsp/fx/fx_engine.h ****         buffer_[(write_ptr_ + D::base + offset) & MASK] = w;
 178:eurorack/clouds/dsp/fx/fx_engine.h ****       }
 179:eurorack/clouds/dsp/fx/fx_engine.h ****       accumulator_ *= scale;
 180:eurorack/clouds/dsp/fx/fx_engine.h ****     }
 181:eurorack/clouds/dsp/fx/fx_engine.h ****     
 182:eurorack/clouds/dsp/fx/fx_engine.h ****     template<typename D>
 183:eurorack/clouds/dsp/fx/fx_engine.h ****     inline void Write(D& d, float scale) {
 184:eurorack/clouds/dsp/fx/fx_engine.h ****       Write(d, 0, scale);
 185:eurorack/clouds/dsp/fx/fx_engine.h ****     }
 186:eurorack/clouds/dsp/fx/fx_engine.h **** 
 187:eurorack/clouds/dsp/fx/fx_engine.h ****     template<typename D>
 188:eurorack/clouds/dsp/fx/fx_engine.h ****     inline void WriteAllPass(D& d, int32_t offset, float scale) {
 189:eurorack/clouds/dsp/fx/fx_engine.h ****       Write(d, offset, scale);
 190:eurorack/clouds/dsp/fx/fx_engine.h ****       accumulator_ += previous_read_;
 191:eurorack/clouds/dsp/fx/fx_engine.h ****     }
 192:eurorack/clouds/dsp/fx/fx_engine.h ****     
 193:eurorack/clouds/dsp/fx/fx_engine.h ****     template<typename D>
 194:eurorack/clouds/dsp/fx/fx_engine.h ****     inline void WriteAllPass(D& d, float scale) {
 195:eurorack/clouds/dsp/fx/fx_engine.h ****       WriteAllPass(d, 0, scale);
 196:eurorack/clouds/dsp/fx/fx_engine.h ****     }
 197:eurorack/clouds/dsp/fx/fx_engine.h ****     
 198:eurorack/clouds/dsp/fx/fx_engine.h ****     template<typename D>
 199:eurorack/clouds/dsp/fx/fx_engine.h ****     inline void Read(D& d, int32_t offset, float scale) {
 200:eurorack/clouds/dsp/fx/fx_engine.h ****       STATIC_ASSERT(D::base + D::length <= size, delay_memory_full);
 201:eurorack/clouds/dsp/fx/fx_engine.h ****       T r;
 202:eurorack/clouds/dsp/fx/fx_engine.h ****       if (offset == -1) {
 203:eurorack/clouds/dsp/fx/fx_engine.h ****         r = buffer_[(write_ptr_ + D::base + D::length - 1) & MASK];
 204:eurorack/clouds/dsp/fx/fx_engine.h ****       } else {
 205:eurorack/clouds/dsp/fx/fx_engine.h ****         r = buffer_[(write_ptr_ + D::base + offset) & MASK];
 206:eurorack/clouds/dsp/fx/fx_engine.h ****       }
 207:eurorack/clouds/dsp/fx/fx_engine.h ****       float r_f = DataType<format>::Decompress(r);
 208:eurorack/clouds/dsp/fx/fx_engine.h ****       previous_read_ = r_f;
 209:eurorack/clouds/dsp/fx/fx_engine.h ****       accumulator_ += r_f * scale;
 210:eurorack/clouds/dsp/fx/fx_engine.h ****     }
 211:eurorack/clouds/dsp/fx/fx_engine.h ****     
 212:eurorack/clouds/dsp/fx/fx_engine.h ****     template<typename D>
 213:eurorack/clouds/dsp/fx/fx_engine.h ****     inline void Read(D& d, float scale) {
 214:eurorack/clouds/dsp/fx/fx_engine.h ****       Read(d, 0, scale);
 215:eurorack/clouds/dsp/fx/fx_engine.h ****     }
 216:eurorack/clouds/dsp/fx/fx_engine.h ****     
 217:eurorack/clouds/dsp/fx/fx_engine.h ****     inline void Lp(float& state, float coefficient) {
 218:eurorack/clouds/dsp/fx/fx_engine.h ****       state += coefficient * (accumulator_ - state);
 219:eurorack/clouds/dsp/fx/fx_engine.h ****       accumulator_ = state;
 220:eurorack/clouds/dsp/fx/fx_engine.h ****     }
 221:eurorack/clouds/dsp/fx/fx_engine.h **** 
 222:eurorack/clouds/dsp/fx/fx_engine.h ****     inline void Hp(float& state, float coefficient) {
 223:eurorack/clouds/dsp/fx/fx_engine.h ****       state += coefficient * (accumulator_ - state);
 224:eurorack/clouds/dsp/fx/fx_engine.h ****       accumulator_ -= state;
 225:eurorack/clouds/dsp/fx/fx_engine.h ****     }
 226:eurorack/clouds/dsp/fx/fx_engine.h ****     
 227:eurorack/clouds/dsp/fx/fx_engine.h ****     template<typename D>
 228:eurorack/clouds/dsp/fx/fx_engine.h ****     inline void Interpolate(D& d, float offset, float scale) {
  82              		.loc 3 228 17 is_stmt 1 view -0
  83              		.cfi_startproc
  84              		@ args = 0, pretend = 0, frame = 0
ARM GAS  /var/folders/9s/8rp0_f2s1n31qbztm3b5_fdh0000gn/T//ccAcUEVW.s 			page 11


  85              		@ frame_needed = 0, uses_anonymous_args = 0
  86              		@ link register save eliminated.
 229:eurorack/clouds/dsp/fx/fx_engine.h ****       STATIC_ASSERT(D::base + D::length <= size, delay_memory_full);
 230:eurorack/clouds/dsp/fx/fx_engine.h ****       MAKE_INTEGRAL_FRACTIONAL(offset);
  87              		.loc 3 230 7 is_stmt 0 view .LVU12
  88 0000 BDEEC07A 		vcvt.s32.f32	s14, s0
  89              	.LVL3:
  90              	.LBB871:
  91              	.LBB872:
  76:eurorack/clouds/dsp/fx/fx_engine.h ****   }
  92              		.loc 3 76 62 view .LVU13
  93 0004 DFED186A 		vldr.32	s13, .L6
  94              	.LBE872:
  95              	.LBE871:
 231:eurorack/clouds/dsp/fx/fx_engine.h ****       float a = DataType<format>::Decompress(
 232:eurorack/clouds/dsp/fx/fx_engine.h ****           buffer_[(write_ptr_ + offset_integral + D::base) & MASK]);
  96              		.loc 3 232 31 view .LVU14
  97 0008 D0E90413 		ldrd	r1, r3, [r0, #16]
  98 000c 17EE102A 		vmov	r2, s14	@ int
 230:eurorack/clouds/dsp/fx/fx_engine.h ****       float a = DataType<format>::Decompress(
  99              		.loc 3 230 7 view .LVU15
 100 0010 F8EEC77A 		vcvt.f32.s32	s15, s14
 101              		.loc 3 232 31 view .LVU16
 102 0014 1A44     		add	r2, r2, r3
 230:eurorack/clouds/dsp/fx/fx_engine.h ****       float a = DataType<format>::Decompress(
 103              		.loc 3 230 7 view .LVU17
 104 0016 70EE677A 		vsub.f32	s15, s0, s15
 105              	.LVL4:
 106              		.loc 3 232 31 view .LVU18
 107 001a 1346     		mov	r3, r2
 108              	.LVL5:
 109              	.LBB876:
 110              	.LBI876:
  75:eurorack/clouds/dsp/fx/fx_engine.h ****     return static_cast<float>(static_cast<int16_t>(value)) / 32768.0f;
 111              		.loc 3 75 23 is_stmt 1 view .LVU19
 112              	.LBB877:
  76:eurorack/clouds/dsp/fx/fx_engine.h ****   }
 113              		.loc 3 76 5 view .LVU20
 114              	.LBE877:
 115              	.LBE876:
 116              		.loc 3 232 49 is_stmt 0 view .LVU21
 117 001c 02F50062 		add	r2, r2, #2048
 118              	.LVL6:
 233:eurorack/clouds/dsp/fx/fx_engine.h ****       float b = DataType<format>::Decompress(
 234:eurorack/clouds/dsp/fx/fx_engine.h ****           buffer_[(write_ptr_ + offset_integral + D::base + 1) & MASK]);
 119              		.loc 3 234 59 view .LVU22
 120 0020 03F60103 		addw	r3, r3, #2049
 232:eurorack/clouds/dsp/fx/fx_engine.h ****       float b = DataType<format>::Decompress(
 121              		.loc 3 232 60 view .LVU23
 122 0024 C2F30B02 		ubfx	r2, r2, #0, #12
 123              	.LVL7:
 124              		.loc 3 234 64 view .LVU24
 125 0028 C3F30B03 		ubfx	r3, r3, #0, #12
 126              	.LVL8:
 127              	.LBB881:
 128              	.LBB878:
  76:eurorack/clouds/dsp/fx/fx_engine.h ****   }
ARM GAS  /var/folders/9s/8rp0_f2s1n31qbztm3b5_fdh0000gn/T//ccAcUEVW.s 			page 12


 129              		.loc 3 76 12 view .LVU25
 130 002c 31F91220 		ldrsh	r2, [r1, r2, lsl #1]
 131              	.LBE878:
 132              	.LBE881:
 133              	.LBB882:
 134              	.LBB873:
 135 0030 31F91330 		ldrsh	r3, [r1, r3, lsl #1]
 136              	.LBE873:
 137              	.LBE882:
 138              	.LBB883:
 139              	.LBB879:
 140 0034 07EE102A 		vmov	s14, r2	@ int
 141              	.LVL9:
  76:eurorack/clouds/dsp/fx/fx_engine.h ****   }
 142              		.loc 3 76 12 view .LVU26
 143              	.LBE879:
 144              	.LBE883:
 145              	.LBB884:
 146              	.LBB874:
 147 0038 00EE103A 		vmov	s0, r3	@ int
 148              	.LVL10:
  76:eurorack/clouds/dsp/fx/fx_engine.h ****   }
 149              		.loc 3 76 12 view .LVU27
 150              	.LBE874:
 151              	.LBE884:
 152              	.LBB885:
 153              	.LBB880:
 154 003c B8EEC77A 		vcvt.f32.s32	s14, s14
 155              	.LVL11:
  76:eurorack/clouds/dsp/fx/fx_engine.h ****   }
 156              		.loc 3 76 12 view .LVU28
 157              	.LBE880:
 158              	.LBE885:
 159              	.LBB886:
 160              	.LBI871:
  75:eurorack/clouds/dsp/fx/fx_engine.h ****     return static_cast<float>(static_cast<int16_t>(value)) / 32768.0f;
 161              		.loc 3 75 23 is_stmt 1 view .LVU29
 162              	.LBB875:
  76:eurorack/clouds/dsp/fx/fx_engine.h ****   }
 163              		.loc 3 76 5 view .LVU30
  76:eurorack/clouds/dsp/fx/fx_engine.h ****   }
 164              		.loc 3 76 12 is_stmt 0 view .LVU31
 165 0040 B8EEC00A 		vcvt.f32.s32	s0, s0
  76:eurorack/clouds/dsp/fx/fx_engine.h ****   }
 166              		.loc 3 76 62 view .LVU32
 167 0044 20EE260A 		vmul.f32	s0, s0, s13
 168              	.LBE875:
 169              	.LBE886:
 235:eurorack/clouds/dsp/fx/fx_engine.h ****       float x = a + (b - a) * offset_fractional;
 170              		.loc 3 235 24 view .LVU33
 171 0048 A7EE660A 		vfms.f32	s0, s14, s13
 172              		.loc 3 235 29 view .LVU34
 173 004c 27EE800A 		vmul.f32	s0, s15, s0
 236:eurorack/clouds/dsp/fx/fx_engine.h ****       previous_read_ = x;
 237:eurorack/clouds/dsp/fx/fx_engine.h ****       accumulator_ += x * scale;
 174              		.loc 3 237 20 view .LVU35
 175 0050 D0ED007A 		vldr.32	s15, [r0]
ARM GAS  /var/folders/9s/8rp0_f2s1n31qbztm3b5_fdh0000gn/T//ccAcUEVW.s 			page 13


 176              	.LVL12:
 235:eurorack/clouds/dsp/fx/fx_engine.h ****       float x = a + (b - a) * offset_fractional;
 177              		.loc 3 235 13 view .LVU36
 178 0054 A7EE260A 		vfma.f32	s0, s14, s13
 179              	.LVL13:
 180              		.loc 3 237 20 view .LVU37
 181 0058 E0EE207A 		vfma.f32	s15, s0, s1
 236:eurorack/clouds/dsp/fx/fx_engine.h ****       previous_read_ = x;
 182              		.loc 3 236 22 view .LVU38
 183 005c 80ED010A 		vstr.32	s0, [r0, #4]
 184              		.loc 3 237 20 view .LVU39
 185 0060 C0ED007A 		vstr.32	s15, [r0]
 238:eurorack/clouds/dsp/fx/fx_engine.h ****     }
 186              		.loc 3 238 5 view .LVU40
 187 0064 7047     		bx	lr
 188              	.L7:
 189 0066 00BF     		.align	2
 190              	.L6:
 191 0068 00000038 		.word	939524096
 192              		.cfi_endproc
 193              	.LFE2143:
 195              		.section	.text._ZN6clouds8FxEngineILj4096ELNS_6FormatE1EE7Context11InterpolateINS2_9DelayLineINS2_
 196              		.align	1
 197              		.syntax unified
 198              		.thumb
 199              		.thumb_func
 201              	_ZN6clouds8FxEngineILj4096ELNS_6FormatE1EE7Context11InterpolateINS2_9DelayLineINS2_7ReserveILl2047E
 202              	.LVL14:
 203              	.LFB2141:
 228:eurorack/clouds/dsp/fx/fx_engine.h ****       STATIC_ASSERT(D::base + D::length <= size, delay_memory_full);
 204              		.loc 3 228 17 is_stmt 1 view -0
 205              		.cfi_startproc
 206              		@ args = 0, pretend = 0, frame = 0
 207              		@ frame_needed = 0, uses_anonymous_args = 0
 208              		@ link register save eliminated.
 230:eurorack/clouds/dsp/fx/fx_engine.h ****       float a = DataType<format>::Decompress(
 209              		.loc 3 230 7 is_stmt 0 view .LVU42
 210 0000 BDEEC07A 		vcvt.s32.f32	s14, s0
 211              	.LVL15:
 212              	.LBB887:
 213              	.LBB888:
  76:eurorack/clouds/dsp/fx/fx_engine.h ****   }
 214              		.loc 3 76 62 view .LVU43
 215 0004 DFED166A 		vldr.32	s13, .L9
 216              	.LBE888:
 217              	.LBE887:
 232:eurorack/clouds/dsp/fx/fx_engine.h ****       float b = DataType<format>::Decompress(
 218              		.loc 3 232 31 view .LVU44
 219 0008 D0E90423 		ldrd	r2, r3, [r0, #16]
 220 000c 17EE101A 		vmov	r1, s14	@ int
 230:eurorack/clouds/dsp/fx/fx_engine.h ****       float a = DataType<format>::Decompress(
 221              		.loc 3 230 7 view .LVU45
 222 0010 F8EEC77A 		vcvt.f32.s32	s15, s14
 232:eurorack/clouds/dsp/fx/fx_engine.h ****       float b = DataType<format>::Decompress(
 223              		.loc 3 232 31 view .LVU46
 224 0014 1944     		add	r1, r1, r3
 230:eurorack/clouds/dsp/fx/fx_engine.h ****       float a = DataType<format>::Decompress(
ARM GAS  /var/folders/9s/8rp0_f2s1n31qbztm3b5_fdh0000gn/T//ccAcUEVW.s 			page 14


 225              		.loc 3 230 7 view .LVU47
 226 0016 70EE677A 		vsub.f32	s15, s0, s15
 227              	.LVL16:
 232:eurorack/clouds/dsp/fx/fx_engine.h ****       float b = DataType<format>::Decompress(
 228              		.loc 3 232 31 view .LVU48
 229 001a 0B46     		mov	r3, r1
 230              	.LVL17:
 231              	.LBB891:
 232              	.LBI891:
  75:eurorack/clouds/dsp/fx/fx_engine.h ****     return static_cast<float>(static_cast<int16_t>(value)) / 32768.0f;
 233              		.loc 3 75 23 is_stmt 1 view .LVU49
 234              	.LBB892:
  76:eurorack/clouds/dsp/fx/fx_engine.h ****   }
 235              		.loc 3 76 5 view .LVU50
 236              	.LBE892:
 237              	.LBE891:
 232:eurorack/clouds/dsp/fx/fx_engine.h ****       float b = DataType<format>::Decompress(
 238              		.loc 3 232 60 is_stmt 0 view .LVU51
 239 001c C1F30B01 		ubfx	r1, r1, #0, #12
 240              	.LVL18:
 234:eurorack/clouds/dsp/fx/fx_engine.h ****       float x = a + (b - a) * offset_fractional;
 241              		.loc 3 234 59 view .LVU52
 242 0020 0133     		adds	r3, r3, #1
 243              	.LVL19:
 244              	.LBB896:
 245              	.LBB893:
  76:eurorack/clouds/dsp/fx/fx_engine.h ****   }
 246              		.loc 3 76 12 view .LVU53
 247 0022 32F91110 		ldrsh	r1, [r2, r1, lsl #1]
 248              	.LBE893:
 249              	.LBE896:
 234:eurorack/clouds/dsp/fx/fx_engine.h ****       float x = a + (b - a) * offset_fractional;
 250              		.loc 3 234 64 view .LVU54
 251 0026 C3F30B03 		ubfx	r3, r3, #0, #12
 252              	.LVL20:
 253              	.LBB897:
 254              	.LBB894:
  76:eurorack/clouds/dsp/fx/fx_engine.h ****   }
 255              		.loc 3 76 12 view .LVU55
 256 002a 07EE101A 		vmov	s14, r1	@ int
 257              	.LVL21:
  76:eurorack/clouds/dsp/fx/fx_engine.h ****   }
 258              		.loc 3 76 12 view .LVU56
 259              	.LBE894:
 260              	.LBE897:
 261              	.LBB898:
 262              	.LBB889:
 263 002e 32F91330 		ldrsh	r3, [r2, r3, lsl #1]
 264              	.LBE889:
 265              	.LBE898:
 266              	.LBB899:
 267              	.LBB895:
 268 0032 B8EEC77A 		vcvt.f32.s32	s14, s14
 269              	.LVL22:
  76:eurorack/clouds/dsp/fx/fx_engine.h ****   }
 270              		.loc 3 76 12 view .LVU57
 271              	.LBE895:
ARM GAS  /var/folders/9s/8rp0_f2s1n31qbztm3b5_fdh0000gn/T//ccAcUEVW.s 			page 15


 272              	.LBE899:
 273              	.LBB900:
 274              	.LBI887:
  75:eurorack/clouds/dsp/fx/fx_engine.h ****     return static_cast<float>(static_cast<int16_t>(value)) / 32768.0f;
 275              		.loc 3 75 23 is_stmt 1 view .LVU58
 276              	.LBB890:
  76:eurorack/clouds/dsp/fx/fx_engine.h ****   }
 277              		.loc 3 76 5 view .LVU59
  76:eurorack/clouds/dsp/fx/fx_engine.h ****   }
 278              		.loc 3 76 12 is_stmt 0 view .LVU60
 279 0036 00EE103A 		vmov	s0, r3	@ int
 280              	.LVL23:
  76:eurorack/clouds/dsp/fx/fx_engine.h ****   }
 281              		.loc 3 76 12 view .LVU61
 282 003a B8EEC00A 		vcvt.f32.s32	s0, s0
  76:eurorack/clouds/dsp/fx/fx_engine.h ****   }
 283              		.loc 3 76 62 view .LVU62
 284 003e 20EE260A 		vmul.f32	s0, s0, s13
 285              	.LBE890:
 286              	.LBE900:
 235:eurorack/clouds/dsp/fx/fx_engine.h ****       previous_read_ = x;
 287              		.loc 3 235 24 view .LVU63
 288 0042 A7EE660A 		vfms.f32	s0, s14, s13
 235:eurorack/clouds/dsp/fx/fx_engine.h ****       previous_read_ = x;
 289              		.loc 3 235 29 view .LVU64
 290 0046 27EE800A 		vmul.f32	s0, s15, s0
 237:eurorack/clouds/dsp/fx/fx_engine.h ****     }
 291              		.loc 3 237 20 view .LVU65
 292 004a D0ED007A 		vldr.32	s15, [r0]
 293              	.LVL24:
 235:eurorack/clouds/dsp/fx/fx_engine.h ****       previous_read_ = x;
 294              		.loc 3 235 13 view .LVU66
 295 004e A7EE260A 		vfma.f32	s0, s14, s13
 296              	.LVL25:
 237:eurorack/clouds/dsp/fx/fx_engine.h ****     }
 297              		.loc 3 237 20 view .LVU67
 298 0052 E0EE207A 		vfma.f32	s15, s0, s1
 236:eurorack/clouds/dsp/fx/fx_engine.h ****       accumulator_ += x * scale;
 299              		.loc 3 236 22 view .LVU68
 300 0056 80ED010A 		vstr.32	s0, [r0, #4]
 237:eurorack/clouds/dsp/fx/fx_engine.h ****     }
 301              		.loc 3 237 20 view .LVU69
 302 005a C0ED007A 		vstr.32	s15, [r0]
 303              		.loc 3 238 5 view .LVU70
 304 005e 7047     		bx	lr
 305              	.L10:
 306              		.align	2
 307              	.L9:
 308 0060 00000038 		.word	939524096
 309              		.cfi_endproc
 310              	.LFE2141:
 312              		.section	.text._ZN6stmlib3Svf4InitEv,"axG",%progbits,_ZN6stmlib3Svf4InitEv,comdat
 313              		.align	1
 314              		.weak	_ZN6stmlib3Svf4InitEv
 315              		.syntax unified
 316              		.thumb
 317              		.thumb_func
ARM GAS  /var/folders/9s/8rp0_f2s1n31qbztm3b5_fdh0000gn/T//ccAcUEVW.s 			page 16


 319              	_ZN6stmlib3Svf4InitEv:
 320              	.LVL26:
 321              	.LFB1427:
 322              		.file 4 "eurorack/stmlib/dsp/filter.h"
   1:eurorack/stmlib/dsp/filter.h **** // Copyright 2014 Emilie Gillet.
   2:eurorack/stmlib/dsp/filter.h **** //
   3:eurorack/stmlib/dsp/filter.h **** // Author: Emilie Gillet (emilie.o.gillet@gmail.com)
   4:eurorack/stmlib/dsp/filter.h **** //
   5:eurorack/stmlib/dsp/filter.h **** // Permission is hereby granted, free of charge, to any person obtaining a copy
   6:eurorack/stmlib/dsp/filter.h **** // of this software and associated documentation files (the "Software"), to deal
   7:eurorack/stmlib/dsp/filter.h **** // in the Software without restriction, including without limitation the rights
   8:eurorack/stmlib/dsp/filter.h **** // to use, copy, modify, merge, publish, distribute, sublicense, and/or sell
   9:eurorack/stmlib/dsp/filter.h **** // copies of the Software, and to permit persons to whom the Software is
  10:eurorack/stmlib/dsp/filter.h **** // furnished to do so, subject to the following conditions:
  11:eurorack/stmlib/dsp/filter.h **** // 
  12:eurorack/stmlib/dsp/filter.h **** // The above copyright notice and this permission notice shall be included in
  13:eurorack/stmlib/dsp/filter.h **** // all copies or substantial portions of the Software.
  14:eurorack/stmlib/dsp/filter.h **** // 
  15:eurorack/stmlib/dsp/filter.h **** // THE SOFTWARE IS PROVIDED "AS IS", WITHOUT WARRANTY OF ANY KIND, EXPRESS OR
  16:eurorack/stmlib/dsp/filter.h **** // IMPLIED, INCLUDING BUT NOT LIMITED TO THE WARRANTIES OF MERCHANTABILITY,
  17:eurorack/stmlib/dsp/filter.h **** // FITNESS FOR A PARTICULAR PURPOSE AND NONINFRINGEMENT. IN NO EVENT SHALL THE
  18:eurorack/stmlib/dsp/filter.h **** // AUTHORS OR COPYRIGHT HOLDERS BE LIABLE FOR ANY CLAIM, DAMAGES OR OTHER
  19:eurorack/stmlib/dsp/filter.h **** // LIABILITY, WHETHER IN AN ACTION OF CONTRACT, TORT OR OTHERWISE, ARISING FROM,
  20:eurorack/stmlib/dsp/filter.h **** // OUT OF OR IN CONNECTION WITH THE SOFTWARE OR THE USE OR OTHER DEALINGS IN
  21:eurorack/stmlib/dsp/filter.h **** // THE SOFTWARE.
  22:eurorack/stmlib/dsp/filter.h **** // 
  23:eurorack/stmlib/dsp/filter.h **** // See http://creativecommons.org/licenses/MIT/ for more information.
  24:eurorack/stmlib/dsp/filter.h **** //
  25:eurorack/stmlib/dsp/filter.h **** // -----------------------------------------------------------------------------
  26:eurorack/stmlib/dsp/filter.h **** //
  27:eurorack/stmlib/dsp/filter.h **** // Zero-delay-feedback filters (one pole and SVF).
  28:eurorack/stmlib/dsp/filter.h **** // Naive SVF.
  29:eurorack/stmlib/dsp/filter.h **** 
  30:eurorack/stmlib/dsp/filter.h **** #ifndef STMLIB_DSP_FILTER_H_
  31:eurorack/stmlib/dsp/filter.h **** #define STMLIB_DSP_FILTER_H_
  32:eurorack/stmlib/dsp/filter.h **** 
  33:eurorack/stmlib/dsp/filter.h **** #include "stmlib/stmlib.h"
  34:eurorack/stmlib/dsp/filter.h **** 
  35:eurorack/stmlib/dsp/filter.h **** #include <cmath>
  36:eurorack/stmlib/dsp/filter.h **** #include <algorithm>
  37:eurorack/stmlib/dsp/filter.h **** 
  38:eurorack/stmlib/dsp/filter.h **** namespace stmlib {
  39:eurorack/stmlib/dsp/filter.h **** 
  40:eurorack/stmlib/dsp/filter.h **** enum FilterMode {
  41:eurorack/stmlib/dsp/filter.h ****   FILTER_MODE_LOW_PASS,
  42:eurorack/stmlib/dsp/filter.h ****   FILTER_MODE_BAND_PASS,
  43:eurorack/stmlib/dsp/filter.h ****   FILTER_MODE_BAND_PASS_NORMALIZED,
  44:eurorack/stmlib/dsp/filter.h ****   FILTER_MODE_HIGH_PASS
  45:eurorack/stmlib/dsp/filter.h **** };
  46:eurorack/stmlib/dsp/filter.h **** 
  47:eurorack/stmlib/dsp/filter.h **** enum FrequencyApproximation {
  48:eurorack/stmlib/dsp/filter.h ****   FREQUENCY_EXACT,
  49:eurorack/stmlib/dsp/filter.h ****   FREQUENCY_ACCURATE,
  50:eurorack/stmlib/dsp/filter.h ****   FREQUENCY_FAST,
  51:eurorack/stmlib/dsp/filter.h ****   FREQUENCY_DIRTY
  52:eurorack/stmlib/dsp/filter.h **** };
  53:eurorack/stmlib/dsp/filter.h **** 
ARM GAS  /var/folders/9s/8rp0_f2s1n31qbztm3b5_fdh0000gn/T//ccAcUEVW.s 			page 17


  54:eurorack/stmlib/dsp/filter.h **** #define M_PI_F float(M_PI)
  55:eurorack/stmlib/dsp/filter.h **** #define M_PI_POW_2 M_PI * M_PI
  56:eurorack/stmlib/dsp/filter.h **** #define M_PI_POW_3 M_PI_POW_2 * M_PI
  57:eurorack/stmlib/dsp/filter.h **** #define M_PI_POW_5 M_PI_POW_3 * M_PI_POW_2
  58:eurorack/stmlib/dsp/filter.h **** #define M_PI_POW_7 M_PI_POW_5 * M_PI_POW_2
  59:eurorack/stmlib/dsp/filter.h **** #define M_PI_POW_9 M_PI_POW_7 * M_PI_POW_2
  60:eurorack/stmlib/dsp/filter.h **** #define M_PI_POW_11 M_PI_POW_9 * M_PI_POW_2
  61:eurorack/stmlib/dsp/filter.h **** 
  62:eurorack/stmlib/dsp/filter.h **** class DCBlocker {
  63:eurorack/stmlib/dsp/filter.h ****  public:
  64:eurorack/stmlib/dsp/filter.h ****   DCBlocker() { }
  65:eurorack/stmlib/dsp/filter.h ****   ~DCBlocker() { }
  66:eurorack/stmlib/dsp/filter.h ****   
  67:eurorack/stmlib/dsp/filter.h ****   void Init(float pole) {
  68:eurorack/stmlib/dsp/filter.h ****     x_ = 0.0f;
  69:eurorack/stmlib/dsp/filter.h ****     y_ = 0.0f;
  70:eurorack/stmlib/dsp/filter.h ****     pole_ = pole;
  71:eurorack/stmlib/dsp/filter.h ****   }
  72:eurorack/stmlib/dsp/filter.h ****   
  73:eurorack/stmlib/dsp/filter.h ****   inline void Process(float* in_out, size_t size) {
  74:eurorack/stmlib/dsp/filter.h ****     float x = x_;
  75:eurorack/stmlib/dsp/filter.h ****     float y = y_;
  76:eurorack/stmlib/dsp/filter.h ****     const float pole = pole_;
  77:eurorack/stmlib/dsp/filter.h ****     while (size--) {
  78:eurorack/stmlib/dsp/filter.h ****       float old_x = x;
  79:eurorack/stmlib/dsp/filter.h ****       x = *in_out;
  80:eurorack/stmlib/dsp/filter.h ****       *in_out++ = y = y * pole + x - old_x;
  81:eurorack/stmlib/dsp/filter.h ****     }
  82:eurorack/stmlib/dsp/filter.h ****     x_ = x;
  83:eurorack/stmlib/dsp/filter.h ****     y_ = y;
  84:eurorack/stmlib/dsp/filter.h ****   }
  85:eurorack/stmlib/dsp/filter.h ****   
  86:eurorack/stmlib/dsp/filter.h ****  private:
  87:eurorack/stmlib/dsp/filter.h ****   float pole_;
  88:eurorack/stmlib/dsp/filter.h ****   float x_;
  89:eurorack/stmlib/dsp/filter.h ****   float y_;
  90:eurorack/stmlib/dsp/filter.h **** };
  91:eurorack/stmlib/dsp/filter.h **** 
  92:eurorack/stmlib/dsp/filter.h **** class OnePole {
  93:eurorack/stmlib/dsp/filter.h ****  public:
  94:eurorack/stmlib/dsp/filter.h ****   OnePole() { }
  95:eurorack/stmlib/dsp/filter.h ****   ~OnePole() { }
  96:eurorack/stmlib/dsp/filter.h ****   
  97:eurorack/stmlib/dsp/filter.h ****   void Init() {
  98:eurorack/stmlib/dsp/filter.h ****     set_f<FREQUENCY_DIRTY>(0.01f);
  99:eurorack/stmlib/dsp/filter.h ****     Reset();
 100:eurorack/stmlib/dsp/filter.h ****   }
 101:eurorack/stmlib/dsp/filter.h ****   
 102:eurorack/stmlib/dsp/filter.h ****   void Reset() {
 103:eurorack/stmlib/dsp/filter.h ****     state_ = 0.0f;
 104:eurorack/stmlib/dsp/filter.h ****   }
 105:eurorack/stmlib/dsp/filter.h ****   
 106:eurorack/stmlib/dsp/filter.h ****   template<FrequencyApproximation approximation>
 107:eurorack/stmlib/dsp/filter.h ****   static inline float tan(float f) {
 108:eurorack/stmlib/dsp/filter.h ****     if (approximation == FREQUENCY_EXACT) {
 109:eurorack/stmlib/dsp/filter.h ****       // Clip coefficient to about 100.
 110:eurorack/stmlib/dsp/filter.h ****       f = f < 0.497f ? f : 0.497f;
ARM GAS  /var/folders/9s/8rp0_f2s1n31qbztm3b5_fdh0000gn/T//ccAcUEVW.s 			page 18


 111:eurorack/stmlib/dsp/filter.h ****       return tanf(M_PI_F * f);
 112:eurorack/stmlib/dsp/filter.h ****     } else if (approximation == FREQUENCY_DIRTY) {
 113:eurorack/stmlib/dsp/filter.h ****       // Optimized for frequencies below 8kHz.
 114:eurorack/stmlib/dsp/filter.h ****       const float a = 3.736e-01f * M_PI_POW_3;
 115:eurorack/stmlib/dsp/filter.h ****       return f * (M_PI_F + a * f * f);
 116:eurorack/stmlib/dsp/filter.h ****     } else if (approximation == FREQUENCY_FAST) {
 117:eurorack/stmlib/dsp/filter.h ****       // The usual tangent approximation uses 3.1755e-01 and 2.033e-01, but
 118:eurorack/stmlib/dsp/filter.h ****       // the coefficients used here are optimized to minimize error for the
 119:eurorack/stmlib/dsp/filter.h ****       // 16Hz to 16kHz range, with a sample rate of 48kHz.
 120:eurorack/stmlib/dsp/filter.h ****       const float a = 3.260e-01f * M_PI_POW_3;
 121:eurorack/stmlib/dsp/filter.h ****       const float b = 1.823e-01f * M_PI_POW_5;
 122:eurorack/stmlib/dsp/filter.h ****       float f2 = f * f;
 123:eurorack/stmlib/dsp/filter.h ****       return f * (M_PI_F + f2 * (a + b * f2));
 124:eurorack/stmlib/dsp/filter.h ****     } else if (approximation == FREQUENCY_ACCURATE) {
 125:eurorack/stmlib/dsp/filter.h ****       // These coefficients don't need to be tweaked for the audio range.
 126:eurorack/stmlib/dsp/filter.h ****       const float a = 3.333314036e-01f * M_PI_POW_3;
 127:eurorack/stmlib/dsp/filter.h ****       const float b = 1.333923995e-01f * M_PI_POW_5;
 128:eurorack/stmlib/dsp/filter.h ****       const float c = 5.33740603e-02f * M_PI_POW_7;
 129:eurorack/stmlib/dsp/filter.h ****       const float d = 2.900525e-03f * M_PI_POW_9;
 130:eurorack/stmlib/dsp/filter.h ****       const float e = 9.5168091e-03f * M_PI_POW_11;
 131:eurorack/stmlib/dsp/filter.h ****       float f2 = f * f;
 132:eurorack/stmlib/dsp/filter.h ****       return f * (M_PI_F + f2 * (a + f2 * (b + f2 * (c + f2 * (d + f2 * e)))));
 133:eurorack/stmlib/dsp/filter.h ****     }
 134:eurorack/stmlib/dsp/filter.h ****   }
 135:eurorack/stmlib/dsp/filter.h ****   
 136:eurorack/stmlib/dsp/filter.h ****   // Set frequency and resonance from true units. Various approximations
 137:eurorack/stmlib/dsp/filter.h ****   // are available to avoid the cost of tanf.
 138:eurorack/stmlib/dsp/filter.h ****   template<FrequencyApproximation approximation>
 139:eurorack/stmlib/dsp/filter.h ****   inline void set_f(float f) {
 140:eurorack/stmlib/dsp/filter.h ****     g_ = tan<approximation>(f);
 141:eurorack/stmlib/dsp/filter.h ****     gi_ = 1.0f / (1.0f + g_);
 142:eurorack/stmlib/dsp/filter.h ****   }
 143:eurorack/stmlib/dsp/filter.h ****   
 144:eurorack/stmlib/dsp/filter.h ****   template<FilterMode mode>
 145:eurorack/stmlib/dsp/filter.h ****   inline float Process(float in) {
 146:eurorack/stmlib/dsp/filter.h ****     float lp;
 147:eurorack/stmlib/dsp/filter.h ****     lp = (g_ * in + state_) * gi_;
 148:eurorack/stmlib/dsp/filter.h ****     state_ = g_ * (in - lp) + lp;
 149:eurorack/stmlib/dsp/filter.h **** 
 150:eurorack/stmlib/dsp/filter.h ****     if (mode == FILTER_MODE_LOW_PASS) {
 151:eurorack/stmlib/dsp/filter.h ****       return lp;
 152:eurorack/stmlib/dsp/filter.h ****     } else if (mode == FILTER_MODE_HIGH_PASS) {
 153:eurorack/stmlib/dsp/filter.h ****       return in - lp;
 154:eurorack/stmlib/dsp/filter.h ****     } else {
 155:eurorack/stmlib/dsp/filter.h ****       return 0.0f;
 156:eurorack/stmlib/dsp/filter.h ****     }
 157:eurorack/stmlib/dsp/filter.h ****   }
 158:eurorack/stmlib/dsp/filter.h ****   
 159:eurorack/stmlib/dsp/filter.h ****   template<FilterMode mode>
 160:eurorack/stmlib/dsp/filter.h ****   inline void Process(float* in_out, size_t size) {
 161:eurorack/stmlib/dsp/filter.h ****     while (size--) {
 162:eurorack/stmlib/dsp/filter.h ****       *in_out = Process<mode>(*in_out);
 163:eurorack/stmlib/dsp/filter.h ****       ++in_out;
 164:eurorack/stmlib/dsp/filter.h ****     }
 165:eurorack/stmlib/dsp/filter.h ****   }
 166:eurorack/stmlib/dsp/filter.h ****   
 167:eurorack/stmlib/dsp/filter.h ****  private:
ARM GAS  /var/folders/9s/8rp0_f2s1n31qbztm3b5_fdh0000gn/T//ccAcUEVW.s 			page 19


 168:eurorack/stmlib/dsp/filter.h ****   float g_;
 169:eurorack/stmlib/dsp/filter.h ****   float gi_;
 170:eurorack/stmlib/dsp/filter.h ****   float state_;
 171:eurorack/stmlib/dsp/filter.h ****   
 172:eurorack/stmlib/dsp/filter.h ****   DISALLOW_COPY_AND_ASSIGN(OnePole);
 173:eurorack/stmlib/dsp/filter.h **** };
 174:eurorack/stmlib/dsp/filter.h **** 
 175:eurorack/stmlib/dsp/filter.h **** 
 176:eurorack/stmlib/dsp/filter.h **** 
 177:eurorack/stmlib/dsp/filter.h **** class Svf {
 178:eurorack/stmlib/dsp/filter.h ****  public:
 179:eurorack/stmlib/dsp/filter.h ****   Svf() { }
 180:eurorack/stmlib/dsp/filter.h ****   ~Svf() { }
 181:eurorack/stmlib/dsp/filter.h ****   
 182:eurorack/stmlib/dsp/filter.h ****   void Init() {
 323              		.loc 4 182 8 is_stmt 1 view -0
 324              		.cfi_startproc
 325              		@ args = 0, pretend = 0, frame = 0
 326              		@ frame_needed = 0, uses_anonymous_args = 0
 327              		@ link register save eliminated.
 183:eurorack/stmlib/dsp/filter.h ****     set_f_q<FREQUENCY_DIRTY>(0.01f, 100.0f);
 328              		.loc 4 183 5 view .LVU72
 329              	.LBB908:
 330              	.LBI908:
 184:eurorack/stmlib/dsp/filter.h ****     Reset();
 185:eurorack/stmlib/dsp/filter.h ****   }
 186:eurorack/stmlib/dsp/filter.h ****   
 187:eurorack/stmlib/dsp/filter.h ****   void Reset() {
 188:eurorack/stmlib/dsp/filter.h ****     state_1_ = state_2_ = 0.0f;
 189:eurorack/stmlib/dsp/filter.h ****   }
 190:eurorack/stmlib/dsp/filter.h ****   
 191:eurorack/stmlib/dsp/filter.h ****   // Copy settings from another filter.
 192:eurorack/stmlib/dsp/filter.h ****   inline void set(const Svf& f) {
 193:eurorack/stmlib/dsp/filter.h ****     g_ = f.g();
 194:eurorack/stmlib/dsp/filter.h ****     r_ = f.r();
 195:eurorack/stmlib/dsp/filter.h ****     h_ = f.h();
 196:eurorack/stmlib/dsp/filter.h ****   }
 197:eurorack/stmlib/dsp/filter.h **** 
 198:eurorack/stmlib/dsp/filter.h ****   // Set all parameters from LUT.
 199:eurorack/stmlib/dsp/filter.h ****   inline void set_g_r_h(float g, float r, float h) {
 200:eurorack/stmlib/dsp/filter.h ****     g_ = g;
 201:eurorack/stmlib/dsp/filter.h ****     r_ = r;
 202:eurorack/stmlib/dsp/filter.h ****     h_ = h;
 203:eurorack/stmlib/dsp/filter.h ****   }
 204:eurorack/stmlib/dsp/filter.h ****   
 205:eurorack/stmlib/dsp/filter.h ****   // Set frequency and resonance coefficients from LUT, adjust remaining
 206:eurorack/stmlib/dsp/filter.h ****   // parameter.
 207:eurorack/stmlib/dsp/filter.h ****   inline void set_g_r(float g, float r) {
 208:eurorack/stmlib/dsp/filter.h ****     g_ = g;
 209:eurorack/stmlib/dsp/filter.h ****     r_ = r;
 210:eurorack/stmlib/dsp/filter.h ****     h_ = 1.0f / (1.0f + r_ * g_ + g_ * g_);
 211:eurorack/stmlib/dsp/filter.h ****   }
 212:eurorack/stmlib/dsp/filter.h **** 
 213:eurorack/stmlib/dsp/filter.h ****   // Set frequency from LUT, resonance in true units, adjust the rest.
 214:eurorack/stmlib/dsp/filter.h ****   inline void set_g_q(float g, float resonance) {
 215:eurorack/stmlib/dsp/filter.h ****     g_ = g;
 216:eurorack/stmlib/dsp/filter.h ****     r_ = 1.0f / resonance;
ARM GAS  /var/folders/9s/8rp0_f2s1n31qbztm3b5_fdh0000gn/T//ccAcUEVW.s 			page 20


 217:eurorack/stmlib/dsp/filter.h ****     h_ = 1.0f / (1.0f + r_ * g_ + g_ * g_);
 218:eurorack/stmlib/dsp/filter.h ****   }
 219:eurorack/stmlib/dsp/filter.h **** 
 220:eurorack/stmlib/dsp/filter.h ****   // Set frequency and resonance from true units. Various approximations
 221:eurorack/stmlib/dsp/filter.h ****   // are available to avoid the cost of tanf.
 222:eurorack/stmlib/dsp/filter.h ****   template<FrequencyApproximation approximation>
 223:eurorack/stmlib/dsp/filter.h ****   inline void set_f_q(float f, float resonance) {
 331              		.loc 4 223 15 view .LVU73
 332              	.LBB909:
 224:eurorack/stmlib/dsp/filter.h ****     g_ = OnePole::tan<approximation>(f);
 333              		.loc 4 224 8 is_stmt 0 view .LVU74
 334 0000 044B     		ldr	r3, .L12
 335 0002 0360     		str	r3, [r0]	@ float
 225:eurorack/stmlib/dsp/filter.h ****     r_ = 1.0f / resonance;
 336              		.loc 4 225 8 view .LVU75
 337 0004 044B     		ldr	r3, .L12+4
 338 0006 4360     		str	r3, [r0, #4]	@ float
 226:eurorack/stmlib/dsp/filter.h ****     h_ = 1.0f / (1.0f + r_ * g_ + g_ * g_);
 339              		.loc 4 226 8 view .LVU76
 340 0008 044B     		ldr	r3, .L12+8
 341 000a 8360     		str	r3, [r0, #8]	@ float
 342              	.LVL27:
 343              		.loc 4 226 8 view .LVU77
 344              	.LBE909:
 345              	.LBE908:
 184:eurorack/stmlib/dsp/filter.h ****   }
 346              		.loc 4 184 5 is_stmt 1 view .LVU78
 347              	.LBB910:
 348              	.LBI910:
 187:eurorack/stmlib/dsp/filter.h ****     state_1_ = state_2_ = 0.0f;
 349              		.loc 4 187 8 view .LVU79
 350              	.LBB911:
 188:eurorack/stmlib/dsp/filter.h ****   }
 351              		.loc 4 188 5 view .LVU80
 188:eurorack/stmlib/dsp/filter.h ****   }
 352              		.loc 4 188 25 is_stmt 0 view .LVU81
 353 000c 0023     		movs	r3, #0
 354 000e 0361     		str	r3, [r0, #16]	@ float
 188:eurorack/stmlib/dsp/filter.h ****   }
 355              		.loc 4 188 14 view .LVU82
 356 0010 C360     		str	r3, [r0, #12]	@ float
 357              	.LVL28:
 188:eurorack/stmlib/dsp/filter.h ****   }
 358              		.loc 4 188 14 view .LVU83
 359              	.LBE911:
 360              	.LBE910:
 185:eurorack/stmlib/dsp/filter.h ****   
 361              		.loc 4 185 3 view .LVU84
 362 0012 7047     		bx	lr
 363              	.L13:
 364              		.align	2
 365              	.L12:
 366 0014 22BA003D 		.word	1023457826
 367 0018 0AD7233C 		.word	1008981770
 368 001c CAAA7F3F 		.word	1065331402
 369              		.cfi_endproc
 370              	.LFE1427:
ARM GAS  /var/folders/9s/8rp0_f2s1n31qbztm3b5_fdh0000gn/T//ccAcUEVW.s 			page 21


 372              		.section	.text._ZN6stmlib11InterpolateEPKfff,"axG",%progbits,_ZN6stmlib11InterpolateEPKfff,comdat
 373              		.align	1
 374              		.weak	_ZN6stmlib11InterpolateEPKfff
 375              		.syntax unified
 376              		.thumb
 377              		.thumb_func
 379              	_ZN6stmlib11InterpolateEPKfff:
 380              	.LVL29:
 381              	.LFB1494:
 382              		.file 5 "eurorack/stmlib/dsp/dsp.h"
   1:eurorack/stmlib/dsp/dsp.h **** // Copyright 2012 Emilie Gillet.
   2:eurorack/stmlib/dsp/dsp.h **** //
   3:eurorack/stmlib/dsp/dsp.h **** // Author: Emilie Gillet (emilie.o.gillet@gmail.com)
   4:eurorack/stmlib/dsp/dsp.h **** //
   5:eurorack/stmlib/dsp/dsp.h **** // Permission is hereby granted, free of charge, to any person obtaining a copy
   6:eurorack/stmlib/dsp/dsp.h **** // of this software and associated documentation files (the "Software"), to deal
   7:eurorack/stmlib/dsp/dsp.h **** // in the Software without restriction, including without limitation the rights
   8:eurorack/stmlib/dsp/dsp.h **** // to use, copy, modify, merge, publish, distribute, sublicense, and/or sell
   9:eurorack/stmlib/dsp/dsp.h **** // copies of the Software, and to permit persons to whom the Software is
  10:eurorack/stmlib/dsp/dsp.h **** // furnished to do so, subject to the following conditions:
  11:eurorack/stmlib/dsp/dsp.h **** // 
  12:eurorack/stmlib/dsp/dsp.h **** // The above copyright notice and this permission notice shall be included in
  13:eurorack/stmlib/dsp/dsp.h **** // all copies or substantial portions of the Software.
  14:eurorack/stmlib/dsp/dsp.h **** // 
  15:eurorack/stmlib/dsp/dsp.h **** // THE SOFTWARE IS PROVIDED "AS IS", WITHOUT WARRANTY OF ANY KIND, EXPRESS OR
  16:eurorack/stmlib/dsp/dsp.h **** // IMPLIED, INCLUDING BUT NOT LIMITED TO THE WARRANTIES OF MERCHANTABILITY,
  17:eurorack/stmlib/dsp/dsp.h **** // FITNESS FOR A PARTICULAR PURPOSE AND NONINFRINGEMENT. IN NO EVENT SHALL THE
  18:eurorack/stmlib/dsp/dsp.h **** // AUTHORS OR COPYRIGHT HOLDERS BE LIABLE FOR ANY CLAIM, DAMAGES OR OTHER
  19:eurorack/stmlib/dsp/dsp.h **** // LIABILITY, WHETHER IN AN ACTION OF CONTRACT, TORT OR OTHERWISE, ARISING FROM,
  20:eurorack/stmlib/dsp/dsp.h **** // OUT OF OR IN CONNECTION WITH THE SOFTWARE OR THE USE OR OTHER DEALINGS IN
  21:eurorack/stmlib/dsp/dsp.h **** // THE SOFTWARE.
  22:eurorack/stmlib/dsp/dsp.h **** // 
  23:eurorack/stmlib/dsp/dsp.h **** // See http://creativecommons.org/licenses/MIT/ for more information.
  24:eurorack/stmlib/dsp/dsp.h **** //
  25:eurorack/stmlib/dsp/dsp.h **** // -----------------------------------------------------------------------------
  26:eurorack/stmlib/dsp/dsp.h **** //
  27:eurorack/stmlib/dsp/dsp.h **** // DSP utility routines.
  28:eurorack/stmlib/dsp/dsp.h **** 
  29:eurorack/stmlib/dsp/dsp.h **** #ifndef STMLIB_UTILS_DSP_DSP_H_
  30:eurorack/stmlib/dsp/dsp.h **** #define STMLIB_UTILS_DSP_DSP_H_
  31:eurorack/stmlib/dsp/dsp.h **** 
  32:eurorack/stmlib/dsp/dsp.h **** #include "stmlib/stmlib.h"
  33:eurorack/stmlib/dsp/dsp.h **** 
  34:eurorack/stmlib/dsp/dsp.h **** #include <cmath>
  35:eurorack/stmlib/dsp/dsp.h **** #include <math.h>
  36:eurorack/stmlib/dsp/dsp.h **** 
  37:eurorack/stmlib/dsp/dsp.h **** namespace stmlib {
  38:eurorack/stmlib/dsp/dsp.h **** 
  39:eurorack/stmlib/dsp/dsp.h **** #define MAKE_INTEGRAL_FRACTIONAL(x) \
  40:eurorack/stmlib/dsp/dsp.h ****   int32_t x ## _integral = static_cast<int32_t>(x); \
  41:eurorack/stmlib/dsp/dsp.h ****   float x ## _fractional = x - static_cast<float>(x ## _integral);
  42:eurorack/stmlib/dsp/dsp.h **** 
  43:eurorack/stmlib/dsp/dsp.h **** inline float Interpolate(const float* table, float index, float size) {
 383              		.loc 5 43 71 is_stmt 1 view -0
 384              		.cfi_startproc
 385              		@ args = 0, pretend = 0, frame = 0
 386              		@ frame_needed = 0, uses_anonymous_args = 0
ARM GAS  /var/folders/9s/8rp0_f2s1n31qbztm3b5_fdh0000gn/T//ccAcUEVW.s 			page 22


 387              		@ link register save eliminated.
  44:eurorack/stmlib/dsp/dsp.h ****   index *= size;
 388              		.loc 5 44 3 view .LVU86
 389              		.loc 5 44 9 is_stmt 0 view .LVU87
 390 0000 60EE200A 		vmul.f32	s1, s0, s1
 391              	.LVL30:
  45:eurorack/stmlib/dsp/dsp.h ****   MAKE_INTEGRAL_FRACTIONAL(index)
 392              		.loc 5 45 3 is_stmt 1 view .LVU88
 393 0004 FDEEE07A 		vcvt.s32.f32	s15, s1
 394              	.LVL31:
 395              		.loc 5 45 3 view .LVU89
  46:eurorack/stmlib/dsp/dsp.h ****   float a = table[index_integral];
 396              		.loc 5 46 3 view .LVU90
 397              		.loc 5 46 9 is_stmt 0 view .LVU91
 398 0008 17EE903A 		vmov	r3, s15	@ int
  45:eurorack/stmlib/dsp/dsp.h ****   MAKE_INTEGRAL_FRACTIONAL(index)
 399              		.loc 5 45 3 view .LVU92
 400 000c F8EEE77A 		vcvt.f32.s32	s15, s15
 401              	.LVL32:
 402              		.loc 5 46 9 view .LVU93
 403 0010 00EB8300 		add	r0, r0, r3, lsl #2
 404              	.LVL33:
  45:eurorack/stmlib/dsp/dsp.h ****   MAKE_INTEGRAL_FRACTIONAL(index)
 405              		.loc 5 45 3 view .LVU94
 406 0014 70EEE70A 		vsub.f32	s1, s1, s15
 407              	.LVL34:
 408              		.loc 5 46 9 view .LVU95
 409 0018 90ED000A 		vldr.32	s0, [r0]
 410              	.LVL35:
  47:eurorack/stmlib/dsp/dsp.h ****   float b = table[index_integral + 1];
 411              		.loc 5 47 3 is_stmt 1 view .LVU96
  48:eurorack/stmlib/dsp/dsp.h ****   return a + (b - a) * index_fractional;
 412              		.loc 5 48 3 view .LVU97
 413              		.loc 5 48 17 is_stmt 0 view .LVU98
 414 001c 90ED017A 		vldr.32	s14, [r0, #4]
 415 0020 37EE407A 		vsub.f32	s14, s14, s0
  49:eurorack/stmlib/dsp/dsp.h **** }
 416              		.loc 5 49 1 view .LVU99
 417 0024 A7EE200A 		vfma.f32	s0, s14, s1
 418              	.LVL36:
 419              		.loc 5 49 1 view .LVU100
 420 0028 7047     		bx	lr
 421              		.cfi_endproc
 422              	.LFE1494:
 424              		.section	.text._ZN6stmlib9SoftLimitEf,"axG",%progbits,_ZN6stmlib9SoftLimitEf,comdat
 425              		.align	1
 426              		.weak	_ZN6stmlib9SoftLimitEf
 427              		.syntax unified
 428              		.thumb
 429              		.thumb_func
 431              	_ZN6stmlib9SoftLimitEf:
 432              	.LVL37:
 433              	.LFB1499:
  50:eurorack/stmlib/dsp/dsp.h **** 
  51:eurorack/stmlib/dsp/dsp.h **** 
  52:eurorack/stmlib/dsp/dsp.h **** inline float InterpolateHermite(const float* table, float index, float size) {
  53:eurorack/stmlib/dsp/dsp.h ****   index *= size;
ARM GAS  /var/folders/9s/8rp0_f2s1n31qbztm3b5_fdh0000gn/T//ccAcUEVW.s 			page 23


  54:eurorack/stmlib/dsp/dsp.h ****   MAKE_INTEGRAL_FRACTIONAL(index)
  55:eurorack/stmlib/dsp/dsp.h ****   const float xm1 = table[index_integral - 1];
  56:eurorack/stmlib/dsp/dsp.h ****   const float x0 = table[index_integral + 0];
  57:eurorack/stmlib/dsp/dsp.h ****   const float x1 = table[index_integral + 1];
  58:eurorack/stmlib/dsp/dsp.h ****   const float x2 = table[index_integral + 2];
  59:eurorack/stmlib/dsp/dsp.h ****   const float c = (x1 - xm1) * 0.5f;
  60:eurorack/stmlib/dsp/dsp.h ****   const float v = x0 - x1;
  61:eurorack/stmlib/dsp/dsp.h ****   const float w = c + v;
  62:eurorack/stmlib/dsp/dsp.h ****   const float a = w + v + (x2 - x0) * 0.5f;
  63:eurorack/stmlib/dsp/dsp.h ****   const float b_neg = w + a;
  64:eurorack/stmlib/dsp/dsp.h ****   const float f = index_fractional;
  65:eurorack/stmlib/dsp/dsp.h ****   return (((a * f) - b_neg) * f + c) * f + x0;
  66:eurorack/stmlib/dsp/dsp.h **** }
  67:eurorack/stmlib/dsp/dsp.h **** 
  68:eurorack/stmlib/dsp/dsp.h **** inline float InterpolateWrap(const float* table, float index, float size) {
  69:eurorack/stmlib/dsp/dsp.h ****   index -= static_cast<float>(static_cast<int32_t>(index));
  70:eurorack/stmlib/dsp/dsp.h ****   index *= size;
  71:eurorack/stmlib/dsp/dsp.h ****   MAKE_INTEGRAL_FRACTIONAL(index)
  72:eurorack/stmlib/dsp/dsp.h ****   float a = table[index_integral];
  73:eurorack/stmlib/dsp/dsp.h ****   float b = table[index_integral + 1];
  74:eurorack/stmlib/dsp/dsp.h ****   return a + (b - a) * index_fractional;
  75:eurorack/stmlib/dsp/dsp.h **** }
  76:eurorack/stmlib/dsp/dsp.h **** 
  77:eurorack/stmlib/dsp/dsp.h **** inline float SmoothStep(float value) {
  78:eurorack/stmlib/dsp/dsp.h ****   return value * value * (3.0f - 2.0f * value);
  79:eurorack/stmlib/dsp/dsp.h **** }
  80:eurorack/stmlib/dsp/dsp.h **** 
  81:eurorack/stmlib/dsp/dsp.h **** #define ONE_POLE(out, in, coefficient) out += (coefficient) * ((in) - out);
  82:eurorack/stmlib/dsp/dsp.h **** #define SLOPE(out, in, positive, negative) { \
  83:eurorack/stmlib/dsp/dsp.h ****   float error = (in) - out; \
  84:eurorack/stmlib/dsp/dsp.h ****   out += (error > 0 ? positive : negative) * error; \
  85:eurorack/stmlib/dsp/dsp.h **** }
  86:eurorack/stmlib/dsp/dsp.h **** #define SLEW(out, in, delta) { \
  87:eurorack/stmlib/dsp/dsp.h ****   float error = (in) - out; \
  88:eurorack/stmlib/dsp/dsp.h ****   float d = (delta); \
  89:eurorack/stmlib/dsp/dsp.h ****   if (error > d) { \
  90:eurorack/stmlib/dsp/dsp.h ****     error = d; \
  91:eurorack/stmlib/dsp/dsp.h ****   } else if (error < -d) { \
  92:eurorack/stmlib/dsp/dsp.h ****     error = -d; \
  93:eurorack/stmlib/dsp/dsp.h ****   } \
  94:eurorack/stmlib/dsp/dsp.h ****   out += error; \
  95:eurorack/stmlib/dsp/dsp.h **** }
  96:eurorack/stmlib/dsp/dsp.h **** 
  97:eurorack/stmlib/dsp/dsp.h **** inline float Crossfade(float a, float b, float fade) {
  98:eurorack/stmlib/dsp/dsp.h ****   return a + (b - a) * fade;
  99:eurorack/stmlib/dsp/dsp.h **** }
 100:eurorack/stmlib/dsp/dsp.h **** 
 101:eurorack/stmlib/dsp/dsp.h **** inline float SoftLimit(float x) {
 434              		.loc 5 101 33 is_stmt 1 view -0
 435              		.cfi_startproc
 436              		@ args = 0, pretend = 0, frame = 0
 437              		@ frame_needed = 0, uses_anonymous_args = 0
 438              		@ link register save eliminated.
 102:eurorack/stmlib/dsp/dsp.h ****   return x * (27.0f + x * x) / (27.0f + 9.0f * x * x);
 439              		.loc 5 102 3 view .LVU102
 440              		.loc 5 102 21 is_stmt 0 view .LVU103
 441 0000 F3EE0B7A 		vmov.f32	s15, #2.7e+1
ARM GAS  /var/folders/9s/8rp0_f2s1n31qbztm3b5_fdh0000gn/T//ccAcUEVW.s 			page 24


 442              		.loc 5 102 46 view .LVU104
 443 0004 F2EE026A 		vmov.f32	s13, #9.0e+0
 444              		.loc 5 102 21 view .LVU105
 445 0008 B0EE677A 		vmov.f32	s14, s15
 446              		.loc 5 102 46 view .LVU106
 447 000c 60EE266A 		vmul.f32	s13, s0, s13
 448              		.loc 5 102 21 view .LVU107
 449 0010 A0EE007A 		vfma.f32	s14, s0, s0
 450              		.loc 5 102 39 view .LVU108
 451 0014 E6EE807A 		vfma.f32	s15, s13, s0
 452              		.loc 5 102 12 view .LVU109
 453 0018 27EE007A 		vmul.f32	s14, s14, s0
 103:eurorack/stmlib/dsp/dsp.h **** }
 454              		.loc 5 103 1 view .LVU110
 455 001c 87EE270A 		vdiv.f32	s0, s14, s15
 456              	.LVL38:
 457              		.loc 5 103 1 view .LVU111
 458 0020 7047     		bx	lr
 459              		.cfi_endproc
 460              	.LFE1499:
 462              		.section	.text._ZN6stmlib16CosineOscillator4NextEv,"axG",%progbits,_ZN6stmlib16CosineOscillator4Ne
 463              		.align	1
 464              		.weak	_ZN6stmlib16CosineOscillator4NextEv
 465              		.syntax unified
 466              		.thumb
 467              		.thumb_func
 469              	_ZN6stmlib16CosineOscillator4NextEv:
 470              	.LVL39:
 471              	.LFB1515:
 472              		.file 6 "eurorack/stmlib/dsp/cosine_oscillator.h"
   1:eurorack/stmlib/dsp/cosine_oscillator.h **** // Copyright 2014 Emilie Gillet.
   2:eurorack/stmlib/dsp/cosine_oscillator.h **** //
   3:eurorack/stmlib/dsp/cosine_oscillator.h **** // Author: Emilie Gillet (emilie.o.gillet@gmail.com)
   4:eurorack/stmlib/dsp/cosine_oscillator.h **** //
   5:eurorack/stmlib/dsp/cosine_oscillator.h **** // Permission is hereby granted, free of charge, to any person obtaining a copy
   6:eurorack/stmlib/dsp/cosine_oscillator.h **** // of this software and associated documentation files (the "Software"), to deal
   7:eurorack/stmlib/dsp/cosine_oscillator.h **** // in the Software without restriction, including without limitation the rights
   8:eurorack/stmlib/dsp/cosine_oscillator.h **** // to use, copy, modify, merge, publish, distribute, sublicense, and/or sell
   9:eurorack/stmlib/dsp/cosine_oscillator.h **** // copies of the Software, and to permit persons to whom the Software is
  10:eurorack/stmlib/dsp/cosine_oscillator.h **** // furnished to do so, subject to the following conditions:
  11:eurorack/stmlib/dsp/cosine_oscillator.h **** // 
  12:eurorack/stmlib/dsp/cosine_oscillator.h **** // The above copyright notice and this permission notice shall be included in
  13:eurorack/stmlib/dsp/cosine_oscillator.h **** // all copies or substantial portions of the Software.
  14:eurorack/stmlib/dsp/cosine_oscillator.h **** // 
  15:eurorack/stmlib/dsp/cosine_oscillator.h **** // THE SOFTWARE IS PROVIDED "AS IS", WITHOUT WARRANTY OF ANY KIND, EXPRESS OR
  16:eurorack/stmlib/dsp/cosine_oscillator.h **** // IMPLIED, INCLUDING BUT NOT LIMITED TO THE WARRANTIES OF MERCHANTABILITY,
  17:eurorack/stmlib/dsp/cosine_oscillator.h **** // FITNESS FOR A PARTICULAR PURPOSE AND NONINFRINGEMENT. IN NO EVENT SHALL THE
  18:eurorack/stmlib/dsp/cosine_oscillator.h **** // AUTHORS OR COPYRIGHT HOLDERS BE LIABLE FOR ANY CLAIM, DAMAGES OR OTHER
  19:eurorack/stmlib/dsp/cosine_oscillator.h **** // LIABILITY, WHETHER IN AN ACTION OF CONTRACT, TORT OR OTHERWISE, ARISING FROM,
  20:eurorack/stmlib/dsp/cosine_oscillator.h **** // OUT OF OR IN CONNECTION WITH THE SOFTWARE OR THE USE OR OTHER DEALINGS IN
  21:eurorack/stmlib/dsp/cosine_oscillator.h **** // THE SOFTWARE.
  22:eurorack/stmlib/dsp/cosine_oscillator.h **** // 
  23:eurorack/stmlib/dsp/cosine_oscillator.h **** // See http://creativecommons.org/licenses/MIT/ for more information.
  24:eurorack/stmlib/dsp/cosine_oscillator.h **** //
  25:eurorack/stmlib/dsp/cosine_oscillator.h **** // -----------------------------------------------------------------------------
  26:eurorack/stmlib/dsp/cosine_oscillator.h **** //
  27:eurorack/stmlib/dsp/cosine_oscillator.h **** // Cosine oscillator. Generates a cosine between 0.0 and 1.0 with minimal
ARM GAS  /var/folders/9s/8rp0_f2s1n31qbztm3b5_fdh0000gn/T//ccAcUEVW.s 			page 25


  28:eurorack/stmlib/dsp/cosine_oscillator.h **** // CPU use.
  29:eurorack/stmlib/dsp/cosine_oscillator.h **** 
  30:eurorack/stmlib/dsp/cosine_oscillator.h **** #ifndef STMLIB_DSP_COSINE_OSCILLATOR_H_
  31:eurorack/stmlib/dsp/cosine_oscillator.h **** #define STMLIB_DSP_COSINE_OSCILLATOR_H_
  32:eurorack/stmlib/dsp/cosine_oscillator.h **** 
  33:eurorack/stmlib/dsp/cosine_oscillator.h **** #include "stmlib/stmlib.h"
  34:eurorack/stmlib/dsp/cosine_oscillator.h **** 
  35:eurorack/stmlib/dsp/cosine_oscillator.h **** #include <cmath>
  36:eurorack/stmlib/dsp/cosine_oscillator.h **** 
  37:eurorack/stmlib/dsp/cosine_oscillator.h **** namespace stmlib {
  38:eurorack/stmlib/dsp/cosine_oscillator.h **** 
  39:eurorack/stmlib/dsp/cosine_oscillator.h **** enum CosineOscillatorMode {
  40:eurorack/stmlib/dsp/cosine_oscillator.h ****   COSINE_OSCILLATOR_APPROXIMATE,
  41:eurorack/stmlib/dsp/cosine_oscillator.h ****   COSINE_OSCILLATOR_EXACT
  42:eurorack/stmlib/dsp/cosine_oscillator.h **** };
  43:eurorack/stmlib/dsp/cosine_oscillator.h **** 
  44:eurorack/stmlib/dsp/cosine_oscillator.h **** class CosineOscillator {
  45:eurorack/stmlib/dsp/cosine_oscillator.h ****  public:
  46:eurorack/stmlib/dsp/cosine_oscillator.h ****   CosineOscillator() { }
  47:eurorack/stmlib/dsp/cosine_oscillator.h ****   ~CosineOscillator() { }
  48:eurorack/stmlib/dsp/cosine_oscillator.h **** 
  49:eurorack/stmlib/dsp/cosine_oscillator.h ****   template<CosineOscillatorMode mode>
  50:eurorack/stmlib/dsp/cosine_oscillator.h ****   inline void Init(float frequency) {
  51:eurorack/stmlib/dsp/cosine_oscillator.h ****     if (mode == COSINE_OSCILLATOR_APPROXIMATE) {
  52:eurorack/stmlib/dsp/cosine_oscillator.h ****       InitApproximate(frequency);
  53:eurorack/stmlib/dsp/cosine_oscillator.h ****     } else {
  54:eurorack/stmlib/dsp/cosine_oscillator.h ****       iir_coefficient_ = 2.0f * cosf(2.0f * float(M_PI) * frequency);
  55:eurorack/stmlib/dsp/cosine_oscillator.h ****       initial_amplitude_ = iir_coefficient_ * 0.25f;
  56:eurorack/stmlib/dsp/cosine_oscillator.h ****     }
  57:eurorack/stmlib/dsp/cosine_oscillator.h ****     Start();
  58:eurorack/stmlib/dsp/cosine_oscillator.h ****   }
  59:eurorack/stmlib/dsp/cosine_oscillator.h ****   
  60:eurorack/stmlib/dsp/cosine_oscillator.h ****   inline void InitApproximate(float frequency) {
  61:eurorack/stmlib/dsp/cosine_oscillator.h ****     float sign = 16.0f;
  62:eurorack/stmlib/dsp/cosine_oscillator.h ****     frequency -= 0.25f;
  63:eurorack/stmlib/dsp/cosine_oscillator.h ****     if (frequency < 0.0f) {
  64:eurorack/stmlib/dsp/cosine_oscillator.h ****       frequency = -frequency;
  65:eurorack/stmlib/dsp/cosine_oscillator.h ****     } else {
  66:eurorack/stmlib/dsp/cosine_oscillator.h ****       if (frequency > 0.5f) {
  67:eurorack/stmlib/dsp/cosine_oscillator.h ****         frequency -= 0.5f;
  68:eurorack/stmlib/dsp/cosine_oscillator.h ****       } else {
  69:eurorack/stmlib/dsp/cosine_oscillator.h ****         sign = -16.0f;
  70:eurorack/stmlib/dsp/cosine_oscillator.h ****       }
  71:eurorack/stmlib/dsp/cosine_oscillator.h ****     }
  72:eurorack/stmlib/dsp/cosine_oscillator.h ****     iir_coefficient_ = sign * frequency * (1.0f - 2.0f * frequency);
  73:eurorack/stmlib/dsp/cosine_oscillator.h ****     initial_amplitude_ = iir_coefficient_ * 0.25f;
  74:eurorack/stmlib/dsp/cosine_oscillator.h ****   }
  75:eurorack/stmlib/dsp/cosine_oscillator.h ****   
  76:eurorack/stmlib/dsp/cosine_oscillator.h ****   inline void Start() {
  77:eurorack/stmlib/dsp/cosine_oscillator.h ****     y1_ = initial_amplitude_;
  78:eurorack/stmlib/dsp/cosine_oscillator.h ****     y0_ = 0.5f;
  79:eurorack/stmlib/dsp/cosine_oscillator.h ****   }
  80:eurorack/stmlib/dsp/cosine_oscillator.h ****   
  81:eurorack/stmlib/dsp/cosine_oscillator.h ****   inline float value() const {
  82:eurorack/stmlib/dsp/cosine_oscillator.h ****     return y1_ + 0.5f;
  83:eurorack/stmlib/dsp/cosine_oscillator.h ****   }
  84:eurorack/stmlib/dsp/cosine_oscillator.h **** 
ARM GAS  /var/folders/9s/8rp0_f2s1n31qbztm3b5_fdh0000gn/T//ccAcUEVW.s 			page 26


  85:eurorack/stmlib/dsp/cosine_oscillator.h ****   inline float Next() {
 473              		.loc 6 85 16 is_stmt 1 view -0
 474              		.cfi_startproc
 475              		@ args = 0, pretend = 0, frame = 0
 476              		@ frame_needed = 0, uses_anonymous_args = 0
 477              		@ link register save eliminated.
  86:eurorack/stmlib/dsp/cosine_oscillator.h ****     float temp = y0_;
 478              		.loc 6 86 5 view .LVU113
 479              		.loc 6 86 11 is_stmt 0 view .LVU114
 480 0000 D0ED017A 		vldr.32	s15, [r0, #4]
 481              	.LVL40:
  87:eurorack/stmlib/dsp/cosine_oscillator.h ****     y0_ = iir_coefficient_ * y0_ - y1_;
 482              		.loc 6 87 5 is_stmt 1 view .LVU115
  88:eurorack/stmlib/dsp/cosine_oscillator.h ****     y1_ = temp;
  89:eurorack/stmlib/dsp/cosine_oscillator.h ****     return temp + 0.5f;
  90:eurorack/stmlib/dsp/cosine_oscillator.h ****   }
 483              		.loc 6 90 3 is_stmt 0 view .LVU116
 484 0004 B6EE000A 		vmov.f32	s0, #5.0e-1
  87:eurorack/stmlib/dsp/cosine_oscillator.h ****     y0_ = iir_coefficient_ * y0_ - y1_;
 485              		.loc 6 87 34 view .LVU117
 486 0008 90ED007A 		vldr.32	s14, [r0]
 487 000c D0ED026A 		vldr.32	s13, [r0, #8]
 488              		.loc 6 90 3 view .LVU118
 489 0010 37EE800A 		vadd.f32	s0, s15, s0
  88:eurorack/stmlib/dsp/cosine_oscillator.h ****     y1_ = temp;
 490              		.loc 6 88 9 view .LVU119
 491 0014 C0ED007A 		vstr.32	s15, [r0]
  87:eurorack/stmlib/dsp/cosine_oscillator.h ****     y0_ = iir_coefficient_ * y0_ - y1_;
 492              		.loc 6 87 34 view .LVU120
 493 0018 96EEA77A 		vfnms.f32	s14, s13, s15
  87:eurorack/stmlib/dsp/cosine_oscillator.h ****     y0_ = iir_coefficient_ * y0_ - y1_;
 494              		.loc 6 87 9 view .LVU121
 495 001c 80ED017A 		vstr.32	s14, [r0, #4]
  88:eurorack/stmlib/dsp/cosine_oscillator.h ****     y1_ = temp;
 496              		.loc 6 88 5 is_stmt 1 view .LVU122
  89:eurorack/stmlib/dsp/cosine_oscillator.h ****   }
 497              		.loc 6 89 5 view .LVU123
 498              		.loc 6 90 3 is_stmt 0 view .LVU124
 499 0020 7047     		bx	lr
 500              		.cfi_endproc
 501              	.LFE1515:
 503              		.section	.text._ZN6clouds8Diffuser7ProcessEPNS_10FloatFrameEj,"axG",%progbits,_ZN6clouds8Diffuser7
 504              		.align	1
 505              		.weak	_ZN6clouds8Diffuser7ProcessEPNS_10FloatFrameEj
 506              		.syntax unified
 507              		.thumb
 508              		.thumb_func
 510              	_ZN6clouds8Diffuser7ProcessEPNS_10FloatFrameEj:
 511              	.LVL41:
 512              	.LFB1552:
 513              		.file 7 "eurorack/clouds/dsp/fx/diffuser.h"
   1:eurorack/clouds/dsp/fx/diffuser.h **** // Copyright 2014 Emilie Gillet.
   2:eurorack/clouds/dsp/fx/diffuser.h **** //
   3:eurorack/clouds/dsp/fx/diffuser.h **** // Author: Emilie Gillet (emilie.o.gillet@gmail.com)
   4:eurorack/clouds/dsp/fx/diffuser.h **** //
   5:eurorack/clouds/dsp/fx/diffuser.h **** // Permission is hereby granted, free of charge, to any person obtaining a copy
   6:eurorack/clouds/dsp/fx/diffuser.h **** // of this software and associated documentation files (the "Software"), to deal
ARM GAS  /var/folders/9s/8rp0_f2s1n31qbztm3b5_fdh0000gn/T//ccAcUEVW.s 			page 27


   7:eurorack/clouds/dsp/fx/diffuser.h **** // in the Software without restriction, including without limitation the rights
   8:eurorack/clouds/dsp/fx/diffuser.h **** // to use, copy, modify, merge, publish, distribute, sublicense, and/or sell
   9:eurorack/clouds/dsp/fx/diffuser.h **** // copies of the Software, and to permit persons to whom the Software is
  10:eurorack/clouds/dsp/fx/diffuser.h **** // furnished to do so, subject to the following conditions:
  11:eurorack/clouds/dsp/fx/diffuser.h **** // 
  12:eurorack/clouds/dsp/fx/diffuser.h **** // The above copyright notice and this permission notice shall be included in
  13:eurorack/clouds/dsp/fx/diffuser.h **** // all copies or substantial portions of the Software.
  14:eurorack/clouds/dsp/fx/diffuser.h **** // 
  15:eurorack/clouds/dsp/fx/diffuser.h **** // THE SOFTWARE IS PROVIDED "AS IS", WITHOUT WARRANTY OF ANY KIND, EXPRESS OR
  16:eurorack/clouds/dsp/fx/diffuser.h **** // IMPLIED, INCLUDING BUT NOT LIMITED TO THE WARRANTIES OF MERCHANTABILITY,
  17:eurorack/clouds/dsp/fx/diffuser.h **** // FITNESS FOR A PARTICULAR PURPOSE AND NONINFRINGEMENT. IN NO EVENT SHALL THE
  18:eurorack/clouds/dsp/fx/diffuser.h **** // AUTHORS OR COPYRIGHT HOLDERS BE LIABLE FOR ANY CLAIM, DAMAGES OR OTHER
  19:eurorack/clouds/dsp/fx/diffuser.h **** // LIABILITY, WHETHER IN AN ACTION OF CONTRACT, TORT OR OTHERWISE, ARISING FROM,
  20:eurorack/clouds/dsp/fx/diffuser.h **** // OUT OF OR IN CONNECTION WITH THE SOFTWARE OR THE USE OR OTHER DEALINGS IN
  21:eurorack/clouds/dsp/fx/diffuser.h **** // THE SOFTWARE.
  22:eurorack/clouds/dsp/fx/diffuser.h **** // 
  23:eurorack/clouds/dsp/fx/diffuser.h **** // See http://creativecommons.org/licenses/MIT/ for more information.
  24:eurorack/clouds/dsp/fx/diffuser.h **** //
  25:eurorack/clouds/dsp/fx/diffuser.h **** // -----------------------------------------------------------------------------
  26:eurorack/clouds/dsp/fx/diffuser.h **** //
  27:eurorack/clouds/dsp/fx/diffuser.h **** // AP diffusion network.
  28:eurorack/clouds/dsp/fx/diffuser.h **** 
  29:eurorack/clouds/dsp/fx/diffuser.h **** #ifndef CLOUDS_DSP_FX_DIFFUSER_H_
  30:eurorack/clouds/dsp/fx/diffuser.h **** #define CLOUDS_DSP_FX_DIFFUSER_H_
  31:eurorack/clouds/dsp/fx/diffuser.h **** 
  32:eurorack/clouds/dsp/fx/diffuser.h **** #include "stmlib/stmlib.h"
  33:eurorack/clouds/dsp/fx/diffuser.h **** 
  34:eurorack/clouds/dsp/fx/diffuser.h **** #include "clouds/dsp/fx/fx_engine.h"
  35:eurorack/clouds/dsp/fx/diffuser.h **** 
  36:eurorack/clouds/dsp/fx/diffuser.h **** namespace clouds {
  37:eurorack/clouds/dsp/fx/diffuser.h **** 
  38:eurorack/clouds/dsp/fx/diffuser.h **** class Diffuser {
  39:eurorack/clouds/dsp/fx/diffuser.h ****  public:
  40:eurorack/clouds/dsp/fx/diffuser.h ****   Diffuser() { }
  41:eurorack/clouds/dsp/fx/diffuser.h ****   ~Diffuser() { }
  42:eurorack/clouds/dsp/fx/diffuser.h ****   
  43:eurorack/clouds/dsp/fx/diffuser.h ****   void Init(float* buffer) {
  44:eurorack/clouds/dsp/fx/diffuser.h ****     engine_.Init(buffer);
  45:eurorack/clouds/dsp/fx/diffuser.h ****   }
  46:eurorack/clouds/dsp/fx/diffuser.h ****   
  47:eurorack/clouds/dsp/fx/diffuser.h ****   void Process(FloatFrame* in_out, size_t size) {
 514              		.loc 7 47 8 is_stmt 1 view -0
 515              		.cfi_startproc
 516              		@ args = 0, pretend = 0, frame = 0
 517              		@ frame_needed = 0, uses_anonymous_args = 0
  48:eurorack/clouds/dsp/fx/diffuser.h ****     typedef E::Reserve<126,
 518              		.loc 7 48 5 view .LVU126
  49:eurorack/clouds/dsp/fx/diffuser.h ****       E::Reserve<180,
  50:eurorack/clouds/dsp/fx/diffuser.h ****       E::Reserve<269,
  51:eurorack/clouds/dsp/fx/diffuser.h ****       E::Reserve<444,
  52:eurorack/clouds/dsp/fx/diffuser.h ****       E::Reserve<151,
  53:eurorack/clouds/dsp/fx/diffuser.h ****       E::Reserve<205,
  54:eurorack/clouds/dsp/fx/diffuser.h ****       E::Reserve<245,
  55:eurorack/clouds/dsp/fx/diffuser.h ****       E::Reserve<405> > > > > > > > Memory;
  56:eurorack/clouds/dsp/fx/diffuser.h ****     E::DelayLine<Memory, 0> apl1;
 519              		.loc 7 56 5 view .LVU127
  57:eurorack/clouds/dsp/fx/diffuser.h ****     E::DelayLine<Memory, 1> apl2;
ARM GAS  /var/folders/9s/8rp0_f2s1n31qbztm3b5_fdh0000gn/T//ccAcUEVW.s 			page 28


 520              		.loc 7 57 5 view .LVU128
  58:eurorack/clouds/dsp/fx/diffuser.h ****     E::DelayLine<Memory, 2> apl3;
 521              		.loc 7 58 5 view .LVU129
  59:eurorack/clouds/dsp/fx/diffuser.h ****     E::DelayLine<Memory, 3> apl4;
 522              		.loc 7 59 5 view .LVU130
  60:eurorack/clouds/dsp/fx/diffuser.h ****     E::DelayLine<Memory, 4> apr1;
 523              		.loc 7 60 5 view .LVU131
  61:eurorack/clouds/dsp/fx/diffuser.h ****     E::DelayLine<Memory, 5> apr2;
 524              		.loc 7 61 5 view .LVU132
  62:eurorack/clouds/dsp/fx/diffuser.h ****     E::DelayLine<Memory, 6> apr3;
 525              		.loc 7 62 5 view .LVU133
  63:eurorack/clouds/dsp/fx/diffuser.h ****     E::DelayLine<Memory, 7> apr4;
 526              		.loc 7 63 5 view .LVU134
  64:eurorack/clouds/dsp/fx/diffuser.h ****     E::Context c;
 527              		.loc 7 64 5 view .LVU135
 528              	.LBB1001:
 529              	.LBI1001:
 146:eurorack/clouds/dsp/fx/fx_engine.h ****     ~Context() { }
 530              		.loc 3 146 5 view .LVU136
 146:eurorack/clouds/dsp/fx/fx_engine.h ****     ~Context() { }
 531              		.loc 3 146 5 is_stmt 0 view .LVU137
 532              	.LBE1001:
  65:eurorack/clouds/dsp/fx/diffuser.h ****     const float kap = 0.625f;
 533              		.loc 7 65 5 is_stmt 1 view .LVU138
  47:eurorack/clouds/dsp/fx/diffuser.h ****     typedef E::Reserve<126,
 534              		.loc 7 47 8 is_stmt 0 view .LVU139
 535 0000 2DE9F041 		push	{r4, r5, r6, r7, r8, lr}
 536              		.cfi_def_cfa_offset 24
 537              		.cfi_offset 4, -24
 538              		.cfi_offset 5, -20
 539              		.cfi_offset 6, -16
 540              		.cfi_offset 7, -12
 541              		.cfi_offset 8, -8
 542              		.cfi_offset 14, -4
  47:eurorack/clouds/dsp/fx/diffuser.h ****     typedef E::Reserve<126,
 543              		.loc 7 47 8 view .LVU140
 544 0004 0646     		mov	r6, r0
 545 0006 9046     		mov	r8, r2
 546 0008 01F10807 		add	r7, r1, #8
 547              	.LVL42:
 548              	.L22:
  66:eurorack/clouds/dsp/fx/diffuser.h ****     while (size--) {
 549              		.loc 7 66 5 is_stmt 1 view .LVU141
 550              		.loc 7 66 16 view .LVU142
 551              		.loc 7 66 16 is_stmt 0 view .LVU143
 552 000c B8F1000F 		cmp	r8, #0
 553 0010 00F0D780 		beq	.L17
 554              	.LBB1002:
  67:eurorack/clouds/dsp/fx/diffuser.h ****       engine_.Start(&c);
 555              		.loc 7 67 7 is_stmt 1 view .LVU144
 556              	.LVL43:
 557              	.LBB1003:
 558              	.LBI1003:
 239:eurorack/clouds/dsp/fx/fx_engine.h ****     
 240:eurorack/clouds/dsp/fx/fx_engine.h ****     template<typename D>
 241:eurorack/clouds/dsp/fx/fx_engine.h ****     inline void Interpolate(
 242:eurorack/clouds/dsp/fx/fx_engine.h ****         D& d, float offset, LFOIndex index, float amplitude, float scale) {
ARM GAS  /var/folders/9s/8rp0_f2s1n31qbztm3b5_fdh0000gn/T//ccAcUEVW.s 			page 29


 243:eurorack/clouds/dsp/fx/fx_engine.h ****       STATIC_ASSERT(D::base + D::length <= size, delay_memory_full);
 244:eurorack/clouds/dsp/fx/fx_engine.h ****       offset += amplitude * lfo_value_[index];
 245:eurorack/clouds/dsp/fx/fx_engine.h ****       MAKE_INTEGRAL_FRACTIONAL(offset);
 246:eurorack/clouds/dsp/fx/fx_engine.h ****       float a = DataType<format>::Decompress(
 247:eurorack/clouds/dsp/fx/fx_engine.h ****           buffer_[(write_ptr_ + offset_integral + D::base) & MASK]);
 248:eurorack/clouds/dsp/fx/fx_engine.h ****       float b = DataType<format>::Decompress(
 249:eurorack/clouds/dsp/fx/fx_engine.h ****           buffer_[(write_ptr_ + offset_integral + D::base + 1) & MASK]);
 250:eurorack/clouds/dsp/fx/fx_engine.h ****       float x = a + (b - a) * offset_fractional;
 251:eurorack/clouds/dsp/fx/fx_engine.h ****       previous_read_ = x;
 252:eurorack/clouds/dsp/fx/fx_engine.h ****       accumulator_ += x * scale;
 253:eurorack/clouds/dsp/fx/fx_engine.h ****     }
 254:eurorack/clouds/dsp/fx/fx_engine.h ****     
 255:eurorack/clouds/dsp/fx/fx_engine.h ****    private:
 256:eurorack/clouds/dsp/fx/fx_engine.h ****     float accumulator_;
 257:eurorack/clouds/dsp/fx/fx_engine.h ****     float previous_read_;
 258:eurorack/clouds/dsp/fx/fx_engine.h ****     float lfo_value_[2];
 259:eurorack/clouds/dsp/fx/fx_engine.h ****     T* buffer_;
 260:eurorack/clouds/dsp/fx/fx_engine.h ****     int32_t write_ptr_;
 261:eurorack/clouds/dsp/fx/fx_engine.h **** 
 262:eurorack/clouds/dsp/fx/fx_engine.h ****     DISALLOW_COPY_AND_ASSIGN(Context);
 263:eurorack/clouds/dsp/fx/fx_engine.h ****   };
 264:eurorack/clouds/dsp/fx/fx_engine.h ****   
 265:eurorack/clouds/dsp/fx/fx_engine.h ****   inline void SetLFOFrequency(LFOIndex index, float frequency) {
 266:eurorack/clouds/dsp/fx/fx_engine.h ****     lfo_[index].template Init<stmlib::COSINE_OSCILLATOR_APPROXIMATE>(
 267:eurorack/clouds/dsp/fx/fx_engine.h ****         frequency * 32.0f);
 268:eurorack/clouds/dsp/fx/fx_engine.h ****   }
 269:eurorack/clouds/dsp/fx/fx_engine.h ****   
 270:eurorack/clouds/dsp/fx/fx_engine.h ****   inline void Start(Context* c) {
 559              		.loc 3 270 15 view .LVU145
 560              	.LBB1004:
 271:eurorack/clouds/dsp/fx/fx_engine.h ****     --write_ptr_;
 561              		.loc 3 271 7 is_stmt 0 view .LVU146
 562 0014 3368     		ldr	r3, [r6]
 272:eurorack/clouds/dsp/fx/fx_engine.h ****     if (write_ptr_ < 0) {
 563              		.loc 3 272 5 view .LVU147
 564 0016 5A1E     		subs	r2, r3, #1
 273:eurorack/clouds/dsp/fx/fx_engine.h ****       write_ptr_ += size;
 565              		.loc 3 273 18 view .LVU148
 566 0018 4ABF     		itet	mi
 567 001a 03F2FF73 		addwmi	r3, r3, #2047
 271:eurorack/clouds/dsp/fx/fx_engine.h ****     --write_ptr_;
 568              		.loc 3 271 5 view .LVU149
 569 001e 3260     		strpl	r2, [r6]
 570              		.loc 3 273 18 view .LVU150
 571 0020 3360     		strmi	r3, [r6]
 274:eurorack/clouds/dsp/fx/fx_engine.h ****     }
 275:eurorack/clouds/dsp/fx/fx_engine.h ****     c->accumulator_ = 0.0f;
 276:eurorack/clouds/dsp/fx/fx_engine.h ****     c->previous_read_ = 0.0f;
 277:eurorack/clouds/dsp/fx/fx_engine.h ****     c->buffer_ = buffer_;
 278:eurorack/clouds/dsp/fx/fx_engine.h ****     c->write_ptr_ = write_ptr_;
 572              		.loc 3 278 21 view .LVU151
 573 0022 D6E90045 		ldrd	r4, r5, [r6]
 279:eurorack/clouds/dsp/fx/fx_engine.h ****     if ((write_ptr_ & 31) == 0) {
 574              		.loc 3 279 5 view .LVU152
 575 0026 E306     		lsls	r3, r4, #27
 576 0028 07D1     		bne	.L21
 577              	.LVL44:
ARM GAS  /var/folders/9s/8rp0_f2s1n31qbztm3b5_fdh0000gn/T//ccAcUEVW.s 			page 30


 578              	.LBB1005:
 579              	.LBI1005:
 270:eurorack/clouds/dsp/fx/fx_engine.h ****     --write_ptr_;
 580              		.loc 3 270 15 is_stmt 1 view .LVU153
 581              	.LBB1006:
 280:eurorack/clouds/dsp/fx/fx_engine.h ****       c->lfo_value_[0] = lfo_[0].Next();
 582              		.loc 3 280 38 is_stmt 0 view .LVU154
 583 002a 06F10800 		add	r0, r6, #8
 584 002e FFF7FEFF 		bl	_ZN6stmlib16CosineOscillator4NextEv
 585              	.LVL45:
 281:eurorack/clouds/dsp/fx/fx_engine.h ****       c->lfo_value_[1] = lfo_[1].Next();
 586              		.loc 3 281 38 view .LVU155
 587 0032 06F11800 		add	r0, r6, #24
 588 0036 FFF7FEFF 		bl	_ZN6stmlib16CosineOscillator4NextEv
 589              	.LVL46:
 590              	.L21:
 591              		.loc 3 281 38 view .LVU156
 592              	.LBE1006:
 593              	.LBE1005:
 594              	.LBE1004:
 595              	.LBE1003:
  68:eurorack/clouds/dsp/fx/diffuser.h ****       
  69:eurorack/clouds/dsp/fx/diffuser.h ****       float wet = 0.0f;
 596              		.loc 7 69 7 is_stmt 1 view .LVU157
  70:eurorack/clouds/dsp/fx/diffuser.h ****       c.Read(in_out->l);
 597              		.loc 7 70 7 view .LVU158
 598              	.LBB1007:
 599              	.LBI1007:
 157:eurorack/clouds/dsp/fx/fx_engine.h ****       accumulator_ += value;
 600              		.loc 3 157 17 view .LVU159
 157:eurorack/clouds/dsp/fx/fx_engine.h ****       accumulator_ += value;
 601              		.loc 3 157 17 is_stmt 0 view .LVU160
 602              	.LBE1007:
  71:eurorack/clouds/dsp/fx/diffuser.h ****       c.Read(apl1 TAIL, kap);
 603              		.loc 7 71 7 is_stmt 1 view .LVU161
 604              	.LBB1010:
 605              	.LBI1010:
 199:eurorack/clouds/dsp/fx/fx_engine.h ****       STATIC_ASSERT(D::base + D::length <= size, delay_memory_full);
 606              		.loc 3 199 17 view .LVU162
 607              	.LBB1011:
 203:eurorack/clouds/dsp/fx/fx_engine.h ****       } else {
 608              		.loc 3 203 55 is_stmt 0 view .LVU163
 609 003a 04F17D03 		add	r3, r4, #125
 610              	.LBE1011:
 611              	.LBE1010:
 612              	.LBB1015:
 613              	.LBB1008:
 158:eurorack/clouds/dsp/fx/fx_engine.h ****     }
 614              		.loc 3 158 20 view .LVU164
 615 003e 17ED026A 		vldr.32	s12, [r7, #-8]
 616 0042 9FED615A 		vldr.32	s10, .L23
 617              	.LBE1008:
 618              	.LBE1015:
 619              	.LBB1016:
 620              	.LBB1012:
 209:eurorack/clouds/dsp/fx/fx_engine.h ****     }
 621              		.loc 3 209 20 view .LVU165
ARM GAS  /var/folders/9s/8rp0_f2s1n31qbztm3b5_fdh0000gn/T//ccAcUEVW.s 			page 31


 622 0046 B6EE047A 		vmov.f32	s14, #6.25e-1
 203:eurorack/clouds/dsp/fx/fx_engine.h ****       } else {
 623              		.loc 3 203 60 view .LVU166
 624 004a C3F30A03 		ubfx	r3, r3, #0, #11
 625              	.LBE1012:
 626              	.LBE1016:
 627              	.LBB1017:
 628              	.LBB1018:
 629              	.LBB1019:
 190:eurorack/clouds/dsp/fx/fx_engine.h ****     }
 630              		.loc 3 190 20 view .LVU167
 631 004e FEEE047A 		vmov.f32	s15, #-6.25e-1
 632              	.LBE1019:
 633              	.LBE1018:
 634              	.LBE1017:
 635              	.LBB1033:
 636              	.LBB1009:
 158:eurorack/clouds/dsp/fx/fx_engine.h ****     }
 637              		.loc 3 158 20 view .LVU168
 638 0052 36EE056A 		vadd.f32	s12, s12, s10
 639 0056 08F1FF38 		add	r8, r8, #-1
 640              	.LVL47:
 158:eurorack/clouds/dsp/fx/fx_engine.h ****     }
 641              		.loc 3 158 20 view .LVU169
 642              	.LBE1009:
 643              	.LBE1033:
 644              	.LBB1034:
 645              	.LBB1013:
 203:eurorack/clouds/dsp/fx/fx_engine.h ****       } else {
 646              		.loc 3 203 11 view .LVU170
 647 005a 05EB8303 		add	r3, r5, r3, lsl #2
 648 005e 0837     		adds	r7, r7, #8
 649              	.LVL48:
 203:eurorack/clouds/dsp/fx/fx_engine.h ****       } else {
 650              		.loc 3 203 11 view .LVU171
 651 0060 D3ED006A 		vldr.32	s13, [r3]
 652              	.LVL49:
 203:eurorack/clouds/dsp/fx/fx_engine.h ****       } else {
 653              		.loc 3 203 11 view .LVU172
 654              	.LBE1013:
 655              	.LBE1034:
 656              	.LBE1002:
  90:eurorack/clouds/dsp/fx/fx_engine.h ****   }
 657              		.loc 3 90 5 is_stmt 1 view .LVU173
  90:eurorack/clouds/dsp/fx/fx_engine.h ****   }
 658              		.loc 3 90 18 view .LVU174
 659              	.LBB1217:
 660              	.LBB1035:
 661              	.LBB1029:
 662              	.LBB1025:
 663              	.LBB1020:
 664              	.LBB1021:
 177:eurorack/clouds/dsp/fx/fx_engine.h ****       }
 665              		.loc 3 177 49 is_stmt 0 view .LVU175
 666 0064 C4F30A03 		ubfx	r3, r4, #0, #11
 667              	.LBE1021:
 668              	.LBE1020:
ARM GAS  /var/folders/9s/8rp0_f2s1n31qbztm3b5_fdh0000gn/T//ccAcUEVW.s 			page 32


 669              	.LBE1025:
 670              	.LBE1029:
 671              	.LBE1035:
 672              	.LBB1036:
 673              	.LBB1014:
 209:eurorack/clouds/dsp/fx/fx_engine.h ****     }
 674              		.loc 3 209 20 view .LVU176
 675 0068 A6EE876A 		vfma.f32	s12, s13, s14
 676              	.LVL50:
 209:eurorack/clouds/dsp/fx/fx_engine.h ****     }
 677              		.loc 3 209 20 view .LVU177
 678              	.LBE1014:
 679              	.LBE1036:
  72:eurorack/clouds/dsp/fx/diffuser.h ****       c.WriteAllPass(apl1, -kap);
 680              		.loc 7 72 7 is_stmt 1 view .LVU178
 681              	.LBB1037:
 682              	.LBI1017:
 194:eurorack/clouds/dsp/fx/fx_engine.h ****       WriteAllPass(d, 0, scale);
 683              		.loc 3 194 17 view .LVU179
 684              	.LBB1030:
 685              	.LBI1018:
 188:eurorack/clouds/dsp/fx/fx_engine.h ****       Write(d, offset, scale);
 686              		.loc 3 188 17 view .LVU180
 687              	.LBB1026:
 688              	.LBB1023:
 689              	.LBI1020:
 171:eurorack/clouds/dsp/fx/fx_engine.h ****       STATIC_ASSERT(D::base + D::length <= size, delay_memory_full);
 690              		.loc 3 171 17 view .LVU181
 171:eurorack/clouds/dsp/fx/fx_engine.h ****       STATIC_ASSERT(D::base + D::length <= size, delay_memory_full);
 691              		.loc 3 171 17 is_stmt 0 view .LVU182
 692              	.LBE1023:
 693              	.LBE1026:
 694              	.LBE1030:
 695              	.LBE1037:
 696              	.LBE1217:
  94:eurorack/clouds/dsp/fx/fx_engine.h ****   }
 697              		.loc 3 94 5 is_stmt 1 view .LVU183
 698              	.LBB1218:
 699              	.LBB1038:
 700              	.LBB1031:
 701              	.LBB1027:
 702              	.LBB1024:
 703              	.LBB1022:
 177:eurorack/clouds/dsp/fx/fx_engine.h ****       }
 704              		.loc 3 177 57 is_stmt 0 view .LVU184
 705 006c 05EB8303 		add	r3, r5, r3, lsl #2
 706 0070 83ED006A 		vstr.32	s12, [r3]
 707              	.LVL51:
 177:eurorack/clouds/dsp/fx/fx_engine.h ****       }
 708              		.loc 3 177 57 view .LVU185
 709              	.LBE1022:
 710              	.LBE1024:
 711              	.LBE1027:
 712              	.LBE1031:
 713              	.LBE1038:
 714              	.LBB1039:
 715              	.LBB1040:
ARM GAS  /var/folders/9s/8rp0_f2s1n31qbztm3b5_fdh0000gn/T//ccAcUEVW.s 			page 33


 203:eurorack/clouds/dsp/fx/fx_engine.h ****       } else {
 716              		.loc 3 203 55 view .LVU186
 717 0074 04F59973 		add	r3, r4, #306
 718              	.LBE1040:
 719              	.LBE1039:
 720              	.LBB1043:
 721              	.LBB1032:
 722              	.LBB1028:
 190:eurorack/clouds/dsp/fx/fx_engine.h ****     }
 723              		.loc 3 190 20 view .LVU187
 724 0078 E6EE276A 		vfma.f32	s13, s12, s15
 725              	.LVL52:
 190:eurorack/clouds/dsp/fx/fx_engine.h ****     }
 726              		.loc 3 190 20 view .LVU188
 727              	.LBE1028:
 728              	.LBE1032:
 729              	.LBE1043:
  73:eurorack/clouds/dsp/fx/diffuser.h ****       c.Read(apl2 TAIL, kap);
 730              		.loc 7 73 7 is_stmt 1 view .LVU189
 731              	.LBB1044:
 732              	.LBI1039:
 199:eurorack/clouds/dsp/fx/fx_engine.h ****       STATIC_ASSERT(D::base + D::length <= size, delay_memory_full);
 733              		.loc 3 199 17 view .LVU190
 734              	.LBB1041:
 203:eurorack/clouds/dsp/fx/fx_engine.h ****       } else {
 735              		.loc 3 203 60 is_stmt 0 view .LVU191
 736 007c C3F30A03 		ubfx	r3, r3, #0, #11
 203:eurorack/clouds/dsp/fx/fx_engine.h ****       } else {
 737              		.loc 3 203 11 view .LVU192
 738 0080 05EB8303 		add	r3, r5, r3, lsl #2
 739 0084 93ED006A 		vldr.32	s12, [r3]
 740              	.LVL53:
 203:eurorack/clouds/dsp/fx/fx_engine.h ****       } else {
 741              		.loc 3 203 11 view .LVU193
 742              	.LBE1041:
 743              	.LBE1044:
 744              	.LBE1218:
  90:eurorack/clouds/dsp/fx/fx_engine.h ****   }
 745              		.loc 3 90 5 is_stmt 1 view .LVU194
  90:eurorack/clouds/dsp/fx/fx_engine.h ****   }
 746              		.loc 3 90 18 view .LVU195
 747              	.LBB1219:
 748              	.LBB1045:
 749              	.LBB1046:
 750              	.LBB1047:
 751              	.LBB1048:
 752              	.LBB1049:
 177:eurorack/clouds/dsp/fx/fx_engine.h ****       }
 753              		.loc 3 177 29 is_stmt 0 view .LVU196
 754 0088 04F17F03 		add	r3, r4, #127
 755              	.LBE1049:
 756              	.LBE1048:
 757              	.LBE1047:
 758              	.LBE1046:
 759              	.LBE1045:
 760              	.LBB1059:
 761              	.LBB1042:
ARM GAS  /var/folders/9s/8rp0_f2s1n31qbztm3b5_fdh0000gn/T//ccAcUEVW.s 			page 34


 209:eurorack/clouds/dsp/fx/fx_engine.h ****     }
 762              		.loc 3 209 20 view .LVU197
 763 008c E6EE076A 		vfma.f32	s13, s12, s14
 764              	.LVL54:
 209:eurorack/clouds/dsp/fx/fx_engine.h ****     }
 765              		.loc 3 209 20 view .LVU198
 766              	.LBE1042:
 767              	.LBE1059:
  74:eurorack/clouds/dsp/fx/diffuser.h ****       c.WriteAllPass(apl2, -kap);
 768              		.loc 7 74 7 is_stmt 1 view .LVU199
 769              	.LBB1060:
 770              	.LBI1045:
 194:eurorack/clouds/dsp/fx/fx_engine.h ****       WriteAllPass(d, 0, scale);
 771              		.loc 3 194 17 view .LVU200
 772              	.LBB1056:
 773              	.LBI1046:
 188:eurorack/clouds/dsp/fx/fx_engine.h ****       Write(d, offset, scale);
 774              		.loc 3 188 17 view .LVU201
 775              	.LBB1053:
 776              	.LBB1051:
 777              	.LBI1048:
 171:eurorack/clouds/dsp/fx/fx_engine.h ****       STATIC_ASSERT(D::base + D::length <= size, delay_memory_full);
 778              		.loc 3 171 17 view .LVU202
 171:eurorack/clouds/dsp/fx/fx_engine.h ****       STATIC_ASSERT(D::base + D::length <= size, delay_memory_full);
 779              		.loc 3 171 17 is_stmt 0 view .LVU203
 780              	.LBE1051:
 781              	.LBE1053:
 782              	.LBE1056:
 783              	.LBE1060:
 784              	.LBE1219:
  94:eurorack/clouds/dsp/fx/fx_engine.h ****   }
 785              		.loc 3 94 5 is_stmt 1 view .LVU204
 786              	.LBB1220:
 787              	.LBB1061:
 788              	.LBB1057:
 789              	.LBB1054:
 790              	.LBB1052:
 791              	.LBB1050:
 177:eurorack/clouds/dsp/fx/fx_engine.h ****       }
 792              		.loc 3 177 49 is_stmt 0 view .LVU205
 793 0090 C3F30A03 		ubfx	r3, r3, #0, #11
 177:eurorack/clouds/dsp/fx/fx_engine.h ****       }
 794              		.loc 3 177 57 view .LVU206
 795 0094 05EB8303 		add	r3, r5, r3, lsl #2
 796 0098 C3ED006A 		vstr.32	s13, [r3]
 797              	.LVL55:
 177:eurorack/clouds/dsp/fx/fx_engine.h ****       }
 798              		.loc 3 177 57 view .LVU207
 799              	.LBE1050:
 800              	.LBE1052:
 801              	.LBE1054:
 802              	.LBE1057:
 803              	.LBE1061:
 804              	.LBB1062:
 805              	.LBB1063:
 203:eurorack/clouds/dsp/fx/fx_engine.h ****       } else {
 806              		.loc 3 203 55 view .LVU208
ARM GAS  /var/folders/9s/8rp0_f2s1n31qbztm3b5_fdh0000gn/T//ccAcUEVW.s 			page 35


 807 009c 04F51073 		add	r3, r4, #576
 808              	.LBE1063:
 809              	.LBE1062:
 810              	.LBB1066:
 811              	.LBB1058:
 812              	.LBB1055:
 190:eurorack/clouds/dsp/fx/fx_engine.h ****     }
 813              		.loc 3 190 20 view .LVU209
 814 00a0 A6EEA76A 		vfma.f32	s12, s13, s15
 815              	.LVL56:
 190:eurorack/clouds/dsp/fx/fx_engine.h ****     }
 816              		.loc 3 190 20 view .LVU210
 817              	.LBE1055:
 818              	.LBE1058:
 819              	.LBE1066:
  75:eurorack/clouds/dsp/fx/diffuser.h ****       c.Read(apl3 TAIL, kap);
 820              		.loc 7 75 7 is_stmt 1 view .LVU211
 821              	.LBB1067:
 822              	.LBI1062:
 199:eurorack/clouds/dsp/fx/fx_engine.h ****       STATIC_ASSERT(D::base + D::length <= size, delay_memory_full);
 823              		.loc 3 199 17 view .LVU212
 824              	.LBB1064:
 203:eurorack/clouds/dsp/fx/fx_engine.h ****       } else {
 825              		.loc 3 203 60 is_stmt 0 view .LVU213
 826 00a4 C3F30A03 		ubfx	r3, r3, #0, #11
 203:eurorack/clouds/dsp/fx/fx_engine.h ****       } else {
 827              		.loc 3 203 11 view .LVU214
 828 00a8 05EB8303 		add	r3, r5, r3, lsl #2
 829 00ac D3ED006A 		vldr.32	s13, [r3]
 830              	.LVL57:
 203:eurorack/clouds/dsp/fx/fx_engine.h ****       } else {
 831              		.loc 3 203 11 view .LVU215
 832              	.LBE1064:
 833              	.LBE1067:
 834              	.LBE1220:
  90:eurorack/clouds/dsp/fx/fx_engine.h ****   }
 835              		.loc 3 90 5 is_stmt 1 view .LVU216
  90:eurorack/clouds/dsp/fx/fx_engine.h ****   }
 836              		.loc 3 90 18 view .LVU217
 837              	.LBB1221:
 838              	.LBB1068:
 839              	.LBB1069:
 840              	.LBB1070:
 841              	.LBB1071:
 842              	.LBB1072:
 177:eurorack/clouds/dsp/fx/fx_engine.h ****       }
 843              		.loc 3 177 29 is_stmt 0 view .LVU218
 844 00b0 04F59A73 		add	r3, r4, #308
 845              	.LBE1072:
 846              	.LBE1071:
 847              	.LBE1070:
 848              	.LBE1069:
 849              	.LBE1068:
 850              	.LBB1082:
 851              	.LBB1065:
 209:eurorack/clouds/dsp/fx/fx_engine.h ****     }
 852              		.loc 3 209 20 view .LVU219
ARM GAS  /var/folders/9s/8rp0_f2s1n31qbztm3b5_fdh0000gn/T//ccAcUEVW.s 			page 36


 853 00b4 A6EE876A 		vfma.f32	s12, s13, s14
 854              	.LVL58:
 209:eurorack/clouds/dsp/fx/fx_engine.h ****     }
 855              		.loc 3 209 20 view .LVU220
 856              	.LBE1065:
 857              	.LBE1082:
  76:eurorack/clouds/dsp/fx/diffuser.h ****       c.WriteAllPass(apl3, -kap);
 858              		.loc 7 76 7 is_stmt 1 view .LVU221
 859              	.LBB1083:
 860              	.LBI1068:
 194:eurorack/clouds/dsp/fx/fx_engine.h ****       WriteAllPass(d, 0, scale);
 861              		.loc 3 194 17 view .LVU222
 862              	.LBB1079:
 863              	.LBI1069:
 188:eurorack/clouds/dsp/fx/fx_engine.h ****       Write(d, offset, scale);
 864              		.loc 3 188 17 view .LVU223
 865              	.LBB1076:
 866              	.LBB1074:
 867              	.LBI1071:
 171:eurorack/clouds/dsp/fx/fx_engine.h ****       STATIC_ASSERT(D::base + D::length <= size, delay_memory_full);
 868              		.loc 3 171 17 view .LVU224
 171:eurorack/clouds/dsp/fx/fx_engine.h ****       STATIC_ASSERT(D::base + D::length <= size, delay_memory_full);
 869              		.loc 3 171 17 is_stmt 0 view .LVU225
 870              	.LBE1074:
 871              	.LBE1076:
 872              	.LBE1079:
 873              	.LBE1083:
 874              	.LBE1221:
  94:eurorack/clouds/dsp/fx/fx_engine.h ****   }
 875              		.loc 3 94 5 is_stmt 1 view .LVU226
 876              	.LBB1222:
 877              	.LBB1084:
 878              	.LBB1080:
 879              	.LBB1077:
 880              	.LBB1075:
 881              	.LBB1073:
 177:eurorack/clouds/dsp/fx/fx_engine.h ****       }
 882              		.loc 3 177 49 is_stmt 0 view .LVU227
 883 00b8 C3F30A03 		ubfx	r3, r3, #0, #11
 177:eurorack/clouds/dsp/fx/fx_engine.h ****       }
 884              		.loc 3 177 57 view .LVU228
 885 00bc 05EB8303 		add	r3, r5, r3, lsl #2
 886 00c0 83ED006A 		vstr.32	s12, [r3]
 887              	.LVL59:
 177:eurorack/clouds/dsp/fx/fx_engine.h ****       }
 888              		.loc 3 177 57 view .LVU229
 889              	.LBE1073:
 890              	.LBE1075:
 891              	.LBE1077:
 892              	.LBE1080:
 893              	.LBE1084:
 894              	.LBB1085:
 895              	.LBB1086:
 203:eurorack/clouds/dsp/fx/fx_engine.h ****       } else {
 896              		.loc 3 203 55 view .LVU230
 897 00c4 04F2FD33 		addw	r3, r4, #1021
 898              	.LBE1086:
ARM GAS  /var/folders/9s/8rp0_f2s1n31qbztm3b5_fdh0000gn/T//ccAcUEVW.s 			page 37


 899              	.LBE1085:
 900              	.LBB1089:
 901              	.LBB1081:
 902              	.LBB1078:
 190:eurorack/clouds/dsp/fx/fx_engine.h ****     }
 903              		.loc 3 190 20 view .LVU231
 904 00c8 E6EE276A 		vfma.f32	s13, s12, s15
 905              	.LVL60:
 190:eurorack/clouds/dsp/fx/fx_engine.h ****     }
 906              		.loc 3 190 20 view .LVU232
 907              	.LBE1078:
 908              	.LBE1081:
 909              	.LBE1089:
  77:eurorack/clouds/dsp/fx/diffuser.h ****       c.Read(apl4 TAIL, kap);
 910              		.loc 7 77 7 is_stmt 1 view .LVU233
 911              	.LBB1090:
 912              	.LBI1085:
 199:eurorack/clouds/dsp/fx/fx_engine.h ****       STATIC_ASSERT(D::base + D::length <= size, delay_memory_full);
 913              		.loc 3 199 17 view .LVU234
 914              	.LBB1087:
 203:eurorack/clouds/dsp/fx/fx_engine.h ****       } else {
 915              		.loc 3 203 60 is_stmt 0 view .LVU235
 916 00cc C3F30A03 		ubfx	r3, r3, #0, #11
 203:eurorack/clouds/dsp/fx/fx_engine.h ****       } else {
 917              		.loc 3 203 11 view .LVU236
 918 00d0 05EB8303 		add	r3, r5, r3, lsl #2
 919 00d4 D3ED005A 		vldr.32	s11, [r3]
 920              	.LVL61:
 203:eurorack/clouds/dsp/fx/fx_engine.h ****       } else {
 921              		.loc 3 203 11 view .LVU237
 922              	.LBE1087:
 923              	.LBE1090:
 924              	.LBE1222:
  90:eurorack/clouds/dsp/fx/fx_engine.h ****   }
 925              		.loc 3 90 5 is_stmt 1 view .LVU238
  90:eurorack/clouds/dsp/fx/fx_engine.h ****   }
 926              		.loc 3 90 18 view .LVU239
 927              	.LBB1223:
 928              	.LBB1091:
 929              	.LBB1092:
 930              	.LBB1093:
 931              	.LBB1094:
 932              	.LBB1095:
 177:eurorack/clouds/dsp/fx/fx_engine.h ****       }
 933              		.loc 3 177 29 is_stmt 0 view .LVU240
 934 00d8 04F24223 		addw	r3, r4, #578
 935              	.LBE1095:
 936              	.LBE1094:
 937              	.LBE1093:
 938              	.LBE1092:
 939              	.LBE1091:
 940              	.LBB1105:
 941              	.LBB1088:
 209:eurorack/clouds/dsp/fx/fx_engine.h ****     }
 942              		.loc 3 209 20 view .LVU241
 943 00dc E5EE876A 		vfma.f32	s13, s11, s14
 944              	.LVL62:
ARM GAS  /var/folders/9s/8rp0_f2s1n31qbztm3b5_fdh0000gn/T//ccAcUEVW.s 			page 38


 209:eurorack/clouds/dsp/fx/fx_engine.h ****     }
 945              		.loc 3 209 20 view .LVU242
 946              	.LBE1088:
 947              	.LBE1105:
  78:eurorack/clouds/dsp/fx/diffuser.h ****       c.WriteAllPass(apl4, -kap);
 948              		.loc 7 78 7 is_stmt 1 view .LVU243
 949              	.LBB1106:
 950              	.LBI1091:
 194:eurorack/clouds/dsp/fx/fx_engine.h ****       WriteAllPass(d, 0, scale);
 951              		.loc 3 194 17 view .LVU244
 952              	.LBB1103:
 953              	.LBI1092:
 188:eurorack/clouds/dsp/fx/fx_engine.h ****       Write(d, offset, scale);
 954              		.loc 3 188 17 view .LVU245
 955              	.LBB1101:
 956              	.LBB1098:
 957              	.LBI1094:
 171:eurorack/clouds/dsp/fx/fx_engine.h ****       STATIC_ASSERT(D::base + D::length <= size, delay_memory_full);
 958              		.loc 3 171 17 view .LVU246
 171:eurorack/clouds/dsp/fx/fx_engine.h ****       STATIC_ASSERT(D::base + D::length <= size, delay_memory_full);
 959              		.loc 3 171 17 is_stmt 0 view .LVU247
 960              	.LBE1098:
 961              	.LBE1101:
 962              	.LBE1103:
 963              	.LBE1106:
 964              	.LBE1223:
  94:eurorack/clouds/dsp/fx/fx_engine.h ****   }
 965              		.loc 3 94 5 is_stmt 1 view .LVU248
 966              	.LBB1224:
 967              	.LBB1107:
 968              	.LBB1104:
 969              	.LBB1102:
 970              	.LBB1099:
 971              	.LBB1096:
 177:eurorack/clouds/dsp/fx/fx_engine.h ****       }
 972              		.loc 3 177 49 is_stmt 0 view .LVU249
 973 00e0 C3F30A03 		ubfx	r3, r3, #0, #11
 177:eurorack/clouds/dsp/fx/fx_engine.h ****       }
 974              		.loc 3 177 57 view .LVU250
 975 00e4 05EB8303 		add	r3, r5, r3, lsl #2
 976              	.LBE1096:
 977              	.LBE1099:
 190:eurorack/clouds/dsp/fx/fx_engine.h ****     }
 978              		.loc 3 190 20 view .LVU251
 979 00e8 E6EEA75A 		vfma.f32	s11, s13, s15
 980              	.LVL63:
 981              	.LBB1100:
 982              	.LBB1097:
 177:eurorack/clouds/dsp/fx/fx_engine.h ****       }
 983              		.loc 3 177 57 view .LVU252
 984 00ec C3ED006A 		vstr.32	s13, [r3]
 985              	.LVL64:
 177:eurorack/clouds/dsp/fx/fx_engine.h ****       }
 986              		.loc 3 177 57 view .LVU253
 987              	.LBE1097:
 988              	.LBE1100:
 989              	.LBE1102:
ARM GAS  /var/folders/9s/8rp0_f2s1n31qbztm3b5_fdh0000gn/T//ccAcUEVW.s 			page 39


 990              	.LBE1104:
 991              	.LBE1107:
  79:eurorack/clouds/dsp/fx/diffuser.h ****       c.Write(wet, 0.0f);
 992              		.loc 7 79 7 is_stmt 1 view .LVU254
  80:eurorack/clouds/dsp/fx/diffuser.h ****       in_out->l += amount_ * (wet - in_out->l);
 993              		.loc 7 80 7 view .LVU255
 994              		.loc 7 80 17 is_stmt 0 view .LVU256
 995 00f0 57ED046A 		vldr.32	s13, [r7, #-16]
 996              	.LVL65:
 997              	.LBB1108:
 998              	.LBB1109:
 203:eurorack/clouds/dsp/fx/fx_engine.h ****       } else {
 999              		.loc 3 203 55 view .LVU257
 1000 00f4 04F29543 		addw	r3, r4, #1173
 1001              	.LVL66:
 203:eurorack/clouds/dsp/fx/fx_engine.h ****       } else {
 1002              		.loc 3 203 55 view .LVU258
 1003              	.LBE1109:
 1004              	.LBE1108:
 1005              		.loc 7 80 17 view .LVU259
 1006 00f8 D6ED0A4A 		vldr.32	s9, [r6, #40]
 1007              	.LBB1113:
 1008              	.LBB1110:
 203:eurorack/clouds/dsp/fx/fx_engine.h ****       } else {
 1009              		.loc 3 203 60 view .LVU260
 1010 00fc C3F30A03 		ubfx	r3, r3, #0, #11
 203:eurorack/clouds/dsp/fx/fx_engine.h ****       } else {
 1011              		.loc 3 203 11 view .LVU261
 1012 0100 05EB8303 		add	r3, r5, r3, lsl #2
 1013              	.LBE1110:
 1014              	.LBE1113:
 1015              		.loc 7 80 35 view .LVU262
 1016 0104 35EEE66A 		vsub.f32	s12, s11, s13
 1017              	.LVL67:
 1018              		.loc 7 80 17 view .LVU263
 1019 0108 E4EE866A 		vfma.f32	s13, s9, s12
 1020              	.LBB1114:
 1021              	.LBB1115:
 158:eurorack/clouds/dsp/fx/fx_engine.h ****     }
 1022              		.loc 3 158 20 view .LVU264
 1023 010c 17ED036A 		vldr.32	s12, [r7, #-12]
 1024 0110 A5EE856A 		vfma.f32	s12, s11, s10
 1025              	.LBE1115:
 1026              	.LBE1114:
 1027              		.loc 7 80 17 view .LVU265
 1028 0114 47ED046A 		vstr.32	s13, [r7, #-16]
 1029              	.LVL68:
  81:eurorack/clouds/dsp/fx/diffuser.h ****       
  82:eurorack/clouds/dsp/fx/diffuser.h ****       c.Read(in_out->r);
 1030              		.loc 7 82 7 is_stmt 1 view .LVU266
 1031              	.LBB1116:
 1032              	.LBI1114:
 157:eurorack/clouds/dsp/fx/fx_engine.h ****       accumulator_ += value;
 1033              		.loc 3 157 17 view .LVU267
 157:eurorack/clouds/dsp/fx/fx_engine.h ****       accumulator_ += value;
 1034              		.loc 3 157 17 is_stmt 0 view .LVU268
 1035              	.LBE1116:
ARM GAS  /var/folders/9s/8rp0_f2s1n31qbztm3b5_fdh0000gn/T//ccAcUEVW.s 			page 40


  83:eurorack/clouds/dsp/fx/diffuser.h ****       c.Read(apr1 TAIL, kap);
 1036              		.loc 7 83 7 is_stmt 1 view .LVU269
 1037              	.LBB1117:
 1038              	.LBI1108:
 199:eurorack/clouds/dsp/fx/fx_engine.h ****       STATIC_ASSERT(D::base + D::length <= size, delay_memory_full);
 1039              		.loc 3 199 17 view .LVU270
 1040              	.LBB1111:
 203:eurorack/clouds/dsp/fx/fx_engine.h ****       } else {
 1041              		.loc 3 203 11 is_stmt 0 view .LVU271
 1042 0118 D3ED006A 		vldr.32	s13, [r3]
 1043              	.LVL69:
 203:eurorack/clouds/dsp/fx/fx_engine.h ****       } else {
 1044              		.loc 3 203 11 view .LVU272
 1045              	.LBE1111:
 1046              	.LBE1117:
 1047              	.LBE1224:
  90:eurorack/clouds/dsp/fx/fx_engine.h ****   }
 1048              		.loc 3 90 5 is_stmt 1 view .LVU273
  90:eurorack/clouds/dsp/fx/fx_engine.h ****   }
 1049              		.loc 3 90 18 view .LVU274
 1050              	.LBB1225:
 1051              	.LBB1118:
 1052              	.LBB1119:
 1053              	.LBB1120:
 1054              	.LBB1121:
 1055              	.LBB1122:
 177:eurorack/clouds/dsp/fx/fx_engine.h ****       }
 1056              		.loc 3 177 29 is_stmt 0 view .LVU275
 1057 011c 04F2FF33 		addw	r3, r4, #1023
 1058              	.LBE1122:
 1059              	.LBE1121:
 1060              	.LBE1120:
 1061              	.LBE1119:
 1062              	.LBE1118:
 1063              	.LBB1132:
 1064              	.LBB1112:
 209:eurorack/clouds/dsp/fx/fx_engine.h ****     }
 1065              		.loc 3 209 20 view .LVU276
 1066 0120 A6EE876A 		vfma.f32	s12, s13, s14
 1067              	.LVL70:
 209:eurorack/clouds/dsp/fx/fx_engine.h ****     }
 1068              		.loc 3 209 20 view .LVU277
 1069              	.LBE1112:
 1070              	.LBE1132:
  84:eurorack/clouds/dsp/fx/diffuser.h ****       c.WriteAllPass(apr1, -kap);
 1071              		.loc 7 84 7 is_stmt 1 view .LVU278
 1072              	.LBB1133:
 1073              	.LBI1118:
 194:eurorack/clouds/dsp/fx/fx_engine.h ****       WriteAllPass(d, 0, scale);
 1074              		.loc 3 194 17 view .LVU279
 1075              	.LBB1129:
 1076              	.LBI1119:
 188:eurorack/clouds/dsp/fx/fx_engine.h ****       Write(d, offset, scale);
 1077              		.loc 3 188 17 view .LVU280
 1078              	.LBB1126:
 1079              	.LBB1124:
 1080              	.LBI1121:
ARM GAS  /var/folders/9s/8rp0_f2s1n31qbztm3b5_fdh0000gn/T//ccAcUEVW.s 			page 41


 171:eurorack/clouds/dsp/fx/fx_engine.h ****       STATIC_ASSERT(D::base + D::length <= size, delay_memory_full);
 1081              		.loc 3 171 17 view .LVU281
 171:eurorack/clouds/dsp/fx/fx_engine.h ****       STATIC_ASSERT(D::base + D::length <= size, delay_memory_full);
 1082              		.loc 3 171 17 is_stmt 0 view .LVU282
 1083              	.LBE1124:
 1084              	.LBE1126:
 1085              	.LBE1129:
 1086              	.LBE1133:
 1087              	.LBE1225:
  94:eurorack/clouds/dsp/fx/fx_engine.h ****   }
 1088              		.loc 3 94 5 is_stmt 1 view .LVU283
 1089              	.LBB1226:
 1090              	.LBB1134:
 1091              	.LBB1130:
 1092              	.LBB1127:
 1093              	.LBB1125:
 1094              	.LBB1123:
 177:eurorack/clouds/dsp/fx/fx_engine.h ****       }
 1095              		.loc 3 177 49 is_stmt 0 view .LVU284
 1096 0124 C3F30A03 		ubfx	r3, r3, #0, #11
 177:eurorack/clouds/dsp/fx/fx_engine.h ****       }
 1097              		.loc 3 177 57 view .LVU285
 1098 0128 05EB8303 		add	r3, r5, r3, lsl #2
 1099 012c 83ED006A 		vstr.32	s12, [r3]
 1100              	.LVL71:
 177:eurorack/clouds/dsp/fx/fx_engine.h ****       }
 1101              		.loc 3 177 57 view .LVU286
 1102              	.LBE1123:
 1103              	.LBE1125:
 1104              	.LBE1127:
 1105              	.LBE1130:
 1106              	.LBE1134:
 1107              	.LBB1135:
 1108              	.LBB1136:
 203:eurorack/clouds/dsp/fx/fx_engine.h ****       } else {
 1109              		.loc 3 203 55 view .LVU287
 1110 0130 04F26353 		addw	r3, r4, #1379
 1111              	.LBE1136:
 1112              	.LBE1135:
 1113              	.LBB1139:
 1114              	.LBB1131:
 1115              	.LBB1128:
 190:eurorack/clouds/dsp/fx/fx_engine.h ****     }
 1116              		.loc 3 190 20 view .LVU288
 1117 0134 E6EE276A 		vfma.f32	s13, s12, s15
 1118              	.LVL72:
 190:eurorack/clouds/dsp/fx/fx_engine.h ****     }
 1119              		.loc 3 190 20 view .LVU289
 1120              	.LBE1128:
 1121              	.LBE1131:
 1122              	.LBE1139:
  85:eurorack/clouds/dsp/fx/diffuser.h ****       c.Read(apr2 TAIL, kap);
 1123              		.loc 7 85 7 is_stmt 1 view .LVU290
 1124              	.LBB1140:
 1125              	.LBI1135:
 199:eurorack/clouds/dsp/fx/fx_engine.h ****       STATIC_ASSERT(D::base + D::length <= size, delay_memory_full);
 1126              		.loc 3 199 17 view .LVU291
ARM GAS  /var/folders/9s/8rp0_f2s1n31qbztm3b5_fdh0000gn/T//ccAcUEVW.s 			page 42


 1127              	.LBB1137:
 203:eurorack/clouds/dsp/fx/fx_engine.h ****       } else {
 1128              		.loc 3 203 60 is_stmt 0 view .LVU292
 1129 0138 C3F30A03 		ubfx	r3, r3, #0, #11
 203:eurorack/clouds/dsp/fx/fx_engine.h ****       } else {
 1130              		.loc 3 203 11 view .LVU293
 1131 013c 05EB8303 		add	r3, r5, r3, lsl #2
 1132 0140 93ED006A 		vldr.32	s12, [r3]
 1133              	.LVL73:
 203:eurorack/clouds/dsp/fx/fx_engine.h ****       } else {
 1134              		.loc 3 203 11 view .LVU294
 1135              	.LBE1137:
 1136              	.LBE1140:
 1137              	.LBE1226:
  90:eurorack/clouds/dsp/fx/fx_engine.h ****   }
 1138              		.loc 3 90 5 is_stmt 1 view .LVU295
  90:eurorack/clouds/dsp/fx/fx_engine.h ****   }
 1139              		.loc 3 90 18 view .LVU296
 1140              	.LBB1227:
 1141              	.LBB1141:
 1142              	.LBB1142:
 1143              	.LBB1143:
 1144              	.LBB1144:
 1145              	.LBB1145:
 177:eurorack/clouds/dsp/fx/fx_engine.h ****       }
 1146              		.loc 3 177 29 is_stmt 0 view .LVU297
 1147 0144 04F29743 		addw	r3, r4, #1175
 1148              	.LBE1145:
 1149              	.LBE1144:
 1150              	.LBE1143:
 1151              	.LBE1142:
 1152              	.LBE1141:
 1153              	.LBB1155:
 1154              	.LBB1138:
 209:eurorack/clouds/dsp/fx/fx_engine.h ****     }
 1155              		.loc 3 209 20 view .LVU298
 1156 0148 E6EE076A 		vfma.f32	s13, s12, s14
 1157              	.LVL74:
 209:eurorack/clouds/dsp/fx/fx_engine.h ****     }
 1158              		.loc 3 209 20 view .LVU299
 1159              	.LBE1138:
 1160              	.LBE1155:
  86:eurorack/clouds/dsp/fx/diffuser.h ****       c.WriteAllPass(apr2, -kap);
 1161              		.loc 7 86 7 is_stmt 1 view .LVU300
 1162              	.LBB1156:
 1163              	.LBI1141:
 194:eurorack/clouds/dsp/fx/fx_engine.h ****       WriteAllPass(d, 0, scale);
 1164              		.loc 3 194 17 view .LVU301
 1165              	.LBB1152:
 1166              	.LBI1142:
 188:eurorack/clouds/dsp/fx/fx_engine.h ****       Write(d, offset, scale);
 1167              		.loc 3 188 17 view .LVU302
 1168              	.LBB1149:
 1169              	.LBB1147:
 1170              	.LBI1144:
 171:eurorack/clouds/dsp/fx/fx_engine.h ****       STATIC_ASSERT(D::base + D::length <= size, delay_memory_full);
 1171              		.loc 3 171 17 view .LVU303
ARM GAS  /var/folders/9s/8rp0_f2s1n31qbztm3b5_fdh0000gn/T//ccAcUEVW.s 			page 43


 171:eurorack/clouds/dsp/fx/fx_engine.h ****       STATIC_ASSERT(D::base + D::length <= size, delay_memory_full);
 1172              		.loc 3 171 17 is_stmt 0 view .LVU304
 1173              	.LBE1147:
 1174              	.LBE1149:
 1175              	.LBE1152:
 1176              	.LBE1156:
 1177              	.LBE1227:
  94:eurorack/clouds/dsp/fx/fx_engine.h ****   }
 1178              		.loc 3 94 5 is_stmt 1 view .LVU305
 1179              	.LBB1228:
 1180              	.LBB1157:
 1181              	.LBB1153:
 1182              	.LBB1150:
 1183              	.LBB1148:
 1184              	.LBB1146:
 177:eurorack/clouds/dsp/fx/fx_engine.h ****       }
 1185              		.loc 3 177 49 is_stmt 0 view .LVU306
 1186 014c C3F30A03 		ubfx	r3, r3, #0, #11
 177:eurorack/clouds/dsp/fx/fx_engine.h ****       }
 1187              		.loc 3 177 57 view .LVU307
 1188 0150 05EB8303 		add	r3, r5, r3, lsl #2
 1189 0154 C3ED006A 		vstr.32	s13, [r3]
 1190              	.LVL75:
 177:eurorack/clouds/dsp/fx/fx_engine.h ****       }
 1191              		.loc 3 177 57 view .LVU308
 1192              	.LBE1146:
 1193              	.LBE1148:
 1194              	.LBE1150:
 1195              	.LBE1153:
 1196              	.LBE1157:
 1197              	.LBB1158:
 1198              	.LBB1159:
 203:eurorack/clouds/dsp/fx/fx_engine.h ****       } else {
 1199              		.loc 3 203 55 view .LVU309
 1200 0158 04F25963 		addw	r3, r4, #1625
 1201              	.LBE1159:
 1202              	.LBE1158:
 1203              	.LBB1162:
 1204              	.LBB1154:
 1205              	.LBB1151:
 190:eurorack/clouds/dsp/fx/fx_engine.h ****     }
 1206              		.loc 3 190 20 view .LVU310
 1207 015c A6EEA76A 		vfma.f32	s12, s13, s15
 1208              	.LVL76:
 190:eurorack/clouds/dsp/fx/fx_engine.h ****     }
 1209              		.loc 3 190 20 view .LVU311
 1210              	.LBE1151:
 1211              	.LBE1154:
 1212              	.LBE1162:
  87:eurorack/clouds/dsp/fx/diffuser.h ****       c.Read(apr3 TAIL, kap);
 1213              		.loc 7 87 7 is_stmt 1 view .LVU312
 1214              	.LBB1163:
 1215              	.LBI1158:
 199:eurorack/clouds/dsp/fx/fx_engine.h ****       STATIC_ASSERT(D::base + D::length <= size, delay_memory_full);
 1216              		.loc 3 199 17 view .LVU313
 1217              	.LBB1160:
 203:eurorack/clouds/dsp/fx/fx_engine.h ****       } else {
ARM GAS  /var/folders/9s/8rp0_f2s1n31qbztm3b5_fdh0000gn/T//ccAcUEVW.s 			page 44


 1218              		.loc 3 203 60 is_stmt 0 view .LVU314
 1219 0160 C3F30A03 		ubfx	r3, r3, #0, #11
 203:eurorack/clouds/dsp/fx/fx_engine.h ****       } else {
 1220              		.loc 3 203 11 view .LVU315
 1221 0164 05EB8303 		add	r3, r5, r3, lsl #2
 1222 0168 D3ED006A 		vldr.32	s13, [r3]
 1223              	.LVL77:
 203:eurorack/clouds/dsp/fx/fx_engine.h ****       } else {
 1224              		.loc 3 203 11 view .LVU316
 1225              	.LBE1160:
 1226              	.LBE1163:
 1227              	.LBE1228:
  90:eurorack/clouds/dsp/fx/fx_engine.h ****   }
 1228              		.loc 3 90 5 is_stmt 1 view .LVU317
  90:eurorack/clouds/dsp/fx/fx_engine.h ****   }
 1229              		.loc 3 90 18 view .LVU318
 1230              	.LBB1229:
 1231              	.LBB1164:
 1232              	.LBB1165:
 1233              	.LBB1166:
 1234              	.LBB1167:
 1235              	.LBB1168:
 177:eurorack/clouds/dsp/fx/fx_engine.h ****       }
 1236              		.loc 3 177 29 is_stmt 0 view .LVU319
 1237 016c 04F26553 		addw	r3, r4, #1381
 1238              	.LBE1168:
 1239              	.LBE1167:
 1240              	.LBE1166:
 1241              	.LBE1165:
 1242              	.LBE1164:
 1243              	.LBB1178:
 1244              	.LBB1161:
 209:eurorack/clouds/dsp/fx/fx_engine.h ****     }
 1245              		.loc 3 209 20 view .LVU320
 1246 0170 A6EE876A 		vfma.f32	s12, s13, s14
 1247              	.LVL78:
 209:eurorack/clouds/dsp/fx/fx_engine.h ****     }
 1248              		.loc 3 209 20 view .LVU321
 1249              	.LBE1161:
 1250              	.LBE1178:
  88:eurorack/clouds/dsp/fx/diffuser.h ****       c.WriteAllPass(apr3, -kap);
 1251              		.loc 7 88 7 is_stmt 1 view .LVU322
 1252              	.LBB1179:
 1253              	.LBI1164:
 194:eurorack/clouds/dsp/fx/fx_engine.h ****       WriteAllPass(d, 0, scale);
 1254              		.loc 3 194 17 view .LVU323
 1255              	.LBB1175:
 1256              	.LBI1165:
 188:eurorack/clouds/dsp/fx/fx_engine.h ****       Write(d, offset, scale);
 1257              		.loc 3 188 17 view .LVU324
 1258              	.LBB1172:
 1259              	.LBB1170:
 1260              	.LBI1167:
 171:eurorack/clouds/dsp/fx/fx_engine.h ****       STATIC_ASSERT(D::base + D::length <= size, delay_memory_full);
 1261              		.loc 3 171 17 view .LVU325
 171:eurorack/clouds/dsp/fx/fx_engine.h ****       STATIC_ASSERT(D::base + D::length <= size, delay_memory_full);
 1262              		.loc 3 171 17 is_stmt 0 view .LVU326
ARM GAS  /var/folders/9s/8rp0_f2s1n31qbztm3b5_fdh0000gn/T//ccAcUEVW.s 			page 45


 1263              	.LBE1170:
 1264              	.LBE1172:
 1265              	.LBE1175:
 1266              	.LBE1179:
 1267              	.LBE1229:
  94:eurorack/clouds/dsp/fx/fx_engine.h ****   }
 1268              		.loc 3 94 5 is_stmt 1 view .LVU327
 1269              	.LBB1230:
 1270              	.LBB1180:
 1271              	.LBB1176:
 1272              	.LBB1173:
 1273              	.LBB1171:
 1274              	.LBB1169:
 177:eurorack/clouds/dsp/fx/fx_engine.h ****       }
 1275              		.loc 3 177 49 is_stmt 0 view .LVU328
 1276 0174 C3F30A03 		ubfx	r3, r3, #0, #11
 177:eurorack/clouds/dsp/fx/fx_engine.h ****       }
 1277              		.loc 3 177 57 view .LVU329
 1278 0178 05EB8303 		add	r3, r5, r3, lsl #2
 1279 017c 83ED006A 		vstr.32	s12, [r3]
 1280              	.LVL79:
 177:eurorack/clouds/dsp/fx/fx_engine.h ****       }
 1281              		.loc 3 177 57 view .LVU330
 1282              	.LBE1169:
 1283              	.LBE1171:
 1284              	.LBE1173:
 1285              	.LBE1176:
 1286              	.LBE1180:
 1287              	.LBB1181:
 1288              	.LBB1182:
 203:eurorack/clouds/dsp/fx/fx_engine.h ****       } else {
 1289              		.loc 3 203 55 view .LVU331
 1290 0180 04F2EF73 		addw	r3, r4, #2031
 1291              	.LBE1182:
 1292              	.LBE1181:
 1293              	.LBB1187:
 1294              	.LBB1177:
 1295              	.LBB1174:
 190:eurorack/clouds/dsp/fx/fx_engine.h ****     }
 1296              		.loc 3 190 20 view .LVU332
 1297 0184 E6EE276A 		vfma.f32	s13, s12, s15
 1298              	.LVL80:
 190:eurorack/clouds/dsp/fx/fx_engine.h ****     }
 1299              		.loc 3 190 20 view .LVU333
 1300              	.LBE1174:
 1301              	.LBE1177:
 1302              	.LBE1187:
  89:eurorack/clouds/dsp/fx/diffuser.h ****       c.Read(apr4 TAIL, kap);
 1303              		.loc 7 89 7 is_stmt 1 view .LVU334
 1304              	.LBB1188:
 1305              	.LBI1181:
 199:eurorack/clouds/dsp/fx/fx_engine.h ****       STATIC_ASSERT(D::base + D::length <= size, delay_memory_full);
 1306              		.loc 3 199 17 view .LVU335
 199:eurorack/clouds/dsp/fx/fx_engine.h ****       STATIC_ASSERT(D::base + D::length <= size, delay_memory_full);
 1307              		.loc 3 199 17 is_stmt 0 view .LVU336
 1308              	.LBE1188:
 1309              	.LBB1189:
ARM GAS  /var/folders/9s/8rp0_f2s1n31qbztm3b5_fdh0000gn/T//ccAcUEVW.s 			page 46


 1310              	.LBB1190:
 1311              	.LBB1191:
 1312              	.LBB1192:
 1313              	.LBB1193:
 177:eurorack/clouds/dsp/fx/fx_engine.h ****       }
 1314              		.loc 3 177 29 view .LVU337
 1315 0188 04F25B64 		addw	r4, r4, #1627
 1316              	.LBE1193:
 1317              	.LBE1192:
 1318              	.LBE1191:
 1319              	.LBE1190:
 1320              	.LBE1189:
 1321              	.LBB1209:
 1322              	.LBB1183:
 203:eurorack/clouds/dsp/fx/fx_engine.h ****       } else {
 1323              		.loc 3 203 60 view .LVU338
 1324 018c C3F30A03 		ubfx	r3, r3, #0, #11
 1325              	.LBE1183:
 1326              	.LBE1209:
 1327              	.LBB1210:
 1328              	.LBB1205:
 1329              	.LBB1201:
 1330              	.LBB1197:
 1331              	.LBB1194:
 177:eurorack/clouds/dsp/fx/fx_engine.h ****       }
 1332              		.loc 3 177 49 view .LVU339
 1333 0190 C4F30A04 		ubfx	r4, r4, #0, #11
 1334              	.LBE1194:
 1335              	.LBE1197:
 1336              	.LBE1201:
 1337              	.LBE1205:
 1338              	.LBE1210:
 1339              	.LBB1211:
 1340              	.LBB1184:
 203:eurorack/clouds/dsp/fx/fx_engine.h ****       } else {
 1341              		.loc 3 203 11 view .LVU340
 1342 0194 05EB8303 		add	r3, r5, r3, lsl #2
 1343              	.LBE1184:
 1344              	.LBE1211:
 1345              	.LBB1212:
 1346              	.LBB1206:
 1347              	.LBB1202:
 1348              	.LBB1198:
 1349              	.LBB1195:
 177:eurorack/clouds/dsp/fx/fx_engine.h ****       }
 1350              		.loc 3 177 57 view .LVU341
 1351 0198 05EB8404 		add	r4, r5, r4, lsl #2
 1352              	.LBE1195:
 1353              	.LBE1198:
 1354              	.LBE1202:
 1355              	.LBE1206:
 1356              	.LBE1212:
 1357              	.LBB1213:
 1358              	.LBB1185:
 203:eurorack/clouds/dsp/fx/fx_engine.h ****       } else {
 1359              		.loc 3 203 11 view .LVU342
 1360 019c 93ED006A 		vldr.32	s12, [r3]
ARM GAS  /var/folders/9s/8rp0_f2s1n31qbztm3b5_fdh0000gn/T//ccAcUEVW.s 			page 47


 1361              	.LVL81:
 203:eurorack/clouds/dsp/fx/fx_engine.h ****       } else {
 1362              		.loc 3 203 11 view .LVU343
 1363              	.LBE1185:
 1364              	.LBE1213:
 1365              	.LBE1230:
  90:eurorack/clouds/dsp/fx/fx_engine.h ****   }
 1366              		.loc 3 90 5 is_stmt 1 view .LVU344
  90:eurorack/clouds/dsp/fx/fx_engine.h ****   }
 1367              		.loc 3 90 18 view .LVU345
 1368              	.LBB1231:
 1369              	.LBB1214:
 1370              	.LBB1186:
 209:eurorack/clouds/dsp/fx/fx_engine.h ****     }
 1371              		.loc 3 209 20 is_stmt 0 view .LVU346
 1372 01a0 E6EE076A 		vfma.f32	s13, s12, s14
 1373              	.LVL82:
 209:eurorack/clouds/dsp/fx/fx_engine.h ****     }
 1374              		.loc 3 209 20 view .LVU347
 1375              	.LBE1186:
 1376              	.LBE1214:
  90:eurorack/clouds/dsp/fx/diffuser.h ****       c.WriteAllPass(apr4, -kap);
 1377              		.loc 7 90 7 is_stmt 1 view .LVU348
 1378              	.LBB1215:
 1379              	.LBI1189:
 194:eurorack/clouds/dsp/fx/fx_engine.h ****       WriteAllPass(d, 0, scale);
 1380              		.loc 3 194 17 view .LVU349
 1381              	.LBB1207:
 1382              	.LBI1190:
 188:eurorack/clouds/dsp/fx/fx_engine.h ****       Write(d, offset, scale);
 1383              		.loc 3 188 17 view .LVU350
 1384              	.LBB1203:
 1385              	.LBB1199:
 1386              	.LBI1192:
 171:eurorack/clouds/dsp/fx/fx_engine.h ****       STATIC_ASSERT(D::base + D::length <= size, delay_memory_full);
 1387              		.loc 3 171 17 view .LVU351
 171:eurorack/clouds/dsp/fx/fx_engine.h ****       STATIC_ASSERT(D::base + D::length <= size, delay_memory_full);
 1388              		.loc 3 171 17 is_stmt 0 view .LVU352
 1389              	.LBE1199:
 1390              	.LBE1203:
 1391              	.LBE1207:
 1392              	.LBE1215:
 1393              	.LBE1231:
  94:eurorack/clouds/dsp/fx/fx_engine.h ****   }
 1394              		.loc 3 94 5 is_stmt 1 view .LVU353
 1395              	.LBB1232:
 1396              	.LBB1216:
 1397              	.LBB1208:
 1398              	.LBB1204:
 190:eurorack/clouds/dsp/fx/fx_engine.h ****     }
 1399              		.loc 3 190 20 is_stmt 0 view .LVU354
 1400 01a4 A6EEA76A 		vfma.f32	s12, s13, s15
 1401              	.LVL83:
 1402              	.LBB1200:
 1403              	.LBB1196:
 177:eurorack/clouds/dsp/fx/fx_engine.h ****       }
 1404              		.loc 3 177 57 view .LVU355
ARM GAS  /var/folders/9s/8rp0_f2s1n31qbztm3b5_fdh0000gn/T//ccAcUEVW.s 			page 48


 1405 01a8 C4ED006A 		vstr.32	s13, [r4]
 1406              	.LVL84:
 177:eurorack/clouds/dsp/fx/fx_engine.h ****       }
 1407              		.loc 3 177 57 view .LVU356
 1408              	.LBE1196:
 1409              	.LBE1200:
 1410              	.LBE1204:
 1411              	.LBE1208:
 1412              	.LBE1216:
  91:eurorack/clouds/dsp/fx/diffuser.h ****       c.Write(wet, 0.0f);
 1413              		.loc 7 91 7 is_stmt 1 view .LVU357
  92:eurorack/clouds/dsp/fx/diffuser.h ****       in_out->r += amount_ * (wet - in_out->r);
 1414              		.loc 7 92 7 view .LVU358
 1415              		.loc 7 92 17 is_stmt 0 view .LVU359
 1416 01ac 57ED037A 		vldr.32	s15, [r7, #-12]
 1417 01b0 96ED0A7A 		vldr.32	s14, [r6, #40]
 1418              		.loc 7 92 35 view .LVU360
 1419 01b4 36EE676A 		vsub.f32	s12, s12, s15
 1420              	.LVL85:
 1421              		.loc 7 92 17 view .LVU361
 1422 01b8 E7EE067A 		vfma.f32	s15, s14, s12
 1423 01bc 47ED037A 		vstr.32	s15, [r7, #-12]
  93:eurorack/clouds/dsp/fx/diffuser.h **** 
  94:eurorack/clouds/dsp/fx/diffuser.h ****       ++in_out;
 1424              		.loc 7 94 7 is_stmt 1 view .LVU362
 1425              	.LVL86:
 1426              		.loc 7 94 7 is_stmt 0 view .LVU363
 1427              	.LBE1232:
  66:eurorack/clouds/dsp/fx/diffuser.h ****       engine_.Start(&c);
 1428              		.loc 7 66 5 view .LVU364
 1429 01c0 24E7     		b	.L22
 1430              	.LVL87:
 1431              	.L17:
  95:eurorack/clouds/dsp/fx/diffuser.h ****     }
  96:eurorack/clouds/dsp/fx/diffuser.h ****   }
 1432              		.loc 7 96 3 view .LVU365
 1433 01c2 BDE8F081 		pop	{r4, r5, r6, r7, r8, pc}
 1434              	.LVL88:
 1435              	.L24:
 1436              		.loc 7 96 3 view .LVU366
 1437 01c6 00BF     		.align	2
 1438              	.L23:
 1439 01c8 00000000 		.word	0
 1440              		.cfi_endproc
 1441              	.LFE1552:
 1443              		.section	.text._ZN6clouds12PitchShifter7ProcessEPNS_10FloatFrameE,"axG",%progbits,_ZN6clouds12Pitc
 1444              		.align	1
 1445              		.weak	_ZN6clouds12PitchShifter7ProcessEPNS_10FloatFrameE
 1446              		.syntax unified
 1447              		.thumb
 1448              		.thumb_func
 1450              	_ZN6clouds12PitchShifter7ProcessEPNS_10FloatFrameE:
 1451              	.LVL89:
 1452              	.LFB1563:
 1453              		.file 8 "eurorack/clouds/dsp/fx/pitch_shifter.h"
   1:eurorack/clouds/dsp/fx/pitch_shifter.h **** // Copyright 2014 Emilie Gillet.
   2:eurorack/clouds/dsp/fx/pitch_shifter.h **** //
ARM GAS  /var/folders/9s/8rp0_f2s1n31qbztm3b5_fdh0000gn/T//ccAcUEVW.s 			page 49


   3:eurorack/clouds/dsp/fx/pitch_shifter.h **** // Author: Emilie Gillet (emilie.o.gillet@gmail.com)
   4:eurorack/clouds/dsp/fx/pitch_shifter.h **** //
   5:eurorack/clouds/dsp/fx/pitch_shifter.h **** // Permission is hereby granted, free of charge, to any person obtaining a copy
   6:eurorack/clouds/dsp/fx/pitch_shifter.h **** // of this software and associated documentation files (the "Software"), to deal
   7:eurorack/clouds/dsp/fx/pitch_shifter.h **** // in the Software without restriction, including without limitation the rights
   8:eurorack/clouds/dsp/fx/pitch_shifter.h **** // to use, copy, modify, merge, publish, distribute, sublicense, and/or sell
   9:eurorack/clouds/dsp/fx/pitch_shifter.h **** // copies of the Software, and to permit persons to whom the Software is
  10:eurorack/clouds/dsp/fx/pitch_shifter.h **** // furnished to do so, subject to the following conditions:
  11:eurorack/clouds/dsp/fx/pitch_shifter.h **** // 
  12:eurorack/clouds/dsp/fx/pitch_shifter.h **** // The above copyright notice and this permission notice shall be included in
  13:eurorack/clouds/dsp/fx/pitch_shifter.h **** // all copies or substantial portions of the Software.
  14:eurorack/clouds/dsp/fx/pitch_shifter.h **** // 
  15:eurorack/clouds/dsp/fx/pitch_shifter.h **** // THE SOFTWARE IS PROVIDED "AS IS", WITHOUT WARRANTY OF ANY KIND, EXPRESS OR
  16:eurorack/clouds/dsp/fx/pitch_shifter.h **** // IMPLIED, INCLUDING BUT NOT LIMITED TO THE WARRANTIES OF MERCHANTABILITY,
  17:eurorack/clouds/dsp/fx/pitch_shifter.h **** // FITNESS FOR A PARTICULAR PURPOSE AND NONINFRINGEMENT. IN NO EVENT SHALL THE
  18:eurorack/clouds/dsp/fx/pitch_shifter.h **** // AUTHORS OR COPYRIGHT HOLDERS BE LIABLE FOR ANY CLAIM, DAMAGES OR OTHER
  19:eurorack/clouds/dsp/fx/pitch_shifter.h **** // LIABILITY, WHETHER IN AN ACTION OF CONTRACT, TORT OR OTHERWISE, ARISING FROM,
  20:eurorack/clouds/dsp/fx/pitch_shifter.h **** // OUT OF OR IN CONNECTION WITH THE SOFTWARE OR THE USE OR OTHER DEALINGS IN
  21:eurorack/clouds/dsp/fx/pitch_shifter.h **** // THE SOFTWARE.
  22:eurorack/clouds/dsp/fx/pitch_shifter.h **** // 
  23:eurorack/clouds/dsp/fx/pitch_shifter.h **** // See http://creativecommons.org/licenses/MIT/ for more information.
  24:eurorack/clouds/dsp/fx/pitch_shifter.h **** //
  25:eurorack/clouds/dsp/fx/pitch_shifter.h **** // -----------------------------------------------------------------------------
  26:eurorack/clouds/dsp/fx/pitch_shifter.h **** //
  27:eurorack/clouds/dsp/fx/pitch_shifter.h **** // Pitch shifter.
  28:eurorack/clouds/dsp/fx/pitch_shifter.h **** 
  29:eurorack/clouds/dsp/fx/pitch_shifter.h **** #ifndef CLOUDS_DSP_FX_PITCH_SHIFTER_H_
  30:eurorack/clouds/dsp/fx/pitch_shifter.h **** #define CLOUDS_DSP_FX_PITCH_SHIFTER_H_
  31:eurorack/clouds/dsp/fx/pitch_shifter.h **** 
  32:eurorack/clouds/dsp/fx/pitch_shifter.h **** #include "stmlib/stmlib.h"
  33:eurorack/clouds/dsp/fx/pitch_shifter.h **** 
  34:eurorack/clouds/dsp/fx/pitch_shifter.h **** #include "clouds/dsp/frame.h"
  35:eurorack/clouds/dsp/fx/pitch_shifter.h **** #include "clouds/dsp/fx/fx_engine.h"
  36:eurorack/clouds/dsp/fx/pitch_shifter.h **** 
  37:eurorack/clouds/dsp/fx/pitch_shifter.h **** namespace clouds {
  38:eurorack/clouds/dsp/fx/pitch_shifter.h **** 
  39:eurorack/clouds/dsp/fx/pitch_shifter.h **** class PitchShifter {
  40:eurorack/clouds/dsp/fx/pitch_shifter.h ****  public:
  41:eurorack/clouds/dsp/fx/pitch_shifter.h ****   PitchShifter() { }
  42:eurorack/clouds/dsp/fx/pitch_shifter.h ****   ~PitchShifter() { }
  43:eurorack/clouds/dsp/fx/pitch_shifter.h ****   
  44:eurorack/clouds/dsp/fx/pitch_shifter.h ****   void Init(uint16_t* buffer) {
  45:eurorack/clouds/dsp/fx/pitch_shifter.h ****     engine_.Init(buffer);
  46:eurorack/clouds/dsp/fx/pitch_shifter.h ****     phase_ = 0;
  47:eurorack/clouds/dsp/fx/pitch_shifter.h ****     size_ = 2047.0f;
  48:eurorack/clouds/dsp/fx/pitch_shifter.h ****   }
  49:eurorack/clouds/dsp/fx/pitch_shifter.h ****   
  50:eurorack/clouds/dsp/fx/pitch_shifter.h ****   void Clear() {
  51:eurorack/clouds/dsp/fx/pitch_shifter.h ****     engine_.Clear();
  52:eurorack/clouds/dsp/fx/pitch_shifter.h ****   }
  53:eurorack/clouds/dsp/fx/pitch_shifter.h **** 
  54:eurorack/clouds/dsp/fx/pitch_shifter.h ****   inline void Process(FloatFrame* input_output, size_t size) {
  55:eurorack/clouds/dsp/fx/pitch_shifter.h ****     while (size--) {
  56:eurorack/clouds/dsp/fx/pitch_shifter.h ****       Process(input_output);
  57:eurorack/clouds/dsp/fx/pitch_shifter.h ****       ++input_output;
  58:eurorack/clouds/dsp/fx/pitch_shifter.h ****     }
  59:eurorack/clouds/dsp/fx/pitch_shifter.h ****   }
ARM GAS  /var/folders/9s/8rp0_f2s1n31qbztm3b5_fdh0000gn/T//ccAcUEVW.s 			page 50


  60:eurorack/clouds/dsp/fx/pitch_shifter.h ****   
  61:eurorack/clouds/dsp/fx/pitch_shifter.h ****   void Process(FloatFrame* input_output) {
 1454              		.loc 8 61 8 is_stmt 1 view -0
 1455              		.cfi_startproc
 1456              		@ args = 0, pretend = 0, frame = 24
 1457              		@ frame_needed = 0, uses_anonymous_args = 0
  62:eurorack/clouds/dsp/fx/pitch_shifter.h ****     typedef E::Reserve<2047, E::Reserve<2047> > Memory;
 1458              		.loc 8 62 5 view .LVU368
  63:eurorack/clouds/dsp/fx/pitch_shifter.h ****     E::DelayLine<Memory, 0> left;
 1459              		.loc 8 63 5 view .LVU369
  64:eurorack/clouds/dsp/fx/pitch_shifter.h ****     E::DelayLine<Memory, 1> right;
 1460              		.loc 8 64 5 view .LVU370
  65:eurorack/clouds/dsp/fx/pitch_shifter.h ****     E::Context c;
 1461              		.loc 8 65 5 view .LVU371
 1462              	.LBB1273:
 1463              	.LBB1274:
 271:eurorack/clouds/dsp/fx/fx_engine.h ****     if (write_ptr_ < 0) {
 1464              		.loc 3 271 7 is_stmt 0 view .LVU372
 1465 0000 0368     		ldr	r3, [r0]
 272:eurorack/clouds/dsp/fx/fx_engine.h ****       write_ptr_ += size;
 1466              		.loc 3 272 5 view .LVU373
 1467 0002 5A1E     		subs	r2, r3, #1
 273:eurorack/clouds/dsp/fx/fx_engine.h ****     }
 1468              		.loc 3 273 18 view .LVU374
 1469 0004 48BF     		it	mi
 1470 0006 03F6FF73 		addwmi	r3, r3, #4095
 1471              	.LBE1274:
 1472              	.LBE1273:
  61:eurorack/clouds/dsp/fx/pitch_shifter.h ****     typedef E::Reserve<2047, E::Reserve<2047> > Memory;
 1473              		.loc 8 61 8 view .LVU375
 1474 000a 30B5     		push	{r4, r5, lr}
 1475              		.cfi_def_cfa_offset 12
 1476              		.cfi_offset 4, -12
 1477              		.cfi_offset 5, -8
 1478              		.cfi_offset 14, -4
 1479 000c 2DED028B 		vpush.64	{d8}
 1480              		.cfi_def_cfa_offset 20
 1481              		.cfi_offset 80, -20
 1482              		.cfi_offset 81, -16
 1483              	.LBB1286:
 1484              	.LBB1281:
 273:eurorack/clouds/dsp/fx/fx_engine.h ****     }
 1485              		.loc 3 273 18 view .LVU376
 1486 0010 48BF     		it	mi
 1487 0012 0360     		strmi	r3, [r0]
 1488              	.LBE1281:
 1489              	.LBE1286:
  61:eurorack/clouds/dsp/fx/pitch_shifter.h ****     typedef E::Reserve<2047, E::Reserve<2047> > Memory;
 1490              		.loc 8 61 8 view .LVU377
 1491 0014 87B0     		sub	sp, sp, #28
 1492              		.cfi_def_cfa_offset 48
 1493              	.LVL90:
 1494              	.LBB1287:
 1495              	.LBI1287:
 146:eurorack/clouds/dsp/fx/fx_engine.h ****     ~Context() { }
 1496              		.loc 3 146 5 is_stmt 1 view .LVU378
 146:eurorack/clouds/dsp/fx/fx_engine.h ****     ~Context() { }
ARM GAS  /var/folders/9s/8rp0_f2s1n31qbztm3b5_fdh0000gn/T//ccAcUEVW.s 			page 51


 1497              		.loc 3 146 5 is_stmt 0 view .LVU379
 1498              	.LBE1287:
  66:eurorack/clouds/dsp/fx/pitch_shifter.h ****     engine_.Start(&c);
 1499              		.loc 8 66 5 is_stmt 1 view .LVU380
 1500              	.LBB1288:
 1501              	.LBI1273:
 270:eurorack/clouds/dsp/fx/fx_engine.h ****     --write_ptr_;
 1502              		.loc 3 270 15 view .LVU381
 1503              	.LBB1282:
 277:eurorack/clouds/dsp/fx/fx_engine.h ****     c->write_ptr_ = write_ptr_;
 1504              		.loc 3 277 16 is_stmt 0 view .LVU382
 1505 0016 4368     		ldr	r3, [r0, #4]
 1506 0018 F6EE008A 		vmov.f32	s17, #5.0e-1
 271:eurorack/clouds/dsp/fx/fx_engine.h ****     if (write_ptr_ < 0) {
 1507              		.loc 3 271 5 view .LVU383
 1508 001c 58BF     		it	pl
 1509 001e 0260     		strpl	r2, [r0]
 1510              	.LBE1282:
 1511              	.LBE1288:
  61:eurorack/clouds/dsp/fx/pitch_shifter.h ****     typedef E::Reserve<2047, E::Reserve<2047> > Memory;
 1512              		.loc 8 61 8 view .LVU384
 1513 0020 0446     		mov	r4, r0
 1514              	.LBB1289:
 1515              	.LBB1283:
 277:eurorack/clouds/dsp/fx/fx_engine.h ****     c->write_ptr_ = write_ptr_;
 1516              		.loc 3 277 16 view .LVU385
 1517 0022 0493     		str	r3, [sp, #16]
 1518              	.LBE1283:
 1519              	.LBE1289:
  61:eurorack/clouds/dsp/fx/pitch_shifter.h ****     typedef E::Reserve<2047, E::Reserve<2047> > Memory;
 1520              		.loc 8 61 8 view .LVU386
 1521 0024 0D46     		mov	r5, r1
 1522              	.LBB1290:
 1523              	.LBB1284:
 278:eurorack/clouds/dsp/fx/fx_engine.h ****     if ((write_ptr_ & 31) == 0) {
 1524              		.loc 3 278 21 view .LVU387
 1525 0026 0368     		ldr	r3, [r0]
 275:eurorack/clouds/dsp/fx/fx_engine.h ****     c->previous_read_ = 0.0f;
 1526              		.loc 3 275 21 view .LVU388
 1527 0028 9FED598A 		vldr.32	s16, .L44
 279:eurorack/clouds/dsp/fx/fx_engine.h ****       c->lfo_value_[0] = lfo_[0].Next();
 1528              		.loc 3 279 5 view .LVU389
 1529 002c 13F01F0F 		tst	r3, #31
 278:eurorack/clouds/dsp/fx/fx_engine.h ****     if ((write_ptr_ & 31) == 0) {
 1530              		.loc 3 278 19 view .LVU390
 1531 0030 0593     		str	r3, [sp, #20]
 275:eurorack/clouds/dsp/fx/fx_engine.h ****     c->previous_read_ = 0.0f;
 1532              		.loc 3 275 21 view .LVU391
 1533 0032 8DED008A 		vstr.32	s16, [sp]
 276:eurorack/clouds/dsp/fx/fx_engine.h ****     c->buffer_ = buffer_;
 1534              		.loc 3 276 23 view .LVU392
 1535 0036 8DED018A 		vstr.32	s16, [sp, #4]
 279:eurorack/clouds/dsp/fx/fx_engine.h ****       c->lfo_value_[0] = lfo_[0].Next();
 1536              		.loc 3 279 5 view .LVU393
 1537 003a 40F09C80 		bne	.L28
 1538              	.LVL91:
 1539              	.LBB1275:
ARM GAS  /var/folders/9s/8rp0_f2s1n31qbztm3b5_fdh0000gn/T//ccAcUEVW.s 			page 52


 1540              	.LBI1275:
 270:eurorack/clouds/dsp/fx/fx_engine.h ****     --write_ptr_;
 1541              		.loc 3 270 15 is_stmt 1 view .LVU394
 1542              	.LBB1276:
 280:eurorack/clouds/dsp/fx/fx_engine.h ****       c->lfo_value_[1] = lfo_[1].Next();
 1543              		.loc 3 280 38 is_stmt 0 view .LVU395
 1544 003e 0830     		adds	r0, r0, #8
 1545              	.LVL92:
 280:eurorack/clouds/dsp/fx/fx_engine.h ****       c->lfo_value_[1] = lfo_[1].Next();
 1546              		.loc 3 280 38 view .LVU396
 1547 0040 FFF7FEFF 		bl	_ZN6stmlib16CosineOscillator4NextEv
 1548              	.LVL93:
 1549              		.loc 3 281 38 view .LVU397
 1550 0044 04F11800 		add	r0, r4, #24
 280:eurorack/clouds/dsp/fx/fx_engine.h ****       c->lfo_value_[1] = lfo_[1].Next();
 1551              		.loc 3 280 24 view .LVU398
 1552 0048 8DED020A 		vstr.32	s0, [sp, #8]
 1553              		.loc 3 281 38 view .LVU399
 1554 004c FFF7FEFF 		bl	_ZN6stmlib16CosineOscillator4NextEv
 1555              	.LVL94:
 1556              		.loc 3 281 24 view .LVU400
 1557 0050 8DED030A 		vstr.32	s0, [sp, #12]
 1558              	.LVL95:
 1559              	.L29:
 1560              		.loc 3 281 24 view .LVU401
 1561              	.LBE1276:
 1562              	.LBE1275:
 1563              	.LBE1284:
 1564              	.LBE1290:
  67:eurorack/clouds/dsp/fx/pitch_shifter.h ****     
  68:eurorack/clouds/dsp/fx/pitch_shifter.h ****     phase_ += (1.0f - ratio_) / size_;
 1565              		.loc 8 68 5 is_stmt 1 view .LVU402
 1566              		.loc 8 68 21 is_stmt 0 view .LVU403
 1567 0054 B7EE006A 		vmov.f32	s12, #1.0e+0
 1568 0058 D4ED0B6A 		vldr.32	s13, [r4, #44]
 1569              		.loc 8 68 33 view .LVU404
 1570 005c 94ED0C7A 		vldr.32	s14, [r4, #48]
  69:eurorack/clouds/dsp/fx/pitch_shifter.h ****     if (phase_ >= 1.0f) {
  70:eurorack/clouds/dsp/fx/pitch_shifter.h ****       phase_ -= 1.0f;
  71:eurorack/clouds/dsp/fx/pitch_shifter.h ****     }
  72:eurorack/clouds/dsp/fx/pitch_shifter.h ****     if (phase_ <= 0.0f) {
  73:eurorack/clouds/dsp/fx/pitch_shifter.h ****       phase_ += 1.0f;
  74:eurorack/clouds/dsp/fx/pitch_shifter.h ****     }
  75:eurorack/clouds/dsp/fx/pitch_shifter.h ****     float tri = 2.0f * (phase_ >= 0.5f ? 1.0f - phase_ : phase_);
  76:eurorack/clouds/dsp/fx/pitch_shifter.h ****     float phase = phase_ * size_;
  77:eurorack/clouds/dsp/fx/pitch_shifter.h ****     float half = phase + size_ * 0.5f;
  78:eurorack/clouds/dsp/fx/pitch_shifter.h ****     if (half >= size_) {
  79:eurorack/clouds/dsp/fx/pitch_shifter.h ****       half -= size_;
  80:eurorack/clouds/dsp/fx/pitch_shifter.h ****     }
  81:eurorack/clouds/dsp/fx/pitch_shifter.h ****     
  82:eurorack/clouds/dsp/fx/pitch_shifter.h ****     c.Read(input_output->l, 1.0f);
  83:eurorack/clouds/dsp/fx/pitch_shifter.h ****     c.Write(left, 0.0f);
  84:eurorack/clouds/dsp/fx/pitch_shifter.h ****     c.Interpolate(left, phase, tri);
 1571              		.loc 8 84 18 view .LVU405
 1572 0060 6846     		mov	r0, sp
 1573              	.LBB1291:
 1574              	.LBB1292:
ARM GAS  /var/folders/9s/8rp0_f2s1n31qbztm3b5_fdh0000gn/T//ccAcUEVW.s 			page 53


 1575              	.LBB1293:
 177:eurorack/clouds/dsp/fx/fx_engine.h ****       }
 1576              		.loc 3 177 49 view .LVU406
 1577 0062 059B     		ldr	r3, [sp, #20]
 1578              	.LBE1293:
 1579              	.LBE1292:
 1580              	.LBE1291:
  68:eurorack/clouds/dsp/fx/pitch_shifter.h ****     if (phase_ >= 1.0f) {
 1581              		.loc 8 68 21 view .LVU407
 1582 0064 76EE666A 		vsub.f32	s13, s12, s13
 1583              	.LBB1306:
 1584              	.LBB1304:
 1585              	.LBB1302:
 177:eurorack/clouds/dsp/fx/fx_engine.h ****       }
 1586              		.loc 3 177 57 view .LVU408
 1587 0068 0499     		ldr	r1, [sp, #16]
 177:eurorack/clouds/dsp/fx/fx_engine.h ****       }
 1588              		.loc 3 177 49 view .LVU409
 1589 006a C3F30B03 		ubfx	r3, r3, #0, #12
 1590              	.LBE1302:
 1591              	.LBE1304:
 1592              	.LBE1306:
  68:eurorack/clouds/dsp/fx/pitch_shifter.h ****     if (phase_ >= 1.0f) {
 1593              		.loc 8 68 31 view .LVU410
 1594 006e C6EE877A 		vdiv.f32	s15, s13, s14
  68:eurorack/clouds/dsp/fx/pitch_shifter.h ****     if (phase_ >= 1.0f) {
 1595              		.loc 8 68 12 view .LVU411
 1596 0072 D4ED0A6A 		vldr.32	s13, [r4, #40]
 1597 0076 77EEA67A 		vadd.f32	s15, s15, s13
  69:eurorack/clouds/dsp/fx/pitch_shifter.h ****     if (phase_ >= 1.0f) {
 1598              		.loc 8 69 5 is_stmt 1 view .LVU412
 1599 007a F4EEC67A 		vcmpe.f32	s15, s12
 1600 007e F1EE10FA 		vmrs	APSR_nzcv, FPSCR
  70:eurorack/clouds/dsp/fx/pitch_shifter.h ****     }
 1601              		.loc 8 70 7 view .LVU413
  70:eurorack/clouds/dsp/fx/pitch_shifter.h ****     }
 1602              		.loc 8 70 14 is_stmt 0 view .LVU414
 1603 0082 A8BF     		it	ge
 1604 0084 77EEC67A 		vsubge.f32	s15, s15, s12
 1605 0088 C4ED0A7A 		vstr.32	s15, [r4, #40]
  72:eurorack/clouds/dsp/fx/pitch_shifter.h ****       phase_ += 1.0f;
 1606              		.loc 8 72 5 is_stmt 1 view .LVU415
  72:eurorack/clouds/dsp/fx/pitch_shifter.h ****       phase_ += 1.0f;
 1607              		.loc 8 72 9 is_stmt 0 view .LVU416
 1608 008c D4ED0A7A 		vldr.32	s15, [r4, #40]
  72:eurorack/clouds/dsp/fx/pitch_shifter.h ****       phase_ += 1.0f;
 1609              		.loc 8 72 5 view .LVU417
 1610 0090 F5EEC07A 		vcmpe.f32	s15, #0
 1611 0094 F1EE10FA 		vmrs	APSR_nzcv, FPSCR
  73:eurorack/clouds/dsp/fx/pitch_shifter.h ****     }
 1612              		.loc 8 73 7 is_stmt 1 view .LVU418
  73:eurorack/clouds/dsp/fx/pitch_shifter.h ****     }
 1613              		.loc 8 73 14 is_stmt 0 view .LVU419
 1614 0098 9CBF     		itt	ls
 1615 009a 77EE867A 		vaddls.f32	s15, s15, s12
 1616 009e C4ED0A7A 		vstrls.32	s15, [r4, #40]
  75:eurorack/clouds/dsp/fx/pitch_shifter.h ****     float phase = phase_ * size_;
ARM GAS  /var/folders/9s/8rp0_f2s1n31qbztm3b5_fdh0000gn/T//ccAcUEVW.s 			page 54


 1617              		.loc 8 75 5 is_stmt 1 view .LVU420
  75:eurorack/clouds/dsp/fx/pitch_shifter.h ****     float phase = phase_ * size_;
 1618              		.loc 8 75 25 is_stmt 0 view .LVU421
 1619 00a2 94ED0A0A 		vldr.32	s0, [r4, #40]
 1620              	.LBB1307:
 1621              	.LBB1308:
 154:eurorack/clouds/dsp/fx/fx_engine.h ****     }
 1622              		.loc 3 154 20 view .LVU422
 1623 00a6 DDED007A 		vldr.32	s15, [sp]
 1624              	.LBE1308:
 1625              	.LBE1307:
  76:eurorack/clouds/dsp/fx/pitch_shifter.h ****     float half = phase + size_ * 0.5f;
 1626              		.loc 8 76 11 view .LVU423
 1627 00aa 67EE005A 		vmul.f32	s11, s14, s0
  75:eurorack/clouds/dsp/fx/pitch_shifter.h ****     float phase = phase_ * size_;
 1628              		.loc 8 75 40 view .LVU424
 1629 00ae B4EEE80A 		vcmpe.f32	s0, s17
  77:eurorack/clouds/dsp/fx/pitch_shifter.h ****     if (half >= size_) {
 1630              		.loc 8 77 11 view .LVU425
 1631 00b2 F0EE654A 		vmov.f32	s9, s11
  75:eurorack/clouds/dsp/fx/pitch_shifter.h ****     float phase = phase_ * size_;
 1632              		.loc 8 75 40 view .LVU426
 1633 00b6 F1EE10FA 		vmrs	APSR_nzcv, FPSCR
  77:eurorack/clouds/dsp/fx/pitch_shifter.h ****     if (half >= size_) {
 1634              		.loc 8 77 11 view .LVU427
 1635 00ba E7EE284A 		vfma.f32	s9, s14, s17
  75:eurorack/clouds/dsp/fx/pitch_shifter.h ****     float phase = phase_ * size_;
 1636              		.loc 8 75 40 view .LVU428
 1637 00be ACBF     		ite	ge
 1638 00c0 36EE405A 		vsubge.f32	s10, s12, s0
 1639 00c4 B0EE405A 		vmovlt.f32	s10, s0
 1640              		.loc 8 84 18 view .LVU429
 1641 00c8 B0EE650A 		vmov.f32	s0, s11
  75:eurorack/clouds/dsp/fx/pitch_shifter.h ****     float phase = phase_ * size_;
 1642              		.loc 8 75 11 view .LVU430
 1643 00cc 35EE055A 		vadd.f32	s10, s10, s10
 1644              	.LVL96:
  76:eurorack/clouds/dsp/fx/pitch_shifter.h ****     float half = phase + size_ * 0.5f;
 1645              		.loc 8 76 5 is_stmt 1 view .LVU431
  77:eurorack/clouds/dsp/fx/pitch_shifter.h ****     if (half >= size_) {
 1646              		.loc 8 77 5 view .LVU432
  78:eurorack/clouds/dsp/fx/pitch_shifter.h ****       half -= size_;
 1647              		.loc 8 78 5 view .LVU433
 1648 00d0 B4EEE47A 		vcmpe.f32	s14, s9
 1649              		.loc 8 84 18 is_stmt 0 view .LVU434
 1650 00d4 F0EE450A 		vmov.f32	s1, s10
  78:eurorack/clouds/dsp/fx/pitch_shifter.h ****       half -= size_;
 1651              		.loc 8 78 5 view .LVU435
 1652 00d8 F1EE10FA 		vmrs	APSR_nzcv, FPSCR
  79:eurorack/clouds/dsp/fx/pitch_shifter.h ****     }
 1653              		.loc 8 79 7 is_stmt 1 view .LVU436
  79:eurorack/clouds/dsp/fx/pitch_shifter.h ****     }
 1654              		.loc 8 79 12 is_stmt 0 view .LVU437
 1655 00dc 98BF     		it	ls
 1656 00de 74EEC74A 		vsubls.f32	s9, s9, s14
 1657              	.LVL97:
  82:eurorack/clouds/dsp/fx/pitch_shifter.h ****     c.Write(left, 0.0f);
ARM GAS  /var/folders/9s/8rp0_f2s1n31qbztm3b5_fdh0000gn/T//ccAcUEVW.s 			page 55


 1658              		.loc 8 82 5 is_stmt 1 view .LVU438
 1659              	.LBB1310:
 1660              	.LBI1307:
 153:eurorack/clouds/dsp/fx/fx_engine.h ****       accumulator_ += value * scale;
 1661              		.loc 3 153 17 view .LVU439
 1662              	.LBB1309:
 154:eurorack/clouds/dsp/fx/fx_engine.h ****     }
 1663              		.loc 3 154 20 is_stmt 0 view .LVU440
 1664 00e2 95ED007A 		vldr.32	s14, [r5]
 1665 00e6 37EE277A 		vadd.f32	s14, s14, s15
 1666              	.LVL98:
 154:eurorack/clouds/dsp/fx/fx_engine.h ****     }
 1667              		.loc 3 154 20 view .LVU441
 1668              	.LBE1309:
 1669              	.LBE1310:
  83:eurorack/clouds/dsp/fx/pitch_shifter.h ****     c.Interpolate(left, phase, tri);
 1670              		.loc 8 83 5 is_stmt 1 view .LVU442
 1671              	.LBB1311:
 1672              	.LBI1291:
 183:eurorack/clouds/dsp/fx/fx_engine.h ****       Write(d, 0, scale);
 1673              		.loc 3 183 17 view .LVU443
 1674              	.LBB1305:
 1675              	.LBI1292:
 171:eurorack/clouds/dsp/fx/fx_engine.h ****       STATIC_ASSERT(D::base + D::length <= size, delay_memory_full);
 1676              		.loc 3 171 17 view .LVU444
 1677              	.LBB1303:
 1678              	.LBB1294:
 1679              	.LBI1294:
  79:eurorack/clouds/dsp/fx/fx_engine.h ****     return static_cast<uint16_t>(
 1680              		.loc 3 79 19 view .LVU445
 1681              	.LBB1295:
  80:eurorack/clouds/dsp/fx/fx_engine.h ****         stmlib::Clip16(static_cast<int32_t>(value * 32768.0f)));
 1682              		.loc 3 80 5 view .LVU446
 1683              	.LBB1296:
 1684              	.LBI1296:
 104:eurorack/stmlib/dsp/dsp.h **** 
 105:eurorack/stmlib/dsp/dsp.h **** inline float SoftClip(float x) {
 106:eurorack/stmlib/dsp/dsp.h ****   if (x < -3.0f) {
 107:eurorack/stmlib/dsp/dsp.h ****     return -1.0f;
 108:eurorack/stmlib/dsp/dsp.h ****   } else if (x > 3.0f) {
 109:eurorack/stmlib/dsp/dsp.h ****     return 1.0f;
 110:eurorack/stmlib/dsp/dsp.h ****   } else {
 111:eurorack/stmlib/dsp/dsp.h ****     return SoftLimit(x);
 112:eurorack/stmlib/dsp/dsp.h ****   }
 113:eurorack/stmlib/dsp/dsp.h **** }
 114:eurorack/stmlib/dsp/dsp.h **** 
 115:eurorack/stmlib/dsp/dsp.h **** #ifdef TEST
 116:eurorack/stmlib/dsp/dsp.h ****   inline int32_t Clip16(int32_t x) {
 117:eurorack/stmlib/dsp/dsp.h ****     if (x < -32768) {
 118:eurorack/stmlib/dsp/dsp.h ****       return -32768;
 119:eurorack/stmlib/dsp/dsp.h ****     } else if (x > 32767) {
 120:eurorack/stmlib/dsp/dsp.h ****       return 32767;
 121:eurorack/stmlib/dsp/dsp.h ****     } else {
 122:eurorack/stmlib/dsp/dsp.h ****       return x;
 123:eurorack/stmlib/dsp/dsp.h ****     }
 124:eurorack/stmlib/dsp/dsp.h ****   }
 125:eurorack/stmlib/dsp/dsp.h ****   inline uint16_t ClipU16(int32_t x) {
ARM GAS  /var/folders/9s/8rp0_f2s1n31qbztm3b5_fdh0000gn/T//ccAcUEVW.s 			page 56


 126:eurorack/stmlib/dsp/dsp.h ****     if (x < 0) {
 127:eurorack/stmlib/dsp/dsp.h ****       return 0;
 128:eurorack/stmlib/dsp/dsp.h ****     } else if (x > 65535) {
 129:eurorack/stmlib/dsp/dsp.h ****       return 65535;
 130:eurorack/stmlib/dsp/dsp.h ****     } else {
 131:eurorack/stmlib/dsp/dsp.h ****       return x;
 132:eurorack/stmlib/dsp/dsp.h ****     }
 133:eurorack/stmlib/dsp/dsp.h ****   }
 134:eurorack/stmlib/dsp/dsp.h **** #else
 135:eurorack/stmlib/dsp/dsp.h ****   inline int32_t Clip16(int32_t x) {
 1685              		.loc 5 135 18 view .LVU447
 1686              	.LBB1297:
 136:eurorack/stmlib/dsp/dsp.h ****     int32_t result;
 1687              		.loc 5 136 5 view .LVU448
 137:eurorack/stmlib/dsp/dsp.h ****     __asm ("ssat %0, %1, %2" : "=r" (result) :  "I" (16), "r" (x) );
 1688              		.loc 5 137 5 view .LVU449
 1689              	.LBE1297:
 1690              	.LBE1296:
  81:eurorack/clouds/dsp/fx/fx_engine.h ****   }
 1691              		.loc 3 81 23 is_stmt 0 view .LVU450
 1692 00ea F0EE477A 		vmov.f32	s15, s14
 1693              	.LBE1295:
 1694              	.LBE1294:
 179:eurorack/clouds/dsp/fx/fx_engine.h ****     }
 1695              		.loc 3 179 20 view .LVU451
 1696 00ee 27EE087A 		vmul.f32	s14, s14, s16
 1697              	.LVL99:
 1698              	.LBB1301:
 1699              	.LBB1300:
  81:eurorack/clouds/dsp/fx/fx_engine.h ****   }
 1700              		.loc 3 81 23 view .LVU452
 1701 00f2 FEEEE87A 		vcvt.s32.f32	s15, s15, #15
 1702              	.LVL100:
  81:eurorack/clouds/dsp/fx/fx_engine.h ****   }
 1703              		.loc 3 81 23 view .LVU453
 1704 00f6 17EE902A 		vmov	r2, s15	@ int
 1705              	.LBB1299:
 1706              	.LBB1298:
 1707              		.loc 5 137 5 view .LVU454
 1708              		.syntax unified
 1709              	@ 137 "eurorack/stmlib/dsp/dsp.h" 1
 1710 00fa 02F30F02 		ssat r2, #16, r2
 1711              	@ 0 "" 2
 1712              	.LVL101:
 138:eurorack/stmlib/dsp/dsp.h ****     return result;
 1713              		.loc 5 138 5 is_stmt 1 view .LVU455
 1714              		.loc 5 138 5 is_stmt 0 view .LVU456
 1715              		.thumb
 1716              		.syntax unified
 1717              	.LBE1298:
 1718              	.LBE1299:
  81:eurorack/clouds/dsp/fx/fx_engine.h ****   }
 1719              		.loc 3 81 63 view .LVU457
 1720 00fe 21F81320 		strh	r2, [r1, r3, lsl #1]	@ movhi
 1721              	.LBE1300:
 1722              	.LBE1301:
 179:eurorack/clouds/dsp/fx/fx_engine.h ****     }
ARM GAS  /var/folders/9s/8rp0_f2s1n31qbztm3b5_fdh0000gn/T//ccAcUEVW.s 			page 57


 1723              		.loc 3 179 20 view .LVU458
 1724 0102 8DED007A 		vstr.32	s14, [sp]
 1725              	.LVL102:
 179:eurorack/clouds/dsp/fx/fx_engine.h ****     }
 1726              		.loc 3 179 20 view .LVU459
 1727              	.LBE1303:
 1728              	.LBE1305:
 1729              	.LBE1311:
 1730              		.loc 8 84 5 is_stmt 1 view .LVU460
 1731              		.loc 8 84 18 is_stmt 0 view .LVU461
 1732 0106 FFF7FEFF 		bl	_ZN6clouds8FxEngineILj4096ELNS_6FormatE1EE7Context11InterpolateINS2_9DelayLineINS2_7ReserveILl2
 1733              	.LVL103:
  85:eurorack/clouds/dsp/fx/pitch_shifter.h ****     c.Interpolate(left, half, 1.0f - tri);
 1734              		.loc 8 85 5 is_stmt 1 view .LVU462
 1735              		.loc 8 85 18 is_stmt 0 view .LVU463
 1736 010a 36EE456A 		vsub.f32	s12, s12, s10
 1737 010e B0EE640A 		vmov.f32	s0, s9
 1738 0112 F0EE460A 		vmov.f32	s1, s12
 1739 0116 FFF7FEFF 		bl	_ZN6clouds8FxEngineILj4096ELNS_6FormatE1EE7Context11InterpolateINS2_9DelayLineINS2_7ReserveILl2
 1740              	.LVL104:
  86:eurorack/clouds/dsp/fx/pitch_shifter.h ****     c.Write(input_output->l, 0.0f);
 1741              		.loc 8 86 5 is_stmt 1 view .LVU464
 1742              	.LBB1312:
 1743              	.LBI1312:
 165:eurorack/clouds/dsp/fx/fx_engine.h ****       value = accumulator_;
 1744              		.loc 3 165 17 view .LVU465
 1745              	.LBB1313:
 166:eurorack/clouds/dsp/fx/fx_engine.h ****       accumulator_ *= scale;
 1746              		.loc 3 166 15 is_stmt 0 view .LVU466
 1747 011a 9DED007A 		vldr.32	s14, [sp]
 1748              	.LBE1313:
 1749              	.LBE1312:
 1750              	.LBB1315:
 1751              	.LBB1316:
 154:eurorack/clouds/dsp/fx/fx_engine.h ****     }
 1752              		.loc 3 154 20 view .LVU467
 1753 011e D5ED017A 		vldr.32	s15, [r5, #4]
 1754              	.LBE1316:
 1755              	.LBE1315:
  87:eurorack/clouds/dsp/fx/pitch_shifter.h **** 
  88:eurorack/clouds/dsp/fx/pitch_shifter.h ****     c.Read(input_output->r, 1.0f);
  89:eurorack/clouds/dsp/fx/pitch_shifter.h ****     c.Write(right, 0.0f);
  90:eurorack/clouds/dsp/fx/pitch_shifter.h ****     c.Interpolate(right, phase, tri);
 1756              		.loc 8 90 18 view .LVU468
 1757 0122 F0EE450A 		vmov.f32	s1, s10
 1758              	.LBB1318:
 1759              	.LBB1319:
 1760              	.LBB1320:
 177:eurorack/clouds/dsp/fx/fx_engine.h ****       }
 1761              		.loc 3 177 29 view .LVU469
 1762 0126 059B     		ldr	r3, [sp, #20]
 1763              	.LBE1320:
 1764              	.LBE1319:
 1765              	.LBE1318:
 1766              		.loc 8 90 18 view .LVU470
 1767 0128 B0EE650A 		vmov.f32	s0, s11
 1768              	.LBB1333:
ARM GAS  /var/folders/9s/8rp0_f2s1n31qbztm3b5_fdh0000gn/T//ccAcUEVW.s 			page 58


 1769              	.LBB1317:
 154:eurorack/clouds/dsp/fx/fx_engine.h ****     }
 1770              		.loc 3 154 20 view .LVU471
 1771 012c E7EE087A 		vfma.f32	s15, s14, s16
 1772              	.LBE1317:
 1773              	.LBE1333:
 1774              	.LBB1334:
 1775              	.LBB1314:
 166:eurorack/clouds/dsp/fx/fx_engine.h ****       accumulator_ *= scale;
 1776              		.loc 3 166 13 view .LVU472
 1777 0130 85ED007A 		vstr.32	s14, [r5]
 1778              	.LVL105:
 166:eurorack/clouds/dsp/fx/fx_engine.h ****       accumulator_ *= scale;
 1779              		.loc 3 166 13 view .LVU473
 1780              	.LBE1314:
 1781              	.LBE1334:
  88:eurorack/clouds/dsp/fx/pitch_shifter.h ****     c.Write(right, 0.0f);
 1782              		.loc 8 88 5 is_stmt 1 view .LVU474
 1783              	.LBB1335:
 1784              	.LBI1315:
 153:eurorack/clouds/dsp/fx/fx_engine.h ****       accumulator_ += value * scale;
 1785              		.loc 3 153 17 view .LVU475
 153:eurorack/clouds/dsp/fx/fx_engine.h ****       accumulator_ += value * scale;
 1786              		.loc 3 153 17 is_stmt 0 view .LVU476
 1787              	.LBE1335:
  89:eurorack/clouds/dsp/fx/pitch_shifter.h ****     c.Interpolate(right, phase, tri);
 1788              		.loc 8 89 5 is_stmt 1 view .LVU477
 1789              	.LBB1336:
 1790              	.LBI1318:
 183:eurorack/clouds/dsp/fx/fx_engine.h ****       Write(d, 0, scale);
 1791              		.loc 3 183 17 view .LVU478
 1792              	.LBB1332:
 1793              	.LBI1319:
 171:eurorack/clouds/dsp/fx/fx_engine.h ****       STATIC_ASSERT(D::base + D::length <= size, delay_memory_full);
 1794              		.loc 3 171 17 view .LVU479
 1795              	.LBB1331:
 1796              	.LBB1321:
 1797              	.LBI1321:
  79:eurorack/clouds/dsp/fx/fx_engine.h ****     return static_cast<uint16_t>(
 1798              		.loc 3 79 19 view .LVU480
 1799              	.LBB1322:
  80:eurorack/clouds/dsp/fx/fx_engine.h ****         stmlib::Clip16(static_cast<int32_t>(value * 32768.0f)));
 1800              		.loc 3 80 5 view .LVU481
 1801              	.LBB1323:
 1802              	.LBI1323:
 135:eurorack/stmlib/dsp/dsp.h ****     int32_t result;
 1803              		.loc 5 135 18 view .LVU482
 1804              	.LBB1324:
 136:eurorack/stmlib/dsp/dsp.h ****     __asm ("ssat %0, %1, %2" : "=r" (result) :  "I" (16), "r" (x) );
 1805              		.loc 5 136 5 view .LVU483
 137:eurorack/stmlib/dsp/dsp.h ****     return result;
 1806              		.loc 5 137 5 view .LVU484
 1807              	.LBE1324:
 1808              	.LBE1323:
 1809              	.LBE1322:
 1810              	.LBE1321:
 177:eurorack/clouds/dsp/fx/fx_engine.h ****       }
ARM GAS  /var/folders/9s/8rp0_f2s1n31qbztm3b5_fdh0000gn/T//ccAcUEVW.s 			page 59


 1811              		.loc 3 177 29 is_stmt 0 view .LVU485
 1812 0134 03F50063 		add	r3, r3, #2048
 177:eurorack/clouds/dsp/fx/fx_engine.h ****       }
 1813              		.loc 3 177 57 view .LVU486
 1814 0138 0499     		ldr	r1, [sp, #16]
 177:eurorack/clouds/dsp/fx/fx_engine.h ****       }
 1815              		.loc 3 177 49 view .LVU487
 1816 013a C3F30B03 		ubfx	r3, r3, #0, #12
 1817              	.LBB1329:
 1818              	.LBB1327:
  81:eurorack/clouds/dsp/fx/fx_engine.h ****   }
 1819              		.loc 3 81 23 view .LVU488
 1820 013e B0EE677A 		vmov.f32	s14, s15
 1821              	.LBE1327:
 1822              	.LBE1329:
 179:eurorack/clouds/dsp/fx/fx_engine.h ****     }
 1823              		.loc 3 179 20 view .LVU489
 1824 0142 67EE887A 		vmul.f32	s15, s15, s16
 1825              	.LVL106:
 1826              	.LBB1330:
 1827              	.LBB1328:
  81:eurorack/clouds/dsp/fx/fx_engine.h ****   }
 1828              		.loc 3 81 23 view .LVU490
 1829 0146 BEEEE87A 		vcvt.s32.f32	s14, s14, #15
 1830              	.LVL107:
  81:eurorack/clouds/dsp/fx/fx_engine.h ****   }
 1831              		.loc 3 81 23 view .LVU491
 1832 014a 17EE102A 		vmov	r2, s14	@ int
 1833              	.LBB1326:
 1834              	.LBB1325:
 137:eurorack/stmlib/dsp/dsp.h ****     return result;
 1835              		.loc 5 137 5 view .LVU492
 1836              		.syntax unified
 1837              	@ 137 "eurorack/stmlib/dsp/dsp.h" 1
 1838 014e 02F30F02 		ssat r2, #16, r2
 1839              	@ 0 "" 2
 1840              	.LVL108:
 1841              		.loc 5 138 5 is_stmt 1 view .LVU493
 1842              		.loc 5 138 5 is_stmt 0 view .LVU494
 1843              		.thumb
 1844              		.syntax unified
 1845              	.LBE1325:
 1846              	.LBE1326:
  81:eurorack/clouds/dsp/fx/fx_engine.h ****   }
 1847              		.loc 3 81 63 view .LVU495
 1848 0152 21F81320 		strh	r2, [r1, r3, lsl #1]	@ movhi
 1849              	.LBE1328:
 1850              	.LBE1330:
 179:eurorack/clouds/dsp/fx/fx_engine.h ****     }
 1851              		.loc 3 179 20 view .LVU496
 1852 0156 CDED007A 		vstr.32	s15, [sp]
 1853              	.LVL109:
 179:eurorack/clouds/dsp/fx/fx_engine.h ****     }
 1854              		.loc 3 179 20 view .LVU497
 1855              	.LBE1331:
 1856              	.LBE1332:
 1857              	.LBE1336:
ARM GAS  /var/folders/9s/8rp0_f2s1n31qbztm3b5_fdh0000gn/T//ccAcUEVW.s 			page 60


 1858              		.loc 8 90 5 is_stmt 1 view .LVU498
 1859              		.loc 8 90 18 is_stmt 0 view .LVU499
 1860 015a FFF7FEFF 		bl	_ZN6clouds8FxEngineILj4096ELNS_6FormatE1EE7Context11InterpolateINS2_9DelayLineINS2_7ReserveILl2
 1861              	.LVL110:
  91:eurorack/clouds/dsp/fx/pitch_shifter.h ****     c.Interpolate(right, half, 1.0f - tri);
 1862              		.loc 8 91 5 is_stmt 1 view .LVU500
 1863              		.loc 8 91 18 is_stmt 0 view .LVU501
 1864 015e F0EE460A 		vmov.f32	s1, s12
 1865 0162 B0EE640A 		vmov.f32	s0, s9
 1866 0166 FFF7FEFF 		bl	_ZN6clouds8FxEngineILj4096ELNS_6FormatE1EE7Context11InterpolateINS2_9DelayLineINS2_7ReserveILl2
 1867              	.LVL111:
  92:eurorack/clouds/dsp/fx/pitch_shifter.h ****     c.Write(input_output->r, 0.0f);
 1868              		.loc 8 92 5 is_stmt 1 view .LVU502
 1869              	.LBB1337:
 1870              	.LBI1337:
 165:eurorack/clouds/dsp/fx/fx_engine.h ****       value = accumulator_;
 1871              		.loc 3 165 17 view .LVU503
 1872              	.LBB1338:
 166:eurorack/clouds/dsp/fx/fx_engine.h ****       accumulator_ *= scale;
 1873              		.loc 3 166 13 is_stmt 0 view .LVU504
 1874 016a 009B     		ldr	r3, [sp]	@ float
 1875 016c 6B60     		str	r3, [r5, #4]	@ float
 1876              	.LVL112:
 166:eurorack/clouds/dsp/fx/fx_engine.h ****       accumulator_ *= scale;
 1877              		.loc 3 166 13 view .LVU505
 1878              	.LBE1338:
 1879              	.LBE1337:
 1880              	.LBB1339:
 1881              	.LBI1339:
 147:eurorack/clouds/dsp/fx/fx_engine.h ****     
 1882              		.loc 3 147 5 is_stmt 1 view .LVU506
 147:eurorack/clouds/dsp/fx/fx_engine.h ****     
 1883              		.loc 3 147 5 is_stmt 0 view .LVU507
 1884              	.LBE1339:
  93:eurorack/clouds/dsp/fx/pitch_shifter.h ****   }
 1885              		.loc 8 93 3 view .LVU508
 1886 016e 07B0     		add	sp, sp, #28
 1887              		.cfi_remember_state
 1888              		.cfi_def_cfa_offset 20
 1889              		@ sp needed
 1890 0170 BDEC028B 		vldm	sp!, {d8}
 1891              		.cfi_restore 80
 1892              		.cfi_restore 81
 1893              		.cfi_def_cfa_offset 12
 1894 0174 30BD     		pop	{r4, r5, pc}
 1895              	.LVL113:
 1896              	.L28:
 1897              		.cfi_restore_state
 1898              	.LBB1340:
 1899              	.LBB1285:
 1900              	.LBB1277:
 1901              	.LBI1277:
  81:eurorack/stmlib/dsp/cosine_oscillator.h ****     return y1_ + 0.5f;
 1902              		.loc 6 81 16 is_stmt 1 view .LVU509
 1903              	.LBB1278:
  82:eurorack/stmlib/dsp/cosine_oscillator.h ****   }
 1904              		.loc 6 82 5 view .LVU510
ARM GAS  /var/folders/9s/8rp0_f2s1n31qbztm3b5_fdh0000gn/T//ccAcUEVW.s 			page 61


  82:eurorack/stmlib/dsp/cosine_oscillator.h ****   }
 1905              		.loc 6 82 18 is_stmt 0 view .LVU511
 1906 0176 D0ED027A 		vldr.32	s15, [r0, #8]
 1907 017a 77EEA87A 		vadd.f32	s15, s15, s17
 1908              	.LBE1278:
 1909              	.LBE1277:
 282:eurorack/clouds/dsp/fx/fx_engine.h ****     } else {
 283:eurorack/clouds/dsp/fx/fx_engine.h ****       c->lfo_value_[0] = lfo_[0].value();
 1910              		.loc 3 283 24 view .LVU512
 1911 017e CDED027A 		vstr.32	s15, [sp, #8]
 1912              	.LVL114:
 1913              	.LBB1279:
 1914              	.LBI1279:
  81:eurorack/stmlib/dsp/cosine_oscillator.h ****     return y1_ + 0.5f;
 1915              		.loc 6 81 16 is_stmt 1 view .LVU513
 1916              	.LBB1280:
  82:eurorack/stmlib/dsp/cosine_oscillator.h ****   }
 1917              		.loc 6 82 5 view .LVU514
  82:eurorack/stmlib/dsp/cosine_oscillator.h ****   }
 1918              		.loc 6 82 18 is_stmt 0 view .LVU515
 1919 0182 D0ED067A 		vldr.32	s15, [r0, #24]
 1920 0186 77EEA87A 		vadd.f32	s15, s15, s17
 1921              	.LBE1280:
 1922              	.LBE1279:
 284:eurorack/clouds/dsp/fx/fx_engine.h ****       c->lfo_value_[1] = lfo_[1].value();
 1923              		.loc 3 284 24 view .LVU516
 1924 018a CDED037A 		vstr.32	s15, [sp, #12]
 1925 018e 61E7     		b	.L29
 1926              	.L45:
 1927              		.align	2
 1928              	.L44:
 1929 0190 00000000 		.word	0
 1930              	.LBE1285:
 1931              	.LBE1340:
 1932              		.cfi_endproc
 1933              	.LFE1563:
 1935              		.section	.text._ZN6clouds6Reverb7ProcessEPNS_10FloatFrameEj,"axG",%progbits,_ZN6clouds6Reverb7Proc
 1936              		.align	1
 1937              		.weak	_ZN6clouds6Reverb7ProcessEPNS_10FloatFrameEj
 1938              		.syntax unified
 1939              		.thumb
 1940              		.thumb_func
 1942              	_ZN6clouds6Reverb7ProcessEPNS_10FloatFrameEj:
 1943              	.LVL115:
 1944              	.LFB1573:
 1945              		.file 9 "eurorack/clouds/dsp/fx/reverb.h"
   1:eurorack/clouds/dsp/fx/reverb.h **** // Copyright 2014 Emilie Gillet.
   2:eurorack/clouds/dsp/fx/reverb.h **** //
   3:eurorack/clouds/dsp/fx/reverb.h **** // Author: Emilie Gillet (emilie.o.gillet@gmail.com)
   4:eurorack/clouds/dsp/fx/reverb.h **** //
   5:eurorack/clouds/dsp/fx/reverb.h **** // Permission is hereby granted, free of charge, to any person obtaining a copy
   6:eurorack/clouds/dsp/fx/reverb.h **** // of this software and associated documentation files (the "Software"), to deal
   7:eurorack/clouds/dsp/fx/reverb.h **** // in the Software without restriction, including without limitation the rights
   8:eurorack/clouds/dsp/fx/reverb.h **** // to use, copy, modify, merge, publish, distribute, sublicense, and/or sell
   9:eurorack/clouds/dsp/fx/reverb.h **** // copies of the Software, and to permit persons to whom the Software is
  10:eurorack/clouds/dsp/fx/reverb.h **** // furnished to do so, subject to the following conditions:
  11:eurorack/clouds/dsp/fx/reverb.h **** // 
ARM GAS  /var/folders/9s/8rp0_f2s1n31qbztm3b5_fdh0000gn/T//ccAcUEVW.s 			page 62


  12:eurorack/clouds/dsp/fx/reverb.h **** // The above copyright notice and this permission notice shall be included in
  13:eurorack/clouds/dsp/fx/reverb.h **** // all copies or substantial portions of the Software.
  14:eurorack/clouds/dsp/fx/reverb.h **** // 
  15:eurorack/clouds/dsp/fx/reverb.h **** // THE SOFTWARE IS PROVIDED "AS IS", WITHOUT WARRANTY OF ANY KIND, EXPRESS OR
  16:eurorack/clouds/dsp/fx/reverb.h **** // IMPLIED, INCLUDING BUT NOT LIMITED TO THE WARRANTIES OF MERCHANTABILITY,
  17:eurorack/clouds/dsp/fx/reverb.h **** // FITNESS FOR A PARTICULAR PURPOSE AND NONINFRINGEMENT. IN NO EVENT SHALL THE
  18:eurorack/clouds/dsp/fx/reverb.h **** // AUTHORS OR COPYRIGHT HOLDERS BE LIABLE FOR ANY CLAIM, DAMAGES OR OTHER
  19:eurorack/clouds/dsp/fx/reverb.h **** // LIABILITY, WHETHER IN AN ACTION OF CONTRACT, TORT OR OTHERWISE, ARISING FROM,
  20:eurorack/clouds/dsp/fx/reverb.h **** // OUT OF OR IN CONNECTION WITH THE SOFTWARE OR THE USE OR OTHER DEALINGS IN
  21:eurorack/clouds/dsp/fx/reverb.h **** // THE SOFTWARE.
  22:eurorack/clouds/dsp/fx/reverb.h **** // 
  23:eurorack/clouds/dsp/fx/reverb.h **** // See http://creativecommons.org/licenses/MIT/ for more information.
  24:eurorack/clouds/dsp/fx/reverb.h **** //
  25:eurorack/clouds/dsp/fx/reverb.h **** // -----------------------------------------------------------------------------
  26:eurorack/clouds/dsp/fx/reverb.h **** //
  27:eurorack/clouds/dsp/fx/reverb.h **** // Reverb.
  28:eurorack/clouds/dsp/fx/reverb.h **** 
  29:eurorack/clouds/dsp/fx/reverb.h **** #ifndef CLOUDS_DSP_FX_REVERB_H_
  30:eurorack/clouds/dsp/fx/reverb.h **** #define CLOUDS_DSP_FX_REVERB_H_
  31:eurorack/clouds/dsp/fx/reverb.h **** 
  32:eurorack/clouds/dsp/fx/reverb.h **** #include "stmlib/stmlib.h"
  33:eurorack/clouds/dsp/fx/reverb.h **** 
  34:eurorack/clouds/dsp/fx/reverb.h **** #include "clouds/dsp/fx/fx_engine.h"
  35:eurorack/clouds/dsp/fx/reverb.h **** 
  36:eurorack/clouds/dsp/fx/reverb.h **** namespace clouds {
  37:eurorack/clouds/dsp/fx/reverb.h **** 
  38:eurorack/clouds/dsp/fx/reverb.h **** class Reverb {
  39:eurorack/clouds/dsp/fx/reverb.h ****  public:
  40:eurorack/clouds/dsp/fx/reverb.h ****   Reverb() { }
  41:eurorack/clouds/dsp/fx/reverb.h ****   ~Reverb() { }
  42:eurorack/clouds/dsp/fx/reverb.h ****   
  43:eurorack/clouds/dsp/fx/reverb.h ****   void Init(uint16_t* buffer) {
  44:eurorack/clouds/dsp/fx/reverb.h ****     engine_.Init(buffer);
  45:eurorack/clouds/dsp/fx/reverb.h ****     engine_.SetLFOFrequency(LFO_1, 0.5f / 32000.0f);
  46:eurorack/clouds/dsp/fx/reverb.h ****     engine_.SetLFOFrequency(LFO_2, 0.3f / 32000.0f);
  47:eurorack/clouds/dsp/fx/reverb.h ****     lp_ = 0.7f;
  48:eurorack/clouds/dsp/fx/reverb.h ****     diffusion_ = 0.625f;
  49:eurorack/clouds/dsp/fx/reverb.h ****   }
  50:eurorack/clouds/dsp/fx/reverb.h ****   
  51:eurorack/clouds/dsp/fx/reverb.h ****   void Process(FloatFrame* in_out, size_t size) {
 1946              		.loc 9 51 8 is_stmt 1 view -0
 1947              		.cfi_startproc
 1948              		@ args = 0, pretend = 0, frame = 0
 1949              		@ frame_needed = 0, uses_anonymous_args = 0
  52:eurorack/clouds/dsp/fx/reverb.h ****     // This is the Griesinger topology described in the Dattorro paper
  53:eurorack/clouds/dsp/fx/reverb.h ****     // (4 AP diffusers on the input, then a loop of 2x 2AP+1Delay).
  54:eurorack/clouds/dsp/fx/reverb.h ****     // Modulation is applied in the loop of the first diffuser AP for additional
  55:eurorack/clouds/dsp/fx/reverb.h ****     // smearing; and to the two long delays for a slow shimmer/chorus effect.
  56:eurorack/clouds/dsp/fx/reverb.h ****     typedef E::Reserve<113,
 1950              		.loc 9 56 5 view .LVU518
  57:eurorack/clouds/dsp/fx/reverb.h ****       E::Reserve<162,
  58:eurorack/clouds/dsp/fx/reverb.h ****       E::Reserve<241,
  59:eurorack/clouds/dsp/fx/reverb.h ****       E::Reserve<399,
  60:eurorack/clouds/dsp/fx/reverb.h ****       E::Reserve<1653,
  61:eurorack/clouds/dsp/fx/reverb.h ****       E::Reserve<2038,
  62:eurorack/clouds/dsp/fx/reverb.h ****       E::Reserve<3411,
  63:eurorack/clouds/dsp/fx/reverb.h ****       E::Reserve<1913,
ARM GAS  /var/folders/9s/8rp0_f2s1n31qbztm3b5_fdh0000gn/T//ccAcUEVW.s 			page 63


  64:eurorack/clouds/dsp/fx/reverb.h ****       E::Reserve<1663,
  65:eurorack/clouds/dsp/fx/reverb.h ****       E::Reserve<4782> > > > > > > > > > Memory;
  66:eurorack/clouds/dsp/fx/reverb.h ****     E::DelayLine<Memory, 0> ap1;
 1951              		.loc 9 66 5 view .LVU519
  67:eurorack/clouds/dsp/fx/reverb.h ****     E::DelayLine<Memory, 1> ap2;
 1952              		.loc 9 67 5 view .LVU520
  68:eurorack/clouds/dsp/fx/reverb.h ****     E::DelayLine<Memory, 2> ap3;
 1953              		.loc 9 68 5 view .LVU521
  69:eurorack/clouds/dsp/fx/reverb.h ****     E::DelayLine<Memory, 3> ap4;
 1954              		.loc 9 69 5 view .LVU522
  70:eurorack/clouds/dsp/fx/reverb.h ****     E::DelayLine<Memory, 4> dap1a;
 1955              		.loc 9 70 5 view .LVU523
  71:eurorack/clouds/dsp/fx/reverb.h ****     E::DelayLine<Memory, 5> dap1b;
 1956              		.loc 9 71 5 view .LVU524
  72:eurorack/clouds/dsp/fx/reverb.h ****     E::DelayLine<Memory, 6> del1;
 1957              		.loc 9 72 5 view .LVU525
  73:eurorack/clouds/dsp/fx/reverb.h ****     E::DelayLine<Memory, 7> dap2a;
 1958              		.loc 9 73 5 view .LVU526
  74:eurorack/clouds/dsp/fx/reverb.h ****     E::DelayLine<Memory, 8> dap2b;
 1959              		.loc 9 74 5 view .LVU527
  75:eurorack/clouds/dsp/fx/reverb.h ****     E::DelayLine<Memory, 9> del2;
 1960              		.loc 9 75 5 view .LVU528
  76:eurorack/clouds/dsp/fx/reverb.h ****     E::Context c;
 1961              		.loc 9 76 5 view .LVU529
 1962              	.LBB1522:
 1963              	.LBI1522:
 146:eurorack/clouds/dsp/fx/fx_engine.h ****     ~Context() { }
 1964              		.loc 3 146 5 view .LVU530
 146:eurorack/clouds/dsp/fx/fx_engine.h ****     ~Context() { }
 1965              		.loc 3 146 5 is_stmt 0 view .LVU531
 1966              	.LBE1522:
  77:eurorack/clouds/dsp/fx/reverb.h **** 
  78:eurorack/clouds/dsp/fx/reverb.h ****     const float kap = diffusion_;
 1967              		.loc 9 78 5 is_stmt 1 view .LVU532
  51:eurorack/clouds/dsp/fx/reverb.h ****     // This is the Griesinger topology described in the Dattorro paper
 1968              		.loc 9 51 8 is_stmt 0 view .LVU533
 1969 0000 2DE9F041 		push	{r4, r5, r6, r7, r8, lr}
 1970              		.cfi_def_cfa_offset 24
 1971              		.cfi_offset 4, -24
 1972              		.cfi_offset 5, -20
 1973              		.cfi_offset 6, -16
 1974              		.cfi_offset 7, -12
 1975              		.cfi_offset 8, -8
 1976              		.cfi_offset 14, -4
 1977 0004 0646     		mov	r6, r0
 1978 0006 9046     		mov	r8, r2
 1979 0008 01F10807 		add	r7, r1, #8
 1980 000c 2DED088B 		vpush.64	{d8, d9, d10, d11}
 1981              		.cfi_def_cfa_offset 56
 1982              		.cfi_offset 80, -56
 1983              		.cfi_offset 81, -52
 1984              		.cfi_offset 82, -48
 1985              		.cfi_offset 83, -44
 1986              		.cfi_offset 84, -40
 1987              		.cfi_offset 85, -36
 1988              		.cfi_offset 86, -32
 1989              		.cfi_offset 87, -28
ARM GAS  /var/folders/9s/8rp0_f2s1n31qbztm3b5_fdh0000gn/T//ccAcUEVW.s 			page 64


 1990              		.loc 9 78 17 view .LVU534
 1991 0010 90ED0D8A 		vldr.32	s16, [r0, #52]
 1992              	.LVL116:
  79:eurorack/clouds/dsp/fx/reverb.h ****     const float klp = lp_;
 1993              		.loc 9 79 5 is_stmt 1 view .LVU535
 1994              		.loc 9 79 17 is_stmt 0 view .LVU536
 1995 0014 90ED0EAA 		vldr.32	s20, [r0, #56]
 1996              	.LVL117:
  80:eurorack/clouds/dsp/fx/reverb.h ****     const float krt = reverb_time_;
 1997              		.loc 9 80 5 is_stmt 1 view .LVU537
 1998              		.loc 9 80 17 is_stmt 0 view .LVU538
 1999 0018 D0ED0CAA 		vldr.32	s21, [r0, #48]
 2000              	.LVL118:
  81:eurorack/clouds/dsp/fx/reverb.h ****     const float amount = amount_;
 2001              		.loc 9 81 5 is_stmt 1 view .LVU539
 2002              		.loc 9 81 17 is_stmt 0 view .LVU540
 2003 001c D0ED0A9A 		vldr.32	s19, [r0, #40]
 2004              	.LVL119:
  82:eurorack/clouds/dsp/fx/reverb.h ****     const float gain = input_gain_;
 2005              		.loc 9 82 5 is_stmt 1 view .LVU541
 2006              		.loc 9 82 17 is_stmt 0 view .LVU542
 2007 0020 90ED0BBA 		vldr.32	s22, [r0, #44]
 2008              	.LVL120:
  83:eurorack/clouds/dsp/fx/reverb.h **** 
  84:eurorack/clouds/dsp/fx/reverb.h ****     float lp_1 = lp_decay_1_;
 2009              		.loc 9 84 5 is_stmt 1 view .LVU543
 2010              		.loc 9 84 18 is_stmt 0 view .LVU544
 2011 0024 90ED0F9A 		vldr.32	s18, [r0, #60]
 2012              	.LVL121:
  85:eurorack/clouds/dsp/fx/reverb.h ****     float lp_2 = lp_decay_2_;
 2013              		.loc 9 85 5 is_stmt 1 view .LVU545
 2014              		.loc 9 85 18 is_stmt 0 view .LVU546
 2015 0028 D0ED108A 		vldr.32	s17, [r0, #64]
 2016              	.LVL122:
 2017              	.L52:
  86:eurorack/clouds/dsp/fx/reverb.h **** 
  87:eurorack/clouds/dsp/fx/reverb.h ****     while (size--) {
 2018              		.loc 9 87 5 is_stmt 1 view .LVU547
 2019              		.loc 9 87 16 view .LVU548
 2020              		.loc 9 87 16 is_stmt 0 view .LVU549
 2021 002c B8F1000F 		cmp	r8, #0
 2022 0030 00F0DB81 		beq	.L47
 2023              	.LBB1523:
  88:eurorack/clouds/dsp/fx/reverb.h ****       float wet;
 2024              		.loc 9 88 7 is_stmt 1 view .LVU550
  89:eurorack/clouds/dsp/fx/reverb.h ****       float apout = 0.0f;
 2025              		.loc 9 89 7 view .LVU551
 2026              	.LVL123:
  90:eurorack/clouds/dsp/fx/reverb.h ****       engine_.Start(&c);
 2027              		.loc 9 90 7 view .LVU552
 2028              	.LBB1524:
 2029              	.LBI1524:
 270:eurorack/clouds/dsp/fx/fx_engine.h ****     --write_ptr_;
 2030              		.loc 3 270 15 view .LVU553
 2031              	.LBB1525:
 271:eurorack/clouds/dsp/fx/fx_engine.h ****     if (write_ptr_ < 0) {
 2032              		.loc 3 271 7 is_stmt 0 view .LVU554
ARM GAS  /var/folders/9s/8rp0_f2s1n31qbztm3b5_fdh0000gn/T//ccAcUEVW.s 			page 65


 2033 0034 3368     		ldr	r3, [r6]
 272:eurorack/clouds/dsp/fx/fx_engine.h ****       write_ptr_ += size;
 2034              		.loc 3 272 5 view .LVU555
 2035 0036 5A1E     		subs	r2, r3, #1
 273:eurorack/clouds/dsp/fx/fx_engine.h ****     }
 2036              		.loc 3 273 18 view .LVU556
 2037 0038 49BF     		itett	mi
 2038 003a 03F57F53 		addmi	r3, r3, #16320
 271:eurorack/clouds/dsp/fx/fx_engine.h ****     if (write_ptr_ < 0) {
 2039              		.loc 3 271 5 view .LVU557
 2040 003e 3260     		strpl	r2, [r6]
 273:eurorack/clouds/dsp/fx/fx_engine.h ****     }
 2041              		.loc 3 273 18 view .LVU558
 2042 0040 3F33     		addmi	r3, r3, #63
 2043 0042 3360     		strmi	r3, [r6]
 278:eurorack/clouds/dsp/fx/fx_engine.h ****     if ((write_ptr_ & 31) == 0) {
 2044              		.loc 3 278 21 view .LVU559
 2045 0044 D6E90045 		ldrd	r4, r5, [r6]
 279:eurorack/clouds/dsp/fx/fx_engine.h ****       c->lfo_value_[0] = lfo_[0].Next();
 2046              		.loc 3 279 5 view .LVU560
 2047 0048 E306     		lsls	r3, r4, #27
 2048 004a 40F0C381 		bne	.L50
 2049              	.LVL124:
 2050              	.LBB1526:
 2051              	.LBI1526:
 270:eurorack/clouds/dsp/fx/fx_engine.h ****     --write_ptr_;
 2052              		.loc 3 270 15 is_stmt 1 view .LVU561
 2053              	.LBB1527:
 280:eurorack/clouds/dsp/fx/fx_engine.h ****       c->lfo_value_[1] = lfo_[1].Next();
 2054              		.loc 3 280 38 is_stmt 0 view .LVU562
 2055 004e 06F10800 		add	r0, r6, #8
 2056 0052 FFF7FEFF 		bl	_ZN6stmlib16CosineOscillator4NextEv
 2057              	.LVL125:
 281:eurorack/clouds/dsp/fx/fx_engine.h ****     } else {
 2058              		.loc 3 281 38 view .LVU563
 2059 0056 06F11800 		add	r0, r6, #24
 280:eurorack/clouds/dsp/fx/fx_engine.h ****       c->lfo_value_[1] = lfo_[1].Next();
 2060              		.loc 3 280 38 view .LVU564
 2061 005a F0EE40BA 		vmov.f32	s23, s0
 2062              	.LVL126:
 281:eurorack/clouds/dsp/fx/fx_engine.h ****     } else {
 2063              		.loc 3 281 38 view .LVU565
 2064 005e FFF7FEFF 		bl	_ZN6stmlib16CosineOscillator4NextEv
 2065              	.LVL127:
 2066              	.L51:
 281:eurorack/clouds/dsp/fx/fx_engine.h ****     } else {
 2067              		.loc 3 281 38 view .LVU566
 2068              	.LBE1527:
 2069              	.LBE1526:
 2070              	.LBE1525:
 2071              	.LBE1524:
  91:eurorack/clouds/dsp/fx/reverb.h ****       
  92:eurorack/clouds/dsp/fx/reverb.h ****       // Smear AP1 inside the loop.
  93:eurorack/clouds/dsp/fx/reverb.h ****       c.Interpolate(ap1, 10.0f, LFO_1, 60.0f, 1.0f);
 2072              		.loc 9 93 7 is_stmt 1 view .LVU567
 2073              	.LBB1537:
 2074              	.LBI1537:
ARM GAS  /var/folders/9s/8rp0_f2s1n31qbztm3b5_fdh0000gn/T//ccAcUEVW.s 			page 66


 241:eurorack/clouds/dsp/fx/fx_engine.h ****         D& d, float offset, LFOIndex index, float amplitude, float scale) {
 2075              		.loc 3 241 17 view .LVU568
 2076              	.LBB1538:
 244:eurorack/clouds/dsp/fx/fx_engine.h ****       MAKE_INTEGRAL_FRACTIONAL(offset);
 2077              		.loc 3 244 14 is_stmt 0 view .LVU569
 2078 0062 B2EE047A 		vmov.f32	s14, #1.0e+1
 2079 0066 DFEDE57A 		vldr.32	s15, .L53
 2080              	.LBE1538:
 2081              	.LBE1537:
  94:eurorack/clouds/dsp/fx/reverb.h ****       c.Write(ap1, 100, 0.0f);
  95:eurorack/clouds/dsp/fx/reverb.h ****       
  96:eurorack/clouds/dsp/fx/reverb.h ****       c.Read(in_out->l + in_out->r, gain);
 2082              		.loc 9 96 22 view .LVU570
 2083 006a 57ED025A 		vldr.32	s11, [r7, #-8]
 2084 006e 08F1FF38 		add	r8, r8, #-1
 2085              	.LVL128:
 2086              		.loc 9 96 22 view .LVU571
 2087 0072 0837     		adds	r7, r7, #8
 2088              	.LVL129:
 2089              	.LBB1562:
 2090              	.LBB1559:
 244:eurorack/clouds/dsp/fx/fx_engine.h ****       MAKE_INTEGRAL_FRACTIONAL(offset);
 2091              		.loc 3 244 14 view .LVU572
 2092 0074 ABEEA77A 		vfma.f32	s14, s23, s15
 2093              	.LVL130:
 245:eurorack/clouds/dsp/fx/fx_engine.h ****       float a = DataType<format>::Decompress(
 2094              		.loc 3 245 7 view .LVU573
 2095 0078 FDEEC77A 		vcvt.s32.f32	s15, s14
 2096              	.LVL131:
 247:eurorack/clouds/dsp/fx/fx_engine.h ****       float b = DataType<format>::Decompress(
 2097              		.loc 3 247 31 view .LVU574
 2098 007c 17EE903A 		vmov	r3, s15	@ int
 245:eurorack/clouds/dsp/fx/fx_engine.h ****       float a = DataType<format>::Decompress(
 2099              		.loc 3 245 7 view .LVU575
 2100 0080 F8EEE76A 		vcvt.f32.s32	s13, s15
 2101              	.LBB1539:
 2102              	.LBB1540:
  62:eurorack/clouds/dsp/fx/fx_engine.h ****   }
 2103              		.loc 3 62 62 view .LVU576
 2104 0084 DFEDDE7A 		vldr.32	s15, .L53+4
 2105              	.LVL132:
  62:eurorack/clouds/dsp/fx/fx_engine.h ****   }
 2106              		.loc 3 62 62 view .LVU577
 2107              	.LBE1540:
 2108              	.LBE1539:
 247:eurorack/clouds/dsp/fx/fx_engine.h ****       float b = DataType<format>::Decompress(
 2109              		.loc 3 247 31 view .LVU578
 2110 0088 2344     		add	r3, r3, r4
 2111              	.LVL133:
 245:eurorack/clouds/dsp/fx/fx_engine.h ****       float a = DataType<format>::Decompress(
 2112              		.loc 3 245 7 view .LVU579
 2113 008a 77EE666A 		vsub.f32	s13, s14, s13
 2114              	.LVL134:
 2115              	.LBB1546:
 2116              	.LBI1546:
  61:eurorack/clouds/dsp/fx/fx_engine.h ****     return static_cast<float>(static_cast<int16_t>(value)) / 4096.0f;
 2117              		.loc 3 61 23 is_stmt 1 view .LVU580
ARM GAS  /var/folders/9s/8rp0_f2s1n31qbztm3b5_fdh0000gn/T//ccAcUEVW.s 			page 67


 2118              	.LBB1547:
  62:eurorack/clouds/dsp/fx/fx_engine.h ****   }
 2119              		.loc 3 62 5 view .LVU581
 2120              	.LBE1547:
 2121              	.LBE1546:
 247:eurorack/clouds/dsp/fx/fx_engine.h ****       float b = DataType<format>::Decompress(
 2122              		.loc 3 247 60 is_stmt 0 view .LVU582
 2123 008e C3F30D02 		ubfx	r2, r3, #0, #14
 249:eurorack/clouds/dsp/fx/fx_engine.h ****       float x = a + (b - a) * offset_fractional;
 2124              		.loc 3 249 59 view .LVU583
 2125 0092 0133     		adds	r3, r3, #1
 2126              	.LVL135:
 249:eurorack/clouds/dsp/fx/fx_engine.h ****       float x = a + (b - a) * offset_fractional;
 2127              		.loc 3 249 64 view .LVU584
 2128 0094 C3F30D03 		ubfx	r3, r3, #0, #14
 2129              	.LVL136:
 2130              	.LBB1551:
 2131              	.LBB1548:
  62:eurorack/clouds/dsp/fx/fx_engine.h ****   }
 2132              		.loc 3 62 12 view .LVU585
 2133 0098 35F91220 		ldrsh	r2, [r5, r2, lsl #1]
 2134              	.LBE1548:
 2135              	.LBE1551:
 2136              	.LBB1552:
 2137              	.LBB1541:
 2138 009c 35F91330 		ldrsh	r3, [r5, r3, lsl #1]
 2139              	.LBE1541:
 2140              	.LBE1552:
 2141              	.LBB1553:
 2142              	.LBB1549:
 2143 00a0 06EE102A 		vmov	s12, r2	@ int
 2144              	.LBE1549:
 2145              	.LBE1553:
 2146              	.LBB1554:
 2147              	.LBB1542:
 2148 00a4 07EE103A 		vmov	s14, r3	@ int
 2149              	.LVL137:
  62:eurorack/clouds/dsp/fx/fx_engine.h ****   }
 2150              		.loc 3 62 12 view .LVU586
 2151              	.LBE1542:
 2152              	.LBE1554:
 2153              	.LBB1555:
 2154              	.LBB1550:
 2155 00a8 B8EEC66A 		vcvt.f32.s32	s12, s12
 2156              	.LVL138:
  62:eurorack/clouds/dsp/fx/fx_engine.h ****   }
 2157              		.loc 3 62 12 view .LVU587
 2158              	.LBE1550:
 2159              	.LBE1555:
 2160              	.LBB1556:
 2161              	.LBI1539:
  61:eurorack/clouds/dsp/fx/fx_engine.h ****     return static_cast<float>(static_cast<int16_t>(value)) / 4096.0f;
 2162              		.loc 3 61 23 is_stmt 1 view .LVU588
 2163              	.LBB1543:
  62:eurorack/clouds/dsp/fx/fx_engine.h ****   }
 2164              		.loc 3 62 5 view .LVU589
  62:eurorack/clouds/dsp/fx/fx_engine.h ****   }
ARM GAS  /var/folders/9s/8rp0_f2s1n31qbztm3b5_fdh0000gn/T//ccAcUEVW.s 			page 68


 2165              		.loc 3 62 5 is_stmt 0 view .LVU590
 2166              	.LBE1543:
 2167              	.LBE1556:
 2168              	.LBE1559:
 2169              	.LBE1562:
 2170              	.LBB1563:
 2171              	.LBB1564:
 177:eurorack/clouds/dsp/fx/fx_engine.h ****       }
 2172              		.loc 3 177 39 view .LVU591
 2173 00ac 04F16403 		add	r3, r4, #100
 2174              	.LBE1564:
 2175              	.LBE1563:
 2176              	.LBB1579:
 2177              	.LBB1560:
 2178              	.LBB1557:
 2179              	.LBB1544:
  62:eurorack/clouds/dsp/fx/fx_engine.h ****   }
 2180              		.loc 3 62 12 view .LVU592
 2181 00b0 B8EEC77A 		vcvt.f32.s32	s14, s14
 2182              	.LBE1544:
 2183              	.LBE1557:
 2184              	.LBE1560:
 2185              	.LBE1579:
 2186              	.LBB1580:
 2187              	.LBB1575:
 177:eurorack/clouds/dsp/fx/fx_engine.h ****       }
 2188              		.loc 3 177 49 view .LVU593
 2189 00b4 C3F30D03 		ubfx	r3, r3, #0, #14
 2190              	.LBE1575:
 2191              	.LBE1580:
 2192              	.LBB1581:
 2193              	.LBB1561:
 2194              	.LBB1558:
 2195              	.LBB1545:
  62:eurorack/clouds/dsp/fx/fx_engine.h ****   }
 2196              		.loc 3 62 62 view .LVU594
 2197 00b8 27EE277A 		vmul.f32	s14, s14, s15
 2198              	.LBE1545:
 2199              	.LBE1558:
 250:eurorack/clouds/dsp/fx/fx_engine.h ****       previous_read_ = x;
 2200              		.loc 3 250 24 view .LVU595
 2201 00bc A6EE677A 		vfms.f32	s14, s12, s15
 250:eurorack/clouds/dsp/fx/fx_engine.h ****       previous_read_ = x;
 2202              		.loc 3 250 29 view .LVU596
 2203 00c0 26EE877A 		vmul.f32	s14, s13, s14
 252:eurorack/clouds/dsp/fx/fx_engine.h ****     }
 2204              		.loc 3 252 20 view .LVU597
 2205 00c4 DFEDCF6A 		vldr.32	s13, .L53+8
 2206              	.LVL139:
 250:eurorack/clouds/dsp/fx/fx_engine.h ****       previous_read_ = x;
 2207              		.loc 3 250 13 view .LVU598
 2208 00c8 A6EE277A 		vfma.f32	s14, s12, s15
 2209              	.LVL140:
 252:eurorack/clouds/dsp/fx/fx_engine.h ****     }
 2210              		.loc 3 252 20 view .LVU599
 2211 00cc 37EE267A 		vadd.f32	s14, s14, s13
 2212              	.LVL141:
ARM GAS  /var/folders/9s/8rp0_f2s1n31qbztm3b5_fdh0000gn/T//ccAcUEVW.s 			page 69


 252:eurorack/clouds/dsp/fx/fx_engine.h ****     }
 2213              		.loc 3 252 20 view .LVU600
 2214              	.LBE1561:
 2215              	.LBE1581:
  94:eurorack/clouds/dsp/fx/reverb.h ****       
 2216              		.loc 9 94 7 is_stmt 1 view .LVU601
 2217              	.LBB1582:
 2218              	.LBI1563:
 171:eurorack/clouds/dsp/fx/fx_engine.h ****       STATIC_ASSERT(D::base + D::length <= size, delay_memory_full);
 2219              		.loc 3 171 17 view .LVU602
 2220              	.LBB1576:
 2221              	.LBB1565:
 2222              	.LBI1565:
  65:eurorack/clouds/dsp/fx/fx_engine.h ****     return static_cast<uint16_t>(
 2223              		.loc 3 65 19 view .LVU603
 2224              	.LBB1566:
  66:eurorack/clouds/dsp/fx/fx_engine.h ****         stmlib::Clip16(static_cast<int32_t>(value * 4096.0f)));
 2225              		.loc 3 66 5 view .LVU604
 2226              	.LBB1567:
 2227              	.LBI1567:
 135:eurorack/stmlib/dsp/dsp.h ****     int32_t result;
 2228              		.loc 5 135 18 view .LVU605
 2229              	.LBB1568:
 136:eurorack/stmlib/dsp/dsp.h ****     __asm ("ssat %0, %1, %2" : "=r" (result) :  "I" (16), "r" (x) );
 2230              		.loc 5 136 5 view .LVU606
 137:eurorack/stmlib/dsp/dsp.h ****     return result;
 2231              		.loc 5 137 5 view .LVU607
 2232              	.LBE1568:
 2233              	.LBE1567:
  67:eurorack/clouds/dsp/fx/fx_engine.h ****   }
 2234              		.loc 3 67 23 is_stmt 0 view .LVU608
 2235 00d0 B0EE476A 		vmov.f32	s12, s14
 2236              	.LVL142:
  67:eurorack/clouds/dsp/fx/fx_engine.h ****   }
 2237              		.loc 3 67 23 view .LVU609
 2238 00d4 BEEECA6A 		vcvt.s32.f32	s12, s12, #12
 2239 00d8 16EE102A 		vmov	r2, s12	@ int
 2240              	.LVL143:
  67:eurorack/clouds/dsp/fx/fx_engine.h ****   }
 2241              		.loc 3 67 23 view .LVU610
 2242              	.LBE1566:
 2243              	.LBE1565:
 2244              	.LBE1576:
 2245              	.LBE1582:
 2246              		.loc 9 96 34 view .LVU611
 2247 00dc 17ED036A 		vldr.32	s12, [r7, #-12]
 2248              	.LBB1583:
 2249              	.LBB1577:
 2250              	.LBB1573:
 2251              	.LBB1571:
 2252              	.LBB1570:
 2253              	.LBB1569:
 137:eurorack/stmlib/dsp/dsp.h ****     return result;
 2254              		.loc 5 137 5 view .LVU612
 2255              		.syntax unified
 2256              	@ 137 "eurorack/stmlib/dsp/dsp.h" 1
 2257 00e0 02F30F02 		ssat r2, #16, r2
ARM GAS  /var/folders/9s/8rp0_f2s1n31qbztm3b5_fdh0000gn/T//ccAcUEVW.s 			page 70


 2258              	@ 0 "" 2
 2259              	.LVL144:
 2260              		.loc 5 138 5 is_stmt 1 view .LVU613
 2261              		.loc 5 138 5 is_stmt 0 view .LVU614
 2262              		.thumb
 2263              		.syntax unified
 2264              	.LBE1569:
 2265              	.LBE1570:
 2266              	.LBE1571:
 2267              	.LBE1573:
 2268              	.LBE1577:
 2269              	.LBE1583:
 2270              		.loc 9 96 13 view .LVU615
 2271 00e4 35EE865A 		vadd.f32	s10, s11, s12
 2272              	.LBB1584:
 2273              	.LBB1578:
 2274              	.LBB1574:
 2275              	.LBB1572:
  67:eurorack/clouds/dsp/fx/fx_engine.h ****   }
 2276              		.loc 3 67 62 view .LVU616
 2277 00e8 25F81320 		strh	r2, [r5, r3, lsl #1]	@ movhi
 2278              	.LVL145:
  67:eurorack/clouds/dsp/fx/fx_engine.h ****   }
 2279              		.loc 3 67 62 view .LVU617
 2280              	.LBE1572:
 2281              	.LBE1574:
 2282              	.LBE1578:
 2283              	.LBE1584:
 2284              		.loc 9 96 7 is_stmt 1 view .LVU618
 2285              	.LBB1585:
 2286              	.LBI1585:
 153:eurorack/clouds/dsp/fx/fx_engine.h ****       accumulator_ += value * scale;
 2287              		.loc 3 153 17 view .LVU619
 2288              	.LBE1585:
 2289              	.LBB1588:
 2290              	.LBB1589:
 203:eurorack/clouds/dsp/fx/fx_engine.h ****       } else {
 2291              		.loc 3 203 55 is_stmt 0 view .LVU620
 2292 00ec 04F17003 		add	r3, r4, #112
 2293              	.LBE1589:
 2294              	.LBE1588:
 2295              	.LBB1598:
 2296              	.LBB1599:
 2297              	.LBB1600:
 2298              	.LBB1601:
 2299              	.LBB1602:
 177:eurorack/clouds/dsp/fx/fx_engine.h ****       }
 2300              		.loc 3 177 49 view .LVU621
 2301 00f0 C4F30D02 		ubfx	r2, r4, #0, #14
 2302              	.LVL146:
 177:eurorack/clouds/dsp/fx/fx_engine.h ****       }
 2303              		.loc 3 177 49 view .LVU622
 2304              	.LBE1602:
 2305              	.LBE1601:
 2306              	.LBE1600:
 2307              	.LBE1599:
 2308              	.LBE1598:
ARM GAS  /var/folders/9s/8rp0_f2s1n31qbztm3b5_fdh0000gn/T//ccAcUEVW.s 			page 71


 2309              	.LBB1617:
 2310              	.LBB1586:
 154:eurorack/clouds/dsp/fx/fx_engine.h ****     }
 2311              		.loc 3 154 29 view .LVU623
 2312 00f4 25EE0B5A 		vmul.f32	s10, s10, s22
 2313              	.LVL147:
 154:eurorack/clouds/dsp/fx/fx_engine.h ****     }
 2314              		.loc 3 154 29 view .LVU624
 2315              	.LBE1586:
 2316              	.LBE1617:
 2317              	.LBB1618:
 2318              	.LBB1596:
 203:eurorack/clouds/dsp/fx/fx_engine.h ****       } else {
 2319              		.loc 3 203 60 view .LVU625
 2320 00f8 C3F30D03 		ubfx	r3, r3, #0, #14
 2321              	.LBB1590:
 2322              	.LBB1591:
  62:eurorack/clouds/dsp/fx/fx_engine.h ****   }
 2323              		.loc 3 62 12 view .LVU626
 2324 00fc 35F91330 		ldrsh	r3, [r5, r3, lsl #1]
 2325              	.LBE1591:
 2326              	.LBE1590:
 2327              	.LBE1596:
 2328              	.LBE1618:
 2329              	.LBB1619:
 2330              	.LBB1587:
 154:eurorack/clouds/dsp/fx/fx_engine.h ****     }
 2331              		.loc 3 154 20 view .LVU627
 2332 0100 A7EE265A 		vfma.f32	s10, s14, s13
 2333              	.LVL148:
 154:eurorack/clouds/dsp/fx/fx_engine.h ****     }
 2334              		.loc 3 154 20 view .LVU628
 2335              	.LBE1587:
 2336              	.LBE1619:
  97:eurorack/clouds/dsp/fx/reverb.h **** 
  98:eurorack/clouds/dsp/fx/reverb.h ****       // Diffuse through 4 allpasses.
  99:eurorack/clouds/dsp/fx/reverb.h ****       c.Read(ap1 TAIL, kap);
 2337              		.loc 9 99 7 is_stmt 1 view .LVU629
 2338              	.LBB1620:
 2339              	.LBI1588:
 199:eurorack/clouds/dsp/fx/fx_engine.h ****       STATIC_ASSERT(D::base + D::length <= size, delay_memory_full);
 2340              		.loc 3 199 17 view .LVU630
 2341              	.LBB1597:
 2342              	.LBB1594:
 2343              	.LBI1590:
  61:eurorack/clouds/dsp/fx/fx_engine.h ****     return static_cast<float>(static_cast<int16_t>(value)) / 4096.0f;
 2344              		.loc 3 61 23 view .LVU631
 2345              	.LBB1592:
  62:eurorack/clouds/dsp/fx/fx_engine.h ****   }
 2346              		.loc 3 62 5 view .LVU632
  62:eurorack/clouds/dsp/fx/fx_engine.h ****   }
 2347              		.loc 3 62 12 is_stmt 0 view .LVU633
 2348 0104 06EE903A 		vmov	s13, r3	@ int
 2349 0108 F8EEE66A 		vcvt.f32.s32	s13, s13
 2350              	.LBE1592:
 2351              	.LBE1594:
 209:eurorack/clouds/dsp/fx/fx_engine.h ****     }
ARM GAS  /var/folders/9s/8rp0_f2s1n31qbztm3b5_fdh0000gn/T//ccAcUEVW.s 			page 72


 2352              		.loc 3 209 20 view .LVU634
 2353 010c B0EE457A 		vmov.f32	s14, s10
 2354              	.LBB1595:
 2355              	.LBB1593:
  62:eurorack/clouds/dsp/fx/fx_engine.h ****   }
 2356              		.loc 3 62 62 view .LVU635
 2357 0110 66EEA76A 		vmul.f32	s13, s13, s15
 2358              	.LVL149:
  62:eurorack/clouds/dsp/fx/fx_engine.h ****   }
 2359              		.loc 3 62 62 view .LVU636
 2360              	.LBE1593:
 2361              	.LBE1595:
 209:eurorack/clouds/dsp/fx/fx_engine.h ****     }
 2362              		.loc 3 209 20 view .LVU637
 2363 0114 A8EE267A 		vfma.f32	s14, s16, s13
 2364              	.LVL150:
 209:eurorack/clouds/dsp/fx/fx_engine.h ****     }
 2365              		.loc 3 209 20 view .LVU638
 2366              	.LBE1597:
 2367              	.LBE1620:
 100:eurorack/clouds/dsp/fx/reverb.h ****       c.WriteAllPass(ap1, -kap);
 2368              		.loc 9 100 7 is_stmt 1 view .LVU639
 2369              	.LBB1621:
 2370              	.LBI1598:
 194:eurorack/clouds/dsp/fx/fx_engine.h ****       WriteAllPass(d, 0, scale);
 2371              		.loc 3 194 17 view .LVU640
 2372              	.LBB1616:
 2373              	.LBI1599:
 188:eurorack/clouds/dsp/fx/fx_engine.h ****       Write(d, offset, scale);
 2374              		.loc 3 188 17 view .LVU641
 2375              	.LBB1615:
 2376              	.LBB1613:
 2377              	.LBI1601:
 171:eurorack/clouds/dsp/fx/fx_engine.h ****       STATIC_ASSERT(D::base + D::length <= size, delay_memory_full);
 2378              		.loc 3 171 17 view .LVU642
 2379              	.LBB1611:
 2380              	.LBB1603:
 2381              	.LBI1603:
  65:eurorack/clouds/dsp/fx/fx_engine.h ****     return static_cast<uint16_t>(
 2382              		.loc 3 65 19 view .LVU643
 2383              	.LBB1604:
  66:eurorack/clouds/dsp/fx/fx_engine.h ****         stmlib::Clip16(static_cast<int32_t>(value * 4096.0f)));
 2384              		.loc 3 66 5 view .LVU644
 2385              	.LBB1605:
 2386              	.LBI1605:
 135:eurorack/stmlib/dsp/dsp.h ****     int32_t result;
 2387              		.loc 5 135 18 view .LVU645
 2388              	.LBB1606:
 136:eurorack/stmlib/dsp/dsp.h ****     __asm ("ssat %0, %1, %2" : "=r" (result) :  "I" (16), "r" (x) );
 2389              		.loc 5 136 5 view .LVU646
 137:eurorack/stmlib/dsp/dsp.h ****     return result;
 2390              		.loc 5 137 5 view .LVU647
 2391              	.LBE1606:
 2392              	.LBE1605:
  67:eurorack/clouds/dsp/fx/fx_engine.h ****   }
 2393              		.loc 3 67 23 is_stmt 0 view .LVU648
 2394 0118 B0EE475A 		vmov.f32	s10, s14
ARM GAS  /var/folders/9s/8rp0_f2s1n31qbztm3b5_fdh0000gn/T//ccAcUEVW.s 			page 73


 2395              	.LBE1604:
 2396              	.LBE1603:
 2397              	.LBE1611:
 2398              	.LBE1613:
 190:eurorack/clouds/dsp/fx/fx_engine.h ****     }
 2399              		.loc 3 190 20 view .LVU649
 2400 011c E8EE476A 		vfms.f32	s13, s16, s14
 2401              	.LVL151:
 2402              	.LBB1614:
 2403              	.LBB1612:
 2404              	.LBB1610:
 2405              	.LBB1609:
  67:eurorack/clouds/dsp/fx/fx_engine.h ****   }
 2406              		.loc 3 67 23 view .LVU650
 2407 0120 BEEECA5A 		vcvt.s32.f32	s10, s10, #12
 2408 0124 15EE103A 		vmov	r3, s10	@ int
 2409              	.LVL152:
 2410              	.LBB1608:
 2411              	.LBB1607:
 137:eurorack/stmlib/dsp/dsp.h ****     return result;
 2412              		.loc 5 137 5 view .LVU651
 2413              		.syntax unified
 2414              	@ 137 "eurorack/stmlib/dsp/dsp.h" 1
 2415 0128 03F30F03 		ssat r3, #16, r3
 2416              	@ 0 "" 2
 2417              	.LVL153:
 2418              		.loc 5 138 5 is_stmt 1 view .LVU652
 2419              		.loc 5 138 5 is_stmt 0 view .LVU653
 2420              		.thumb
 2421              		.syntax unified
 2422              	.LBE1607:
 2423              	.LBE1608:
  67:eurorack/clouds/dsp/fx/fx_engine.h ****   }
 2424              		.loc 3 67 62 view .LVU654
 2425 012c 25F81230 		strh	r3, [r5, r2, lsl #1]	@ movhi
 2426              	.LVL154:
  67:eurorack/clouds/dsp/fx/fx_engine.h ****   }
 2427              		.loc 3 67 62 view .LVU655
 2428              	.LBE1609:
 2429              	.LBE1610:
 2430              	.LBE1612:
 2431              	.LBE1614:
 2432              	.LBE1615:
 2433              	.LBE1616:
 2434              	.LBE1621:
 101:eurorack/clouds/dsp/fx/reverb.h ****       c.Read(ap2 TAIL, kap);
 2435              		.loc 9 101 7 is_stmt 1 view .LVU656
 2436              	.LBB1622:
 2437              	.LBI1622:
 199:eurorack/clouds/dsp/fx/fx_engine.h ****       STATIC_ASSERT(D::base + D::length <= size, delay_memory_full);
 2438              		.loc 3 199 17 view .LVU657
 2439              	.LBB1623:
 2440              	.LBB1624:
 2441              	.LBI1624:
  61:eurorack/clouds/dsp/fx/fx_engine.h ****     return static_cast<float>(static_cast<int16_t>(value)) / 4096.0f;
 2442              		.loc 3 61 23 view .LVU658
 2443              	.LBB1625:
ARM GAS  /var/folders/9s/8rp0_f2s1n31qbztm3b5_fdh0000gn/T//ccAcUEVW.s 			page 74


  62:eurorack/clouds/dsp/fx/fx_engine.h ****   }
 2444              		.loc 3 62 5 view .LVU659
 2445              	.LBE1625:
 2446              	.LBE1624:
 203:eurorack/clouds/dsp/fx/fx_engine.h ****       } else {
 2447              		.loc 3 203 55 is_stmt 0 view .LVU660
 2448 0130 04F21313 		addw	r3, r4, #275
 2449              	.LVL155:
 203:eurorack/clouds/dsp/fx/fx_engine.h ****       } else {
 2450              		.loc 3 203 60 view .LVU661
 2451 0134 C3F30D03 		ubfx	r3, r3, #0, #14
 2452              	.LVL156:
 2453              	.LBB1629:
 2454              	.LBB1626:
  62:eurorack/clouds/dsp/fx/fx_engine.h ****   }
 2455              		.loc 3 62 12 view .LVU662
 2456 0138 35F91330 		ldrsh	r3, [r5, r3, lsl #1]
 2457 013c 07EE103A 		vmov	s14, r3	@ int
 2458              	.LBE1626:
 2459              	.LBE1629:
 2460              	.LBE1623:
 2461              	.LBE1622:
 2462              	.LBB1634:
 2463              	.LBB1635:
 2464              	.LBB1636:
 2465              	.LBB1637:
 2466              	.LBB1638:
 177:eurorack/clouds/dsp/fx/fx_engine.h ****       }
 2467              		.loc 3 177 29 view .LVU663
 2468 0140 04F17203 		add	r3, r4, #114
 2469              	.LBE1638:
 2470              	.LBE1637:
 2471              	.LBE1636:
 2472              	.LBE1635:
 2473              	.LBE1634:
 2474              	.LBB1657:
 2475              	.LBB1632:
 2476              	.LBB1630:
 2477              	.LBB1627:
  62:eurorack/clouds/dsp/fx/fx_engine.h ****   }
 2478              		.loc 3 62 12 view .LVU664
 2479 0144 B8EEC77A 		vcvt.f32.s32	s14, s14
 2480              	.LBE1627:
 2481              	.LBE1630:
 2482              	.LBE1632:
 2483              	.LBE1657:
 2484              	.LBB1658:
 2485              	.LBB1655:
 2486              	.LBB1653:
 2487              	.LBB1650:
 2488              	.LBB1647:
 177:eurorack/clouds/dsp/fx/fx_engine.h ****       }
 2489              		.loc 3 177 49 view .LVU665
 2490 0148 C3F30D03 		ubfx	r3, r3, #0, #14
 2491              	.LBE1647:
 2492              	.LBE1650:
 2493              	.LBE1653:
ARM GAS  /var/folders/9s/8rp0_f2s1n31qbztm3b5_fdh0000gn/T//ccAcUEVW.s 			page 75


 2494              	.LBE1655:
 2495              	.LBE1658:
 2496              	.LBB1659:
 2497              	.LBB1633:
 2498              	.LBB1631:
 2499              	.LBB1628:
  62:eurorack/clouds/dsp/fx/fx_engine.h ****   }
 2500              		.loc 3 62 62 view .LVU666
 2501 014c 27EE277A 		vmul.f32	s14, s14, s15
 2502              	.LVL157:
  62:eurorack/clouds/dsp/fx/fx_engine.h ****   }
 2503              		.loc 3 62 62 view .LVU667
 2504              	.LBE1628:
 2505              	.LBE1631:
 209:eurorack/clouds/dsp/fx/fx_engine.h ****     }
 2506              		.loc 3 209 20 view .LVU668
 2507 0150 E8EE076A 		vfma.f32	s13, s16, s14
 2508              	.LVL158:
 209:eurorack/clouds/dsp/fx/fx_engine.h ****     }
 2509              		.loc 3 209 20 view .LVU669
 2510              	.LBE1633:
 2511              	.LBE1659:
 102:eurorack/clouds/dsp/fx/reverb.h ****       c.WriteAllPass(ap2, -kap);
 2512              		.loc 9 102 7 is_stmt 1 view .LVU670
 2513              	.LBB1660:
 2514              	.LBI1634:
 194:eurorack/clouds/dsp/fx/fx_engine.h ****       WriteAllPass(d, 0, scale);
 2515              		.loc 3 194 17 view .LVU671
 2516              	.LBB1656:
 2517              	.LBI1635:
 188:eurorack/clouds/dsp/fx/fx_engine.h ****       Write(d, offset, scale);
 2518              		.loc 3 188 17 view .LVU672
 2519              	.LBB1654:
 2520              	.LBB1651:
 2521              	.LBI1637:
 171:eurorack/clouds/dsp/fx/fx_engine.h ****       STATIC_ASSERT(D::base + D::length <= size, delay_memory_full);
 2522              		.loc 3 171 17 view .LVU673
 2523              	.LBB1648:
 2524              	.LBB1639:
 2525              	.LBI1639:
  65:eurorack/clouds/dsp/fx/fx_engine.h ****     return static_cast<uint16_t>(
 2526              		.loc 3 65 19 view .LVU674
 2527              	.LBB1640:
  66:eurorack/clouds/dsp/fx/fx_engine.h ****         stmlib::Clip16(static_cast<int32_t>(value * 4096.0f)));
 2528              		.loc 3 66 5 view .LVU675
 2529              	.LBB1641:
 2530              	.LBI1641:
 135:eurorack/stmlib/dsp/dsp.h ****     int32_t result;
 2531              		.loc 5 135 18 view .LVU676
 2532              	.LBB1642:
 136:eurorack/stmlib/dsp/dsp.h ****     __asm ("ssat %0, %1, %2" : "=r" (result) :  "I" (16), "r" (x) );
 2533              		.loc 5 136 5 view .LVU677
 137:eurorack/stmlib/dsp/dsp.h ****     return result;
 2534              		.loc 5 137 5 view .LVU678
 2535              	.LBE1642:
 2536              	.LBE1641:
  67:eurorack/clouds/dsp/fx/fx_engine.h ****   }
ARM GAS  /var/folders/9s/8rp0_f2s1n31qbztm3b5_fdh0000gn/T//ccAcUEVW.s 			page 76


 2537              		.loc 3 67 23 is_stmt 0 view .LVU679
 2538 0154 B0EE665A 		vmov.f32	s10, s13
 2539              	.LBE1640:
 2540              	.LBE1639:
 2541              	.LBE1648:
 2542              	.LBE1651:
 190:eurorack/clouds/dsp/fx/fx_engine.h ****     }
 2543              		.loc 3 190 20 view .LVU680
 2544 0158 A8EE667A 		vfms.f32	s14, s16, s13
 2545              	.LVL159:
 2546              	.LBB1652:
 2547              	.LBB1649:
 2548              	.LBB1646:
 2549              	.LBB1645:
  67:eurorack/clouds/dsp/fx/fx_engine.h ****   }
 2550              		.loc 3 67 23 view .LVU681
 2551 015c BEEECA5A 		vcvt.s32.f32	s10, s10, #12
 2552 0160 15EE102A 		vmov	r2, s10	@ int
 2553              	.LVL160:
 2554              	.LBB1644:
 2555              	.LBB1643:
 137:eurorack/stmlib/dsp/dsp.h ****     return result;
 2556              		.loc 5 137 5 view .LVU682
 2557              		.syntax unified
 2558              	@ 137 "eurorack/stmlib/dsp/dsp.h" 1
 2559 0164 02F30F02 		ssat r2, #16, r2
 2560              	@ 0 "" 2
 2561              	.LVL161:
 2562              		.loc 5 138 5 is_stmt 1 view .LVU683
 2563              		.loc 5 138 5 is_stmt 0 view .LVU684
 2564              		.thumb
 2565              		.syntax unified
 2566              	.LBE1643:
 2567              	.LBE1644:
  67:eurorack/clouds/dsp/fx/fx_engine.h ****   }
 2568              		.loc 3 67 62 view .LVU685
 2569 0168 25F81320 		strh	r2, [r5, r3, lsl #1]	@ movhi
 2570              	.LVL162:
  67:eurorack/clouds/dsp/fx/fx_engine.h ****   }
 2571              		.loc 3 67 62 view .LVU686
 2572              	.LBE1645:
 2573              	.LBE1646:
 2574              	.LBE1649:
 2575              	.LBE1652:
 2576              	.LBE1654:
 2577              	.LBE1656:
 2578              	.LBE1660:
 103:eurorack/clouds/dsp/fx/reverb.h ****       c.Read(ap3 TAIL, kap);
 2579              		.loc 9 103 7 is_stmt 1 view .LVU687
 2580              	.LBB1661:
 2581              	.LBI1661:
 199:eurorack/clouds/dsp/fx/fx_engine.h ****       STATIC_ASSERT(D::base + D::length <= size, delay_memory_full);
 2582              		.loc 3 199 17 view .LVU688
 2583              	.LBB1662:
 2584              	.LBB1663:
 2585              	.LBI1663:
  61:eurorack/clouds/dsp/fx/fx_engine.h ****     return static_cast<float>(static_cast<int16_t>(value)) / 4096.0f;
ARM GAS  /var/folders/9s/8rp0_f2s1n31qbztm3b5_fdh0000gn/T//ccAcUEVW.s 			page 77


 2586              		.loc 3 61 23 view .LVU689
 2587              	.LBB1664:
  62:eurorack/clouds/dsp/fx/fx_engine.h ****   }
 2588              		.loc 3 62 5 view .LVU690
 2589              	.LBE1664:
 2590              	.LBE1663:
 203:eurorack/clouds/dsp/fx/fx_engine.h ****       } else {
 2591              		.loc 3 203 55 is_stmt 0 view .LVU691
 2592 016c 04F20523 		addw	r3, r4, #517
 2593              	.LVL163:
 203:eurorack/clouds/dsp/fx/fx_engine.h ****       } else {
 2594              		.loc 3 203 60 view .LVU692
 2595 0170 C3F30D03 		ubfx	r3, r3, #0, #14
 2596              	.LVL164:
 2597              	.LBB1668:
 2598              	.LBB1665:
  62:eurorack/clouds/dsp/fx/fx_engine.h ****   }
 2599              		.loc 3 62 12 view .LVU693
 2600 0174 35F91330 		ldrsh	r3, [r5, r3, lsl #1]
 2601 0178 06EE903A 		vmov	s13, r3	@ int
 2602              	.LBE1665:
 2603              	.LBE1668:
 2604              	.LBE1662:
 2605              	.LBE1661:
 2606              	.LBB1673:
 2607              	.LBB1674:
 2608              	.LBB1675:
 2609              	.LBB1676:
 2610              	.LBB1677:
 177:eurorack/clouds/dsp/fx/fx_engine.h ****       }
 2611              		.loc 3 177 29 view .LVU694
 2612 017c 04F21513 		addw	r3, r4, #277
 2613              	.LBE1677:
 2614              	.LBE1676:
 2615              	.LBE1675:
 2616              	.LBE1674:
 2617              	.LBE1673:
 2618              	.LBB1696:
 2619              	.LBB1671:
 2620              	.LBB1669:
 2621              	.LBB1666:
  62:eurorack/clouds/dsp/fx/fx_engine.h ****   }
 2622              		.loc 3 62 12 view .LVU695
 2623 0180 F8EEE66A 		vcvt.f32.s32	s13, s13
 2624              	.LBE1666:
 2625              	.LBE1669:
 2626              	.LBE1671:
 2627              	.LBE1696:
 2628              	.LBB1697:
 2629              	.LBB1694:
 2630              	.LBB1692:
 2631              	.LBB1689:
 2632              	.LBB1686:
 177:eurorack/clouds/dsp/fx/fx_engine.h ****       }
 2633              		.loc 3 177 49 view .LVU696
 2634 0184 C3F30D03 		ubfx	r3, r3, #0, #14
 2635              	.LBE1686:
ARM GAS  /var/folders/9s/8rp0_f2s1n31qbztm3b5_fdh0000gn/T//ccAcUEVW.s 			page 78


 2636              	.LBE1689:
 2637              	.LBE1692:
 2638              	.LBE1694:
 2639              	.LBE1697:
 2640              	.LBB1698:
 2641              	.LBB1672:
 2642              	.LBB1670:
 2643              	.LBB1667:
  62:eurorack/clouds/dsp/fx/fx_engine.h ****   }
 2644              		.loc 3 62 62 view .LVU697
 2645 0188 66EEA76A 		vmul.f32	s13, s13, s15
 2646              	.LVL165:
  62:eurorack/clouds/dsp/fx/fx_engine.h ****   }
 2647              		.loc 3 62 62 view .LVU698
 2648              	.LBE1667:
 2649              	.LBE1670:
 209:eurorack/clouds/dsp/fx/fx_engine.h ****     }
 2650              		.loc 3 209 20 view .LVU699
 2651 018c A8EE267A 		vfma.f32	s14, s16, s13
 2652              	.LVL166:
 209:eurorack/clouds/dsp/fx/fx_engine.h ****     }
 2653              		.loc 3 209 20 view .LVU700
 2654              	.LBE1672:
 2655              	.LBE1698:
 104:eurorack/clouds/dsp/fx/reverb.h ****       c.WriteAllPass(ap3, -kap);
 2656              		.loc 9 104 7 is_stmt 1 view .LVU701
 2657              	.LBB1699:
 2658              	.LBI1673:
 194:eurorack/clouds/dsp/fx/fx_engine.h ****       WriteAllPass(d, 0, scale);
 2659              		.loc 3 194 17 view .LVU702
 2660              	.LBB1695:
 2661              	.LBI1674:
 188:eurorack/clouds/dsp/fx/fx_engine.h ****       Write(d, offset, scale);
 2662              		.loc 3 188 17 view .LVU703
 2663              	.LBB1693:
 2664              	.LBB1690:
 2665              	.LBI1676:
 171:eurorack/clouds/dsp/fx/fx_engine.h ****       STATIC_ASSERT(D::base + D::length <= size, delay_memory_full);
 2666              		.loc 3 171 17 view .LVU704
 2667              	.LBB1687:
 2668              	.LBB1678:
 2669              	.LBI1678:
  65:eurorack/clouds/dsp/fx/fx_engine.h ****     return static_cast<uint16_t>(
 2670              		.loc 3 65 19 view .LVU705
 2671              	.LBB1679:
  66:eurorack/clouds/dsp/fx/fx_engine.h ****         stmlib::Clip16(static_cast<int32_t>(value * 4096.0f)));
 2672              		.loc 3 66 5 view .LVU706
 2673              	.LBB1680:
 2674              	.LBI1680:
 135:eurorack/stmlib/dsp/dsp.h ****     int32_t result;
 2675              		.loc 5 135 18 view .LVU707
 2676              	.LBB1681:
 136:eurorack/stmlib/dsp/dsp.h ****     __asm ("ssat %0, %1, %2" : "=r" (result) :  "I" (16), "r" (x) );
 2677              		.loc 5 136 5 view .LVU708
 137:eurorack/stmlib/dsp/dsp.h ****     return result;
 2678              		.loc 5 137 5 view .LVU709
 2679              	.LBE1681:
ARM GAS  /var/folders/9s/8rp0_f2s1n31qbztm3b5_fdh0000gn/T//ccAcUEVW.s 			page 79


 2680              	.LBE1680:
  67:eurorack/clouds/dsp/fx/fx_engine.h ****   }
 2681              		.loc 3 67 23 is_stmt 0 view .LVU710
 2682 0190 B0EE475A 		vmov.f32	s10, s14
 2683              	.LBE1679:
 2684              	.LBE1678:
 2685              	.LBE1687:
 2686              	.LBE1690:
 190:eurorack/clouds/dsp/fx/fx_engine.h ****     }
 2687              		.loc 3 190 20 view .LVU711
 2688 0194 E8EE476A 		vfms.f32	s13, s16, s14
 2689              	.LVL167:
 2690              	.LBB1691:
 2691              	.LBB1688:
 2692              	.LBB1685:
 2693              	.LBB1684:
  67:eurorack/clouds/dsp/fx/fx_engine.h ****   }
 2694              		.loc 3 67 23 view .LVU712
 2695 0198 BEEECA5A 		vcvt.s32.f32	s10, s10, #12
 2696 019c 15EE102A 		vmov	r2, s10	@ int
 2697              	.LVL168:
 2698              	.LBB1683:
 2699              	.LBB1682:
 137:eurorack/stmlib/dsp/dsp.h ****     return result;
 2700              		.loc 5 137 5 view .LVU713
 2701              		.syntax unified
 2702              	@ 137 "eurorack/stmlib/dsp/dsp.h" 1
 2703 01a0 02F30F02 		ssat r2, #16, r2
 2704              	@ 0 "" 2
 2705              	.LVL169:
 2706              		.loc 5 138 5 is_stmt 1 view .LVU714
 2707              		.loc 5 138 5 is_stmt 0 view .LVU715
 2708              		.thumb
 2709              		.syntax unified
 2710              	.LBE1682:
 2711              	.LBE1683:
  67:eurorack/clouds/dsp/fx/fx_engine.h ****   }
 2712              		.loc 3 67 62 view .LVU716
 2713 01a4 25F81320 		strh	r2, [r5, r3, lsl #1]	@ movhi
 2714              	.LVL170:
  67:eurorack/clouds/dsp/fx/fx_engine.h ****   }
 2715              		.loc 3 67 62 view .LVU717
 2716              	.LBE1684:
 2717              	.LBE1685:
 2718              	.LBE1688:
 2719              	.LBE1691:
 2720              	.LBE1693:
 2721              	.LBE1695:
 2722              	.LBE1699:
 105:eurorack/clouds/dsp/fx/reverb.h ****       c.Read(ap4 TAIL, kap);
 2723              		.loc 9 105 7 is_stmt 1 view .LVU718
 2724              	.LBB1700:
 2725              	.LBI1700:
 199:eurorack/clouds/dsp/fx/fx_engine.h ****       STATIC_ASSERT(D::base + D::length <= size, delay_memory_full);
 2726              		.loc 3 199 17 view .LVU719
 2727              	.LBB1701:
 2728              	.LBB1702:
ARM GAS  /var/folders/9s/8rp0_f2s1n31qbztm3b5_fdh0000gn/T//ccAcUEVW.s 			page 80


 2729              	.LBI1702:
  61:eurorack/clouds/dsp/fx/fx_engine.h ****     return static_cast<float>(static_cast<int16_t>(value)) / 4096.0f;
 2730              		.loc 3 61 23 view .LVU720
 2731              	.LBB1703:
  62:eurorack/clouds/dsp/fx/fx_engine.h ****   }
 2732              		.loc 3 62 5 view .LVU721
 2733              	.LBE1703:
 2734              	.LBE1702:
 203:eurorack/clouds/dsp/fx/fx_engine.h ****       } else {
 2735              		.loc 3 203 55 is_stmt 0 view .LVU722
 2736 01a8 04F29533 		addw	r3, r4, #917
 2737              	.LVL171:
 203:eurorack/clouds/dsp/fx/fx_engine.h ****       } else {
 2738              		.loc 3 203 60 view .LVU723
 2739 01ac C3F30D03 		ubfx	r3, r3, #0, #14
 2740              	.LVL172:
 2741              	.LBB1707:
 2742              	.LBB1704:
  62:eurorack/clouds/dsp/fx/fx_engine.h ****   }
 2743              		.loc 3 62 12 view .LVU724
 2744 01b0 35F91330 		ldrsh	r3, [r5, r3, lsl #1]
 2745 01b4 07EE103A 		vmov	s14, r3	@ int
 2746              	.LBE1704:
 2747              	.LBE1707:
 2748              	.LBE1701:
 2749              	.LBE1700:
 2750              	.LBB1712:
 2751              	.LBB1713:
 2752              	.LBB1714:
 2753              	.LBB1715:
 2754              	.LBB1716:
 177:eurorack/clouds/dsp/fx/fx_engine.h ****       }
 2755              		.loc 3 177 29 view .LVU725
 2756 01b8 04F20723 		addw	r3, r4, #519
 2757              	.LBE1716:
 2758              	.LBE1715:
 2759              	.LBE1714:
 2760              	.LBE1713:
 2761              	.LBE1712:
 2762              	.LBB1749:
 2763              	.LBB1710:
 2764              	.LBB1708:
 2765              	.LBB1705:
  62:eurorack/clouds/dsp/fx/fx_engine.h ****   }
 2766              		.loc 3 62 12 view .LVU726
 2767 01bc B8EEC77A 		vcvt.f32.s32	s14, s14
 2768              	.LBE1705:
 2769              	.LBE1708:
 2770              	.LBE1710:
 2771              	.LBE1749:
 2772              	.LBB1750:
 2773              	.LBB1744:
 2774              	.LBB1739:
 2775              	.LBB1734:
 2776              	.LBB1729:
 177:eurorack/clouds/dsp/fx/fx_engine.h ****       }
 2777              		.loc 3 177 49 view .LVU727
ARM GAS  /var/folders/9s/8rp0_f2s1n31qbztm3b5_fdh0000gn/T//ccAcUEVW.s 			page 81


 2778 01c0 C3F30D03 		ubfx	r3, r3, #0, #14
 2779              	.LBE1729:
 2780              	.LBE1734:
 2781              	.LBE1739:
 2782              	.LBE1744:
 2783              	.LBE1750:
 2784              	.LBB1751:
 2785              	.LBB1711:
 2786              	.LBB1709:
 2787              	.LBB1706:
  62:eurorack/clouds/dsp/fx/fx_engine.h ****   }
 2788              		.loc 3 62 62 view .LVU728
 2789 01c4 27EE277A 		vmul.f32	s14, s14, s15
 2790              	.LVL173:
  62:eurorack/clouds/dsp/fx/fx_engine.h ****   }
 2791              		.loc 3 62 62 view .LVU729
 2792              	.LBE1706:
 2793              	.LBE1709:
 209:eurorack/clouds/dsp/fx/fx_engine.h ****     }
 2794              		.loc 3 209 20 view .LVU730
 2795 01c8 E8EE076A 		vfma.f32	s13, s16, s14
 2796              	.LVL174:
 209:eurorack/clouds/dsp/fx/fx_engine.h ****     }
 2797              		.loc 3 209 20 view .LVU731
 2798              	.LBE1711:
 2799              	.LBE1751:
 106:eurorack/clouds/dsp/fx/reverb.h ****       c.WriteAllPass(ap4, -kap);
 2800              		.loc 9 106 7 is_stmt 1 view .LVU732
 2801              	.LBB1752:
 2802              	.LBI1712:
 194:eurorack/clouds/dsp/fx/fx_engine.h ****       WriteAllPass(d, 0, scale);
 2803              		.loc 3 194 17 view .LVU733
 2804              	.LBB1745:
 2805              	.LBI1713:
 188:eurorack/clouds/dsp/fx/fx_engine.h ****       Write(d, offset, scale);
 2806              		.loc 3 188 17 view .LVU734
 2807              	.LBB1740:
 2808              	.LBB1735:
 2809              	.LBI1715:
 171:eurorack/clouds/dsp/fx/fx_engine.h ****       STATIC_ASSERT(D::base + D::length <= size, delay_memory_full);
 2810              		.loc 3 171 17 view .LVU735
 2811              	.LBB1730:
 2812              	.LBB1717:
 2813              	.LBI1717:
  65:eurorack/clouds/dsp/fx/fx_engine.h ****     return static_cast<uint16_t>(
 2814              		.loc 3 65 19 view .LVU736
 2815              	.LBB1718:
  66:eurorack/clouds/dsp/fx/fx_engine.h ****         stmlib::Clip16(static_cast<int32_t>(value * 4096.0f)));
 2816              		.loc 3 66 5 view .LVU737
 2817              	.LBB1719:
 2818              	.LBI1719:
 135:eurorack/stmlib/dsp/dsp.h ****     int32_t result;
 2819              		.loc 5 135 18 view .LVU738
 2820              	.LBB1720:
 136:eurorack/stmlib/dsp/dsp.h ****     __asm ("ssat %0, %1, %2" : "=r" (result) :  "I" (16), "r" (x) );
 2821              		.loc 5 136 5 view .LVU739
 137:eurorack/stmlib/dsp/dsp.h ****     return result;
ARM GAS  /var/folders/9s/8rp0_f2s1n31qbztm3b5_fdh0000gn/T//ccAcUEVW.s 			page 82


 2822              		.loc 5 137 5 view .LVU740
 2823              	.LBE1720:
 2824              	.LBE1719:
  67:eurorack/clouds/dsp/fx/fx_engine.h ****   }
 2825              		.loc 3 67 23 is_stmt 0 view .LVU741
 2826 01cc B0EE665A 		vmov.f32	s10, s13
 2827              	.LBE1718:
 2828              	.LBE1717:
 2829              	.LBE1730:
 2830              	.LBE1735:
 190:eurorack/clouds/dsp/fx/fx_engine.h ****     }
 2831              		.loc 3 190 20 view .LVU742
 2832 01d0 A8EE667A 		vfms.f32	s14, s16, s13
 2833              	.LVL175:
 190:eurorack/clouds/dsp/fx/fx_engine.h ****     }
 2834              		.loc 3 190 20 view .LVU743
 2835              	.LBE1740:
 2836              	.LBE1745:
 2837              	.LBE1752:
 2838              	.LBB1753:
 2839              	.LBB1754:
 244:eurorack/clouds/dsp/fx/fx_engine.h ****       MAKE_INTEGRAL_FRACTIONAL(offset);
 2840              		.loc 3 244 14 view .LVU744
 2841 01d4 DFED8C6A 		vldr.32	s13, .L53+12
 2842              	.LVL176:
 244:eurorack/clouds/dsp/fx/fx_engine.h ****       MAKE_INTEGRAL_FRACTIONAL(offset);
 2843              		.loc 3 244 14 view .LVU745
 2844              	.LBE1754:
 2845              	.LBE1753:
 2846              	.LBB1779:
 2847              	.LBB1746:
 2848              	.LBB1741:
 2849              	.LBB1736:
 2850              	.LBB1731:
 2851              	.LBB1726:
 2852              	.LBB1723:
  67:eurorack/clouds/dsp/fx/fx_engine.h ****   }
 2853              		.loc 3 67 23 view .LVU746
 2854 01d8 BEEECA5A 		vcvt.s32.f32	s10, s10, #12
 2855              	.LVL177:
  67:eurorack/clouds/dsp/fx/fx_engine.h ****   }
 2856              		.loc 3 67 23 view .LVU747
 2857 01dc 15EE102A 		vmov	r2, s10	@ int
 2858              	.LVL178:
  67:eurorack/clouds/dsp/fx/fx_engine.h ****   }
 2859              		.loc 3 67 23 view .LVU748
 2860              	.LBE1723:
 2861              	.LBE1726:
 2862              	.LBE1731:
 2863              	.LBE1736:
 2864              	.LBE1741:
 2865              	.LBE1746:
 2866              	.LBE1779:
 2867              	.LBB1780:
 2868              	.LBB1773:
 244:eurorack/clouds/dsp/fx/fx_engine.h ****       MAKE_INTEGRAL_FRACTIONAL(offset);
 2869              		.loc 3 244 14 view .LVU749
ARM GAS  /var/folders/9s/8rp0_f2s1n31qbztm3b5_fdh0000gn/T//ccAcUEVW.s 			page 83


 2870 01e0 9FED8A5A 		vldr.32	s10, .L53+16
 2871              	.LBE1773:
 2872              	.LBE1780:
 2873              	.LBB1781:
 2874              	.LBB1747:
 2875              	.LBB1742:
 2876              	.LBB1737:
 2877              	.LBB1732:
 2878              	.LBB1727:
 2879              	.LBB1724:
 2880              	.LBB1722:
 2881              	.LBB1721:
 137:eurorack/stmlib/dsp/dsp.h ****     return result;
 2882              		.loc 5 137 5 view .LVU750
 2883              		.syntax unified
 2884              	@ 137 "eurorack/stmlib/dsp/dsp.h" 1
 2885 01e4 02F30F02 		ssat r2, #16, r2
 2886              	@ 0 "" 2
 2887              	.LVL179:
 2888              		.loc 5 138 5 is_stmt 1 view .LVU751
 2889              		.loc 5 138 5 is_stmt 0 view .LVU752
 2890              		.thumb
 2891              		.syntax unified
 2892              	.LBE1721:
 2893              	.LBE1722:
 2894              	.LBE1724:
 2895              	.LBE1727:
 2896              	.LBE1732:
 2897              	.LBE1737:
 2898              	.LBE1742:
 2899              	.LBE1747:
 2900              	.LBE1781:
 2901              	.LBB1782:
 2902              	.LBB1774:
 244:eurorack/clouds/dsp/fx/fx_engine.h ****       MAKE_INTEGRAL_FRACTIONAL(offset);
 2903              		.loc 3 244 14 view .LVU753
 2904 01e8 A0EE265A 		vfma.f32	s10, s0, s13
 2905              	.LBE1774:
 2906              	.LBE1782:
 2907              	.LBB1783:
 2908              	.LBB1748:
 2909              	.LBB1743:
 2910              	.LBB1738:
 2911              	.LBB1733:
 2912              	.LBB1728:
 2913              	.LBB1725:
  67:eurorack/clouds/dsp/fx/fx_engine.h ****   }
 2914              		.loc 3 67 62 view .LVU754
 2915 01ec 25F81320 		strh	r2, [r5, r3, lsl #1]	@ movhi
 2916              	.LVL180:
  67:eurorack/clouds/dsp/fx/fx_engine.h ****   }
 2917              		.loc 3 67 62 view .LVU755
 2918              	.LBE1725:
 2919              	.LBE1728:
 2920              	.LBE1733:
 2921              	.LBE1738:
 2922              	.LBE1743:
ARM GAS  /var/folders/9s/8rp0_f2s1n31qbztm3b5_fdh0000gn/T//ccAcUEVW.s 			page 84


 2923              	.LBE1748:
 2924              	.LBE1783:
 107:eurorack/clouds/dsp/fx/reverb.h ****       c.Write(apout);
 2925              		.loc 9 107 7 is_stmt 1 view .LVU756
 108:eurorack/clouds/dsp/fx/reverb.h ****       
 109:eurorack/clouds/dsp/fx/reverb.h ****       // Main reverb loop.
 110:eurorack/clouds/dsp/fx/reverb.h ****       c.Load(apout);
 2926              		.loc 9 110 7 view .LVU757
 111:eurorack/clouds/dsp/fx/reverb.h ****       c.Interpolate(del2, 4680.0f, LFO_2, 100.0f, krt);
 2927              		.loc 9 111 7 view .LVU758
 2928              	.LBB1784:
 2929              	.LBI1753:
 241:eurorack/clouds/dsp/fx/fx_engine.h ****         D& d, float offset, LFOIndex index, float amplitude, float scale) {
 2930              		.loc 3 241 17 view .LVU759
 2931              	.LBB1775:
 247:eurorack/clouds/dsp/fx/fx_engine.h ****       float b = DataType<format>::Decompress(
 2932              		.loc 3 247 49 is_stmt 0 view .LVU760
 2933 01f0 42F65252 		movw	r2, #11602
 2934              	.LVL181:
 245:eurorack/clouds/dsp/fx/fx_engine.h ****       float a = DataType<format>::Decompress(
 2935              		.loc 3 245 7 view .LVU761
 2936 01f4 FDEEC56A 		vcvt.s32.f32	s13, s10
 2937              	.LVL182:
 247:eurorack/clouds/dsp/fx/fx_engine.h ****       float b = DataType<format>::Decompress(
 2938              		.loc 3 247 31 view .LVU762
 2939 01f8 16EE903A 		vmov	r3, s13	@ int
 2940              	.LVL183:
 245:eurorack/clouds/dsp/fx/fx_engine.h ****       float a = DataType<format>::Decompress(
 2941              		.loc 3 245 7 view .LVU763
 2942 01fc F8EEE64A 		vcvt.f32.s32	s9, s13
 247:eurorack/clouds/dsp/fx/fx_engine.h ****       float b = DataType<format>::Decompress(
 2943              		.loc 3 247 31 view .LVU764
 2944 0200 2344     		add	r3, r3, r4
 245:eurorack/clouds/dsp/fx/fx_engine.h ****       float a = DataType<format>::Decompress(
 2945              		.loc 3 245 7 view .LVU765
 2946 0202 75EE644A 		vsub.f32	s9, s10, s9
 2947              	.LVL184:
 2948              	.LBB1755:
 2949              	.LBI1755:
  61:eurorack/clouds/dsp/fx/fx_engine.h ****     return static_cast<float>(static_cast<int16_t>(value)) / 4096.0f;
 2950              		.loc 3 61 23 is_stmt 1 view .LVU766
 2951              	.LBB1756:
  62:eurorack/clouds/dsp/fx/fx_engine.h ****   }
 2952              		.loc 3 62 5 view .LVU767
 2953              	.LBE1756:
 2954              	.LBE1755:
 247:eurorack/clouds/dsp/fx/fx_engine.h ****       float b = DataType<format>::Decompress(
 2955              		.loc 3 247 49 is_stmt 0 view .LVU768
 2956 0206 9918     		adds	r1, r3, r2
 2957              	.LVL185:
