ARM GAS  /var/folders/9s/8rp0_f2s1n31qbztm3b5_fdh0000gn/T//ccQP8jK9.s 			page 1


   1              		.cpu cortex-m7
   2              		.arch armv7e-m
   3              		.fpu fpv5-d16
   4              		.eabi_attribute 28, 1
   5              		.eabi_attribute 20, 1
   6              		.eabi_attribute 21, 1
   7              		.eabi_attribute 23, 3
   8              		.eabi_attribute 24, 1
   9              		.eabi_attribute 25, 1
  10              		.eabi_attribute 26, 1
  11              		.eabi_attribute 30, 4
  12              		.eabi_attribute 34, 1
  13              		.eabi_attribute 18, 4
  14              		.file	"hi_hat_engine.cc"
  15              		.text
  16              	.Ltext0:
  17              		.cfi_sections	.debug_frame
  18              		.section	.text._ZN6plaits11HiHatEngine5ResetEv,"ax",%progbits
  19              		.align	1
  20              		.global	_ZN6plaits11HiHatEngine5ResetEv
  21              		.syntax unified
  22              		.thumb
  23              		.thumb_func
  25              	_ZN6plaits11HiHatEngine5ResetEv:
  26              	.LVL0:
  27              	.LFB1570:
  28              		.file 1 "eurorack/plaits/dsp/engine/hi_hat_engine.cc"
   1:eurorack/plaits/dsp/engine/hi_hat_engine.cc **** // Copyright 2016 Emilie Gillet.
   2:eurorack/plaits/dsp/engine/hi_hat_engine.cc **** //
   3:eurorack/plaits/dsp/engine/hi_hat_engine.cc **** // Author: Emilie Gillet (emilie.o.gillet@gmail.com)
   4:eurorack/plaits/dsp/engine/hi_hat_engine.cc **** //
   5:eurorack/plaits/dsp/engine/hi_hat_engine.cc **** // Permission is hereby granted, free of charge, to any person obtaining a copy
   6:eurorack/plaits/dsp/engine/hi_hat_engine.cc **** // of this software and associated documentation files (the "Software"), to deal
   7:eurorack/plaits/dsp/engine/hi_hat_engine.cc **** // in the Software without restriction, including without limitation the rights
   8:eurorack/plaits/dsp/engine/hi_hat_engine.cc **** // to use, copy, modify, merge, publish, distribute, sublicense, and/or sell
   9:eurorack/plaits/dsp/engine/hi_hat_engine.cc **** // copies of the Software, and to permit persons to whom the Software is
  10:eurorack/plaits/dsp/engine/hi_hat_engine.cc **** // furnished to do so, subject to the following conditions:
  11:eurorack/plaits/dsp/engine/hi_hat_engine.cc **** // 
  12:eurorack/plaits/dsp/engine/hi_hat_engine.cc **** // The above copyright notice and this permission notice shall be included in
  13:eurorack/plaits/dsp/engine/hi_hat_engine.cc **** // all copies or substantial portions of the Software.
  14:eurorack/plaits/dsp/engine/hi_hat_engine.cc **** // 
  15:eurorack/plaits/dsp/engine/hi_hat_engine.cc **** // THE SOFTWARE IS PROVIDED "AS IS", WITHOUT WARRANTY OF ANY KIND, EXPRESS OR
  16:eurorack/plaits/dsp/engine/hi_hat_engine.cc **** // IMPLIED, INCLUDING BUT NOT LIMITED TO THE WARRANTIES OF MERCHANTABILITY,
  17:eurorack/plaits/dsp/engine/hi_hat_engine.cc **** // FITNESS FOR A PARTICULAR PURPOSE AND NONINFRINGEMENT. IN NO EVENT SHALL THE
  18:eurorack/plaits/dsp/engine/hi_hat_engine.cc **** // AUTHORS OR COPYRIGHT HOLDERS BE LIABLE FOR ANY CLAIM, DAMAGES OR OTHER
  19:eurorack/plaits/dsp/engine/hi_hat_engine.cc **** // LIABILITY, WHETHER IN AN ACTION OF CONTRACT, TORT OR OTHERWISE, ARISING FROM,
  20:eurorack/plaits/dsp/engine/hi_hat_engine.cc **** // OUT OF OR IN CONNECTION WITH THE SOFTWARE OR THE USE OR OTHER DEALINGS IN
  21:eurorack/plaits/dsp/engine/hi_hat_engine.cc **** // THE SOFTWARE.
  22:eurorack/plaits/dsp/engine/hi_hat_engine.cc **** // 
  23:eurorack/plaits/dsp/engine/hi_hat_engine.cc **** // See http://creativecommons.org/licenses/MIT/ for more information.
  24:eurorack/plaits/dsp/engine/hi_hat_engine.cc **** //
  25:eurorack/plaits/dsp/engine/hi_hat_engine.cc **** // -----------------------------------------------------------------------------
  26:eurorack/plaits/dsp/engine/hi_hat_engine.cc **** //
  27:eurorack/plaits/dsp/engine/hi_hat_engine.cc **** // 808-style HH with two noise sources - one faithful to the original, the other
  28:eurorack/plaits/dsp/engine/hi_hat_engine.cc **** // more metallic.
  29:eurorack/plaits/dsp/engine/hi_hat_engine.cc **** 
  30:eurorack/plaits/dsp/engine/hi_hat_engine.cc **** #include "plaits/dsp/engine/hi_hat_engine.h"
ARM GAS  /var/folders/9s/8rp0_f2s1n31qbztm3b5_fdh0000gn/T//ccQP8jK9.s 			page 2


  31:eurorack/plaits/dsp/engine/hi_hat_engine.cc **** 
  32:eurorack/plaits/dsp/engine/hi_hat_engine.cc **** namespace plaits {
  33:eurorack/plaits/dsp/engine/hi_hat_engine.cc **** 
  34:eurorack/plaits/dsp/engine/hi_hat_engine.cc **** using namespace stmlib;
  35:eurorack/plaits/dsp/engine/hi_hat_engine.cc **** 
  36:eurorack/plaits/dsp/engine/hi_hat_engine.cc **** void HiHatEngine::Init(BufferAllocator* allocator) {
  37:eurorack/plaits/dsp/engine/hi_hat_engine.cc ****   hi_hat_1_.Init();
  38:eurorack/plaits/dsp/engine/hi_hat_engine.cc ****   hi_hat_2_.Init();
  39:eurorack/plaits/dsp/engine/hi_hat_engine.cc ****   temp_buffer_[0] = allocator->Allocate<float>(kMaxBlockSize);
  40:eurorack/plaits/dsp/engine/hi_hat_engine.cc ****   temp_buffer_[1] = allocator->Allocate<float>(kMaxBlockSize);
  41:eurorack/plaits/dsp/engine/hi_hat_engine.cc **** }
  42:eurorack/plaits/dsp/engine/hi_hat_engine.cc **** 
  43:eurorack/plaits/dsp/engine/hi_hat_engine.cc **** void HiHatEngine::Reset() {
  29              		.loc 1 43 27 view -0
  30              		.cfi_startproc
  31              		@ args = 0, pretend = 0, frame = 0
  32              		@ frame_needed = 0, uses_anonymous_args = 0
  33              		@ link register save eliminated.
  44:eurorack/plaits/dsp/engine/hi_hat_engine.cc ****   
  45:eurorack/plaits/dsp/engine/hi_hat_engine.cc **** }
  34              		.loc 1 45 1 is_stmt 0 view .LVU1
  35 0000 7047     		bx	lr
  36              		.cfi_endproc
  37              	.LFE1570:
  39              		.section	.text._ZN6plaits12RingModNoise10RenderPairEPNS_10OscillatorEffPfS3_S3_j.isra.0,"axG",%pro
  40              		.align	1
  41              		.syntax unified
  42              		.thumb
  43              		.thumb_func
  45              	_ZN6plaits12RingModNoise10RenderPairEPNS_10OscillatorEffPfS3_S3_j.isra.0:
  46              	.LVL1:
  47              	.LFB1608:
  48              		.file 2 "eurorack/plaits/dsp/drums/hi_hat.h"
   1:eurorack/plaits/dsp/drums/hi_hat.h **** // Copyright 2016 Emilie Gillet.
   2:eurorack/plaits/dsp/drums/hi_hat.h **** //
   3:eurorack/plaits/dsp/drums/hi_hat.h **** // Author: Emilie Gillet (emilie.o.gillet@gmail.com)
   4:eurorack/plaits/dsp/drums/hi_hat.h **** //
   5:eurorack/plaits/dsp/drums/hi_hat.h **** // Permission is hereby granted, free of charge, to any person obtaining a copy
   6:eurorack/plaits/dsp/drums/hi_hat.h **** // of this software and associated documentation files (the "Software"), to deal
   7:eurorack/plaits/dsp/drums/hi_hat.h **** // in the Software without restriction, including without limitation the rights
   8:eurorack/plaits/dsp/drums/hi_hat.h **** // to use, copy, modify, merge, publish, distribute, sublicense, and/or sell
   9:eurorack/plaits/dsp/drums/hi_hat.h **** // copies of the Software, and to permit persons to whom the Software is
  10:eurorack/plaits/dsp/drums/hi_hat.h **** // furnished to do so, subject to the following conditions:
  11:eurorack/plaits/dsp/drums/hi_hat.h **** // 
  12:eurorack/plaits/dsp/drums/hi_hat.h **** // The above copyright notice and this permission notice shall be included in
  13:eurorack/plaits/dsp/drums/hi_hat.h **** // all copies or substantial portions of the Software.
  14:eurorack/plaits/dsp/drums/hi_hat.h **** // 
  15:eurorack/plaits/dsp/drums/hi_hat.h **** // THE SOFTWARE IS PROVIDED "AS IS", WITHOUT WARRANTY OF ANY KIND, EXPRESS OR
  16:eurorack/plaits/dsp/drums/hi_hat.h **** // IMPLIED, INCLUDING BUT NOT LIMITED TO THE WARRANTIES OF MERCHANTABILITY,
  17:eurorack/plaits/dsp/drums/hi_hat.h **** // FITNESS FOR A PARTICULAR PURPOSE AND NONINFRINGEMENT. IN NO EVENT SHALL THE
  18:eurorack/plaits/dsp/drums/hi_hat.h **** // AUTHORS OR COPYRIGHT HOLDERS BE LIABLE FOR ANY CLAIM, DAMAGES OR OTHER
  19:eurorack/plaits/dsp/drums/hi_hat.h **** // LIABILITY, WHETHER IN AN ACTION OF CONTRACT, TORT OR OTHERWISE, ARISING FROM,
  20:eurorack/plaits/dsp/drums/hi_hat.h **** // OUT OF OR IN CONNECTION WITH THE SOFTWARE OR THE USE OR OTHER DEALINGS IN
  21:eurorack/plaits/dsp/drums/hi_hat.h **** // THE SOFTWARE.
  22:eurorack/plaits/dsp/drums/hi_hat.h **** // 
  23:eurorack/plaits/dsp/drums/hi_hat.h **** // See http://creativecommons.org/licenses/MIT/ for more information.
  24:eurorack/plaits/dsp/drums/hi_hat.h **** //
ARM GAS  /var/folders/9s/8rp0_f2s1n31qbztm3b5_fdh0000gn/T//ccQP8jK9.s 			page 3


  25:eurorack/plaits/dsp/drums/hi_hat.h **** // -----------------------------------------------------------------------------
  26:eurorack/plaits/dsp/drums/hi_hat.h **** //
  27:eurorack/plaits/dsp/drums/hi_hat.h **** // 808 HH, with a few extra parameters to push things to the CY territory...
  28:eurorack/plaits/dsp/drums/hi_hat.h **** // The template parameter MetallicNoiseSource allows another kind of "metallic
  29:eurorack/plaits/dsp/drums/hi_hat.h **** // noise" to be used, for results which are more similar to KR-55 or FM hi-hats.
  30:eurorack/plaits/dsp/drums/hi_hat.h **** 
  31:eurorack/plaits/dsp/drums/hi_hat.h **** #ifndef PLAITS_DSP_DRUMS_HI_HAT_H_
  32:eurorack/plaits/dsp/drums/hi_hat.h **** #define PLAITS_DSP_DRUMS_HI_HAT_H_
  33:eurorack/plaits/dsp/drums/hi_hat.h **** 
  34:eurorack/plaits/dsp/drums/hi_hat.h **** #include <algorithm>
  35:eurorack/plaits/dsp/drums/hi_hat.h **** 
  36:eurorack/plaits/dsp/drums/hi_hat.h **** #include "stmlib/dsp/dsp.h"
  37:eurorack/plaits/dsp/drums/hi_hat.h **** #include "stmlib/dsp/filter.h"
  38:eurorack/plaits/dsp/drums/hi_hat.h **** #include "stmlib/dsp/parameter_interpolator.h"
  39:eurorack/plaits/dsp/drums/hi_hat.h **** #include "stmlib/dsp/units.h"
  40:eurorack/plaits/dsp/drums/hi_hat.h **** #include "stmlib/utils/random.h"
  41:eurorack/plaits/dsp/drums/hi_hat.h **** 
  42:eurorack/plaits/dsp/drums/hi_hat.h **** #include "plaits/dsp/dsp.h"
  43:eurorack/plaits/dsp/drums/hi_hat.h **** #include "plaits/dsp/oscillator/oscillator.h"
  44:eurorack/plaits/dsp/drums/hi_hat.h **** 
  45:eurorack/plaits/dsp/drums/hi_hat.h **** namespace plaits {
  46:eurorack/plaits/dsp/drums/hi_hat.h **** 
  47:eurorack/plaits/dsp/drums/hi_hat.h **** // 808 style "metallic noise" with 6 square oscillators.
  48:eurorack/plaits/dsp/drums/hi_hat.h **** class SquareNoise {
  49:eurorack/plaits/dsp/drums/hi_hat.h ****  public:
  50:eurorack/plaits/dsp/drums/hi_hat.h ****   SquareNoise() { }
  51:eurorack/plaits/dsp/drums/hi_hat.h ****   ~SquareNoise() { }
  52:eurorack/plaits/dsp/drums/hi_hat.h **** 
  53:eurorack/plaits/dsp/drums/hi_hat.h ****   void Init() {
  54:eurorack/plaits/dsp/drums/hi_hat.h ****     std::fill(&phase_[0], &phase_[6], 0);
  55:eurorack/plaits/dsp/drums/hi_hat.h ****   }
  56:eurorack/plaits/dsp/drums/hi_hat.h ****     
  57:eurorack/plaits/dsp/drums/hi_hat.h ****   void Render(float f0, float* temp_1, float* temp_2, float* out, size_t size) {
  58:eurorack/plaits/dsp/drums/hi_hat.h ****     const float ratios[6] = {
  59:eurorack/plaits/dsp/drums/hi_hat.h ****         // Nominal f0: 414 Hz
  60:eurorack/plaits/dsp/drums/hi_hat.h ****         1.0f, 1.304f, 1.466f, 1.787f, 1.932f, 2.536f
  61:eurorack/plaits/dsp/drums/hi_hat.h ****     };
  62:eurorack/plaits/dsp/drums/hi_hat.h ****   
  63:eurorack/plaits/dsp/drums/hi_hat.h ****     uint32_t increment[6];
  64:eurorack/plaits/dsp/drums/hi_hat.h ****     uint32_t phase[6];
  65:eurorack/plaits/dsp/drums/hi_hat.h ****     for (int i = 0; i < 6; ++i) {
  66:eurorack/plaits/dsp/drums/hi_hat.h ****       float f = f0 * ratios[i];
  67:eurorack/plaits/dsp/drums/hi_hat.h ****       if (f >= 0.499f) f = 0.499f;
  68:eurorack/plaits/dsp/drums/hi_hat.h ****       increment[i] = static_cast<uint32_t>(f * 4294967296.0f);
  69:eurorack/plaits/dsp/drums/hi_hat.h ****       phase[i] = phase_[i];
  70:eurorack/plaits/dsp/drums/hi_hat.h ****     }
  71:eurorack/plaits/dsp/drums/hi_hat.h **** 
  72:eurorack/plaits/dsp/drums/hi_hat.h ****     while (size--) {
  73:eurorack/plaits/dsp/drums/hi_hat.h ****       phase[0] += increment[0];
  74:eurorack/plaits/dsp/drums/hi_hat.h ****       phase[1] += increment[1];
  75:eurorack/plaits/dsp/drums/hi_hat.h ****       phase[2] += increment[2];
  76:eurorack/plaits/dsp/drums/hi_hat.h ****       phase[3] += increment[3];
  77:eurorack/plaits/dsp/drums/hi_hat.h ****       phase[4] += increment[4];
  78:eurorack/plaits/dsp/drums/hi_hat.h ****       phase[5] += increment[5];
  79:eurorack/plaits/dsp/drums/hi_hat.h ****       uint32_t noise = 0;
  80:eurorack/plaits/dsp/drums/hi_hat.h ****       noise += (phase[0] >> 31);
  81:eurorack/plaits/dsp/drums/hi_hat.h ****       noise += (phase[1] >> 31);
ARM GAS  /var/folders/9s/8rp0_f2s1n31qbztm3b5_fdh0000gn/T//ccQP8jK9.s 			page 4


  82:eurorack/plaits/dsp/drums/hi_hat.h ****       noise += (phase[2] >> 31);
  83:eurorack/plaits/dsp/drums/hi_hat.h ****       noise += (phase[3] >> 31);
  84:eurorack/plaits/dsp/drums/hi_hat.h ****       noise += (phase[4] >> 31);
  85:eurorack/plaits/dsp/drums/hi_hat.h ****       noise += (phase[5] >> 31);
  86:eurorack/plaits/dsp/drums/hi_hat.h ****       *out++ = 0.33f * static_cast<float>(noise) - 1.0f;
  87:eurorack/plaits/dsp/drums/hi_hat.h ****     }
  88:eurorack/plaits/dsp/drums/hi_hat.h ****   
  89:eurorack/plaits/dsp/drums/hi_hat.h ****     for (int i = 0; i < 6; ++i) {
  90:eurorack/plaits/dsp/drums/hi_hat.h ****       phase_[i] = phase[i];
  91:eurorack/plaits/dsp/drums/hi_hat.h ****     }
  92:eurorack/plaits/dsp/drums/hi_hat.h ****   }
  93:eurorack/plaits/dsp/drums/hi_hat.h **** 
  94:eurorack/plaits/dsp/drums/hi_hat.h ****  private:
  95:eurorack/plaits/dsp/drums/hi_hat.h ****   uint32_t phase_[6];
  96:eurorack/plaits/dsp/drums/hi_hat.h **** 
  97:eurorack/plaits/dsp/drums/hi_hat.h ****   DISALLOW_COPY_AND_ASSIGN(SquareNoise);
  98:eurorack/plaits/dsp/drums/hi_hat.h **** };
  99:eurorack/plaits/dsp/drums/hi_hat.h **** 
 100:eurorack/plaits/dsp/drums/hi_hat.h **** class RingModNoise {
 101:eurorack/plaits/dsp/drums/hi_hat.h ****  public:
 102:eurorack/plaits/dsp/drums/hi_hat.h ****   RingModNoise() { }
 103:eurorack/plaits/dsp/drums/hi_hat.h ****   ~RingModNoise() { }
 104:eurorack/plaits/dsp/drums/hi_hat.h **** 
 105:eurorack/plaits/dsp/drums/hi_hat.h ****   void Init() {
 106:eurorack/plaits/dsp/drums/hi_hat.h ****     for (int i = 0; i < 6; ++i) {
 107:eurorack/plaits/dsp/drums/hi_hat.h ****       oscillator_[i].Init();
 108:eurorack/plaits/dsp/drums/hi_hat.h ****     }
 109:eurorack/plaits/dsp/drums/hi_hat.h ****   }
 110:eurorack/plaits/dsp/drums/hi_hat.h ****   
 111:eurorack/plaits/dsp/drums/hi_hat.h ****   void Render(float f0, float* temp_1, float* temp_2, float* out, size_t size) {
 112:eurorack/plaits/dsp/drums/hi_hat.h ****     const float ratio = f0 / (0.01f + f0);
 113:eurorack/plaits/dsp/drums/hi_hat.h ****     const float f1a = 200.0f / kSampleRate * ratio;
 114:eurorack/plaits/dsp/drums/hi_hat.h ****     const float f1b = 7530.0f / kSampleRate * ratio;
 115:eurorack/plaits/dsp/drums/hi_hat.h ****     const float f2a = 510.0f / kSampleRate * ratio;
 116:eurorack/plaits/dsp/drums/hi_hat.h ****     const float f2b = 8075.0f / kSampleRate * ratio;
 117:eurorack/plaits/dsp/drums/hi_hat.h ****     const float f3a = 730.0f / kSampleRate * ratio;
 118:eurorack/plaits/dsp/drums/hi_hat.h ****     const float f3b = 10500.0f / kSampleRate * ratio;
 119:eurorack/plaits/dsp/drums/hi_hat.h ****     
 120:eurorack/plaits/dsp/drums/hi_hat.h ****     std::fill(&out[0], &out[size], 0.0f);
 121:eurorack/plaits/dsp/drums/hi_hat.h ****     
 122:eurorack/plaits/dsp/drums/hi_hat.h ****     RenderPair(&oscillator_[0], f1a, f1b, temp_1, temp_2, out, size);
 123:eurorack/plaits/dsp/drums/hi_hat.h ****     RenderPair(&oscillator_[2], f2a, f2b, temp_1, temp_2, out, size);
 124:eurorack/plaits/dsp/drums/hi_hat.h ****     RenderPair(&oscillator_[4], f3a, f3b, temp_1, temp_2, out, size);
 125:eurorack/plaits/dsp/drums/hi_hat.h ****   }
 126:eurorack/plaits/dsp/drums/hi_hat.h **** 
 127:eurorack/plaits/dsp/drums/hi_hat.h ****  private:
 128:eurorack/plaits/dsp/drums/hi_hat.h ****   void RenderPair(
  49              		.loc 2 128 8 is_stmt 1 view -0
  50              		.cfi_startproc
  51              		@ args = 4, pretend = 0, frame = 0
  52              		@ frame_needed = 0, uses_anonymous_args = 0
 129:eurorack/plaits/dsp/drums/hi_hat.h ****       Oscillator* osc,
 130:eurorack/plaits/dsp/drums/hi_hat.h ****       float f1,
 131:eurorack/plaits/dsp/drums/hi_hat.h ****       float f2,
 132:eurorack/plaits/dsp/drums/hi_hat.h ****       float* temp_1,
 133:eurorack/plaits/dsp/drums/hi_hat.h ****       float* temp_2,
 134:eurorack/plaits/dsp/drums/hi_hat.h ****       float* out,
ARM GAS  /var/folders/9s/8rp0_f2s1n31qbztm3b5_fdh0000gn/T//ccQP8jK9.s 			page 5


 135:eurorack/plaits/dsp/drums/hi_hat.h ****       size_t size) {
 136:eurorack/plaits/dsp/drums/hi_hat.h ****     osc[0].Render<OSCILLATOR_SHAPE_SQUARE>(f1, 0.5f, temp_1, size);
  53              		.loc 2 136 5 view .LVU3
  54              	.LBB219:
  55              	.LBB220:
  56              	.LBB221:
  57              		.file 3 "eurorack/plaits/dsp/oscillator/oscillator.h"
   1:eurorack/plaits/dsp/oscillator/oscillator.h **** // Copyright 2016 Emilie Gillet.
   2:eurorack/plaits/dsp/oscillator/oscillator.h **** //
   3:eurorack/plaits/dsp/oscillator/oscillator.h **** // Author: Emilie Gillet (emilie.o.gillet@gmail.com)
   4:eurorack/plaits/dsp/oscillator/oscillator.h **** //
   5:eurorack/plaits/dsp/oscillator/oscillator.h **** // Permission is hereby granted, free of charge, to any person obtaining a copy
   6:eurorack/plaits/dsp/oscillator/oscillator.h **** // of this software and associated documentation files (the "Software"), to deal
   7:eurorack/plaits/dsp/oscillator/oscillator.h **** // in the Software without restriction, including without limitation the rights
   8:eurorack/plaits/dsp/oscillator/oscillator.h **** // to use, copy, modify, merge, publish, distribute, sublicense, and/or sell
   9:eurorack/plaits/dsp/oscillator/oscillator.h **** // copies of the Software, and to permit persons to whom the Software is
  10:eurorack/plaits/dsp/oscillator/oscillator.h **** // furnished to do so, subject to the following conditions:
  11:eurorack/plaits/dsp/oscillator/oscillator.h **** // 
  12:eurorack/plaits/dsp/oscillator/oscillator.h **** // The above copyright notice and this permission notice shall be included in
  13:eurorack/plaits/dsp/oscillator/oscillator.h **** // all copies or substantial portions of the Software.
  14:eurorack/plaits/dsp/oscillator/oscillator.h **** // 
  15:eurorack/plaits/dsp/oscillator/oscillator.h **** // THE SOFTWARE IS PROVIDED "AS IS", WITHOUT WARRANTY OF ANY KIND, EXPRESS OR
  16:eurorack/plaits/dsp/oscillator/oscillator.h **** // IMPLIED, INCLUDING BUT NOT LIMITED TO THE WARRANTIES OF MERCHANTABILITY,
  17:eurorack/plaits/dsp/oscillator/oscillator.h **** // FITNESS FOR A PARTICULAR PURPOSE AND NONINFRINGEMENT. IN NO EVENT SHALL THE
  18:eurorack/plaits/dsp/oscillator/oscillator.h **** // AUTHORS OR COPYRIGHT HOLDERS BE LIABLE FOR ANY CLAIM, DAMAGES OR OTHER
  19:eurorack/plaits/dsp/oscillator/oscillator.h **** // LIABILITY, WHETHER IN AN ACTION OF CONTRACT, TORT OR OTHERWISE, ARISING FROM,
  20:eurorack/plaits/dsp/oscillator/oscillator.h **** // OUT OF OR IN CONNECTION WITH THE SOFTWARE OR THE USE OR OTHER DEALINGS IN
  21:eurorack/plaits/dsp/oscillator/oscillator.h **** // THE SOFTWARE.
  22:eurorack/plaits/dsp/oscillator/oscillator.h **** // 
  23:eurorack/plaits/dsp/oscillator/oscillator.h **** // See http://creativecommons.org/licenses/MIT/ for more information.
  24:eurorack/plaits/dsp/oscillator/oscillator.h **** //
  25:eurorack/plaits/dsp/oscillator/oscillator.h **** // -----------------------------------------------------------------------------
  26:eurorack/plaits/dsp/oscillator/oscillator.h **** //
  27:eurorack/plaits/dsp/oscillator/oscillator.h **** // Single waveform oscillator. Can optionally do audio-rate linear FM, with
  28:eurorack/plaits/dsp/oscillator/oscillator.h **** // through-zero capabilities (negative frequencies).
  29:eurorack/plaits/dsp/oscillator/oscillator.h **** 
  30:eurorack/plaits/dsp/oscillator/oscillator.h **** #ifndef PLAITS_DSP_OSCILLATOR_OSCILLATOR_H_
  31:eurorack/plaits/dsp/oscillator/oscillator.h **** #define PLAITS_DSP_OSCILLATOR_OSCILLATOR_H_
  32:eurorack/plaits/dsp/oscillator/oscillator.h **** 
  33:eurorack/plaits/dsp/oscillator/oscillator.h **** #include "stmlib/dsp/dsp.h"
  34:eurorack/plaits/dsp/oscillator/oscillator.h **** #include "stmlib/dsp/parameter_interpolator.h"
  35:eurorack/plaits/dsp/oscillator/oscillator.h **** #include "stmlib/dsp/polyblep.h"
  36:eurorack/plaits/dsp/oscillator/oscillator.h **** 
  37:eurorack/plaits/dsp/oscillator/oscillator.h **** namespace plaits {
  38:eurorack/plaits/dsp/oscillator/oscillator.h **** 
  39:eurorack/plaits/dsp/oscillator/oscillator.h **** enum OscillatorShape {
  40:eurorack/plaits/dsp/oscillator/oscillator.h ****   OSCILLATOR_SHAPE_IMPULSE_TRAIN,
  41:eurorack/plaits/dsp/oscillator/oscillator.h ****   OSCILLATOR_SHAPE_SAW,
  42:eurorack/plaits/dsp/oscillator/oscillator.h ****   OSCILLATOR_SHAPE_TRIANGLE,
  43:eurorack/plaits/dsp/oscillator/oscillator.h ****   OSCILLATOR_SHAPE_SLOPE,
  44:eurorack/plaits/dsp/oscillator/oscillator.h ****   OSCILLATOR_SHAPE_SQUARE,
  45:eurorack/plaits/dsp/oscillator/oscillator.h ****   OSCILLATOR_SHAPE_SQUARE_BRIGHT,
  46:eurorack/plaits/dsp/oscillator/oscillator.h ****   OSCILLATOR_SHAPE_SQUARE_DARK,
  47:eurorack/plaits/dsp/oscillator/oscillator.h ****   OSCILLATOR_SHAPE_SQUARE_TRIANGLE
  48:eurorack/plaits/dsp/oscillator/oscillator.h **** };
  49:eurorack/plaits/dsp/oscillator/oscillator.h **** 
  50:eurorack/plaits/dsp/oscillator/oscillator.h **** const float kMaxFrequency = 0.25f;
ARM GAS  /var/folders/9s/8rp0_f2s1n31qbztm3b5_fdh0000gn/T//ccQP8jK9.s 			page 6


  51:eurorack/plaits/dsp/oscillator/oscillator.h **** const float kMinFrequency = 0.000001f;
  52:eurorack/plaits/dsp/oscillator/oscillator.h **** 
  53:eurorack/plaits/dsp/oscillator/oscillator.h **** class Oscillator {
  54:eurorack/plaits/dsp/oscillator/oscillator.h ****  public:
  55:eurorack/plaits/dsp/oscillator/oscillator.h ****   Oscillator() { }
  56:eurorack/plaits/dsp/oscillator/oscillator.h ****   ~Oscillator() { }
  57:eurorack/plaits/dsp/oscillator/oscillator.h ****   
  58:eurorack/plaits/dsp/oscillator/oscillator.h ****   void Init() {
  59:eurorack/plaits/dsp/oscillator/oscillator.h ****     phase_ = 0.5f;
  60:eurorack/plaits/dsp/oscillator/oscillator.h ****     next_sample_ = 0.0f;
  61:eurorack/plaits/dsp/oscillator/oscillator.h ****     lp_state_ = 1.0f;
  62:eurorack/plaits/dsp/oscillator/oscillator.h ****     hp_state_ = 0.0f;
  63:eurorack/plaits/dsp/oscillator/oscillator.h ****     high_ = true;
  64:eurorack/plaits/dsp/oscillator/oscillator.h **** 
  65:eurorack/plaits/dsp/oscillator/oscillator.h ****     frequency_ = 0.001f;
  66:eurorack/plaits/dsp/oscillator/oscillator.h ****     pw_ = 0.5f;
  67:eurorack/plaits/dsp/oscillator/oscillator.h ****   }
  68:eurorack/plaits/dsp/oscillator/oscillator.h **** 
  69:eurorack/plaits/dsp/oscillator/oscillator.h ****   template<OscillatorShape shape>
  70:eurorack/plaits/dsp/oscillator/oscillator.h ****   void Render(float frequency, float pw, float* out, size_t size) {
  71:eurorack/plaits/dsp/oscillator/oscillator.h ****     Render<shape, false, false>(frequency, pw, NULL, out, size);
  72:eurorack/plaits/dsp/oscillator/oscillator.h ****   }
  73:eurorack/plaits/dsp/oscillator/oscillator.h ****   
  74:eurorack/plaits/dsp/oscillator/oscillator.h ****   template<OscillatorShape shape>
  75:eurorack/plaits/dsp/oscillator/oscillator.h ****   void Render(
  76:eurorack/plaits/dsp/oscillator/oscillator.h ****       float frequency,
  77:eurorack/plaits/dsp/oscillator/oscillator.h ****       float pw,
  78:eurorack/plaits/dsp/oscillator/oscillator.h ****       const float* fm,
  79:eurorack/plaits/dsp/oscillator/oscillator.h ****       float* out,
  80:eurorack/plaits/dsp/oscillator/oscillator.h ****       size_t size) {
  81:eurorack/plaits/dsp/oscillator/oscillator.h ****     if (!fm) {
  82:eurorack/plaits/dsp/oscillator/oscillator.h ****       Render<shape, false, false>(frequency, pw, NULL, out, size);
  83:eurorack/plaits/dsp/oscillator/oscillator.h ****     } else {
  84:eurorack/plaits/dsp/oscillator/oscillator.h ****       Render<shape, true, true>(frequency, pw, fm, out, size);
  85:eurorack/plaits/dsp/oscillator/oscillator.h ****     }
  86:eurorack/plaits/dsp/oscillator/oscillator.h ****   }
  87:eurorack/plaits/dsp/oscillator/oscillator.h **** 
  88:eurorack/plaits/dsp/oscillator/oscillator.h ****   template<OscillatorShape shape, bool has_external_fm, bool through_zero_fm>
  89:eurorack/plaits/dsp/oscillator/oscillator.h ****   void Render(
  90:eurorack/plaits/dsp/oscillator/oscillator.h ****       float frequency,
  91:eurorack/plaits/dsp/oscillator/oscillator.h ****       float pw,
  92:eurorack/plaits/dsp/oscillator/oscillator.h ****       const float* external_fm,
  93:eurorack/plaits/dsp/oscillator/oscillator.h ****       float* out,
  94:eurorack/plaits/dsp/oscillator/oscillator.h ****       size_t size) {
  95:eurorack/plaits/dsp/oscillator/oscillator.h ****     
  96:eurorack/plaits/dsp/oscillator/oscillator.h ****     if (!has_external_fm) {
  97:eurorack/plaits/dsp/oscillator/oscillator.h ****       if (!through_zero_fm) {
  98:eurorack/plaits/dsp/oscillator/oscillator.h ****         CONSTRAIN(frequency, kMinFrequency, kMaxFrequency);
  58              		.loc 3 98 9 is_stmt 0 view .LVU4
  59 0000 9FED913A 		vldr.32	s6, .L35
  60 0004 B4EEC30A 		vcmpe.f32	s0, s6
  61              	.LBE221:
  62              	.LBE220:
  63              	.LBE219:
 128:eurorack/plaits/dsp/drums/hi_hat.h ****       Oscillator* osc,
  64              		.loc 2 128 8 view .LVU5
  65 0008 F0B5     		push	{r4, r5, r6, r7, lr}
ARM GAS  /var/folders/9s/8rp0_f2s1n31qbztm3b5_fdh0000gn/T//ccQP8jK9.s 			page 7


  66              		.cfi_def_cfa_offset 20
  67              		.cfi_offset 4, -20
  68              		.cfi_offset 5, -16
  69              		.cfi_offset 6, -12
  70              		.cfi_offset 7, -8
  71              		.cfi_offset 14, -4
  72              	.LBB292:
  73              	.LBB287:
  74              	.LBB282:
  75              		.loc 3 98 9 view .LVU6
  76 000a F1EE10FA 		vmrs	APSR_nzcv, FPSCR
  77              	.LBE282:
  78              	.LBE287:
  79              	.LBE292:
 128:eurorack/plaits/dsp/drums/hi_hat.h ****       Oscillator* osc,
  80              		.loc 2 128 8 view .LVU7
  81 000e 059C     		ldr	r4, [sp, #20]
  82              	.LVL2:
  83              	.LBB293:
  84              	.LBI219:
  70:eurorack/plaits/dsp/oscillator/oscillator.h ****     Render<shape, false, false>(frequency, pw, NULL, out, size);
  85              		.loc 3 70 8 is_stmt 1 view .LVU8
  86              	.LBB288:
  87              	.LBI220:
  89:eurorack/plaits/dsp/oscillator/oscillator.h ****       float frequency,
  88              		.loc 3 89 8 view .LVU9
  89              	.LBB283:
  90              		.loc 3 98 9 is_stmt 0 view .LVU10
  91 0010 00F18E80 		bmi	.L23
  92 0014 F5EE007A 		vmov.f32	s15, #2.5e-1
  93 0018 B4EE670A 		vcmp.f32	s0, s15
  94 001c F1EE10FA 		vmrs	APSR_nzcv, FPSCR
  95 0020 37FE800A 		vselgt.f32	s0, s15, s0
  96              	.LVL3:
  97              	.L3:
  99:eurorack/plaits/dsp/oscillator/oscillator.h ****       } else {
 100:eurorack/plaits/dsp/oscillator/oscillator.h ****         CONSTRAIN(frequency, -kMaxFrequency, kMaxFrequency);
 101:eurorack/plaits/dsp/oscillator/oscillator.h ****       }
 102:eurorack/plaits/dsp/oscillator/oscillator.h ****       CONSTRAIN(pw, fabsf(frequency) * 2.0f, 1.0f - 2.0f * fabsf(frequency))
  98              		.loc 3 102 7 view .LVU11
  99 0024 F0EEC07A 		vabs.f32	s15, s0
 100 0028 B6EE007A 		vmov.f32	s14, #5.0e-1
 101 002c 77EEA77A 		vadd.f32	s15, s15, s15
 102 0030 F4EEC77A 		vcmpe.f32	s15, s14
 103 0034 F1EE10FA 		vmrs	APSR_nzcv, FPSCR
 104 0038 0ADC     		bgt	.L5
 105              		.loc 3 102 7 view .LVU12
 106 003a F7EE006A 		vmov.f32	s13, #1.0e+0
 107 003e 76EEE77A 		vsub.f32	s15, s13, s15
 108 0042 F4EEC77A 		vcmpe.f32	s15, s14
 109 0046 F1EE10FA 		vmrs	APSR_nzcv, FPSCR
 110 004a 58BF     		it	pl
 111 004c F0EE477A 		vmovpl.f32	s15, s14
 112              	.L5:
 113              	.LVL4:
 114              	.LBB222:
 115              	.LBI222:
ARM GAS  /var/folders/9s/8rp0_f2s1n31qbztm3b5_fdh0000gn/T//ccQP8jK9.s 			page 8


 116              		.file 4 "eurorack/stmlib/dsp/parameter_interpolator.h"
   1:eurorack/stmlib/dsp/parameter_interpolator.h **** // Copyright 2015 Emilie Gillet.
   2:eurorack/stmlib/dsp/parameter_interpolator.h **** //
   3:eurorack/stmlib/dsp/parameter_interpolator.h **** // Author: Emilie Gillet (emilie.o.gillet@gmail.com)
   4:eurorack/stmlib/dsp/parameter_interpolator.h **** //
   5:eurorack/stmlib/dsp/parameter_interpolator.h **** // Permission is hereby granted, free of charge, to any person obtaining a copy
   6:eurorack/stmlib/dsp/parameter_interpolator.h **** // of this software and associated documentation files (the "Software"), to deal
   7:eurorack/stmlib/dsp/parameter_interpolator.h **** // in the Software without restriction, including without limitation the rights
   8:eurorack/stmlib/dsp/parameter_interpolator.h **** // to use, copy, modify, merge, publish, distribute, sublicense, and/or sell
   9:eurorack/stmlib/dsp/parameter_interpolator.h **** // copies of the Software, and to permit persons to whom the Software is
  10:eurorack/stmlib/dsp/parameter_interpolator.h **** // furnished to do so, subject to the following conditions:
  11:eurorack/stmlib/dsp/parameter_interpolator.h **** // 
  12:eurorack/stmlib/dsp/parameter_interpolator.h **** // The above copyright notice and this permission notice shall be included in
  13:eurorack/stmlib/dsp/parameter_interpolator.h **** // all copies or substantial portions of the Software.
  14:eurorack/stmlib/dsp/parameter_interpolator.h **** // 
  15:eurorack/stmlib/dsp/parameter_interpolator.h **** // THE SOFTWARE IS PROVIDED "AS IS", WITHOUT WARRANTY OF ANY KIND, EXPRESS OR
  16:eurorack/stmlib/dsp/parameter_interpolator.h **** // IMPLIED, INCLUDING BUT NOT LIMITED TO THE WARRANTIES OF MERCHANTABILITY,
  17:eurorack/stmlib/dsp/parameter_interpolator.h **** // FITNESS FOR A PARTICULAR PURPOSE AND NONINFRINGEMENT. IN NO EVENT SHALL THE
  18:eurorack/stmlib/dsp/parameter_interpolator.h **** // AUTHORS OR COPYRIGHT HOLDERS BE LIABLE FOR ANY CLAIM, DAMAGES OR OTHER
  19:eurorack/stmlib/dsp/parameter_interpolator.h **** // LIABILITY, WHETHER IN AN ACTION OF CONTRACT, TORT OR OTHERWISE, ARISING FROM,
  20:eurorack/stmlib/dsp/parameter_interpolator.h **** // OUT OF OR IN CONNECTION WITH THE SOFTWARE OR THE USE OR OTHER DEALINGS IN
  21:eurorack/stmlib/dsp/parameter_interpolator.h **** // THE SOFTWARE.
  22:eurorack/stmlib/dsp/parameter_interpolator.h **** // 
  23:eurorack/stmlib/dsp/parameter_interpolator.h **** // See http://creativecommons.org/licenses/MIT/ for more information.
  24:eurorack/stmlib/dsp/parameter_interpolator.h **** //
  25:eurorack/stmlib/dsp/parameter_interpolator.h **** // -----------------------------------------------------------------------------
  26:eurorack/stmlib/dsp/parameter_interpolator.h **** //
  27:eurorack/stmlib/dsp/parameter_interpolator.h **** // Linear interpolation of parameters in rendering loops.
  28:eurorack/stmlib/dsp/parameter_interpolator.h **** 
  29:eurorack/stmlib/dsp/parameter_interpolator.h **** #ifndef STMLIB_DSP_PARAMETER_INTERPOLATOR_H_
  30:eurorack/stmlib/dsp/parameter_interpolator.h **** #define STMLIB_DSP_PARAMETER_INTERPOLATOR_H_
  31:eurorack/stmlib/dsp/parameter_interpolator.h **** 
  32:eurorack/stmlib/dsp/parameter_interpolator.h **** #include "stmlib/stmlib.h"
  33:eurorack/stmlib/dsp/parameter_interpolator.h **** 
  34:eurorack/stmlib/dsp/parameter_interpolator.h **** namespace stmlib {
  35:eurorack/stmlib/dsp/parameter_interpolator.h **** 
  36:eurorack/stmlib/dsp/parameter_interpolator.h **** class ParameterInterpolator {
  37:eurorack/stmlib/dsp/parameter_interpolator.h ****  public:
  38:eurorack/stmlib/dsp/parameter_interpolator.h ****   ParameterInterpolator() { }
  39:eurorack/stmlib/dsp/parameter_interpolator.h ****   ParameterInterpolator(float* state, float new_value, size_t size) {
 117              		.loc 4 39 3 is_stmt 1 view .LVU13
 118              	.LBE222:
 119              	.LBE283:
 120              	.LBE288:
 121              	.LBE293:
  40:eurorack/stmlib/dsp/parameter_interpolator.h ****     Init(state, new_value, size);
 122              		.loc 4 40 5 view .LVU14
 123              	.LBB294:
 124              	.LBB289:
 125              	.LBB284:
 126              	.LBB231:
 127              	.LBB223:
 128              	.LBI223:
  41:eurorack/stmlib/dsp/parameter_interpolator.h ****   }
  42:eurorack/stmlib/dsp/parameter_interpolator.h **** 
  43:eurorack/stmlib/dsp/parameter_interpolator.h ****   ParameterInterpolator(float* state, float new_value, float step) {
  44:eurorack/stmlib/dsp/parameter_interpolator.h ****     state_ = state;
ARM GAS  /var/folders/9s/8rp0_f2s1n31qbztm3b5_fdh0000gn/T//ccQP8jK9.s 			page 9


  45:eurorack/stmlib/dsp/parameter_interpolator.h ****     value_ = *state;
  46:eurorack/stmlib/dsp/parameter_interpolator.h ****     increment_ = (new_value - *state) * step;
  47:eurorack/stmlib/dsp/parameter_interpolator.h ****   }
  48:eurorack/stmlib/dsp/parameter_interpolator.h **** 
  49:eurorack/stmlib/dsp/parameter_interpolator.h ****   ~ParameterInterpolator() {
  50:eurorack/stmlib/dsp/parameter_interpolator.h ****     *state_ = value_;
  51:eurorack/stmlib/dsp/parameter_interpolator.h ****   }
  52:eurorack/stmlib/dsp/parameter_interpolator.h ****   
  53:eurorack/stmlib/dsp/parameter_interpolator.h ****   inline void Init(float* state, float new_value, size_t size) {
 129              		.loc 4 53 15 view .LVU15
 130              	.LBB224:
  54:eurorack/stmlib/dsp/parameter_interpolator.h ****     state_ = state;
 131              		.loc 4 54 5 view .LVU16
  55:eurorack/stmlib/dsp/parameter_interpolator.h ****     value_ = *state;
 132              		.loc 4 55 5 view .LVU17
  56:eurorack/stmlib/dsp/parameter_interpolator.h ****     increment_ = (new_value - *state) / static_cast<float>(size);
 133              		.loc 4 56 41 is_stmt 0 view .LVU18
 134 0050 06EE104A 		vmov	s12, r4	@ int
  55:eurorack/stmlib/dsp/parameter_interpolator.h ****     value_ = *state;
 135              		.loc 4 55 14 view .LVU19
 136 0054 D0ED056A 		vldr.32	s13, [r0, #20]
 137              	.LVL5:
 138              		.loc 4 56 5 is_stmt 1 view .LVU20
 139              	.LBE224:
 140              	.LBE223:
 141              	.LBE231:
 103:eurorack/plaits/dsp/oscillator/oscillator.h ****     }
 104:eurorack/plaits/dsp/oscillator/oscillator.h ****     
 105:eurorack/plaits/dsp/oscillator/oscillator.h ****     stmlib::ParameterInterpolator fm(&frequency_, frequency, size);
 106:eurorack/plaits/dsp/oscillator/oscillator.h ****     stmlib::ParameterInterpolator pwm(&pw_, pw, size);
 107:eurorack/plaits/dsp/oscillator/oscillator.h ****   
 108:eurorack/plaits/dsp/oscillator/oscillator.h ****     float next_sample = next_sample_;
 142              		.loc 3 108 11 is_stmt 0 view .LVU21
 143 0058 D0ED015A 		vldr.32	s11, [r0, #4]
 144 005c 2546     		mov	r5, r4
 145              	.LBB232:
 146              	.LBB228:
 147              	.LBB225:
 148              		.loc 4 56 41 view .LVU22
 149 005e F8EE463A 		vcvt.f32.u32	s7, s12
 150              	.LBE225:
 151              	.LBE228:
 152              	.LBE232:
 153              	.LBB233:
 154              	.LBB234:
 155              	.LBB235:
  55:eurorack/stmlib/dsp/parameter_interpolator.h ****     increment_ = (new_value - *state) / static_cast<float>(size);
 156              		.loc 4 55 14 view .LVU23
 157 0062 90ED066A 		vldr.32	s12, [r0, #24]
 158              	.LBE235:
 159              	.LBE234:
 160              	.LBE233:
 161              	.LBB240:
 162              	.LBB229:
 163              	.LBB226:
 164              		.loc 4 56 29 view .LVU24
 165 0066 30EE660A 		vsub.f32	s0, s0, s13
ARM GAS  /var/folders/9s/8rp0_f2s1n31qbztm3b5_fdh0000gn/T//ccQP8jK9.s 			page 10


 166              	.LVL6:
 167              		.loc 4 56 29 view .LVU25
 168              	.LBE226:
 169              	.LBE229:
 170              	.LBE240:
 171              		.loc 3 108 11 view .LVU26
 172 006a 0E46     		mov	r6, r1
 173              	.LBB241:
 174              	.LBB238:
 175              	.LBB236:
 176              		.loc 4 56 29 view .LVU27
 177 006c 77EEC67A 		vsub.f32	s15, s15, s12
 178              	.LVL7:
 179              		.loc 4 56 29 view .LVU28
 180              	.LBE236:
 181              	.LBE238:
 182              	.LBE241:
 183              	.LBB242:
 184              	.LBB230:
 185              	.LBB227:
 186              		.loc 4 56 39 view .LVU29
 187 0070 80EE232A 		vdiv.f32	s4, s0, s7
 188              	.LVL8:
 189              		.loc 4 56 39 view .LVU30
 190              	.LBE227:
 191              	.LBE230:
 192              	.LBE242:
 193              	.LBB243:
 194              	.LBI233:
  39:eurorack/stmlib/dsp/parameter_interpolator.h ****     Init(state, new_value, size);
 195              		.loc 4 39 3 is_stmt 1 view .LVU31
 196              	.LBE243:
 197              	.LBE284:
 198              	.LBE289:
 199              	.LBE294:
  40:eurorack/stmlib/dsp/parameter_interpolator.h ****   }
 200              		.loc 4 40 5 view .LVU32
 201              	.LBB295:
 202              	.LBB290:
 203              	.LBB285:
 204              	.LBB244:
 205              	.LBB239:
 206              	.LBI234:
  53:eurorack/stmlib/dsp/parameter_interpolator.h ****     state_ = state;
 207              		.loc 4 53 15 view .LVU33
 208              	.LBB237:
  54:eurorack/stmlib/dsp/parameter_interpolator.h ****     value_ = *state;
 209              		.loc 4 54 5 view .LVU34
  55:eurorack/stmlib/dsp/parameter_interpolator.h ****     increment_ = (new_value - *state) / static_cast<float>(size);
 210              		.loc 4 55 5 view .LVU35
 211              		.loc 4 56 5 view .LVU36
 212              		.loc 4 56 39 is_stmt 0 view .LVU37
 213 0074 C7EEA31A 		vdiv.f32	s3, s15, s7
 214              	.LVL9:
 215              	.L12:
 216              		.loc 4 56 39 view .LVU38
 217              	.LBE237:
ARM GAS  /var/folders/9s/8rp0_f2s1n31qbztm3b5_fdh0000gn/T//ccQP8jK9.s 			page 11


 218              	.LBE239:
 219              	.LBE244:
 109:eurorack/plaits/dsp/oscillator/oscillator.h ****   
 110:eurorack/plaits/dsp/oscillator/oscillator.h ****     while (size--) {
 220              		.loc 3 110 5 is_stmt 1 view .LVU39
 221 0078 013D     		subs	r5, r5, #1
 222              	.LVL10:
 223              		.loc 3 110 5 is_stmt 0 view .LVU40
 224 007a 5CD3     		bcc	.L7
 225              	.LVL11:
 226              	.LBB245:
 227              	.LBB246:
 228              	.LBI246:
  57:eurorack/stmlib/dsp/parameter_interpolator.h ****   }
  58:eurorack/stmlib/dsp/parameter_interpolator.h **** 
  59:eurorack/stmlib/dsp/parameter_interpolator.h ****   inline float Next() {
 229              		.loc 4 59 16 is_stmt 1 view .LVU41
 230              	.LBB247:
  60:eurorack/stmlib/dsp/parameter_interpolator.h ****     value_ += increment_;
 231              		.loc 4 60 5 view .LVU42
 232              	.LBE247:
 233              	.LBE246:
 111:eurorack/plaits/dsp/oscillator/oscillator.h ****       float this_sample = next_sample;
 112:eurorack/plaits/dsp/oscillator/oscillator.h ****       next_sample = 0.0f;
 113:eurorack/plaits/dsp/oscillator/oscillator.h **** 
 114:eurorack/plaits/dsp/oscillator/oscillator.h ****       float frequency = fm.Next();
 115:eurorack/plaits/dsp/oscillator/oscillator.h ****       if (has_external_fm) {
 116:eurorack/plaits/dsp/oscillator/oscillator.h ****         frequency *= (1.0f + *external_fm++);
 117:eurorack/plaits/dsp/oscillator/oscillator.h ****         if (!through_zero_fm) {
 118:eurorack/plaits/dsp/oscillator/oscillator.h ****           CONSTRAIN(frequency, kMinFrequency, kMaxFrequency);
 119:eurorack/plaits/dsp/oscillator/oscillator.h ****         } else {
 120:eurorack/plaits/dsp/oscillator/oscillator.h ****           CONSTRAIN(frequency, -kMaxFrequency, kMaxFrequency);
 121:eurorack/plaits/dsp/oscillator/oscillator.h ****         }
 122:eurorack/plaits/dsp/oscillator/oscillator.h ****       }
 123:eurorack/plaits/dsp/oscillator/oscillator.h ****       float pw = (shape == OSCILLATOR_SHAPE_SQUARE_TRIANGLE ||
 124:eurorack/plaits/dsp/oscillator/oscillator.h ****                   shape == OSCILLATOR_SHAPE_TRIANGLE) ? 0.5f : pwm.Next();
 125:eurorack/plaits/dsp/oscillator/oscillator.h ****       if (has_external_fm) {
 126:eurorack/plaits/dsp/oscillator/oscillator.h ****         CONSTRAIN(pw, fabsf(frequency) * 2.0f, 1.0f - 2.0f * fabsf(frequency))
 127:eurorack/plaits/dsp/oscillator/oscillator.h ****       }
 128:eurorack/plaits/dsp/oscillator/oscillator.h ****       phase_ += frequency;
 234              		.loc 3 128 14 is_stmt 0 view .LVU43
 235 007c D0ED007A 		vldr.32	s15, [r0]
 236              	.LBB249:
 237              	.LBB248:
 238              		.loc 4 60 12 view .LVU44
 239 0080 76EE826A 		vadd.f32	s13, s13, s4
 240              	.LVL12:
  61:eurorack/stmlib/dsp/parameter_interpolator.h ****     return value_;
 241              		.loc 4 61 5 is_stmt 1 view .LVU45
 242              		.loc 4 61 5 is_stmt 0 view .LVU46
 243              	.LBE248:
 244              	.LBE249:
 245              	.LBB250:
 246              	.LBI250:
  59:eurorack/stmlib/dsp/parameter_interpolator.h ****     value_ += increment_;
 247              		.loc 4 59 16 is_stmt 1 view .LVU47
 248              	.LBB251:
ARM GAS  /var/folders/9s/8rp0_f2s1n31qbztm3b5_fdh0000gn/T//ccQP8jK9.s 			page 12


  60:eurorack/stmlib/dsp/parameter_interpolator.h ****     return value_;
 249              		.loc 4 60 5 view .LVU48
 250              	.LBE251:
 251              	.LBE250:
 252              	.LBB253:
 253              	.LBB254:
 129:eurorack/plaits/dsp/oscillator/oscillator.h ****       
 130:eurorack/plaits/dsp/oscillator/oscillator.h ****       if (shape <= OSCILLATOR_SHAPE_SAW) {
 131:eurorack/plaits/dsp/oscillator/oscillator.h ****         if (phase_ >= 1.0f) {
 132:eurorack/plaits/dsp/oscillator/oscillator.h ****           phase_ -= 1.0f;
 133:eurorack/plaits/dsp/oscillator/oscillator.h ****           float t = phase_ / frequency;
 134:eurorack/plaits/dsp/oscillator/oscillator.h ****           this_sample -= stmlib::ThisBlepSample(t);
 135:eurorack/plaits/dsp/oscillator/oscillator.h ****           next_sample -= stmlib::NextBlepSample(t);
 136:eurorack/plaits/dsp/oscillator/oscillator.h ****         } else if (through_zero_fm && phase_ < 0.0f) {
 137:eurorack/plaits/dsp/oscillator/oscillator.h ****           float t = phase_ / frequency;
 138:eurorack/plaits/dsp/oscillator/oscillator.h ****           phase_ += 1.0f;
 139:eurorack/plaits/dsp/oscillator/oscillator.h ****           this_sample += stmlib::ThisBlepSample(t);
 140:eurorack/plaits/dsp/oscillator/oscillator.h ****           next_sample += stmlib::NextBlepSample(t);
 141:eurorack/plaits/dsp/oscillator/oscillator.h ****         }
 142:eurorack/plaits/dsp/oscillator/oscillator.h ****         next_sample += phase_;
 143:eurorack/plaits/dsp/oscillator/oscillator.h **** 
 144:eurorack/plaits/dsp/oscillator/oscillator.h ****         if (shape == OSCILLATOR_SHAPE_SAW) {
 145:eurorack/plaits/dsp/oscillator/oscillator.h ****           *out++ = 2.0f * this_sample - 1.0f;
 146:eurorack/plaits/dsp/oscillator/oscillator.h ****         } else {
 147:eurorack/plaits/dsp/oscillator/oscillator.h ****           lp_state_ += 0.25f * ((hp_state_ - this_sample) - lp_state_);
 148:eurorack/plaits/dsp/oscillator/oscillator.h ****           *out++ = 4.0f * lp_state_;
 149:eurorack/plaits/dsp/oscillator/oscillator.h ****           hp_state_ = this_sample;
 150:eurorack/plaits/dsp/oscillator/oscillator.h ****         }
 151:eurorack/plaits/dsp/oscillator/oscillator.h ****       } else if (shape <= OSCILLATOR_SHAPE_SLOPE) {
 152:eurorack/plaits/dsp/oscillator/oscillator.h ****         float slope_up = 2.0f;
 153:eurorack/plaits/dsp/oscillator/oscillator.h ****         float slope_down = 2.0f;
 154:eurorack/plaits/dsp/oscillator/oscillator.h ****         if (shape == OSCILLATOR_SHAPE_SLOPE) {
 155:eurorack/plaits/dsp/oscillator/oscillator.h ****           slope_up = 1.0f / (pw);
 156:eurorack/plaits/dsp/oscillator/oscillator.h ****           slope_down = 1.0f / (1.0f - pw);
 157:eurorack/plaits/dsp/oscillator/oscillator.h ****         }
 158:eurorack/plaits/dsp/oscillator/oscillator.h ****         if (high_ ^ (phase_ < pw)) {
 159:eurorack/plaits/dsp/oscillator/oscillator.h ****           float t = (phase_ - pw) / frequency;
 160:eurorack/plaits/dsp/oscillator/oscillator.h ****           float discontinuity = (slope_up + slope_down) * frequency;
 161:eurorack/plaits/dsp/oscillator/oscillator.h ****           if (through_zero_fm && frequency < 0.0f) {
 162:eurorack/plaits/dsp/oscillator/oscillator.h ****             discontinuity = -discontinuity;
 163:eurorack/plaits/dsp/oscillator/oscillator.h ****           }
 164:eurorack/plaits/dsp/oscillator/oscillator.h ****           this_sample -= stmlib::ThisIntegratedBlepSample(t) * discontinuity;
 165:eurorack/plaits/dsp/oscillator/oscillator.h ****           next_sample -= stmlib::NextIntegratedBlepSample(t) * discontinuity;
 166:eurorack/plaits/dsp/oscillator/oscillator.h ****           high_ = phase_ < pw;
 167:eurorack/plaits/dsp/oscillator/oscillator.h ****         }
 168:eurorack/plaits/dsp/oscillator/oscillator.h ****         if (phase_ >= 1.0f) {
 169:eurorack/plaits/dsp/oscillator/oscillator.h ****           phase_ -= 1.0f;
 170:eurorack/plaits/dsp/oscillator/oscillator.h ****           float t = phase_ / frequency;
 171:eurorack/plaits/dsp/oscillator/oscillator.h ****           float discontinuity = (slope_up + slope_down) * frequency;
 172:eurorack/plaits/dsp/oscillator/oscillator.h ****           this_sample += stmlib::ThisIntegratedBlepSample(t) * discontinuity;
 173:eurorack/plaits/dsp/oscillator/oscillator.h ****           next_sample += stmlib::NextIntegratedBlepSample(t) * discontinuity;
 174:eurorack/plaits/dsp/oscillator/oscillator.h ****           high_ = true;
 175:eurorack/plaits/dsp/oscillator/oscillator.h ****         } else if (through_zero_fm && phase_ < 0.0f) {
 176:eurorack/plaits/dsp/oscillator/oscillator.h ****           float t = phase_ / frequency;
 177:eurorack/plaits/dsp/oscillator/oscillator.h ****           phase_ += 1.0f;
 178:eurorack/plaits/dsp/oscillator/oscillator.h ****           float discontinuity = (slope_up + slope_down) * frequency;
 179:eurorack/plaits/dsp/oscillator/oscillator.h ****           this_sample -= stmlib::ThisIntegratedBlepSample(t) * discontinuity;
ARM GAS  /var/folders/9s/8rp0_f2s1n31qbztm3b5_fdh0000gn/T//ccQP8jK9.s 			page 13


 180:eurorack/plaits/dsp/oscillator/oscillator.h ****           next_sample -= stmlib::NextIntegratedBlepSample(t) * discontinuity;
 181:eurorack/plaits/dsp/oscillator/oscillator.h ****           high_ = false;
 182:eurorack/plaits/dsp/oscillator/oscillator.h ****         }
 183:eurorack/plaits/dsp/oscillator/oscillator.h ****         next_sample += high_
 184:eurorack/plaits/dsp/oscillator/oscillator.h ****           ? phase_ * slope_up
 185:eurorack/plaits/dsp/oscillator/oscillator.h ****           : 1.0f - (phase_ - pw) * slope_down;
 186:eurorack/plaits/dsp/oscillator/oscillator.h ****         *out++ = 2.0f * this_sample - 1.0f;
 187:eurorack/plaits/dsp/oscillator/oscillator.h ****       } else {
 188:eurorack/plaits/dsp/oscillator/oscillator.h ****         if (high_ ^ (phase_ >= pw)) {
 254              		.loc 3 188 9 is_stmt 0 view .LVU49
 255 0084 90F810C0 		ldrb	ip, [r0, #16]	@ zero_extendqisi2
 256              	.LBE254:
 257              	.LBE253:
 258              	.LBB275:
 259              	.LBB252:
  60:eurorack/stmlib/dsp/parameter_interpolator.h ****     return value_;
 260              		.loc 4 60 12 view .LVU50
 261 0088 36EE216A 		vadd.f32	s12, s12, s3
 262              	.LVL13:
 263              		.loc 4 61 5 is_stmt 1 view .LVU51
 264              		.loc 4 61 5 is_stmt 0 view .LVU52
 265 008c 9FED6F5A 		vldr.32	s10, .L35+4
 266 0090 F7EE004A 		vmov.f32	s9, #1.0e+0
 267              	.LBE252:
 268              	.LBE275:
 128:eurorack/plaits/dsp/oscillator/oscillator.h ****       
 269              		.loc 3 128 14 view .LVU53
 270 0094 76EEA77A 		vadd.f32	s15, s13, s15
 271              	.LBB276:
 272              	.LBB260:
 273              		.loc 3 188 29 view .LVU54
 274 0098 B4EEE76A 		vcmpe.f32	s12, s15
 275              	.LBE260:
 276              	.LBE276:
 128:eurorack/plaits/dsp/oscillator/oscillator.h ****       
 277              		.loc 3 128 14 view .LVU55
 278 009c C0ED007A 		vstr.32	s15, [r0]
 279              	.LBB277:
 280              	.LBB261:
 281              		.loc 3 188 29 view .LVU56
 282 00a0 F1EE10FA 		vmrs	APSR_nzcv, FPSCR
 283 00a4 94BF     		ite	ls
 284 00a6 0127     		movls	r7, #1
 285 00a8 0027     		movhi	r7, #0
 286              		.loc 3 188 9 view .LVU57
 287 00aa BC45     		cmp	ip, r7
 288 00ac 10D0     		beq	.L8
 289              	.LBB255:
 189:eurorack/plaits/dsp/oscillator/oscillator.h ****           float t = (phase_ - pw) / frequency;
 290              		.loc 3 189 29 view .LVU58
 291 00ae 77EEC62A 		vsub.f32	s5, s15, s12
 190:eurorack/plaits/dsp/oscillator/oscillator.h ****           float discontinuity = 1.0f;
 191:eurorack/plaits/dsp/oscillator/oscillator.h ****           if (through_zero_fm && frequency < 0.0f) {
 192:eurorack/plaits/dsp/oscillator/oscillator.h ****             discontinuity = -discontinuity;
 193:eurorack/plaits/dsp/oscillator/oscillator.h ****           }
 194:eurorack/plaits/dsp/oscillator/oscillator.h ****           this_sample += stmlib::ThisBlepSample(t) * discontinuity;
 195:eurorack/plaits/dsp/oscillator/oscillator.h ****           next_sample += stmlib::NextBlepSample(t) * discontinuity;
ARM GAS  /var/folders/9s/8rp0_f2s1n31qbztm3b5_fdh0000gn/T//ccQP8jK9.s 			page 14


 196:eurorack/plaits/dsp/oscillator/oscillator.h ****           high_ = phase_ >= pw;
 292              		.loc 3 196 17 view .LVU59
 293 00b2 0774     		strb	r7, [r0, #16]
 189:eurorack/plaits/dsp/oscillator/oscillator.h ****           float t = (phase_ - pw) / frequency;
 294              		.loc 3 189 17 view .LVU60
 295 00b4 82EEA64A 		vdiv.f32	s8, s5, s13
 296              	.LVL14:
 297              	.LBB256:
 298              	.LBI256:
 299              		.file 5 "eurorack/stmlib/dsp/polyblep.h"
   1:eurorack/stmlib/dsp/polyblep.h **** // Copyright 2017 Emilie Gillet.
   2:eurorack/stmlib/dsp/polyblep.h **** //
   3:eurorack/stmlib/dsp/polyblep.h **** // Author: Emilie Gillet (emilie.o.gillet@gmail.com)
   4:eurorack/stmlib/dsp/polyblep.h **** //
   5:eurorack/stmlib/dsp/polyblep.h **** // Permission is hereby granted, free of charge, to any person obtaining a copy
   6:eurorack/stmlib/dsp/polyblep.h **** // of this software and associated documentation files (the "Software"), to deal
   7:eurorack/stmlib/dsp/polyblep.h **** // in the Software without restriction, including without limitation the rights
   8:eurorack/stmlib/dsp/polyblep.h **** // to use, copy, modify, merge, publish, distribute, sublicense, and/or sell
   9:eurorack/stmlib/dsp/polyblep.h **** // copies of the Software, and to permit persons to whom the Software is
  10:eurorack/stmlib/dsp/polyblep.h **** // furnished to do so, subject to the following conditions:
  11:eurorack/stmlib/dsp/polyblep.h **** // 
  12:eurorack/stmlib/dsp/polyblep.h **** // The above copyright notice and this permission notice shall be included in
  13:eurorack/stmlib/dsp/polyblep.h **** // all copies or substantial portions of the Software.
  14:eurorack/stmlib/dsp/polyblep.h **** // 
  15:eurorack/stmlib/dsp/polyblep.h **** // THE SOFTWARE IS PROVIDED "AS IS", WITHOUT WARRANTY OF ANY KIND, EXPRESS OR
  16:eurorack/stmlib/dsp/polyblep.h **** // IMPLIED, INCLUDING BUT NOT LIMITED TO THE WARRANTIES OF MERCHANTABILITY,
  17:eurorack/stmlib/dsp/polyblep.h **** // FITNESS FOR A PARTICULAR PURPOSE AND NONINFRINGEMENT. IN NO EVENT SHALL THE
  18:eurorack/stmlib/dsp/polyblep.h **** // AUTHORS OR COPYRIGHT HOLDERS BE LIABLE FOR ANY CLAIM, DAMAGES OR OTHER
  19:eurorack/stmlib/dsp/polyblep.h **** // LIABILITY, WHETHER IN AN ACTION OF CONTRACT, TORT OR OTHERWISE, ARISING FROM,
  20:eurorack/stmlib/dsp/polyblep.h **** // OUT OF OR IN CONNECTION WITH THE SOFTWARE OR THE USE OR OTHER DEALINGS IN
  21:eurorack/stmlib/dsp/polyblep.h **** // THE SOFTWARE.
  22:eurorack/stmlib/dsp/polyblep.h **** // 
  23:eurorack/stmlib/dsp/polyblep.h **** // See http://creativecommons.org/licenses/MIT/ for more information.
  24:eurorack/stmlib/dsp/polyblep.h **** //
  25:eurorack/stmlib/dsp/polyblep.h **** // -----------------------------------------------------------------------------
  26:eurorack/stmlib/dsp/polyblep.h **** //
  27:eurorack/stmlib/dsp/polyblep.h **** // Polynomial approximation of band-limited step for band-limited waveform
  28:eurorack/stmlib/dsp/polyblep.h **** // synthesis.
  29:eurorack/stmlib/dsp/polyblep.h **** 
  30:eurorack/stmlib/dsp/polyblep.h **** #ifndef STMLIB_DSP_POLYBLEP_H_
  31:eurorack/stmlib/dsp/polyblep.h **** #define STMLIB_DSP_POLYBLEP_H_
  32:eurorack/stmlib/dsp/polyblep.h **** 
  33:eurorack/stmlib/dsp/polyblep.h **** #include "stmlib/stmlib.h"
  34:eurorack/stmlib/dsp/polyblep.h **** 
  35:eurorack/stmlib/dsp/polyblep.h **** namespace stmlib {
  36:eurorack/stmlib/dsp/polyblep.h **** 
  37:eurorack/stmlib/dsp/polyblep.h **** inline float ThisBlepSample(float t) {
 300              		.loc 5 37 14 is_stmt 1 view .LVU61
 301              	.LBB257:
  38:eurorack/stmlib/dsp/polyblep.h ****   return 0.5f * t * t;
 302              		.loc 5 38 3 view .LVU62
 303              		.loc 5 38 15 is_stmt 0 view .LVU63
 304 00b8 64EE072A 		vmul.f32	s5, s8, s14
 305              	.LBE257:
 306              	.LBE256:
 194:eurorack/plaits/dsp/oscillator/oscillator.h ****           next_sample += stmlib::NextBlepSample(t) * discontinuity;
 307              		.loc 3 194 23 view .LVU64
ARM GAS  /var/folders/9s/8rp0_f2s1n31qbztm3b5_fdh0000gn/T//ccQP8jK9.s 			page 15


 308 00bc E4EE225A 		vfma.f32	s11, s8, s5
 309              	.LVL15:
 310              	.LBB258:
 311              	.LBI258:
  39:eurorack/stmlib/dsp/polyblep.h **** }
  40:eurorack/stmlib/dsp/polyblep.h **** 
  41:eurorack/stmlib/dsp/polyblep.h **** inline float NextBlepSample(float t) {
 312              		.loc 5 41 14 is_stmt 1 view .LVU65
 313              	.LBB259:
  42:eurorack/stmlib/dsp/polyblep.h ****   t = 1.0f - t;
 314              		.loc 5 42 3 view .LVU66
 315              		.loc 5 42 5 is_stmt 0 view .LVU67
 316 00c0 34EEC44A 		vsub.f32	s8, s9, s8
 317              	.LVL16:
  43:eurorack/stmlib/dsp/polyblep.h ****   return -0.5f * t * t;
 318              		.loc 5 43 3 is_stmt 1 view .LVU68
 319              		.loc 5 43 16 is_stmt 0 view .LVU69
 320 00c4 FEEE002A 		vmov.f32	s5, #-5.0e-1
 321 00c8 64EE222A 		vmul.f32	s5, s8, s5
 322              	.LBE259:
 323              	.LBE258:
 195:eurorack/plaits/dsp/oscillator/oscillator.h ****           high_ = phase_ >= pw;
 324              		.loc 3 195 23 view .LVU70
 325 00cc A4EE225A 		vfma.f32	s10, s8, s5
 326              	.LVL17:
 327              	.L8:
 195:eurorack/plaits/dsp/oscillator/oscillator.h ****           high_ = phase_ >= pw;
 328              		.loc 3 195 23 view .LVU71
 329              	.LBE255:
 330              	.LBE261:
 331              	.LBB262:
 197:eurorack/plaits/dsp/oscillator/oscillator.h ****         }
 198:eurorack/plaits/dsp/oscillator/oscillator.h ****         if (phase_ >= 1.0f) {
 332              		.loc 3 198 9 view .LVU72
 333 00d0 F4EEE47A 		vcmpe.f32	s15, s9
 334 00d4 F1EE10FA 		vmrs	APSR_nzcv, FPSCR
 335 00d8 13DB     		blt	.L9
 336              	.LBB263:
 199:eurorack/plaits/dsp/oscillator/oscillator.h ****           phase_ -= 1.0f;
 337              		.loc 3 199 18 view .LVU73
 338 00da 77EEE47A 		vsub.f32	s15, s15, s9
 200:eurorack/plaits/dsp/oscillator/oscillator.h ****           float t = phase_ / frequency;
 201:eurorack/plaits/dsp/oscillator/oscillator.h ****           this_sample -= stmlib::ThisBlepSample(t);
 202:eurorack/plaits/dsp/oscillator/oscillator.h ****           next_sample -= stmlib::NextBlepSample(t);
 203:eurorack/plaits/dsp/oscillator/oscillator.h ****           high_ = false;
 339              		.loc 3 203 17 view .LVU74
 340 00de 0027     		movs	r7, #0
 341 00e0 0774     		strb	r7, [r0, #16]
 200:eurorack/plaits/dsp/oscillator/oscillator.h ****           float t = phase_ / frequency;
 342              		.loc 3 200 17 view .LVU75
 343 00e2 87EEA64A 		vdiv.f32	s8, s15, s13
 344              	.LVL18:
 345              	.LBB264:
 346              	.LBI264:
  37:eurorack/stmlib/dsp/polyblep.h ****   return 0.5f * t * t;
 347              		.loc 5 37 14 is_stmt 1 view .LVU76
 348              	.LBB265:
ARM GAS  /var/folders/9s/8rp0_f2s1n31qbztm3b5_fdh0000gn/T//ccQP8jK9.s 			page 16


  38:eurorack/stmlib/dsp/polyblep.h **** }
 349              		.loc 5 38 3 view .LVU77
  38:eurorack/stmlib/dsp/polyblep.h **** }
 350              		.loc 5 38 3 is_stmt 0 view .LVU78
 351              	.LBE265:
 352              	.LBE264:
 199:eurorack/plaits/dsp/oscillator/oscillator.h ****           float t = phase_ / frequency;
 353              		.loc 3 199 18 view .LVU79
 354 00e6 C0ED007A 		vstr.32	s15, [r0]
 355              	.LBB267:
 356              	.LBB266:
  38:eurorack/stmlib/dsp/polyblep.h **** }
 357              		.loc 5 38 15 view .LVU80
 358 00ea 64EE077A 		vmul.f32	s15, s8, s14
 359              	.LBE266:
 360              	.LBE267:
 361              	.LBB268:
 362              	.LBB269:
  42:eurorack/stmlib/dsp/polyblep.h ****   return -0.5f * t * t;
 363              		.loc 5 42 5 view .LVU81
 364 00ee 74EEC44A 		vsub.f32	s9, s9, s8
 365              	.LBE269:
 366              	.LBE268:
 201:eurorack/plaits/dsp/oscillator/oscillator.h ****           next_sample -= stmlib::NextBlepSample(t);
 367              		.loc 3 201 23 view .LVU82
 368 00f2 E4EE675A 		vfms.f32	s11, s8, s15
 369              	.LVL19:
 370              	.LBB271:
 371              	.LBI268:
  41:eurorack/stmlib/dsp/polyblep.h ****   t = 1.0f - t;
 372              		.loc 5 41 14 is_stmt 1 view .LVU83
 373              	.LBB270:
  42:eurorack/stmlib/dsp/polyblep.h ****   return -0.5f * t * t;
 374              		.loc 5 42 3 view .LVU84
 375              		.loc 5 43 3 view .LVU85
 376              		.loc 5 43 16 is_stmt 0 view .LVU86
 377 00f6 FEEE007A 		vmov.f32	s15, #-5.0e-1
 378 00fa 64EEA77A 		vmul.f32	s15, s9, s15
 379              	.LBE270:
 380              	.LBE271:
 202:eurorack/plaits/dsp/oscillator/oscillator.h ****           high_ = false;
 381              		.loc 3 202 23 view .LVU87
 382 00fe A4EEE75A 		vfms.f32	s10, s9, s15
 383              	.LVL20:
 384              	.L9:
 202:eurorack/plaits/dsp/oscillator/oscillator.h ****           high_ = false;
 385              		.loc 3 202 23 view .LVU88
 386              	.LBE263:
 387              	.LBE262:
 204:eurorack/plaits/dsp/oscillator/oscillator.h ****         } else if (through_zero_fm && phase_ < 0.0f) {
 205:eurorack/plaits/dsp/oscillator/oscillator.h ****           float t = phase_ / frequency;
 206:eurorack/plaits/dsp/oscillator/oscillator.h ****           phase_ += 1.0f;
 207:eurorack/plaits/dsp/oscillator/oscillator.h ****           this_sample += stmlib::ThisBlepSample(t);
 208:eurorack/plaits/dsp/oscillator/oscillator.h ****           next_sample += stmlib::NextBlepSample(t);
 209:eurorack/plaits/dsp/oscillator/oscillator.h ****           high_ = true;
 210:eurorack/plaits/dsp/oscillator/oscillator.h ****         }
 211:eurorack/plaits/dsp/oscillator/oscillator.h ****         next_sample += phase_ < pw ? 0.0f : 1.0f;
ARM GAS  /var/folders/9s/8rp0_f2s1n31qbztm3b5_fdh0000gn/T//ccQP8jK9.s 			page 17


 388              		.loc 3 211 36 view .LVU89
 389 0102 D0ED007A 		vldr.32	s15, [r0]
 390 0106 F7EE004A 		vmov.f32	s9, #1.0e+0
 391              	.LBB272:
 212:eurorack/plaits/dsp/oscillator/oscillator.h ****         
 213:eurorack/plaits/dsp/oscillator/oscillator.h ****         if (shape == OSCILLATOR_SHAPE_SQUARE_TRIANGLE) {
 214:eurorack/plaits/dsp/oscillator/oscillator.h ****           const float integrator_coefficient = frequency * 0.0625f;
 215:eurorack/plaits/dsp/oscillator/oscillator.h ****           this_sample = 128.0f * (this_sample - 0.5f);
 216:eurorack/plaits/dsp/oscillator/oscillator.h ****           lp_state_ += integrator_coefficient * (this_sample - lp_state_);
 217:eurorack/plaits/dsp/oscillator/oscillator.h ****           *out++ = lp_state_;
 218:eurorack/plaits/dsp/oscillator/oscillator.h ****         } else if (shape == OSCILLATOR_SHAPE_SQUARE_DARK) {
 219:eurorack/plaits/dsp/oscillator/oscillator.h ****           const float integrator_coefficient = frequency * 2.0f;
 220:eurorack/plaits/dsp/oscillator/oscillator.h ****           this_sample = 4.0f * (this_sample - 0.5f);
 221:eurorack/plaits/dsp/oscillator/oscillator.h ****           lp_state_ += integrator_coefficient * (this_sample - lp_state_);
 222:eurorack/plaits/dsp/oscillator/oscillator.h ****           *out++ = lp_state_;
 223:eurorack/plaits/dsp/oscillator/oscillator.h ****         } else if (shape == OSCILLATOR_SHAPE_SQUARE_BRIGHT) {
 224:eurorack/plaits/dsp/oscillator/oscillator.h ****           const float integrator_coefficient = frequency * 2.0f;
 225:eurorack/plaits/dsp/oscillator/oscillator.h ****           this_sample = 2.0f * this_sample - 1.0f;
 226:eurorack/plaits/dsp/oscillator/oscillator.h ****           lp_state_ += integrator_coefficient * (this_sample - lp_state_);
 227:eurorack/plaits/dsp/oscillator/oscillator.h ****           *out++ = (this_sample - lp_state_) * 0.5f;
 228:eurorack/plaits/dsp/oscillator/oscillator.h ****         } else {
 229:eurorack/plaits/dsp/oscillator/oscillator.h ****           this_sample = 2.0f * this_sample - 1.0f;
 392              		.loc 3 229 23 view .LVU90
 393 010a B0EE004A 		vmov.f32	s8, #2.0e+0
 394              	.LBE272:
 211:eurorack/plaits/dsp/oscillator/oscillator.h ****         
 395              		.loc 3 211 36 view .LVU91
 396 010e B4EEE76A 		vcmpe.f32	s12, s15
 397 0112 DFED4E7A 		vldr.32	s15, .L35+4
 398 0116 F1EE10FA 		vmrs	APSR_nzcv, FPSCR
 399 011a 77FEA47A 		vselgt.f32	s15, s15, s9
 400              	.LVL21:
 401              	.LBB273:
 402              		.loc 3 229 23 view .LVU92
 403 011e FFEE004A 		vmov.f32	s9, #-1.0e+0
 404 0122 E5EE844A 		vfma.f32	s9, s11, s8
 405              	.LVL22:
 406              		.loc 3 229 23 view .LVU93
 407              	.LBE273:
 211:eurorack/plaits/dsp/oscillator/oscillator.h ****         
 408              		.loc 3 211 21 view .LVU94
 409 0126 75EE275A 		vadd.f32	s11, s10, s15
 410              	.LVL23:
 411              	.LBB274:
 230:eurorack/plaits/dsp/oscillator/oscillator.h ****           *out++ = this_sample;
 412              		.loc 3 230 18 view .LVU95
 413 012a E6EC014A 		vstmia.32	r6!, {s9}
 414              	.LVL24:
 415              		.loc 3 230 18 view .LVU96
 416 012e A3E7     		b	.L12
 417              	.LVL25:
 418              	.L23:
 419              		.loc 3 230 18 view .LVU97
 420              	.LBE274:
 421              	.LBE277:
 422              	.LBE245:
  98:eurorack/plaits/dsp/oscillator/oscillator.h ****       } else {
ARM GAS  /var/folders/9s/8rp0_f2s1n31qbztm3b5_fdh0000gn/T//ccQP8jK9.s 			page 18


 423              		.loc 3 98 9 view .LVU98
 424 0130 B0EE430A 		vmov.f32	s0, s6
 425              	.LVL26:
  98:eurorack/plaits/dsp/oscillator/oscillator.h ****       } else {
 426              		.loc 3 98 9 view .LVU99
 427 0134 76E7     		b	.L3
 428              	.LVL27:
 429              	.L7:
  98:eurorack/plaits/dsp/oscillator/oscillator.h ****       } else {
 430              		.loc 3 98 9 view .LVU100
 431              	.LBE285:
 432              	.LBE290:
 433              	.LBE295:
 434              	.LBB296:
 435              	.LBB297:
 436              	.LBB298:
 437 0136 F4EEC30A 		vcmpe.f32	s1, s6
 438              	.LBE298:
 439              	.LBE297:
 440              	.LBE296:
 441              	.LBB357:
 442              	.LBB291:
 443              	.LBB286:
 231:eurorack/plaits/dsp/oscillator/oscillator.h ****         }
 232:eurorack/plaits/dsp/oscillator/oscillator.h ****       }
 233:eurorack/plaits/dsp/oscillator/oscillator.h ****     }
 234:eurorack/plaits/dsp/oscillator/oscillator.h ****     next_sample_ = next_sample;
 444              		.loc 3 234 18 view .LVU101
 445 013a C0ED015A 		vstr.32	s11, [r0, #4]
 446              	.LVL28:
 447              	.LBB278:
 448              	.LBI278:
  49:eurorack/stmlib/dsp/parameter_interpolator.h ****     *state_ = value_;
 449              		.loc 4 49 3 is_stmt 1 view .LVU102
 450              	.LBB279:
  50:eurorack/stmlib/dsp/parameter_interpolator.h ****   }
 451              		.loc 4 50 5 view .LVU103
  50:eurorack/stmlib/dsp/parameter_interpolator.h ****   }
 452              		.loc 4 50 13 is_stmt 0 view .LVU104
 453 013e 80ED066A 		vstr.32	s12, [r0, #24]
 454              	.LVL29:
  50:eurorack/stmlib/dsp/parameter_interpolator.h ****   }
 455              		.loc 4 50 13 view .LVU105
 456              	.LBE279:
 457              	.LBE278:
 458              	.LBB280:
 459              	.LBI280:
  49:eurorack/stmlib/dsp/parameter_interpolator.h ****     *state_ = value_;
 460              		.loc 4 49 3 is_stmt 1 view .LVU106
 461              	.LBB281:
  50:eurorack/stmlib/dsp/parameter_interpolator.h ****   }
 462              		.loc 4 50 5 view .LVU107
  50:eurorack/stmlib/dsp/parameter_interpolator.h ****   }
 463              		.loc 4 50 13 is_stmt 0 view .LVU108
 464 0142 C0ED056A 		vstr.32	s13, [r0, #20]
 465              	.LVL30:
  50:eurorack/stmlib/dsp/parameter_interpolator.h ****   }
ARM GAS  /var/folders/9s/8rp0_f2s1n31qbztm3b5_fdh0000gn/T//ccQP8jK9.s 			page 19


 466              		.loc 4 50 13 view .LVU109
 467              	.LBE281:
 468              	.LBE280:
 469              	.LBE286:
 470              	.LBE291:
 471              	.LBE357:
 137:eurorack/plaits/dsp/drums/hi_hat.h ****     osc[1].Render<OSCILLATOR_SHAPE_SAW>(f2, 0.5f, temp_2, size);
 472              		.loc 2 137 5 is_stmt 1 view .LVU110
 473              	.LBB358:
 474              	.LBI296:
  70:eurorack/plaits/dsp/oscillator/oscillator.h ****     Render<shape, false, false>(frequency, pw, NULL, out, size);
 475              		.loc 3 70 8 view .LVU111
 476              	.LBB354:
 477              	.LBI297:
  89:eurorack/plaits/dsp/oscillator/oscillator.h ****       float frequency,
 478              		.loc 3 89 8 view .LVU112
 479              	.LBB351:
  98:eurorack/plaits/dsp/oscillator/oscillator.h ****       } else {
 480              		.loc 3 98 9 is_stmt 0 view .LVU113
 481 0146 F1EE10FA 		vmrs	APSR_nzcv, FPSCR
 482 014a 51D4     		bmi	.L27
  98:eurorack/plaits/dsp/oscillator/oscillator.h ****       } else {
 483              		.loc 3 98 9 view .LVU114
 484 014c F5EE007A 		vmov.f32	s15, #2.5e-1
 485 0150 F4EE670A 		vcmp.f32	s1, s15
 486 0154 F1EE10FA 		vmrs	APSR_nzcv, FPSCR
 487 0158 77FEA00A 		vselgt.f32	s1, s15, s1
 488              	.LVL31:
 489              	.L13:
 102:eurorack/plaits/dsp/oscillator/oscillator.h ****     }
 490              		.loc 3 102 7 view .LVU115
 491 015c F0EEE07A 		vabs.f32	s15, s1
 492 0160 77EEA77A 		vadd.f32	s15, s15, s15
 493 0164 F4EEC77A 		vcmpe.f32	s15, s14
 494 0168 F1EE10FA 		vmrs	APSR_nzcv, FPSCR
 495 016c 0CDC     		bgt	.L15
 102:eurorack/plaits/dsp/oscillator/oscillator.h ****     }
 496              		.loc 3 102 7 view .LVU116
 497 016e F7EE006A 		vmov.f32	s13, #1.0e+0
 498              	.LVL32:
 102:eurorack/plaits/dsp/oscillator/oscillator.h ****     }
 499              		.loc 3 102 7 view .LVU117
 500 0172 76EEE77A 		vsub.f32	s15, s13, s15
 501 0176 F6EE006A 		vmov.f32	s13, #5.0e-1
 502 017a F4EEC77A 		vcmpe.f32	s15, s14
 503 017e F1EE10FA 		vmrs	APSR_nzcv, FPSCR
 504 0182 58BF     		it	pl
 505 0184 F0EE667A 		vmovpl.f32	s15, s13
 506              	.L15:
 507              	.LVL33:
 508              	.LBB299:
 509              	.LBI299:
  39:eurorack/stmlib/dsp/parameter_interpolator.h ****     Init(state, new_value, size);
 510              		.loc 4 39 3 is_stmt 1 view .LVU118
 511              	.LBE299:
 512              	.LBE351:
 513              	.LBE354:
ARM GAS  /var/folders/9s/8rp0_f2s1n31qbztm3b5_fdh0000gn/T//ccQP8jK9.s 			page 20


 514              	.LBE358:
  40:eurorack/stmlib/dsp/parameter_interpolator.h ****   }
 515              		.loc 4 40 5 view .LVU119
 516              	.LBB359:
 517              	.LBB355:
 518              	.LBB352:
 519              	.LBB306:
 520              	.LBB300:
 521              	.LBI300:
  53:eurorack/stmlib/dsp/parameter_interpolator.h ****     state_ = state;
 522              		.loc 4 53 15 view .LVU120
 523              	.LBB301:
  54:eurorack/stmlib/dsp/parameter_interpolator.h ****     value_ = *state;
 524              		.loc 4 54 5 view .LVU121
  55:eurorack/stmlib/dsp/parameter_interpolator.h ****     increment_ = (new_value - *state) / static_cast<float>(size);
 525              		.loc 4 55 5 view .LVU122
  55:eurorack/stmlib/dsp/parameter_interpolator.h ****     increment_ = (new_value - *state) / static_cast<float>(size);
 526              		.loc 4 55 14 is_stmt 0 view .LVU123
 527 0188 D0ED0C6A 		vldr.32	s13, [r0, #48]
 528              	.LVL34:
  56:eurorack/stmlib/dsp/parameter_interpolator.h ****   }
 529              		.loc 4 56 5 is_stmt 1 view .LVU124
 530              	.LBE301:
 531              	.LBE300:
 532              	.LBE306:
 108:eurorack/plaits/dsp/oscillator/oscillator.h ****   
 533              		.loc 3 108 11 is_stmt 0 view .LVU125
 534 018c 2546     		mov	r5, r4
 535              	.LBB307:
 536              	.LBB308:
 537              	.LBB309:
  55:eurorack/stmlib/dsp/parameter_interpolator.h ****     increment_ = (new_value - *state) / static_cast<float>(size);
 538              		.loc 4 55 14 view .LVU126
 539 018e D0ED0D4A 		vldr.32	s9, [r0, #52]
 540              	.LBE309:
 541              	.LBE308:
 542              	.LBE307:
 108:eurorack/plaits/dsp/oscillator/oscillator.h ****   
 543              		.loc 3 108 11 view .LVU127
 544 0192 1646     		mov	r6, r2
 545              	.LBB314:
 546              	.LBB304:
 547              	.LBB302:
  56:eurorack/stmlib/dsp/parameter_interpolator.h ****   }
 548              		.loc 4 56 29 view .LVU128
 549 0194 70EEE60A 		vsub.f32	s1, s1, s13
 550              	.LVL35:
  56:eurorack/stmlib/dsp/parameter_interpolator.h ****   }
 551              		.loc 4 56 29 view .LVU129
 552              	.LBE302:
 553              	.LBE304:
 554              	.LBE314:
 108:eurorack/plaits/dsp/oscillator/oscillator.h ****   
 555              		.loc 3 108 11 view .LVU130
 556 0198 D0ED085A 		vldr.32	s11, [r0, #32]
 557              	.LBB315:
 558              	.LBB312:
ARM GAS  /var/folders/9s/8rp0_f2s1n31qbztm3b5_fdh0000gn/T//ccQP8jK9.s 			page 21


 559              	.LBB310:
  56:eurorack/stmlib/dsp/parameter_interpolator.h ****   }
 560              		.loc 4 56 29 view .LVU131
 561 019c 77EEE47A 		vsub.f32	s15, s15, s9
 562              	.LVL36:
  56:eurorack/stmlib/dsp/parameter_interpolator.h ****   }
 563              		.loc 4 56 29 view .LVU132
 564              	.LBE310:
 565              	.LBE312:
 566              	.LBE315:
 567              	.LBB316:
 568              	.LBB305:
 569              	.LBB303:
  56:eurorack/stmlib/dsp/parameter_interpolator.h ****   }
 570              		.loc 4 56 39 view .LVU133
 571 01a0 C0EEA32A 		vdiv.f32	s5, s1, s7
 572              	.LVL37:
  56:eurorack/stmlib/dsp/parameter_interpolator.h ****   }
 573              		.loc 4 56 39 view .LVU134
 574              	.LBE303:
 575              	.LBE305:
 576              	.LBE316:
 577              	.LBB317:
 578              	.LBI307:
  39:eurorack/stmlib/dsp/parameter_interpolator.h ****     Init(state, new_value, size);
 579              		.loc 4 39 3 is_stmt 1 view .LVU135
 580              	.LBE317:
 581              	.LBE352:
 582              	.LBE355:
 583              	.LBE359:
  40:eurorack/stmlib/dsp/parameter_interpolator.h ****   }
 584              		.loc 4 40 5 view .LVU136
 585              	.LBB360:
 586              	.LBB356:
 587              	.LBB353:
 588              	.LBB318:
 589              	.LBB313:
 590              	.LBI308:
  53:eurorack/stmlib/dsp/parameter_interpolator.h ****     state_ = state;
 591              		.loc 4 53 15 view .LVU137
 592              	.LBB311:
  54:eurorack/stmlib/dsp/parameter_interpolator.h ****     value_ = *state;
 593              		.loc 4 54 5 view .LVU138
  55:eurorack/stmlib/dsp/parameter_interpolator.h ****     increment_ = (new_value - *state) / static_cast<float>(size);
 594              		.loc 4 55 5 view .LVU139
  56:eurorack/stmlib/dsp/parameter_interpolator.h ****   }
 595              		.loc 4 56 5 view .LVU140
  56:eurorack/stmlib/dsp/parameter_interpolator.h ****   }
 596              		.loc 4 56 39 is_stmt 0 view .LVU141
 597 01a4 87EEA33A 		vdiv.f32	s6, s15, s7
 598              	.LVL38:
 599              	.L20:
  56:eurorack/stmlib/dsp/parameter_interpolator.h ****   }
 600              		.loc 4 56 39 view .LVU142
 601              	.LBE311:
 602              	.LBE313:
 603              	.LBE318:
ARM GAS  /var/folders/9s/8rp0_f2s1n31qbztm3b5_fdh0000gn/T//ccQP8jK9.s 			page 22


 110:eurorack/plaits/dsp/oscillator/oscillator.h ****       float this_sample = next_sample;
 604              		.loc 3 110 5 is_stmt 1 view .LVU143
 605 01a8 013D     		subs	r5, r5, #1
 606              	.LVL39:
 110:eurorack/plaits/dsp/oscillator/oscillator.h ****       float this_sample = next_sample;
 607              		.loc 3 110 5 is_stmt 0 view .LVU144
 608 01aa 39D3     		bcc	.L17
 609              	.LVL40:
 610              	.LBB319:
 611              	.LBB320:
 612              	.LBI320:
  59:eurorack/stmlib/dsp/parameter_interpolator.h ****     value_ += increment_;
 613              		.loc 4 59 16 is_stmt 1 view .LVU145
 614              	.LBB321:
  60:eurorack/stmlib/dsp/parameter_interpolator.h ****     return value_;
 615              		.loc 4 60 5 view .LVU146
 616              	.LBE321:
 617              	.LBE320:
 128:eurorack/plaits/dsp/oscillator/oscillator.h ****       
 618              		.loc 3 128 14 is_stmt 0 view .LVU147
 619 01ac D0ED077A 		vldr.32	s15, [r0, #28]
 620              	.LBB323:
 621              	.LBB322:
  60:eurorack/stmlib/dsp/parameter_interpolator.h ****     return value_;
 622              		.loc 4 60 12 view .LVU148
 623 01b0 76EEA26A 		vadd.f32	s13, s13, s5
 624              	.LVL41:
 625              		.loc 4 61 5 is_stmt 1 view .LVU149
 626              		.loc 4 61 5 is_stmt 0 view .LVU150
 627              	.LBE322:
 628              	.LBE323:
 629              	.LBB324:
 630              	.LBI324:
  59:eurorack/stmlib/dsp/parameter_interpolator.h ****     value_ += increment_;
 631              		.loc 4 59 16 is_stmt 1 view .LVU151
 632              	.LBB325:
  60:eurorack/stmlib/dsp/parameter_interpolator.h ****     return value_;
 633              		.loc 4 60 5 view .LVU152
 634 01b4 9FED255A 		vldr.32	s10, .L35+4
 635              	.LBE325:
 636              	.LBE324:
 637              	.LBB327:
 638              	.LBB328:
 131:eurorack/plaits/dsp/oscillator/oscillator.h ****           phase_ -= 1.0f;
 639              		.loc 3 131 9 is_stmt 0 view .LVU153
 640 01b8 B7EE006A 		vmov.f32	s12, #1.0e+0
 641              	.LBE328:
 642              	.LBE327:
 643              	.LBB342:
 644              	.LBB326:
  60:eurorack/stmlib/dsp/parameter_interpolator.h ****     return value_;
 645              		.loc 4 60 12 view .LVU154
 646 01bc 74EE834A 		vadd.f32	s9, s9, s6
 647              	.LVL42:
 648              		.loc 4 61 5 is_stmt 1 view .LVU155
 649              		.loc 4 61 5 is_stmt 0 view .LVU156
 650              	.LBE326:
ARM GAS  /var/folders/9s/8rp0_f2s1n31qbztm3b5_fdh0000gn/T//ccQP8jK9.s 			page 23


 651              	.LBE342:
 128:eurorack/plaits/dsp/oscillator/oscillator.h ****       
 652              		.loc 3 128 14 view .LVU157
 653 01c0 76EEA77A 		vadd.f32	s15, s13, s15
 654              	.LBB343:
 655              	.LBB340:
 131:eurorack/plaits/dsp/oscillator/oscillator.h ****           phase_ -= 1.0f;
 656              		.loc 3 131 9 view .LVU158
 657 01c4 F4EEC67A 		vcmpe.f32	s15, s12
 658 01c8 F1EE10FA 		vmrs	APSR_nzcv, FPSCR
 659 01cc 13DA     		bge	.L18
 660              	.LBE340:
 661              	.LBE343:
 128:eurorack/plaits/dsp/oscillator/oscillator.h ****       
 662              		.loc 3 128 14 view .LVU159
 663 01ce C0ED077A 		vstr.32	s15, [r0, #28]
 112:eurorack/plaits/dsp/oscillator/oscillator.h **** 
 664              		.loc 3 112 19 view .LVU160
 665 01d2 F0EE457A 		vmov.f32	s15, s10
 666              	.LVL43:
 667              	.L19:
 668              	.LBB344:
 145:eurorack/plaits/dsp/oscillator/oscillator.h ****         } else {
 669              		.loc 3 145 39 view .LVU161
 670 01d6 B0EE004A 		vmov.f32	s8, #2.0e+0
 142:eurorack/plaits/dsp/oscillator/oscillator.h **** 
 671              		.loc 3 142 21 view .LVU162
 672 01da 90ED075A 		vldr.32	s10, [r0, #28]
 673              	.LVL44:
 145:eurorack/plaits/dsp/oscillator/oscillator.h ****         } else {
 674              		.loc 3 145 39 view .LVU163
 675 01de BFEE006A 		vmov.f32	s12, #-1.0e+0
 676 01e2 A5EE846A 		vfma.f32	s12, s11, s8
 142:eurorack/plaits/dsp/oscillator/oscillator.h **** 
 677              		.loc 3 142 21 view .LVU164
 678 01e6 77EE855A 		vadd.f32	s11, s15, s10
 679              	.LVL45:
 145:eurorack/plaits/dsp/oscillator/oscillator.h ****         } else {
 680              		.loc 3 145 18 view .LVU165
 681 01ea A6EC016A 		vstmia.32	r6!, {s12}
 682              	.LVL46:
 145:eurorack/plaits/dsp/oscillator/oscillator.h ****         } else {
 683              		.loc 3 145 18 view .LVU166
 684 01ee DBE7     		b	.L20
 685              	.LVL47:
 686              	.L27:
 145:eurorack/plaits/dsp/oscillator/oscillator.h ****         } else {
 687              		.loc 3 145 18 view .LVU167
 688              	.LBE344:
 689              	.LBE319:
  98:eurorack/plaits/dsp/oscillator/oscillator.h ****       } else {
 690              		.loc 3 98 9 view .LVU168
 691 01f0 DFED150A 		vldr.32	s1, .L35
 692              	.LVL48:
  98:eurorack/plaits/dsp/oscillator/oscillator.h ****       } else {
 693              		.loc 3 98 9 view .LVU169
 694 01f4 B2E7     		b	.L13
ARM GAS  /var/folders/9s/8rp0_f2s1n31qbztm3b5_fdh0000gn/T//ccQP8jK9.s 			page 24


 695              	.LVL49:
 696              	.L18:
 697              	.LBB346:
 698              	.LBB345:
 699              	.LBB341:
 700              	.LBB329:
 132:eurorack/plaits/dsp/oscillator/oscillator.h ****           float t = phase_ / frequency;
 701              		.loc 3 132 18 view .LVU170
 702 01f6 77EEC67A 		vsub.f32	s15, s15, s12
 133:eurorack/plaits/dsp/oscillator/oscillator.h ****           this_sample -= stmlib::ThisBlepSample(t);
 703              		.loc 3 133 17 view .LVU171
 704 01fa 87EEA64A 		vdiv.f32	s8, s15, s13
 705              	.LVL50:
 706              	.LBB330:
 707              	.LBI330:
  37:eurorack/stmlib/dsp/polyblep.h ****   return 0.5f * t * t;
 708              		.loc 5 37 14 is_stmt 1 view .LVU172
 709              	.LBB331:
  38:eurorack/stmlib/dsp/polyblep.h **** }
 710              		.loc 5 38 3 view .LVU173
  38:eurorack/stmlib/dsp/polyblep.h **** }
 711              		.loc 5 38 3 is_stmt 0 view .LVU174
 712              	.LBE331:
 713              	.LBE330:
 132:eurorack/plaits/dsp/oscillator/oscillator.h ****           float t = phase_ / frequency;
 714              		.loc 3 132 18 view .LVU175
 715 01fe C0ED077A 		vstr.32	s15, [r0, #28]
 716              	.LBB333:
 717              	.LBB332:
  38:eurorack/stmlib/dsp/polyblep.h **** }
 718              		.loc 5 38 15 view .LVU176
 719 0202 64EE077A 		vmul.f32	s15, s8, s14
 720              	.LBE332:
 721              	.LBE333:
 722              	.LBB334:
 723              	.LBB335:
  42:eurorack/stmlib/dsp/polyblep.h ****   return -0.5f * t * t;
 724              		.loc 5 42 5 view .LVU177
 725 0206 36EE446A 		vsub.f32	s12, s12, s8
 726              	.LBE335:
 727              	.LBE334:
 134:eurorack/plaits/dsp/oscillator/oscillator.h ****           next_sample -= stmlib::NextBlepSample(t);
 728              		.loc 3 134 23 view .LVU178
 729 020a E4EE675A 		vfms.f32	s11, s8, s15
 730              	.LVL51:
 731              	.LBB338:
 732              	.LBI334:
  41:eurorack/stmlib/dsp/polyblep.h ****   t = 1.0f - t;
 733              		.loc 5 41 14 is_stmt 1 view .LVU179
 734              	.LBB336:
  42:eurorack/stmlib/dsp/polyblep.h ****   return -0.5f * t * t;
 735              		.loc 5 42 3 view .LVU180
 736              		.loc 5 43 3 view .LVU181
 737              		.loc 5 43 16 is_stmt 0 view .LVU182
 738 020e BEEE004A 		vmov.f32	s8, #-5.0e-1
 739              	.LVL52:
 740              		.loc 5 43 16 view .LVU183
ARM GAS  /var/folders/9s/8rp0_f2s1n31qbztm3b5_fdh0000gn/T//ccQP8jK9.s 			page 25


 741              	.LBE336:
 742              	.LBE338:
 135:eurorack/plaits/dsp/oscillator/oscillator.h ****         } else if (through_zero_fm && phase_ < 0.0f) {
 743              		.loc 3 135 23 view .LVU184
 744 0212 F0EE457A 		vmov.f32	s15, s10
 745              	.LBB339:
 746              	.LBB337:
 747              		.loc 5 43 16 view .LVU185
 748 0216 26EE044A 		vmul.f32	s8, s12, s8
 749              	.LBE337:
 750              	.LBE339:
 135:eurorack/plaits/dsp/oscillator/oscillator.h ****         } else if (through_zero_fm && phase_ < 0.0f) {
 751              		.loc 3 135 23 view .LVU186
 752 021a E6EE447A 		vfms.f32	s15, s12, s8
 753              	.LVL53:
 135:eurorack/plaits/dsp/oscillator/oscillator.h ****         } else if (through_zero_fm && phase_ < 0.0f) {
 754              		.loc 3 135 23 view .LVU187
 755              	.LBE329:
 756 021e DAE7     		b	.L19
 757              	.LVL54:
 758              	.L17:
 135:eurorack/plaits/dsp/oscillator/oscillator.h ****         } else if (through_zero_fm && phase_ < 0.0f) {
 759              		.loc 3 135 23 view .LVU188
 760              	.LBE341:
 761              	.LBE345:
 762              	.LBE346:
 763              		.loc 3 234 18 view .LVU189
 764 0220 C0ED085A 		vstr.32	s11, [r0, #32]
 765              	.LVL55:
 766              	.LBB347:
 767              	.LBI347:
  49:eurorack/stmlib/dsp/parameter_interpolator.h ****     *state_ = value_;
 768              		.loc 4 49 3 is_stmt 1 view .LVU190
 769              	.LBB348:
  50:eurorack/stmlib/dsp/parameter_interpolator.h ****   }
 770              		.loc 4 50 5 view .LVU191
  50:eurorack/stmlib/dsp/parameter_interpolator.h ****   }
 771              		.loc 4 50 13 is_stmt 0 view .LVU192
 772 0224 C0ED0D4A 		vstr.32	s9, [r0, #52]
 773              	.LVL56:
  50:eurorack/stmlib/dsp/parameter_interpolator.h ****   }
 774              		.loc 4 50 13 view .LVU193
 775              	.LBE348:
 776              	.LBE347:
 777              	.LBB349:
 778              	.LBI349:
  49:eurorack/stmlib/dsp/parameter_interpolator.h ****     *state_ = value_;
 779              		.loc 4 49 3 is_stmt 1 view .LVU194
 780              	.LBB350:
  50:eurorack/stmlib/dsp/parameter_interpolator.h ****   }
 781              		.loc 4 50 5 view .LVU195
  50:eurorack/stmlib/dsp/parameter_interpolator.h ****   }
 782              		.loc 4 50 13 is_stmt 0 view .LVU196
 783 0228 C0ED0C6A 		vstr.32	s13, [r0, #48]
 784              	.LVL57:
 785              	.L22:
  50:eurorack/stmlib/dsp/parameter_interpolator.h ****   }
ARM GAS  /var/folders/9s/8rp0_f2s1n31qbztm3b5_fdh0000gn/T//ccQP8jK9.s 			page 26


 786              		.loc 4 50 13 view .LVU197
 787              	.LBE350:
 788              	.LBE349:
 789              	.LBE353:
 790              	.LBE356:
 791              	.LBE360:
 138:eurorack/plaits/dsp/drums/hi_hat.h ****     while (size--) {
 792              		.loc 2 138 5 is_stmt 1 view .LVU198
 793              		.loc 2 138 16 view .LVU199
 794 022c 013C     		subs	r4, r4, #1
 795              	.LVL58:
 796              		.loc 2 138 16 is_stmt 0 view .LVU200
 797 022e 0AD3     		bcc	.L2
 139:eurorack/plaits/dsp/drums/hi_hat.h ****       *out++ += *temp_1++ * *temp_2++;
 798              		.loc 2 139 7 is_stmt 1 view .LVU201
 799              	.LVL59:
 800              		.loc 2 139 14 is_stmt 0 view .LVU202
 801 0230 F1EC016A 		vldmia.32	r1!, {s13}
 802              	.LVL60:
 803              		.loc 2 139 14 view .LVU203
 804 0234 B2EC017A 		vldmia.32	r2!, {s14}
 805              	.LVL61:
 806              		.loc 2 139 14 view .LVU204
 807 0238 F3EC017A 		vldmia.32	r3!, {s15}
 808              	.LVL62:
 809              		.loc 2 139 14 view .LVU205
 810 023c E6EE877A 		vfma.f32	s15, s13, s14
 811 0240 43ED017A 		vstr.32	s15, [r3, #-4]
 138:eurorack/plaits/dsp/drums/hi_hat.h ****     while (size--) {
 812              		.loc 2 138 5 view .LVU206
 813 0244 F2E7     		b	.L22
 814              	.L2:
 140:eurorack/plaits/dsp/drums/hi_hat.h ****     }
 141:eurorack/plaits/dsp/drums/hi_hat.h ****   }
 815              		.loc 2 141 3 view .LVU207
 816 0246 F0BD     		pop	{r4, r5, r6, r7, pc}
 817              	.LVL63:
 818              	.L36:
 819              		.loc 2 141 3 view .LVU208
 820              		.align	2
 821              	.L35:
 822 0248 BD378635 		.word	897988541
 823 024c 00000000 		.word	0
 824              		.cfi_endproc
 825              	.LFE1608:
 827              		.section	.text._ZN6stmlib3Svf4InitEv,"axG",%progbits,_ZN6stmlib3Svf4InitEv,comdat
 828              		.align	1
 829              		.weak	_ZN6stmlib3Svf4InitEv
 830              		.syntax unified
 831              		.thumb
 832              		.thumb_func
 834              	_ZN6stmlib3Svf4InitEv:
 835              	.LVL64:
 836              	.LFB1421:
 837              		.file 6 "eurorack/stmlib/dsp/filter.h"
   1:eurorack/stmlib/dsp/filter.h **** // Copyright 2014 Emilie Gillet.
   2:eurorack/stmlib/dsp/filter.h **** //
ARM GAS  /var/folders/9s/8rp0_f2s1n31qbztm3b5_fdh0000gn/T//ccQP8jK9.s 			page 27


   3:eurorack/stmlib/dsp/filter.h **** // Author: Emilie Gillet (emilie.o.gillet@gmail.com)
   4:eurorack/stmlib/dsp/filter.h **** //
   5:eurorack/stmlib/dsp/filter.h **** // Permission is hereby granted, free of charge, to any person obtaining a copy
   6:eurorack/stmlib/dsp/filter.h **** // of this software and associated documentation files (the "Software"), to deal
   7:eurorack/stmlib/dsp/filter.h **** // in the Software without restriction, including without limitation the rights
   8:eurorack/stmlib/dsp/filter.h **** // to use, copy, modify, merge, publish, distribute, sublicense, and/or sell
   9:eurorack/stmlib/dsp/filter.h **** // copies of the Software, and to permit persons to whom the Software is
  10:eurorack/stmlib/dsp/filter.h **** // furnished to do so, subject to the following conditions:
  11:eurorack/stmlib/dsp/filter.h **** // 
  12:eurorack/stmlib/dsp/filter.h **** // The above copyright notice and this permission notice shall be included in
  13:eurorack/stmlib/dsp/filter.h **** // all copies or substantial portions of the Software.
  14:eurorack/stmlib/dsp/filter.h **** // 
  15:eurorack/stmlib/dsp/filter.h **** // THE SOFTWARE IS PROVIDED "AS IS", WITHOUT WARRANTY OF ANY KIND, EXPRESS OR
  16:eurorack/stmlib/dsp/filter.h **** // IMPLIED, INCLUDING BUT NOT LIMITED TO THE WARRANTIES OF MERCHANTABILITY,
  17:eurorack/stmlib/dsp/filter.h **** // FITNESS FOR A PARTICULAR PURPOSE AND NONINFRINGEMENT. IN NO EVENT SHALL THE
  18:eurorack/stmlib/dsp/filter.h **** // AUTHORS OR COPYRIGHT HOLDERS BE LIABLE FOR ANY CLAIM, DAMAGES OR OTHER
  19:eurorack/stmlib/dsp/filter.h **** // LIABILITY, WHETHER IN AN ACTION OF CONTRACT, TORT OR OTHERWISE, ARISING FROM,
  20:eurorack/stmlib/dsp/filter.h **** // OUT OF OR IN CONNECTION WITH THE SOFTWARE OR THE USE OR OTHER DEALINGS IN
  21:eurorack/stmlib/dsp/filter.h **** // THE SOFTWARE.
  22:eurorack/stmlib/dsp/filter.h **** // 
  23:eurorack/stmlib/dsp/filter.h **** // See http://creativecommons.org/licenses/MIT/ for more information.
  24:eurorack/stmlib/dsp/filter.h **** //
  25:eurorack/stmlib/dsp/filter.h **** // -----------------------------------------------------------------------------
  26:eurorack/stmlib/dsp/filter.h **** //
  27:eurorack/stmlib/dsp/filter.h **** // Zero-delay-feedback filters (one pole and SVF).
  28:eurorack/stmlib/dsp/filter.h **** // Naive SVF.
  29:eurorack/stmlib/dsp/filter.h **** 
  30:eurorack/stmlib/dsp/filter.h **** #ifndef STMLIB_DSP_FILTER_H_
  31:eurorack/stmlib/dsp/filter.h **** #define STMLIB_DSP_FILTER_H_
  32:eurorack/stmlib/dsp/filter.h **** 
  33:eurorack/stmlib/dsp/filter.h **** #include "stmlib/stmlib.h"
  34:eurorack/stmlib/dsp/filter.h **** 
  35:eurorack/stmlib/dsp/filter.h **** #include <cmath>
  36:eurorack/stmlib/dsp/filter.h **** #include <algorithm>
  37:eurorack/stmlib/dsp/filter.h **** 
  38:eurorack/stmlib/dsp/filter.h **** namespace stmlib {
  39:eurorack/stmlib/dsp/filter.h **** 
  40:eurorack/stmlib/dsp/filter.h **** enum FilterMode {
  41:eurorack/stmlib/dsp/filter.h ****   FILTER_MODE_LOW_PASS,
  42:eurorack/stmlib/dsp/filter.h ****   FILTER_MODE_BAND_PASS,
  43:eurorack/stmlib/dsp/filter.h ****   FILTER_MODE_BAND_PASS_NORMALIZED,
  44:eurorack/stmlib/dsp/filter.h ****   FILTER_MODE_HIGH_PASS
  45:eurorack/stmlib/dsp/filter.h **** };
  46:eurorack/stmlib/dsp/filter.h **** 
  47:eurorack/stmlib/dsp/filter.h **** enum FrequencyApproximation {
  48:eurorack/stmlib/dsp/filter.h ****   FREQUENCY_EXACT,
  49:eurorack/stmlib/dsp/filter.h ****   FREQUENCY_ACCURATE,
  50:eurorack/stmlib/dsp/filter.h ****   FREQUENCY_FAST,
  51:eurorack/stmlib/dsp/filter.h ****   FREQUENCY_DIRTY
  52:eurorack/stmlib/dsp/filter.h **** };
  53:eurorack/stmlib/dsp/filter.h **** 
  54:eurorack/stmlib/dsp/filter.h **** #define M_PI_F float(M_PI)
  55:eurorack/stmlib/dsp/filter.h **** #define M_PI_POW_2 M_PI * M_PI
  56:eurorack/stmlib/dsp/filter.h **** #define M_PI_POW_3 M_PI_POW_2 * M_PI
  57:eurorack/stmlib/dsp/filter.h **** #define M_PI_POW_5 M_PI_POW_3 * M_PI_POW_2
  58:eurorack/stmlib/dsp/filter.h **** #define M_PI_POW_7 M_PI_POW_5 * M_PI_POW_2
  59:eurorack/stmlib/dsp/filter.h **** #define M_PI_POW_9 M_PI_POW_7 * M_PI_POW_2
ARM GAS  /var/folders/9s/8rp0_f2s1n31qbztm3b5_fdh0000gn/T//ccQP8jK9.s 			page 28


  60:eurorack/stmlib/dsp/filter.h **** #define M_PI_POW_11 M_PI_POW_9 * M_PI_POW_2
  61:eurorack/stmlib/dsp/filter.h **** 
  62:eurorack/stmlib/dsp/filter.h **** class DCBlocker {
  63:eurorack/stmlib/dsp/filter.h ****  public:
  64:eurorack/stmlib/dsp/filter.h ****   DCBlocker() { }
  65:eurorack/stmlib/dsp/filter.h ****   ~DCBlocker() { }
  66:eurorack/stmlib/dsp/filter.h ****   
  67:eurorack/stmlib/dsp/filter.h ****   void Init(float pole) {
  68:eurorack/stmlib/dsp/filter.h ****     x_ = 0.0f;
  69:eurorack/stmlib/dsp/filter.h ****     y_ = 0.0f;
  70:eurorack/stmlib/dsp/filter.h ****     pole_ = pole;
  71:eurorack/stmlib/dsp/filter.h ****   }
  72:eurorack/stmlib/dsp/filter.h ****   
  73:eurorack/stmlib/dsp/filter.h ****   inline void Process(float* in_out, size_t size) {
  74:eurorack/stmlib/dsp/filter.h ****     float x = x_;
  75:eurorack/stmlib/dsp/filter.h ****     float y = y_;
  76:eurorack/stmlib/dsp/filter.h ****     const float pole = pole_;
  77:eurorack/stmlib/dsp/filter.h ****     while (size--) {
  78:eurorack/stmlib/dsp/filter.h ****       float old_x = x;
  79:eurorack/stmlib/dsp/filter.h ****       x = *in_out;
  80:eurorack/stmlib/dsp/filter.h ****       *in_out++ = y = y * pole + x - old_x;
  81:eurorack/stmlib/dsp/filter.h ****     }
  82:eurorack/stmlib/dsp/filter.h ****     x_ = x;
  83:eurorack/stmlib/dsp/filter.h ****     y_ = y;
  84:eurorack/stmlib/dsp/filter.h ****   }
  85:eurorack/stmlib/dsp/filter.h ****   
  86:eurorack/stmlib/dsp/filter.h ****  private:
  87:eurorack/stmlib/dsp/filter.h ****   float pole_;
  88:eurorack/stmlib/dsp/filter.h ****   float x_;
  89:eurorack/stmlib/dsp/filter.h ****   float y_;
  90:eurorack/stmlib/dsp/filter.h **** };
  91:eurorack/stmlib/dsp/filter.h **** 
  92:eurorack/stmlib/dsp/filter.h **** class OnePole {
  93:eurorack/stmlib/dsp/filter.h ****  public:
  94:eurorack/stmlib/dsp/filter.h ****   OnePole() { }
  95:eurorack/stmlib/dsp/filter.h ****   ~OnePole() { }
  96:eurorack/stmlib/dsp/filter.h ****   
  97:eurorack/stmlib/dsp/filter.h ****   void Init() {
  98:eurorack/stmlib/dsp/filter.h ****     set_f<FREQUENCY_DIRTY>(0.01f);
  99:eurorack/stmlib/dsp/filter.h ****     Reset();
 100:eurorack/stmlib/dsp/filter.h ****   }
 101:eurorack/stmlib/dsp/filter.h ****   
 102:eurorack/stmlib/dsp/filter.h ****   void Reset() {
 103:eurorack/stmlib/dsp/filter.h ****     state_ = 0.0f;
 104:eurorack/stmlib/dsp/filter.h ****   }
 105:eurorack/stmlib/dsp/filter.h ****   
 106:eurorack/stmlib/dsp/filter.h ****   template<FrequencyApproximation approximation>
 107:eurorack/stmlib/dsp/filter.h ****   static inline float tan(float f) {
 108:eurorack/stmlib/dsp/filter.h ****     if (approximation == FREQUENCY_EXACT) {
 109:eurorack/stmlib/dsp/filter.h ****       // Clip coefficient to about 100.
 110:eurorack/stmlib/dsp/filter.h ****       f = f < 0.497f ? f : 0.497f;
 111:eurorack/stmlib/dsp/filter.h ****       return tanf(M_PI_F * f);
 112:eurorack/stmlib/dsp/filter.h ****     } else if (approximation == FREQUENCY_DIRTY) {
 113:eurorack/stmlib/dsp/filter.h ****       // Optimized for frequencies below 8kHz.
 114:eurorack/stmlib/dsp/filter.h ****       const float a = 3.736e-01f * M_PI_POW_3;
 115:eurorack/stmlib/dsp/filter.h ****       return f * (M_PI_F + a * f * f);
 116:eurorack/stmlib/dsp/filter.h ****     } else if (approximation == FREQUENCY_FAST) {
ARM GAS  /var/folders/9s/8rp0_f2s1n31qbztm3b5_fdh0000gn/T//ccQP8jK9.s 			page 29


 117:eurorack/stmlib/dsp/filter.h ****       // The usual tangent approximation uses 3.1755e-01 and 2.033e-01, but
 118:eurorack/stmlib/dsp/filter.h ****       // the coefficients used here are optimized to minimize error for the
 119:eurorack/stmlib/dsp/filter.h ****       // 16Hz to 16kHz range, with a sample rate of 48kHz.
 120:eurorack/stmlib/dsp/filter.h ****       const float a = 3.260e-01f * M_PI_POW_3;
 121:eurorack/stmlib/dsp/filter.h ****       const float b = 1.823e-01f * M_PI_POW_5;
 122:eurorack/stmlib/dsp/filter.h ****       float f2 = f * f;
 123:eurorack/stmlib/dsp/filter.h ****       return f * (M_PI_F + f2 * (a + b * f2));
 124:eurorack/stmlib/dsp/filter.h ****     } else if (approximation == FREQUENCY_ACCURATE) {
 125:eurorack/stmlib/dsp/filter.h ****       // These coefficients don't need to be tweaked for the audio range.
 126:eurorack/stmlib/dsp/filter.h ****       const float a = 3.333314036e-01f * M_PI_POW_3;
 127:eurorack/stmlib/dsp/filter.h ****       const float b = 1.333923995e-01f * M_PI_POW_5;
 128:eurorack/stmlib/dsp/filter.h ****       const float c = 5.33740603e-02f * M_PI_POW_7;
 129:eurorack/stmlib/dsp/filter.h ****       const float d = 2.900525e-03f * M_PI_POW_9;
 130:eurorack/stmlib/dsp/filter.h ****       const float e = 9.5168091e-03f * M_PI_POW_11;
 131:eurorack/stmlib/dsp/filter.h ****       float f2 = f * f;
 132:eurorack/stmlib/dsp/filter.h ****       return f * (M_PI_F + f2 * (a + f2 * (b + f2 * (c + f2 * (d + f2 * e)))));
 133:eurorack/stmlib/dsp/filter.h ****     }
 134:eurorack/stmlib/dsp/filter.h ****   }
 135:eurorack/stmlib/dsp/filter.h ****   
 136:eurorack/stmlib/dsp/filter.h ****   // Set frequency and resonance from true units. Various approximations
 137:eurorack/stmlib/dsp/filter.h ****   // are available to avoid the cost of tanf.
 138:eurorack/stmlib/dsp/filter.h ****   template<FrequencyApproximation approximation>
 139:eurorack/stmlib/dsp/filter.h ****   inline void set_f(float f) {
 140:eurorack/stmlib/dsp/filter.h ****     g_ = tan<approximation>(f);
 141:eurorack/stmlib/dsp/filter.h ****     gi_ = 1.0f / (1.0f + g_);
 142:eurorack/stmlib/dsp/filter.h ****   }
 143:eurorack/stmlib/dsp/filter.h ****   
 144:eurorack/stmlib/dsp/filter.h ****   template<FilterMode mode>
 145:eurorack/stmlib/dsp/filter.h ****   inline float Process(float in) {
 146:eurorack/stmlib/dsp/filter.h ****     float lp;
 147:eurorack/stmlib/dsp/filter.h ****     lp = (g_ * in + state_) * gi_;
 148:eurorack/stmlib/dsp/filter.h ****     state_ = g_ * (in - lp) + lp;
 149:eurorack/stmlib/dsp/filter.h **** 
 150:eurorack/stmlib/dsp/filter.h ****     if (mode == FILTER_MODE_LOW_PASS) {
 151:eurorack/stmlib/dsp/filter.h ****       return lp;
 152:eurorack/stmlib/dsp/filter.h ****     } else if (mode == FILTER_MODE_HIGH_PASS) {
 153:eurorack/stmlib/dsp/filter.h ****       return in - lp;
 154:eurorack/stmlib/dsp/filter.h ****     } else {
 155:eurorack/stmlib/dsp/filter.h ****       return 0.0f;
 156:eurorack/stmlib/dsp/filter.h ****     }
 157:eurorack/stmlib/dsp/filter.h ****   }
 158:eurorack/stmlib/dsp/filter.h ****   
 159:eurorack/stmlib/dsp/filter.h ****   template<FilterMode mode>
 160:eurorack/stmlib/dsp/filter.h ****   inline void Process(float* in_out, size_t size) {
 161:eurorack/stmlib/dsp/filter.h ****     while (size--) {
 162:eurorack/stmlib/dsp/filter.h ****       *in_out = Process<mode>(*in_out);
 163:eurorack/stmlib/dsp/filter.h ****       ++in_out;
 164:eurorack/stmlib/dsp/filter.h ****     }
 165:eurorack/stmlib/dsp/filter.h ****   }
 166:eurorack/stmlib/dsp/filter.h ****   
 167:eurorack/stmlib/dsp/filter.h ****  private:
 168:eurorack/stmlib/dsp/filter.h ****   float g_;
 169:eurorack/stmlib/dsp/filter.h ****   float gi_;
 170:eurorack/stmlib/dsp/filter.h ****   float state_;
 171:eurorack/stmlib/dsp/filter.h ****   
 172:eurorack/stmlib/dsp/filter.h ****   DISALLOW_COPY_AND_ASSIGN(OnePole);
 173:eurorack/stmlib/dsp/filter.h **** };
ARM GAS  /var/folders/9s/8rp0_f2s1n31qbztm3b5_fdh0000gn/T//ccQP8jK9.s 			page 30


 174:eurorack/stmlib/dsp/filter.h **** 
 175:eurorack/stmlib/dsp/filter.h **** 
 176:eurorack/stmlib/dsp/filter.h **** 
 177:eurorack/stmlib/dsp/filter.h **** class Svf {
 178:eurorack/stmlib/dsp/filter.h ****  public:
 179:eurorack/stmlib/dsp/filter.h ****   Svf() { }
 180:eurorack/stmlib/dsp/filter.h ****   ~Svf() { }
 181:eurorack/stmlib/dsp/filter.h ****   
 182:eurorack/stmlib/dsp/filter.h ****   void Init() {
 838              		.loc 6 182 8 is_stmt 1 view -0
 839              		.cfi_startproc
 840              		@ args = 0, pretend = 0, frame = 0
 841              		@ frame_needed = 0, uses_anonymous_args = 0
 842              		@ link register save eliminated.
 183:eurorack/stmlib/dsp/filter.h ****     set_f_q<FREQUENCY_DIRTY>(0.01f, 100.0f);
 843              		.loc 6 183 5 view .LVU210
 844              	.LBB368:
 845              	.LBI368:
 184:eurorack/stmlib/dsp/filter.h ****     Reset();
 185:eurorack/stmlib/dsp/filter.h ****   }
 186:eurorack/stmlib/dsp/filter.h ****   
 187:eurorack/stmlib/dsp/filter.h ****   void Reset() {
 188:eurorack/stmlib/dsp/filter.h ****     state_1_ = state_2_ = 0.0f;
 189:eurorack/stmlib/dsp/filter.h ****   }
 190:eurorack/stmlib/dsp/filter.h ****   
 191:eurorack/stmlib/dsp/filter.h ****   // Copy settings from another filter.
 192:eurorack/stmlib/dsp/filter.h ****   inline void set(const Svf& f) {
 193:eurorack/stmlib/dsp/filter.h ****     g_ = f.g();
 194:eurorack/stmlib/dsp/filter.h ****     r_ = f.r();
 195:eurorack/stmlib/dsp/filter.h ****     h_ = f.h();
 196:eurorack/stmlib/dsp/filter.h ****   }
 197:eurorack/stmlib/dsp/filter.h **** 
 198:eurorack/stmlib/dsp/filter.h ****   // Set all parameters from LUT.
 199:eurorack/stmlib/dsp/filter.h ****   inline void set_g_r_h(float g, float r, float h) {
 200:eurorack/stmlib/dsp/filter.h ****     g_ = g;
 201:eurorack/stmlib/dsp/filter.h ****     r_ = r;
 202:eurorack/stmlib/dsp/filter.h ****     h_ = h;
 203:eurorack/stmlib/dsp/filter.h ****   }
 204:eurorack/stmlib/dsp/filter.h ****   
 205:eurorack/stmlib/dsp/filter.h ****   // Set frequency and resonance coefficients from LUT, adjust remaining
 206:eurorack/stmlib/dsp/filter.h ****   // parameter.
 207:eurorack/stmlib/dsp/filter.h ****   inline void set_g_r(float g, float r) {
 208:eurorack/stmlib/dsp/filter.h ****     g_ = g;
 209:eurorack/stmlib/dsp/filter.h ****     r_ = r;
 210:eurorack/stmlib/dsp/filter.h ****     h_ = 1.0f / (1.0f + r_ * g_ + g_ * g_);
 211:eurorack/stmlib/dsp/filter.h ****   }
 212:eurorack/stmlib/dsp/filter.h **** 
 213:eurorack/stmlib/dsp/filter.h ****   // Set frequency from LUT, resonance in true units, adjust the rest.
 214:eurorack/stmlib/dsp/filter.h ****   inline void set_g_q(float g, float resonance) {
 215:eurorack/stmlib/dsp/filter.h ****     g_ = g;
 216:eurorack/stmlib/dsp/filter.h ****     r_ = 1.0f / resonance;
 217:eurorack/stmlib/dsp/filter.h ****     h_ = 1.0f / (1.0f + r_ * g_ + g_ * g_);
 218:eurorack/stmlib/dsp/filter.h ****   }
 219:eurorack/stmlib/dsp/filter.h **** 
 220:eurorack/stmlib/dsp/filter.h ****   // Set frequency and resonance from true units. Various approximations
 221:eurorack/stmlib/dsp/filter.h ****   // are available to avoid the cost of tanf.
 222:eurorack/stmlib/dsp/filter.h ****   template<FrequencyApproximation approximation>
ARM GAS  /var/folders/9s/8rp0_f2s1n31qbztm3b5_fdh0000gn/T//ccQP8jK9.s 			page 31


 223:eurorack/stmlib/dsp/filter.h ****   inline void set_f_q(float f, float resonance) {
 846              		.loc 6 223 15 view .LVU211
 847              	.LBB369:
 224:eurorack/stmlib/dsp/filter.h ****     g_ = OnePole::tan<approximation>(f);
 848              		.loc 6 224 8 is_stmt 0 view .LVU212
 849 0000 044B     		ldr	r3, .L38
 850 0002 0360     		str	r3, [r0]	@ float
 225:eurorack/stmlib/dsp/filter.h ****     r_ = 1.0f / resonance;
 851              		.loc 6 225 8 view .LVU213
 852 0004 044B     		ldr	r3, .L38+4
 853 0006 4360     		str	r3, [r0, #4]	@ float
 226:eurorack/stmlib/dsp/filter.h ****     h_ = 1.0f / (1.0f + r_ * g_ + g_ * g_);
 854              		.loc 6 226 8 view .LVU214
 855 0008 044B     		ldr	r3, .L38+8
 856 000a 8360     		str	r3, [r0, #8]	@ float
 857              	.LVL65:
 858              		.loc 6 226 8 view .LVU215
 859              	.LBE369:
 860              	.LBE368:
 184:eurorack/stmlib/dsp/filter.h ****   }
 861              		.loc 6 184 5 is_stmt 1 view .LVU216
 862              	.LBB370:
 863              	.LBI370:
 187:eurorack/stmlib/dsp/filter.h ****     state_1_ = state_2_ = 0.0f;
 864              		.loc 6 187 8 view .LVU217
 865              	.LBB371:
 188:eurorack/stmlib/dsp/filter.h ****   }
 866              		.loc 6 188 5 view .LVU218
 188:eurorack/stmlib/dsp/filter.h ****   }
 867              		.loc 6 188 25 is_stmt 0 view .LVU219
 868 000c 0023     		movs	r3, #0
 869 000e 0361     		str	r3, [r0, #16]	@ float
 188:eurorack/stmlib/dsp/filter.h ****   }
 870              		.loc 6 188 14 view .LVU220
 871 0010 C360     		str	r3, [r0, #12]	@ float
 872              	.LVL66:
 188:eurorack/stmlib/dsp/filter.h ****   }
 873              		.loc 6 188 14 view .LVU221
 874              	.LBE371:
 875              	.LBE370:
 185:eurorack/stmlib/dsp/filter.h ****   
 876              		.loc 6 185 3 view .LVU222
 877 0012 7047     		bx	lr
 878              	.L39:
 879              		.align	2
 880              	.L38:
 881 0014 22BA003D 		.word	1023457826
 882 0018 0AD7233C 		.word	1008981770
 883 001c CAAA7F3F 		.word	1065331402
 884              		.cfi_endproc
 885              	.LFE1421:
 887              		.section	.text._ZN6plaits11HiHatEngine4InitEPN6stmlib15BufferAllocatorE,"ax",%progbits
 888              		.align	1
 889              		.global	_ZN6plaits11HiHatEngine4InitEPN6stmlib15BufferAllocatorE
 890              		.syntax unified
 891              		.thumb
 892              		.thumb_func
ARM GAS  /var/folders/9s/8rp0_f2s1n31qbztm3b5_fdh0000gn/T//ccQP8jK9.s 			page 32


 894              	_ZN6plaits11HiHatEngine4InitEPN6stmlib15BufferAllocatorE:
 895              	.LVL67:
 896              	.LFB1569:
  36:eurorack/plaits/dsp/engine/hi_hat_engine.cc ****   hi_hat_1_.Init();
 897              		.loc 1 36 52 is_stmt 1 view -0
 898              		.cfi_startproc
 899              		@ args = 0, pretend = 0, frame = 0
 900              		@ frame_needed = 0, uses_anonymous_args = 0
  37:eurorack/plaits/dsp/engine/hi_hat_engine.cc ****   hi_hat_2_.Init();
 901              		.loc 1 37 3 view .LVU224
 902              	.LBB396:
 903              	.LBI396:
 142:eurorack/plaits/dsp/drums/hi_hat.h ****   Oscillator oscillator_[6];
 143:eurorack/plaits/dsp/drums/hi_hat.h ****   
 144:eurorack/plaits/dsp/drums/hi_hat.h ****   DISALLOW_COPY_AND_ASSIGN(RingModNoise);
 145:eurorack/plaits/dsp/drums/hi_hat.h **** };
 146:eurorack/plaits/dsp/drums/hi_hat.h **** 
 147:eurorack/plaits/dsp/drums/hi_hat.h **** class SwingVCA {
 148:eurorack/plaits/dsp/drums/hi_hat.h ****  public:
 149:eurorack/plaits/dsp/drums/hi_hat.h ****   float operator()(float s, float gain) {
 150:eurorack/plaits/dsp/drums/hi_hat.h ****    s *= s > 0.0f ? 10.0f : 0.1f;
 151:eurorack/plaits/dsp/drums/hi_hat.h ****    s = s / (1.0f + fabsf(s));
 152:eurorack/plaits/dsp/drums/hi_hat.h ****    return (s + 1.0f) * gain;
 153:eurorack/plaits/dsp/drums/hi_hat.h ****   }
 154:eurorack/plaits/dsp/drums/hi_hat.h **** };
 155:eurorack/plaits/dsp/drums/hi_hat.h **** 
 156:eurorack/plaits/dsp/drums/hi_hat.h **** class LinearVCA {
 157:eurorack/plaits/dsp/drums/hi_hat.h ****  public:
 158:eurorack/plaits/dsp/drums/hi_hat.h ****   float operator()(float s, float gain) {
 159:eurorack/plaits/dsp/drums/hi_hat.h ****    return s * gain;
 160:eurorack/plaits/dsp/drums/hi_hat.h ****   }
 161:eurorack/plaits/dsp/drums/hi_hat.h **** };
 162:eurorack/plaits/dsp/drums/hi_hat.h **** 
 163:eurorack/plaits/dsp/drums/hi_hat.h **** template<typename MetallicNoiseSource, typename VCA, bool resonance>
 164:eurorack/plaits/dsp/drums/hi_hat.h **** class HiHat {
 165:eurorack/plaits/dsp/drums/hi_hat.h ****  public:
 166:eurorack/plaits/dsp/drums/hi_hat.h ****   HiHat() { }
 167:eurorack/plaits/dsp/drums/hi_hat.h ****   ~HiHat() { }
 168:eurorack/plaits/dsp/drums/hi_hat.h **** 
 169:eurorack/plaits/dsp/drums/hi_hat.h ****   void Init() {
 904              		.loc 2 169 8 view .LVU225
 905              	.LBE396:
  36:eurorack/plaits/dsp/engine/hi_hat_engine.cc ****   hi_hat_1_.Init();
 906              		.loc 1 36 52 is_stmt 0 view .LVU226
 907 0000 70B5     		push	{r4, r5, r6, lr}
 908              		.cfi_def_cfa_offset 16
 909              		.cfi_offset 4, -16
 910              		.cfi_offset 5, -12
 911              		.cfi_offset 6, -8
 912              		.cfi_offset 14, -4
 913              	.LBB424:
 914              	.LBB397:
 170:eurorack/plaits/dsp/drums/hi_hat.h ****     envelope_ = 0.0f;
 915              		.loc 2 170 15 view .LVU227
 916 0002 0026     		movs	r6, #0
 917              	.LBE397:
 918              	.LBE424:
ARM GAS  /var/folders/9s/8rp0_f2s1n31qbztm3b5_fdh0000gn/T//ccQP8jK9.s 			page 33


  36:eurorack/plaits/dsp/engine/hi_hat_engine.cc ****   hi_hat_1_.Init();
 919              		.loc 1 36 52 view .LVU228
 920 0004 0446     		mov	r4, r0
 921              	.LBB425:
 922              	.LBB422:
 923              	.LBB398:
 924              	.LBB399:
 925              	.LBB400:
 926              	.LBB401:
 927              	.LBB402:
 928              	.LBB403:
 929              		.file 7 "/Library/DaisyToolchain/0.2.0/arm/arm-none-eabi/include/c++/10.3.1/bits/stl_algobase.h"
   1:/Library/DaisyToolchain/0.2.0/arm/arm-none-eabi/include/c++/10.3.1/bits/stl_algobase.h **** // Core algorithmic facilities -*- C++ -*-
   2:/Library/DaisyToolchain/0.2.0/arm/arm-none-eabi/include/c++/10.3.1/bits/stl_algobase.h **** 
   3:/Library/DaisyToolchain/0.2.0/arm/arm-none-eabi/include/c++/10.3.1/bits/stl_algobase.h **** // Copyright (C) 2001-2020 Free Software Foundation, Inc.
   4:/Library/DaisyToolchain/0.2.0/arm/arm-none-eabi/include/c++/10.3.1/bits/stl_algobase.h **** //
   5:/Library/DaisyToolchain/0.2.0/arm/arm-none-eabi/include/c++/10.3.1/bits/stl_algobase.h **** // This file is part of the GNU ISO C++ Library.  This library is free
   6:/Library/DaisyToolchain/0.2.0/arm/arm-none-eabi/include/c++/10.3.1/bits/stl_algobase.h **** // software; you can redistribute it and/or modify it under the
   7:/Library/DaisyToolchain/0.2.0/arm/arm-none-eabi/include/c++/10.3.1/bits/stl_algobase.h **** // terms of the GNU General Public License as published by the
   8:/Library/DaisyToolchain/0.2.0/arm/arm-none-eabi/include/c++/10.3.1/bits/stl_algobase.h **** // Free Software Foundation; either version 3, or (at your option)
   9:/Library/DaisyToolchain/0.2.0/arm/arm-none-eabi/include/c++/10.3.1/bits/stl_algobase.h **** // any later version.
  10:/Library/DaisyToolchain/0.2.0/arm/arm-none-eabi/include/c++/10.3.1/bits/stl_algobase.h **** 
  11:/Library/DaisyToolchain/0.2.0/arm/arm-none-eabi/include/c++/10.3.1/bits/stl_algobase.h **** // This library is distributed in the hope that it will be useful,
  12:/Library/DaisyToolchain/0.2.0/arm/arm-none-eabi/include/c++/10.3.1/bits/stl_algobase.h **** // but WITHOUT ANY WARRANTY; without even the implied warranty of
  13:/Library/DaisyToolchain/0.2.0/arm/arm-none-eabi/include/c++/10.3.1/bits/stl_algobase.h **** // MERCHANTABILITY or FITNESS FOR A PARTICULAR PURPOSE.  See the
  14:/Library/DaisyToolchain/0.2.0/arm/arm-none-eabi/include/c++/10.3.1/bits/stl_algobase.h **** // GNU General Public License for more details.
  15:/Library/DaisyToolchain/0.2.0/arm/arm-none-eabi/include/c++/10.3.1/bits/stl_algobase.h **** 
  16:/Library/DaisyToolchain/0.2.0/arm/arm-none-eabi/include/c++/10.3.1/bits/stl_algobase.h **** // Under Section 7 of GPL version 3, you are granted additional
  17:/Library/DaisyToolchain/0.2.0/arm/arm-none-eabi/include/c++/10.3.1/bits/stl_algobase.h **** // permissions described in the GCC Runtime Library Exception, version
  18:/Library/DaisyToolchain/0.2.0/arm/arm-none-eabi/include/c++/10.3.1/bits/stl_algobase.h **** // 3.1, as published by the Free Software Foundation.
  19:/Library/DaisyToolchain/0.2.0/arm/arm-none-eabi/include/c++/10.3.1/bits/stl_algobase.h **** 
  20:/Library/DaisyToolchain/0.2.0/arm/arm-none-eabi/include/c++/10.3.1/bits/stl_algobase.h **** // You should have received a copy of the GNU General Public License and
  21:/Library/DaisyToolchain/0.2.0/arm/arm-none-eabi/include/c++/10.3.1/bits/stl_algobase.h **** // a copy of the GCC Runtime Library Exception along with this program;
  22:/Library/DaisyToolchain/0.2.0/arm/arm-none-eabi/include/c++/10.3.1/bits/stl_algobase.h **** // see the files COPYING3 and COPYING.RUNTIME respectively.  If not, see
  23:/Library/DaisyToolchain/0.2.0/arm/arm-none-eabi/include/c++/10.3.1/bits/stl_algobase.h **** // <http://www.gnu.org/licenses/>.
  24:/Library/DaisyToolchain/0.2.0/arm/arm-none-eabi/include/c++/10.3.1/bits/stl_algobase.h **** 
  25:/Library/DaisyToolchain/0.2.0/arm/arm-none-eabi/include/c++/10.3.1/bits/stl_algobase.h **** /*
  26:/Library/DaisyToolchain/0.2.0/arm/arm-none-eabi/include/c++/10.3.1/bits/stl_algobase.h ****  *
  27:/Library/DaisyToolchain/0.2.0/arm/arm-none-eabi/include/c++/10.3.1/bits/stl_algobase.h ****  * Copyright (c) 1994
  28:/Library/DaisyToolchain/0.2.0/arm/arm-none-eabi/include/c++/10.3.1/bits/stl_algobase.h ****  * Hewlett-Packard Company
  29:/Library/DaisyToolchain/0.2.0/arm/arm-none-eabi/include/c++/10.3.1/bits/stl_algobase.h ****  *
  30:/Library/DaisyToolchain/0.2.0/arm/arm-none-eabi/include/c++/10.3.1/bits/stl_algobase.h ****  * Permission to use, copy, modify, distribute and sell this software
  31:/Library/DaisyToolchain/0.2.0/arm/arm-none-eabi/include/c++/10.3.1/bits/stl_algobase.h ****  * and its documentation for any purpose is hereby granted without fee,
  32:/Library/DaisyToolchain/0.2.0/arm/arm-none-eabi/include/c++/10.3.1/bits/stl_algobase.h ****  * provided that the above copyright notice appear in all copies and
  33:/Library/DaisyToolchain/0.2.0/arm/arm-none-eabi/include/c++/10.3.1/bits/stl_algobase.h ****  * that both that copyright notice and this permission notice appear
  34:/Library/DaisyToolchain/0.2.0/arm/arm-none-eabi/include/c++/10.3.1/bits/stl_algobase.h ****  * in supporting documentation.  Hewlett-Packard Company makes no
  35:/Library/DaisyToolchain/0.2.0/arm/arm-none-eabi/include/c++/10.3.1/bits/stl_algobase.h ****  * representations about the suitability of this software for any
  36:/Library/DaisyToolchain/0.2.0/arm/arm-none-eabi/include/c++/10.3.1/bits/stl_algobase.h ****  * purpose.  It is provided "as is" without express or implied warranty.
  37:/Library/DaisyToolchain/0.2.0/arm/arm-none-eabi/include/c++/10.3.1/bits/stl_algobase.h ****  *
  38:/Library/DaisyToolchain/0.2.0/arm/arm-none-eabi/include/c++/10.3.1/bits/stl_algobase.h ****  *
  39:/Library/DaisyToolchain/0.2.0/arm/arm-none-eabi/include/c++/10.3.1/bits/stl_algobase.h ****  * Copyright (c) 1996-1998
  40:/Library/DaisyToolchain/0.2.0/arm/arm-none-eabi/include/c++/10.3.1/bits/stl_algobase.h ****  * Silicon Graphics Computer Systems, Inc.
  41:/Library/DaisyToolchain/0.2.0/arm/arm-none-eabi/include/c++/10.3.1/bits/stl_algobase.h ****  *
  42:/Library/DaisyToolchain/0.2.0/arm/arm-none-eabi/include/c++/10.3.1/bits/stl_algobase.h ****  * Permission to use, copy, modify, distribute and sell this software
  43:/Library/DaisyToolchain/0.2.0/arm/arm-none-eabi/include/c++/10.3.1/bits/stl_algobase.h ****  * and its documentation for any purpose is hereby granted without fee,
  44:/Library/DaisyToolchain/0.2.0/arm/arm-none-eabi/include/c++/10.3.1/bits/stl_algobase.h ****  * provided that the above copyright notice appear in all copies and
  45:/Library/DaisyToolchain/0.2.0/arm/arm-none-eabi/include/c++/10.3.1/bits/stl_algobase.h ****  * that both that copyright notice and this permission notice appear
ARM GAS  /var/folders/9s/8rp0_f2s1n31qbztm3b5_fdh0000gn/T//ccQP8jK9.s 			page 34


  46:/Library/DaisyToolchain/0.2.0/arm/arm-none-eabi/include/c++/10.3.1/bits/stl_algobase.h ****  * in supporting documentation.  Silicon Graphics makes no
  47:/Library/DaisyToolchain/0.2.0/arm/arm-none-eabi/include/c++/10.3.1/bits/stl_algobase.h ****  * representations about the suitability of this software for any
  48:/Library/DaisyToolchain/0.2.0/arm/arm-none-eabi/include/c++/10.3.1/bits/stl_algobase.h ****  * purpose.  It is provided "as is" without express or implied warranty.
  49:/Library/DaisyToolchain/0.2.0/arm/arm-none-eabi/include/c++/10.3.1/bits/stl_algobase.h ****  */
  50:/Library/DaisyToolchain/0.2.0/arm/arm-none-eabi/include/c++/10.3.1/bits/stl_algobase.h **** 
  51:/Library/DaisyToolchain/0.2.0/arm/arm-none-eabi/include/c++/10.3.1/bits/stl_algobase.h **** /** @file bits/stl_algobase.h
  52:/Library/DaisyToolchain/0.2.0/arm/arm-none-eabi/include/c++/10.3.1/bits/stl_algobase.h ****  *  This is an internal header file, included by other library headers.
  53:/Library/DaisyToolchain/0.2.0/arm/arm-none-eabi/include/c++/10.3.1/bits/stl_algobase.h ****  *  Do not attempt to use it directly. @headername{algorithm}
  54:/Library/DaisyToolchain/0.2.0/arm/arm-none-eabi/include/c++/10.3.1/bits/stl_algobase.h ****  */
  55:/Library/DaisyToolchain/0.2.0/arm/arm-none-eabi/include/c++/10.3.1/bits/stl_algobase.h **** 
  56:/Library/DaisyToolchain/0.2.0/arm/arm-none-eabi/include/c++/10.3.1/bits/stl_algobase.h **** #ifndef _STL_ALGOBASE_H
  57:/Library/DaisyToolchain/0.2.0/arm/arm-none-eabi/include/c++/10.3.1/bits/stl_algobase.h **** #define _STL_ALGOBASE_H 1
  58:/Library/DaisyToolchain/0.2.0/arm/arm-none-eabi/include/c++/10.3.1/bits/stl_algobase.h **** 
  59:/Library/DaisyToolchain/0.2.0/arm/arm-none-eabi/include/c++/10.3.1/bits/stl_algobase.h **** #include <bits/c++config.h>
  60:/Library/DaisyToolchain/0.2.0/arm/arm-none-eabi/include/c++/10.3.1/bits/stl_algobase.h **** #include <bits/functexcept.h>
  61:/Library/DaisyToolchain/0.2.0/arm/arm-none-eabi/include/c++/10.3.1/bits/stl_algobase.h **** #include <bits/cpp_type_traits.h>
  62:/Library/DaisyToolchain/0.2.0/arm/arm-none-eabi/include/c++/10.3.1/bits/stl_algobase.h **** #include <ext/type_traits.h>
  63:/Library/DaisyToolchain/0.2.0/arm/arm-none-eabi/include/c++/10.3.1/bits/stl_algobase.h **** #include <ext/numeric_traits.h>
  64:/Library/DaisyToolchain/0.2.0/arm/arm-none-eabi/include/c++/10.3.1/bits/stl_algobase.h **** #include <bits/stl_pair.h>
  65:/Library/DaisyToolchain/0.2.0/arm/arm-none-eabi/include/c++/10.3.1/bits/stl_algobase.h **** #include <bits/stl_iterator_base_types.h>
  66:/Library/DaisyToolchain/0.2.0/arm/arm-none-eabi/include/c++/10.3.1/bits/stl_algobase.h **** #include <bits/stl_iterator_base_funcs.h>
  67:/Library/DaisyToolchain/0.2.0/arm/arm-none-eabi/include/c++/10.3.1/bits/stl_algobase.h **** #include <bits/stl_iterator.h>
  68:/Library/DaisyToolchain/0.2.0/arm/arm-none-eabi/include/c++/10.3.1/bits/stl_algobase.h **** #include <bits/concept_check.h>
  69:/Library/DaisyToolchain/0.2.0/arm/arm-none-eabi/include/c++/10.3.1/bits/stl_algobase.h **** #include <debug/debug.h>
  70:/Library/DaisyToolchain/0.2.0/arm/arm-none-eabi/include/c++/10.3.1/bits/stl_algobase.h **** #include <bits/move.h> // For std::swap
  71:/Library/DaisyToolchain/0.2.0/arm/arm-none-eabi/include/c++/10.3.1/bits/stl_algobase.h **** #include <bits/predefined_ops.h>
  72:/Library/DaisyToolchain/0.2.0/arm/arm-none-eabi/include/c++/10.3.1/bits/stl_algobase.h **** #if __cplusplus >= 201103L
  73:/Library/DaisyToolchain/0.2.0/arm/arm-none-eabi/include/c++/10.3.1/bits/stl_algobase.h **** # include <type_traits>
  74:/Library/DaisyToolchain/0.2.0/arm/arm-none-eabi/include/c++/10.3.1/bits/stl_algobase.h **** #endif
  75:/Library/DaisyToolchain/0.2.0/arm/arm-none-eabi/include/c++/10.3.1/bits/stl_algobase.h **** #if __cplusplus > 201703L
  76:/Library/DaisyToolchain/0.2.0/arm/arm-none-eabi/include/c++/10.3.1/bits/stl_algobase.h **** # include <compare>
  77:/Library/DaisyToolchain/0.2.0/arm/arm-none-eabi/include/c++/10.3.1/bits/stl_algobase.h **** #endif
  78:/Library/DaisyToolchain/0.2.0/arm/arm-none-eabi/include/c++/10.3.1/bits/stl_algobase.h **** 
  79:/Library/DaisyToolchain/0.2.0/arm/arm-none-eabi/include/c++/10.3.1/bits/stl_algobase.h **** namespace std _GLIBCXX_VISIBILITY(default)
  80:/Library/DaisyToolchain/0.2.0/arm/arm-none-eabi/include/c++/10.3.1/bits/stl_algobase.h **** {
  81:/Library/DaisyToolchain/0.2.0/arm/arm-none-eabi/include/c++/10.3.1/bits/stl_algobase.h **** _GLIBCXX_BEGIN_NAMESPACE_VERSION
  82:/Library/DaisyToolchain/0.2.0/arm/arm-none-eabi/include/c++/10.3.1/bits/stl_algobase.h **** 
  83:/Library/DaisyToolchain/0.2.0/arm/arm-none-eabi/include/c++/10.3.1/bits/stl_algobase.h ****   /*
  84:/Library/DaisyToolchain/0.2.0/arm/arm-none-eabi/include/c++/10.3.1/bits/stl_algobase.h ****    * A constexpr wrapper for __builtin_memcmp.
  85:/Library/DaisyToolchain/0.2.0/arm/arm-none-eabi/include/c++/10.3.1/bits/stl_algobase.h ****    * @param __num The number of elements of type _Tp (not bytes).
  86:/Library/DaisyToolchain/0.2.0/arm/arm-none-eabi/include/c++/10.3.1/bits/stl_algobase.h ****    */
  87:/Library/DaisyToolchain/0.2.0/arm/arm-none-eabi/include/c++/10.3.1/bits/stl_algobase.h ****   template<typename _Tp, typename _Up>
  88:/Library/DaisyToolchain/0.2.0/arm/arm-none-eabi/include/c++/10.3.1/bits/stl_algobase.h ****     _GLIBCXX14_CONSTEXPR
  89:/Library/DaisyToolchain/0.2.0/arm/arm-none-eabi/include/c++/10.3.1/bits/stl_algobase.h ****     inline int
  90:/Library/DaisyToolchain/0.2.0/arm/arm-none-eabi/include/c++/10.3.1/bits/stl_algobase.h ****     __memcmp(const _Tp* __first1, const _Up* __first2, size_t __num)
  91:/Library/DaisyToolchain/0.2.0/arm/arm-none-eabi/include/c++/10.3.1/bits/stl_algobase.h ****     {
  92:/Library/DaisyToolchain/0.2.0/arm/arm-none-eabi/include/c++/10.3.1/bits/stl_algobase.h **** #if __cplusplus >= 201103L
  93:/Library/DaisyToolchain/0.2.0/arm/arm-none-eabi/include/c++/10.3.1/bits/stl_algobase.h ****       static_assert(sizeof(_Tp) == sizeof(_Up), "can be compared with memcmp");
  94:/Library/DaisyToolchain/0.2.0/arm/arm-none-eabi/include/c++/10.3.1/bits/stl_algobase.h **** #endif
  95:/Library/DaisyToolchain/0.2.0/arm/arm-none-eabi/include/c++/10.3.1/bits/stl_algobase.h **** #ifdef __cpp_lib_is_constant_evaluated
  96:/Library/DaisyToolchain/0.2.0/arm/arm-none-eabi/include/c++/10.3.1/bits/stl_algobase.h ****       if (std::is_constant_evaluated())
  97:/Library/DaisyToolchain/0.2.0/arm/arm-none-eabi/include/c++/10.3.1/bits/stl_algobase.h **** 	{
  98:/Library/DaisyToolchain/0.2.0/arm/arm-none-eabi/include/c++/10.3.1/bits/stl_algobase.h **** 	  for(; __num > 0; ++__first1, ++__first2, --__num)
  99:/Library/DaisyToolchain/0.2.0/arm/arm-none-eabi/include/c++/10.3.1/bits/stl_algobase.h **** 	    if (*__first1 != *__first2)
 100:/Library/DaisyToolchain/0.2.0/arm/arm-none-eabi/include/c++/10.3.1/bits/stl_algobase.h **** 	      return *__first1 < *__first2 ? -1 : 1;
 101:/Library/DaisyToolchain/0.2.0/arm/arm-none-eabi/include/c++/10.3.1/bits/stl_algobase.h **** 	  return 0;
 102:/Library/DaisyToolchain/0.2.0/arm/arm-none-eabi/include/c++/10.3.1/bits/stl_algobase.h **** 	}
ARM GAS  /var/folders/9s/8rp0_f2s1n31qbztm3b5_fdh0000gn/T//ccQP8jK9.s 			page 35


 103:/Library/DaisyToolchain/0.2.0/arm/arm-none-eabi/include/c++/10.3.1/bits/stl_algobase.h ****       else
 104:/Library/DaisyToolchain/0.2.0/arm/arm-none-eabi/include/c++/10.3.1/bits/stl_algobase.h **** #endif
 105:/Library/DaisyToolchain/0.2.0/arm/arm-none-eabi/include/c++/10.3.1/bits/stl_algobase.h **** 	return __builtin_memcmp(__first1, __first2, sizeof(_Tp) * __num);
 106:/Library/DaisyToolchain/0.2.0/arm/arm-none-eabi/include/c++/10.3.1/bits/stl_algobase.h ****     }
 107:/Library/DaisyToolchain/0.2.0/arm/arm-none-eabi/include/c++/10.3.1/bits/stl_algobase.h **** 
 108:/Library/DaisyToolchain/0.2.0/arm/arm-none-eabi/include/c++/10.3.1/bits/stl_algobase.h **** #if __cplusplus < 201103L
 109:/Library/DaisyToolchain/0.2.0/arm/arm-none-eabi/include/c++/10.3.1/bits/stl_algobase.h ****   // See http://gcc.gnu.org/ml/libstdc++/2004-08/msg00167.html: in a
 110:/Library/DaisyToolchain/0.2.0/arm/arm-none-eabi/include/c++/10.3.1/bits/stl_algobase.h ****   // nutshell, we are partially implementing the resolution of DR 187,
 111:/Library/DaisyToolchain/0.2.0/arm/arm-none-eabi/include/c++/10.3.1/bits/stl_algobase.h ****   // when it's safe, i.e., the value_types are equal.
 112:/Library/DaisyToolchain/0.2.0/arm/arm-none-eabi/include/c++/10.3.1/bits/stl_algobase.h ****   template<bool _BoolType>
 113:/Library/DaisyToolchain/0.2.0/arm/arm-none-eabi/include/c++/10.3.1/bits/stl_algobase.h ****     struct __iter_swap
 114:/Library/DaisyToolchain/0.2.0/arm/arm-none-eabi/include/c++/10.3.1/bits/stl_algobase.h ****     {
 115:/Library/DaisyToolchain/0.2.0/arm/arm-none-eabi/include/c++/10.3.1/bits/stl_algobase.h ****       template<typename _ForwardIterator1, typename _ForwardIterator2>
 116:/Library/DaisyToolchain/0.2.0/arm/arm-none-eabi/include/c++/10.3.1/bits/stl_algobase.h **** 	static void
 117:/Library/DaisyToolchain/0.2.0/arm/arm-none-eabi/include/c++/10.3.1/bits/stl_algobase.h **** 	iter_swap(_ForwardIterator1 __a, _ForwardIterator2 __b)
 118:/Library/DaisyToolchain/0.2.0/arm/arm-none-eabi/include/c++/10.3.1/bits/stl_algobase.h **** 	{
 119:/Library/DaisyToolchain/0.2.0/arm/arm-none-eabi/include/c++/10.3.1/bits/stl_algobase.h **** 	  typedef typename iterator_traits<_ForwardIterator1>::value_type
 120:/Library/DaisyToolchain/0.2.0/arm/arm-none-eabi/include/c++/10.3.1/bits/stl_algobase.h **** 	    _ValueType1;
 121:/Library/DaisyToolchain/0.2.0/arm/arm-none-eabi/include/c++/10.3.1/bits/stl_algobase.h **** 	  _ValueType1 __tmp = *__a;
 122:/Library/DaisyToolchain/0.2.0/arm/arm-none-eabi/include/c++/10.3.1/bits/stl_algobase.h **** 	  *__a = *__b;
 123:/Library/DaisyToolchain/0.2.0/arm/arm-none-eabi/include/c++/10.3.1/bits/stl_algobase.h **** 	  *__b = __tmp;
 124:/Library/DaisyToolchain/0.2.0/arm/arm-none-eabi/include/c++/10.3.1/bits/stl_algobase.h **** 	}
 125:/Library/DaisyToolchain/0.2.0/arm/arm-none-eabi/include/c++/10.3.1/bits/stl_algobase.h ****     };
 126:/Library/DaisyToolchain/0.2.0/arm/arm-none-eabi/include/c++/10.3.1/bits/stl_algobase.h **** 
 127:/Library/DaisyToolchain/0.2.0/arm/arm-none-eabi/include/c++/10.3.1/bits/stl_algobase.h ****   template<>
 128:/Library/DaisyToolchain/0.2.0/arm/arm-none-eabi/include/c++/10.3.1/bits/stl_algobase.h ****     struct __iter_swap<true>
 129:/Library/DaisyToolchain/0.2.0/arm/arm-none-eabi/include/c++/10.3.1/bits/stl_algobase.h ****     {
 130:/Library/DaisyToolchain/0.2.0/arm/arm-none-eabi/include/c++/10.3.1/bits/stl_algobase.h ****       template<typename _ForwardIterator1, typename _ForwardIterator2>
 131:/Library/DaisyToolchain/0.2.0/arm/arm-none-eabi/include/c++/10.3.1/bits/stl_algobase.h **** 	static void
 132:/Library/DaisyToolchain/0.2.0/arm/arm-none-eabi/include/c++/10.3.1/bits/stl_algobase.h **** 	iter_swap(_ForwardIterator1 __a, _ForwardIterator2 __b)
 133:/Library/DaisyToolchain/0.2.0/arm/arm-none-eabi/include/c++/10.3.1/bits/stl_algobase.h **** 	{
 134:/Library/DaisyToolchain/0.2.0/arm/arm-none-eabi/include/c++/10.3.1/bits/stl_algobase.h **** 	  swap(*__a, *__b);
 135:/Library/DaisyToolchain/0.2.0/arm/arm-none-eabi/include/c++/10.3.1/bits/stl_algobase.h **** 	}
 136:/Library/DaisyToolchain/0.2.0/arm/arm-none-eabi/include/c++/10.3.1/bits/stl_algobase.h ****     };
 137:/Library/DaisyToolchain/0.2.0/arm/arm-none-eabi/include/c++/10.3.1/bits/stl_algobase.h **** #endif // C++03
 138:/Library/DaisyToolchain/0.2.0/arm/arm-none-eabi/include/c++/10.3.1/bits/stl_algobase.h **** 
 139:/Library/DaisyToolchain/0.2.0/arm/arm-none-eabi/include/c++/10.3.1/bits/stl_algobase.h ****   /**
 140:/Library/DaisyToolchain/0.2.0/arm/arm-none-eabi/include/c++/10.3.1/bits/stl_algobase.h ****    *  @brief Swaps the contents of two iterators.
 141:/Library/DaisyToolchain/0.2.0/arm/arm-none-eabi/include/c++/10.3.1/bits/stl_algobase.h ****    *  @ingroup mutating_algorithms
 142:/Library/DaisyToolchain/0.2.0/arm/arm-none-eabi/include/c++/10.3.1/bits/stl_algobase.h ****    *  @param  __a  An iterator.
 143:/Library/DaisyToolchain/0.2.0/arm/arm-none-eabi/include/c++/10.3.1/bits/stl_algobase.h ****    *  @param  __b  Another iterator.
 144:/Library/DaisyToolchain/0.2.0/arm/arm-none-eabi/include/c++/10.3.1/bits/stl_algobase.h ****    *  @return   Nothing.
 145:/Library/DaisyToolchain/0.2.0/arm/arm-none-eabi/include/c++/10.3.1/bits/stl_algobase.h ****    *
 146:/Library/DaisyToolchain/0.2.0/arm/arm-none-eabi/include/c++/10.3.1/bits/stl_algobase.h ****    *  This function swaps the values pointed to by two iterators, not the
 147:/Library/DaisyToolchain/0.2.0/arm/arm-none-eabi/include/c++/10.3.1/bits/stl_algobase.h ****    *  iterators themselves.
 148:/Library/DaisyToolchain/0.2.0/arm/arm-none-eabi/include/c++/10.3.1/bits/stl_algobase.h ****   */
 149:/Library/DaisyToolchain/0.2.0/arm/arm-none-eabi/include/c++/10.3.1/bits/stl_algobase.h ****   template<typename _ForwardIterator1, typename _ForwardIterator2>
 150:/Library/DaisyToolchain/0.2.0/arm/arm-none-eabi/include/c++/10.3.1/bits/stl_algobase.h ****     _GLIBCXX20_CONSTEXPR
 151:/Library/DaisyToolchain/0.2.0/arm/arm-none-eabi/include/c++/10.3.1/bits/stl_algobase.h ****     inline void
 152:/Library/DaisyToolchain/0.2.0/arm/arm-none-eabi/include/c++/10.3.1/bits/stl_algobase.h ****     iter_swap(_ForwardIterator1 __a, _ForwardIterator2 __b)
 153:/Library/DaisyToolchain/0.2.0/arm/arm-none-eabi/include/c++/10.3.1/bits/stl_algobase.h ****     {
 154:/Library/DaisyToolchain/0.2.0/arm/arm-none-eabi/include/c++/10.3.1/bits/stl_algobase.h ****       // concept requirements
 155:/Library/DaisyToolchain/0.2.0/arm/arm-none-eabi/include/c++/10.3.1/bits/stl_algobase.h ****       __glibcxx_function_requires(_Mutable_ForwardIteratorConcept<
 156:/Library/DaisyToolchain/0.2.0/arm/arm-none-eabi/include/c++/10.3.1/bits/stl_algobase.h **** 				  _ForwardIterator1>)
 157:/Library/DaisyToolchain/0.2.0/arm/arm-none-eabi/include/c++/10.3.1/bits/stl_algobase.h ****       __glibcxx_function_requires(_Mutable_ForwardIteratorConcept<
 158:/Library/DaisyToolchain/0.2.0/arm/arm-none-eabi/include/c++/10.3.1/bits/stl_algobase.h **** 				  _ForwardIterator2>)
 159:/Library/DaisyToolchain/0.2.0/arm/arm-none-eabi/include/c++/10.3.1/bits/stl_algobase.h **** 
ARM GAS  /var/folders/9s/8rp0_f2s1n31qbztm3b5_fdh0000gn/T//ccQP8jK9.s 			page 36


 160:/Library/DaisyToolchain/0.2.0/arm/arm-none-eabi/include/c++/10.3.1/bits/stl_algobase.h **** #if __cplusplus < 201103L
 161:/Library/DaisyToolchain/0.2.0/arm/arm-none-eabi/include/c++/10.3.1/bits/stl_algobase.h ****       typedef typename iterator_traits<_ForwardIterator1>::value_type
 162:/Library/DaisyToolchain/0.2.0/arm/arm-none-eabi/include/c++/10.3.1/bits/stl_algobase.h **** 	_ValueType1;
 163:/Library/DaisyToolchain/0.2.0/arm/arm-none-eabi/include/c++/10.3.1/bits/stl_algobase.h ****       typedef typename iterator_traits<_ForwardIterator2>::value_type
 164:/Library/DaisyToolchain/0.2.0/arm/arm-none-eabi/include/c++/10.3.1/bits/stl_algobase.h **** 	_ValueType2;
 165:/Library/DaisyToolchain/0.2.0/arm/arm-none-eabi/include/c++/10.3.1/bits/stl_algobase.h **** 
 166:/Library/DaisyToolchain/0.2.0/arm/arm-none-eabi/include/c++/10.3.1/bits/stl_algobase.h ****       __glibcxx_function_requires(_ConvertibleConcept<_ValueType1,
 167:/Library/DaisyToolchain/0.2.0/arm/arm-none-eabi/include/c++/10.3.1/bits/stl_algobase.h **** 				  _ValueType2>)
 168:/Library/DaisyToolchain/0.2.0/arm/arm-none-eabi/include/c++/10.3.1/bits/stl_algobase.h ****       __glibcxx_function_requires(_ConvertibleConcept<_ValueType2,
 169:/Library/DaisyToolchain/0.2.0/arm/arm-none-eabi/include/c++/10.3.1/bits/stl_algobase.h **** 				  _ValueType1>)
 170:/Library/DaisyToolchain/0.2.0/arm/arm-none-eabi/include/c++/10.3.1/bits/stl_algobase.h **** 
 171:/Library/DaisyToolchain/0.2.0/arm/arm-none-eabi/include/c++/10.3.1/bits/stl_algobase.h ****       typedef typename iterator_traits<_ForwardIterator1>::reference
 172:/Library/DaisyToolchain/0.2.0/arm/arm-none-eabi/include/c++/10.3.1/bits/stl_algobase.h **** 	_ReferenceType1;
 173:/Library/DaisyToolchain/0.2.0/arm/arm-none-eabi/include/c++/10.3.1/bits/stl_algobase.h ****       typedef typename iterator_traits<_ForwardIterator2>::reference
 174:/Library/DaisyToolchain/0.2.0/arm/arm-none-eabi/include/c++/10.3.1/bits/stl_algobase.h **** 	_ReferenceType2;
 175:/Library/DaisyToolchain/0.2.0/arm/arm-none-eabi/include/c++/10.3.1/bits/stl_algobase.h ****       std::__iter_swap<__are_same<_ValueType1, _ValueType2>::__value
 176:/Library/DaisyToolchain/0.2.0/arm/arm-none-eabi/include/c++/10.3.1/bits/stl_algobase.h **** 	&& __are_same<_ValueType1&, _ReferenceType1>::__value
 177:/Library/DaisyToolchain/0.2.0/arm/arm-none-eabi/include/c++/10.3.1/bits/stl_algobase.h **** 	&& __are_same<_ValueType2&, _ReferenceType2>::__value>::
 178:/Library/DaisyToolchain/0.2.0/arm/arm-none-eabi/include/c++/10.3.1/bits/stl_algobase.h **** 	iter_swap(__a, __b);
 179:/Library/DaisyToolchain/0.2.0/arm/arm-none-eabi/include/c++/10.3.1/bits/stl_algobase.h **** #else
 180:/Library/DaisyToolchain/0.2.0/arm/arm-none-eabi/include/c++/10.3.1/bits/stl_algobase.h ****       // _GLIBCXX_RESOLVE_LIB_DEFECTS
 181:/Library/DaisyToolchain/0.2.0/arm/arm-none-eabi/include/c++/10.3.1/bits/stl_algobase.h ****       // 187. iter_swap underspecified
 182:/Library/DaisyToolchain/0.2.0/arm/arm-none-eabi/include/c++/10.3.1/bits/stl_algobase.h ****       swap(*__a, *__b);
 183:/Library/DaisyToolchain/0.2.0/arm/arm-none-eabi/include/c++/10.3.1/bits/stl_algobase.h **** #endif
 184:/Library/DaisyToolchain/0.2.0/arm/arm-none-eabi/include/c++/10.3.1/bits/stl_algobase.h ****     }
 185:/Library/DaisyToolchain/0.2.0/arm/arm-none-eabi/include/c++/10.3.1/bits/stl_algobase.h **** 
 186:/Library/DaisyToolchain/0.2.0/arm/arm-none-eabi/include/c++/10.3.1/bits/stl_algobase.h ****   /**
 187:/Library/DaisyToolchain/0.2.0/arm/arm-none-eabi/include/c++/10.3.1/bits/stl_algobase.h ****    *  @brief Swap the elements of two sequences.
 188:/Library/DaisyToolchain/0.2.0/arm/arm-none-eabi/include/c++/10.3.1/bits/stl_algobase.h ****    *  @ingroup mutating_algorithms
 189:/Library/DaisyToolchain/0.2.0/arm/arm-none-eabi/include/c++/10.3.1/bits/stl_algobase.h ****    *  @param  __first1  A forward iterator.
 190:/Library/DaisyToolchain/0.2.0/arm/arm-none-eabi/include/c++/10.3.1/bits/stl_algobase.h ****    *  @param  __last1   A forward iterator.
 191:/Library/DaisyToolchain/0.2.0/arm/arm-none-eabi/include/c++/10.3.1/bits/stl_algobase.h ****    *  @param  __first2  A forward iterator.
 192:/Library/DaisyToolchain/0.2.0/arm/arm-none-eabi/include/c++/10.3.1/bits/stl_algobase.h ****    *  @return   An iterator equal to @p first2+(last1-first1).
 193:/Library/DaisyToolchain/0.2.0/arm/arm-none-eabi/include/c++/10.3.1/bits/stl_algobase.h ****    *
 194:/Library/DaisyToolchain/0.2.0/arm/arm-none-eabi/include/c++/10.3.1/bits/stl_algobase.h ****    *  Swaps each element in the range @p [first1,last1) with the
 195:/Library/DaisyToolchain/0.2.0/arm/arm-none-eabi/include/c++/10.3.1/bits/stl_algobase.h ****    *  corresponding element in the range @p [first2,(last1-first1)).
 196:/Library/DaisyToolchain/0.2.0/arm/arm-none-eabi/include/c++/10.3.1/bits/stl_algobase.h ****    *  The ranges must not overlap.
 197:/Library/DaisyToolchain/0.2.0/arm/arm-none-eabi/include/c++/10.3.1/bits/stl_algobase.h ****   */
 198:/Library/DaisyToolchain/0.2.0/arm/arm-none-eabi/include/c++/10.3.1/bits/stl_algobase.h ****   template<typename _ForwardIterator1, typename _ForwardIterator2>
 199:/Library/DaisyToolchain/0.2.0/arm/arm-none-eabi/include/c++/10.3.1/bits/stl_algobase.h ****     _GLIBCXX20_CONSTEXPR
 200:/Library/DaisyToolchain/0.2.0/arm/arm-none-eabi/include/c++/10.3.1/bits/stl_algobase.h ****     _ForwardIterator2
 201:/Library/DaisyToolchain/0.2.0/arm/arm-none-eabi/include/c++/10.3.1/bits/stl_algobase.h ****     swap_ranges(_ForwardIterator1 __first1, _ForwardIterator1 __last1,
 202:/Library/DaisyToolchain/0.2.0/arm/arm-none-eabi/include/c++/10.3.1/bits/stl_algobase.h **** 		_ForwardIterator2 __first2)
 203:/Library/DaisyToolchain/0.2.0/arm/arm-none-eabi/include/c++/10.3.1/bits/stl_algobase.h ****     {
 204:/Library/DaisyToolchain/0.2.0/arm/arm-none-eabi/include/c++/10.3.1/bits/stl_algobase.h ****       // concept requirements
 205:/Library/DaisyToolchain/0.2.0/arm/arm-none-eabi/include/c++/10.3.1/bits/stl_algobase.h ****       __glibcxx_function_requires(_Mutable_ForwardIteratorConcept<
 206:/Library/DaisyToolchain/0.2.0/arm/arm-none-eabi/include/c++/10.3.1/bits/stl_algobase.h **** 				  _ForwardIterator1>)
 207:/Library/DaisyToolchain/0.2.0/arm/arm-none-eabi/include/c++/10.3.1/bits/stl_algobase.h ****       __glibcxx_function_requires(_Mutable_ForwardIteratorConcept<
 208:/Library/DaisyToolchain/0.2.0/arm/arm-none-eabi/include/c++/10.3.1/bits/stl_algobase.h **** 				  _ForwardIterator2>)
 209:/Library/DaisyToolchain/0.2.0/arm/arm-none-eabi/include/c++/10.3.1/bits/stl_algobase.h ****       __glibcxx_requires_valid_range(__first1, __last1);
 210:/Library/DaisyToolchain/0.2.0/arm/arm-none-eabi/include/c++/10.3.1/bits/stl_algobase.h **** 
 211:/Library/DaisyToolchain/0.2.0/arm/arm-none-eabi/include/c++/10.3.1/bits/stl_algobase.h ****       for (; __first1 != __last1; ++__first1, (void)++__first2)
 212:/Library/DaisyToolchain/0.2.0/arm/arm-none-eabi/include/c++/10.3.1/bits/stl_algobase.h **** 	std::iter_swap(__first1, __first2);
 213:/Library/DaisyToolchain/0.2.0/arm/arm-none-eabi/include/c++/10.3.1/bits/stl_algobase.h ****       return __first2;
 214:/Library/DaisyToolchain/0.2.0/arm/arm-none-eabi/include/c++/10.3.1/bits/stl_algobase.h ****     }
 215:/Library/DaisyToolchain/0.2.0/arm/arm-none-eabi/include/c++/10.3.1/bits/stl_algobase.h **** 
 216:/Library/DaisyToolchain/0.2.0/arm/arm-none-eabi/include/c++/10.3.1/bits/stl_algobase.h ****   /**
ARM GAS  /var/folders/9s/8rp0_f2s1n31qbztm3b5_fdh0000gn/T//ccQP8jK9.s 			page 37


 217:/Library/DaisyToolchain/0.2.0/arm/arm-none-eabi/include/c++/10.3.1/bits/stl_algobase.h ****    *  @brief This does what you think it does.
 218:/Library/DaisyToolchain/0.2.0/arm/arm-none-eabi/include/c++/10.3.1/bits/stl_algobase.h ****    *  @ingroup sorting_algorithms
 219:/Library/DaisyToolchain/0.2.0/arm/arm-none-eabi/include/c++/10.3.1/bits/stl_algobase.h ****    *  @param  __a  A thing of arbitrary type.
 220:/Library/DaisyToolchain/0.2.0/arm/arm-none-eabi/include/c++/10.3.1/bits/stl_algobase.h ****    *  @param  __b  Another thing of arbitrary type.
 221:/Library/DaisyToolchain/0.2.0/arm/arm-none-eabi/include/c++/10.3.1/bits/stl_algobase.h ****    *  @return   The lesser of the parameters.
 222:/Library/DaisyToolchain/0.2.0/arm/arm-none-eabi/include/c++/10.3.1/bits/stl_algobase.h ****    *
 223:/Library/DaisyToolchain/0.2.0/arm/arm-none-eabi/include/c++/10.3.1/bits/stl_algobase.h ****    *  This is the simple classic generic implementation.  It will work on
 224:/Library/DaisyToolchain/0.2.0/arm/arm-none-eabi/include/c++/10.3.1/bits/stl_algobase.h ****    *  temporary expressions, since they are only evaluated once, unlike a
 225:/Library/DaisyToolchain/0.2.0/arm/arm-none-eabi/include/c++/10.3.1/bits/stl_algobase.h ****    *  preprocessor macro.
 226:/Library/DaisyToolchain/0.2.0/arm/arm-none-eabi/include/c++/10.3.1/bits/stl_algobase.h ****   */
 227:/Library/DaisyToolchain/0.2.0/arm/arm-none-eabi/include/c++/10.3.1/bits/stl_algobase.h ****   template<typename _Tp>
 228:/Library/DaisyToolchain/0.2.0/arm/arm-none-eabi/include/c++/10.3.1/bits/stl_algobase.h ****     _GLIBCXX14_CONSTEXPR
 229:/Library/DaisyToolchain/0.2.0/arm/arm-none-eabi/include/c++/10.3.1/bits/stl_algobase.h ****     inline const _Tp&
 230:/Library/DaisyToolchain/0.2.0/arm/arm-none-eabi/include/c++/10.3.1/bits/stl_algobase.h ****     min(const _Tp& __a, const _Tp& __b)
 231:/Library/DaisyToolchain/0.2.0/arm/arm-none-eabi/include/c++/10.3.1/bits/stl_algobase.h ****     {
 232:/Library/DaisyToolchain/0.2.0/arm/arm-none-eabi/include/c++/10.3.1/bits/stl_algobase.h ****       // concept requirements
 233:/Library/DaisyToolchain/0.2.0/arm/arm-none-eabi/include/c++/10.3.1/bits/stl_algobase.h ****       __glibcxx_function_requires(_LessThanComparableConcept<_Tp>)
 234:/Library/DaisyToolchain/0.2.0/arm/arm-none-eabi/include/c++/10.3.1/bits/stl_algobase.h ****       //return __b < __a ? __b : __a;
 235:/Library/DaisyToolchain/0.2.0/arm/arm-none-eabi/include/c++/10.3.1/bits/stl_algobase.h ****       if (__b < __a)
 236:/Library/DaisyToolchain/0.2.0/arm/arm-none-eabi/include/c++/10.3.1/bits/stl_algobase.h **** 	return __b;
 237:/Library/DaisyToolchain/0.2.0/arm/arm-none-eabi/include/c++/10.3.1/bits/stl_algobase.h ****       return __a;
 238:/Library/DaisyToolchain/0.2.0/arm/arm-none-eabi/include/c++/10.3.1/bits/stl_algobase.h ****     }
 239:/Library/DaisyToolchain/0.2.0/arm/arm-none-eabi/include/c++/10.3.1/bits/stl_algobase.h **** 
 240:/Library/DaisyToolchain/0.2.0/arm/arm-none-eabi/include/c++/10.3.1/bits/stl_algobase.h ****   /**
 241:/Library/DaisyToolchain/0.2.0/arm/arm-none-eabi/include/c++/10.3.1/bits/stl_algobase.h ****    *  @brief This does what you think it does.
 242:/Library/DaisyToolchain/0.2.0/arm/arm-none-eabi/include/c++/10.3.1/bits/stl_algobase.h ****    *  @ingroup sorting_algorithms
 243:/Library/DaisyToolchain/0.2.0/arm/arm-none-eabi/include/c++/10.3.1/bits/stl_algobase.h ****    *  @param  __a  A thing of arbitrary type.
 244:/Library/DaisyToolchain/0.2.0/arm/arm-none-eabi/include/c++/10.3.1/bits/stl_algobase.h ****    *  @param  __b  Another thing of arbitrary type.
 245:/Library/DaisyToolchain/0.2.0/arm/arm-none-eabi/include/c++/10.3.1/bits/stl_algobase.h ****    *  @return   The greater of the parameters.
 246:/Library/DaisyToolchain/0.2.0/arm/arm-none-eabi/include/c++/10.3.1/bits/stl_algobase.h ****    *
 247:/Library/DaisyToolchain/0.2.0/arm/arm-none-eabi/include/c++/10.3.1/bits/stl_algobase.h ****    *  This is the simple classic generic implementation.  It will work on
 248:/Library/DaisyToolchain/0.2.0/arm/arm-none-eabi/include/c++/10.3.1/bits/stl_algobase.h ****    *  temporary expressions, since they are only evaluated once, unlike a
 249:/Library/DaisyToolchain/0.2.0/arm/arm-none-eabi/include/c++/10.3.1/bits/stl_algobase.h ****    *  preprocessor macro.
 250:/Library/DaisyToolchain/0.2.0/arm/arm-none-eabi/include/c++/10.3.1/bits/stl_algobase.h ****   */
 251:/Library/DaisyToolchain/0.2.0/arm/arm-none-eabi/include/c++/10.3.1/bits/stl_algobase.h ****   template<typename _Tp>
 252:/Library/DaisyToolchain/0.2.0/arm/arm-none-eabi/include/c++/10.3.1/bits/stl_algobase.h ****     _GLIBCXX14_CONSTEXPR
 253:/Library/DaisyToolchain/0.2.0/arm/arm-none-eabi/include/c++/10.3.1/bits/stl_algobase.h ****     inline const _Tp&
 254:/Library/DaisyToolchain/0.2.0/arm/arm-none-eabi/include/c++/10.3.1/bits/stl_algobase.h ****     max(const _Tp& __a, const _Tp& __b)
 255:/Library/DaisyToolchain/0.2.0/arm/arm-none-eabi/include/c++/10.3.1/bits/stl_algobase.h ****     {
 256:/Library/DaisyToolchain/0.2.0/arm/arm-none-eabi/include/c++/10.3.1/bits/stl_algobase.h ****       // concept requirements
 257:/Library/DaisyToolchain/0.2.0/arm/arm-none-eabi/include/c++/10.3.1/bits/stl_algobase.h ****       __glibcxx_function_requires(_LessThanComparableConcept<_Tp>)
 258:/Library/DaisyToolchain/0.2.0/arm/arm-none-eabi/include/c++/10.3.1/bits/stl_algobase.h ****       //return  __a < __b ? __b : __a;
 259:/Library/DaisyToolchain/0.2.0/arm/arm-none-eabi/include/c++/10.3.1/bits/stl_algobase.h ****       if (__a < __b)
 260:/Library/DaisyToolchain/0.2.0/arm/arm-none-eabi/include/c++/10.3.1/bits/stl_algobase.h **** 	return __b;
 261:/Library/DaisyToolchain/0.2.0/arm/arm-none-eabi/include/c++/10.3.1/bits/stl_algobase.h ****       return __a;
 262:/Library/DaisyToolchain/0.2.0/arm/arm-none-eabi/include/c++/10.3.1/bits/stl_algobase.h ****     }
 263:/Library/DaisyToolchain/0.2.0/arm/arm-none-eabi/include/c++/10.3.1/bits/stl_algobase.h **** 
 264:/Library/DaisyToolchain/0.2.0/arm/arm-none-eabi/include/c++/10.3.1/bits/stl_algobase.h ****   /**
 265:/Library/DaisyToolchain/0.2.0/arm/arm-none-eabi/include/c++/10.3.1/bits/stl_algobase.h ****    *  @brief This does what you think it does.
 266:/Library/DaisyToolchain/0.2.0/arm/arm-none-eabi/include/c++/10.3.1/bits/stl_algobase.h ****    *  @ingroup sorting_algorithms
 267:/Library/DaisyToolchain/0.2.0/arm/arm-none-eabi/include/c++/10.3.1/bits/stl_algobase.h ****    *  @param  __a  A thing of arbitrary type.
 268:/Library/DaisyToolchain/0.2.0/arm/arm-none-eabi/include/c++/10.3.1/bits/stl_algobase.h ****    *  @param  __b  Another thing of arbitrary type.
 269:/Library/DaisyToolchain/0.2.0/arm/arm-none-eabi/include/c++/10.3.1/bits/stl_algobase.h ****    *  @param  __comp  A @link comparison_functors comparison functor@endlink.
 270:/Library/DaisyToolchain/0.2.0/arm/arm-none-eabi/include/c++/10.3.1/bits/stl_algobase.h ****    *  @return   The lesser of the parameters.
 271:/Library/DaisyToolchain/0.2.0/arm/arm-none-eabi/include/c++/10.3.1/bits/stl_algobase.h ****    *
 272:/Library/DaisyToolchain/0.2.0/arm/arm-none-eabi/include/c++/10.3.1/bits/stl_algobase.h ****    *  This will work on temporary expressions, since they are only evaluated
 273:/Library/DaisyToolchain/0.2.0/arm/arm-none-eabi/include/c++/10.3.1/bits/stl_algobase.h ****    *  once, unlike a preprocessor macro.
ARM GAS  /var/folders/9s/8rp0_f2s1n31qbztm3b5_fdh0000gn/T//ccQP8jK9.s 			page 38


 274:/Library/DaisyToolchain/0.2.0/arm/arm-none-eabi/include/c++/10.3.1/bits/stl_algobase.h ****   */
 275:/Library/DaisyToolchain/0.2.0/arm/arm-none-eabi/include/c++/10.3.1/bits/stl_algobase.h ****   template<typename _Tp, typename _Compare>
 276:/Library/DaisyToolchain/0.2.0/arm/arm-none-eabi/include/c++/10.3.1/bits/stl_algobase.h ****     _GLIBCXX14_CONSTEXPR
 277:/Library/DaisyToolchain/0.2.0/arm/arm-none-eabi/include/c++/10.3.1/bits/stl_algobase.h ****     inline const _Tp&
 278:/Library/DaisyToolchain/0.2.0/arm/arm-none-eabi/include/c++/10.3.1/bits/stl_algobase.h ****     min(const _Tp& __a, const _Tp& __b, _Compare __comp)
 279:/Library/DaisyToolchain/0.2.0/arm/arm-none-eabi/include/c++/10.3.1/bits/stl_algobase.h ****     {
 280:/Library/DaisyToolchain/0.2.0/arm/arm-none-eabi/include/c++/10.3.1/bits/stl_algobase.h ****       //return __comp(__b, __a) ? __b : __a;
 281:/Library/DaisyToolchain/0.2.0/arm/arm-none-eabi/include/c++/10.3.1/bits/stl_algobase.h ****       if (__comp(__b, __a))
 282:/Library/DaisyToolchain/0.2.0/arm/arm-none-eabi/include/c++/10.3.1/bits/stl_algobase.h **** 	return __b;
 283:/Library/DaisyToolchain/0.2.0/arm/arm-none-eabi/include/c++/10.3.1/bits/stl_algobase.h ****       return __a;
 284:/Library/DaisyToolchain/0.2.0/arm/arm-none-eabi/include/c++/10.3.1/bits/stl_algobase.h ****     }
 285:/Library/DaisyToolchain/0.2.0/arm/arm-none-eabi/include/c++/10.3.1/bits/stl_algobase.h **** 
 286:/Library/DaisyToolchain/0.2.0/arm/arm-none-eabi/include/c++/10.3.1/bits/stl_algobase.h ****   /**
 287:/Library/DaisyToolchain/0.2.0/arm/arm-none-eabi/include/c++/10.3.1/bits/stl_algobase.h ****    *  @brief This does what you think it does.
 288:/Library/DaisyToolchain/0.2.0/arm/arm-none-eabi/include/c++/10.3.1/bits/stl_algobase.h ****    *  @ingroup sorting_algorithms
 289:/Library/DaisyToolchain/0.2.0/arm/arm-none-eabi/include/c++/10.3.1/bits/stl_algobase.h ****    *  @param  __a  A thing of arbitrary type.
 290:/Library/DaisyToolchain/0.2.0/arm/arm-none-eabi/include/c++/10.3.1/bits/stl_algobase.h ****    *  @param  __b  Another thing of arbitrary type.
 291:/Library/DaisyToolchain/0.2.0/arm/arm-none-eabi/include/c++/10.3.1/bits/stl_algobase.h ****    *  @param  __comp  A @link comparison_functors comparison functor@endlink.
 292:/Library/DaisyToolchain/0.2.0/arm/arm-none-eabi/include/c++/10.3.1/bits/stl_algobase.h ****    *  @return   The greater of the parameters.
 293:/Library/DaisyToolchain/0.2.0/arm/arm-none-eabi/include/c++/10.3.1/bits/stl_algobase.h ****    *
 294:/Library/DaisyToolchain/0.2.0/arm/arm-none-eabi/include/c++/10.3.1/bits/stl_algobase.h ****    *  This will work on temporary expressions, since they are only evaluated
 295:/Library/DaisyToolchain/0.2.0/arm/arm-none-eabi/include/c++/10.3.1/bits/stl_algobase.h ****    *  once, unlike a preprocessor macro.
 296:/Library/DaisyToolchain/0.2.0/arm/arm-none-eabi/include/c++/10.3.1/bits/stl_algobase.h ****   */
 297:/Library/DaisyToolchain/0.2.0/arm/arm-none-eabi/include/c++/10.3.1/bits/stl_algobase.h ****   template<typename _Tp, typename _Compare>
 298:/Library/DaisyToolchain/0.2.0/arm/arm-none-eabi/include/c++/10.3.1/bits/stl_algobase.h ****     _GLIBCXX14_CONSTEXPR
 299:/Library/DaisyToolchain/0.2.0/arm/arm-none-eabi/include/c++/10.3.1/bits/stl_algobase.h ****     inline const _Tp&
 300:/Library/DaisyToolchain/0.2.0/arm/arm-none-eabi/include/c++/10.3.1/bits/stl_algobase.h ****     max(const _Tp& __a, const _Tp& __b, _Compare __comp)
 301:/Library/DaisyToolchain/0.2.0/arm/arm-none-eabi/include/c++/10.3.1/bits/stl_algobase.h ****     {
 302:/Library/DaisyToolchain/0.2.0/arm/arm-none-eabi/include/c++/10.3.1/bits/stl_algobase.h ****       //return __comp(__a, __b) ? __b : __a;
 303:/Library/DaisyToolchain/0.2.0/arm/arm-none-eabi/include/c++/10.3.1/bits/stl_algobase.h ****       if (__comp(__a, __b))
 304:/Library/DaisyToolchain/0.2.0/arm/arm-none-eabi/include/c++/10.3.1/bits/stl_algobase.h **** 	return __b;
 305:/Library/DaisyToolchain/0.2.0/arm/arm-none-eabi/include/c++/10.3.1/bits/stl_algobase.h ****       return __a;
 306:/Library/DaisyToolchain/0.2.0/arm/arm-none-eabi/include/c++/10.3.1/bits/stl_algobase.h ****     }
 307:/Library/DaisyToolchain/0.2.0/arm/arm-none-eabi/include/c++/10.3.1/bits/stl_algobase.h **** 
 308:/Library/DaisyToolchain/0.2.0/arm/arm-none-eabi/include/c++/10.3.1/bits/stl_algobase.h ****   // Fallback implementation of the function in bits/stl_iterator.h used to
 309:/Library/DaisyToolchain/0.2.0/arm/arm-none-eabi/include/c++/10.3.1/bits/stl_algobase.h ****   // remove the __normal_iterator wrapper. See copy, fill, ...
 310:/Library/DaisyToolchain/0.2.0/arm/arm-none-eabi/include/c++/10.3.1/bits/stl_algobase.h ****   template<typename _Iterator>
 311:/Library/DaisyToolchain/0.2.0/arm/arm-none-eabi/include/c++/10.3.1/bits/stl_algobase.h ****     _GLIBCXX20_CONSTEXPR
 312:/Library/DaisyToolchain/0.2.0/arm/arm-none-eabi/include/c++/10.3.1/bits/stl_algobase.h ****     inline _Iterator
 313:/Library/DaisyToolchain/0.2.0/arm/arm-none-eabi/include/c++/10.3.1/bits/stl_algobase.h ****     __niter_base(_Iterator __it)
 314:/Library/DaisyToolchain/0.2.0/arm/arm-none-eabi/include/c++/10.3.1/bits/stl_algobase.h ****     _GLIBCXX_NOEXCEPT_IF(std::is_nothrow_copy_constructible<_Iterator>::value)
 315:/Library/DaisyToolchain/0.2.0/arm/arm-none-eabi/include/c++/10.3.1/bits/stl_algobase.h ****     { return __it; }
 316:/Library/DaisyToolchain/0.2.0/arm/arm-none-eabi/include/c++/10.3.1/bits/stl_algobase.h **** 
 317:/Library/DaisyToolchain/0.2.0/arm/arm-none-eabi/include/c++/10.3.1/bits/stl_algobase.h ****   // Reverse the __niter_base transformation to get a
 318:/Library/DaisyToolchain/0.2.0/arm/arm-none-eabi/include/c++/10.3.1/bits/stl_algobase.h ****   // __normal_iterator back again (this assumes that __normal_iterator
 319:/Library/DaisyToolchain/0.2.0/arm/arm-none-eabi/include/c++/10.3.1/bits/stl_algobase.h ****   // is only used to wrap random access iterators, like pointers).
 320:/Library/DaisyToolchain/0.2.0/arm/arm-none-eabi/include/c++/10.3.1/bits/stl_algobase.h ****   template<typename _From, typename _To>
 321:/Library/DaisyToolchain/0.2.0/arm/arm-none-eabi/include/c++/10.3.1/bits/stl_algobase.h ****     _GLIBCXX20_CONSTEXPR
 322:/Library/DaisyToolchain/0.2.0/arm/arm-none-eabi/include/c++/10.3.1/bits/stl_algobase.h ****     inline _From
 323:/Library/DaisyToolchain/0.2.0/arm/arm-none-eabi/include/c++/10.3.1/bits/stl_algobase.h ****     __niter_wrap(_From __from, _To __res)
 324:/Library/DaisyToolchain/0.2.0/arm/arm-none-eabi/include/c++/10.3.1/bits/stl_algobase.h ****     { return __from + (__res - std::__niter_base(__from)); }
 325:/Library/DaisyToolchain/0.2.0/arm/arm-none-eabi/include/c++/10.3.1/bits/stl_algobase.h **** 
 326:/Library/DaisyToolchain/0.2.0/arm/arm-none-eabi/include/c++/10.3.1/bits/stl_algobase.h ****   // No need to wrap, iterator already has the right type.
 327:/Library/DaisyToolchain/0.2.0/arm/arm-none-eabi/include/c++/10.3.1/bits/stl_algobase.h ****   template<typename _Iterator>
 328:/Library/DaisyToolchain/0.2.0/arm/arm-none-eabi/include/c++/10.3.1/bits/stl_algobase.h ****     _GLIBCXX20_CONSTEXPR
 329:/Library/DaisyToolchain/0.2.0/arm/arm-none-eabi/include/c++/10.3.1/bits/stl_algobase.h ****     inline _Iterator
 330:/Library/DaisyToolchain/0.2.0/arm/arm-none-eabi/include/c++/10.3.1/bits/stl_algobase.h ****     __niter_wrap(const _Iterator&, _Iterator __res)
ARM GAS  /var/folders/9s/8rp0_f2s1n31qbztm3b5_fdh0000gn/T//ccQP8jK9.s 			page 39


 331:/Library/DaisyToolchain/0.2.0/arm/arm-none-eabi/include/c++/10.3.1/bits/stl_algobase.h ****     { return __res; }
 332:/Library/DaisyToolchain/0.2.0/arm/arm-none-eabi/include/c++/10.3.1/bits/stl_algobase.h **** 
 333:/Library/DaisyToolchain/0.2.0/arm/arm-none-eabi/include/c++/10.3.1/bits/stl_algobase.h ****   // All of these auxiliary structs serve two purposes.  (1) Replace
 334:/Library/DaisyToolchain/0.2.0/arm/arm-none-eabi/include/c++/10.3.1/bits/stl_algobase.h ****   // calls to copy with memmove whenever possible.  (Memmove, not memcpy,
 335:/Library/DaisyToolchain/0.2.0/arm/arm-none-eabi/include/c++/10.3.1/bits/stl_algobase.h ****   // because the input and output ranges are permitted to overlap.)
 336:/Library/DaisyToolchain/0.2.0/arm/arm-none-eabi/include/c++/10.3.1/bits/stl_algobase.h ****   // (2) If we're using random access iterators, then write the loop as
 337:/Library/DaisyToolchain/0.2.0/arm/arm-none-eabi/include/c++/10.3.1/bits/stl_algobase.h ****   // a for loop with an explicit count.
 338:/Library/DaisyToolchain/0.2.0/arm/arm-none-eabi/include/c++/10.3.1/bits/stl_algobase.h **** 
 339:/Library/DaisyToolchain/0.2.0/arm/arm-none-eabi/include/c++/10.3.1/bits/stl_algobase.h ****   template<bool _IsMove, bool _IsSimple, typename _Category>
 340:/Library/DaisyToolchain/0.2.0/arm/arm-none-eabi/include/c++/10.3.1/bits/stl_algobase.h ****     struct __copy_move
 341:/Library/DaisyToolchain/0.2.0/arm/arm-none-eabi/include/c++/10.3.1/bits/stl_algobase.h ****     {
 342:/Library/DaisyToolchain/0.2.0/arm/arm-none-eabi/include/c++/10.3.1/bits/stl_algobase.h ****       template<typename _II, typename _OI>
 343:/Library/DaisyToolchain/0.2.0/arm/arm-none-eabi/include/c++/10.3.1/bits/stl_algobase.h **** 	_GLIBCXX20_CONSTEXPR
 344:/Library/DaisyToolchain/0.2.0/arm/arm-none-eabi/include/c++/10.3.1/bits/stl_algobase.h **** 	static _OI
 345:/Library/DaisyToolchain/0.2.0/arm/arm-none-eabi/include/c++/10.3.1/bits/stl_algobase.h **** 	__copy_m(_II __first, _II __last, _OI __result)
 346:/Library/DaisyToolchain/0.2.0/arm/arm-none-eabi/include/c++/10.3.1/bits/stl_algobase.h **** 	{
 347:/Library/DaisyToolchain/0.2.0/arm/arm-none-eabi/include/c++/10.3.1/bits/stl_algobase.h **** 	  for (; __first != __last; ++__result, (void)++__first)
 348:/Library/DaisyToolchain/0.2.0/arm/arm-none-eabi/include/c++/10.3.1/bits/stl_algobase.h **** 	    *__result = *__first;
 349:/Library/DaisyToolchain/0.2.0/arm/arm-none-eabi/include/c++/10.3.1/bits/stl_algobase.h **** 	  return __result;
 350:/Library/DaisyToolchain/0.2.0/arm/arm-none-eabi/include/c++/10.3.1/bits/stl_algobase.h **** 	}
 351:/Library/DaisyToolchain/0.2.0/arm/arm-none-eabi/include/c++/10.3.1/bits/stl_algobase.h ****     };
 352:/Library/DaisyToolchain/0.2.0/arm/arm-none-eabi/include/c++/10.3.1/bits/stl_algobase.h **** 
 353:/Library/DaisyToolchain/0.2.0/arm/arm-none-eabi/include/c++/10.3.1/bits/stl_algobase.h **** #if __cplusplus >= 201103L
 354:/Library/DaisyToolchain/0.2.0/arm/arm-none-eabi/include/c++/10.3.1/bits/stl_algobase.h ****   template<typename _Category>
 355:/Library/DaisyToolchain/0.2.0/arm/arm-none-eabi/include/c++/10.3.1/bits/stl_algobase.h ****     struct __copy_move<true, false, _Category>
 356:/Library/DaisyToolchain/0.2.0/arm/arm-none-eabi/include/c++/10.3.1/bits/stl_algobase.h ****     {
 357:/Library/DaisyToolchain/0.2.0/arm/arm-none-eabi/include/c++/10.3.1/bits/stl_algobase.h ****       template<typename _II, typename _OI>
 358:/Library/DaisyToolchain/0.2.0/arm/arm-none-eabi/include/c++/10.3.1/bits/stl_algobase.h **** 	_GLIBCXX20_CONSTEXPR
 359:/Library/DaisyToolchain/0.2.0/arm/arm-none-eabi/include/c++/10.3.1/bits/stl_algobase.h **** 	static _OI
 360:/Library/DaisyToolchain/0.2.0/arm/arm-none-eabi/include/c++/10.3.1/bits/stl_algobase.h **** 	__copy_m(_II __first, _II __last, _OI __result)
 361:/Library/DaisyToolchain/0.2.0/arm/arm-none-eabi/include/c++/10.3.1/bits/stl_algobase.h **** 	{
 362:/Library/DaisyToolchain/0.2.0/arm/arm-none-eabi/include/c++/10.3.1/bits/stl_algobase.h **** 	  for (; __first != __last; ++__result, (void)++__first)
 363:/Library/DaisyToolchain/0.2.0/arm/arm-none-eabi/include/c++/10.3.1/bits/stl_algobase.h **** 	    *__result = std::move(*__first);
 364:/Library/DaisyToolchain/0.2.0/arm/arm-none-eabi/include/c++/10.3.1/bits/stl_algobase.h **** 	  return __result;
 365:/Library/DaisyToolchain/0.2.0/arm/arm-none-eabi/include/c++/10.3.1/bits/stl_algobase.h **** 	}
 366:/Library/DaisyToolchain/0.2.0/arm/arm-none-eabi/include/c++/10.3.1/bits/stl_algobase.h ****     };
 367:/Library/DaisyToolchain/0.2.0/arm/arm-none-eabi/include/c++/10.3.1/bits/stl_algobase.h **** #endif
 368:/Library/DaisyToolchain/0.2.0/arm/arm-none-eabi/include/c++/10.3.1/bits/stl_algobase.h **** 
 369:/Library/DaisyToolchain/0.2.0/arm/arm-none-eabi/include/c++/10.3.1/bits/stl_algobase.h ****   template<>
 370:/Library/DaisyToolchain/0.2.0/arm/arm-none-eabi/include/c++/10.3.1/bits/stl_algobase.h ****     struct __copy_move<false, false, random_access_iterator_tag>
 371:/Library/DaisyToolchain/0.2.0/arm/arm-none-eabi/include/c++/10.3.1/bits/stl_algobase.h ****     {
 372:/Library/DaisyToolchain/0.2.0/arm/arm-none-eabi/include/c++/10.3.1/bits/stl_algobase.h ****       template<typename _II, typename _OI>
 373:/Library/DaisyToolchain/0.2.0/arm/arm-none-eabi/include/c++/10.3.1/bits/stl_algobase.h **** 	_GLIBCXX20_CONSTEXPR
 374:/Library/DaisyToolchain/0.2.0/arm/arm-none-eabi/include/c++/10.3.1/bits/stl_algobase.h **** 	static _OI
 375:/Library/DaisyToolchain/0.2.0/arm/arm-none-eabi/include/c++/10.3.1/bits/stl_algobase.h **** 	__copy_m(_II __first, _II __last, _OI __result)
 376:/Library/DaisyToolchain/0.2.0/arm/arm-none-eabi/include/c++/10.3.1/bits/stl_algobase.h **** 	{
 377:/Library/DaisyToolchain/0.2.0/arm/arm-none-eabi/include/c++/10.3.1/bits/stl_algobase.h **** 	  typedef typename iterator_traits<_II>::difference_type _Distance;
 378:/Library/DaisyToolchain/0.2.0/arm/arm-none-eabi/include/c++/10.3.1/bits/stl_algobase.h **** 	  for(_Distance __n = __last - __first; __n > 0; --__n)
 379:/Library/DaisyToolchain/0.2.0/arm/arm-none-eabi/include/c++/10.3.1/bits/stl_algobase.h **** 	    {
 380:/Library/DaisyToolchain/0.2.0/arm/arm-none-eabi/include/c++/10.3.1/bits/stl_algobase.h **** 	      *__result = *__first;
 381:/Library/DaisyToolchain/0.2.0/arm/arm-none-eabi/include/c++/10.3.1/bits/stl_algobase.h **** 	      ++__first;
 382:/Library/DaisyToolchain/0.2.0/arm/arm-none-eabi/include/c++/10.3.1/bits/stl_algobase.h **** 	      ++__result;
 383:/Library/DaisyToolchain/0.2.0/arm/arm-none-eabi/include/c++/10.3.1/bits/stl_algobase.h **** 	    }
 384:/Library/DaisyToolchain/0.2.0/arm/arm-none-eabi/include/c++/10.3.1/bits/stl_algobase.h **** 	  return __result;
 385:/Library/DaisyToolchain/0.2.0/arm/arm-none-eabi/include/c++/10.3.1/bits/stl_algobase.h **** 	}
 386:/Library/DaisyToolchain/0.2.0/arm/arm-none-eabi/include/c++/10.3.1/bits/stl_algobase.h ****     };
 387:/Library/DaisyToolchain/0.2.0/arm/arm-none-eabi/include/c++/10.3.1/bits/stl_algobase.h **** 
ARM GAS  /var/folders/9s/8rp0_f2s1n31qbztm3b5_fdh0000gn/T//ccQP8jK9.s 			page 40


 388:/Library/DaisyToolchain/0.2.0/arm/arm-none-eabi/include/c++/10.3.1/bits/stl_algobase.h **** #if __cplusplus >= 201103L
 389:/Library/DaisyToolchain/0.2.0/arm/arm-none-eabi/include/c++/10.3.1/bits/stl_algobase.h ****   template<>
 390:/Library/DaisyToolchain/0.2.0/arm/arm-none-eabi/include/c++/10.3.1/bits/stl_algobase.h ****     struct __copy_move<true, false, random_access_iterator_tag>
 391:/Library/DaisyToolchain/0.2.0/arm/arm-none-eabi/include/c++/10.3.1/bits/stl_algobase.h ****     {
 392:/Library/DaisyToolchain/0.2.0/arm/arm-none-eabi/include/c++/10.3.1/bits/stl_algobase.h ****       template<typename _II, typename _OI>
 393:/Library/DaisyToolchain/0.2.0/arm/arm-none-eabi/include/c++/10.3.1/bits/stl_algobase.h **** 	_GLIBCXX20_CONSTEXPR
 394:/Library/DaisyToolchain/0.2.0/arm/arm-none-eabi/include/c++/10.3.1/bits/stl_algobase.h **** 	static _OI
 395:/Library/DaisyToolchain/0.2.0/arm/arm-none-eabi/include/c++/10.3.1/bits/stl_algobase.h **** 	__copy_m(_II __first, _II __last, _OI __result)
 396:/Library/DaisyToolchain/0.2.0/arm/arm-none-eabi/include/c++/10.3.1/bits/stl_algobase.h **** 	{
 397:/Library/DaisyToolchain/0.2.0/arm/arm-none-eabi/include/c++/10.3.1/bits/stl_algobase.h **** 	  typedef typename iterator_traits<_II>::difference_type _Distance;
 398:/Library/DaisyToolchain/0.2.0/arm/arm-none-eabi/include/c++/10.3.1/bits/stl_algobase.h **** 	  for(_Distance __n = __last - __first; __n > 0; --__n)
 399:/Library/DaisyToolchain/0.2.0/arm/arm-none-eabi/include/c++/10.3.1/bits/stl_algobase.h **** 	    {
 400:/Library/DaisyToolchain/0.2.0/arm/arm-none-eabi/include/c++/10.3.1/bits/stl_algobase.h **** 	      *__result = std::move(*__first);
 401:/Library/DaisyToolchain/0.2.0/arm/arm-none-eabi/include/c++/10.3.1/bits/stl_algobase.h **** 	      ++__first;
 402:/Library/DaisyToolchain/0.2.0/arm/arm-none-eabi/include/c++/10.3.1/bits/stl_algobase.h **** 	      ++__result;
 403:/Library/DaisyToolchain/0.2.0/arm/arm-none-eabi/include/c++/10.3.1/bits/stl_algobase.h **** 	    }
 404:/Library/DaisyToolchain/0.2.0/arm/arm-none-eabi/include/c++/10.3.1/bits/stl_algobase.h **** 	  return __result;
 405:/Library/DaisyToolchain/0.2.0/arm/arm-none-eabi/include/c++/10.3.1/bits/stl_algobase.h **** 	}
 406:/Library/DaisyToolchain/0.2.0/arm/arm-none-eabi/include/c++/10.3.1/bits/stl_algobase.h ****     };
 407:/Library/DaisyToolchain/0.2.0/arm/arm-none-eabi/include/c++/10.3.1/bits/stl_algobase.h **** #endif
 408:/Library/DaisyToolchain/0.2.0/arm/arm-none-eabi/include/c++/10.3.1/bits/stl_algobase.h **** 
 409:/Library/DaisyToolchain/0.2.0/arm/arm-none-eabi/include/c++/10.3.1/bits/stl_algobase.h ****   template<bool _IsMove>
 410:/Library/DaisyToolchain/0.2.0/arm/arm-none-eabi/include/c++/10.3.1/bits/stl_algobase.h ****     struct __copy_move<_IsMove, true, random_access_iterator_tag>
 411:/Library/DaisyToolchain/0.2.0/arm/arm-none-eabi/include/c++/10.3.1/bits/stl_algobase.h ****     {
 412:/Library/DaisyToolchain/0.2.0/arm/arm-none-eabi/include/c++/10.3.1/bits/stl_algobase.h ****       template<typename _Tp>
 413:/Library/DaisyToolchain/0.2.0/arm/arm-none-eabi/include/c++/10.3.1/bits/stl_algobase.h **** 	_GLIBCXX20_CONSTEXPR
 414:/Library/DaisyToolchain/0.2.0/arm/arm-none-eabi/include/c++/10.3.1/bits/stl_algobase.h **** 	static _Tp*
 415:/Library/DaisyToolchain/0.2.0/arm/arm-none-eabi/include/c++/10.3.1/bits/stl_algobase.h **** 	__copy_m(const _Tp* __first, const _Tp* __last, _Tp* __result)
 416:/Library/DaisyToolchain/0.2.0/arm/arm-none-eabi/include/c++/10.3.1/bits/stl_algobase.h **** 	{
 417:/Library/DaisyToolchain/0.2.0/arm/arm-none-eabi/include/c++/10.3.1/bits/stl_algobase.h **** #if __cplusplus >= 201103L
 418:/Library/DaisyToolchain/0.2.0/arm/arm-none-eabi/include/c++/10.3.1/bits/stl_algobase.h **** 	  using __assignable = conditional<_IsMove,
 419:/Library/DaisyToolchain/0.2.0/arm/arm-none-eabi/include/c++/10.3.1/bits/stl_algobase.h **** 					   is_move_assignable<_Tp>,
 420:/Library/DaisyToolchain/0.2.0/arm/arm-none-eabi/include/c++/10.3.1/bits/stl_algobase.h **** 					   is_copy_assignable<_Tp>>;
 421:/Library/DaisyToolchain/0.2.0/arm/arm-none-eabi/include/c++/10.3.1/bits/stl_algobase.h **** 	  // trivial types can have deleted assignment
 422:/Library/DaisyToolchain/0.2.0/arm/arm-none-eabi/include/c++/10.3.1/bits/stl_algobase.h **** 	  static_assert( __assignable::type::value, "type is not assignable" );
 423:/Library/DaisyToolchain/0.2.0/arm/arm-none-eabi/include/c++/10.3.1/bits/stl_algobase.h **** #endif
 424:/Library/DaisyToolchain/0.2.0/arm/arm-none-eabi/include/c++/10.3.1/bits/stl_algobase.h **** 	  const ptrdiff_t _Num = __last - __first;
 425:/Library/DaisyToolchain/0.2.0/arm/arm-none-eabi/include/c++/10.3.1/bits/stl_algobase.h **** 	  if (_Num)
 426:/Library/DaisyToolchain/0.2.0/arm/arm-none-eabi/include/c++/10.3.1/bits/stl_algobase.h **** 	    __builtin_memmove(__result, __first, sizeof(_Tp) * _Num);
 427:/Library/DaisyToolchain/0.2.0/arm/arm-none-eabi/include/c++/10.3.1/bits/stl_algobase.h **** 	  return __result + _Num;
 428:/Library/DaisyToolchain/0.2.0/arm/arm-none-eabi/include/c++/10.3.1/bits/stl_algobase.h **** 	}
 429:/Library/DaisyToolchain/0.2.0/arm/arm-none-eabi/include/c++/10.3.1/bits/stl_algobase.h ****     };
 430:/Library/DaisyToolchain/0.2.0/arm/arm-none-eabi/include/c++/10.3.1/bits/stl_algobase.h **** 
 431:/Library/DaisyToolchain/0.2.0/arm/arm-none-eabi/include/c++/10.3.1/bits/stl_algobase.h ****   // Helpers for streambuf iterators (either istream or ostream).
 432:/Library/DaisyToolchain/0.2.0/arm/arm-none-eabi/include/c++/10.3.1/bits/stl_algobase.h ****   // NB: avoid including <iosfwd>, relatively large.
 433:/Library/DaisyToolchain/0.2.0/arm/arm-none-eabi/include/c++/10.3.1/bits/stl_algobase.h ****   template<typename _CharT>
 434:/Library/DaisyToolchain/0.2.0/arm/arm-none-eabi/include/c++/10.3.1/bits/stl_algobase.h ****     struct char_traits;
 435:/Library/DaisyToolchain/0.2.0/arm/arm-none-eabi/include/c++/10.3.1/bits/stl_algobase.h **** 
 436:/Library/DaisyToolchain/0.2.0/arm/arm-none-eabi/include/c++/10.3.1/bits/stl_algobase.h ****   template<typename _CharT, typename _Traits>
 437:/Library/DaisyToolchain/0.2.0/arm/arm-none-eabi/include/c++/10.3.1/bits/stl_algobase.h ****     class istreambuf_iterator;
 438:/Library/DaisyToolchain/0.2.0/arm/arm-none-eabi/include/c++/10.3.1/bits/stl_algobase.h **** 
 439:/Library/DaisyToolchain/0.2.0/arm/arm-none-eabi/include/c++/10.3.1/bits/stl_algobase.h ****   template<typename _CharT, typename _Traits>
 440:/Library/DaisyToolchain/0.2.0/arm/arm-none-eabi/include/c++/10.3.1/bits/stl_algobase.h ****     class ostreambuf_iterator;
 441:/Library/DaisyToolchain/0.2.0/arm/arm-none-eabi/include/c++/10.3.1/bits/stl_algobase.h **** 
 442:/Library/DaisyToolchain/0.2.0/arm/arm-none-eabi/include/c++/10.3.1/bits/stl_algobase.h ****   template<bool _IsMove, typename _CharT>
 443:/Library/DaisyToolchain/0.2.0/arm/arm-none-eabi/include/c++/10.3.1/bits/stl_algobase.h ****     typename __gnu_cxx::__enable_if<__is_char<_CharT>::__value,
 444:/Library/DaisyToolchain/0.2.0/arm/arm-none-eabi/include/c++/10.3.1/bits/stl_algobase.h **** 	     ostreambuf_iterator<_CharT, char_traits<_CharT> > >::__type
ARM GAS  /var/folders/9s/8rp0_f2s1n31qbztm3b5_fdh0000gn/T//ccQP8jK9.s 			page 41


 445:/Library/DaisyToolchain/0.2.0/arm/arm-none-eabi/include/c++/10.3.1/bits/stl_algobase.h ****     __copy_move_a2(_CharT*, _CharT*,
 446:/Library/DaisyToolchain/0.2.0/arm/arm-none-eabi/include/c++/10.3.1/bits/stl_algobase.h **** 		   ostreambuf_iterator<_CharT, char_traits<_CharT> >);
 447:/Library/DaisyToolchain/0.2.0/arm/arm-none-eabi/include/c++/10.3.1/bits/stl_algobase.h **** 
 448:/Library/DaisyToolchain/0.2.0/arm/arm-none-eabi/include/c++/10.3.1/bits/stl_algobase.h ****   template<bool _IsMove, typename _CharT>
 449:/Library/DaisyToolchain/0.2.0/arm/arm-none-eabi/include/c++/10.3.1/bits/stl_algobase.h ****     typename __gnu_cxx::__enable_if<__is_char<_CharT>::__value,
 450:/Library/DaisyToolchain/0.2.0/arm/arm-none-eabi/include/c++/10.3.1/bits/stl_algobase.h **** 	     ostreambuf_iterator<_CharT, char_traits<_CharT> > >::__type
 451:/Library/DaisyToolchain/0.2.0/arm/arm-none-eabi/include/c++/10.3.1/bits/stl_algobase.h ****     __copy_move_a2(const _CharT*, const _CharT*,
 452:/Library/DaisyToolchain/0.2.0/arm/arm-none-eabi/include/c++/10.3.1/bits/stl_algobase.h **** 		   ostreambuf_iterator<_CharT, char_traits<_CharT> >);
 453:/Library/DaisyToolchain/0.2.0/arm/arm-none-eabi/include/c++/10.3.1/bits/stl_algobase.h **** 
 454:/Library/DaisyToolchain/0.2.0/arm/arm-none-eabi/include/c++/10.3.1/bits/stl_algobase.h ****   template<bool _IsMove, typename _CharT>
 455:/Library/DaisyToolchain/0.2.0/arm/arm-none-eabi/include/c++/10.3.1/bits/stl_algobase.h ****     typename __gnu_cxx::__enable_if<__is_char<_CharT>::__value,
 456:/Library/DaisyToolchain/0.2.0/arm/arm-none-eabi/include/c++/10.3.1/bits/stl_algobase.h **** 				    _CharT*>::__type
 457:/Library/DaisyToolchain/0.2.0/arm/arm-none-eabi/include/c++/10.3.1/bits/stl_algobase.h ****     __copy_move_a2(istreambuf_iterator<_CharT, char_traits<_CharT> >,
 458:/Library/DaisyToolchain/0.2.0/arm/arm-none-eabi/include/c++/10.3.1/bits/stl_algobase.h **** 		   istreambuf_iterator<_CharT, char_traits<_CharT> >, _CharT*);
 459:/Library/DaisyToolchain/0.2.0/arm/arm-none-eabi/include/c++/10.3.1/bits/stl_algobase.h **** 
 460:/Library/DaisyToolchain/0.2.0/arm/arm-none-eabi/include/c++/10.3.1/bits/stl_algobase.h ****   template<bool _IsMove, typename _II, typename _OI>
 461:/Library/DaisyToolchain/0.2.0/arm/arm-none-eabi/include/c++/10.3.1/bits/stl_algobase.h ****     _GLIBCXX20_CONSTEXPR
 462:/Library/DaisyToolchain/0.2.0/arm/arm-none-eabi/include/c++/10.3.1/bits/stl_algobase.h ****     inline _OI
 463:/Library/DaisyToolchain/0.2.0/arm/arm-none-eabi/include/c++/10.3.1/bits/stl_algobase.h ****     __copy_move_a2(_II __first, _II __last, _OI __result)
 464:/Library/DaisyToolchain/0.2.0/arm/arm-none-eabi/include/c++/10.3.1/bits/stl_algobase.h ****     {
 465:/Library/DaisyToolchain/0.2.0/arm/arm-none-eabi/include/c++/10.3.1/bits/stl_algobase.h ****       typedef typename iterator_traits<_II>::iterator_category _Category;
 466:/Library/DaisyToolchain/0.2.0/arm/arm-none-eabi/include/c++/10.3.1/bits/stl_algobase.h **** #ifdef __cpp_lib_is_constant_evaluated
 467:/Library/DaisyToolchain/0.2.0/arm/arm-none-eabi/include/c++/10.3.1/bits/stl_algobase.h ****       if (std::is_constant_evaluated())
 468:/Library/DaisyToolchain/0.2.0/arm/arm-none-eabi/include/c++/10.3.1/bits/stl_algobase.h **** 	return std::__copy_move<_IsMove, false, _Category>::
 469:/Library/DaisyToolchain/0.2.0/arm/arm-none-eabi/include/c++/10.3.1/bits/stl_algobase.h **** 	  __copy_m(__first, __last, __result);
 470:/Library/DaisyToolchain/0.2.0/arm/arm-none-eabi/include/c++/10.3.1/bits/stl_algobase.h **** #endif
 471:/Library/DaisyToolchain/0.2.0/arm/arm-none-eabi/include/c++/10.3.1/bits/stl_algobase.h ****       return std::__copy_move<_IsMove, __memcpyable<_OI, _II>::__value,
 472:/Library/DaisyToolchain/0.2.0/arm/arm-none-eabi/include/c++/10.3.1/bits/stl_algobase.h **** 			      _Category>::__copy_m(__first, __last, __result);
 473:/Library/DaisyToolchain/0.2.0/arm/arm-none-eabi/include/c++/10.3.1/bits/stl_algobase.h ****     }
 474:/Library/DaisyToolchain/0.2.0/arm/arm-none-eabi/include/c++/10.3.1/bits/stl_algobase.h **** 
 475:/Library/DaisyToolchain/0.2.0/arm/arm-none-eabi/include/c++/10.3.1/bits/stl_algobase.h **** _GLIBCXX_BEGIN_NAMESPACE_CONTAINER
 476:/Library/DaisyToolchain/0.2.0/arm/arm-none-eabi/include/c++/10.3.1/bits/stl_algobase.h **** 
 477:/Library/DaisyToolchain/0.2.0/arm/arm-none-eabi/include/c++/10.3.1/bits/stl_algobase.h ****   template<typename _Tp, typename _Ref, typename _Ptr>
 478:/Library/DaisyToolchain/0.2.0/arm/arm-none-eabi/include/c++/10.3.1/bits/stl_algobase.h ****     struct _Deque_iterator;
 479:/Library/DaisyToolchain/0.2.0/arm/arm-none-eabi/include/c++/10.3.1/bits/stl_algobase.h **** 
 480:/Library/DaisyToolchain/0.2.0/arm/arm-none-eabi/include/c++/10.3.1/bits/stl_algobase.h **** _GLIBCXX_END_NAMESPACE_CONTAINER
 481:/Library/DaisyToolchain/0.2.0/arm/arm-none-eabi/include/c++/10.3.1/bits/stl_algobase.h **** 
 482:/Library/DaisyToolchain/0.2.0/arm/arm-none-eabi/include/c++/10.3.1/bits/stl_algobase.h ****   template<bool _IsMove,
 483:/Library/DaisyToolchain/0.2.0/arm/arm-none-eabi/include/c++/10.3.1/bits/stl_algobase.h **** 	   typename _Tp, typename _Ref, typename _Ptr, typename _OI>
 484:/Library/DaisyToolchain/0.2.0/arm/arm-none-eabi/include/c++/10.3.1/bits/stl_algobase.h ****     _OI
 485:/Library/DaisyToolchain/0.2.0/arm/arm-none-eabi/include/c++/10.3.1/bits/stl_algobase.h ****     __copy_move_a1(_GLIBCXX_STD_C::_Deque_iterator<_Tp, _Ref, _Ptr>,
 486:/Library/DaisyToolchain/0.2.0/arm/arm-none-eabi/include/c++/10.3.1/bits/stl_algobase.h **** 		   _GLIBCXX_STD_C::_Deque_iterator<_Tp, _Ref, _Ptr>,
 487:/Library/DaisyToolchain/0.2.0/arm/arm-none-eabi/include/c++/10.3.1/bits/stl_algobase.h **** 		   _OI);
 488:/Library/DaisyToolchain/0.2.0/arm/arm-none-eabi/include/c++/10.3.1/bits/stl_algobase.h **** 
 489:/Library/DaisyToolchain/0.2.0/arm/arm-none-eabi/include/c++/10.3.1/bits/stl_algobase.h ****   template<bool _IsMove,
 490:/Library/DaisyToolchain/0.2.0/arm/arm-none-eabi/include/c++/10.3.1/bits/stl_algobase.h **** 	   typename _ITp, typename _IRef, typename _IPtr, typename _OTp>
 491:/Library/DaisyToolchain/0.2.0/arm/arm-none-eabi/include/c++/10.3.1/bits/stl_algobase.h ****     _GLIBCXX_STD_C::_Deque_iterator<_OTp, _OTp&, _OTp*>
 492:/Library/DaisyToolchain/0.2.0/arm/arm-none-eabi/include/c++/10.3.1/bits/stl_algobase.h ****     __copy_move_a1(_GLIBCXX_STD_C::_Deque_iterator<_ITp, _IRef, _IPtr>,
 493:/Library/DaisyToolchain/0.2.0/arm/arm-none-eabi/include/c++/10.3.1/bits/stl_algobase.h **** 		   _GLIBCXX_STD_C::_Deque_iterator<_ITp, _IRef, _IPtr>,
 494:/Library/DaisyToolchain/0.2.0/arm/arm-none-eabi/include/c++/10.3.1/bits/stl_algobase.h **** 		   _GLIBCXX_STD_C::_Deque_iterator<_OTp, _OTp&, _OTp*>);
 495:/Library/DaisyToolchain/0.2.0/arm/arm-none-eabi/include/c++/10.3.1/bits/stl_algobase.h **** 
 496:/Library/DaisyToolchain/0.2.0/arm/arm-none-eabi/include/c++/10.3.1/bits/stl_algobase.h ****   template<bool _IsMove, typename _II, typename _Tp>
 497:/Library/DaisyToolchain/0.2.0/arm/arm-none-eabi/include/c++/10.3.1/bits/stl_algobase.h ****     typename __gnu_cxx::__enable_if<
 498:/Library/DaisyToolchain/0.2.0/arm/arm-none-eabi/include/c++/10.3.1/bits/stl_algobase.h ****       __is_random_access_iter<_II>::__value,
 499:/Library/DaisyToolchain/0.2.0/arm/arm-none-eabi/include/c++/10.3.1/bits/stl_algobase.h ****       _GLIBCXX_STD_C::_Deque_iterator<_Tp, _Tp&, _Tp*> >::__type
 500:/Library/DaisyToolchain/0.2.0/arm/arm-none-eabi/include/c++/10.3.1/bits/stl_algobase.h ****     __copy_move_a1(_II, _II, _GLIBCXX_STD_C::_Deque_iterator<_Tp, _Tp&, _Tp*>);
 501:/Library/DaisyToolchain/0.2.0/arm/arm-none-eabi/include/c++/10.3.1/bits/stl_algobase.h **** 
ARM GAS  /var/folders/9s/8rp0_f2s1n31qbztm3b5_fdh0000gn/T//ccQP8jK9.s 			page 42


 502:/Library/DaisyToolchain/0.2.0/arm/arm-none-eabi/include/c++/10.3.1/bits/stl_algobase.h ****   template<bool _IsMove, typename _II, typename _OI>
 503:/Library/DaisyToolchain/0.2.0/arm/arm-none-eabi/include/c++/10.3.1/bits/stl_algobase.h ****     _GLIBCXX20_CONSTEXPR
 504:/Library/DaisyToolchain/0.2.0/arm/arm-none-eabi/include/c++/10.3.1/bits/stl_algobase.h ****     inline _OI
 505:/Library/DaisyToolchain/0.2.0/arm/arm-none-eabi/include/c++/10.3.1/bits/stl_algobase.h ****     __copy_move_a1(_II __first, _II __last, _OI __result)
 506:/Library/DaisyToolchain/0.2.0/arm/arm-none-eabi/include/c++/10.3.1/bits/stl_algobase.h ****     { return std::__copy_move_a2<_IsMove>(__first, __last, __result); }
 507:/Library/DaisyToolchain/0.2.0/arm/arm-none-eabi/include/c++/10.3.1/bits/stl_algobase.h **** 
 508:/Library/DaisyToolchain/0.2.0/arm/arm-none-eabi/include/c++/10.3.1/bits/stl_algobase.h ****   template<bool _IsMove, typename _II, typename _OI>
 509:/Library/DaisyToolchain/0.2.0/arm/arm-none-eabi/include/c++/10.3.1/bits/stl_algobase.h ****     _GLIBCXX20_CONSTEXPR
 510:/Library/DaisyToolchain/0.2.0/arm/arm-none-eabi/include/c++/10.3.1/bits/stl_algobase.h ****     inline _OI
 511:/Library/DaisyToolchain/0.2.0/arm/arm-none-eabi/include/c++/10.3.1/bits/stl_algobase.h ****     __copy_move_a(_II __first, _II __last, _OI __result)
 512:/Library/DaisyToolchain/0.2.0/arm/arm-none-eabi/include/c++/10.3.1/bits/stl_algobase.h ****     {
 513:/Library/DaisyToolchain/0.2.0/arm/arm-none-eabi/include/c++/10.3.1/bits/stl_algobase.h ****       return std::__niter_wrap(__result,
 514:/Library/DaisyToolchain/0.2.0/arm/arm-none-eabi/include/c++/10.3.1/bits/stl_algobase.h **** 		std::__copy_move_a1<_IsMove>(std::__niter_base(__first),
 515:/Library/DaisyToolchain/0.2.0/arm/arm-none-eabi/include/c++/10.3.1/bits/stl_algobase.h **** 					     std::__niter_base(__last),
 516:/Library/DaisyToolchain/0.2.0/arm/arm-none-eabi/include/c++/10.3.1/bits/stl_algobase.h **** 					     std::__niter_base(__result)));
 517:/Library/DaisyToolchain/0.2.0/arm/arm-none-eabi/include/c++/10.3.1/bits/stl_algobase.h ****     }
 518:/Library/DaisyToolchain/0.2.0/arm/arm-none-eabi/include/c++/10.3.1/bits/stl_algobase.h **** 
 519:/Library/DaisyToolchain/0.2.0/arm/arm-none-eabi/include/c++/10.3.1/bits/stl_algobase.h ****   template<bool _IsMove,
 520:/Library/DaisyToolchain/0.2.0/arm/arm-none-eabi/include/c++/10.3.1/bits/stl_algobase.h **** 	   typename _Ite, typename _Seq, typename _Cat, typename _OI>
 521:/Library/DaisyToolchain/0.2.0/arm/arm-none-eabi/include/c++/10.3.1/bits/stl_algobase.h ****     _OI
 522:/Library/DaisyToolchain/0.2.0/arm/arm-none-eabi/include/c++/10.3.1/bits/stl_algobase.h ****     __copy_move_a(const ::__gnu_debug::_Safe_iterator<_Ite, _Seq, _Cat>&,
 523:/Library/DaisyToolchain/0.2.0/arm/arm-none-eabi/include/c++/10.3.1/bits/stl_algobase.h **** 		  const ::__gnu_debug::_Safe_iterator<_Ite, _Seq, _Cat>&,
 524:/Library/DaisyToolchain/0.2.0/arm/arm-none-eabi/include/c++/10.3.1/bits/stl_algobase.h **** 		  _OI);
 525:/Library/DaisyToolchain/0.2.0/arm/arm-none-eabi/include/c++/10.3.1/bits/stl_algobase.h **** 
 526:/Library/DaisyToolchain/0.2.0/arm/arm-none-eabi/include/c++/10.3.1/bits/stl_algobase.h ****   template<bool _IsMove,
 527:/Library/DaisyToolchain/0.2.0/arm/arm-none-eabi/include/c++/10.3.1/bits/stl_algobase.h **** 	   typename _II, typename _Ite, typename _Seq, typename _Cat>
 528:/Library/DaisyToolchain/0.2.0/arm/arm-none-eabi/include/c++/10.3.1/bits/stl_algobase.h ****     __gnu_debug::_Safe_iterator<_Ite, _Seq, _Cat>
 529:/Library/DaisyToolchain/0.2.0/arm/arm-none-eabi/include/c++/10.3.1/bits/stl_algobase.h ****     __copy_move_a(_II, _II,
 530:/Library/DaisyToolchain/0.2.0/arm/arm-none-eabi/include/c++/10.3.1/bits/stl_algobase.h **** 		  const ::__gnu_debug::_Safe_iterator<_Ite, _Seq, _Cat>&);
 531:/Library/DaisyToolchain/0.2.0/arm/arm-none-eabi/include/c++/10.3.1/bits/stl_algobase.h **** 
 532:/Library/DaisyToolchain/0.2.0/arm/arm-none-eabi/include/c++/10.3.1/bits/stl_algobase.h ****   template<bool _IsMove,
 533:/Library/DaisyToolchain/0.2.0/arm/arm-none-eabi/include/c++/10.3.1/bits/stl_algobase.h **** 	   typename _IIte, typename _ISeq, typename _ICat,
 534:/Library/DaisyToolchain/0.2.0/arm/arm-none-eabi/include/c++/10.3.1/bits/stl_algobase.h **** 	   typename _OIte, typename _OSeq, typename _OCat>
 535:/Library/DaisyToolchain/0.2.0/arm/arm-none-eabi/include/c++/10.3.1/bits/stl_algobase.h ****     ::__gnu_debug::_Safe_iterator<_OIte, _OSeq, _OCat>
 536:/Library/DaisyToolchain/0.2.0/arm/arm-none-eabi/include/c++/10.3.1/bits/stl_algobase.h ****     __copy_move_a(const ::__gnu_debug::_Safe_iterator<_IIte, _ISeq, _ICat>&,
 537:/Library/DaisyToolchain/0.2.0/arm/arm-none-eabi/include/c++/10.3.1/bits/stl_algobase.h **** 		  const ::__gnu_debug::_Safe_iterator<_IIte, _ISeq, _ICat>&,
 538:/Library/DaisyToolchain/0.2.0/arm/arm-none-eabi/include/c++/10.3.1/bits/stl_algobase.h **** 		  const ::__gnu_debug::_Safe_iterator<_OIte, _OSeq, _OCat>&);
 539:/Library/DaisyToolchain/0.2.0/arm/arm-none-eabi/include/c++/10.3.1/bits/stl_algobase.h **** 
 540:/Library/DaisyToolchain/0.2.0/arm/arm-none-eabi/include/c++/10.3.1/bits/stl_algobase.h ****   /**
 541:/Library/DaisyToolchain/0.2.0/arm/arm-none-eabi/include/c++/10.3.1/bits/stl_algobase.h ****    *  @brief Copies the range [first,last) into result.
 542:/Library/DaisyToolchain/0.2.0/arm/arm-none-eabi/include/c++/10.3.1/bits/stl_algobase.h ****    *  @ingroup mutating_algorithms
 543:/Library/DaisyToolchain/0.2.0/arm/arm-none-eabi/include/c++/10.3.1/bits/stl_algobase.h ****    *  @param  __first  An input iterator.
 544:/Library/DaisyToolchain/0.2.0/arm/arm-none-eabi/include/c++/10.3.1/bits/stl_algobase.h ****    *  @param  __last   An input iterator.
 545:/Library/DaisyToolchain/0.2.0/arm/arm-none-eabi/include/c++/10.3.1/bits/stl_algobase.h ****    *  @param  __result An output iterator.
 546:/Library/DaisyToolchain/0.2.0/arm/arm-none-eabi/include/c++/10.3.1/bits/stl_algobase.h ****    *  @return   result + (last - first)
 547:/Library/DaisyToolchain/0.2.0/arm/arm-none-eabi/include/c++/10.3.1/bits/stl_algobase.h ****    *
 548:/Library/DaisyToolchain/0.2.0/arm/arm-none-eabi/include/c++/10.3.1/bits/stl_algobase.h ****    *  This inline function will boil down to a call to @c memmove whenever
 549:/Library/DaisyToolchain/0.2.0/arm/arm-none-eabi/include/c++/10.3.1/bits/stl_algobase.h ****    *  possible.  Failing that, if random access iterators are passed, then the
 550:/Library/DaisyToolchain/0.2.0/arm/arm-none-eabi/include/c++/10.3.1/bits/stl_algobase.h ****    *  loop count will be known (and therefore a candidate for compiler
 551:/Library/DaisyToolchain/0.2.0/arm/arm-none-eabi/include/c++/10.3.1/bits/stl_algobase.h ****    *  optimizations such as unrolling).  Result may not be contained within
 552:/Library/DaisyToolchain/0.2.0/arm/arm-none-eabi/include/c++/10.3.1/bits/stl_algobase.h ****    *  [first,last); the copy_backward function should be used instead.
 553:/Library/DaisyToolchain/0.2.0/arm/arm-none-eabi/include/c++/10.3.1/bits/stl_algobase.h ****    *
 554:/Library/DaisyToolchain/0.2.0/arm/arm-none-eabi/include/c++/10.3.1/bits/stl_algobase.h ****    *  Note that the end of the output range is permitted to be contained
 555:/Library/DaisyToolchain/0.2.0/arm/arm-none-eabi/include/c++/10.3.1/bits/stl_algobase.h ****    *  within [first,last).
 556:/Library/DaisyToolchain/0.2.0/arm/arm-none-eabi/include/c++/10.3.1/bits/stl_algobase.h ****   */
 557:/Library/DaisyToolchain/0.2.0/arm/arm-none-eabi/include/c++/10.3.1/bits/stl_algobase.h ****   template<typename _II, typename _OI>
 558:/Library/DaisyToolchain/0.2.0/arm/arm-none-eabi/include/c++/10.3.1/bits/stl_algobase.h ****     _GLIBCXX20_CONSTEXPR
ARM GAS  /var/folders/9s/8rp0_f2s1n31qbztm3b5_fdh0000gn/T//ccQP8jK9.s 			page 43


 559:/Library/DaisyToolchain/0.2.0/arm/arm-none-eabi/include/c++/10.3.1/bits/stl_algobase.h ****     inline _OI
 560:/Library/DaisyToolchain/0.2.0/arm/arm-none-eabi/include/c++/10.3.1/bits/stl_algobase.h ****     copy(_II __first, _II __last, _OI __result)
 561:/Library/DaisyToolchain/0.2.0/arm/arm-none-eabi/include/c++/10.3.1/bits/stl_algobase.h ****     {
 562:/Library/DaisyToolchain/0.2.0/arm/arm-none-eabi/include/c++/10.3.1/bits/stl_algobase.h ****       // concept requirements
 563:/Library/DaisyToolchain/0.2.0/arm/arm-none-eabi/include/c++/10.3.1/bits/stl_algobase.h ****       __glibcxx_function_requires(_InputIteratorConcept<_II>)
 564:/Library/DaisyToolchain/0.2.0/arm/arm-none-eabi/include/c++/10.3.1/bits/stl_algobase.h ****       __glibcxx_function_requires(_OutputIteratorConcept<_OI,
 565:/Library/DaisyToolchain/0.2.0/arm/arm-none-eabi/include/c++/10.3.1/bits/stl_algobase.h **** 	    typename iterator_traits<_II>::value_type>)
 566:/Library/DaisyToolchain/0.2.0/arm/arm-none-eabi/include/c++/10.3.1/bits/stl_algobase.h ****       __glibcxx_requires_can_increment_range(__first, __last, __result);
 567:/Library/DaisyToolchain/0.2.0/arm/arm-none-eabi/include/c++/10.3.1/bits/stl_algobase.h **** 
 568:/Library/DaisyToolchain/0.2.0/arm/arm-none-eabi/include/c++/10.3.1/bits/stl_algobase.h ****       return std::__copy_move_a<__is_move_iterator<_II>::__value>
 569:/Library/DaisyToolchain/0.2.0/arm/arm-none-eabi/include/c++/10.3.1/bits/stl_algobase.h **** 	     (std::__miter_base(__first), std::__miter_base(__last), __result);
 570:/Library/DaisyToolchain/0.2.0/arm/arm-none-eabi/include/c++/10.3.1/bits/stl_algobase.h ****     }
 571:/Library/DaisyToolchain/0.2.0/arm/arm-none-eabi/include/c++/10.3.1/bits/stl_algobase.h **** 
 572:/Library/DaisyToolchain/0.2.0/arm/arm-none-eabi/include/c++/10.3.1/bits/stl_algobase.h **** #if __cplusplus >= 201103L
 573:/Library/DaisyToolchain/0.2.0/arm/arm-none-eabi/include/c++/10.3.1/bits/stl_algobase.h ****   /**
 574:/Library/DaisyToolchain/0.2.0/arm/arm-none-eabi/include/c++/10.3.1/bits/stl_algobase.h ****    *  @brief Moves the range [first,last) into result.
 575:/Library/DaisyToolchain/0.2.0/arm/arm-none-eabi/include/c++/10.3.1/bits/stl_algobase.h ****    *  @ingroup mutating_algorithms
 576:/Library/DaisyToolchain/0.2.0/arm/arm-none-eabi/include/c++/10.3.1/bits/stl_algobase.h ****    *  @param  __first  An input iterator.
 577:/Library/DaisyToolchain/0.2.0/arm/arm-none-eabi/include/c++/10.3.1/bits/stl_algobase.h ****    *  @param  __last   An input iterator.
 578:/Library/DaisyToolchain/0.2.0/arm/arm-none-eabi/include/c++/10.3.1/bits/stl_algobase.h ****    *  @param  __result An output iterator.
 579:/Library/DaisyToolchain/0.2.0/arm/arm-none-eabi/include/c++/10.3.1/bits/stl_algobase.h ****    *  @return   result + (last - first)
 580:/Library/DaisyToolchain/0.2.0/arm/arm-none-eabi/include/c++/10.3.1/bits/stl_algobase.h ****    *
 581:/Library/DaisyToolchain/0.2.0/arm/arm-none-eabi/include/c++/10.3.1/bits/stl_algobase.h ****    *  This inline function will boil down to a call to @c memmove whenever
 582:/Library/DaisyToolchain/0.2.0/arm/arm-none-eabi/include/c++/10.3.1/bits/stl_algobase.h ****    *  possible.  Failing that, if random access iterators are passed, then the
 583:/Library/DaisyToolchain/0.2.0/arm/arm-none-eabi/include/c++/10.3.1/bits/stl_algobase.h ****    *  loop count will be known (and therefore a candidate for compiler
 584:/Library/DaisyToolchain/0.2.0/arm/arm-none-eabi/include/c++/10.3.1/bits/stl_algobase.h ****    *  optimizations such as unrolling).  Result may not be contained within
 585:/Library/DaisyToolchain/0.2.0/arm/arm-none-eabi/include/c++/10.3.1/bits/stl_algobase.h ****    *  [first,last); the move_backward function should be used instead.
 586:/Library/DaisyToolchain/0.2.0/arm/arm-none-eabi/include/c++/10.3.1/bits/stl_algobase.h ****    *
 587:/Library/DaisyToolchain/0.2.0/arm/arm-none-eabi/include/c++/10.3.1/bits/stl_algobase.h ****    *  Note that the end of the output range is permitted to be contained
 588:/Library/DaisyToolchain/0.2.0/arm/arm-none-eabi/include/c++/10.3.1/bits/stl_algobase.h ****    *  within [first,last).
 589:/Library/DaisyToolchain/0.2.0/arm/arm-none-eabi/include/c++/10.3.1/bits/stl_algobase.h ****   */
 590:/Library/DaisyToolchain/0.2.0/arm/arm-none-eabi/include/c++/10.3.1/bits/stl_algobase.h ****   template<typename _II, typename _OI>
 591:/Library/DaisyToolchain/0.2.0/arm/arm-none-eabi/include/c++/10.3.1/bits/stl_algobase.h ****     _GLIBCXX20_CONSTEXPR
 592:/Library/DaisyToolchain/0.2.0/arm/arm-none-eabi/include/c++/10.3.1/bits/stl_algobase.h ****     inline _OI
 593:/Library/DaisyToolchain/0.2.0/arm/arm-none-eabi/include/c++/10.3.1/bits/stl_algobase.h ****     move(_II __first, _II __last, _OI __result)
 594:/Library/DaisyToolchain/0.2.0/arm/arm-none-eabi/include/c++/10.3.1/bits/stl_algobase.h ****     {
 595:/Library/DaisyToolchain/0.2.0/arm/arm-none-eabi/include/c++/10.3.1/bits/stl_algobase.h ****       // concept requirements
 596:/Library/DaisyToolchain/0.2.0/arm/arm-none-eabi/include/c++/10.3.1/bits/stl_algobase.h ****       __glibcxx_function_requires(_InputIteratorConcept<_II>)
 597:/Library/DaisyToolchain/0.2.0/arm/arm-none-eabi/include/c++/10.3.1/bits/stl_algobase.h ****       __glibcxx_function_requires(_OutputIteratorConcept<_OI,
 598:/Library/DaisyToolchain/0.2.0/arm/arm-none-eabi/include/c++/10.3.1/bits/stl_algobase.h **** 	    typename iterator_traits<_II>::value_type>)
 599:/Library/DaisyToolchain/0.2.0/arm/arm-none-eabi/include/c++/10.3.1/bits/stl_algobase.h ****       __glibcxx_requires_can_increment_range(__first, __last, __result);
 600:/Library/DaisyToolchain/0.2.0/arm/arm-none-eabi/include/c++/10.3.1/bits/stl_algobase.h **** 
 601:/Library/DaisyToolchain/0.2.0/arm/arm-none-eabi/include/c++/10.3.1/bits/stl_algobase.h ****       return std::__copy_move_a<true>(std::__miter_base(__first),
 602:/Library/DaisyToolchain/0.2.0/arm/arm-none-eabi/include/c++/10.3.1/bits/stl_algobase.h **** 				      std::__miter_base(__last), __result);
 603:/Library/DaisyToolchain/0.2.0/arm/arm-none-eabi/include/c++/10.3.1/bits/stl_algobase.h ****     }
 604:/Library/DaisyToolchain/0.2.0/arm/arm-none-eabi/include/c++/10.3.1/bits/stl_algobase.h **** 
 605:/Library/DaisyToolchain/0.2.0/arm/arm-none-eabi/include/c++/10.3.1/bits/stl_algobase.h **** #define _GLIBCXX_MOVE3(_Tp, _Up, _Vp) std::move(_Tp, _Up, _Vp)
 606:/Library/DaisyToolchain/0.2.0/arm/arm-none-eabi/include/c++/10.3.1/bits/stl_algobase.h **** #else
 607:/Library/DaisyToolchain/0.2.0/arm/arm-none-eabi/include/c++/10.3.1/bits/stl_algobase.h **** #define _GLIBCXX_MOVE3(_Tp, _Up, _Vp) std::copy(_Tp, _Up, _Vp)
 608:/Library/DaisyToolchain/0.2.0/arm/arm-none-eabi/include/c++/10.3.1/bits/stl_algobase.h **** #endif
 609:/Library/DaisyToolchain/0.2.0/arm/arm-none-eabi/include/c++/10.3.1/bits/stl_algobase.h **** 
 610:/Library/DaisyToolchain/0.2.0/arm/arm-none-eabi/include/c++/10.3.1/bits/stl_algobase.h ****   template<bool _IsMove, bool _IsSimple, typename _Category>
 611:/Library/DaisyToolchain/0.2.0/arm/arm-none-eabi/include/c++/10.3.1/bits/stl_algobase.h ****     struct __copy_move_backward
 612:/Library/DaisyToolchain/0.2.0/arm/arm-none-eabi/include/c++/10.3.1/bits/stl_algobase.h ****     {
 613:/Library/DaisyToolchain/0.2.0/arm/arm-none-eabi/include/c++/10.3.1/bits/stl_algobase.h ****       template<typename _BI1, typename _BI2>
 614:/Library/DaisyToolchain/0.2.0/arm/arm-none-eabi/include/c++/10.3.1/bits/stl_algobase.h **** 	_GLIBCXX20_CONSTEXPR
 615:/Library/DaisyToolchain/0.2.0/arm/arm-none-eabi/include/c++/10.3.1/bits/stl_algobase.h **** 	static _BI2
ARM GAS  /var/folders/9s/8rp0_f2s1n31qbztm3b5_fdh0000gn/T//ccQP8jK9.s 			page 44


 616:/Library/DaisyToolchain/0.2.0/arm/arm-none-eabi/include/c++/10.3.1/bits/stl_algobase.h **** 	__copy_move_b(_BI1 __first, _BI1 __last, _BI2 __result)
 617:/Library/DaisyToolchain/0.2.0/arm/arm-none-eabi/include/c++/10.3.1/bits/stl_algobase.h **** 	{
 618:/Library/DaisyToolchain/0.2.0/arm/arm-none-eabi/include/c++/10.3.1/bits/stl_algobase.h **** 	  while (__first != __last)
 619:/Library/DaisyToolchain/0.2.0/arm/arm-none-eabi/include/c++/10.3.1/bits/stl_algobase.h **** 	    *--__result = *--__last;
 620:/Library/DaisyToolchain/0.2.0/arm/arm-none-eabi/include/c++/10.3.1/bits/stl_algobase.h **** 	  return __result;
 621:/Library/DaisyToolchain/0.2.0/arm/arm-none-eabi/include/c++/10.3.1/bits/stl_algobase.h **** 	}
 622:/Library/DaisyToolchain/0.2.0/arm/arm-none-eabi/include/c++/10.3.1/bits/stl_algobase.h ****     };
 623:/Library/DaisyToolchain/0.2.0/arm/arm-none-eabi/include/c++/10.3.1/bits/stl_algobase.h **** 
 624:/Library/DaisyToolchain/0.2.0/arm/arm-none-eabi/include/c++/10.3.1/bits/stl_algobase.h **** #if __cplusplus >= 201103L
 625:/Library/DaisyToolchain/0.2.0/arm/arm-none-eabi/include/c++/10.3.1/bits/stl_algobase.h ****   template<typename _Category>
 626:/Library/DaisyToolchain/0.2.0/arm/arm-none-eabi/include/c++/10.3.1/bits/stl_algobase.h ****     struct __copy_move_backward<true, false, _Category>
 627:/Library/DaisyToolchain/0.2.0/arm/arm-none-eabi/include/c++/10.3.1/bits/stl_algobase.h ****     {
 628:/Library/DaisyToolchain/0.2.0/arm/arm-none-eabi/include/c++/10.3.1/bits/stl_algobase.h ****       template<typename _BI1, typename _BI2>
 629:/Library/DaisyToolchain/0.2.0/arm/arm-none-eabi/include/c++/10.3.1/bits/stl_algobase.h **** 	_GLIBCXX20_CONSTEXPR
 630:/Library/DaisyToolchain/0.2.0/arm/arm-none-eabi/include/c++/10.3.1/bits/stl_algobase.h **** 	static _BI2
 631:/Library/DaisyToolchain/0.2.0/arm/arm-none-eabi/include/c++/10.3.1/bits/stl_algobase.h **** 	__copy_move_b(_BI1 __first, _BI1 __last, _BI2 __result)
 632:/Library/DaisyToolchain/0.2.0/arm/arm-none-eabi/include/c++/10.3.1/bits/stl_algobase.h **** 	{
 633:/Library/DaisyToolchain/0.2.0/arm/arm-none-eabi/include/c++/10.3.1/bits/stl_algobase.h **** 	  while (__first != __last)
 634:/Library/DaisyToolchain/0.2.0/arm/arm-none-eabi/include/c++/10.3.1/bits/stl_algobase.h **** 	    *--__result = std::move(*--__last);
 635:/Library/DaisyToolchain/0.2.0/arm/arm-none-eabi/include/c++/10.3.1/bits/stl_algobase.h **** 	  return __result;
 636:/Library/DaisyToolchain/0.2.0/arm/arm-none-eabi/include/c++/10.3.1/bits/stl_algobase.h **** 	}
 637:/Library/DaisyToolchain/0.2.0/arm/arm-none-eabi/include/c++/10.3.1/bits/stl_algobase.h ****     };
 638:/Library/DaisyToolchain/0.2.0/arm/arm-none-eabi/include/c++/10.3.1/bits/stl_algobase.h **** #endif
 639:/Library/DaisyToolchain/0.2.0/arm/arm-none-eabi/include/c++/10.3.1/bits/stl_algobase.h **** 
 640:/Library/DaisyToolchain/0.2.0/arm/arm-none-eabi/include/c++/10.3.1/bits/stl_algobase.h ****   template<>
 641:/Library/DaisyToolchain/0.2.0/arm/arm-none-eabi/include/c++/10.3.1/bits/stl_algobase.h ****     struct __copy_move_backward<false, false, random_access_iterator_tag>
 642:/Library/DaisyToolchain/0.2.0/arm/arm-none-eabi/include/c++/10.3.1/bits/stl_algobase.h ****     {
 643:/Library/DaisyToolchain/0.2.0/arm/arm-none-eabi/include/c++/10.3.1/bits/stl_algobase.h ****       template<typename _BI1, typename _BI2>
 644:/Library/DaisyToolchain/0.2.0/arm/arm-none-eabi/include/c++/10.3.1/bits/stl_algobase.h **** 	_GLIBCXX20_CONSTEXPR
 645:/Library/DaisyToolchain/0.2.0/arm/arm-none-eabi/include/c++/10.3.1/bits/stl_algobase.h **** 	static _BI2
 646:/Library/DaisyToolchain/0.2.0/arm/arm-none-eabi/include/c++/10.3.1/bits/stl_algobase.h **** 	__copy_move_b(_BI1 __first, _BI1 __last, _BI2 __result)
 647:/Library/DaisyToolchain/0.2.0/arm/arm-none-eabi/include/c++/10.3.1/bits/stl_algobase.h **** 	{
 648:/Library/DaisyToolchain/0.2.0/arm/arm-none-eabi/include/c++/10.3.1/bits/stl_algobase.h **** 	  typename iterator_traits<_BI1>::difference_type
 649:/Library/DaisyToolchain/0.2.0/arm/arm-none-eabi/include/c++/10.3.1/bits/stl_algobase.h **** 	    __n = __last - __first;
 650:/Library/DaisyToolchain/0.2.0/arm/arm-none-eabi/include/c++/10.3.1/bits/stl_algobase.h **** 	  for (; __n > 0; --__n)
 651:/Library/DaisyToolchain/0.2.0/arm/arm-none-eabi/include/c++/10.3.1/bits/stl_algobase.h **** 	    *--__result = *--__last;
 652:/Library/DaisyToolchain/0.2.0/arm/arm-none-eabi/include/c++/10.3.1/bits/stl_algobase.h **** 	  return __result;
 653:/Library/DaisyToolchain/0.2.0/arm/arm-none-eabi/include/c++/10.3.1/bits/stl_algobase.h **** 	}
 654:/Library/DaisyToolchain/0.2.0/arm/arm-none-eabi/include/c++/10.3.1/bits/stl_algobase.h ****     };
 655:/Library/DaisyToolchain/0.2.0/arm/arm-none-eabi/include/c++/10.3.1/bits/stl_algobase.h **** 
 656:/Library/DaisyToolchain/0.2.0/arm/arm-none-eabi/include/c++/10.3.1/bits/stl_algobase.h **** #if __cplusplus >= 201103L
 657:/Library/DaisyToolchain/0.2.0/arm/arm-none-eabi/include/c++/10.3.1/bits/stl_algobase.h ****   template<>
 658:/Library/DaisyToolchain/0.2.0/arm/arm-none-eabi/include/c++/10.3.1/bits/stl_algobase.h ****     struct __copy_move_backward<true, false, random_access_iterator_tag>
 659:/Library/DaisyToolchain/0.2.0/arm/arm-none-eabi/include/c++/10.3.1/bits/stl_algobase.h ****     {
 660:/Library/DaisyToolchain/0.2.0/arm/arm-none-eabi/include/c++/10.3.1/bits/stl_algobase.h ****       template<typename _BI1, typename _BI2>
 661:/Library/DaisyToolchain/0.2.0/arm/arm-none-eabi/include/c++/10.3.1/bits/stl_algobase.h **** 	_GLIBCXX20_CONSTEXPR
 662:/Library/DaisyToolchain/0.2.0/arm/arm-none-eabi/include/c++/10.3.1/bits/stl_algobase.h **** 	static _BI2
 663:/Library/DaisyToolchain/0.2.0/arm/arm-none-eabi/include/c++/10.3.1/bits/stl_algobase.h **** 	__copy_move_b(_BI1 __first, _BI1 __last, _BI2 __result)
 664:/Library/DaisyToolchain/0.2.0/arm/arm-none-eabi/include/c++/10.3.1/bits/stl_algobase.h **** 	{
 665:/Library/DaisyToolchain/0.2.0/arm/arm-none-eabi/include/c++/10.3.1/bits/stl_algobase.h **** 	  typename iterator_traits<_BI1>::difference_type
 666:/Library/DaisyToolchain/0.2.0/arm/arm-none-eabi/include/c++/10.3.1/bits/stl_algobase.h **** 	    __n = __last - __first;
 667:/Library/DaisyToolchain/0.2.0/arm/arm-none-eabi/include/c++/10.3.1/bits/stl_algobase.h **** 	  for (; __n > 0; --__n)
 668:/Library/DaisyToolchain/0.2.0/arm/arm-none-eabi/include/c++/10.3.1/bits/stl_algobase.h **** 	    *--__result = std::move(*--__last);
 669:/Library/DaisyToolchain/0.2.0/arm/arm-none-eabi/include/c++/10.3.1/bits/stl_algobase.h **** 	  return __result;
 670:/Library/DaisyToolchain/0.2.0/arm/arm-none-eabi/include/c++/10.3.1/bits/stl_algobase.h **** 	}
 671:/Library/DaisyToolchain/0.2.0/arm/arm-none-eabi/include/c++/10.3.1/bits/stl_algobase.h ****     };
 672:/Library/DaisyToolchain/0.2.0/arm/arm-none-eabi/include/c++/10.3.1/bits/stl_algobase.h **** #endif
ARM GAS  /var/folders/9s/8rp0_f2s1n31qbztm3b5_fdh0000gn/T//ccQP8jK9.s 			page 45


 673:/Library/DaisyToolchain/0.2.0/arm/arm-none-eabi/include/c++/10.3.1/bits/stl_algobase.h **** 
 674:/Library/DaisyToolchain/0.2.0/arm/arm-none-eabi/include/c++/10.3.1/bits/stl_algobase.h ****   template<bool _IsMove>
 675:/Library/DaisyToolchain/0.2.0/arm/arm-none-eabi/include/c++/10.3.1/bits/stl_algobase.h ****     struct __copy_move_backward<_IsMove, true, random_access_iterator_tag>
 676:/Library/DaisyToolchain/0.2.0/arm/arm-none-eabi/include/c++/10.3.1/bits/stl_algobase.h ****     {
 677:/Library/DaisyToolchain/0.2.0/arm/arm-none-eabi/include/c++/10.3.1/bits/stl_algobase.h ****       template<typename _Tp>
 678:/Library/DaisyToolchain/0.2.0/arm/arm-none-eabi/include/c++/10.3.1/bits/stl_algobase.h **** 	_GLIBCXX20_CONSTEXPR
 679:/Library/DaisyToolchain/0.2.0/arm/arm-none-eabi/include/c++/10.3.1/bits/stl_algobase.h **** 	static _Tp*
 680:/Library/DaisyToolchain/0.2.0/arm/arm-none-eabi/include/c++/10.3.1/bits/stl_algobase.h **** 	__copy_move_b(const _Tp* __first, const _Tp* __last, _Tp* __result)
 681:/Library/DaisyToolchain/0.2.0/arm/arm-none-eabi/include/c++/10.3.1/bits/stl_algobase.h **** 	{
 682:/Library/DaisyToolchain/0.2.0/arm/arm-none-eabi/include/c++/10.3.1/bits/stl_algobase.h **** #if __cplusplus >= 201103L
 683:/Library/DaisyToolchain/0.2.0/arm/arm-none-eabi/include/c++/10.3.1/bits/stl_algobase.h **** 	  using __assignable = conditional<_IsMove,
 684:/Library/DaisyToolchain/0.2.0/arm/arm-none-eabi/include/c++/10.3.1/bits/stl_algobase.h **** 					   is_move_assignable<_Tp>,
 685:/Library/DaisyToolchain/0.2.0/arm/arm-none-eabi/include/c++/10.3.1/bits/stl_algobase.h **** 					   is_copy_assignable<_Tp>>;
 686:/Library/DaisyToolchain/0.2.0/arm/arm-none-eabi/include/c++/10.3.1/bits/stl_algobase.h **** 	  // trivial types can have deleted assignment
 687:/Library/DaisyToolchain/0.2.0/arm/arm-none-eabi/include/c++/10.3.1/bits/stl_algobase.h **** 	  static_assert( __assignable::type::value, "type is not assignable" );
 688:/Library/DaisyToolchain/0.2.0/arm/arm-none-eabi/include/c++/10.3.1/bits/stl_algobase.h **** #endif
 689:/Library/DaisyToolchain/0.2.0/arm/arm-none-eabi/include/c++/10.3.1/bits/stl_algobase.h **** 	  const ptrdiff_t _Num = __last - __first;
 690:/Library/DaisyToolchain/0.2.0/arm/arm-none-eabi/include/c++/10.3.1/bits/stl_algobase.h **** 	  if (_Num)
 691:/Library/DaisyToolchain/0.2.0/arm/arm-none-eabi/include/c++/10.3.1/bits/stl_algobase.h **** 	    __builtin_memmove(__result - _Num, __first, sizeof(_Tp) * _Num);
 692:/Library/DaisyToolchain/0.2.0/arm/arm-none-eabi/include/c++/10.3.1/bits/stl_algobase.h **** 	  return __result - _Num;
 693:/Library/DaisyToolchain/0.2.0/arm/arm-none-eabi/include/c++/10.3.1/bits/stl_algobase.h **** 	}
 694:/Library/DaisyToolchain/0.2.0/arm/arm-none-eabi/include/c++/10.3.1/bits/stl_algobase.h ****     };
 695:/Library/DaisyToolchain/0.2.0/arm/arm-none-eabi/include/c++/10.3.1/bits/stl_algobase.h **** 
 696:/Library/DaisyToolchain/0.2.0/arm/arm-none-eabi/include/c++/10.3.1/bits/stl_algobase.h ****   template<bool _IsMove, typename _BI1, typename _BI2>
 697:/Library/DaisyToolchain/0.2.0/arm/arm-none-eabi/include/c++/10.3.1/bits/stl_algobase.h ****     _GLIBCXX20_CONSTEXPR
 698:/Library/DaisyToolchain/0.2.0/arm/arm-none-eabi/include/c++/10.3.1/bits/stl_algobase.h ****     inline _BI2
 699:/Library/DaisyToolchain/0.2.0/arm/arm-none-eabi/include/c++/10.3.1/bits/stl_algobase.h ****     __copy_move_backward_a2(_BI1 __first, _BI1 __last, _BI2 __result)
 700:/Library/DaisyToolchain/0.2.0/arm/arm-none-eabi/include/c++/10.3.1/bits/stl_algobase.h ****     {
 701:/Library/DaisyToolchain/0.2.0/arm/arm-none-eabi/include/c++/10.3.1/bits/stl_algobase.h ****       typedef typename iterator_traits<_BI1>::iterator_category _Category;
 702:/Library/DaisyToolchain/0.2.0/arm/arm-none-eabi/include/c++/10.3.1/bits/stl_algobase.h **** #ifdef __cpp_lib_is_constant_evaluated
 703:/Library/DaisyToolchain/0.2.0/arm/arm-none-eabi/include/c++/10.3.1/bits/stl_algobase.h ****       if (std::is_constant_evaluated())
 704:/Library/DaisyToolchain/0.2.0/arm/arm-none-eabi/include/c++/10.3.1/bits/stl_algobase.h **** 	return std::__copy_move_backward<_IsMove, false, _Category>::
 705:/Library/DaisyToolchain/0.2.0/arm/arm-none-eabi/include/c++/10.3.1/bits/stl_algobase.h **** 	  __copy_move_b(__first, __last, __result);
 706:/Library/DaisyToolchain/0.2.0/arm/arm-none-eabi/include/c++/10.3.1/bits/stl_algobase.h **** #endif
 707:/Library/DaisyToolchain/0.2.0/arm/arm-none-eabi/include/c++/10.3.1/bits/stl_algobase.h ****       return std::__copy_move_backward<_IsMove,
 708:/Library/DaisyToolchain/0.2.0/arm/arm-none-eabi/include/c++/10.3.1/bits/stl_algobase.h **** 				       __memcpyable<_BI2, _BI1>::__value,
 709:/Library/DaisyToolchain/0.2.0/arm/arm-none-eabi/include/c++/10.3.1/bits/stl_algobase.h **** 				       _Category>::__copy_move_b(__first,
 710:/Library/DaisyToolchain/0.2.0/arm/arm-none-eabi/include/c++/10.3.1/bits/stl_algobase.h **** 								 __last,
 711:/Library/DaisyToolchain/0.2.0/arm/arm-none-eabi/include/c++/10.3.1/bits/stl_algobase.h **** 								 __result);
 712:/Library/DaisyToolchain/0.2.0/arm/arm-none-eabi/include/c++/10.3.1/bits/stl_algobase.h ****     }
 713:/Library/DaisyToolchain/0.2.0/arm/arm-none-eabi/include/c++/10.3.1/bits/stl_algobase.h **** 
 714:/Library/DaisyToolchain/0.2.0/arm/arm-none-eabi/include/c++/10.3.1/bits/stl_algobase.h ****   template<bool _IsMove, typename _BI1, typename _BI2>
 715:/Library/DaisyToolchain/0.2.0/arm/arm-none-eabi/include/c++/10.3.1/bits/stl_algobase.h ****     _GLIBCXX20_CONSTEXPR
 716:/Library/DaisyToolchain/0.2.0/arm/arm-none-eabi/include/c++/10.3.1/bits/stl_algobase.h ****     inline _BI2
 717:/Library/DaisyToolchain/0.2.0/arm/arm-none-eabi/include/c++/10.3.1/bits/stl_algobase.h ****     __copy_move_backward_a1(_BI1 __first, _BI1 __last, _BI2 __result)
 718:/Library/DaisyToolchain/0.2.0/arm/arm-none-eabi/include/c++/10.3.1/bits/stl_algobase.h ****     { return std::__copy_move_backward_a2<_IsMove>(__first, __last, __result); }
 719:/Library/DaisyToolchain/0.2.0/arm/arm-none-eabi/include/c++/10.3.1/bits/stl_algobase.h **** 
 720:/Library/DaisyToolchain/0.2.0/arm/arm-none-eabi/include/c++/10.3.1/bits/stl_algobase.h ****   template<bool _IsMove,
 721:/Library/DaisyToolchain/0.2.0/arm/arm-none-eabi/include/c++/10.3.1/bits/stl_algobase.h **** 	   typename _Tp, typename _Ref, typename _Ptr, typename _OI>
 722:/Library/DaisyToolchain/0.2.0/arm/arm-none-eabi/include/c++/10.3.1/bits/stl_algobase.h ****     _OI
 723:/Library/DaisyToolchain/0.2.0/arm/arm-none-eabi/include/c++/10.3.1/bits/stl_algobase.h ****     __copy_move_backward_a1(_GLIBCXX_STD_C::_Deque_iterator<_Tp, _Ref, _Ptr>,
 724:/Library/DaisyToolchain/0.2.0/arm/arm-none-eabi/include/c++/10.3.1/bits/stl_algobase.h **** 			    _GLIBCXX_STD_C::_Deque_iterator<_Tp, _Ref, _Ptr>,
 725:/Library/DaisyToolchain/0.2.0/arm/arm-none-eabi/include/c++/10.3.1/bits/stl_algobase.h **** 			    _OI);
 726:/Library/DaisyToolchain/0.2.0/arm/arm-none-eabi/include/c++/10.3.1/bits/stl_algobase.h **** 
 727:/Library/DaisyToolchain/0.2.0/arm/arm-none-eabi/include/c++/10.3.1/bits/stl_algobase.h ****   template<bool _IsMove,
 728:/Library/DaisyToolchain/0.2.0/arm/arm-none-eabi/include/c++/10.3.1/bits/stl_algobase.h **** 	   typename _ITp, typename _IRef, typename _IPtr, typename _OTp>
 729:/Library/DaisyToolchain/0.2.0/arm/arm-none-eabi/include/c++/10.3.1/bits/stl_algobase.h ****     _GLIBCXX_STD_C::_Deque_iterator<_OTp, _OTp&, _OTp*>
ARM GAS  /var/folders/9s/8rp0_f2s1n31qbztm3b5_fdh0000gn/T//ccQP8jK9.s 			page 46


 730:/Library/DaisyToolchain/0.2.0/arm/arm-none-eabi/include/c++/10.3.1/bits/stl_algobase.h ****     __copy_move_backward_a1(
 731:/Library/DaisyToolchain/0.2.0/arm/arm-none-eabi/include/c++/10.3.1/bits/stl_algobase.h **** 			_GLIBCXX_STD_C::_Deque_iterator<_ITp, _IRef, _IPtr>,
 732:/Library/DaisyToolchain/0.2.0/arm/arm-none-eabi/include/c++/10.3.1/bits/stl_algobase.h **** 			_GLIBCXX_STD_C::_Deque_iterator<_ITp, _IRef, _IPtr>,
 733:/Library/DaisyToolchain/0.2.0/arm/arm-none-eabi/include/c++/10.3.1/bits/stl_algobase.h **** 			_GLIBCXX_STD_C::_Deque_iterator<_OTp, _OTp&, _OTp*>);
 734:/Library/DaisyToolchain/0.2.0/arm/arm-none-eabi/include/c++/10.3.1/bits/stl_algobase.h **** 
 735:/Library/DaisyToolchain/0.2.0/arm/arm-none-eabi/include/c++/10.3.1/bits/stl_algobase.h ****   template<bool _IsMove, typename _II, typename _Tp>
 736:/Library/DaisyToolchain/0.2.0/arm/arm-none-eabi/include/c++/10.3.1/bits/stl_algobase.h ****     typename __gnu_cxx::__enable_if<
 737:/Library/DaisyToolchain/0.2.0/arm/arm-none-eabi/include/c++/10.3.1/bits/stl_algobase.h ****       __is_random_access_iter<_II>::__value,
 738:/Library/DaisyToolchain/0.2.0/arm/arm-none-eabi/include/c++/10.3.1/bits/stl_algobase.h ****       _GLIBCXX_STD_C::_Deque_iterator<_Tp, _Tp&, _Tp*> >::__type
 739:/Library/DaisyToolchain/0.2.0/arm/arm-none-eabi/include/c++/10.3.1/bits/stl_algobase.h ****     __copy_move_backward_a1(_II, _II,
 740:/Library/DaisyToolchain/0.2.0/arm/arm-none-eabi/include/c++/10.3.1/bits/stl_algobase.h **** 			    _GLIBCXX_STD_C::_Deque_iterator<_Tp, _Tp&, _Tp*>);
 741:/Library/DaisyToolchain/0.2.0/arm/arm-none-eabi/include/c++/10.3.1/bits/stl_algobase.h **** 
 742:/Library/DaisyToolchain/0.2.0/arm/arm-none-eabi/include/c++/10.3.1/bits/stl_algobase.h ****   template<bool _IsMove, typename _II, typename _OI>
 743:/Library/DaisyToolchain/0.2.0/arm/arm-none-eabi/include/c++/10.3.1/bits/stl_algobase.h ****     _GLIBCXX20_CONSTEXPR
 744:/Library/DaisyToolchain/0.2.0/arm/arm-none-eabi/include/c++/10.3.1/bits/stl_algobase.h ****     inline _OI
 745:/Library/DaisyToolchain/0.2.0/arm/arm-none-eabi/include/c++/10.3.1/bits/stl_algobase.h ****     __copy_move_backward_a(_II __first, _II __last, _OI __result)
 746:/Library/DaisyToolchain/0.2.0/arm/arm-none-eabi/include/c++/10.3.1/bits/stl_algobase.h ****     {
 747:/Library/DaisyToolchain/0.2.0/arm/arm-none-eabi/include/c++/10.3.1/bits/stl_algobase.h ****       return std::__niter_wrap(__result,
 748:/Library/DaisyToolchain/0.2.0/arm/arm-none-eabi/include/c++/10.3.1/bits/stl_algobase.h **** 		std::__copy_move_backward_a1<_IsMove>
 749:/Library/DaisyToolchain/0.2.0/arm/arm-none-eabi/include/c++/10.3.1/bits/stl_algobase.h **** 		  (std::__niter_base(__first), std::__niter_base(__last),
 750:/Library/DaisyToolchain/0.2.0/arm/arm-none-eabi/include/c++/10.3.1/bits/stl_algobase.h **** 		   std::__niter_base(__result)));
 751:/Library/DaisyToolchain/0.2.0/arm/arm-none-eabi/include/c++/10.3.1/bits/stl_algobase.h ****     }
 752:/Library/DaisyToolchain/0.2.0/arm/arm-none-eabi/include/c++/10.3.1/bits/stl_algobase.h **** 
 753:/Library/DaisyToolchain/0.2.0/arm/arm-none-eabi/include/c++/10.3.1/bits/stl_algobase.h ****   template<bool _IsMove,
 754:/Library/DaisyToolchain/0.2.0/arm/arm-none-eabi/include/c++/10.3.1/bits/stl_algobase.h **** 	   typename _Ite, typename _Seq, typename _Cat, typename _OI>
 755:/Library/DaisyToolchain/0.2.0/arm/arm-none-eabi/include/c++/10.3.1/bits/stl_algobase.h ****     _OI
 756:/Library/DaisyToolchain/0.2.0/arm/arm-none-eabi/include/c++/10.3.1/bits/stl_algobase.h ****     __copy_move_backward_a(
 757:/Library/DaisyToolchain/0.2.0/arm/arm-none-eabi/include/c++/10.3.1/bits/stl_algobase.h **** 		const ::__gnu_debug::_Safe_iterator<_Ite, _Seq, _Cat>&,
 758:/Library/DaisyToolchain/0.2.0/arm/arm-none-eabi/include/c++/10.3.1/bits/stl_algobase.h **** 		const ::__gnu_debug::_Safe_iterator<_Ite, _Seq, _Cat>&,
 759:/Library/DaisyToolchain/0.2.0/arm/arm-none-eabi/include/c++/10.3.1/bits/stl_algobase.h **** 		_OI);
 760:/Library/DaisyToolchain/0.2.0/arm/arm-none-eabi/include/c++/10.3.1/bits/stl_algobase.h **** 
 761:/Library/DaisyToolchain/0.2.0/arm/arm-none-eabi/include/c++/10.3.1/bits/stl_algobase.h ****   template<bool _IsMove,
 762:/Library/DaisyToolchain/0.2.0/arm/arm-none-eabi/include/c++/10.3.1/bits/stl_algobase.h **** 	   typename _II, typename _Ite, typename _Seq, typename _Cat>
 763:/Library/DaisyToolchain/0.2.0/arm/arm-none-eabi/include/c++/10.3.1/bits/stl_algobase.h ****     __gnu_debug::_Safe_iterator<_Ite, _Seq, _Cat>
 764:/Library/DaisyToolchain/0.2.0/arm/arm-none-eabi/include/c++/10.3.1/bits/stl_algobase.h ****     __copy_move_backward_a(_II, _II,
 765:/Library/DaisyToolchain/0.2.0/arm/arm-none-eabi/include/c++/10.3.1/bits/stl_algobase.h **** 		const ::__gnu_debug::_Safe_iterator<_Ite, _Seq, _Cat>&);
 766:/Library/DaisyToolchain/0.2.0/arm/arm-none-eabi/include/c++/10.3.1/bits/stl_algobase.h **** 
 767:/Library/DaisyToolchain/0.2.0/arm/arm-none-eabi/include/c++/10.3.1/bits/stl_algobase.h ****   template<bool _IsMove,
 768:/Library/DaisyToolchain/0.2.0/arm/arm-none-eabi/include/c++/10.3.1/bits/stl_algobase.h **** 	   typename _IIte, typename _ISeq, typename _ICat,
 769:/Library/DaisyToolchain/0.2.0/arm/arm-none-eabi/include/c++/10.3.1/bits/stl_algobase.h **** 	   typename _OIte, typename _OSeq, typename _OCat>
 770:/Library/DaisyToolchain/0.2.0/arm/arm-none-eabi/include/c++/10.3.1/bits/stl_algobase.h ****     ::__gnu_debug::_Safe_iterator<_OIte, _OSeq, _OCat>
 771:/Library/DaisyToolchain/0.2.0/arm/arm-none-eabi/include/c++/10.3.1/bits/stl_algobase.h ****     __copy_move_backward_a(
 772:/Library/DaisyToolchain/0.2.0/arm/arm-none-eabi/include/c++/10.3.1/bits/stl_algobase.h **** 		const ::__gnu_debug::_Safe_iterator<_IIte, _ISeq, _ICat>&,
 773:/Library/DaisyToolchain/0.2.0/arm/arm-none-eabi/include/c++/10.3.1/bits/stl_algobase.h **** 		const ::__gnu_debug::_Safe_iterator<_IIte, _ISeq, _ICat>&,
 774:/Library/DaisyToolchain/0.2.0/arm/arm-none-eabi/include/c++/10.3.1/bits/stl_algobase.h **** 		const ::__gnu_debug::_Safe_iterator<_OIte, _OSeq, _OCat>&);
 775:/Library/DaisyToolchain/0.2.0/arm/arm-none-eabi/include/c++/10.3.1/bits/stl_algobase.h **** 
 776:/Library/DaisyToolchain/0.2.0/arm/arm-none-eabi/include/c++/10.3.1/bits/stl_algobase.h ****   /**
 777:/Library/DaisyToolchain/0.2.0/arm/arm-none-eabi/include/c++/10.3.1/bits/stl_algobase.h ****    *  @brief Copies the range [first,last) into result.
 778:/Library/DaisyToolchain/0.2.0/arm/arm-none-eabi/include/c++/10.3.1/bits/stl_algobase.h ****    *  @ingroup mutating_algorithms
 779:/Library/DaisyToolchain/0.2.0/arm/arm-none-eabi/include/c++/10.3.1/bits/stl_algobase.h ****    *  @param  __first  A bidirectional iterator.
 780:/Library/DaisyToolchain/0.2.0/arm/arm-none-eabi/include/c++/10.3.1/bits/stl_algobase.h ****    *  @param  __last   A bidirectional iterator.
 781:/Library/DaisyToolchain/0.2.0/arm/arm-none-eabi/include/c++/10.3.1/bits/stl_algobase.h ****    *  @param  __result A bidirectional iterator.
 782:/Library/DaisyToolchain/0.2.0/arm/arm-none-eabi/include/c++/10.3.1/bits/stl_algobase.h ****    *  @return   result - (last - first)
 783:/Library/DaisyToolchain/0.2.0/arm/arm-none-eabi/include/c++/10.3.1/bits/stl_algobase.h ****    *
 784:/Library/DaisyToolchain/0.2.0/arm/arm-none-eabi/include/c++/10.3.1/bits/stl_algobase.h ****    *  The function has the same effect as copy, but starts at the end of the
 785:/Library/DaisyToolchain/0.2.0/arm/arm-none-eabi/include/c++/10.3.1/bits/stl_algobase.h ****    *  range and works its way to the start, returning the start of the result.
 786:/Library/DaisyToolchain/0.2.0/arm/arm-none-eabi/include/c++/10.3.1/bits/stl_algobase.h ****    *  This inline function will boil down to a call to @c memmove whenever
ARM GAS  /var/folders/9s/8rp0_f2s1n31qbztm3b5_fdh0000gn/T//ccQP8jK9.s 			page 47


 787:/Library/DaisyToolchain/0.2.0/arm/arm-none-eabi/include/c++/10.3.1/bits/stl_algobase.h ****    *  possible.  Failing that, if random access iterators are passed, then the
 788:/Library/DaisyToolchain/0.2.0/arm/arm-none-eabi/include/c++/10.3.1/bits/stl_algobase.h ****    *  loop count will be known (and therefore a candidate for compiler
 789:/Library/DaisyToolchain/0.2.0/arm/arm-none-eabi/include/c++/10.3.1/bits/stl_algobase.h ****    *  optimizations such as unrolling).
 790:/Library/DaisyToolchain/0.2.0/arm/arm-none-eabi/include/c++/10.3.1/bits/stl_algobase.h ****    *
 791:/Library/DaisyToolchain/0.2.0/arm/arm-none-eabi/include/c++/10.3.1/bits/stl_algobase.h ****    *  Result may not be in the range (first,last].  Use copy instead.  Note
 792:/Library/DaisyToolchain/0.2.0/arm/arm-none-eabi/include/c++/10.3.1/bits/stl_algobase.h ****    *  that the start of the output range may overlap [first,last).
 793:/Library/DaisyToolchain/0.2.0/arm/arm-none-eabi/include/c++/10.3.1/bits/stl_algobase.h ****   */
 794:/Library/DaisyToolchain/0.2.0/arm/arm-none-eabi/include/c++/10.3.1/bits/stl_algobase.h ****   template<typename _BI1, typename _BI2>
 795:/Library/DaisyToolchain/0.2.0/arm/arm-none-eabi/include/c++/10.3.1/bits/stl_algobase.h ****     _GLIBCXX20_CONSTEXPR
 796:/Library/DaisyToolchain/0.2.0/arm/arm-none-eabi/include/c++/10.3.1/bits/stl_algobase.h ****     inline _BI2
 797:/Library/DaisyToolchain/0.2.0/arm/arm-none-eabi/include/c++/10.3.1/bits/stl_algobase.h ****     copy_backward(_BI1 __first, _BI1 __last, _BI2 __result)
 798:/Library/DaisyToolchain/0.2.0/arm/arm-none-eabi/include/c++/10.3.1/bits/stl_algobase.h ****     {
 799:/Library/DaisyToolchain/0.2.0/arm/arm-none-eabi/include/c++/10.3.1/bits/stl_algobase.h ****       // concept requirements
 800:/Library/DaisyToolchain/0.2.0/arm/arm-none-eabi/include/c++/10.3.1/bits/stl_algobase.h ****       __glibcxx_function_requires(_BidirectionalIteratorConcept<_BI1>)
 801:/Library/DaisyToolchain/0.2.0/arm/arm-none-eabi/include/c++/10.3.1/bits/stl_algobase.h ****       __glibcxx_function_requires(_Mutable_BidirectionalIteratorConcept<_BI2>)
 802:/Library/DaisyToolchain/0.2.0/arm/arm-none-eabi/include/c++/10.3.1/bits/stl_algobase.h ****       __glibcxx_function_requires(_ConvertibleConcept<
 803:/Library/DaisyToolchain/0.2.0/arm/arm-none-eabi/include/c++/10.3.1/bits/stl_algobase.h **** 	    typename iterator_traits<_BI1>::value_type,
 804:/Library/DaisyToolchain/0.2.0/arm/arm-none-eabi/include/c++/10.3.1/bits/stl_algobase.h **** 	    typename iterator_traits<_BI2>::value_type>)
 805:/Library/DaisyToolchain/0.2.0/arm/arm-none-eabi/include/c++/10.3.1/bits/stl_algobase.h ****       __glibcxx_requires_can_decrement_range(__first, __last, __result);
 806:/Library/DaisyToolchain/0.2.0/arm/arm-none-eabi/include/c++/10.3.1/bits/stl_algobase.h **** 
 807:/Library/DaisyToolchain/0.2.0/arm/arm-none-eabi/include/c++/10.3.1/bits/stl_algobase.h ****       return std::__copy_move_backward_a<__is_move_iterator<_BI1>::__value>
 808:/Library/DaisyToolchain/0.2.0/arm/arm-none-eabi/include/c++/10.3.1/bits/stl_algobase.h **** 	     (std::__miter_base(__first), std::__miter_base(__last), __result);
 809:/Library/DaisyToolchain/0.2.0/arm/arm-none-eabi/include/c++/10.3.1/bits/stl_algobase.h ****     }
 810:/Library/DaisyToolchain/0.2.0/arm/arm-none-eabi/include/c++/10.3.1/bits/stl_algobase.h **** 
 811:/Library/DaisyToolchain/0.2.0/arm/arm-none-eabi/include/c++/10.3.1/bits/stl_algobase.h **** #if __cplusplus >= 201103L
 812:/Library/DaisyToolchain/0.2.0/arm/arm-none-eabi/include/c++/10.3.1/bits/stl_algobase.h ****   /**
 813:/Library/DaisyToolchain/0.2.0/arm/arm-none-eabi/include/c++/10.3.1/bits/stl_algobase.h ****    *  @brief Moves the range [first,last) into result.
 814:/Library/DaisyToolchain/0.2.0/arm/arm-none-eabi/include/c++/10.3.1/bits/stl_algobase.h ****    *  @ingroup mutating_algorithms
 815:/Library/DaisyToolchain/0.2.0/arm/arm-none-eabi/include/c++/10.3.1/bits/stl_algobase.h ****    *  @param  __first  A bidirectional iterator.
 816:/Library/DaisyToolchain/0.2.0/arm/arm-none-eabi/include/c++/10.3.1/bits/stl_algobase.h ****    *  @param  __last   A bidirectional iterator.
 817:/Library/DaisyToolchain/0.2.0/arm/arm-none-eabi/include/c++/10.3.1/bits/stl_algobase.h ****    *  @param  __result A bidirectional iterator.
 818:/Library/DaisyToolchain/0.2.0/arm/arm-none-eabi/include/c++/10.3.1/bits/stl_algobase.h ****    *  @return   result - (last - first)
 819:/Library/DaisyToolchain/0.2.0/arm/arm-none-eabi/include/c++/10.3.1/bits/stl_algobase.h ****    *
 820:/Library/DaisyToolchain/0.2.0/arm/arm-none-eabi/include/c++/10.3.1/bits/stl_algobase.h ****    *  The function has the same effect as move, but starts at the end of the
 821:/Library/DaisyToolchain/0.2.0/arm/arm-none-eabi/include/c++/10.3.1/bits/stl_algobase.h ****    *  range and works its way to the start, returning the start of the result.
 822:/Library/DaisyToolchain/0.2.0/arm/arm-none-eabi/include/c++/10.3.1/bits/stl_algobase.h ****    *  This inline function will boil down to a call to @c memmove whenever
 823:/Library/DaisyToolchain/0.2.0/arm/arm-none-eabi/include/c++/10.3.1/bits/stl_algobase.h ****    *  possible.  Failing that, if random access iterators are passed, then the
 824:/Library/DaisyToolchain/0.2.0/arm/arm-none-eabi/include/c++/10.3.1/bits/stl_algobase.h ****    *  loop count will be known (and therefore a candidate for compiler
 825:/Library/DaisyToolchain/0.2.0/arm/arm-none-eabi/include/c++/10.3.1/bits/stl_algobase.h ****    *  optimizations such as unrolling).
 826:/Library/DaisyToolchain/0.2.0/arm/arm-none-eabi/include/c++/10.3.1/bits/stl_algobase.h ****    *
 827:/Library/DaisyToolchain/0.2.0/arm/arm-none-eabi/include/c++/10.3.1/bits/stl_algobase.h ****    *  Result may not be in the range (first,last].  Use move instead.  Note
 828:/Library/DaisyToolchain/0.2.0/arm/arm-none-eabi/include/c++/10.3.1/bits/stl_algobase.h ****    *  that the start of the output range may overlap [first,last).
 829:/Library/DaisyToolchain/0.2.0/arm/arm-none-eabi/include/c++/10.3.1/bits/stl_algobase.h ****   */
 830:/Library/DaisyToolchain/0.2.0/arm/arm-none-eabi/include/c++/10.3.1/bits/stl_algobase.h ****   template<typename _BI1, typename _BI2>
 831:/Library/DaisyToolchain/0.2.0/arm/arm-none-eabi/include/c++/10.3.1/bits/stl_algobase.h ****     _GLIBCXX20_CONSTEXPR
 832:/Library/DaisyToolchain/0.2.0/arm/arm-none-eabi/include/c++/10.3.1/bits/stl_algobase.h ****     inline _BI2
 833:/Library/DaisyToolchain/0.2.0/arm/arm-none-eabi/include/c++/10.3.1/bits/stl_algobase.h ****     move_backward(_BI1 __first, _BI1 __last, _BI2 __result)
 834:/Library/DaisyToolchain/0.2.0/arm/arm-none-eabi/include/c++/10.3.1/bits/stl_algobase.h ****     {
 835:/Library/DaisyToolchain/0.2.0/arm/arm-none-eabi/include/c++/10.3.1/bits/stl_algobase.h ****       // concept requirements
 836:/Library/DaisyToolchain/0.2.0/arm/arm-none-eabi/include/c++/10.3.1/bits/stl_algobase.h ****       __glibcxx_function_requires(_BidirectionalIteratorConcept<_BI1>)
 837:/Library/DaisyToolchain/0.2.0/arm/arm-none-eabi/include/c++/10.3.1/bits/stl_algobase.h ****       __glibcxx_function_requires(_Mutable_BidirectionalIteratorConcept<_BI2>)
 838:/Library/DaisyToolchain/0.2.0/arm/arm-none-eabi/include/c++/10.3.1/bits/stl_algobase.h ****       __glibcxx_function_requires(_ConvertibleConcept<
 839:/Library/DaisyToolchain/0.2.0/arm/arm-none-eabi/include/c++/10.3.1/bits/stl_algobase.h **** 	    typename iterator_traits<_BI1>::value_type,
 840:/Library/DaisyToolchain/0.2.0/arm/arm-none-eabi/include/c++/10.3.1/bits/stl_algobase.h **** 	    typename iterator_traits<_BI2>::value_type>)
 841:/Library/DaisyToolchain/0.2.0/arm/arm-none-eabi/include/c++/10.3.1/bits/stl_algobase.h ****       __glibcxx_requires_can_decrement_range(__first, __last, __result);
 842:/Library/DaisyToolchain/0.2.0/arm/arm-none-eabi/include/c++/10.3.1/bits/stl_algobase.h **** 
 843:/Library/DaisyToolchain/0.2.0/arm/arm-none-eabi/include/c++/10.3.1/bits/stl_algobase.h ****       return std::__copy_move_backward_a<true>(std::__miter_base(__first),
ARM GAS  /var/folders/9s/8rp0_f2s1n31qbztm3b5_fdh0000gn/T//ccQP8jK9.s 			page 48


 844:/Library/DaisyToolchain/0.2.0/arm/arm-none-eabi/include/c++/10.3.1/bits/stl_algobase.h **** 					       std::__miter_base(__last),
 845:/Library/DaisyToolchain/0.2.0/arm/arm-none-eabi/include/c++/10.3.1/bits/stl_algobase.h **** 					       __result);
 846:/Library/DaisyToolchain/0.2.0/arm/arm-none-eabi/include/c++/10.3.1/bits/stl_algobase.h ****     }
 847:/Library/DaisyToolchain/0.2.0/arm/arm-none-eabi/include/c++/10.3.1/bits/stl_algobase.h **** 
 848:/Library/DaisyToolchain/0.2.0/arm/arm-none-eabi/include/c++/10.3.1/bits/stl_algobase.h **** #define _GLIBCXX_MOVE_BACKWARD3(_Tp, _Up, _Vp) std::move_backward(_Tp, _Up, _Vp)
 849:/Library/DaisyToolchain/0.2.0/arm/arm-none-eabi/include/c++/10.3.1/bits/stl_algobase.h **** #else
 850:/Library/DaisyToolchain/0.2.0/arm/arm-none-eabi/include/c++/10.3.1/bits/stl_algobase.h **** #define _GLIBCXX_MOVE_BACKWARD3(_Tp, _Up, _Vp) std::copy_backward(_Tp, _Up, _Vp)
 851:/Library/DaisyToolchain/0.2.0/arm/arm-none-eabi/include/c++/10.3.1/bits/stl_algobase.h **** #endif
 852:/Library/DaisyToolchain/0.2.0/arm/arm-none-eabi/include/c++/10.3.1/bits/stl_algobase.h **** 
 853:/Library/DaisyToolchain/0.2.0/arm/arm-none-eabi/include/c++/10.3.1/bits/stl_algobase.h ****   template<typename _ForwardIterator, typename _Tp>
 854:/Library/DaisyToolchain/0.2.0/arm/arm-none-eabi/include/c++/10.3.1/bits/stl_algobase.h ****     _GLIBCXX20_CONSTEXPR
 855:/Library/DaisyToolchain/0.2.0/arm/arm-none-eabi/include/c++/10.3.1/bits/stl_algobase.h ****     inline typename
 856:/Library/DaisyToolchain/0.2.0/arm/arm-none-eabi/include/c++/10.3.1/bits/stl_algobase.h ****     __gnu_cxx::__enable_if<!__is_scalar<_Tp>::__value, void>::__type
 857:/Library/DaisyToolchain/0.2.0/arm/arm-none-eabi/include/c++/10.3.1/bits/stl_algobase.h ****     __fill_a1(_ForwardIterator __first, _ForwardIterator __last,
 858:/Library/DaisyToolchain/0.2.0/arm/arm-none-eabi/include/c++/10.3.1/bits/stl_algobase.h **** 	      const _Tp& __value)
 859:/Library/DaisyToolchain/0.2.0/arm/arm-none-eabi/include/c++/10.3.1/bits/stl_algobase.h ****     {
 860:/Library/DaisyToolchain/0.2.0/arm/arm-none-eabi/include/c++/10.3.1/bits/stl_algobase.h ****       for (; __first != __last; ++__first)
 861:/Library/DaisyToolchain/0.2.0/arm/arm-none-eabi/include/c++/10.3.1/bits/stl_algobase.h **** 	*__first = __value;
 862:/Library/DaisyToolchain/0.2.0/arm/arm-none-eabi/include/c++/10.3.1/bits/stl_algobase.h ****     }
 863:/Library/DaisyToolchain/0.2.0/arm/arm-none-eabi/include/c++/10.3.1/bits/stl_algobase.h **** 
 864:/Library/DaisyToolchain/0.2.0/arm/arm-none-eabi/include/c++/10.3.1/bits/stl_algobase.h ****   template<typename _ForwardIterator, typename _Tp>
 865:/Library/DaisyToolchain/0.2.0/arm/arm-none-eabi/include/c++/10.3.1/bits/stl_algobase.h ****     _GLIBCXX20_CONSTEXPR
 866:/Library/DaisyToolchain/0.2.0/arm/arm-none-eabi/include/c++/10.3.1/bits/stl_algobase.h ****     inline typename
 867:/Library/DaisyToolchain/0.2.0/arm/arm-none-eabi/include/c++/10.3.1/bits/stl_algobase.h ****     __gnu_cxx::__enable_if<__is_scalar<_Tp>::__value, void>::__type
 868:/Library/DaisyToolchain/0.2.0/arm/arm-none-eabi/include/c++/10.3.1/bits/stl_algobase.h ****     __fill_a1(_ForwardIterator __first, _ForwardIterator __last,
 869:/Library/DaisyToolchain/0.2.0/arm/arm-none-eabi/include/c++/10.3.1/bits/stl_algobase.h **** 	      const _Tp& __value)
 870:/Library/DaisyToolchain/0.2.0/arm/arm-none-eabi/include/c++/10.3.1/bits/stl_algobase.h ****     {
 871:/Library/DaisyToolchain/0.2.0/arm/arm-none-eabi/include/c++/10.3.1/bits/stl_algobase.h ****       const _Tp __tmp = __value;
 872:/Library/DaisyToolchain/0.2.0/arm/arm-none-eabi/include/c++/10.3.1/bits/stl_algobase.h ****       for (; __first != __last; ++__first)
 873:/Library/DaisyToolchain/0.2.0/arm/arm-none-eabi/include/c++/10.3.1/bits/stl_algobase.h **** 	*__first = __tmp;
 930              		.loc 7 873 11 view .LVU229
 931 0006 1822     		movs	r2, #24
 932              	.LBE403:
 933              	.LBE402:
 934              	.LBE401:
 935              	.LBE400:
 936              	.LBE399:
 937              	.LBE398:
 938              	.LBE422:
 939              	.LBE425:
  36:eurorack/plaits/dsp/engine/hi_hat_engine.cc ****   hi_hat_1_.Init();
 940              		.loc 1 36 52 view .LVU230
 941 0008 0D46     		mov	r5, r1
 942              	.LBB426:
 943              	.LBB423:
 944              		.loc 2 170 15 view .LVU231
 945 000a 0661     		str	r6, [r0, #16]	@ float
 946              	.LBB419:
 947              	.LBB416:
 948              	.LBB413:
 949              	.LBB410:
 950              	.LBB407:
 951              	.LBB404:
 952              		.loc 7 873 11 view .LVU232
 953 000c 0021     		movs	r1, #0
 954              	.LVL68:
 955              		.loc 7 873 11 view .LVU233
ARM GAS  /var/folders/9s/8rp0_f2s1n31qbztm3b5_fdh0000gn/T//ccQP8jK9.s 			page 49


 956              	.LBE404:
 957              	.LBE407:
 958              	.LBE410:
 959              	.LBE413:
 960              	.LBE416:
 961              	.LBE419:
 171:eurorack/plaits/dsp/drums/hi_hat.h ****     noise_clock_ = 0.0f;
 962              		.loc 2 171 18 view .LVU234
 963 000e 4661     		str	r6, [r0, #20]	@ float
 964              	.LBB420:
 965              	.LBB417:
 966              	.LBB414:
 967              	.LBB411:
 968              	.LBB408:
 969              	.LBB405:
 970              		.loc 7 873 11 view .LVU235
 971 0010 2030     		adds	r0, r0, #32
 972              	.LVL69:
 973              		.loc 7 873 11 view .LVU236
 974              	.LBE405:
 975              	.LBE408:
 976              	.LBE411:
 977              	.LBE414:
 978              	.LBE417:
 979              	.LBE420:
 172:eurorack/plaits/dsp/drums/hi_hat.h ****     noise_sample_ = 0.0f;
 980              		.loc 2 172 19 view .LVU237
 981 0012 40F8086C 		str	r6, [r0, #-8]	@ float
 173:eurorack/plaits/dsp/drums/hi_hat.h ****     sustain_gain_ = 0.0f;
 982              		.loc 2 173 19 view .LVU238
 983 0016 40F8046C 		str	r6, [r0, #-4]	@ float
 984              	.LVL70:
 985              	.LBB421:
 986              	.LBI398:
  53:eurorack/plaits/dsp/drums/hi_hat.h ****     std::fill(&phase_[0], &phase_[6], 0);
 987              		.loc 2 53 8 is_stmt 1 view .LVU239
 988              	.LBB418:
  54:eurorack/plaits/dsp/drums/hi_hat.h ****   }
 989              		.loc 2 54 5 view .LVU240
 990              	.LBB415:
 991              	.LBI400:
 874:/Library/DaisyToolchain/0.2.0/arm/arm-none-eabi/include/c++/10.3.1/bits/stl_algobase.h ****     }
 875:/Library/DaisyToolchain/0.2.0/arm/arm-none-eabi/include/c++/10.3.1/bits/stl_algobase.h **** 
 876:/Library/DaisyToolchain/0.2.0/arm/arm-none-eabi/include/c++/10.3.1/bits/stl_algobase.h ****   // Specialization: for char types we can use memset.
 877:/Library/DaisyToolchain/0.2.0/arm/arm-none-eabi/include/c++/10.3.1/bits/stl_algobase.h ****   template<typename _Tp>
 878:/Library/DaisyToolchain/0.2.0/arm/arm-none-eabi/include/c++/10.3.1/bits/stl_algobase.h ****     _GLIBCXX20_CONSTEXPR
 879:/Library/DaisyToolchain/0.2.0/arm/arm-none-eabi/include/c++/10.3.1/bits/stl_algobase.h ****     inline typename
 880:/Library/DaisyToolchain/0.2.0/arm/arm-none-eabi/include/c++/10.3.1/bits/stl_algobase.h ****     __gnu_cxx::__enable_if<__is_byte<_Tp>::__value, void>::__type
 881:/Library/DaisyToolchain/0.2.0/arm/arm-none-eabi/include/c++/10.3.1/bits/stl_algobase.h ****     __fill_a1(_Tp* __first, _Tp* __last, const _Tp& __c)
 882:/Library/DaisyToolchain/0.2.0/arm/arm-none-eabi/include/c++/10.3.1/bits/stl_algobase.h ****     {
 883:/Library/DaisyToolchain/0.2.0/arm/arm-none-eabi/include/c++/10.3.1/bits/stl_algobase.h ****       const _Tp __tmp = __c;
 884:/Library/DaisyToolchain/0.2.0/arm/arm-none-eabi/include/c++/10.3.1/bits/stl_algobase.h **** #if __cpp_lib_is_constant_evaluated
 885:/Library/DaisyToolchain/0.2.0/arm/arm-none-eabi/include/c++/10.3.1/bits/stl_algobase.h ****       if (std::is_constant_evaluated())
 886:/Library/DaisyToolchain/0.2.0/arm/arm-none-eabi/include/c++/10.3.1/bits/stl_algobase.h **** 	{
 887:/Library/DaisyToolchain/0.2.0/arm/arm-none-eabi/include/c++/10.3.1/bits/stl_algobase.h **** 	  for (; __first != __last; ++__first)
 888:/Library/DaisyToolchain/0.2.0/arm/arm-none-eabi/include/c++/10.3.1/bits/stl_algobase.h **** 	    *__first = __tmp;
 889:/Library/DaisyToolchain/0.2.0/arm/arm-none-eabi/include/c++/10.3.1/bits/stl_algobase.h **** 	  return;
ARM GAS  /var/folders/9s/8rp0_f2s1n31qbztm3b5_fdh0000gn/T//ccQP8jK9.s 			page 50


 890:/Library/DaisyToolchain/0.2.0/arm/arm-none-eabi/include/c++/10.3.1/bits/stl_algobase.h **** 	}
 891:/Library/DaisyToolchain/0.2.0/arm/arm-none-eabi/include/c++/10.3.1/bits/stl_algobase.h **** #endif
 892:/Library/DaisyToolchain/0.2.0/arm/arm-none-eabi/include/c++/10.3.1/bits/stl_algobase.h ****       if (const size_t __len = __last - __first)
 893:/Library/DaisyToolchain/0.2.0/arm/arm-none-eabi/include/c++/10.3.1/bits/stl_algobase.h **** 	__builtin_memset(__first, static_cast<unsigned char>(__tmp), __len);
 894:/Library/DaisyToolchain/0.2.0/arm/arm-none-eabi/include/c++/10.3.1/bits/stl_algobase.h ****     }
 895:/Library/DaisyToolchain/0.2.0/arm/arm-none-eabi/include/c++/10.3.1/bits/stl_algobase.h **** 
 896:/Library/DaisyToolchain/0.2.0/arm/arm-none-eabi/include/c++/10.3.1/bits/stl_algobase.h ****   template<typename _Ite, typename _Cont, typename _Tp>
 897:/Library/DaisyToolchain/0.2.0/arm/arm-none-eabi/include/c++/10.3.1/bits/stl_algobase.h ****     _GLIBCXX20_CONSTEXPR
 898:/Library/DaisyToolchain/0.2.0/arm/arm-none-eabi/include/c++/10.3.1/bits/stl_algobase.h ****     inline void
 899:/Library/DaisyToolchain/0.2.0/arm/arm-none-eabi/include/c++/10.3.1/bits/stl_algobase.h ****     __fill_a1(::__gnu_cxx::__normal_iterator<_Ite, _Cont> __first,
 900:/Library/DaisyToolchain/0.2.0/arm/arm-none-eabi/include/c++/10.3.1/bits/stl_algobase.h **** 	      ::__gnu_cxx::__normal_iterator<_Ite, _Cont> __last,
 901:/Library/DaisyToolchain/0.2.0/arm/arm-none-eabi/include/c++/10.3.1/bits/stl_algobase.h **** 	      const _Tp& __value)
 902:/Library/DaisyToolchain/0.2.0/arm/arm-none-eabi/include/c++/10.3.1/bits/stl_algobase.h ****     { std::__fill_a1(__first.base(), __last.base(), __value); }
 903:/Library/DaisyToolchain/0.2.0/arm/arm-none-eabi/include/c++/10.3.1/bits/stl_algobase.h **** 
 904:/Library/DaisyToolchain/0.2.0/arm/arm-none-eabi/include/c++/10.3.1/bits/stl_algobase.h ****   template<typename _Tp, typename _VTp>
 905:/Library/DaisyToolchain/0.2.0/arm/arm-none-eabi/include/c++/10.3.1/bits/stl_algobase.h ****     void
 906:/Library/DaisyToolchain/0.2.0/arm/arm-none-eabi/include/c++/10.3.1/bits/stl_algobase.h ****     __fill_a1(const _GLIBCXX_STD_C::_Deque_iterator<_Tp, _Tp&, _Tp*>&,
 907:/Library/DaisyToolchain/0.2.0/arm/arm-none-eabi/include/c++/10.3.1/bits/stl_algobase.h **** 	      const _GLIBCXX_STD_C::_Deque_iterator<_Tp, _Tp&, _Tp*>&,
 908:/Library/DaisyToolchain/0.2.0/arm/arm-none-eabi/include/c++/10.3.1/bits/stl_algobase.h **** 	      const _VTp&);
 909:/Library/DaisyToolchain/0.2.0/arm/arm-none-eabi/include/c++/10.3.1/bits/stl_algobase.h **** 
 910:/Library/DaisyToolchain/0.2.0/arm/arm-none-eabi/include/c++/10.3.1/bits/stl_algobase.h ****   template<typename _FIte, typename _Tp>
 911:/Library/DaisyToolchain/0.2.0/arm/arm-none-eabi/include/c++/10.3.1/bits/stl_algobase.h ****     _GLIBCXX20_CONSTEXPR
 912:/Library/DaisyToolchain/0.2.0/arm/arm-none-eabi/include/c++/10.3.1/bits/stl_algobase.h ****     inline void
 913:/Library/DaisyToolchain/0.2.0/arm/arm-none-eabi/include/c++/10.3.1/bits/stl_algobase.h ****     __fill_a(_FIte __first, _FIte __last, const _Tp& __value)
 914:/Library/DaisyToolchain/0.2.0/arm/arm-none-eabi/include/c++/10.3.1/bits/stl_algobase.h ****     { std::__fill_a1(__first, __last, __value); }
 915:/Library/DaisyToolchain/0.2.0/arm/arm-none-eabi/include/c++/10.3.1/bits/stl_algobase.h **** 
 916:/Library/DaisyToolchain/0.2.0/arm/arm-none-eabi/include/c++/10.3.1/bits/stl_algobase.h ****   template<typename _Ite, typename _Seq, typename _Cat, typename _Tp>
 917:/Library/DaisyToolchain/0.2.0/arm/arm-none-eabi/include/c++/10.3.1/bits/stl_algobase.h ****     void
 918:/Library/DaisyToolchain/0.2.0/arm/arm-none-eabi/include/c++/10.3.1/bits/stl_algobase.h ****     __fill_a(const ::__gnu_debug::_Safe_iterator<_Ite, _Seq, _Cat>&,
 919:/Library/DaisyToolchain/0.2.0/arm/arm-none-eabi/include/c++/10.3.1/bits/stl_algobase.h **** 	     const ::__gnu_debug::_Safe_iterator<_Ite, _Seq, _Cat>&,
 920:/Library/DaisyToolchain/0.2.0/arm/arm-none-eabi/include/c++/10.3.1/bits/stl_algobase.h **** 	     const _Tp&);
 921:/Library/DaisyToolchain/0.2.0/arm/arm-none-eabi/include/c++/10.3.1/bits/stl_algobase.h **** 
 922:/Library/DaisyToolchain/0.2.0/arm/arm-none-eabi/include/c++/10.3.1/bits/stl_algobase.h ****   /**
 923:/Library/DaisyToolchain/0.2.0/arm/arm-none-eabi/include/c++/10.3.1/bits/stl_algobase.h ****    *  @brief Fills the range [first,last) with copies of value.
 924:/Library/DaisyToolchain/0.2.0/arm/arm-none-eabi/include/c++/10.3.1/bits/stl_algobase.h ****    *  @ingroup mutating_algorithms
 925:/Library/DaisyToolchain/0.2.0/arm/arm-none-eabi/include/c++/10.3.1/bits/stl_algobase.h ****    *  @param  __first  A forward iterator.
 926:/Library/DaisyToolchain/0.2.0/arm/arm-none-eabi/include/c++/10.3.1/bits/stl_algobase.h ****    *  @param  __last   A forward iterator.
 927:/Library/DaisyToolchain/0.2.0/arm/arm-none-eabi/include/c++/10.3.1/bits/stl_algobase.h ****    *  @param  __value  A reference-to-const of arbitrary type.
 928:/Library/DaisyToolchain/0.2.0/arm/arm-none-eabi/include/c++/10.3.1/bits/stl_algobase.h ****    *  @return   Nothing.
 929:/Library/DaisyToolchain/0.2.0/arm/arm-none-eabi/include/c++/10.3.1/bits/stl_algobase.h ****    *
 930:/Library/DaisyToolchain/0.2.0/arm/arm-none-eabi/include/c++/10.3.1/bits/stl_algobase.h ****    *  This function fills a range with copies of the same value.  For char
 931:/Library/DaisyToolchain/0.2.0/arm/arm-none-eabi/include/c++/10.3.1/bits/stl_algobase.h ****    *  types filling contiguous areas of memory, this becomes an inline call
 932:/Library/DaisyToolchain/0.2.0/arm/arm-none-eabi/include/c++/10.3.1/bits/stl_algobase.h ****    *  to @c memset or @c wmemset.
 933:/Library/DaisyToolchain/0.2.0/arm/arm-none-eabi/include/c++/10.3.1/bits/stl_algobase.h ****   */
 934:/Library/DaisyToolchain/0.2.0/arm/arm-none-eabi/include/c++/10.3.1/bits/stl_algobase.h ****   template<typename _ForwardIterator, typename _Tp>
 935:/Library/DaisyToolchain/0.2.0/arm/arm-none-eabi/include/c++/10.3.1/bits/stl_algobase.h ****     _GLIBCXX20_CONSTEXPR
 936:/Library/DaisyToolchain/0.2.0/arm/arm-none-eabi/include/c++/10.3.1/bits/stl_algobase.h ****     inline void
 937:/Library/DaisyToolchain/0.2.0/arm/arm-none-eabi/include/c++/10.3.1/bits/stl_algobase.h ****     fill(_ForwardIterator __first, _ForwardIterator __last, const _Tp& __value)
 992              		.loc 7 937 5 view .LVU241
 993              	.LBB412:
 994              	.LBI401:
 913:/Library/DaisyToolchain/0.2.0/arm/arm-none-eabi/include/c++/10.3.1/bits/stl_algobase.h ****     { std::__fill_a1(__first, __last, __value); }
 995              		.loc 7 913 5 view .LVU242
 996              	.LBB409:
 997              	.LBI402:
 868:/Library/DaisyToolchain/0.2.0/arm/arm-none-eabi/include/c++/10.3.1/bits/stl_algobase.h **** 	      const _Tp& __value)
 998              		.loc 7 868 5 view .LVU243
ARM GAS  /var/folders/9s/8rp0_f2s1n31qbztm3b5_fdh0000gn/T//ccQP8jK9.s 			page 51


 999              	.LBB406:
 873:/Library/DaisyToolchain/0.2.0/arm/arm-none-eabi/include/c++/10.3.1/bits/stl_algobase.h ****     }
 1000              		.loc 7 873 11 is_stmt 0 view .LVU244
 1001 001a FFF7FEFF 		bl	memset
 1002              	.LVL71:
 873:/Library/DaisyToolchain/0.2.0/arm/arm-none-eabi/include/c++/10.3.1/bits/stl_algobase.h ****     }
 1003              		.loc 7 873 11 view .LVU245
 1004              	.LBE406:
 1005              	.LBE409:
 1006              	.LBE412:
 1007              	.LBE415:
 1008              	.LBE418:
 1009              	.LBE421:
 174:eurorack/plaits/dsp/drums/hi_hat.h **** 
 175:eurorack/plaits/dsp/drums/hi_hat.h ****     metallic_noise_.Init();
 176:eurorack/plaits/dsp/drums/hi_hat.h ****     noise_coloration_svf_.Init();
 1010              		.loc 2 176 31 view .LVU246
 1011 001e 04F13800 		add	r0, r4, #56
 1012 0022 FFF7FEFF 		bl	_ZN6stmlib3Svf4InitEv
 1013              	.LVL72:
 177:eurorack/plaits/dsp/drums/hi_hat.h ****     hpf_.Init();
 1014              		.loc 2 177 14 view .LVU247
 1015 0026 04F14C00 		add	r0, r4, #76
 1016 002a FFF7FEFF 		bl	_ZN6stmlib3Svf4InitEv
 1017              	.LVL73:
 1018              		.loc 2 177 14 view .LVU248
 1019              	.LBE423:
 1020              	.LBE426:
  38:eurorack/plaits/dsp/engine/hi_hat_engine.cc ****   temp_buffer_[0] = allocator->Allocate<float>(kMaxBlockSize);
 1021              		.loc 1 38 3 is_stmt 1 view .LVU249
 1022              	.LBB427:
 1023              	.LBI427:
 169:eurorack/plaits/dsp/drums/hi_hat.h ****     envelope_ = 0.0f;
 1024              		.loc 2 169 8 view .LVU250
 1025 002e 2346     		mov	r3, r4
 1026 0030 04F1A801 		add	r1, r4, #168
 1027              	.LBB428:
 170:eurorack/plaits/dsp/drums/hi_hat.h ****     noise_clock_ = 0.0f;
 1028              		.loc 2 170 15 is_stmt 0 view .LVU251
 1029 0034 2666     		str	r6, [r4, #96]	@ float
 171:eurorack/plaits/dsp/drums/hi_hat.h ****     noise_sample_ = 0.0f;
 1030              		.loc 2 171 18 view .LVU252
 1031 0036 6666     		str	r6, [r4, #100]	@ float
 172:eurorack/plaits/dsp/drums/hi_hat.h ****     sustain_gain_ = 0.0f;
 1032              		.loc 2 172 19 view .LVU253
 1033 0038 A666     		str	r6, [r4, #104]	@ float
 173:eurorack/plaits/dsp/drums/hi_hat.h **** 
 1034              		.loc 2 173 19 view .LVU254
 1035 003a E666     		str	r6, [r4, #108]	@ float
 1036              	.LVL74:
 1037              	.LBB429:
 1038              	.LBI429:
 105:eurorack/plaits/dsp/drums/hi_hat.h ****     for (int i = 0; i < 6; ++i) {
 1039              		.loc 2 105 8 is_stmt 1 view .LVU255
 1040              	.LBB430:
 106:eurorack/plaits/dsp/drums/hi_hat.h ****       oscillator_[i].Init();
 1041              		.loc 2 106 23 view .LVU256
ARM GAS  /var/folders/9s/8rp0_f2s1n31qbztm3b5_fdh0000gn/T//ccQP8jK9.s 			page 52


 1042              	.L41:
 107:eurorack/plaits/dsp/drums/hi_hat.h ****     }
 1043              		.loc 2 107 7 view .LVU257
 1044              	.LBB431:
 1045              	.LBI431:
  58:eurorack/plaits/dsp/oscillator/oscillator.h ****     phase_ = 0.5f;
 1046              		.loc 3 58 8 view .LVU258
 1047              	.LBB432:
  59:eurorack/plaits/dsp/oscillator/oscillator.h ****     next_sample_ = 0.0f;
 1048              		.loc 3 59 5 view .LVU259
  61:eurorack/plaits/dsp/oscillator/oscillator.h ****     hp_state_ = 0.0f;
 1049              		.loc 3 61 15 is_stmt 0 view .LVU260
 1050 003c 4FF07E50 		mov	r0, #1065353216
  59:eurorack/plaits/dsp/oscillator/oscillator.h ****     next_sample_ = 0.0f;
 1051              		.loc 3 59 12 view .LVU261
 1052 0040 4FF07C52 		mov	r2, #1056964608
  60:eurorack/plaits/dsp/oscillator/oscillator.h ****     lp_state_ = 1.0f;
 1053              		.loc 3 60 18 view .LVU262
 1054 0044 5E67     		str	r6, [r3, #116]	@ float
 1055              	.LBE432:
 1056              	.LBE431:
 106:eurorack/plaits/dsp/drums/hi_hat.h ****       oscillator_[i].Init();
 1057              		.loc 2 106 23 view .LVU263
 1058 0046 1C33     		adds	r3, r3, #28
 1059              	.LBB434:
 1060              	.LBB433:
  61:eurorack/plaits/dsp/oscillator/oscillator.h ****     hp_state_ = 0.0f;
 1061              		.loc 3 61 15 view .LVU264
 1062 0048 D865     		str	r0, [r3, #92]	@ float
  63:eurorack/plaits/dsp/oscillator/oscillator.h **** 
 1063              		.loc 3 63 11 view .LVU265
 1064 004a 0120     		movs	r0, #1
  59:eurorack/plaits/dsp/oscillator/oscillator.h ****     next_sample_ = 0.0f;
 1065              		.loc 3 59 12 view .LVU266
 1066 004c 5A65     		str	r2, [r3, #84]	@ float
  60:eurorack/plaits/dsp/oscillator/oscillator.h ****     lp_state_ = 1.0f;
 1067              		.loc 3 60 5 is_stmt 1 view .LVU267
  61:eurorack/plaits/dsp/oscillator/oscillator.h ****     hp_state_ = 0.0f;
 1068              		.loc 3 61 5 view .LVU268
  62:eurorack/plaits/dsp/oscillator/oscillator.h ****     high_ = true;
 1069              		.loc 3 62 5 view .LVU269
  63:eurorack/plaits/dsp/oscillator/oscillator.h **** 
 1070              		.loc 3 63 11 is_stmt 0 view .LVU270
 1071 004e 83F86400 		strb	r0, [r3, #100]
  65:eurorack/plaits/dsp/oscillator/oscillator.h ****     pw_ = 0.5f;
 1072              		.loc 3 65 16 view .LVU271
 1073 0052 1548     		ldr	r0, .L47
  62:eurorack/plaits/dsp/oscillator/oscillator.h ****     high_ = true;
 1074              		.loc 3 62 15 view .LVU272
 1075 0054 1E66     		str	r6, [r3, #96]	@ float
  63:eurorack/plaits/dsp/oscillator/oscillator.h **** 
 1076              		.loc 3 63 5 is_stmt 1 view .LVU273
  65:eurorack/plaits/dsp/oscillator/oscillator.h ****     pw_ = 0.5f;
 1077              		.loc 3 65 5 view .LVU274
  65:eurorack/plaits/dsp/oscillator/oscillator.h ****     pw_ = 0.5f;
 1078              		.loc 3 65 16 is_stmt 0 view .LVU275
 1079 0056 9866     		str	r0, [r3, #104]	@ float
ARM GAS  /var/folders/9s/8rp0_f2s1n31qbztm3b5_fdh0000gn/T//ccQP8jK9.s 			page 53


  66:eurorack/plaits/dsp/oscillator/oscillator.h ****   }
 1080              		.loc 3 66 5 is_stmt 1 view .LVU276
  66:eurorack/plaits/dsp/oscillator/oscillator.h ****   }
 1081              		.loc 3 66 9 is_stmt 0 view .LVU277
 1082 0058 DA66     		str	r2, [r3, #108]	@ float
  66:eurorack/plaits/dsp/oscillator/oscillator.h ****   }
 1083              		.loc 3 66 9 view .LVU278
 1084              	.LBE433:
 1085              	.LBE434:
 106:eurorack/plaits/dsp/drums/hi_hat.h ****       oscillator_[i].Init();
 1086              		.loc 2 106 5 is_stmt 1 view .LVU279
 106:eurorack/plaits/dsp/drums/hi_hat.h ****       oscillator_[i].Init();
 1087              		.loc 2 106 23 view .LVU280
 1088 005a 9942     		cmp	r1, r3
 1089 005c EED1     		bne	.L41
 1090              	.LVL75:
 106:eurorack/plaits/dsp/drums/hi_hat.h ****       oscillator_[i].Init();
 1091              		.loc 2 106 23 is_stmt 0 view .LVU281
 1092              	.LBE430:
 1093              	.LBE429:
 176:eurorack/plaits/dsp/drums/hi_hat.h ****     hpf_.Init();
 1094              		.loc 2 176 31 view .LVU282
 1095 005e 04F58C70 		add	r0, r4, #280
 1096 0062 FFF7FEFF 		bl	_ZN6stmlib3Svf4InitEv
 1097              	.LVL76:
 1098              		.loc 2 177 14 view .LVU283
 1099 0066 04F59670 		add	r0, r4, #300
 1100 006a FFF7FEFF 		bl	_ZN6stmlib3Svf4InitEv
 1101              	.LVL77:
 1102              		.loc 2 177 14 view .LVU284
 1103              	.LBE428:
 1104              	.LBE427:
  39:eurorack/plaits/dsp/engine/hi_hat_engine.cc ****   temp_buffer_[1] = allocator->Allocate<float>(kMaxBlockSize);
 1105              		.loc 1 39 3 is_stmt 1 view .LVU285
 1106              	.LBB435:
 1107              	.LBI435:
 1108              		.file 8 "eurorack/stmlib/utils/buffer_allocator.h"
   1:eurorack/stmlib/utils/buffer_allocator.h **** // Copyright 2014 Emilie Gillet.
   2:eurorack/stmlib/utils/buffer_allocator.h **** //
   3:eurorack/stmlib/utils/buffer_allocator.h **** // Author: Emilie Gillet (emilie.o.gillet@gmail.com)
   4:eurorack/stmlib/utils/buffer_allocator.h **** //
   5:eurorack/stmlib/utils/buffer_allocator.h **** // Permission is hereby granted, free of charge, to any person obtaining a copy
   6:eurorack/stmlib/utils/buffer_allocator.h **** // of this software and associated documentation files (the "Software"), to deal
   7:eurorack/stmlib/utils/buffer_allocator.h **** // in the Software without restriction, including without limitation the rights
   8:eurorack/stmlib/utils/buffer_allocator.h **** // to use, copy, modify, merge, publish, distribute, sublicense, and/or sell
   9:eurorack/stmlib/utils/buffer_allocator.h **** // copies of the Software, and to permit persons to whom the Software is
  10:eurorack/stmlib/utils/buffer_allocator.h **** // furnished to do so, subject to the following conditions:
  11:eurorack/stmlib/utils/buffer_allocator.h **** // 
  12:eurorack/stmlib/utils/buffer_allocator.h **** // The above copyright notice and this permission notice shall be included in
  13:eurorack/stmlib/utils/buffer_allocator.h **** // all copies or substantial portions of the Software.
  14:eurorack/stmlib/utils/buffer_allocator.h **** // 
  15:eurorack/stmlib/utils/buffer_allocator.h **** // THE SOFTWARE IS PROVIDED "AS IS", WITHOUT WARRANTY OF ANY KIND, EXPRESS OR
  16:eurorack/stmlib/utils/buffer_allocator.h **** // IMPLIED, INCLUDING BUT NOT LIMITED TO THE WARRANTIES OF MERCHANTABILITY,
  17:eurorack/stmlib/utils/buffer_allocator.h **** // FITNESS FOR A PARTICULAR PURPOSE AND NONINFRINGEMENT. IN NO EVENT SHALL THE
  18:eurorack/stmlib/utils/buffer_allocator.h **** // AUTHORS OR COPYRIGHT HOLDERS BE LIABLE FOR ANY CLAIM, DAMAGES OR OTHER
  19:eurorack/stmlib/utils/buffer_allocator.h **** // LIABILITY, WHETHER IN AN ACTION OF CONTRACT, TORT OR OTHERWISE, ARISING FROM,
  20:eurorack/stmlib/utils/buffer_allocator.h **** // OUT OF OR IN CONNECTION WITH THE SOFTWARE OR THE USE OR OTHER DEALINGS IN
ARM GAS  /var/folders/9s/8rp0_f2s1n31qbztm3b5_fdh0000gn/T//ccQP8jK9.s 			page 54


  21:eurorack/stmlib/utils/buffer_allocator.h **** // THE SOFTWARE.
  22:eurorack/stmlib/utils/buffer_allocator.h **** // 
  23:eurorack/stmlib/utils/buffer_allocator.h **** // See http://creativecommons.org/licenses/MIT/ for more information.
  24:eurorack/stmlib/utils/buffer_allocator.h **** //
  25:eurorack/stmlib/utils/buffer_allocator.h **** // -----------------------------------------------------------------------------
  26:eurorack/stmlib/utils/buffer_allocator.h **** //
  27:eurorack/stmlib/utils/buffer_allocator.h **** // Stream buffer for serialization.
  28:eurorack/stmlib/utils/buffer_allocator.h **** 
  29:eurorack/stmlib/utils/buffer_allocator.h **** #ifndef STMLIB_UTILS_BUFFER_ALLOCATOR_H_
  30:eurorack/stmlib/utils/buffer_allocator.h **** #define STMLIB_UTILS_BUFFER_ALLOCATOR_H_
  31:eurorack/stmlib/utils/buffer_allocator.h **** 
  32:eurorack/stmlib/utils/buffer_allocator.h **** #include "stmlib/stmlib.h"
  33:eurorack/stmlib/utils/buffer_allocator.h **** 
  34:eurorack/stmlib/utils/buffer_allocator.h **** namespace stmlib {
  35:eurorack/stmlib/utils/buffer_allocator.h **** 
  36:eurorack/stmlib/utils/buffer_allocator.h **** class BufferAllocator {
  37:eurorack/stmlib/utils/buffer_allocator.h ****  public:
  38:eurorack/stmlib/utils/buffer_allocator.h ****   BufferAllocator() { }
  39:eurorack/stmlib/utils/buffer_allocator.h ****   ~BufferAllocator() { }
  40:eurorack/stmlib/utils/buffer_allocator.h ****   
  41:eurorack/stmlib/utils/buffer_allocator.h ****   BufferAllocator(void* buffer, size_t size) {
  42:eurorack/stmlib/utils/buffer_allocator.h ****     Init(buffer, size);
  43:eurorack/stmlib/utils/buffer_allocator.h ****   }
  44:eurorack/stmlib/utils/buffer_allocator.h ****   
  45:eurorack/stmlib/utils/buffer_allocator.h ****   inline void Init(void* buffer, size_t size) {
  46:eurorack/stmlib/utils/buffer_allocator.h ****     buffer_ = static_cast<uint8_t*>(buffer);
  47:eurorack/stmlib/utils/buffer_allocator.h ****     size_ = size;
  48:eurorack/stmlib/utils/buffer_allocator.h ****     Free();
  49:eurorack/stmlib/utils/buffer_allocator.h ****   }
  50:eurorack/stmlib/utils/buffer_allocator.h **** 
  51:eurorack/stmlib/utils/buffer_allocator.h ****   template<typename T>
  52:eurorack/stmlib/utils/buffer_allocator.h ****   inline T* Allocate() {
  53:eurorack/stmlib/utils/buffer_allocator.h ****     return Allocate<T>(1);
  54:eurorack/stmlib/utils/buffer_allocator.h ****   }
  55:eurorack/stmlib/utils/buffer_allocator.h ****   
  56:eurorack/stmlib/utils/buffer_allocator.h ****   template<typename T>
  57:eurorack/stmlib/utils/buffer_allocator.h ****   inline T* Allocate(size_t size) {
 1109              		.loc 8 57 13 view .LVU286
 1110              	.LBB436:
 1111              	.LBB437:
  58:eurorack/stmlib/utils/buffer_allocator.h ****     size_t size_bytes = sizeof(T) * size;
  59:eurorack/stmlib/utils/buffer_allocator.h ****     if (size_bytes <= free_) {
 1112              		.loc 8 59 23 is_stmt 0 view .LVU287
 1113 006e AB68     		ldr	r3, [r5, #8]
 1114              		.loc 8 59 5 view .LVU288
 1115 0070 5F2B     		cmp	r3, #95
 1116              	.LBB438:
  60:eurorack/stmlib/utils/buffer_allocator.h ****       T* start = static_cast<T*>(static_cast<void*>(next_));
 1117              		.loc 8 60 10 view .LVU289
 1118 0072 85BF     		ittet	hi
 1119 0074 2A68     		ldrhi	r2, [r5]
 1120              	.LVL78:
  61:eurorack/stmlib/utils/buffer_allocator.h ****       next_ += size_bytes;
  62:eurorack/stmlib/utils/buffer_allocator.h ****       free_ -= size_bytes;
 1121              		.loc 8 62 13 view .LVU290
 1122 0076 603B     		subhi	r3, r3, #96
 1123              	.LBE438:
ARM GAS  /var/folders/9s/8rp0_f2s1n31qbztm3b5_fdh0000gn/T//ccQP8jK9.s 			page 55


  63:eurorack/stmlib/utils/buffer_allocator.h ****       return start;
  64:eurorack/stmlib/utils/buffer_allocator.h ****     } else {
  65:eurorack/stmlib/utils/buffer_allocator.h ****       return NULL;
 1124              		.loc 8 65 14 view .LVU291
 1125 0078 0022     		movls	r2, #0
 1126              	.LVL79:
 1127              	.LBB439:
  61:eurorack/stmlib/utils/buffer_allocator.h ****       next_ += size_bytes;
 1128              		.loc 8 61 13 view .LVU292
 1129 007a 02F16001 		addhi	r1, r2, #96
