ARM GAS  /var/folders/9s/8rp0_f2s1n31qbztm3b5_fdh0000gn/T//cc1V9ehO.s 			page 1


   1              		.cpu cortex-m7
   2              		.arch armv7e-m
   3              		.fpu fpv5-d16
   4              		.eabi_attribute 28, 1
   5              		.eabi_attribute 20, 1
   6              		.eabi_attribute 21, 1
   7              		.eabi_attribute 23, 3
   8              		.eabi_attribute 24, 1
   9              		.eabi_attribute 25, 1
  10              		.eabi_attribute 26, 1
  11              		.eabi_attribute 30, 4
  12              		.eabi_attribute 34, 1
  13              		.eabi_attribute 18, 4
  14              		.file	"Interface.cpp"
  15              		.text
  16              	.Ltext0:
  17              		.cfi_sections	.debug_frame
  18              		.section	.text._ZN5daisy6SwitchD2Ev,"axG",%progbits,_ZN5daisy6SwitchD5Ev,comdat
  19              		.align	1
  20              		.weak	_ZN5daisy6SwitchD2Ev
  21              		.syntax unified
  22              		.thumb
  23              		.thumb_func
  25              	_ZN5daisy6SwitchD2Ev:
  26              	.LVL0:
  27              	.LFB1567:
  28              		.file 1 "lib/libdaisy/src/hid/switch.h"
   1:lib/libdaisy/src/hid/switch.h **** #pragma once
   2:lib/libdaisy/src/hid/switch.h **** #ifndef DSY_SWITCH_H
   3:lib/libdaisy/src/hid/switch.h **** #define DSY_SWITCH_H
   4:lib/libdaisy/src/hid/switch.h **** #include "daisy_core.h"
   5:lib/libdaisy/src/hid/switch.h **** #include "per/gpio.h"
   6:lib/libdaisy/src/hid/switch.h **** #include "sys/system.h"
   7:lib/libdaisy/src/hid/switch.h **** 
   8:lib/libdaisy/src/hid/switch.h **** namespace daisy
   9:lib/libdaisy/src/hid/switch.h **** {
  10:lib/libdaisy/src/hid/switch.h **** /** 
  11:lib/libdaisy/src/hid/switch.h ****     Generic Class for handling momentary/latching switches \n 
  12:lib/libdaisy/src/hid/switch.h ****     Inspired/influenced by Mutable Instruments (pichenettes) Switch classes
  13:lib/libdaisy/src/hid/switch.h ****     @author Stephen Hensley
  14:lib/libdaisy/src/hid/switch.h ****     @date December 2019
  15:lib/libdaisy/src/hid/switch.h ****     @ingroup controls
  16:lib/libdaisy/src/hid/switch.h **** */
  17:lib/libdaisy/src/hid/switch.h **** class Switch
  18:lib/libdaisy/src/hid/switch.h **** {
  19:lib/libdaisy/src/hid/switch.h ****   public:
  20:lib/libdaisy/src/hid/switch.h ****     /** Specifies the expected behavior of the switch */
  21:lib/libdaisy/src/hid/switch.h ****     enum Type
  22:lib/libdaisy/src/hid/switch.h ****     {
  23:lib/libdaisy/src/hid/switch.h ****         TYPE_TOGGLE,    /**< & */
  24:lib/libdaisy/src/hid/switch.h ****         TYPE_MOMENTARY, /**< & */
  25:lib/libdaisy/src/hid/switch.h ****     };
  26:lib/libdaisy/src/hid/switch.h ****     /** Specifies whether the pressed is HIGH or LOW. */
  27:lib/libdaisy/src/hid/switch.h ****     enum Polarity
  28:lib/libdaisy/src/hid/switch.h ****     {
  29:lib/libdaisy/src/hid/switch.h ****         POLARITY_NORMAL,   /**< & */
  30:lib/libdaisy/src/hid/switch.h ****         POLARITY_INVERTED, /**< & */
ARM GAS  /var/folders/9s/8rp0_f2s1n31qbztm3b5_fdh0000gn/T//cc1V9ehO.s 			page 2


  31:lib/libdaisy/src/hid/switch.h ****     };
  32:lib/libdaisy/src/hid/switch.h **** 
  33:lib/libdaisy/src/hid/switch.h ****     /** Specifies whether to use built-in Pull Up/Down resistors to hold button at a given state wh
  34:lib/libdaisy/src/hid/switch.h ****     enum Pull
  35:lib/libdaisy/src/hid/switch.h ****     {
  36:lib/libdaisy/src/hid/switch.h ****         PULL_UP,   /**< & */
  37:lib/libdaisy/src/hid/switch.h ****         PULL_DOWN, /**< & */
  38:lib/libdaisy/src/hid/switch.h ****         PULL_NONE, /**< & */
  39:lib/libdaisy/src/hid/switch.h ****     };
  40:lib/libdaisy/src/hid/switch.h **** 
  41:lib/libdaisy/src/hid/switch.h ****     Switch() {}
  42:lib/libdaisy/src/hid/switch.h ****     ~Switch() {}
  29              		.loc 1 42 5 view -0
  30              		.cfi_startproc
  31              		@ args = 0, pretend = 0, frame = 0
  32              		@ frame_needed = 0, uses_anonymous_args = 0
  33              		@ link register save eliminated.
  34              		.loc 1 42 16 is_stmt 0 view .LVU1
  35 0000 7047     		bx	lr
  36              		.cfi_endproc
  37              	.LFE1567:
  39              		.weak	_ZN5daisy6SwitchD1Ev
  40              		.thumb_set _ZN5daisy6SwitchD1Ev,_ZN5daisy6SwitchD2Ev
  41              		.section	.text._ZN5daisy13AnalogControlD2Ev,"axG",%progbits,_ZN5daisy13AnalogControlD5Ev,comdat
  42              		.align	1
  43              		.weak	_ZN5daisy13AnalogControlD2Ev
  44              		.syntax unified
  45              		.thumb
  46              		.thumb_func
  48              	_ZN5daisy13AnalogControlD2Ev:
  49              	.LVL1:
  50              	.LFB1599:
  51              		.file 2 "lib/libdaisy/src/hid/ctrl.h"
   1:lib/libdaisy/src/hid/ctrl.h **** #pragma once
   2:lib/libdaisy/src/hid/ctrl.h **** #ifndef DSY_KNOB_H
   3:lib/libdaisy/src/hid/ctrl.h **** #define DSY_KNOB_H /**< & */
   4:lib/libdaisy/src/hid/ctrl.h **** #include <stdint.h>
   5:lib/libdaisy/src/hid/ctrl.h **** 
   6:lib/libdaisy/src/hid/ctrl.h **** #ifdef __cplusplus
   7:lib/libdaisy/src/hid/ctrl.h **** namespace daisy
   8:lib/libdaisy/src/hid/ctrl.h **** {
   9:lib/libdaisy/src/hid/ctrl.h **** /**
  10:lib/libdaisy/src/hid/ctrl.h ****     @brief Hardware Interface for control inputs \n 
  11:lib/libdaisy/src/hid/ctrl.h ****     Primarily designed for ADC input controls such as \n 
  12:lib/libdaisy/src/hid/ctrl.h ****     potentiometers, and control voltage. \n 
  13:lib/libdaisy/src/hid/ctrl.h ****     @author Stephen Hensley
  14:lib/libdaisy/src/hid/ctrl.h ****     @date November 2019
  15:lib/libdaisy/src/hid/ctrl.h ****     @ingroup controls
  16:lib/libdaisy/src/hid/ctrl.h **** */
  17:lib/libdaisy/src/hid/ctrl.h **** class AnalogControl
  18:lib/libdaisy/src/hid/ctrl.h **** {
  19:lib/libdaisy/src/hid/ctrl.h ****   public:
  20:lib/libdaisy/src/hid/ctrl.h ****     /** Constructor */
  21:lib/libdaisy/src/hid/ctrl.h ****     AnalogControl() {}
  22:lib/libdaisy/src/hid/ctrl.h ****     /** destructor */
  23:lib/libdaisy/src/hid/ctrl.h ****     ~AnalogControl() {}
  52              		.loc 2 23 5 is_stmt 1 view -0
ARM GAS  /var/folders/9s/8rp0_f2s1n31qbztm3b5_fdh0000gn/T//cc1V9ehO.s 			page 3


  53              		.cfi_startproc
  54              		@ args = 0, pretend = 0, frame = 0
  55              		@ frame_needed = 0, uses_anonymous_args = 0
  56              		@ link register save eliminated.
  57              		.loc 2 23 23 is_stmt 0 view .LVU3
  58 0000 7047     		bx	lr
  59              		.cfi_endproc
  60              	.LFE1599:
  62              		.weak	_ZN5daisy13AnalogControlD1Ev
  63              		.thumb_set _ZN5daisy13AnalogControlD1Ev,_ZN5daisy13AnalogControlD2Ev
  64              		.section	.text._ZN5daisy9DaisySeedD2Ev,"axG",%progbits,_ZN5daisy9DaisySeedD5Ev,comdat
  65              		.align	1
  66              		.weak	_ZN5daisy9DaisySeedD2Ev
  67              		.syntax unified
  68              		.thumb
  69              		.thumb_func
  71              	_ZN5daisy9DaisySeedD2Ev:
  72              	.LVL2:
  73              	.LFB2146:
  74              		.file 3 "lib/libdaisy/src/daisy_seed.h"
   1:lib/libdaisy/src/daisy_seed.h **** #pragma once
   2:lib/libdaisy/src/daisy_seed.h **** #ifndef DSY_SEED_H
   3:lib/libdaisy/src/daisy_seed.h **** #define DSY_SEED_H
   4:lib/libdaisy/src/daisy_seed.h **** 
   5:lib/libdaisy/src/daisy_seed.h **** #include "daisy.h"
   6:lib/libdaisy/src/daisy_seed.h **** 
   7:lib/libdaisy/src/daisy_seed.h **** //Uncomment this out if you're still using the rev2 hardware
   8:lib/libdaisy/src/daisy_seed.h **** //#define SEED_REV2
   9:lib/libdaisy/src/daisy_seed.h **** 
  10:lib/libdaisy/src/daisy_seed.h **** namespace daisy
  11:lib/libdaisy/src/daisy_seed.h **** {
  12:lib/libdaisy/src/daisy_seed.h **** /**
  13:lib/libdaisy/src/daisy_seed.h ****    @brief This is the higher-level interface for the Daisy board. \n 
  14:lib/libdaisy/src/daisy_seed.h ****     All basic peripheral configuration/initialization is setup here. \n
  15:lib/libdaisy/src/daisy_seed.h **** 
  16:lib/libdaisy/src/daisy_seed.h ****    @ingroup boards
  17:lib/libdaisy/src/daisy_seed.h **** */
  18:lib/libdaisy/src/daisy_seed.h **** class DaisySeed
  19:lib/libdaisy/src/daisy_seed.h **** {
  20:lib/libdaisy/src/daisy_seed.h ****   public:
  21:lib/libdaisy/src/daisy_seed.h ****     DaisySeed() {}
  22:lib/libdaisy/src/daisy_seed.h ****     ~DaisySeed() {}
  75              		.loc 3 22 5 is_stmt 1 view -0
  76              		.cfi_startproc
  77              		@ args = 0, pretend = 0, frame = 0
  78              		@ frame_needed = 0, uses_anonymous_args = 0
  79              		@ link register save eliminated.
  80              	.LBB366:
  81              	.LBI366:
  82              		.file 4 "lib/libdaisy/src/sys/system.h"
   1:lib/libdaisy/src/sys/system.h **** #ifndef DSY_SYSTEM_H
   2:lib/libdaisy/src/sys/system.h **** #define DSY_SYSTEM_H
   3:lib/libdaisy/src/sys/system.h **** 
   4:lib/libdaisy/src/sys/system.h **** #ifndef UNIT_TEST // for unit tests, a dummy implementation is provided below
   5:lib/libdaisy/src/sys/system.h **** 
   6:lib/libdaisy/src/sys/system.h **** #include <cstdint>
   7:lib/libdaisy/src/sys/system.h **** #include "per/tim.h"
ARM GAS  /var/folders/9s/8rp0_f2s1n31qbztm3b5_fdh0000gn/T//cc1V9ehO.s 			page 4


   8:lib/libdaisy/src/sys/system.h **** 
   9:lib/libdaisy/src/sys/system.h **** namespace daisy
  10:lib/libdaisy/src/sys/system.h **** {
  11:lib/libdaisy/src/sys/system.h **** /** A handle for interacting with the Core System. 
  12:lib/libdaisy/src/sys/system.h ****  ** This includes the Clock tree, MPU, global DMA initialization,
  13:lib/libdaisy/src/sys/system.h ****  ** cache handling, and any other necessary global initiailzation
  14:lib/libdaisy/src/sys/system.h ****  **
  15:lib/libdaisy/src/sys/system.h ****  ** @author shensley
  16:lib/libdaisy/src/sys/system.h ****  ** @addtogroup system
  17:lib/libdaisy/src/sys/system.h ****  */
  18:lib/libdaisy/src/sys/system.h **** class System
  19:lib/libdaisy/src/sys/system.h **** {
  20:lib/libdaisy/src/sys/system.h ****   public:
  21:lib/libdaisy/src/sys/system.h ****     /** Contains settings for initializing the System */
  22:lib/libdaisy/src/sys/system.h ****     struct Config
  23:lib/libdaisy/src/sys/system.h ****     {
  24:lib/libdaisy/src/sys/system.h ****         /** Specifies the system clock frequency that feeds APB/AHB clocks, etc. */
  25:lib/libdaisy/src/sys/system.h ****         enum class SysClkFreq
  26:lib/libdaisy/src/sys/system.h ****         {
  27:lib/libdaisy/src/sys/system.h ****             FREQ_400MHZ,
  28:lib/libdaisy/src/sys/system.h ****             FREQ_480MHZ,
  29:lib/libdaisy/src/sys/system.h ****         };
  30:lib/libdaisy/src/sys/system.h **** 
  31:lib/libdaisy/src/sys/system.h ****         /** Method to call on the struct to set to defaults
  32:lib/libdaisy/src/sys/system.h ****          ** CPU Freq set to 400MHz
  33:lib/libdaisy/src/sys/system.h ****          ** Cache Enabled 
  34:lib/libdaisy/src/sys/system.h ****          ** */
  35:lib/libdaisy/src/sys/system.h ****         void Defaults()
  36:lib/libdaisy/src/sys/system.h ****         {
  37:lib/libdaisy/src/sys/system.h ****             cpu_freq    = SysClkFreq::FREQ_400MHZ;
  38:lib/libdaisy/src/sys/system.h ****             use_dcache  = true;
  39:lib/libdaisy/src/sys/system.h ****             use_icache  = true;
  40:lib/libdaisy/src/sys/system.h ****             skip_clocks = false;
  41:lib/libdaisy/src/sys/system.h ****         }
  42:lib/libdaisy/src/sys/system.h **** 
  43:lib/libdaisy/src/sys/system.h ****         /** Method to call on the struct to set to boost mode:
  44:lib/libdaisy/src/sys/system.h ****          ** CPU Freq set to 480MHz
  45:lib/libdaisy/src/sys/system.h ****          ** Cache Enabled 
  46:lib/libdaisy/src/sys/system.h ****          ** */
  47:lib/libdaisy/src/sys/system.h ****         void Boost()
  48:lib/libdaisy/src/sys/system.h ****         {
  49:lib/libdaisy/src/sys/system.h ****             cpu_freq    = SysClkFreq::FREQ_480MHZ;
  50:lib/libdaisy/src/sys/system.h ****             use_dcache  = true;
  51:lib/libdaisy/src/sys/system.h ****             use_icache  = true;
  52:lib/libdaisy/src/sys/system.h ****             skip_clocks = false;
  53:lib/libdaisy/src/sys/system.h ****         }
  54:lib/libdaisy/src/sys/system.h **** 
  55:lib/libdaisy/src/sys/system.h ****         SysClkFreq cpu_freq;
  56:lib/libdaisy/src/sys/system.h ****         bool       use_dcache;
  57:lib/libdaisy/src/sys/system.h ****         bool       use_icache;
  58:lib/libdaisy/src/sys/system.h ****         bool       skip_clocks;
  59:lib/libdaisy/src/sys/system.h ****     };
  60:lib/libdaisy/src/sys/system.h **** 
  61:lib/libdaisy/src/sys/system.h ****     /** Describes the different regions of memory available to the Daisy
  62:lib/libdaisy/src/sys/system.h ****      * 
  63:lib/libdaisy/src/sys/system.h ****      */
  64:lib/libdaisy/src/sys/system.h ****     enum MemoryRegion
ARM GAS  /var/folders/9s/8rp0_f2s1n31qbztm3b5_fdh0000gn/T//cc1V9ehO.s 			page 5


  65:lib/libdaisy/src/sys/system.h ****     {
  66:lib/libdaisy/src/sys/system.h ****         INTERNAL_FLASH = 0,
  67:lib/libdaisy/src/sys/system.h ****         ITCMRAM,
  68:lib/libdaisy/src/sys/system.h ****         DTCMRAM,
  69:lib/libdaisy/src/sys/system.h ****         SRAM_D1,
  70:lib/libdaisy/src/sys/system.h ****         SRAM_D2,
  71:lib/libdaisy/src/sys/system.h ****         SRAM_D3,
  72:lib/libdaisy/src/sys/system.h ****         SDRAM,
  73:lib/libdaisy/src/sys/system.h ****         QSPI,
  74:lib/libdaisy/src/sys/system.h ****         INVALID_ADDRESS,
  75:lib/libdaisy/src/sys/system.h ****     };
  76:lib/libdaisy/src/sys/system.h **** 
  77:lib/libdaisy/src/sys/system.h ****     System() {}
  78:lib/libdaisy/src/sys/system.h ****     ~System() {}
  83              		.loc 4 78 5 view .LVU5
  84              		.loc 4 78 5 is_stmt 0 view .LVU6
  85              	.LBE366:
  86              	.LBB367:
  87              	.LBI367:
  88              		.file 5 "lib/libdaisy/src/hid/usb.h"
   1:lib/libdaisy/src/hid/usb.h **** #pragma once
   2:lib/libdaisy/src/hid/usb.h **** #ifndef DSY_HID_USB_H
   3:lib/libdaisy/src/hid/usb.h **** #define DSY_HID_USB_H
   4:lib/libdaisy/src/hid/usb.h **** #include <stdint.h>
   5:lib/libdaisy/src/hid/usb.h **** #include <stdlib.h>
   6:lib/libdaisy/src/hid/usb.h **** 
   7:lib/libdaisy/src/hid/usb.h **** namespace daisy
   8:lib/libdaisy/src/hid/usb.h **** /** @addtogroup externals
   9:lib/libdaisy/src/hid/usb.h ****     @{
  10:lib/libdaisy/src/hid/usb.h **** */
  11:lib/libdaisy/src/hid/usb.h **** 
  12:lib/libdaisy/src/hid/usb.h **** {
  13:lib/libdaisy/src/hid/usb.h **** /** 
  14:lib/libdaisy/src/hid/usb.h ****     @brief Interface for initializing and using the USB Peripherals on the daisy
  15:lib/libdaisy/src/hid/usb.h ****     @author Stephen Hensley
  16:lib/libdaisy/src/hid/usb.h ****     @date December 2019
  17:lib/libdaisy/src/hid/usb.h **** */
  18:lib/libdaisy/src/hid/usb.h **** class UsbHandle
  19:lib/libdaisy/src/hid/usb.h **** {
  20:lib/libdaisy/src/hid/usb.h ****   public:
  21:lib/libdaisy/src/hid/usb.h ****     /** Return values for USBHandle Functions */
  22:lib/libdaisy/src/hid/usb.h ****     enum class Result
  23:lib/libdaisy/src/hid/usb.h ****     {
  24:lib/libdaisy/src/hid/usb.h ****         OK,
  25:lib/libdaisy/src/hid/usb.h ****         ERR,
  26:lib/libdaisy/src/hid/usb.h ****     };
  27:lib/libdaisy/src/hid/usb.h **** 
  28:lib/libdaisy/src/hid/usb.h ****     /** Specified which of the two USB Peripherals to initialize. */
  29:lib/libdaisy/src/hid/usb.h ****     enum UsbPeriph
  30:lib/libdaisy/src/hid/usb.h ****     {
  31:lib/libdaisy/src/hid/usb.h ****         FS_INTERNAL, /**< Internal pin */
  32:lib/libdaisy/src/hid/usb.h ****         FS_EXTERNAL, /**< FS External D+ pin is Pin 38 (GPIO32). FS External D- pin is Pin 37 (GPIO
  33:lib/libdaisy/src/hid/usb.h ****         FS_BOTH,     /**< Both */
  34:lib/libdaisy/src/hid/usb.h ****     };
  35:lib/libdaisy/src/hid/usb.h **** 
  36:lib/libdaisy/src/hid/usb.h **** 
  37:lib/libdaisy/src/hid/usb.h ****     /** Function called upon reception of a buffer */
ARM GAS  /var/folders/9s/8rp0_f2s1n31qbztm3b5_fdh0000gn/T//cc1V9ehO.s 			page 6


  38:lib/libdaisy/src/hid/usb.h ****     typedef void (*ReceiveCallback)(uint8_t* buff, uint32_t* len);
  39:lib/libdaisy/src/hid/usb.h **** 
  40:lib/libdaisy/src/hid/usb.h ****     UsbHandle() {}
  41:lib/libdaisy/src/hid/usb.h **** 
  42:lib/libdaisy/src/hid/usb.h ****     ~UsbHandle() {}
  89              		.loc 5 42 5 is_stmt 1 view .LVU7
  90              		.loc 5 42 5 is_stmt 0 view .LVU8
  91              	.LBE367:
  92              	.LBB368:
  93              	.LBI368:
  94              		.file 6 "lib/libdaisy/src/per/adc.h"
   1:lib/libdaisy/src/per/adc.h **** #pragma once
   2:lib/libdaisy/src/per/adc.h **** #ifndef DSY_ADC_H
   3:lib/libdaisy/src/per/adc.h **** #define DSY_ADC_H /**< Macro */
   4:lib/libdaisy/src/per/adc.h **** #include <stdint.h>
   5:lib/libdaisy/src/per/adc.h **** #include <stdlib.h>
   6:lib/libdaisy/src/per/adc.h **** #include "daisy_core.h"
   7:lib/libdaisy/src/per/adc.h **** #include "per/gpio.h"
   8:lib/libdaisy/src/per/adc.h **** 
   9:lib/libdaisy/src/per/adc.h **** #define DSY_ADC_MAX_CHANNELS 16 /**< Maximum number of ADC channels */
  10:lib/libdaisy/src/per/adc.h **** 
  11:lib/libdaisy/src/per/adc.h **** namespace daisy
  12:lib/libdaisy/src/per/adc.h **** {
  13:lib/libdaisy/src/per/adc.h **** /** @addtogroup analog_digital_conversion
  14:lib/libdaisy/src/per/adc.h ****     @{
  15:lib/libdaisy/src/per/adc.h **** */
  16:lib/libdaisy/src/per/adc.h **** 
  17:lib/libdaisy/src/per/adc.h **** /* While there may not be many configuration options here,
  18:lib/libdaisy/src/per/adc.h **** using a struct like this allows us to add more configuration
  19:lib/libdaisy/src/per/adc.h **** later without breaking existing functionality.
  20:lib/libdaisy/src/per/adc.h **** */
  21:lib/libdaisy/src/per/adc.h **** 
  22:lib/libdaisy/src/per/adc.h **** /** Configuration Structure for a given channel */
  23:lib/libdaisy/src/per/adc.h **** struct AdcChannelConfig
  24:lib/libdaisy/src/per/adc.h **** {
  25:lib/libdaisy/src/per/adc.h ****     /** Which pin to use for multiplexing */
  26:lib/libdaisy/src/per/adc.h ****     enum MuxPin
  27:lib/libdaisy/src/per/adc.h ****     {
  28:lib/libdaisy/src/per/adc.h ****         MUX_SEL_0,    /**< & */
  29:lib/libdaisy/src/per/adc.h ****         MUX_SEL_1,    /**< & */
  30:lib/libdaisy/src/per/adc.h ****         MUX_SEL_2,    /**< & */
  31:lib/libdaisy/src/per/adc.h ****         MUX_SEL_LAST, /**< & */
  32:lib/libdaisy/src/per/adc.h ****     };
  33:lib/libdaisy/src/per/adc.h **** 
  34:lib/libdaisy/src/per/adc.h ****     /** Initializes a single ADC pin as an ADC. 
  35:lib/libdaisy/src/per/adc.h ****     \param pin Pin to init.
  36:lib/libdaisy/src/per/adc.h ****      */
  37:lib/libdaisy/src/per/adc.h ****     void InitSingle(dsy_gpio_pin pin);
  38:lib/libdaisy/src/per/adc.h **** 
  39:lib/libdaisy/src/per/adc.h ****     /** 
  40:lib/libdaisy/src/per/adc.h ****     Initializes a single ADC pin as a Multiplexed ADC.
  41:lib/libdaisy/src/per/adc.h ****     Requires a CD405X Multiplexer connected to the pin.
  42:lib/libdaisy/src/per/adc.h ****     You only need to supply the mux pins that are required,
  43:lib/libdaisy/src/per/adc.h ****     e.g. a 4052 mux would only require mux_0 and mux_1.
  44:lib/libdaisy/src/per/adc.h ****     Internal Callbacks handle the pin addressing.
  45:lib/libdaisy/src/per/adc.h ****     \param mux_channels must be 1-8
  46:lib/libdaisy/src/per/adc.h ****     \param mux_0 First mux pin
ARM GAS  /var/folders/9s/8rp0_f2s1n31qbztm3b5_fdh0000gn/T//cc1V9ehO.s 			page 7


  47:lib/libdaisy/src/per/adc.h ****     \param mux_1 Second mux pin
  48:lib/libdaisy/src/per/adc.h ****     \param mux_2 Third mux pin
  49:lib/libdaisy/src/per/adc.h ****     \param adc_pin &
  50:lib/libdaisy/src/per/adc.h ****     */
  51:lib/libdaisy/src/per/adc.h ****     void InitMux(dsy_gpio_pin adc_pin,
  52:lib/libdaisy/src/per/adc.h ****                  size_t       mux_channels,
  53:lib/libdaisy/src/per/adc.h ****                  dsy_gpio_pin mux_0,
  54:lib/libdaisy/src/per/adc.h ****                  dsy_gpio_pin mux_1 = {DSY_GPIOX, 0},
  55:lib/libdaisy/src/per/adc.h ****                  dsy_gpio_pin mux_2 = {DSY_GPIOX, 0});
  56:lib/libdaisy/src/per/adc.h **** 
  57:lib/libdaisy/src/per/adc.h ****     dsy_gpio pin_;                   /**< & */
  58:lib/libdaisy/src/per/adc.h ****     dsy_gpio mux_pin_[MUX_SEL_LAST]; /**< & */
  59:lib/libdaisy/src/per/adc.h ****     uint8_t  mux_channels_;          /**< & */
  60:lib/libdaisy/src/per/adc.h **** };
  61:lib/libdaisy/src/per/adc.h **** 
  62:lib/libdaisy/src/per/adc.h **** /**
  63:lib/libdaisy/src/per/adc.h ****    Handler for analog to digital conversion
  64:lib/libdaisy/src/per/adc.h **** */
  65:lib/libdaisy/src/per/adc.h **** class AdcHandle
  66:lib/libdaisy/src/per/adc.h **** {
  67:lib/libdaisy/src/per/adc.h ****   public:
  68:lib/libdaisy/src/per/adc.h ****     /** Supported oversampling amounts */
  69:lib/libdaisy/src/per/adc.h ****     enum OverSampling
  70:lib/libdaisy/src/per/adc.h ****     {
  71:lib/libdaisy/src/per/adc.h ****         OVS_NONE, /**< & */
  72:lib/libdaisy/src/per/adc.h ****         OVS_4,    /**< & */
  73:lib/libdaisy/src/per/adc.h ****         OVS_8,    /**< & */
  74:lib/libdaisy/src/per/adc.h ****         OVS_16,   /**< & */
  75:lib/libdaisy/src/per/adc.h ****         OVS_32,   /**< & */
  76:lib/libdaisy/src/per/adc.h ****         OVS_64,   /**< & */
  77:lib/libdaisy/src/per/adc.h ****         OVS_128,  /**< & */
  78:lib/libdaisy/src/per/adc.h ****         OVS_256,  /**< & */
  79:lib/libdaisy/src/per/adc.h ****         OVS_512,  /**< & */
  80:lib/libdaisy/src/per/adc.h ****         OVS_1024, /**< & */
  81:lib/libdaisy/src/per/adc.h ****         OVS_LAST, /**< & */
  82:lib/libdaisy/src/per/adc.h ****     };
  83:lib/libdaisy/src/per/adc.h **** 
  84:lib/libdaisy/src/per/adc.h ****     AdcHandle() {}
  85:lib/libdaisy/src/per/adc.h ****     ~AdcHandle() {}
  95              		.loc 6 85 5 is_stmt 1 view .LVU9
  96              		.loc 6 85 5 is_stmt 0 view .LVU10
  97              	.LBE368:
  98              	.LBB369:
  99              	.LBI369:
 100              		.file 7 "lib/libdaisy/src/hid/audio.h"
   1:lib/libdaisy/src/hid/audio.h **** #ifndef DSY_AUDIO_H
   2:lib/libdaisy/src/hid/audio.h **** #define DSY_AUDIO_H /**< & */
   3:lib/libdaisy/src/hid/audio.h **** 
   4:lib/libdaisy/src/hid/audio.h **** #include "per/sai.h"
   5:lib/libdaisy/src/hid/audio.h **** 
   6:lib/libdaisy/src/hid/audio.h **** namespace daisy
   7:lib/libdaisy/src/hid/audio.h **** {
   8:lib/libdaisy/src/hid/audio.h **** class AudioHandle
   9:lib/libdaisy/src/hid/audio.h **** {
  10:lib/libdaisy/src/hid/audio.h ****   public:
  11:lib/libdaisy/src/hid/audio.h ****     /** Manually configurable details about the Audio Engine */
  12:lib/libdaisy/src/hid/audio.h ****     /** TODO: Figure out how to get samplerate in here. */
ARM GAS  /var/folders/9s/8rp0_f2s1n31qbztm3b5_fdh0000gn/T//cc1V9ehO.s 			page 8


  13:lib/libdaisy/src/hid/audio.h ****     struct Config
  14:lib/libdaisy/src/hid/audio.h ****     {
  15:lib/libdaisy/src/hid/audio.h ****         size_t                        blocksize;
  16:lib/libdaisy/src/hid/audio.h ****         SaiHandle::Config::SampleRate samplerate;
  17:lib/libdaisy/src/hid/audio.h ****         float                         postgain;
  18:lib/libdaisy/src/hid/audio.h ****     };
  19:lib/libdaisy/src/hid/audio.h **** 
  20:lib/libdaisy/src/hid/audio.h ****     enum class Result
  21:lib/libdaisy/src/hid/audio.h ****     {
  22:lib/libdaisy/src/hid/audio.h ****         OK,
  23:lib/libdaisy/src/hid/audio.h ****         ERR,
  24:lib/libdaisy/src/hid/audio.h ****     };
  25:lib/libdaisy/src/hid/audio.h **** 
  26:lib/libdaisy/src/hid/audio.h ****     /** Non-Interleaving input buffer
  27:lib/libdaisy/src/hid/audio.h ****      * Buffer arranged by float[chn][sample] 
  28:lib/libdaisy/src/hid/audio.h ****      * const so that the user can't modify the input
  29:lib/libdaisy/src/hid/audio.h ****     */
  30:lib/libdaisy/src/hid/audio.h ****     typedef const float* const* InputBuffer;
  31:lib/libdaisy/src/hid/audio.h **** 
  32:lib/libdaisy/src/hid/audio.h ****     /** Non-Interleaving output buffer
  33:lib/libdaisy/src/hid/audio.h ****      * Arranged by float[chn][sample] 
  34:lib/libdaisy/src/hid/audio.h ****     */
  35:lib/libdaisy/src/hid/audio.h ****     typedef float** OutputBuffer;
  36:lib/libdaisy/src/hid/audio.h **** 
  37:lib/libdaisy/src/hid/audio.h ****     /** Type for a Non-Interleaving audio callback 
  38:lib/libdaisy/src/hid/audio.h ****    * Non-Interleaving audio callbacks in daisy will be of this type
  39:lib/libdaisy/src/hid/audio.h ****   */
  40:lib/libdaisy/src/hid/audio.h ****     typedef void (*AudioCallback)(InputBuffer  in,
  41:lib/libdaisy/src/hid/audio.h ****                                   OutputBuffer out,
  42:lib/libdaisy/src/hid/audio.h ****                                   size_t       size);
  43:lib/libdaisy/src/hid/audio.h **** 
  44:lib/libdaisy/src/hid/audio.h ****     /** Interleaving Input buffer
  45:lib/libdaisy/src/hid/audio.h ****      ** audio is prepared as { L0, R0, L1, R1, . . . LN, RN }]
  46:lib/libdaisy/src/hid/audio.h ****      ** this is const, as the user shouldn't modify it
  47:lib/libdaisy/src/hid/audio.h ****     */
  48:lib/libdaisy/src/hid/audio.h ****     typedef const float* InterleavingInputBuffer;
  49:lib/libdaisy/src/hid/audio.h **** 
  50:lib/libdaisy/src/hid/audio.h ****     /** Interleaving Output buffer 
  51:lib/libdaisy/src/hid/audio.h ****      ** audio is prepared as { L0, R0, L1, R1, . . . LN, RN }
  52:lib/libdaisy/src/hid/audio.h ****     */
  53:lib/libdaisy/src/hid/audio.h ****     typedef float* InterleavingOutputBuffer;
  54:lib/libdaisy/src/hid/audio.h **** 
  55:lib/libdaisy/src/hid/audio.h ****     /** Interleaving Audio Callback 
  56:lib/libdaisy/src/hid/audio.h ****    * Interleaving audio callbacks in daisy must be of this type
  57:lib/libdaisy/src/hid/audio.h ****   */
  58:lib/libdaisy/src/hid/audio.h ****     typedef void (*InterleavingAudioCallback)(InterleavingInputBuffer  in,
  59:lib/libdaisy/src/hid/audio.h ****                                               InterleavingOutputBuffer out,
  60:lib/libdaisy/src/hid/audio.h ****                                               size_t                   size);
  61:lib/libdaisy/src/hid/audio.h **** 
  62:lib/libdaisy/src/hid/audio.h ****     AudioHandle() : pimpl_(nullptr) {}
  63:lib/libdaisy/src/hid/audio.h ****     ~AudioHandle() {}
 101              		.loc 7 63 5 is_stmt 1 view .LVU11
 102              		.loc 7 63 5 is_stmt 0 view .LVU12
 103              	.LBE369:
 104              		.loc 3 22 19 view .LVU13
 105 0000 7047     		bx	lr
 106              		.cfi_endproc
ARM GAS  /var/folders/9s/8rp0_f2s1n31qbztm3b5_fdh0000gn/T//cc1V9ehO.s 			page 9


 107              	.LFE2146:
 109              		.weak	_ZN5daisy9DaisySeedD1Ev
 110              		.thumb_set _ZN5daisy9DaisySeedD1Ev,_ZN5daisy9DaisySeedD2Ev
 111              		.section	.text._ZN6Mpr121D2Ev,"axG",%progbits,_ZN6Mpr121D5Ev,comdat
 112              		.align	1
 113              		.weak	_ZN6Mpr121D2Ev
 114              		.syntax unified
 115              		.thumb
 116              		.thumb_func
 118              	_ZN6Mpr121D2Ev:
 119              	.LVL3:
 120              	.LFB4962:
 121              		.file 8 "mpr121_daisy.h"
   1:mpr121_daisy.h **** #pragma once
   2:mpr121_daisy.h **** #ifndef MPR121_DAISY_H
   3:mpr121_daisy.h **** #define MPR121_DAISY_H
   4:mpr121_daisy.h **** 
   5:mpr121_daisy.h **** #include "daisy_seed.h"
   6:mpr121_daisy.h **** #include "per/i2c.h"
   7:mpr121_daisy.h **** 
   8:mpr121_daisy.h **** using namespace daisy;
   9:mpr121_daisy.h **** 
  10:mpr121_daisy.h **** /// mp
  11:mpr121_daisy.h **** 
  12:mpr121_daisy.h **** // Register map
  13:mpr121_daisy.h **** #define MPR121_TOUCHSTATUS_L 0x00
  14:mpr121_daisy.h **** #define MPR121_TOUCHSTATUS_H 0x01
  15:mpr121_daisy.h **** #define MPR121_FILTDATA_0L 0x04
  16:mpr121_daisy.h **** #define MPR121_FILTDATA_0H 0x05
  17:mpr121_daisy.h **** #define MPR121_BASELINE_0 0x1E
  18:mpr121_daisy.h **** #define MPR121_MHDR 0x2B
  19:mpr121_daisy.h **** #define MPR121_NHDR 0x2C
  20:mpr121_daisy.h **** #define MPR121_NCLR 0x2D
  21:mpr121_daisy.h **** #define MPR121_FDLR 0x2E
  22:mpr121_daisy.h **** #define MPR121_MHDF 0x2F
  23:mpr121_daisy.h **** #define MPR121_NHDF 0x30
  24:mpr121_daisy.h **** #define MPR121_NCLF 0x31
  25:mpr121_daisy.h **** #define MPR121_FDLF 0x32
  26:mpr121_daisy.h **** #define MPR121_NHDT 0x33
  27:mpr121_daisy.h **** #define MPR121_NCLT 0x34
  28:mpr121_daisy.h **** #define MPR121_FDLT 0x35
  29:mpr121_daisy.h **** 
  30:mpr121_daisy.h **** #define MPR121_TOUCHTH_0 0x41
  31:mpr121_daisy.h **** #define MPR121_RELEASETH_0 0x42
  32:mpr121_daisy.h **** #define MPR121_DEBOUNCE 0x5B
  33:mpr121_daisy.h **** #define MPR121_CONFIG1 0x5C
  34:mpr121_daisy.h **** #define MPR121_CONFIG2 0x5D
  35:mpr121_daisy.h **** #define MPR121_CHARGECURR_0 0x5F
  36:mpr121_daisy.h **** #define MPR121_CHARGETIME_1 0x6C
  37:mpr121_daisy.h **** #define MPR121_ECR 0x5E
  38:mpr121_daisy.h **** #define MPR121_AUTOCONFIG0 0x7B
  39:mpr121_daisy.h **** #define MPR121_AUTOCONFIG1 0x7C
  40:mpr121_daisy.h **** #define MPR121_UPLIMIT 0x7D
  41:mpr121_daisy.h **** #define MPR121_LOWLIMIT 0x7E
  42:mpr121_daisy.h **** #define MPR121_TARGETLIMIT 0x7F
  43:mpr121_daisy.h **** 
  44:mpr121_daisy.h **** #define MPR121_GPIODIR 0x76
ARM GAS  /var/folders/9s/8rp0_f2s1n31qbztm3b5_fdh0000gn/T//cc1V9ehO.s 			page 10


  45:mpr121_daisy.h **** #define MPR121_GPIOEN 0x77
  46:mpr121_daisy.h **** #define MPR121_GPIOSET 0x78
  47:mpr121_daisy.h **** #define MPR121_GPIOCLR 0x79
  48:mpr121_daisy.h **** #define MPR121_GPIOTOGGLE 0x7A
  49:mpr121_daisy.h **** 
  50:mpr121_daisy.h **** #define MPR121_SOFTRESET 0x80
  51:mpr121_daisy.h **** #define MPR121_I2CADDR_DEFAULT 0x5A
  52:mpr121_daisy.h **** 
  53:mpr121_daisy.h **** class Mpr121
  54:mpr121_daisy.h **** {
  55:mpr121_daisy.h ****   public:
  56:mpr121_daisy.h ****     Mpr121() {}
  57:mpr121_daisy.h ****     ~Mpr121() {}
 122              		.loc 8 57 5 is_stmt 1 view -0
 123              		.cfi_startproc
 124              		@ args = 0, pretend = 0, frame = 0
 125              		@ frame_needed = 0, uses_anonymous_args = 0
 126              		@ link register save eliminated.
 127              		.loc 8 57 16 is_stmt 0 view .LVU15
 128 0000 7047     		bx	lr
 129              		.cfi_endproc
 130              	.LFE4962:
 132              		.weak	_ZN6Mpr121D1Ev
 133              		.thumb_set _ZN6Mpr121D1Ev,_ZN6Mpr121D2Ev
 134              		.section	.text._ZN10infrasonic9EchoDelayILj48000EED2Ev,"axG",%progbits,_ZN10infrasonic9EchoDelayIL
 135              		.align	1
 136              		.weak	_ZN10infrasonic9EchoDelayILj48000EED2Ev
 137              		.syntax unified
 138              		.thumb
 139              		.thumb_func
 141              	_ZN10infrasonic9EchoDelayILj48000EED2Ev:
 142              	.LVL4:
 143              	.LFB6151:
 144              		.file 9 "Effects/EchoDelay.h"
   1:Effects/EchoDelay.h **** #pragma once
   2:Effects/EchoDelay.h **** #ifndef INFS_ECHODELAY_H
   3:Effects/EchoDelay.h **** #define INFS_ECHODELAY_H
   4:Effects/EchoDelay.h **** 
   5:Effects/EchoDelay.h **** #include <daisysp.h>
   6:Effects/EchoDelay.h **** #include "BiquadFilters.h"
   7:Effects/EchoDelay.h **** #include "DSPUtils.h"
   8:Effects/EchoDelay.h **** 
   9:Effects/EchoDelay.h **** namespace infrasonic {
  10:Effects/EchoDelay.h **** 
  11:Effects/EchoDelay.h **** /**
  12:Effects/EchoDelay.h ****  * @brief
  13:Effects/EchoDelay.h ****  * Tape-ish echo delay.
  14:Effects/EchoDelay.h ****  *   - Feedback is unbounded, but signal is soft-clipped
  15:Effects/EchoDelay.h ****  *   - Output is full-wet, should be mixed with dry signal externally
  16:Effects/EchoDelay.h ****  *
  17:Effects/EchoDelay.h ****  * @tparam MaxLength Max length of delay in samples
  18:Effects/EchoDelay.h ****  */
  19:Effects/EchoDelay.h **** template<size_t MaxLength>
  20:Effects/EchoDelay.h **** class EchoDelay {
  21:Effects/EchoDelay.h **** 
  22:Effects/EchoDelay.h ****     public:
  23:Effects/EchoDelay.h **** 
ARM GAS  /var/folders/9s/8rp0_f2s1n31qbztm3b5_fdh0000gn/T//cc1V9ehO.s 			page 11


  24:Effects/EchoDelay.h ****         EchoDelay() {}
  25:Effects/EchoDelay.h ****         ~EchoDelay() {}
 145              		.loc 9 25 9 is_stmt 1 view -0
 146              		.cfi_startproc
 147              		@ args = 0, pretend = 0, frame = 0
 148              		@ frame_needed = 0, uses_anonymous_args = 0
 149              		@ link register save eliminated.
 150              	.LBB370:
 151              	.LBI370:
 152              		.file 10 "Effects/BiquadFilters.h"
   1:Effects/BiquadFilters.h **** #pragma once
   2:Effects/BiquadFilters.h **** #ifndef INFS_BIQUADFILTERS_H
   3:Effects/BiquadFilters.h **** #define INFS_BIQUADFILTERS_H
   4:Effects/BiquadFilters.h **** 
   5:Effects/BiquadFilters.h **** #include <cassert>
   6:Effects/BiquadFilters.h **** #include <array>
   7:Effects/BiquadFilters.h **** #include <daisysp.h>
   8:Effects/BiquadFilters.h **** 
   9:Effects/BiquadFilters.h **** namespace infrasonic {
  10:Effects/BiquadFilters.h **** 
  11:Effects/BiquadFilters.h **** /**
  12:Effects/BiquadFilters.h ****  *  Single precision 2nd order biquad filter section with support for stereo processing.
  13:Effects/BiquadFilters.h ****  *  NOTE: There are templated filter definitions at the bottom of this file for convenience. 
  14:Effects/BiquadFilters.h ****  */
  15:Effects/BiquadFilters.h **** class BiquadSection {
  16:Effects/BiquadFilters.h **** 
  17:Effects/BiquadFilters.h ****     public:
  18:Effects/BiquadFilters.h **** 
  19:Effects/BiquadFilters.h ****         enum class FilterType {
  20:Effects/BiquadFilters.h ****             LowPass,
  21:Effects/BiquadFilters.h ****             HighPass,
  22:Effects/BiquadFilters.h ****             BandPass
  23:Effects/BiquadFilters.h ****         };
  24:Effects/BiquadFilters.h **** 
  25:Effects/BiquadFilters.h ****         // Assumes normalized coefficients (a0 == 1)
  26:Effects/BiquadFilters.h ****         // Ordering numerator then denominator: {b0, b1, b2, a1, a2}
  27:Effects/BiquadFilters.h ****         using Coefficients = std::array<float, 5>;
  28:Effects/BiquadFilters.h **** 
  29:Effects/BiquadFilters.h ****         static const Coefficients CalculateCoefficients(const FilterType type, 
  30:Effects/BiquadFilters.h ****                                                         const float sample_rate,
  31:Effects/BiquadFilters.h ****                                                         const float cutoff_hz,
  32:Effects/BiquadFilters.h ****                                                         const float q);
  33:Effects/BiquadFilters.h **** 
  34:Effects/BiquadFilters.h ****         BiquadSection() {}
  35:Effects/BiquadFilters.h ****         ~BiquadSection() {}
  36:Effects/BiquadFilters.h **** 
  37:Effects/BiquadFilters.h ****         void SetCoefficients(const Coefficients coefficients) { coefs_ = coefficients; }
  38:Effects/BiquadFilters.h **** 
  39:Effects/BiquadFilters.h ****         inline float Process(const float in, const int channel)
  40:Effects/BiquadFilters.h ****         {
  41:Effects/BiquadFilters.h ****             assert(channel < 2);
  42:Effects/BiquadFilters.h **** 
  43:Effects/BiquadFilters.h ****             // TODO: arm accelerated version
  44:Effects/BiquadFilters.h **** 
  45:Effects/BiquadFilters.h ****             const float &b0 = coefs_[0];
  46:Effects/BiquadFilters.h ****             const float &b1 = coefs_[1];
  47:Effects/BiquadFilters.h ****             const float &b2 = coefs_[2];
ARM GAS  /var/folders/9s/8rp0_f2s1n31qbztm3b5_fdh0000gn/T//cc1V9ehO.s 			page 12


  48:Effects/BiquadFilters.h ****             const float &a1 = coefs_[3];
  49:Effects/BiquadFilters.h ****             const float &a2 = coefs_[4];
  50:Effects/BiquadFilters.h **** 
  51:Effects/BiquadFilters.h ****             // Transposed direct form 2
  52:Effects/BiquadFilters.h ****             float y = b0 * in + s1_[channel];
  53:Effects/BiquadFilters.h ****             s1_[channel] = s2_[channel] + in * b1 - a1 * y;
  54:Effects/BiquadFilters.h ****             s2_[channel] = b2 * in - a2 * y;
  55:Effects/BiquadFilters.h ****             return y;
  56:Effects/BiquadFilters.h ****         }
  57:Effects/BiquadFilters.h **** 
  58:Effects/BiquadFilters.h ****     private:
  59:Effects/BiquadFilters.h ****         // coef
  60:Effects/BiquadFilters.h ****         Coefficients coefs_{0, 0, 0, 0, 0};
  61:Effects/BiquadFilters.h **** 
  62:Effects/BiquadFilters.h ****         // state
  63:Effects/BiquadFilters.h ****         float s1_[2] = {0, 0};
  64:Effects/BiquadFilters.h ****         float s2_[2] = {0, 0};
  65:Effects/BiquadFilters.h **** 
  66:Effects/BiquadFilters.h **** };
  67:Effects/BiquadFilters.h **** 
  68:Effects/BiquadFilters.h **** /// Templated cascaded biquad filter. Filter Order = 2 * NumSections.
  69:Effects/BiquadFilters.h **** /// NOTE: Only supports even-ordered filters.
  70:Effects/BiquadFilters.h **** template<size_t NumSections, BiquadSection::FilterType FilterType>
  71:Effects/BiquadFilters.h **** class BiquadCascade {
  72:Effects/BiquadFilters.h **** 
  73:Effects/BiquadFilters.h ****     static_assert(NumSections > 0, "Must have at least one section");
  74:Effects/BiquadFilters.h **** 
  75:Effects/BiquadFilters.h ****     public:
  76:Effects/BiquadFilters.h ****         BiquadCascade() {}
  77:Effects/BiquadFilters.h ****         ~BiquadCascade() {}
 153              		.loc 10 77 9 view .LVU17
 154              	.LBB371:
 155              	.LBI371:
 156              		.file 11 "/Library/DaisyToolchain/0.2.0/arm/arm-none-eabi/include/c++/10.3.1/array"
   1:/Library/DaisyToolchain/0.2.0/arm/arm-none-eabi/include/c++/10.3.1/array **** // <array> -*- C++ -*-
   2:/Library/DaisyToolchain/0.2.0/arm/arm-none-eabi/include/c++/10.3.1/array **** 
   3:/Library/DaisyToolchain/0.2.0/arm/arm-none-eabi/include/c++/10.3.1/array **** // Copyright (C) 2007-2020 Free Software Foundation, Inc.
   4:/Library/DaisyToolchain/0.2.0/arm/arm-none-eabi/include/c++/10.3.1/array **** //
   5:/Library/DaisyToolchain/0.2.0/arm/arm-none-eabi/include/c++/10.3.1/array **** // This file is part of the GNU ISO C++ Library.  This library is free
   6:/Library/DaisyToolchain/0.2.0/arm/arm-none-eabi/include/c++/10.3.1/array **** // software; you can redistribute it and/or modify it under the
   7:/Library/DaisyToolchain/0.2.0/arm/arm-none-eabi/include/c++/10.3.1/array **** // terms of the GNU General Public License as published by the
   8:/Library/DaisyToolchain/0.2.0/arm/arm-none-eabi/include/c++/10.3.1/array **** // Free Software Foundation; either version 3, or (at your option)
   9:/Library/DaisyToolchain/0.2.0/arm/arm-none-eabi/include/c++/10.3.1/array **** // any later version.
  10:/Library/DaisyToolchain/0.2.0/arm/arm-none-eabi/include/c++/10.3.1/array **** 
  11:/Library/DaisyToolchain/0.2.0/arm/arm-none-eabi/include/c++/10.3.1/array **** // This library is distributed in the hope that it will be useful,
  12:/Library/DaisyToolchain/0.2.0/arm/arm-none-eabi/include/c++/10.3.1/array **** // but WITHOUT ANY WARRANTY; without even the implied warranty of
  13:/Library/DaisyToolchain/0.2.0/arm/arm-none-eabi/include/c++/10.3.1/array **** // MERCHANTABILITY or FITNESS FOR A PARTICULAR PURPOSE.  See the
  14:/Library/DaisyToolchain/0.2.0/arm/arm-none-eabi/include/c++/10.3.1/array **** // GNU General Public License for more details.
  15:/Library/DaisyToolchain/0.2.0/arm/arm-none-eabi/include/c++/10.3.1/array **** 
  16:/Library/DaisyToolchain/0.2.0/arm/arm-none-eabi/include/c++/10.3.1/array **** // Under Section 7 of GPL version 3, you are granted additional
  17:/Library/DaisyToolchain/0.2.0/arm/arm-none-eabi/include/c++/10.3.1/array **** // permissions described in the GCC Runtime Library Exception, version
  18:/Library/DaisyToolchain/0.2.0/arm/arm-none-eabi/include/c++/10.3.1/array **** // 3.1, as published by the Free Software Foundation.
  19:/Library/DaisyToolchain/0.2.0/arm/arm-none-eabi/include/c++/10.3.1/array **** 
  20:/Library/DaisyToolchain/0.2.0/arm/arm-none-eabi/include/c++/10.3.1/array **** // You should have received a copy of the GNU General Public License and
  21:/Library/DaisyToolchain/0.2.0/arm/arm-none-eabi/include/c++/10.3.1/array **** // a copy of the GCC Runtime Library Exception along with this program;
  22:/Library/DaisyToolchain/0.2.0/arm/arm-none-eabi/include/c++/10.3.1/array **** // see the files COPYING3 and COPYING.RUNTIME respectively.  If not, see
  23:/Library/DaisyToolchain/0.2.0/arm/arm-none-eabi/include/c++/10.3.1/array **** // <http://www.gnu.org/licenses/>.
ARM GAS  /var/folders/9s/8rp0_f2s1n31qbztm3b5_fdh0000gn/T//cc1V9ehO.s 			page 13


  24:/Library/DaisyToolchain/0.2.0/arm/arm-none-eabi/include/c++/10.3.1/array **** 
  25:/Library/DaisyToolchain/0.2.0/arm/arm-none-eabi/include/c++/10.3.1/array **** /** @file include/array
  26:/Library/DaisyToolchain/0.2.0/arm/arm-none-eabi/include/c++/10.3.1/array ****  *  This is a Standard C++ Library header.
  27:/Library/DaisyToolchain/0.2.0/arm/arm-none-eabi/include/c++/10.3.1/array ****  */
  28:/Library/DaisyToolchain/0.2.0/arm/arm-none-eabi/include/c++/10.3.1/array **** 
  29:/Library/DaisyToolchain/0.2.0/arm/arm-none-eabi/include/c++/10.3.1/array **** #ifndef _GLIBCXX_ARRAY
  30:/Library/DaisyToolchain/0.2.0/arm/arm-none-eabi/include/c++/10.3.1/array **** #define _GLIBCXX_ARRAY 1
  31:/Library/DaisyToolchain/0.2.0/arm/arm-none-eabi/include/c++/10.3.1/array **** 
  32:/Library/DaisyToolchain/0.2.0/arm/arm-none-eabi/include/c++/10.3.1/array **** #pragma GCC system_header
  33:/Library/DaisyToolchain/0.2.0/arm/arm-none-eabi/include/c++/10.3.1/array **** 
  34:/Library/DaisyToolchain/0.2.0/arm/arm-none-eabi/include/c++/10.3.1/array **** #if __cplusplus < 201103L
  35:/Library/DaisyToolchain/0.2.0/arm/arm-none-eabi/include/c++/10.3.1/array **** # include <bits/c++0x_warning.h>
  36:/Library/DaisyToolchain/0.2.0/arm/arm-none-eabi/include/c++/10.3.1/array **** #else
  37:/Library/DaisyToolchain/0.2.0/arm/arm-none-eabi/include/c++/10.3.1/array **** 
  38:/Library/DaisyToolchain/0.2.0/arm/arm-none-eabi/include/c++/10.3.1/array **** #include <utility>
  39:/Library/DaisyToolchain/0.2.0/arm/arm-none-eabi/include/c++/10.3.1/array **** #include <bits/functexcept.h>
  40:/Library/DaisyToolchain/0.2.0/arm/arm-none-eabi/include/c++/10.3.1/array **** #include <bits/stl_algobase.h>
  41:/Library/DaisyToolchain/0.2.0/arm/arm-none-eabi/include/c++/10.3.1/array **** #include <bits/range_access.h>
  42:/Library/DaisyToolchain/0.2.0/arm/arm-none-eabi/include/c++/10.3.1/array **** 
  43:/Library/DaisyToolchain/0.2.0/arm/arm-none-eabi/include/c++/10.3.1/array **** namespace std _GLIBCXX_VISIBILITY(default)
  44:/Library/DaisyToolchain/0.2.0/arm/arm-none-eabi/include/c++/10.3.1/array **** {
  45:/Library/DaisyToolchain/0.2.0/arm/arm-none-eabi/include/c++/10.3.1/array **** _GLIBCXX_BEGIN_NAMESPACE_CONTAINER
  46:/Library/DaisyToolchain/0.2.0/arm/arm-none-eabi/include/c++/10.3.1/array **** 
  47:/Library/DaisyToolchain/0.2.0/arm/arm-none-eabi/include/c++/10.3.1/array ****   template<typename _Tp, std::size_t _Nm>
  48:/Library/DaisyToolchain/0.2.0/arm/arm-none-eabi/include/c++/10.3.1/array ****     struct __array_traits
  49:/Library/DaisyToolchain/0.2.0/arm/arm-none-eabi/include/c++/10.3.1/array ****     {
  50:/Library/DaisyToolchain/0.2.0/arm/arm-none-eabi/include/c++/10.3.1/array ****       typedef _Tp _Type[_Nm];
  51:/Library/DaisyToolchain/0.2.0/arm/arm-none-eabi/include/c++/10.3.1/array ****       typedef __is_swappable<_Tp> _Is_swappable;
  52:/Library/DaisyToolchain/0.2.0/arm/arm-none-eabi/include/c++/10.3.1/array ****       typedef __is_nothrow_swappable<_Tp> _Is_nothrow_swappable;
  53:/Library/DaisyToolchain/0.2.0/arm/arm-none-eabi/include/c++/10.3.1/array **** 
  54:/Library/DaisyToolchain/0.2.0/arm/arm-none-eabi/include/c++/10.3.1/array ****       static constexpr _Tp&
  55:/Library/DaisyToolchain/0.2.0/arm/arm-none-eabi/include/c++/10.3.1/array ****       _S_ref(const _Type& __t, std::size_t __n) noexcept
  56:/Library/DaisyToolchain/0.2.0/arm/arm-none-eabi/include/c++/10.3.1/array ****       { return const_cast<_Tp&>(__t[__n]); }
  57:/Library/DaisyToolchain/0.2.0/arm/arm-none-eabi/include/c++/10.3.1/array **** 
  58:/Library/DaisyToolchain/0.2.0/arm/arm-none-eabi/include/c++/10.3.1/array ****       static constexpr _Tp*
  59:/Library/DaisyToolchain/0.2.0/arm/arm-none-eabi/include/c++/10.3.1/array ****       _S_ptr(const _Type& __t) noexcept
  60:/Library/DaisyToolchain/0.2.0/arm/arm-none-eabi/include/c++/10.3.1/array ****       { return const_cast<_Tp*>(__t); }
  61:/Library/DaisyToolchain/0.2.0/arm/arm-none-eabi/include/c++/10.3.1/array ****     };
  62:/Library/DaisyToolchain/0.2.0/arm/arm-none-eabi/include/c++/10.3.1/array **** 
  63:/Library/DaisyToolchain/0.2.0/arm/arm-none-eabi/include/c++/10.3.1/array ****  template<typename _Tp>
  64:/Library/DaisyToolchain/0.2.0/arm/arm-none-eabi/include/c++/10.3.1/array ****    struct __array_traits<_Tp, 0>
  65:/Library/DaisyToolchain/0.2.0/arm/arm-none-eabi/include/c++/10.3.1/array ****    {
  66:/Library/DaisyToolchain/0.2.0/arm/arm-none-eabi/include/c++/10.3.1/array ****      struct _Type { };
  67:/Library/DaisyToolchain/0.2.0/arm/arm-none-eabi/include/c++/10.3.1/array ****      typedef true_type _Is_swappable;
  68:/Library/DaisyToolchain/0.2.0/arm/arm-none-eabi/include/c++/10.3.1/array ****      typedef true_type _Is_nothrow_swappable;
  69:/Library/DaisyToolchain/0.2.0/arm/arm-none-eabi/include/c++/10.3.1/array **** 
  70:/Library/DaisyToolchain/0.2.0/arm/arm-none-eabi/include/c++/10.3.1/array ****      static constexpr _Tp&
  71:/Library/DaisyToolchain/0.2.0/arm/arm-none-eabi/include/c++/10.3.1/array ****      _S_ref(const _Type&, std::size_t) noexcept
  72:/Library/DaisyToolchain/0.2.0/arm/arm-none-eabi/include/c++/10.3.1/array ****      { return *static_cast<_Tp*>(nullptr); }
  73:/Library/DaisyToolchain/0.2.0/arm/arm-none-eabi/include/c++/10.3.1/array **** 
  74:/Library/DaisyToolchain/0.2.0/arm/arm-none-eabi/include/c++/10.3.1/array ****      static constexpr _Tp*
  75:/Library/DaisyToolchain/0.2.0/arm/arm-none-eabi/include/c++/10.3.1/array ****      _S_ptr(const _Type&) noexcept
  76:/Library/DaisyToolchain/0.2.0/arm/arm-none-eabi/include/c++/10.3.1/array ****      { return nullptr; }
  77:/Library/DaisyToolchain/0.2.0/arm/arm-none-eabi/include/c++/10.3.1/array ****    };
  78:/Library/DaisyToolchain/0.2.0/arm/arm-none-eabi/include/c++/10.3.1/array **** 
  79:/Library/DaisyToolchain/0.2.0/arm/arm-none-eabi/include/c++/10.3.1/array ****   /**
  80:/Library/DaisyToolchain/0.2.0/arm/arm-none-eabi/include/c++/10.3.1/array ****    *  @brief A standard container for storing a fixed size sequence of elements.
ARM GAS  /var/folders/9s/8rp0_f2s1n31qbztm3b5_fdh0000gn/T//cc1V9ehO.s 			page 14


  81:/Library/DaisyToolchain/0.2.0/arm/arm-none-eabi/include/c++/10.3.1/array ****    *
  82:/Library/DaisyToolchain/0.2.0/arm/arm-none-eabi/include/c++/10.3.1/array ****    *  @ingroup sequences
  83:/Library/DaisyToolchain/0.2.0/arm/arm-none-eabi/include/c++/10.3.1/array ****    *
  84:/Library/DaisyToolchain/0.2.0/arm/arm-none-eabi/include/c++/10.3.1/array ****    *  Meets the requirements of a <a href="tables.html#65">container</a>, a
  85:/Library/DaisyToolchain/0.2.0/arm/arm-none-eabi/include/c++/10.3.1/array ****    *  <a href="tables.html#66">reversible container</a>, and a
  86:/Library/DaisyToolchain/0.2.0/arm/arm-none-eabi/include/c++/10.3.1/array ****    *  <a href="tables.html#67">sequence</a>.
  87:/Library/DaisyToolchain/0.2.0/arm/arm-none-eabi/include/c++/10.3.1/array ****    *
  88:/Library/DaisyToolchain/0.2.0/arm/arm-none-eabi/include/c++/10.3.1/array ****    *  Sets support random access iterators.
  89:/Library/DaisyToolchain/0.2.0/arm/arm-none-eabi/include/c++/10.3.1/array ****    *
  90:/Library/DaisyToolchain/0.2.0/arm/arm-none-eabi/include/c++/10.3.1/array ****    *  @tparam  Tp  Type of element. Required to be a complete type.
  91:/Library/DaisyToolchain/0.2.0/arm/arm-none-eabi/include/c++/10.3.1/array ****    *  @tparam  Nm  Number of elements.
  92:/Library/DaisyToolchain/0.2.0/arm/arm-none-eabi/include/c++/10.3.1/array ****   */
  93:/Library/DaisyToolchain/0.2.0/arm/arm-none-eabi/include/c++/10.3.1/array ****   template<typename _Tp, std::size_t _Nm>
  94:/Library/DaisyToolchain/0.2.0/arm/arm-none-eabi/include/c++/10.3.1/array ****     struct array
 157              		.loc 11 94 12 view .LVU18
 158              		.loc 11 94 12 is_stmt 0 view .LVU19
 159              	.LBE371:
 160              	.LBE370:
 161              	.LBB372:
 162              	.LBI372:
 163              		.file 12 "lib/DaisySP/Source/Utility/delayline.h"
   1:lib/DaisySP/Source/Utility/delayline.h **** /*
   2:lib/DaisySP/Source/Utility/delayline.h **** Copyright (c) 2020 Electrosmith, Corp
   3:lib/DaisySP/Source/Utility/delayline.h **** 
   4:lib/DaisySP/Source/Utility/delayline.h **** Use of this source code is governed by an MIT-style
   5:lib/DaisySP/Source/Utility/delayline.h **** license that can be found in the LICENSE file or at
   6:lib/DaisySP/Source/Utility/delayline.h **** https://opensource.org/licenses/MIT.
   7:lib/DaisySP/Source/Utility/delayline.h **** */
   8:lib/DaisySP/Source/Utility/delayline.h **** 
   9:lib/DaisySP/Source/Utility/delayline.h **** #pragma once
  10:lib/DaisySP/Source/Utility/delayline.h **** #ifndef DSY_DELAY_H
  11:lib/DaisySP/Source/Utility/delayline.h **** #define DSY_DELAY_H
  12:lib/DaisySP/Source/Utility/delayline.h **** #include <stdlib.h>
  13:lib/DaisySP/Source/Utility/delayline.h **** #include <stdint.h>
  14:lib/DaisySP/Source/Utility/delayline.h **** namespace daisysp
  15:lib/DaisySP/Source/Utility/delayline.h **** {
  16:lib/DaisySP/Source/Utility/delayline.h **** /** Simple Delay line.
  17:lib/DaisySP/Source/Utility/delayline.h **** November 2019
  18:lib/DaisySP/Source/Utility/delayline.h **** 
  19:lib/DaisySP/Source/Utility/delayline.h **** Converted to Template December 2019
  20:lib/DaisySP/Source/Utility/delayline.h **** 
  21:lib/DaisySP/Source/Utility/delayline.h **** declaration example: (1 second of floats)
  22:lib/DaisySP/Source/Utility/delayline.h **** 
  23:lib/DaisySP/Source/Utility/delayline.h **** DelayLine<float, SAMPLE_RATE> del;
  24:lib/DaisySP/Source/Utility/delayline.h **** 
  25:lib/DaisySP/Source/Utility/delayline.h **** By: shensley
  26:lib/DaisySP/Source/Utility/delayline.h **** */
  27:lib/DaisySP/Source/Utility/delayline.h **** template <typename T, size_t max_size>
  28:lib/DaisySP/Source/Utility/delayline.h **** class DelayLine
  29:lib/DaisySP/Source/Utility/delayline.h **** {
  30:lib/DaisySP/Source/Utility/delayline.h ****   public:
  31:lib/DaisySP/Source/Utility/delayline.h ****     DelayLine() {}
  32:lib/DaisySP/Source/Utility/delayline.h ****     ~DelayLine() {}
 164              		.loc 12 32 5 is_stmt 1 view .LVU20
 165              		.loc 12 32 5 is_stmt 0 view .LVU21
 166              	.LBE372:
 167              		.loc 9 25 23 view .LVU22
ARM GAS  /var/folders/9s/8rp0_f2s1n31qbztm3b5_fdh0000gn/T//cc1V9ehO.s 			page 15


 168 0000 7047     		bx	lr
 169              		.cfi_endproc
 170              	.LFE6151:
 172              		.weak	_ZN10infrasonic9EchoDelayILj48000EED1Ev
 173              		.thumb_set _ZN10infrasonic9EchoDelayILj48000EED1Ev,_ZN10infrasonic9EchoDelayILj48000EED2Ev
 174              		.section	.text._ZNSt17_Function_handlerIFviEZ15InitializeSynthvEUliE_E10_M_managerERSt9_Any_dataRK
 175              		.align	1
 176              		.syntax unified
 177              		.thumb
 178              		.thumb_func
 180              	_ZNSt17_Function_handlerIFviEZ15InitializeSynthvEUliE_E10_M_managerERSt9_Any_dataRKS3_St18_Manager_
 181              	.LVL5:
 182              	.LFB5964:
 183              		.file 13 "/Library/DaisyToolchain/0.2.0/arm/arm-none-eabi/include/c++/10.3.1/bits/std_function.h"
   1:/Library/DaisyToolchain/0.2.0/arm/arm-none-eabi/include/c++/10.3.1/bits/std_function.h **** // Implementation of std::function -*- C++ -*-
   2:/Library/DaisyToolchain/0.2.0/arm/arm-none-eabi/include/c++/10.3.1/bits/std_function.h **** 
   3:/Library/DaisyToolchain/0.2.0/arm/arm-none-eabi/include/c++/10.3.1/bits/std_function.h **** // Copyright (C) 2004-2020 Free Software Foundation, Inc.
   4:/Library/DaisyToolchain/0.2.0/arm/arm-none-eabi/include/c++/10.3.1/bits/std_function.h **** //
   5:/Library/DaisyToolchain/0.2.0/arm/arm-none-eabi/include/c++/10.3.1/bits/std_function.h **** // This file is part of the GNU ISO C++ Library.  This library is free
   6:/Library/DaisyToolchain/0.2.0/arm/arm-none-eabi/include/c++/10.3.1/bits/std_function.h **** // software; you can redistribute it and/or modify it under the
   7:/Library/DaisyToolchain/0.2.0/arm/arm-none-eabi/include/c++/10.3.1/bits/std_function.h **** // terms of the GNU General Public License as published by the
   8:/Library/DaisyToolchain/0.2.0/arm/arm-none-eabi/include/c++/10.3.1/bits/std_function.h **** // Free Software Foundation; either version 3, or (at your option)
   9:/Library/DaisyToolchain/0.2.0/arm/arm-none-eabi/include/c++/10.3.1/bits/std_function.h **** // any later version.
  10:/Library/DaisyToolchain/0.2.0/arm/arm-none-eabi/include/c++/10.3.1/bits/std_function.h **** 
  11:/Library/DaisyToolchain/0.2.0/arm/arm-none-eabi/include/c++/10.3.1/bits/std_function.h **** // This library is distributed in the hope that it will be useful,
  12:/Library/DaisyToolchain/0.2.0/arm/arm-none-eabi/include/c++/10.3.1/bits/std_function.h **** // but WITHOUT ANY WARRANTY; without even the implied warranty of
  13:/Library/DaisyToolchain/0.2.0/arm/arm-none-eabi/include/c++/10.3.1/bits/std_function.h **** // MERCHANTABILITY or FITNESS FOR A PARTICULAR PURPOSE.  See the
  14:/Library/DaisyToolchain/0.2.0/arm/arm-none-eabi/include/c++/10.3.1/bits/std_function.h **** // GNU General Public License for more details.
  15:/Library/DaisyToolchain/0.2.0/arm/arm-none-eabi/include/c++/10.3.1/bits/std_function.h **** 
  16:/Library/DaisyToolchain/0.2.0/arm/arm-none-eabi/include/c++/10.3.1/bits/std_function.h **** // Under Section 7 of GPL version 3, you are granted additional
  17:/Library/DaisyToolchain/0.2.0/arm/arm-none-eabi/include/c++/10.3.1/bits/std_function.h **** // permissions described in the GCC Runtime Library Exception, version
  18:/Library/DaisyToolchain/0.2.0/arm/arm-none-eabi/include/c++/10.3.1/bits/std_function.h **** // 3.1, as published by the Free Software Foundation.
  19:/Library/DaisyToolchain/0.2.0/arm/arm-none-eabi/include/c++/10.3.1/bits/std_function.h **** 
  20:/Library/DaisyToolchain/0.2.0/arm/arm-none-eabi/include/c++/10.3.1/bits/std_function.h **** // You should have received a copy of the GNU General Public License and
  21:/Library/DaisyToolchain/0.2.0/arm/arm-none-eabi/include/c++/10.3.1/bits/std_function.h **** // a copy of the GCC Runtime Library Exception along with this program;
  22:/Library/DaisyToolchain/0.2.0/arm/arm-none-eabi/include/c++/10.3.1/bits/std_function.h **** // see the files COPYING3 and COPYING.RUNTIME respectively.  If not, see
  23:/Library/DaisyToolchain/0.2.0/arm/arm-none-eabi/include/c++/10.3.1/bits/std_function.h **** // <http://www.gnu.org/licenses/>.
  24:/Library/DaisyToolchain/0.2.0/arm/arm-none-eabi/include/c++/10.3.1/bits/std_function.h **** 
  25:/Library/DaisyToolchain/0.2.0/arm/arm-none-eabi/include/c++/10.3.1/bits/std_function.h **** /** @file include/bits/std_function.h
  26:/Library/DaisyToolchain/0.2.0/arm/arm-none-eabi/include/c++/10.3.1/bits/std_function.h ****  *  This is an internal header file, included by other library headers.
  27:/Library/DaisyToolchain/0.2.0/arm/arm-none-eabi/include/c++/10.3.1/bits/std_function.h ****  *  Do not attempt to use it directly. @headername{functional}
  28:/Library/DaisyToolchain/0.2.0/arm/arm-none-eabi/include/c++/10.3.1/bits/std_function.h ****  */
  29:/Library/DaisyToolchain/0.2.0/arm/arm-none-eabi/include/c++/10.3.1/bits/std_function.h **** 
  30:/Library/DaisyToolchain/0.2.0/arm/arm-none-eabi/include/c++/10.3.1/bits/std_function.h **** #ifndef _GLIBCXX_STD_FUNCTION_H
  31:/Library/DaisyToolchain/0.2.0/arm/arm-none-eabi/include/c++/10.3.1/bits/std_function.h **** #define _GLIBCXX_STD_FUNCTION_H 1
  32:/Library/DaisyToolchain/0.2.0/arm/arm-none-eabi/include/c++/10.3.1/bits/std_function.h **** 
  33:/Library/DaisyToolchain/0.2.0/arm/arm-none-eabi/include/c++/10.3.1/bits/std_function.h **** #pragma GCC system_header
  34:/Library/DaisyToolchain/0.2.0/arm/arm-none-eabi/include/c++/10.3.1/bits/std_function.h **** 
  35:/Library/DaisyToolchain/0.2.0/arm/arm-none-eabi/include/c++/10.3.1/bits/std_function.h **** #if __cplusplus < 201103L
  36:/Library/DaisyToolchain/0.2.0/arm/arm-none-eabi/include/c++/10.3.1/bits/std_function.h **** # include <bits/c++0x_warning.h>
  37:/Library/DaisyToolchain/0.2.0/arm/arm-none-eabi/include/c++/10.3.1/bits/std_function.h **** #else
  38:/Library/DaisyToolchain/0.2.0/arm/arm-none-eabi/include/c++/10.3.1/bits/std_function.h **** 
  39:/Library/DaisyToolchain/0.2.0/arm/arm-none-eabi/include/c++/10.3.1/bits/std_function.h **** #if __cpp_rtti
  40:/Library/DaisyToolchain/0.2.0/arm/arm-none-eabi/include/c++/10.3.1/bits/std_function.h **** # include <typeinfo>
  41:/Library/DaisyToolchain/0.2.0/arm/arm-none-eabi/include/c++/10.3.1/bits/std_function.h **** #endif
  42:/Library/DaisyToolchain/0.2.0/arm/arm-none-eabi/include/c++/10.3.1/bits/std_function.h **** #include <bits/stl_function.h>
  43:/Library/DaisyToolchain/0.2.0/arm/arm-none-eabi/include/c++/10.3.1/bits/std_function.h **** #include <bits/invoke.h>
ARM GAS  /var/folders/9s/8rp0_f2s1n31qbztm3b5_fdh0000gn/T//cc1V9ehO.s 			page 16


  44:/Library/DaisyToolchain/0.2.0/arm/arm-none-eabi/include/c++/10.3.1/bits/std_function.h **** #include <bits/refwrap.h>
  45:/Library/DaisyToolchain/0.2.0/arm/arm-none-eabi/include/c++/10.3.1/bits/std_function.h **** #include <bits/functexcept.h>
  46:/Library/DaisyToolchain/0.2.0/arm/arm-none-eabi/include/c++/10.3.1/bits/std_function.h **** 
  47:/Library/DaisyToolchain/0.2.0/arm/arm-none-eabi/include/c++/10.3.1/bits/std_function.h **** namespace std _GLIBCXX_VISIBILITY(default)
  48:/Library/DaisyToolchain/0.2.0/arm/arm-none-eabi/include/c++/10.3.1/bits/std_function.h **** {
  49:/Library/DaisyToolchain/0.2.0/arm/arm-none-eabi/include/c++/10.3.1/bits/std_function.h **** _GLIBCXX_BEGIN_NAMESPACE_VERSION
  50:/Library/DaisyToolchain/0.2.0/arm/arm-none-eabi/include/c++/10.3.1/bits/std_function.h **** 
  51:/Library/DaisyToolchain/0.2.0/arm/arm-none-eabi/include/c++/10.3.1/bits/std_function.h ****   /**
  52:/Library/DaisyToolchain/0.2.0/arm/arm-none-eabi/include/c++/10.3.1/bits/std_function.h ****    *  @brief Exception class thrown when class template function's
  53:/Library/DaisyToolchain/0.2.0/arm/arm-none-eabi/include/c++/10.3.1/bits/std_function.h ****    *  operator() is called with an empty target.
  54:/Library/DaisyToolchain/0.2.0/arm/arm-none-eabi/include/c++/10.3.1/bits/std_function.h ****    *  @ingroup exceptions
  55:/Library/DaisyToolchain/0.2.0/arm/arm-none-eabi/include/c++/10.3.1/bits/std_function.h ****    */
  56:/Library/DaisyToolchain/0.2.0/arm/arm-none-eabi/include/c++/10.3.1/bits/std_function.h ****   class bad_function_call : public std::exception
  57:/Library/DaisyToolchain/0.2.0/arm/arm-none-eabi/include/c++/10.3.1/bits/std_function.h ****   {
  58:/Library/DaisyToolchain/0.2.0/arm/arm-none-eabi/include/c++/10.3.1/bits/std_function.h ****   public:
  59:/Library/DaisyToolchain/0.2.0/arm/arm-none-eabi/include/c++/10.3.1/bits/std_function.h ****     virtual ~bad_function_call() noexcept;
  60:/Library/DaisyToolchain/0.2.0/arm/arm-none-eabi/include/c++/10.3.1/bits/std_function.h **** 
  61:/Library/DaisyToolchain/0.2.0/arm/arm-none-eabi/include/c++/10.3.1/bits/std_function.h ****     const char* what() const noexcept;
  62:/Library/DaisyToolchain/0.2.0/arm/arm-none-eabi/include/c++/10.3.1/bits/std_function.h ****   };
  63:/Library/DaisyToolchain/0.2.0/arm/arm-none-eabi/include/c++/10.3.1/bits/std_function.h **** 
  64:/Library/DaisyToolchain/0.2.0/arm/arm-none-eabi/include/c++/10.3.1/bits/std_function.h ****   /**
  65:/Library/DaisyToolchain/0.2.0/arm/arm-none-eabi/include/c++/10.3.1/bits/std_function.h ****    *  Trait identifying "location-invariant" types, meaning that the
  66:/Library/DaisyToolchain/0.2.0/arm/arm-none-eabi/include/c++/10.3.1/bits/std_function.h ****    *  address of the object (or any of its members) will not escape.
  67:/Library/DaisyToolchain/0.2.0/arm/arm-none-eabi/include/c++/10.3.1/bits/std_function.h ****    *  Trivially copyable types are location-invariant and users can
  68:/Library/DaisyToolchain/0.2.0/arm/arm-none-eabi/include/c++/10.3.1/bits/std_function.h ****    *  specialize this trait for other types.
  69:/Library/DaisyToolchain/0.2.0/arm/arm-none-eabi/include/c++/10.3.1/bits/std_function.h ****    */
  70:/Library/DaisyToolchain/0.2.0/arm/arm-none-eabi/include/c++/10.3.1/bits/std_function.h ****   template<typename _Tp>
  71:/Library/DaisyToolchain/0.2.0/arm/arm-none-eabi/include/c++/10.3.1/bits/std_function.h ****     struct __is_location_invariant
  72:/Library/DaisyToolchain/0.2.0/arm/arm-none-eabi/include/c++/10.3.1/bits/std_function.h ****     : is_trivially_copyable<_Tp>::type
  73:/Library/DaisyToolchain/0.2.0/arm/arm-none-eabi/include/c++/10.3.1/bits/std_function.h ****     { };
  74:/Library/DaisyToolchain/0.2.0/arm/arm-none-eabi/include/c++/10.3.1/bits/std_function.h **** 
  75:/Library/DaisyToolchain/0.2.0/arm/arm-none-eabi/include/c++/10.3.1/bits/std_function.h ****   class _Undefined_class;
  76:/Library/DaisyToolchain/0.2.0/arm/arm-none-eabi/include/c++/10.3.1/bits/std_function.h **** 
  77:/Library/DaisyToolchain/0.2.0/arm/arm-none-eabi/include/c++/10.3.1/bits/std_function.h ****   union _Nocopy_types
  78:/Library/DaisyToolchain/0.2.0/arm/arm-none-eabi/include/c++/10.3.1/bits/std_function.h ****   {
  79:/Library/DaisyToolchain/0.2.0/arm/arm-none-eabi/include/c++/10.3.1/bits/std_function.h ****     void*       _M_object;
  80:/Library/DaisyToolchain/0.2.0/arm/arm-none-eabi/include/c++/10.3.1/bits/std_function.h ****     const void* _M_const_object;
  81:/Library/DaisyToolchain/0.2.0/arm/arm-none-eabi/include/c++/10.3.1/bits/std_function.h ****     void (*_M_function_pointer)();
  82:/Library/DaisyToolchain/0.2.0/arm/arm-none-eabi/include/c++/10.3.1/bits/std_function.h ****     void (_Undefined_class::*_M_member_pointer)();
  83:/Library/DaisyToolchain/0.2.0/arm/arm-none-eabi/include/c++/10.3.1/bits/std_function.h ****   };
  84:/Library/DaisyToolchain/0.2.0/arm/arm-none-eabi/include/c++/10.3.1/bits/std_function.h **** 
  85:/Library/DaisyToolchain/0.2.0/arm/arm-none-eabi/include/c++/10.3.1/bits/std_function.h ****   union [[gnu::may_alias]] _Any_data
  86:/Library/DaisyToolchain/0.2.0/arm/arm-none-eabi/include/c++/10.3.1/bits/std_function.h ****   {
  87:/Library/DaisyToolchain/0.2.0/arm/arm-none-eabi/include/c++/10.3.1/bits/std_function.h ****     void*       _M_access()       { return &_M_pod_data[0]; }
  88:/Library/DaisyToolchain/0.2.0/arm/arm-none-eabi/include/c++/10.3.1/bits/std_function.h ****     const void* _M_access() const { return &_M_pod_data[0]; }
  89:/Library/DaisyToolchain/0.2.0/arm/arm-none-eabi/include/c++/10.3.1/bits/std_function.h **** 
  90:/Library/DaisyToolchain/0.2.0/arm/arm-none-eabi/include/c++/10.3.1/bits/std_function.h ****     template<typename _Tp>
  91:/Library/DaisyToolchain/0.2.0/arm/arm-none-eabi/include/c++/10.3.1/bits/std_function.h ****       _Tp&
  92:/Library/DaisyToolchain/0.2.0/arm/arm-none-eabi/include/c++/10.3.1/bits/std_function.h ****       _M_access()
  93:/Library/DaisyToolchain/0.2.0/arm/arm-none-eabi/include/c++/10.3.1/bits/std_function.h ****       { return *static_cast<_Tp*>(_M_access()); }
  94:/Library/DaisyToolchain/0.2.0/arm/arm-none-eabi/include/c++/10.3.1/bits/std_function.h **** 
  95:/Library/DaisyToolchain/0.2.0/arm/arm-none-eabi/include/c++/10.3.1/bits/std_function.h ****     template<typename _Tp>
  96:/Library/DaisyToolchain/0.2.0/arm/arm-none-eabi/include/c++/10.3.1/bits/std_function.h ****       const _Tp&
  97:/Library/DaisyToolchain/0.2.0/arm/arm-none-eabi/include/c++/10.3.1/bits/std_function.h ****       _M_access() const
  98:/Library/DaisyToolchain/0.2.0/arm/arm-none-eabi/include/c++/10.3.1/bits/std_function.h ****       { return *static_cast<const _Tp*>(_M_access()); }
  99:/Library/DaisyToolchain/0.2.0/arm/arm-none-eabi/include/c++/10.3.1/bits/std_function.h **** 
 100:/Library/DaisyToolchain/0.2.0/arm/arm-none-eabi/include/c++/10.3.1/bits/std_function.h ****     _Nocopy_types _M_unused;
ARM GAS  /var/folders/9s/8rp0_f2s1n31qbztm3b5_fdh0000gn/T//cc1V9ehO.s 			page 17


 101:/Library/DaisyToolchain/0.2.0/arm/arm-none-eabi/include/c++/10.3.1/bits/std_function.h ****     char _M_pod_data[sizeof(_Nocopy_types)];
 102:/Library/DaisyToolchain/0.2.0/arm/arm-none-eabi/include/c++/10.3.1/bits/std_function.h ****   };
 103:/Library/DaisyToolchain/0.2.0/arm/arm-none-eabi/include/c++/10.3.1/bits/std_function.h **** 
 104:/Library/DaisyToolchain/0.2.0/arm/arm-none-eabi/include/c++/10.3.1/bits/std_function.h ****   enum _Manager_operation
 105:/Library/DaisyToolchain/0.2.0/arm/arm-none-eabi/include/c++/10.3.1/bits/std_function.h ****   {
 106:/Library/DaisyToolchain/0.2.0/arm/arm-none-eabi/include/c++/10.3.1/bits/std_function.h ****     __get_type_info,
 107:/Library/DaisyToolchain/0.2.0/arm/arm-none-eabi/include/c++/10.3.1/bits/std_function.h ****     __get_functor_ptr,
 108:/Library/DaisyToolchain/0.2.0/arm/arm-none-eabi/include/c++/10.3.1/bits/std_function.h ****     __clone_functor,
 109:/Library/DaisyToolchain/0.2.0/arm/arm-none-eabi/include/c++/10.3.1/bits/std_function.h ****     __destroy_functor
 110:/Library/DaisyToolchain/0.2.0/arm/arm-none-eabi/include/c++/10.3.1/bits/std_function.h ****   };
 111:/Library/DaisyToolchain/0.2.0/arm/arm-none-eabi/include/c++/10.3.1/bits/std_function.h **** 
 112:/Library/DaisyToolchain/0.2.0/arm/arm-none-eabi/include/c++/10.3.1/bits/std_function.h ****   template<typename _Signature>
 113:/Library/DaisyToolchain/0.2.0/arm/arm-none-eabi/include/c++/10.3.1/bits/std_function.h ****     class function;
 114:/Library/DaisyToolchain/0.2.0/arm/arm-none-eabi/include/c++/10.3.1/bits/std_function.h **** 
 115:/Library/DaisyToolchain/0.2.0/arm/arm-none-eabi/include/c++/10.3.1/bits/std_function.h ****   /// Base class of all polymorphic function object wrappers.
 116:/Library/DaisyToolchain/0.2.0/arm/arm-none-eabi/include/c++/10.3.1/bits/std_function.h ****   class _Function_base
 117:/Library/DaisyToolchain/0.2.0/arm/arm-none-eabi/include/c++/10.3.1/bits/std_function.h ****   {
 118:/Library/DaisyToolchain/0.2.0/arm/arm-none-eabi/include/c++/10.3.1/bits/std_function.h ****   public:
 119:/Library/DaisyToolchain/0.2.0/arm/arm-none-eabi/include/c++/10.3.1/bits/std_function.h ****     static const size_t _M_max_size = sizeof(_Nocopy_types);
 120:/Library/DaisyToolchain/0.2.0/arm/arm-none-eabi/include/c++/10.3.1/bits/std_function.h ****     static const size_t _M_max_align = __alignof__(_Nocopy_types);
 121:/Library/DaisyToolchain/0.2.0/arm/arm-none-eabi/include/c++/10.3.1/bits/std_function.h **** 
 122:/Library/DaisyToolchain/0.2.0/arm/arm-none-eabi/include/c++/10.3.1/bits/std_function.h ****     template<typename _Functor>
 123:/Library/DaisyToolchain/0.2.0/arm/arm-none-eabi/include/c++/10.3.1/bits/std_function.h ****       class _Base_manager
 124:/Library/DaisyToolchain/0.2.0/arm/arm-none-eabi/include/c++/10.3.1/bits/std_function.h ****       {
 125:/Library/DaisyToolchain/0.2.0/arm/arm-none-eabi/include/c++/10.3.1/bits/std_function.h ****       protected:
 126:/Library/DaisyToolchain/0.2.0/arm/arm-none-eabi/include/c++/10.3.1/bits/std_function.h **** 	static const bool __stored_locally =
 127:/Library/DaisyToolchain/0.2.0/arm/arm-none-eabi/include/c++/10.3.1/bits/std_function.h **** 	(__is_location_invariant<_Functor>::value
 128:/Library/DaisyToolchain/0.2.0/arm/arm-none-eabi/include/c++/10.3.1/bits/std_function.h **** 	 && sizeof(_Functor) <= _M_max_size
 129:/Library/DaisyToolchain/0.2.0/arm/arm-none-eabi/include/c++/10.3.1/bits/std_function.h **** 	 && __alignof__(_Functor) <= _M_max_align
 130:/Library/DaisyToolchain/0.2.0/arm/arm-none-eabi/include/c++/10.3.1/bits/std_function.h **** 	 && (_M_max_align % __alignof__(_Functor) == 0));
 131:/Library/DaisyToolchain/0.2.0/arm/arm-none-eabi/include/c++/10.3.1/bits/std_function.h **** 
 132:/Library/DaisyToolchain/0.2.0/arm/arm-none-eabi/include/c++/10.3.1/bits/std_function.h **** 	typedef integral_constant<bool, __stored_locally> _Local_storage;
 133:/Library/DaisyToolchain/0.2.0/arm/arm-none-eabi/include/c++/10.3.1/bits/std_function.h **** 
 134:/Library/DaisyToolchain/0.2.0/arm/arm-none-eabi/include/c++/10.3.1/bits/std_function.h **** 	// Retrieve a pointer to the function object
 135:/Library/DaisyToolchain/0.2.0/arm/arm-none-eabi/include/c++/10.3.1/bits/std_function.h **** 	static _Functor*
 136:/Library/DaisyToolchain/0.2.0/arm/arm-none-eabi/include/c++/10.3.1/bits/std_function.h **** 	_M_get_pointer(const _Any_data& __source)
 137:/Library/DaisyToolchain/0.2.0/arm/arm-none-eabi/include/c++/10.3.1/bits/std_function.h **** 	{
 138:/Library/DaisyToolchain/0.2.0/arm/arm-none-eabi/include/c++/10.3.1/bits/std_function.h **** 	  if _GLIBCXX17_CONSTEXPR (__stored_locally)
 139:/Library/DaisyToolchain/0.2.0/arm/arm-none-eabi/include/c++/10.3.1/bits/std_function.h **** 	    {
 140:/Library/DaisyToolchain/0.2.0/arm/arm-none-eabi/include/c++/10.3.1/bits/std_function.h **** 	      const _Functor& __f = __source._M_access<_Functor>();
 141:/Library/DaisyToolchain/0.2.0/arm/arm-none-eabi/include/c++/10.3.1/bits/std_function.h **** 	      return const_cast<_Functor*>(std::__addressof(__f));
 142:/Library/DaisyToolchain/0.2.0/arm/arm-none-eabi/include/c++/10.3.1/bits/std_function.h **** 	    }
 143:/Library/DaisyToolchain/0.2.0/arm/arm-none-eabi/include/c++/10.3.1/bits/std_function.h **** 	  else // have stored a pointer
 144:/Library/DaisyToolchain/0.2.0/arm/arm-none-eabi/include/c++/10.3.1/bits/std_function.h **** 	    return __source._M_access<_Functor*>();
 145:/Library/DaisyToolchain/0.2.0/arm/arm-none-eabi/include/c++/10.3.1/bits/std_function.h **** 	}
 146:/Library/DaisyToolchain/0.2.0/arm/arm-none-eabi/include/c++/10.3.1/bits/std_function.h **** 
 147:/Library/DaisyToolchain/0.2.0/arm/arm-none-eabi/include/c++/10.3.1/bits/std_function.h **** 	// Clone a location-invariant function object that fits within
 148:/Library/DaisyToolchain/0.2.0/arm/arm-none-eabi/include/c++/10.3.1/bits/std_function.h **** 	// an _Any_data structure.
 149:/Library/DaisyToolchain/0.2.0/arm/arm-none-eabi/include/c++/10.3.1/bits/std_function.h **** 	static void
 150:/Library/DaisyToolchain/0.2.0/arm/arm-none-eabi/include/c++/10.3.1/bits/std_function.h **** 	_M_clone(_Any_data& __dest, const _Any_data& __source, true_type)
 151:/Library/DaisyToolchain/0.2.0/arm/arm-none-eabi/include/c++/10.3.1/bits/std_function.h **** 	{
 152:/Library/DaisyToolchain/0.2.0/arm/arm-none-eabi/include/c++/10.3.1/bits/std_function.h **** 	  ::new (__dest._M_access()) _Functor(__source._M_access<_Functor>());
 153:/Library/DaisyToolchain/0.2.0/arm/arm-none-eabi/include/c++/10.3.1/bits/std_function.h **** 	}
 154:/Library/DaisyToolchain/0.2.0/arm/arm-none-eabi/include/c++/10.3.1/bits/std_function.h **** 
 155:/Library/DaisyToolchain/0.2.0/arm/arm-none-eabi/include/c++/10.3.1/bits/std_function.h **** 	// Clone a function object that is not location-invariant or
 156:/Library/DaisyToolchain/0.2.0/arm/arm-none-eabi/include/c++/10.3.1/bits/std_function.h **** 	// that cannot fit into an _Any_data structure.
 157:/Library/DaisyToolchain/0.2.0/arm/arm-none-eabi/include/c++/10.3.1/bits/std_function.h **** 	static void
ARM GAS  /var/folders/9s/8rp0_f2s1n31qbztm3b5_fdh0000gn/T//cc1V9ehO.s 			page 18


 158:/Library/DaisyToolchain/0.2.0/arm/arm-none-eabi/include/c++/10.3.1/bits/std_function.h **** 	_M_clone(_Any_data& __dest, const _Any_data& __source, false_type)
 159:/Library/DaisyToolchain/0.2.0/arm/arm-none-eabi/include/c++/10.3.1/bits/std_function.h **** 	{
 160:/Library/DaisyToolchain/0.2.0/arm/arm-none-eabi/include/c++/10.3.1/bits/std_function.h **** 	  __dest._M_access<_Functor*>() =
 161:/Library/DaisyToolchain/0.2.0/arm/arm-none-eabi/include/c++/10.3.1/bits/std_function.h **** 	    new _Functor(*__source._M_access<const _Functor*>());
 162:/Library/DaisyToolchain/0.2.0/arm/arm-none-eabi/include/c++/10.3.1/bits/std_function.h **** 	}
 163:/Library/DaisyToolchain/0.2.0/arm/arm-none-eabi/include/c++/10.3.1/bits/std_function.h **** 
 164:/Library/DaisyToolchain/0.2.0/arm/arm-none-eabi/include/c++/10.3.1/bits/std_function.h **** 	// Destroying a location-invariant object may still require
 165:/Library/DaisyToolchain/0.2.0/arm/arm-none-eabi/include/c++/10.3.1/bits/std_function.h **** 	// destruction.
 166:/Library/DaisyToolchain/0.2.0/arm/arm-none-eabi/include/c++/10.3.1/bits/std_function.h **** 	static void
 167:/Library/DaisyToolchain/0.2.0/arm/arm-none-eabi/include/c++/10.3.1/bits/std_function.h **** 	_M_destroy(_Any_data& __victim, true_type)
 168:/Library/DaisyToolchain/0.2.0/arm/arm-none-eabi/include/c++/10.3.1/bits/std_function.h **** 	{
 169:/Library/DaisyToolchain/0.2.0/arm/arm-none-eabi/include/c++/10.3.1/bits/std_function.h **** 	  __victim._M_access<_Functor>().~_Functor();
 170:/Library/DaisyToolchain/0.2.0/arm/arm-none-eabi/include/c++/10.3.1/bits/std_function.h **** 	}
 171:/Library/DaisyToolchain/0.2.0/arm/arm-none-eabi/include/c++/10.3.1/bits/std_function.h **** 
 172:/Library/DaisyToolchain/0.2.0/arm/arm-none-eabi/include/c++/10.3.1/bits/std_function.h **** 	// Destroying an object located on the heap.
 173:/Library/DaisyToolchain/0.2.0/arm/arm-none-eabi/include/c++/10.3.1/bits/std_function.h **** 	static void
 174:/Library/DaisyToolchain/0.2.0/arm/arm-none-eabi/include/c++/10.3.1/bits/std_function.h **** 	_M_destroy(_Any_data& __victim, false_type)
 175:/Library/DaisyToolchain/0.2.0/arm/arm-none-eabi/include/c++/10.3.1/bits/std_function.h **** 	{
 176:/Library/DaisyToolchain/0.2.0/arm/arm-none-eabi/include/c++/10.3.1/bits/std_function.h **** 	  delete __victim._M_access<_Functor*>();
 177:/Library/DaisyToolchain/0.2.0/arm/arm-none-eabi/include/c++/10.3.1/bits/std_function.h **** 	}
 178:/Library/DaisyToolchain/0.2.0/arm/arm-none-eabi/include/c++/10.3.1/bits/std_function.h **** 
 179:/Library/DaisyToolchain/0.2.0/arm/arm-none-eabi/include/c++/10.3.1/bits/std_function.h ****       public:
 180:/Library/DaisyToolchain/0.2.0/arm/arm-none-eabi/include/c++/10.3.1/bits/std_function.h **** 	static bool
 181:/Library/DaisyToolchain/0.2.0/arm/arm-none-eabi/include/c++/10.3.1/bits/std_function.h **** 	_M_manager(_Any_data& __dest, const _Any_data& __source,
 182:/Library/DaisyToolchain/0.2.0/arm/arm-none-eabi/include/c++/10.3.1/bits/std_function.h **** 		   _Manager_operation __op)
 183:/Library/DaisyToolchain/0.2.0/arm/arm-none-eabi/include/c++/10.3.1/bits/std_function.h **** 	{
 184:/Library/DaisyToolchain/0.2.0/arm/arm-none-eabi/include/c++/10.3.1/bits/std_function.h **** 	  switch (__op)
 185:/Library/DaisyToolchain/0.2.0/arm/arm-none-eabi/include/c++/10.3.1/bits/std_function.h **** 	    {
 186:/Library/DaisyToolchain/0.2.0/arm/arm-none-eabi/include/c++/10.3.1/bits/std_function.h **** #if __cpp_rtti
 187:/Library/DaisyToolchain/0.2.0/arm/arm-none-eabi/include/c++/10.3.1/bits/std_function.h **** 	    case __get_type_info:
 188:/Library/DaisyToolchain/0.2.0/arm/arm-none-eabi/include/c++/10.3.1/bits/std_function.h **** 	      __dest._M_access<const type_info*>() = &typeid(_Functor);
 189:/Library/DaisyToolchain/0.2.0/arm/arm-none-eabi/include/c++/10.3.1/bits/std_function.h **** 	      break;
 190:/Library/DaisyToolchain/0.2.0/arm/arm-none-eabi/include/c++/10.3.1/bits/std_function.h **** #endif
 191:/Library/DaisyToolchain/0.2.0/arm/arm-none-eabi/include/c++/10.3.1/bits/std_function.h **** 	    case __get_functor_ptr:
 192:/Library/DaisyToolchain/0.2.0/arm/arm-none-eabi/include/c++/10.3.1/bits/std_function.h **** 	      __dest._M_access<_Functor*>() = _M_get_pointer(__source);
 193:/Library/DaisyToolchain/0.2.0/arm/arm-none-eabi/include/c++/10.3.1/bits/std_function.h **** 	      break;
 194:/Library/DaisyToolchain/0.2.0/arm/arm-none-eabi/include/c++/10.3.1/bits/std_function.h **** 
 195:/Library/DaisyToolchain/0.2.0/arm/arm-none-eabi/include/c++/10.3.1/bits/std_function.h **** 	    case __clone_functor:
 196:/Library/DaisyToolchain/0.2.0/arm/arm-none-eabi/include/c++/10.3.1/bits/std_function.h **** 	      _M_clone(__dest, __source, _Local_storage());
 197:/Library/DaisyToolchain/0.2.0/arm/arm-none-eabi/include/c++/10.3.1/bits/std_function.h **** 	      break;
 198:/Library/DaisyToolchain/0.2.0/arm/arm-none-eabi/include/c++/10.3.1/bits/std_function.h **** 
 199:/Library/DaisyToolchain/0.2.0/arm/arm-none-eabi/include/c++/10.3.1/bits/std_function.h **** 	    case __destroy_functor:
 200:/Library/DaisyToolchain/0.2.0/arm/arm-none-eabi/include/c++/10.3.1/bits/std_function.h **** 	      _M_destroy(__dest, _Local_storage());
 201:/Library/DaisyToolchain/0.2.0/arm/arm-none-eabi/include/c++/10.3.1/bits/std_function.h **** 	      break;
 202:/Library/DaisyToolchain/0.2.0/arm/arm-none-eabi/include/c++/10.3.1/bits/std_function.h **** 	    }
 203:/Library/DaisyToolchain/0.2.0/arm/arm-none-eabi/include/c++/10.3.1/bits/std_function.h **** 	  return false;
 204:/Library/DaisyToolchain/0.2.0/arm/arm-none-eabi/include/c++/10.3.1/bits/std_function.h **** 	}
 205:/Library/DaisyToolchain/0.2.0/arm/arm-none-eabi/include/c++/10.3.1/bits/std_function.h **** 
 206:/Library/DaisyToolchain/0.2.0/arm/arm-none-eabi/include/c++/10.3.1/bits/std_function.h **** 	static void
 207:/Library/DaisyToolchain/0.2.0/arm/arm-none-eabi/include/c++/10.3.1/bits/std_function.h **** 	_M_init_functor(_Any_data& __functor, _Functor&& __f)
 208:/Library/DaisyToolchain/0.2.0/arm/arm-none-eabi/include/c++/10.3.1/bits/std_function.h **** 	{ _M_init_functor(__functor, std::move(__f), _Local_storage()); }
 209:/Library/DaisyToolchain/0.2.0/arm/arm-none-eabi/include/c++/10.3.1/bits/std_function.h **** 
 210:/Library/DaisyToolchain/0.2.0/arm/arm-none-eabi/include/c++/10.3.1/bits/std_function.h **** 	template<typename _Signature>
 211:/Library/DaisyToolchain/0.2.0/arm/arm-none-eabi/include/c++/10.3.1/bits/std_function.h **** 	  static bool
 212:/Library/DaisyToolchain/0.2.0/arm/arm-none-eabi/include/c++/10.3.1/bits/std_function.h **** 	  _M_not_empty_function(const function<_Signature>& __f)
 213:/Library/DaisyToolchain/0.2.0/arm/arm-none-eabi/include/c++/10.3.1/bits/std_function.h **** 	  { return static_cast<bool>(__f); }
 214:/Library/DaisyToolchain/0.2.0/arm/arm-none-eabi/include/c++/10.3.1/bits/std_function.h **** 
ARM GAS  /var/folders/9s/8rp0_f2s1n31qbztm3b5_fdh0000gn/T//cc1V9ehO.s 			page 19


 215:/Library/DaisyToolchain/0.2.0/arm/arm-none-eabi/include/c++/10.3.1/bits/std_function.h **** 	template<typename _Tp>
 216:/Library/DaisyToolchain/0.2.0/arm/arm-none-eabi/include/c++/10.3.1/bits/std_function.h **** 	  static bool
 217:/Library/DaisyToolchain/0.2.0/arm/arm-none-eabi/include/c++/10.3.1/bits/std_function.h **** 	  _M_not_empty_function(_Tp* __fp)
 218:/Library/DaisyToolchain/0.2.0/arm/arm-none-eabi/include/c++/10.3.1/bits/std_function.h **** 	  { return __fp != nullptr; }
 219:/Library/DaisyToolchain/0.2.0/arm/arm-none-eabi/include/c++/10.3.1/bits/std_function.h **** 
 220:/Library/DaisyToolchain/0.2.0/arm/arm-none-eabi/include/c++/10.3.1/bits/std_function.h **** 	template<typename _Class, typename _Tp>
 221:/Library/DaisyToolchain/0.2.0/arm/arm-none-eabi/include/c++/10.3.1/bits/std_function.h **** 	  static bool
 222:/Library/DaisyToolchain/0.2.0/arm/arm-none-eabi/include/c++/10.3.1/bits/std_function.h **** 	  _M_not_empty_function(_Tp _Class::* __mp)
 223:/Library/DaisyToolchain/0.2.0/arm/arm-none-eabi/include/c++/10.3.1/bits/std_function.h **** 	  { return __mp != nullptr; }
 224:/Library/DaisyToolchain/0.2.0/arm/arm-none-eabi/include/c++/10.3.1/bits/std_function.h **** 
 225:/Library/DaisyToolchain/0.2.0/arm/arm-none-eabi/include/c++/10.3.1/bits/std_function.h **** 	template<typename _Tp>
 226:/Library/DaisyToolchain/0.2.0/arm/arm-none-eabi/include/c++/10.3.1/bits/std_function.h **** 	  static bool
 227:/Library/DaisyToolchain/0.2.0/arm/arm-none-eabi/include/c++/10.3.1/bits/std_function.h **** 	  _M_not_empty_function(const _Tp&)
 228:/Library/DaisyToolchain/0.2.0/arm/arm-none-eabi/include/c++/10.3.1/bits/std_function.h **** 	  { return true; }
 229:/Library/DaisyToolchain/0.2.0/arm/arm-none-eabi/include/c++/10.3.1/bits/std_function.h **** 
 230:/Library/DaisyToolchain/0.2.0/arm/arm-none-eabi/include/c++/10.3.1/bits/std_function.h ****       private:
 231:/Library/DaisyToolchain/0.2.0/arm/arm-none-eabi/include/c++/10.3.1/bits/std_function.h **** 	static void
 232:/Library/DaisyToolchain/0.2.0/arm/arm-none-eabi/include/c++/10.3.1/bits/std_function.h **** 	_M_init_functor(_Any_data& __functor, _Functor&& __f, true_type)
 233:/Library/DaisyToolchain/0.2.0/arm/arm-none-eabi/include/c++/10.3.1/bits/std_function.h **** 	{ ::new (__functor._M_access()) _Functor(std::move(__f)); }
 234:/Library/DaisyToolchain/0.2.0/arm/arm-none-eabi/include/c++/10.3.1/bits/std_function.h **** 
 235:/Library/DaisyToolchain/0.2.0/arm/arm-none-eabi/include/c++/10.3.1/bits/std_function.h **** 	static void
 236:/Library/DaisyToolchain/0.2.0/arm/arm-none-eabi/include/c++/10.3.1/bits/std_function.h **** 	_M_init_functor(_Any_data& __functor, _Functor&& __f, false_type)
 237:/Library/DaisyToolchain/0.2.0/arm/arm-none-eabi/include/c++/10.3.1/bits/std_function.h **** 	{ __functor._M_access<_Functor*>() = new _Functor(std::move(__f)); }
 238:/Library/DaisyToolchain/0.2.0/arm/arm-none-eabi/include/c++/10.3.1/bits/std_function.h ****       };
 239:/Library/DaisyToolchain/0.2.0/arm/arm-none-eabi/include/c++/10.3.1/bits/std_function.h **** 
 240:/Library/DaisyToolchain/0.2.0/arm/arm-none-eabi/include/c++/10.3.1/bits/std_function.h ****     _Function_base() : _M_manager(nullptr) { }
 241:/Library/DaisyToolchain/0.2.0/arm/arm-none-eabi/include/c++/10.3.1/bits/std_function.h **** 
 242:/Library/DaisyToolchain/0.2.0/arm/arm-none-eabi/include/c++/10.3.1/bits/std_function.h ****     ~_Function_base()
 243:/Library/DaisyToolchain/0.2.0/arm/arm-none-eabi/include/c++/10.3.1/bits/std_function.h ****     {
 244:/Library/DaisyToolchain/0.2.0/arm/arm-none-eabi/include/c++/10.3.1/bits/std_function.h ****       if (_M_manager)
 245:/Library/DaisyToolchain/0.2.0/arm/arm-none-eabi/include/c++/10.3.1/bits/std_function.h **** 	_M_manager(_M_functor, _M_functor, __destroy_functor);
 246:/Library/DaisyToolchain/0.2.0/arm/arm-none-eabi/include/c++/10.3.1/bits/std_function.h ****     }
 247:/Library/DaisyToolchain/0.2.0/arm/arm-none-eabi/include/c++/10.3.1/bits/std_function.h **** 
 248:/Library/DaisyToolchain/0.2.0/arm/arm-none-eabi/include/c++/10.3.1/bits/std_function.h ****     bool _M_empty() const { return !_M_manager; }
 249:/Library/DaisyToolchain/0.2.0/arm/arm-none-eabi/include/c++/10.3.1/bits/std_function.h **** 
 250:/Library/DaisyToolchain/0.2.0/arm/arm-none-eabi/include/c++/10.3.1/bits/std_function.h ****     typedef bool (*_Manager_type)(_Any_data&, const _Any_data&,
 251:/Library/DaisyToolchain/0.2.0/arm/arm-none-eabi/include/c++/10.3.1/bits/std_function.h **** 				  _Manager_operation);
 252:/Library/DaisyToolchain/0.2.0/arm/arm-none-eabi/include/c++/10.3.1/bits/std_function.h **** 
 253:/Library/DaisyToolchain/0.2.0/arm/arm-none-eabi/include/c++/10.3.1/bits/std_function.h ****     _Any_data     _M_functor;
 254:/Library/DaisyToolchain/0.2.0/arm/arm-none-eabi/include/c++/10.3.1/bits/std_function.h ****     _Manager_type _M_manager;
 255:/Library/DaisyToolchain/0.2.0/arm/arm-none-eabi/include/c++/10.3.1/bits/std_function.h ****   };
 256:/Library/DaisyToolchain/0.2.0/arm/arm-none-eabi/include/c++/10.3.1/bits/std_function.h **** 
 257:/Library/DaisyToolchain/0.2.0/arm/arm-none-eabi/include/c++/10.3.1/bits/std_function.h ****   template<typename _Signature, typename _Functor>
 258:/Library/DaisyToolchain/0.2.0/arm/arm-none-eabi/include/c++/10.3.1/bits/std_function.h ****     class _Function_handler;
 259:/Library/DaisyToolchain/0.2.0/arm/arm-none-eabi/include/c++/10.3.1/bits/std_function.h **** 
 260:/Library/DaisyToolchain/0.2.0/arm/arm-none-eabi/include/c++/10.3.1/bits/std_function.h ****   template<typename _Res, typename _Functor, typename... _ArgTypes>
 261:/Library/DaisyToolchain/0.2.0/arm/arm-none-eabi/include/c++/10.3.1/bits/std_function.h ****     class _Function_handler<_Res(_ArgTypes...), _Functor>
 262:/Library/DaisyToolchain/0.2.0/arm/arm-none-eabi/include/c++/10.3.1/bits/std_function.h ****     : public _Function_base::_Base_manager<_Functor>
 263:/Library/DaisyToolchain/0.2.0/arm/arm-none-eabi/include/c++/10.3.1/bits/std_function.h ****     {
 264:/Library/DaisyToolchain/0.2.0/arm/arm-none-eabi/include/c++/10.3.1/bits/std_function.h ****       typedef _Function_base::_Base_manager<_Functor> _Base;
 265:/Library/DaisyToolchain/0.2.0/arm/arm-none-eabi/include/c++/10.3.1/bits/std_function.h **** 
 266:/Library/DaisyToolchain/0.2.0/arm/arm-none-eabi/include/c++/10.3.1/bits/std_function.h ****     public:
 267:/Library/DaisyToolchain/0.2.0/arm/arm-none-eabi/include/c++/10.3.1/bits/std_function.h ****       static bool
 268:/Library/DaisyToolchain/0.2.0/arm/arm-none-eabi/include/c++/10.3.1/bits/std_function.h ****       _M_manager(_Any_data& __dest, const _Any_data& __source,
 184              		.loc 13 268 7 is_stmt 1 view -0
 185              		.cfi_startproc
 186              		@ args = 0, pretend = 0, frame = 0
ARM GAS  /var/folders/9s/8rp0_f2s1n31qbztm3b5_fdh0000gn/T//cc1V9ehO.s 			page 20


 187              		@ frame_needed = 0, uses_anonymous_args = 0
 188              		@ link register save eliminated.
 269:/Library/DaisyToolchain/0.2.0/arm/arm-none-eabi/include/c++/10.3.1/bits/std_function.h **** 		 _Manager_operation __op)
 270:/Library/DaisyToolchain/0.2.0/arm/arm-none-eabi/include/c++/10.3.1/bits/std_function.h ****       {
 271:/Library/DaisyToolchain/0.2.0/arm/arm-none-eabi/include/c++/10.3.1/bits/std_function.h **** 	switch (__op)
 189              		.loc 13 271 2 is_stmt 0 view .LVU24
 190 0000 1AB1     		cbz	r2, .L7
 191 0002 012A     		cmp	r2, #1
 192 0004 04D0     		beq	.L8
 193              	.L9:
 272:/Library/DaisyToolchain/0.2.0/arm/arm-none-eabi/include/c++/10.3.1/bits/std_function.h **** 	  {
 273:/Library/DaisyToolchain/0.2.0/arm/arm-none-eabi/include/c++/10.3.1/bits/std_function.h **** #if __cpp_rtti
 274:/Library/DaisyToolchain/0.2.0/arm/arm-none-eabi/include/c++/10.3.1/bits/std_function.h **** 	  case __get_type_info:
 275:/Library/DaisyToolchain/0.2.0/arm/arm-none-eabi/include/c++/10.3.1/bits/std_function.h **** 	    __dest._M_access<const type_info*>() = &typeid(_Functor);
 276:/Library/DaisyToolchain/0.2.0/arm/arm-none-eabi/include/c++/10.3.1/bits/std_function.h **** 	    break;
 277:/Library/DaisyToolchain/0.2.0/arm/arm-none-eabi/include/c++/10.3.1/bits/std_function.h **** #endif
 278:/Library/DaisyToolchain/0.2.0/arm/arm-none-eabi/include/c++/10.3.1/bits/std_function.h **** 	  case __get_functor_ptr:
 279:/Library/DaisyToolchain/0.2.0/arm/arm-none-eabi/include/c++/10.3.1/bits/std_function.h **** 	    __dest._M_access<_Functor*>() = _Base::_M_get_pointer(__source);
 280:/Library/DaisyToolchain/0.2.0/arm/arm-none-eabi/include/c++/10.3.1/bits/std_function.h **** 	    break;
 281:/Library/DaisyToolchain/0.2.0/arm/arm-none-eabi/include/c++/10.3.1/bits/std_function.h **** 
 282:/Library/DaisyToolchain/0.2.0/arm/arm-none-eabi/include/c++/10.3.1/bits/std_function.h **** 	  default:
 283:/Library/DaisyToolchain/0.2.0/arm/arm-none-eabi/include/c++/10.3.1/bits/std_function.h **** 	    _Base::_M_manager(__dest, __source, __op);
 284:/Library/DaisyToolchain/0.2.0/arm/arm-none-eabi/include/c++/10.3.1/bits/std_function.h **** 	  }
 285:/Library/DaisyToolchain/0.2.0/arm/arm-none-eabi/include/c++/10.3.1/bits/std_function.h **** 	return false;
 286:/Library/DaisyToolchain/0.2.0/arm/arm-none-eabi/include/c++/10.3.1/bits/std_function.h ****       }
 194              		.loc 13 286 7 view .LVU25
 195 0006 0020     		movs	r0, #0
 196              	.LVL6:
 197              		.loc 13 286 7 view .LVU26
 198 0008 7047     		bx	lr
 199              	.LVL7:
 200              	.L7:
  87:/Library/DaisyToolchain/0.2.0/arm/arm-none-eabi/include/c++/10.3.1/bits/std_function.h ****     const void* _M_access() const { return &_M_pod_data[0]; }
 201              		.loc 13 87 37 is_stmt 1 view .LVU27
 275:/Library/DaisyToolchain/0.2.0/arm/arm-none-eabi/include/c++/10.3.1/bits/std_function.h **** 	    break;
 202              		.loc 13 275 43 is_stmt 0 view .LVU28
 203 000a 024B     		ldr	r3, .L10
 204 000c 0360     		str	r3, [r0]
 276:/Library/DaisyToolchain/0.2.0/arm/arm-none-eabi/include/c++/10.3.1/bits/std_function.h **** #endif
 205              		.loc 13 276 6 view .LVU29
 206 000e FAE7     		b	.L9
 207              	.L8:
 208              	.LVL8:
  87:/Library/DaisyToolchain/0.2.0/arm/arm-none-eabi/include/c++/10.3.1/bits/std_function.h ****     const void* _M_access() const { return &_M_pod_data[0]; }
 209              		.loc 13 87 37 is_stmt 1 view .LVU30
 210              	.LBB387:
 211              	.LBI387:
 136:/Library/DaisyToolchain/0.2.0/arm/arm-none-eabi/include/c++/10.3.1/bits/std_function.h **** 	{
 212              		.loc 13 136 2 view .LVU31
 213              	.LBB388:
 214              	.LBB389:
 215              	.LBI389:
  97:/Library/DaisyToolchain/0.2.0/arm/arm-none-eabi/include/c++/10.3.1/bits/std_function.h ****       { return *static_cast<const _Tp*>(_M_access()); }
 216              		.loc 13 97 7 view .LVU32
 217              	.LBB390:
 218              	.LBI390:
  88:/Library/DaisyToolchain/0.2.0/arm/arm-none-eabi/include/c++/10.3.1/bits/std_function.h **** 
ARM GAS  /var/folders/9s/8rp0_f2s1n31qbztm3b5_fdh0000gn/T//cc1V9ehO.s 			page 21


 219              		.loc 13 88 17 view .LVU33
 220              	.LBB391:
  88:/Library/DaisyToolchain/0.2.0/arm/arm-none-eabi/include/c++/10.3.1/bits/std_function.h **** 
 221              		.loc 13 88 37 view .LVU34
  88:/Library/DaisyToolchain/0.2.0/arm/arm-none-eabi/include/c++/10.3.1/bits/std_function.h **** 
 222              		.loc 13 88 37 is_stmt 0 view .LVU35
 223              	.LBE391:
 224              	.LBE390:
 225              	.LBE389:
 226              	.LBE388:
 227              	.LBE387:
 279:/Library/DaisyToolchain/0.2.0/arm/arm-none-eabi/include/c++/10.3.1/bits/std_function.h **** 	    break;
 228              		.loc 13 279 36 view .LVU36
 229 0010 0160     		str	r1, [r0]
 280:/Library/DaisyToolchain/0.2.0/arm/arm-none-eabi/include/c++/10.3.1/bits/std_function.h **** 
 230              		.loc 13 280 6 view .LVU37
 231 0012 F8E7     		b	.L9
 232              	.L11:
 233              		.align	2
 234              	.L10:
 235 0014 00000000 		.word	.LANCHOR0
 236              		.cfi_endproc
 237              	.LFE5964:
 239              		.section	.text._ZNSt17_Function_handlerIFviEZ15InitializeSynthvEUliE_E9_M_invokeERKSt9_Any_dataOi,
 240              		.align	1
 241              		.syntax unified
 242              		.thumb
 243              		.thumb_func
 245              	_ZNSt17_Function_handlerIFviEZ15InitializeSynthvEUliE_E9_M_invokeERKSt9_Any_dataOi:
 246              	.LVL9:
 247              	.LFB5962:
 287:/Library/DaisyToolchain/0.2.0/arm/arm-none-eabi/include/c++/10.3.1/bits/std_function.h **** 
 288:/Library/DaisyToolchain/0.2.0/arm/arm-none-eabi/include/c++/10.3.1/bits/std_function.h ****       static _Res
 289:/Library/DaisyToolchain/0.2.0/arm/arm-none-eabi/include/c++/10.3.1/bits/std_function.h ****       _M_invoke(const _Any_data& __functor, _ArgTypes&&... __args)
 248              		.loc 13 289 7 is_stmt 1 view -0
 249              		.cfi_startproc
 250              		@ args = 0, pretend = 0, frame = 0
 251              		@ frame_needed = 0, uses_anonymous_args = 0
  88:/Library/DaisyToolchain/0.2.0/arm/arm-none-eabi/include/c++/10.3.1/bits/std_function.h **** 
 252              		.loc 13 88 37 view .LVU39
 253              		.loc 13 289 7 is_stmt 0 view .LVU40
 254 0000 10B5     		push	{r4, lr}
 255              		.cfi_def_cfa_offset 8
 256              		.cfi_offset 4, -8
 257              		.cfi_offset 14, -4
 258              	.LBB412:
 259              	.LBB413:
 260              	.LBB414:
 261              	.LBB415:
 262              	.LBB416:
 263              	.LBB417:
 264              	.LBB418:
 265              		.file 14 "VoiceEnvelope.h"
   1:VoiceEnvelope.h **** #pragma once
   2:VoiceEnvelope.h **** #include <algorithm>
   3:VoiceEnvelope.h **** 
   4:VoiceEnvelope.h **** // Simple envelope for each polyphonic voice
ARM GAS  /var/folders/9s/8rp0_f2s1n31qbztm3b5_fdh0000gn/T//cc1V9ehO.s 			page 22


   5:VoiceEnvelope.h **** class VoiceEnvelope {
   6:VoiceEnvelope.h **** public:
   7:VoiceEnvelope.h ****     enum EnvState {
   8:VoiceEnvelope.h ****         ENV_IDLE,
   9:VoiceEnvelope.h ****         ENV_ATTACK,
  10:VoiceEnvelope.h ****         ENV_SUSTAIN,
  11:VoiceEnvelope.h ****         ENV_DECAY,
  12:VoiceEnvelope.h ****         ENV_RESET
  13:VoiceEnvelope.h ****     };
  14:VoiceEnvelope.h **** 
  15:VoiceEnvelope.h ****     enum EnvMode {
  16:VoiceEnvelope.h ****         MODE_AR,   // Attack-Release
  17:VoiceEnvelope.h ****         MODE_ASR   // Attack-Sustain-Release
  18:VoiceEnvelope.h ****     };
  19:VoiceEnvelope.h **** 
  20:VoiceEnvelope.h ****     VoiceEnvelope() :
  21:VoiceEnvelope.h ****         current_state(ENV_IDLE),
  22:VoiceEnvelope.h ****         current_value(0.0f),
  23:VoiceEnvelope.h ****         mode(MODE_ASR),
  24:VoiceEnvelope.h ****         attack_curve_coefficient(0.5f),
  25:VoiceEnvelope.h ****         release_curve_coefficient(0.5f),
  26:VoiceEnvelope.h ****         phase(0),
  27:VoiceEnvelope.h ****         decay_start_level(0.0f)
  28:VoiceEnvelope.h ****     {}
  29:VoiceEnvelope.h **** 
  30:VoiceEnvelope.h ****     void Init(float sample_rate) {
  31:VoiceEnvelope.h ****         time_range_2x = 2.0f * 4.0f * sample_rate;  // 4s max time
  32:VoiceEnvelope.h ****         min_attack_time = 0.0002f * sample_rate;    // 0.2ms min attack (much faster for punchiness
  33:VoiceEnvelope.h ****         min_decay_time_a = 0.4f * sample_rate;      // 400ms min decay A
  34:VoiceEnvelope.h ****         min_decay_time_b = 0.0001f * sample_rate;    // 0.1ms min decay B (pulse-like release)
  35:VoiceEnvelope.h ****         reset_time = 0.008f * sample_rate;          // 8ms reset time
  36:VoiceEnvelope.h ****         reset_coefficient = 1.0f / reset_time;
  37:VoiceEnvelope.h ****         
  38:VoiceEnvelope.h ****         // Default curves
  39:VoiceEnvelope.h ****         SetAttackCurve(0.5f);
  40:VoiceEnvelope.h ****         SetReleaseCurve(0.5f);
  41:VoiceEnvelope.h ****     }
  42:VoiceEnvelope.h **** 
  43:VoiceEnvelope.h ****     void SetMode(EnvMode new_mode) {
  44:VoiceEnvelope.h ****         mode = new_mode;
 266              		.loc 14 44 14 view .LVU41
 267 0002 224B     		ldr	r3, .L17
 268 0004 0C68     		ldr	r4, [r1]
 269              	.LBE418:
 270              	.LBE417:
 271              	.LBE416:
 272              	.LBE415:
 273              	.LBE414:
 274              	.LBE413:
 275              	.LBI412:
 276              		.file 15 "/Library/DaisyToolchain/0.2.0/arm/arm-none-eabi/include/c++/10.3.1/bits/invoke.h"
   1:/Library/DaisyToolchain/0.2.0/arm/arm-none-eabi/include/c++/10.3.1/bits/invoke.h **** // Implementation of INVOKE -*- C++ -*-
   2:/Library/DaisyToolchain/0.2.0/arm/arm-none-eabi/include/c++/10.3.1/bits/invoke.h **** 
   3:/Library/DaisyToolchain/0.2.0/arm/arm-none-eabi/include/c++/10.3.1/bits/invoke.h **** // Copyright (C) 2016-2020 Free Software Foundation, Inc.
   4:/Library/DaisyToolchain/0.2.0/arm/arm-none-eabi/include/c++/10.3.1/bits/invoke.h **** //
   5:/Library/DaisyToolchain/0.2.0/arm/arm-none-eabi/include/c++/10.3.1/bits/invoke.h **** // This file is part of the GNU ISO C++ Library.  This library is free
   6:/Library/DaisyToolchain/0.2.0/arm/arm-none-eabi/include/c++/10.3.1/bits/invoke.h **** // software; you can redistribute it and/or modify it under the
ARM GAS  /var/folders/9s/8rp0_f2s1n31qbztm3b5_fdh0000gn/T//cc1V9ehO.s 			page 23


   7:/Library/DaisyToolchain/0.2.0/arm/arm-none-eabi/include/c++/10.3.1/bits/invoke.h **** // terms of the GNU General Public License as published by the
   8:/Library/DaisyToolchain/0.2.0/arm/arm-none-eabi/include/c++/10.3.1/bits/invoke.h **** // Free Software Foundation; either version 3, or (at your option)
   9:/Library/DaisyToolchain/0.2.0/arm/arm-none-eabi/include/c++/10.3.1/bits/invoke.h **** // any later version.
  10:/Library/DaisyToolchain/0.2.0/arm/arm-none-eabi/include/c++/10.3.1/bits/invoke.h **** 
  11:/Library/DaisyToolchain/0.2.0/arm/arm-none-eabi/include/c++/10.3.1/bits/invoke.h **** // This library is distributed in the hope that it will be useful,
  12:/Library/DaisyToolchain/0.2.0/arm/arm-none-eabi/include/c++/10.3.1/bits/invoke.h **** // but WITHOUT ANY WARRANTY; without even the implied warranty of
  13:/Library/DaisyToolchain/0.2.0/arm/arm-none-eabi/include/c++/10.3.1/bits/invoke.h **** // MERCHANTABILITY or FITNESS FOR A PARTICULAR PURPOSE.  See the
  14:/Library/DaisyToolchain/0.2.0/arm/arm-none-eabi/include/c++/10.3.1/bits/invoke.h **** // GNU General Public License for more details.
  15:/Library/DaisyToolchain/0.2.0/arm/arm-none-eabi/include/c++/10.3.1/bits/invoke.h **** 
  16:/Library/DaisyToolchain/0.2.0/arm/arm-none-eabi/include/c++/10.3.1/bits/invoke.h **** // Under Section 7 of GPL version 3, you are granted additional
  17:/Library/DaisyToolchain/0.2.0/arm/arm-none-eabi/include/c++/10.3.1/bits/invoke.h **** // permissions described in the GCC Runtime Library Exception, version
  18:/Library/DaisyToolchain/0.2.0/arm/arm-none-eabi/include/c++/10.3.1/bits/invoke.h **** // 3.1, as published by the Free Software Foundation.
  19:/Library/DaisyToolchain/0.2.0/arm/arm-none-eabi/include/c++/10.3.1/bits/invoke.h **** 
  20:/Library/DaisyToolchain/0.2.0/arm/arm-none-eabi/include/c++/10.3.1/bits/invoke.h **** // You should have received a copy of the GNU General Public License and
  21:/Library/DaisyToolchain/0.2.0/arm/arm-none-eabi/include/c++/10.3.1/bits/invoke.h **** // a copy of the GCC Runtime Library Exception along with this program;
  22:/Library/DaisyToolchain/0.2.0/arm/arm-none-eabi/include/c++/10.3.1/bits/invoke.h **** // see the files COPYING3 and COPYING.RUNTIME respectively.  If not, see
  23:/Library/DaisyToolchain/0.2.0/arm/arm-none-eabi/include/c++/10.3.1/bits/invoke.h **** // <http://www.gnu.org/licenses/>.
  24:/Library/DaisyToolchain/0.2.0/arm/arm-none-eabi/include/c++/10.3.1/bits/invoke.h **** 
  25:/Library/DaisyToolchain/0.2.0/arm/arm-none-eabi/include/c++/10.3.1/bits/invoke.h **** /** @file include/bits/invoke.h
  26:/Library/DaisyToolchain/0.2.0/arm/arm-none-eabi/include/c++/10.3.1/bits/invoke.h ****  *  This is an internal header file, included by other library headers.
  27:/Library/DaisyToolchain/0.2.0/arm/arm-none-eabi/include/c++/10.3.1/bits/invoke.h ****  *  Do not attempt to use it directly. @headername{functional}
  28:/Library/DaisyToolchain/0.2.0/arm/arm-none-eabi/include/c++/10.3.1/bits/invoke.h ****  */
  29:/Library/DaisyToolchain/0.2.0/arm/arm-none-eabi/include/c++/10.3.1/bits/invoke.h **** 
  30:/Library/DaisyToolchain/0.2.0/arm/arm-none-eabi/include/c++/10.3.1/bits/invoke.h **** #ifndef _GLIBCXX_INVOKE_H
  31:/Library/DaisyToolchain/0.2.0/arm/arm-none-eabi/include/c++/10.3.1/bits/invoke.h **** #define _GLIBCXX_INVOKE_H 1
  32:/Library/DaisyToolchain/0.2.0/arm/arm-none-eabi/include/c++/10.3.1/bits/invoke.h **** 
  33:/Library/DaisyToolchain/0.2.0/arm/arm-none-eabi/include/c++/10.3.1/bits/invoke.h **** #pragma GCC system_header
  34:/Library/DaisyToolchain/0.2.0/arm/arm-none-eabi/include/c++/10.3.1/bits/invoke.h **** 
  35:/Library/DaisyToolchain/0.2.0/arm/arm-none-eabi/include/c++/10.3.1/bits/invoke.h **** #if __cplusplus < 201103L
  36:/Library/DaisyToolchain/0.2.0/arm/arm-none-eabi/include/c++/10.3.1/bits/invoke.h **** # include <bits/c++0x_warning.h>
  37:/Library/DaisyToolchain/0.2.0/arm/arm-none-eabi/include/c++/10.3.1/bits/invoke.h **** #else
  38:/Library/DaisyToolchain/0.2.0/arm/arm-none-eabi/include/c++/10.3.1/bits/invoke.h **** 
  39:/Library/DaisyToolchain/0.2.0/arm/arm-none-eabi/include/c++/10.3.1/bits/invoke.h **** #include <type_traits>
  40:/Library/DaisyToolchain/0.2.0/arm/arm-none-eabi/include/c++/10.3.1/bits/invoke.h **** 
  41:/Library/DaisyToolchain/0.2.0/arm/arm-none-eabi/include/c++/10.3.1/bits/invoke.h **** namespace std _GLIBCXX_VISIBILITY(default)
  42:/Library/DaisyToolchain/0.2.0/arm/arm-none-eabi/include/c++/10.3.1/bits/invoke.h **** {
  43:/Library/DaisyToolchain/0.2.0/arm/arm-none-eabi/include/c++/10.3.1/bits/invoke.h **** _GLIBCXX_BEGIN_NAMESPACE_VERSION
  44:/Library/DaisyToolchain/0.2.0/arm/arm-none-eabi/include/c++/10.3.1/bits/invoke.h **** 
  45:/Library/DaisyToolchain/0.2.0/arm/arm-none-eabi/include/c++/10.3.1/bits/invoke.h ****   /**
  46:/Library/DaisyToolchain/0.2.0/arm/arm-none-eabi/include/c++/10.3.1/bits/invoke.h ****    *  @addtogroup utilities
  47:/Library/DaisyToolchain/0.2.0/arm/arm-none-eabi/include/c++/10.3.1/bits/invoke.h ****    *  @{
  48:/Library/DaisyToolchain/0.2.0/arm/arm-none-eabi/include/c++/10.3.1/bits/invoke.h ****    */
  49:/Library/DaisyToolchain/0.2.0/arm/arm-none-eabi/include/c++/10.3.1/bits/invoke.h **** 
  50:/Library/DaisyToolchain/0.2.0/arm/arm-none-eabi/include/c++/10.3.1/bits/invoke.h ****   // Used by __invoke_impl instead of std::forward<_Tp> so that a
  51:/Library/DaisyToolchain/0.2.0/arm/arm-none-eabi/include/c++/10.3.1/bits/invoke.h ****   // reference_wrapper is converted to an lvalue-reference.
  52:/Library/DaisyToolchain/0.2.0/arm/arm-none-eabi/include/c++/10.3.1/bits/invoke.h ****   template<typename _Tp, typename _Up = typename __inv_unwrap<_Tp>::type>
  53:/Library/DaisyToolchain/0.2.0/arm/arm-none-eabi/include/c++/10.3.1/bits/invoke.h ****     constexpr _Up&&
  54:/Library/DaisyToolchain/0.2.0/arm/arm-none-eabi/include/c++/10.3.1/bits/invoke.h ****     __invfwd(typename remove_reference<_Tp>::type& __t) noexcept
  55:/Library/DaisyToolchain/0.2.0/arm/arm-none-eabi/include/c++/10.3.1/bits/invoke.h ****     { return static_cast<_Up&&>(__t); }
  56:/Library/DaisyToolchain/0.2.0/arm/arm-none-eabi/include/c++/10.3.1/bits/invoke.h **** 
  57:/Library/DaisyToolchain/0.2.0/arm/arm-none-eabi/include/c++/10.3.1/bits/invoke.h ****   template<typename _Res, typename _Fn, typename... _Args>
  58:/Library/DaisyToolchain/0.2.0/arm/arm-none-eabi/include/c++/10.3.1/bits/invoke.h ****     constexpr _Res
  59:/Library/DaisyToolchain/0.2.0/arm/arm-none-eabi/include/c++/10.3.1/bits/invoke.h ****     __invoke_impl(__invoke_other, _Fn&& __f, _Args&&... __args)
  60:/Library/DaisyToolchain/0.2.0/arm/arm-none-eabi/include/c++/10.3.1/bits/invoke.h ****     { return std::forward<_Fn>(__f)(std::forward<_Args>(__args)...); }
  61:/Library/DaisyToolchain/0.2.0/arm/arm-none-eabi/include/c++/10.3.1/bits/invoke.h **** 
  62:/Library/DaisyToolchain/0.2.0/arm/arm-none-eabi/include/c++/10.3.1/bits/invoke.h ****   template<typename _Res, typename _MemFun, typename _Tp, typename... _Args>
  63:/Library/DaisyToolchain/0.2.0/arm/arm-none-eabi/include/c++/10.3.1/bits/invoke.h ****     constexpr _Res
ARM GAS  /var/folders/9s/8rp0_f2s1n31qbztm3b5_fdh0000gn/T//cc1V9ehO.s 			page 24


  64:/Library/DaisyToolchain/0.2.0/arm/arm-none-eabi/include/c++/10.3.1/bits/invoke.h ****     __invoke_impl(__invoke_memfun_ref, _MemFun&& __f, _Tp&& __t,
  65:/Library/DaisyToolchain/0.2.0/arm/arm-none-eabi/include/c++/10.3.1/bits/invoke.h **** 		  _Args&&... __args)
  66:/Library/DaisyToolchain/0.2.0/arm/arm-none-eabi/include/c++/10.3.1/bits/invoke.h ****     { return (__invfwd<_Tp>(__t).*__f)(std::forward<_Args>(__args)...); }
  67:/Library/DaisyToolchain/0.2.0/arm/arm-none-eabi/include/c++/10.3.1/bits/invoke.h **** 
  68:/Library/DaisyToolchain/0.2.0/arm/arm-none-eabi/include/c++/10.3.1/bits/invoke.h ****   template<typename _Res, typename _MemFun, typename _Tp, typename... _Args>
  69:/Library/DaisyToolchain/0.2.0/arm/arm-none-eabi/include/c++/10.3.1/bits/invoke.h ****     constexpr _Res
  70:/Library/DaisyToolchain/0.2.0/arm/arm-none-eabi/include/c++/10.3.1/bits/invoke.h ****     __invoke_impl(__invoke_memfun_deref, _MemFun&& __f, _Tp&& __t,
  71:/Library/DaisyToolchain/0.2.0/arm/arm-none-eabi/include/c++/10.3.1/bits/invoke.h **** 		  _Args&&... __args)
  72:/Library/DaisyToolchain/0.2.0/arm/arm-none-eabi/include/c++/10.3.1/bits/invoke.h ****     {
  73:/Library/DaisyToolchain/0.2.0/arm/arm-none-eabi/include/c++/10.3.1/bits/invoke.h ****       return ((*std::forward<_Tp>(__t)).*__f)(std::forward<_Args>(__args)...);
  74:/Library/DaisyToolchain/0.2.0/arm/arm-none-eabi/include/c++/10.3.1/bits/invoke.h ****     }
  75:/Library/DaisyToolchain/0.2.0/arm/arm-none-eabi/include/c++/10.3.1/bits/invoke.h **** 
  76:/Library/DaisyToolchain/0.2.0/arm/arm-none-eabi/include/c++/10.3.1/bits/invoke.h ****   template<typename _Res, typename _MemPtr, typename _Tp>
  77:/Library/DaisyToolchain/0.2.0/arm/arm-none-eabi/include/c++/10.3.1/bits/invoke.h ****     constexpr _Res
  78:/Library/DaisyToolchain/0.2.0/arm/arm-none-eabi/include/c++/10.3.1/bits/invoke.h ****     __invoke_impl(__invoke_memobj_ref, _MemPtr&& __f, _Tp&& __t)
  79:/Library/DaisyToolchain/0.2.0/arm/arm-none-eabi/include/c++/10.3.1/bits/invoke.h ****     { return __invfwd<_Tp>(__t).*__f; }
  80:/Library/DaisyToolchain/0.2.0/arm/arm-none-eabi/include/c++/10.3.1/bits/invoke.h **** 
  81:/Library/DaisyToolchain/0.2.0/arm/arm-none-eabi/include/c++/10.3.1/bits/invoke.h ****   template<typename _Res, typename _MemPtr, typename _Tp>
  82:/Library/DaisyToolchain/0.2.0/arm/arm-none-eabi/include/c++/10.3.1/bits/invoke.h ****     constexpr _Res
  83:/Library/DaisyToolchain/0.2.0/arm/arm-none-eabi/include/c++/10.3.1/bits/invoke.h ****     __invoke_impl(__invoke_memobj_deref, _MemPtr&& __f, _Tp&& __t)
  84:/Library/DaisyToolchain/0.2.0/arm/arm-none-eabi/include/c++/10.3.1/bits/invoke.h ****     { return (*std::forward<_Tp>(__t)).*__f; }
  85:/Library/DaisyToolchain/0.2.0/arm/arm-none-eabi/include/c++/10.3.1/bits/invoke.h **** 
  86:/Library/DaisyToolchain/0.2.0/arm/arm-none-eabi/include/c++/10.3.1/bits/invoke.h ****   /// Invoke a callable object.
  87:/Library/DaisyToolchain/0.2.0/arm/arm-none-eabi/include/c++/10.3.1/bits/invoke.h ****   template<typename _Callable, typename... _Args>
  88:/Library/DaisyToolchain/0.2.0/arm/arm-none-eabi/include/c++/10.3.1/bits/invoke.h ****     constexpr typename __invoke_result<_Callable, _Args...>::type
  89:/Library/DaisyToolchain/0.2.0/arm/arm-none-eabi/include/c++/10.3.1/bits/invoke.h ****     __invoke(_Callable&& __fn, _Args&&... __args)
  90:/Library/DaisyToolchain/0.2.0/arm/arm-none-eabi/include/c++/10.3.1/bits/invoke.h ****     noexcept(__is_nothrow_invocable<_Callable, _Args...>::value)
  91:/Library/DaisyToolchain/0.2.0/arm/arm-none-eabi/include/c++/10.3.1/bits/invoke.h ****     {
  92:/Library/DaisyToolchain/0.2.0/arm/arm-none-eabi/include/c++/10.3.1/bits/invoke.h ****       using __result = __invoke_result<_Callable, _Args...>;
  93:/Library/DaisyToolchain/0.2.0/arm/arm-none-eabi/include/c++/10.3.1/bits/invoke.h ****       using __type = typename __result::type;
  94:/Library/DaisyToolchain/0.2.0/arm/arm-none-eabi/include/c++/10.3.1/bits/invoke.h ****       using __tag = typename __result::__invoke_type;
  95:/Library/DaisyToolchain/0.2.0/arm/arm-none-eabi/include/c++/10.3.1/bits/invoke.h ****       return std::__invoke_impl<__type>(__tag{}, std::forward<_Callable>(__fn),
  96:/Library/DaisyToolchain/0.2.0/arm/arm-none-eabi/include/c++/10.3.1/bits/invoke.h **** 					std::forward<_Args>(__args)...);
  97:/Library/DaisyToolchain/0.2.0/arm/arm-none-eabi/include/c++/10.3.1/bits/invoke.h ****     }
  98:/Library/DaisyToolchain/0.2.0/arm/arm-none-eabi/include/c++/10.3.1/bits/invoke.h **** 
  99:/Library/DaisyToolchain/0.2.0/arm/arm-none-eabi/include/c++/10.3.1/bits/invoke.h **** #if __cplusplus >= 201703L
 100:/Library/DaisyToolchain/0.2.0/arm/arm-none-eabi/include/c++/10.3.1/bits/invoke.h ****   // INVOKE<R>: Invoke a callable object and convert the result to R.
 101:/Library/DaisyToolchain/0.2.0/arm/arm-none-eabi/include/c++/10.3.1/bits/invoke.h ****   template<typename _Res, typename _Callable, typename... _Args>
 102:/Library/DaisyToolchain/0.2.0/arm/arm-none-eabi/include/c++/10.3.1/bits/invoke.h ****     constexpr enable_if_t<is_invocable_r_v<_Res, _Callable, _Args...>, _Res>
 103:/Library/DaisyToolchain/0.2.0/arm/arm-none-eabi/include/c++/10.3.1/bits/invoke.h ****     __invoke_r(_Callable&& __fn, _Args&&... __args)
 104:/Library/DaisyToolchain/0.2.0/arm/arm-none-eabi/include/c++/10.3.1/bits/invoke.h ****     noexcept(is_nothrow_invocable_r_v<_Res, _Callable, _Args...>)
 105:/Library/DaisyToolchain/0.2.0/arm/arm-none-eabi/include/c++/10.3.1/bits/invoke.h ****     {
 106:/Library/DaisyToolchain/0.2.0/arm/arm-none-eabi/include/c++/10.3.1/bits/invoke.h ****       using __result = __invoke_result<_Callable, _Args...>;
 107:/Library/DaisyToolchain/0.2.0/arm/arm-none-eabi/include/c++/10.3.1/bits/invoke.h ****       using __type = typename __result::type;
 108:/Library/DaisyToolchain/0.2.0/arm/arm-none-eabi/include/c++/10.3.1/bits/invoke.h ****       using __tag = typename __result::__invoke_type;
 109:/Library/DaisyToolchain/0.2.0/arm/arm-none-eabi/include/c++/10.3.1/bits/invoke.h ****       if constexpr (is_void_v<_Res>)
 110:/Library/DaisyToolchain/0.2.0/arm/arm-none-eabi/include/c++/10.3.1/bits/invoke.h **** 	std::__invoke_impl<__type>(__tag{}, std::forward<_Callable>(__fn),
 111:/Library/DaisyToolchain/0.2.0/arm/arm-none-eabi/include/c++/10.3.1/bits/invoke.h **** 					std::forward<_Args>(__args)...);
 112:/Library/DaisyToolchain/0.2.0/arm/arm-none-eabi/include/c++/10.3.1/bits/invoke.h ****       else
 113:/Library/DaisyToolchain/0.2.0/arm/arm-none-eabi/include/c++/10.3.1/bits/invoke.h **** 	return std::__invoke_impl<__type>(__tag{},
 114:/Library/DaisyToolchain/0.2.0/arm/arm-none-eabi/include/c++/10.3.1/bits/invoke.h **** 					  std::forward<_Callable>(__fn),
 115:/Library/DaisyToolchain/0.2.0/arm/arm-none-eabi/include/c++/10.3.1/bits/invoke.h **** 					  std::forward<_Args>(__args)...);
 116:/Library/DaisyToolchain/0.2.0/arm/arm-none-eabi/include/c++/10.3.1/bits/invoke.h ****     }
 117:/Library/DaisyToolchain/0.2.0/arm/arm-none-eabi/include/c++/10.3.1/bits/invoke.h **** #else // C++11
 118:/Library/DaisyToolchain/0.2.0/arm/arm-none-eabi/include/c++/10.3.1/bits/invoke.h ****   template<typename _Res, typename _Callable, typename... _Args>
 119:/Library/DaisyToolchain/0.2.0/arm/arm-none-eabi/include/c++/10.3.1/bits/invoke.h ****     using __can_invoke_as_void = __enable_if_t<
 120:/Library/DaisyToolchain/0.2.0/arm/arm-none-eabi/include/c++/10.3.1/bits/invoke.h ****       __and_<is_void<_Res>, __is_invocable<_Callable, _Args...>>::value,
ARM GAS  /var/folders/9s/8rp0_f2s1n31qbztm3b5_fdh0000gn/T//cc1V9ehO.s 			page 25


 121:/Library/DaisyToolchain/0.2.0/arm/arm-none-eabi/include/c++/10.3.1/bits/invoke.h ****       _Res
 122:/Library/DaisyToolchain/0.2.0/arm/arm-none-eabi/include/c++/10.3.1/bits/invoke.h ****     >;
 123:/Library/DaisyToolchain/0.2.0/arm/arm-none-eabi/include/c++/10.3.1/bits/invoke.h **** 
 124:/Library/DaisyToolchain/0.2.0/arm/arm-none-eabi/include/c++/10.3.1/bits/invoke.h ****   template<typename _Res, typename _Callable, typename... _Args>
 125:/Library/DaisyToolchain/0.2.0/arm/arm-none-eabi/include/c++/10.3.1/bits/invoke.h ****     using __can_invoke_as_nonvoid = __enable_if_t<
 126:/Library/DaisyToolchain/0.2.0/arm/arm-none-eabi/include/c++/10.3.1/bits/invoke.h ****       __and_<__not_<is_void<_Res>>,
 127:/Library/DaisyToolchain/0.2.0/arm/arm-none-eabi/include/c++/10.3.1/bits/invoke.h **** 	     is_convertible<typename __invoke_result<_Callable, _Args...>::type,
 128:/Library/DaisyToolchain/0.2.0/arm/arm-none-eabi/include/c++/10.3.1/bits/invoke.h **** 			    _Res>
 129:/Library/DaisyToolchain/0.2.0/arm/arm-none-eabi/include/c++/10.3.1/bits/invoke.h ****       >::value,
 130:/Library/DaisyToolchain/0.2.0/arm/arm-none-eabi/include/c++/10.3.1/bits/invoke.h ****       _Res
 131:/Library/DaisyToolchain/0.2.0/arm/arm-none-eabi/include/c++/10.3.1/bits/invoke.h ****     >;
 132:/Library/DaisyToolchain/0.2.0/arm/arm-none-eabi/include/c++/10.3.1/bits/invoke.h **** 
 133:/Library/DaisyToolchain/0.2.0/arm/arm-none-eabi/include/c++/10.3.1/bits/invoke.h ****   // INVOKE<R>: Invoke a callable object and convert the result to R.
 134:/Library/DaisyToolchain/0.2.0/arm/arm-none-eabi/include/c++/10.3.1/bits/invoke.h ****   template<typename _Res, typename _Callable, typename... _Args>
 135:/Library/DaisyToolchain/0.2.0/arm/arm-none-eabi/include/c++/10.3.1/bits/invoke.h ****     constexpr __can_invoke_as_nonvoid<_Res, _Callable, _Args...>
 136:/Library/DaisyToolchain/0.2.0/arm/arm-none-eabi/include/c++/10.3.1/bits/invoke.h ****     __invoke_r(_Callable&& __fn, _Args&&... __args)
 137:/Library/DaisyToolchain/0.2.0/arm/arm-none-eabi/include/c++/10.3.1/bits/invoke.h ****     {
 138:/Library/DaisyToolchain/0.2.0/arm/arm-none-eabi/include/c++/10.3.1/bits/invoke.h ****       using __result = __invoke_result<_Callable, _Args...>;
 139:/Library/DaisyToolchain/0.2.0/arm/arm-none-eabi/include/c++/10.3.1/bits/invoke.h ****       using __type = typename __result::type;
 140:/Library/DaisyToolchain/0.2.0/arm/arm-none-eabi/include/c++/10.3.1/bits/invoke.h ****       using __tag = typename __result::__invoke_type;
 141:/Library/DaisyToolchain/0.2.0/arm/arm-none-eabi/include/c++/10.3.1/bits/invoke.h ****       return std::__invoke_impl<__type>(__tag{}, std::forward<_Callable>(__fn),
 142:/Library/DaisyToolchain/0.2.0/arm/arm-none-eabi/include/c++/10.3.1/bits/invoke.h **** 					std::forward<_Args>(__args)...);
 143:/Library/DaisyToolchain/0.2.0/arm/arm-none-eabi/include/c++/10.3.1/bits/invoke.h ****     }
 144:/Library/DaisyToolchain/0.2.0/arm/arm-none-eabi/include/c++/10.3.1/bits/invoke.h **** 
 145:/Library/DaisyToolchain/0.2.0/arm/arm-none-eabi/include/c++/10.3.1/bits/invoke.h ****   // INVOKE<R> when R is cv void
 146:/Library/DaisyToolchain/0.2.0/arm/arm-none-eabi/include/c++/10.3.1/bits/invoke.h ****   template<typename _Res, typename _Callable, typename... _Args>
 147:/Library/DaisyToolchain/0.2.0/arm/arm-none-eabi/include/c++/10.3.1/bits/invoke.h ****     _GLIBCXX14_CONSTEXPR __can_invoke_as_void<_Res, _Callable, _Args...>
 148:/Library/DaisyToolchain/0.2.0/arm/arm-none-eabi/include/c++/10.3.1/bits/invoke.h ****     __invoke_r(_Callable&& __fn, _Args&&... __args)
 277              		.loc 15 148 5 is_stmt 1 view .LVU42
 278              	.LVL10:
 279              	.LBB439:
 280              	.LBB437:
 281              	.LBI414:
  59:/Library/DaisyToolchain/0.2.0/arm/arm-none-eabi/include/c++/10.3.1/bits/invoke.h ****     { return std::forward<_Fn>(__f)(std::forward<_Args>(__args)...); }
 282              		.loc 15 59 5 view .LVU43
 283              	.LBB435:
 284              	.LBI415:
 285              		.file 16 "Interface.cpp"
   1:Interface.cpp **** #include "Thaumazein.h"
   2:Interface.cpp **** #include "Arpeggiator.h"
   3:Interface.cpp **** 
   4:Interface.cpp **** // --- Global hardware variables ---
   5:Interface.cpp **** DaisySeed hw;
   6:Interface.cpp **** Mpr121 touch_sensor;
   7:Interface.cpp **** EchoDelay<48000> delay;
   8:Interface.cpp **** // Arpeggiator instance
   9:Interface.cpp **** Arpeggiator arp;
  10:Interface.cpp **** // Global array for touch pad LEDs
  11:Interface.cpp **** GPIO touch_leds[12];
  12:Interface.cpp **** // Timestamp for each LED when an ARP note triggers (ms)
  13:Interface.cpp **** volatile uint32_t arp_led_timestamps[12] = {0};
  14:Interface.cpp **** // Duration in milliseconds for each LED blink on ARP trigger
  15:Interface.cpp **** const uint32_t ARP_LED_DURATION_MS = 100;
  16:Interface.cpp **** 
  17:Interface.cpp **** // Hardware controls - Remapped to use ADCs 0-9
  18:Interface.cpp **** Switch button;
  19:Interface.cpp **** AnalogControl delay_time_knob;        // ADC 0 (Pin 15) Delay Time
ARM GAS  /var/folders/9s/8rp0_f2s1n31qbztm3b5_fdh0000gn/T//cc1V9ehO.s 			page 26


  20:Interface.cpp **** AnalogControl delay_mix_feedback_knob; // ADC 1 (Pin 16) Delay Mix & Feedback
  21:Interface.cpp **** AnalogControl env_release_knob;       // ADC 2 (Pin 17) Envelope Release
  22:Interface.cpp **** AnalogControl env_attack_knob;        // ADC 3 (Pin 18) Envelope Attack
  23:Interface.cpp **** AnalogControl timbre_knob;            // ADC 4 (Pin 19) Plaits Timbre
  24:Interface.cpp **** AnalogControl harmonics_knob;         // ADC 5 (Pin 20) Plaits Harmonics
  25:Interface.cpp **** AnalogControl morph_knob;             // ADC 6 (Pin 21) Plaits Morph
  26:Interface.cpp **** AnalogControl pitch_knob;             // ADC 7 (Pin 22) Plaits Pitch
  27:Interface.cpp **** AnalogControl arp_pad;               // ADC 8 (Pin 23) Arpeggiator Toggle Pad
  28:Interface.cpp **** AnalogControl model_prev_pad;        // ADC 9 (Pin 24) Model Select Previous Pad
  29:Interface.cpp **** AnalogControl model_next_pad;        // ADC 10 (Pin 25) Model Select Next Pad
  30:Interface.cpp **** AnalogControl mod_wheel;             // ADC 11 (Pin 28) Mod Wheel Control
  31:Interface.cpp **** 
  32:Interface.cpp **** // CPU usage monitoring
  33:Interface.cpp **** float sample_rate = 48000.0f; 
  34:Interface.cpp **** volatile uint32_t avg_elapsed_us = 0; 
  35:Interface.cpp **** volatile bool update_display = false; 
  36:Interface.cpp **** // Output Level monitoring
  37:Interface.cpp **** volatile float smoothed_output_level = 0.0f; 
  38:Interface.cpp **** 
  39:Interface.cpp **** // Bootloader configuration
  40:Interface.cpp **** const uint32_t BOOTLOADER_HOLD_TIME_MS = 3000; // Hold button for 3 seconds
  41:Interface.cpp **** uint32_t button_held_start_time = 0;
  42:Interface.cpp **** bool button_was_pressed = false;
  43:Interface.cpp **** 
  44:Interface.cpp **** // --- Initialization functions ---
  45:Interface.cpp **** void InitializeHardware() {
  46:Interface.cpp ****     // Initialize Daisy Seed hardware
  47:Interface.cpp ****     hw.Configure();
  48:Interface.cpp ****     hw.Init();
  49:Interface.cpp ****     hw.SetAudioBlockSize(BLOCK_SIZE);
  50:Interface.cpp ****     sample_rate = hw.AudioSampleRate();
  51:Interface.cpp ****     hw.SetAudioSampleRate(SaiHandle::Config::SampleRate::SAI_48KHZ); // Using 48kHz now
  52:Interface.cpp ****     sample_rate = hw.AudioSampleRate(); // Update sample_rate after setting it
  53:Interface.cpp **** }
  54:Interface.cpp **** 
  55:Interface.cpp **** void InitializeControls() {
  56:Interface.cpp ****     // --- Configure ADCs (12 Channels) ---
  57:Interface.cpp ****     AdcChannelConfig adc_config[12];
  58:Interface.cpp ****     adc_config[0].InitSingle(hw.GetPin(15)); // ADC 0: Delay Time
  59:Interface.cpp ****     adc_config[1].InitSingle(hw.GetPin(16)); // ADC 1: Delay Mix & Feedback
  60:Interface.cpp ****     adc_config[2].InitSingle(hw.GetPin(17)); // ADC 2: Envelope Release
  61:Interface.cpp ****     adc_config[3].InitSingle(hw.GetPin(18)); // ADC 3: Envelope Attack
  62:Interface.cpp ****     adc_config[4].InitSingle(hw.GetPin(19)); // ADC 4: Plaits Timbre
  63:Interface.cpp ****     adc_config[5].InitSingle(hw.GetPin(20)); // ADC 5: Plaits Harmonics
  64:Interface.cpp ****     adc_config[6].InitSingle(hw.GetPin(21)); // ADC 6: Plaits Morph
  65:Interface.cpp ****     adc_config[7].InitSingle(hw.GetPin(22)); // ADC 7: Plaits Pitch
  66:Interface.cpp ****     adc_config[8].InitSingle(hw.GetPin(23)); // ADC 8: Arpeggiator Toggle Pad
  67:Interface.cpp ****     adc_config[9].InitSingle(hw.GetPin(24)); // ADC 9: Model Select Previous Pad
  68:Interface.cpp ****     adc_config[10].InitSingle(hw.GetPin(25)); // ADC 10: Model Select Next Pad
  69:Interface.cpp ****     adc_config[11].InitSingle(hw.GetPin(28)); // ADC 11: Mod Wheel Control
  70:Interface.cpp ****     hw.adc.Init(adc_config, 12); // Initialize 12 channels
  71:Interface.cpp ****     hw.adc.Start();
  72:Interface.cpp **** 
  73:Interface.cpp ****     // --- Initialize Controls (Matches new mapping) ---
  74:Interface.cpp ****     delay_time_knob.Init(hw.adc.GetPtr(0), sample_rate);        // ADC 0
  75:Interface.cpp ****     delay_mix_feedback_knob.Init(hw.adc.GetPtr(1), sample_rate); // ADC 1
  76:Interface.cpp ****     env_release_knob.Init(hw.adc.GetPtr(2), sample_rate);       // ADC 2
ARM GAS  /var/folders/9s/8rp0_f2s1n31qbztm3b5_fdh0000gn/T//cc1V9ehO.s 			page 27


  77:Interface.cpp ****     env_attack_knob.Init(hw.adc.GetPtr(3), sample_rate);        // ADC 3
  78:Interface.cpp ****     timbre_knob.Init(hw.adc.GetPtr(4), sample_rate);            // ADC 4
  79:Interface.cpp ****     harmonics_knob.Init(hw.adc.GetPtr(5), sample_rate);         // ADC 5
  80:Interface.cpp ****     morph_knob.Init(hw.adc.GetPtr(6), sample_rate);             // ADC 6
  81:Interface.cpp ****     pitch_knob.Init(hw.adc.GetPtr(7), sample_rate);             // ADC 7
  82:Interface.cpp ****     arp_pad.Init(hw.adc.GetPtr(8), sample_rate);               // ADC 8
  83:Interface.cpp ****     model_prev_pad.Init(hw.adc.GetPtr(9), sample_rate);        // ADC 9
  84:Interface.cpp ****     model_next_pad.Init(hw.adc.GetPtr(10), sample_rate);       // ADC 10
  85:Interface.cpp ****     mod_wheel.Init(hw.adc.GetPtr(11), sample_rate);            // ADC 11
  86:Interface.cpp **** 
  87:Interface.cpp ****     // --- Initialize Buttons ---
  88:Interface.cpp ****     button.Init(hw.GetPin(27), sample_rate / 48.0f);
  89:Interface.cpp **** }
  90:Interface.cpp **** 
  91:Interface.cpp **** void InitializeTouchSensor() {
  92:Interface.cpp ****     // --- Initialize MPR121 ---
  93:Interface.cpp ****     Mpr121::Config touch_config;
  94:Interface.cpp ****     touch_config.Defaults();
  95:Interface.cpp ****     if (!touch_sensor.Init(touch_config)) {
  96:Interface.cpp ****         while(1) { hw.SetLed(true); System::Delay(50); hw.SetLed(false); System::Delay(50); }
  97:Interface.cpp ****     }
  98:Interface.cpp ****     // Override default thresholds for more sensitivity
  99:Interface.cpp ****     touch_sensor.SetThresholds(6, 3); 
 100:Interface.cpp **** }
 101:Interface.cpp **** 
 102:Interface.cpp **** void InitializeDelay() {
 103:Interface.cpp ****     // --- Initialize Echo Delay --- 
 104:Interface.cpp ****     delay.Init(sample_rate); 
 105:Interface.cpp ****     delay.SetLagTime(0.02f);         // Short lag for time changes
 106:Interface.cpp ****     delay.SetDelayTime(0.3f, true); // 300ms delay, set immediately
 107:Interface.cpp ****     delay.SetFeedback(0.5f);         // 50% feedback
 108:Interface.cpp **** }
 109:Interface.cpp **** 
 110:Interface.cpp **** // Initialize GPIO and light up all touch pad LEDs
 111:Interface.cpp **** void InitializeTouchLEDs() {
 112:Interface.cpp ****     GPIO::Config led_cfg;
 113:Interface.cpp ****     led_cfg.mode  = GPIO::Mode::OUTPUT;
 114:Interface.cpp ****     led_cfg.pull  = GPIO::Pull::NOPULL;
 115:Interface.cpp ****     led_cfg.speed = GPIO::Speed::LOW;
 116:Interface.cpp **** 
 117:Interface.cpp ****     Pin led_pins[12] = {
 118:Interface.cpp ****         seed::D14, seed::D13, seed::D10, seed::D9,
 119:Interface.cpp ****         seed::D8,  seed::D7,  seed::D6,  seed::D5,
 120:Interface.cpp ****         seed::D4,  seed::D3,  seed::D2,  seed::D1
 121:Interface.cpp ****     };
 122:Interface.cpp **** 
 123:Interface.cpp ****     for(int i = 0; i < 12; ++i) {
 124:Interface.cpp ****         led_cfg.pin = led_pins[i];
 125:Interface.cpp ****         touch_leds[i].Init(led_cfg);
 126:Interface.cpp ****         touch_leds[i].Write(true);
 127:Interface.cpp ****     }
 128:Interface.cpp **** }
 129:Interface.cpp **** 
 130:Interface.cpp **** void InitializeSynth() {
 131:Interface.cpp ****     InitializeHardware();
 132:Interface.cpp ****     InitializeVoices(); // Call function from Polyphony.cpp
 133:Interface.cpp ****     InitializeControls();
ARM GAS  /var/folders/9s/8rp0_f2s1n31qbztm3b5_fdh0000gn/T//cc1V9ehO.s 			page 28


 134:Interface.cpp ****     InitializeTouchSensor();
 135:Interface.cpp ****     InitializeDelay();
 136:Interface.cpp ****     InitializeTouchLEDs();
 137:Interface.cpp ****     cpu_meter.Init(sample_rate, BLOCK_SIZE); // Initialize the CPU Load Meter
 138:Interface.cpp ****     
 139:Interface.cpp ****     // --- Initialize Arpeggiator ---
 140:Interface.cpp ****     arp.Init(sample_rate);
 141:Interface.cpp ****     // Default arp tempo for audible stepping
 142:Interface.cpp ****     arp.SetMainTempo(8.0f);
 143:Interface.cpp ****     // Route arpeggiator triggers into Plaits voices
 144:Interface.cpp ****     arp.SetNoteTriggerCallback([](int pad_idx) {
 286              		.loc 16 144 32 view .LVU44
 287              	.LBB433:
 145:Interface.cpp ****         // Monophonic ARP: set AR mode and retrigger envelope without full reset
 146:Interface.cpp ****         voice_envelopes[0].SetMode(VoiceEnvelope::MODE_AR);
 288              		.loc 16 146 9 view .LVU45
 289              	.LBB420:
 290              	.LBI417:
  43:VoiceEnvelope.h ****         mode = new_mode;
 291              		.loc 14 43 10 view .LVU46
 292              	.LBB419:
 293              		.loc 14 44 9 view .LVU47
 294              		.loc 14 44 14 is_stmt 0 view .LVU48
 295 0006 0021     		movs	r1, #0
 296              	.LVL11:
 297              		.loc 14 44 14 view .LVU49
 298 0008 5970     		strb	r1, [r3, #1]
 299              	.LVL12:
 300              		.loc 14 44 14 view .LVU50
 301              	.LBE419:
 302              	.LBE420:
 147:Interface.cpp ****         // Assign the new note to voice 0
 148:Interface.cpp ****         float note = kTouchMidiNotes[pad_idx];
 303              		.loc 16 148 9 is_stmt 1 view .LVU51
 149:Interface.cpp ****         voice_note[0] = note;
 304              		.loc 16 149 9 view .LVU52
 148:Interface.cpp ****         voice_note[0] = note;
 305              		.loc 16 148 15 is_stmt 0 view .LVU53
 306 000a 2149     		ldr	r1, .L17+4
 307 000c 01EB8401 		add	r1, r1, r4, lsl #2
 308              	.LVL13:
 309              		.loc 16 149 23 view .LVU54
 310 0010 0868     		ldr	r0, [r1]	@ float
 311              	.LVL14:
 312              		.loc 16 149 23 view .LVU55
 313 0012 2049     		ldr	r1, .L17+8
 314              	.LVL15:
 315              		.loc 16 149 23 view .LVU56
 316 0014 0860     		str	r0, [r1]	@ float
 150:Interface.cpp ****         voice_active[0] = true;
 317              		.loc 16 150 9 is_stmt 1 view .LVU57
 318              		.loc 16 150 25 is_stmt 0 view .LVU58
 319 0016 0121     		movs	r1, #1
 320 0018 1F48     		ldr	r0, .L17+12
 321              	.LVL16:
 322              		.loc 16 150 25 view .LVU59
 323 001a 0170     		strb	r1, [r0]
ARM GAS  /var/folders/9s/8rp0_f2s1n31qbztm3b5_fdh0000gn/T//cc1V9ehO.s 			page 29


 151:Interface.cpp ****         // Start the envelope attack; release phase follows based on knob
 152:Interface.cpp ****         voice_envelopes[0].Trigger();
 324              		.loc 16 152 9 is_stmt 1 view .LVU60
 325              	.LVL17:
 326              	.LBB421:
 327              	.LBI421:
  45:VoiceEnvelope.h ****     }
  46:VoiceEnvelope.h **** 
  47:VoiceEnvelope.h ****     // Original combined shape method for backward compatibility
  48:VoiceEnvelope.h ****     void SetShape(float value) {
  49:VoiceEnvelope.h ****         float curve;
  50:VoiceEnvelope.h ****         if (value < 0.5f) {
  51:VoiceEnvelope.h ****             attack_time = min_attack_time;
  52:VoiceEnvelope.h ****             decay_time = static_cast<size_t>(time_range_2x * value * value) + min_decay_time_a;
  53:VoiceEnvelope.h ****             curve = value * 0.15f;
  54:VoiceEnvelope.h ****         } else {
  55:VoiceEnvelope.h ****             float norm_val = 2.0f * value - 1.0f;
  56:VoiceEnvelope.h ****             attack_time = static_cast<size_t>(time_range_2x * norm_val * norm_val) + min_attack_tim
  57:VoiceEnvelope.h ****             decay_time = static_cast<size_t>(time_range_2x * (1.0f - value * value)) + min_decay_ti
  58:VoiceEnvelope.h ****             curve = 0.5f;
  59:VoiceEnvelope.h ****         }
  60:VoiceEnvelope.h ****         attack_coefficient = 1.0f / attack_time;
  61:VoiceEnvelope.h ****         decay_coefficient = 1.0f / decay_time;
  62:VoiceEnvelope.h ****         SetAttackCurve(curve);
  63:VoiceEnvelope.h ****         SetReleaseCurve(curve);
  64:VoiceEnvelope.h ****     }
  65:VoiceEnvelope.h ****     
  66:VoiceEnvelope.h ****     // New methods for separate attack and release control
  67:VoiceEnvelope.h ****     void SetAttackTime(float value) {
  68:VoiceEnvelope.h ****         // Map 0-1 value to attack time (exponential scaling)
  69:VoiceEnvelope.h ****         // value for finer control at shorter settings
  70:VoiceEnvelope.h ****         float value_cubed = value * value * value;
  71:VoiceEnvelope.h ****         
  72:VoiceEnvelope.h ****         // Special handling for super punchy attacks at low values
  73:VoiceEnvelope.h ****         if (value < 0.1f) {
  74:VoiceEnvelope.h ****             // Extra fast attacks at the beginning of the range
  75:VoiceEnvelope.h ****             attack_time = static_cast<size_t>(min_attack_time + 
  76:VoiceEnvelope.h ****                                            (min_attack_time * 9.0f * value / 0.1f));
  77:VoiceEnvelope.h ****         } else {
  78:VoiceEnvelope.h ****             // Normal range from 2ms to 4 seconds
  79:VoiceEnvelope.h ****             attack_time = static_cast<size_t>(0.002f * time_range_2x/8.0f + 
  80:VoiceEnvelope.h ****                                            (time_range_2x * 0.5f * value_cubed));
  81:VoiceEnvelope.h ****         }
  82:VoiceEnvelope.h ****         
  83:VoiceEnvelope.h ****         attack_coefficient = 1.0f / attack_time;
  84:VoiceEnvelope.h ****         
  85:VoiceEnvelope.h ****         // Make curve more exponential for faster attacks
  86:VoiceEnvelope.h ****         if (value < 0.3f) {
  87:VoiceEnvelope.h ****             // More exponential curve for punchy attacks
  88:VoiceEnvelope.h ****             SetAttackCurve(0.7f + (0.3f - value)); // 0.7 to 1.0 range for punchier curve
  89:VoiceEnvelope.h ****         } else {
  90:VoiceEnvelope.h ****             // Normal curve
  91:VoiceEnvelope.h ****             SetAttackCurve(0.5f);
  92:VoiceEnvelope.h ****         }
  93:VoiceEnvelope.h ****     }
  94:VoiceEnvelope.h ****     
  95:VoiceEnvelope.h ****     void SetReleaseTime(float value) {
ARM GAS  /var/folders/9s/8rp0_f2s1n31qbztm3b5_fdh0000gn/T//cc1V9ehO.s 			page 30


  96:VoiceEnvelope.h ****         // Map 0-1 value to release time (exponential scaling)
  97:VoiceEnvelope.h ****         // value for finer control at shorter settings
  98:VoiceEnvelope.h ****         float value_cubed = value * value * value;
  99:VoiceEnvelope.h ****         
 100:VoiceEnvelope.h ****         // Release time ranges from min_decay_time_b to 8 seconds
 101:VoiceEnvelope.h ****         decay_time = static_cast<size_t>(min_decay_time_b + 
 102:VoiceEnvelope.h ****                                         (time_range_2x * value_cubed));
 103:VoiceEnvelope.h ****         decay_coefficient = 1.0f / decay_time;
 104:VoiceEnvelope.h ****         
 105:VoiceEnvelope.h ****         // Use consistent release curve regardless of release time
 106:VoiceEnvelope.h ****         SetReleaseCurve(0.5f);
 107:VoiceEnvelope.h ****     }
 108:VoiceEnvelope.h ****     
 109:VoiceEnvelope.h ****     void SetAttackCurve(float value) {
 110:VoiceEnvelope.h ****         float cu = value - 0.5f;
 111:VoiceEnvelope.h ****         attack_curve_coefficient = 128.0f * cu * cu;
 112:VoiceEnvelope.h ****     }
 113:VoiceEnvelope.h ****     
 114:VoiceEnvelope.h ****     void SetReleaseCurve(float value) {
 115:VoiceEnvelope.h ****         float cu = value - 0.5f;
 116:VoiceEnvelope.h ****         release_curve_coefficient = 128.0f * cu * cu;
 117:VoiceEnvelope.h ****     }
 118:VoiceEnvelope.h **** 
 119:VoiceEnvelope.h ****     void Trigger() {
 328              		.loc 14 119 10 view .LVU61
 329              	.LBB422:
 120:VoiceEnvelope.h ****         switch (current_state) {
 330              		.loc 14 120 9 view .LVU62
 331              		.loc 14 120 17 is_stmt 0 view .LVU63
 332 001c 1878     		ldrb	r0, [r3]	@ zero_extendqisi2
 333              		.loc 14 120 9 view .LVU64
 334 001e A0B1     		cbz	r0, .L13
 335 0020 0328     		cmp	r0, #3
 336 0022 15D0     		beq	.L14
 337              	.L15:
 338              	.LVL18:
 339              		.loc 14 120 9 view .LVU65
 340              	.LBE422:
 341              	.LBE421:
 153:Interface.cpp ****         // Send patched trigger to Plaits engine only for percussive modes
 154:Interface.cpp ****         if (current_engine_index > 7) {
 342              		.loc 16 154 9 is_stmt 1 view .LVU66
 343              		.loc 16 154 34 is_stmt 0 view .LVU67
 344 0024 1D4B     		ldr	r3, .L17+16
 345 0026 1B68     		ldr	r3, [r3]
 346              		.loc 16 154 9 view .LVU68
 347 0028 072B     		cmp	r3, #7
 348 002a 06DD     		ble	.L16
 155:Interface.cpp ****             modulations[0].trigger = 1.0f;
 349              		.loc 16 155 13 is_stmt 1 view .LVU69
 350              		.loc 16 155 36 is_stmt 0 view .LVU70
 351 002c 1C4B     		ldr	r3, .L17+20
 352 002e 4FF07E51 		mov	r1, #1065353216
 353 0032 9961     		str	r1, [r3, #24]	@ float
 156:Interface.cpp ****             modulations[0].trigger_patched = true;
 354              		.loc 16 156 13 is_stmt 1 view .LVU71
 355              		.loc 16 156 44 is_stmt 0 view .LVU72
ARM GAS  /var/folders/9s/8rp0_f2s1n31qbztm3b5_fdh0000gn/T//cc1V9ehO.s 			page 31


 356 0034 0121     		movs	r1, #1
 357 0036 83F82310 		strb	r1, [r3, #35]
 358              	.L16:
 157:Interface.cpp ****         }
 158:Interface.cpp ****         // Record the timestamp for ARP LED blink (pad 11led[0], etc.)
 159:Interface.cpp ****         arp_led_timestamps[11 - pad_idx] = hw.system.GetNow();
 359              		.loc 16 159 9 is_stmt 1 view .LVU73
 360              		.loc 16 159 60 is_stmt 0 view .LVU74
 361 003a FFF7FEFF 		bl	_ZN5daisy6System6GetNowEv
 362              	.LVL19:
 363              		.loc 16 159 31 view .LVU75
 364 003e C4F10B04 		rsb	r4, r4, #11
 365              	.LVL20:
 366              		.loc 16 159 42 view .LVU76
 367 0042 184B     		ldr	r3, .L17+24
 368 0044 43F82400 		str	r0, [r3, r4, lsl #2]
 369              	.LVL21:
 370              		.loc 16 159 42 view .LVU77
 371              	.LBE433:
 372              	.LBE435:
 373              	.LBE437:
 374              	.LBE439:
 375              	.LBE412:
 290:/Library/DaisyToolchain/0.2.0/arm/arm-none-eabi/include/c++/10.3.1/bits/std_function.h ****       {
 291:/Library/DaisyToolchain/0.2.0/arm/arm-none-eabi/include/c++/10.3.1/bits/std_function.h **** 	return std::__invoke_r<_Res>(*_Base::_M_get_pointer(__functor),
 292:/Library/DaisyToolchain/0.2.0/arm/arm-none-eabi/include/c++/10.3.1/bits/std_function.h **** 				     std::forward<_ArgTypes>(__args)...);
 293:/Library/DaisyToolchain/0.2.0/arm/arm-none-eabi/include/c++/10.3.1/bits/std_function.h ****       }
 376              		.loc 13 293 7 view .LVU78
 377 0048 10BD     		pop	{r4, pc}
 378              	.LVL22:
 379              	.L13:
 380              	.LBB441:
 381              	.LBB440:
 382              	.LBB438:
 383              	.LBB436:
 384              	.LBB434:
 385              	.LBB432:
 386              	.LBB431:
 121:VoiceEnvelope.h ****             case ENV_IDLE:
 387              		.loc 14 121 13 is_stmt 1 view .LVU79
 122:VoiceEnvelope.h ****                 current_state = ENV_ATTACK;
 388              		.loc 14 122 17 view .LVU80
 389              		.loc 14 122 31 is_stmt 0 view .LVU81
 390 004a 1970     		strb	r1, [r3]
 123:VoiceEnvelope.h ****                 phase = 0;
 391              		.loc 14 123 17 is_stmt 1 view .LVU82
 392              		.loc 14 123 23 is_stmt 0 view .LVU83
 393 004c D863     		str	r0, [r3, #60]
 124:VoiceEnvelope.h ****                 break;
 394              		.loc 14 124 17 is_stmt 1 view .LVU84
 395 004e E9E7     		b	.L15
 396              	.L14:
 397              	.LVL23:
 398              	.LBB423:
 399              	.LBI423:
 119:VoiceEnvelope.h ****         switch (current_state) {
 400              		.loc 14 119 10 view .LVU85
ARM GAS  /var/folders/9s/8rp0_f2s1n31qbztm3b5_fdh0000gn/T//cc1V9ehO.s 			page 32


 401              	.LBB424:
 125:VoiceEnvelope.h ****             case ENV_DECAY:
 402              		.loc 14 125 13 view .LVU86
 126:VoiceEnvelope.h ****                 current_state = ENV_ATTACK;
 403              		.loc 14 126 17 view .LVU87
 404              	.LBB425:
 405              	.LBB426:
 127:VoiceEnvelope.h ****                 phase = CalculateAttackPhase(current_value);
 128:VoiceEnvelope.h ****                 break;
 129:VoiceEnvelope.h ****             default:
 130:VoiceEnvelope.h ****                 break;
 131:VoiceEnvelope.h ****         }
 132:VoiceEnvelope.h ****     }
 133:VoiceEnvelope.h **** 
 134:VoiceEnvelope.h ****     void Release() {
 135:VoiceEnvelope.h ****         switch (current_state) {
 136:VoiceEnvelope.h ****             case ENV_ATTACK:
 137:VoiceEnvelope.h ****                 // Preserve the attack curve character when transitioning to release
 138:VoiceEnvelope.h ****                 // This decouples release time from affecting attack punchiness
 139:VoiceEnvelope.h ****                 current_value = CalculateAttackAmplitude(static_cast<float>(phase) * attack_coeffic
 140:VoiceEnvelope.h ****                 phase = 0; // Always start release from beginning, preserving the current level
 141:VoiceEnvelope.h ****                 current_state = ENV_DECAY;
 142:VoiceEnvelope.h ****                 break;
 143:VoiceEnvelope.h ****             case ENV_SUSTAIN:
 144:VoiceEnvelope.h ****                 phase = 0;
 145:VoiceEnvelope.h ****                 current_state = ENV_DECAY;
 146:VoiceEnvelope.h ****                 break;
 147:VoiceEnvelope.h ****             default:
 148:VoiceEnvelope.h ****                 break;
 149:VoiceEnvelope.h ****         }
 150:VoiceEnvelope.h ****     }
 151:VoiceEnvelope.h **** 
 152:VoiceEnvelope.h ****     float Process() {
 153:VoiceEnvelope.h ****         float ph;
 154:VoiceEnvelope.h ****         switch (current_state) {
 155:VoiceEnvelope.h ****             case ENV_IDLE:
 156:VoiceEnvelope.h ****                 current_value = 0.0f;
 157:VoiceEnvelope.h ****                 break;
 158:VoiceEnvelope.h **** 
 159:VoiceEnvelope.h ****             case ENV_ATTACK:
 160:VoiceEnvelope.h ****                 ph = static_cast<float>(phase) * attack_coefficient;
 161:VoiceEnvelope.h ****                 current_value = CalculateAttackAmplitude(ph);
 162:VoiceEnvelope.h ****                 if (phase >= attack_time) {
 163:VoiceEnvelope.h ****                     current_state = (mode == MODE_AR) ? ENV_DECAY : ENV_SUSTAIN;
 164:VoiceEnvelope.h ****                     phase = 0;
 165:VoiceEnvelope.h ****                 } else {
 166:VoiceEnvelope.h ****                     phase++;
 167:VoiceEnvelope.h ****                 }
 168:VoiceEnvelope.h ****                 break;
 169:VoiceEnvelope.h **** 
 170:VoiceEnvelope.h ****             case ENV_SUSTAIN:
 171:VoiceEnvelope.h ****                 current_value = 1.0f;
 172:VoiceEnvelope.h ****                 break;
 173:VoiceEnvelope.h **** 
 174:VoiceEnvelope.h ****             case ENV_DECAY:
 175:VoiceEnvelope.h ****                 // Use current_value as starting point for decay
 176:VoiceEnvelope.h ****                 // This preserves the correct level from attack phase
ARM GAS  /var/folders/9s/8rp0_f2s1n31qbztm3b5_fdh0000gn/T//cc1V9ehO.s 			page 33


 177:VoiceEnvelope.h ****                 ph = static_cast<float>(phase) * decay_coefficient;
 178:VoiceEnvelope.h ****                 if (phase == 0) {
 179:VoiceEnvelope.h ****                     // On first frame, use current value
 180:VoiceEnvelope.h ****                     decay_start_level = current_value;
 181:VoiceEnvelope.h ****                 }
 182:VoiceEnvelope.h ****                 current_value = decay_start_level * (1.0f - ph) / (1.0f + release_curve_coefficient
 183:VoiceEnvelope.h ****                 
 184:VoiceEnvelope.h ****                 if (phase >= decay_time) {
 185:VoiceEnvelope.h ****                     current_state = ENV_IDLE;
 186:VoiceEnvelope.h ****                     phase = 0;
 187:VoiceEnvelope.h ****                 } else {
 188:VoiceEnvelope.h ****                     phase++;
 189:VoiceEnvelope.h ****                 }
 190:VoiceEnvelope.h ****                 break;
 191:VoiceEnvelope.h **** 
 192:VoiceEnvelope.h ****             case ENV_RESET:
 193:VoiceEnvelope.h ****                 current_value = reset_target - static_cast<float>(phase) * reset_coefficient;
 194:VoiceEnvelope.h ****                 if (phase >= reset_time) {
 195:VoiceEnvelope.h ****                     current_state = ENV_IDLE;
 196:VoiceEnvelope.h ****                     phase = 0;
 197:VoiceEnvelope.h ****                 } else {
 198:VoiceEnvelope.h ****                     phase++;
 199:VoiceEnvelope.h ****                 }
 200:VoiceEnvelope.h ****                 break;
 201:VoiceEnvelope.h ****         }
 202:VoiceEnvelope.h ****         return std::min(std::max(current_value, 0.0f), 1.0f);
 203:VoiceEnvelope.h ****     }
 204:VoiceEnvelope.h **** 
 205:VoiceEnvelope.h ****     void Reset() {
 206:VoiceEnvelope.h ****         if (current_state == ENV_IDLE) return;
 207:VoiceEnvelope.h ****         current_state = ENV_RESET;
 208:VoiceEnvelope.h ****         reset_target = current_value;
 209:VoiceEnvelope.h ****         phase = 0;
 210:VoiceEnvelope.h ****     }
 211:VoiceEnvelope.h **** 
 212:VoiceEnvelope.h ****     bool IsActive() const {
 213:VoiceEnvelope.h ****         return current_state != ENV_IDLE;
 214:VoiceEnvelope.h ****     }
 215:VoiceEnvelope.h **** 
 216:VoiceEnvelope.h **** private:
 217:VoiceEnvelope.h ****     float CalculateAttackAmplitude(float ph) {
 218:VoiceEnvelope.h ****         return ph / (1.0f + attack_curve_coefficient * (1.0f - ph));
 219:VoiceEnvelope.h ****     }
 220:VoiceEnvelope.h **** 
 221:VoiceEnvelope.h ****     float CalculateDecayAmplitude(float ph) {
 222:VoiceEnvelope.h ****         return (1.0f - ph) / (1.0f + release_curve_coefficient * ph);
 223:VoiceEnvelope.h ****     }
 224:VoiceEnvelope.h **** 
 225:VoiceEnvelope.h ****     size_t CalculateAttackPhase(float amp) {
 226:VoiceEnvelope.h ****         return static_cast<size_t>(roundf(attack_time * amp * (1.0f + attack_curve_coefficient) / (
 406              		.loc 14 226 69 is_stmt 0 view .LVU88
 407 0050 B7EE007A 		vmov.f32	s14, #1.0e+0
 408              	.LBE426:
 409              	.LBE425:
 127:VoiceEnvelope.h ****                 phase = CalculateAttackPhase(current_value);
 410              		.loc 14 127 45 view .LVU89
 411 0054 D3ED015A 		vldr.32	s11, [r3, #4]
ARM GAS  /var/folders/9s/8rp0_f2s1n31qbztm3b5_fdh0000gn/T//cc1V9ehO.s 			page 34


 412              	.LBB429:
 413              	.LBB427:
 414              		.loc 14 226 71 view .LVU90
 415 0058 93ED026A 		vldr.32	s12, [r3, #8]
 416              		.loc 14 226 55 view .LVU91
 417 005c D3ED0D7A 		vldr.32	s15, [r3, #52]	@ int
 418              		.loc 14 226 69 view .LVU92
 419 0060 76EE076A 		vadd.f32	s13, s12, s14
 420              	.LBE427:
 421              	.LBE429:
 126:VoiceEnvelope.h ****                 current_state = ENV_ATTACK;
 422              		.loc 14 126 31 view .LVU93
 423 0064 1970     		strb	r1, [r3]
 127:VoiceEnvelope.h ****                 phase = CalculateAttackPhase(current_value);
 424              		.loc 14 127 17 is_stmt 1 view .LVU94
 425              	.LVL24:
 426              	.LBB430:
 427              	.LBI425:
 225:VoiceEnvelope.h ****         return static_cast<size_t>(roundf(attack_time * amp * (1.0f + attack_curve_coefficient) / (
 428              		.loc 14 225 12 view .LVU95
 429              	.LBB428:
 430              		.loc 14 226 9 view .LVU96
 431              		.loc 14 226 105 is_stmt 0 view .LVU97
 432 0066 A5EE867A 		vfma.f32	s14, s11, s12
 433              		.loc 14 226 55 view .LVU98
 434 006a F8EE677A 		vcvt.f32.u32	s15, s15
 435 006e 67EEA57A 		vmul.f32	s15, s15, s11
 436              		.loc 14 226 61 view .LVU99
 437 0072 67EEA67A 		vmul.f32	s15, s15, s13
 438              		.loc 14 226 105 view .LVU100
 439 0076 F0EE476A 		vmov.f32	s13, s14
 440              		.loc 14 226 42 view .LVU101
 441 007a 87EEA67A 		vdiv.f32	s14, s15, s13
 442 007e F8FE477A 		vrinta.f32	s15, s14
 443              	.LVL25:
 444              		.loc 14 226 139 view .LVU102
 445 0082 FCEEE77A 		vcvt.u32.f32	s15, s15
 446 0086 C3ED0F7A 		vstr.32	s15, [r3, #60]	@ int
 447              	.LBE428:
 448              	.LBE430:
 128:VoiceEnvelope.h ****             default:
 449              		.loc 14 128 17 is_stmt 1 view .LVU103
 450 008a CBE7     		b	.L15
 451              	.L18:
 452              		.align	2
 453              	.L17:
 454 008c 00000000 		.word	voice_envelopes
 455 0090 00000000 		.word	kTouchMidiNotes
 456 0094 00000000 		.word	voice_note
 457 0098 00000000 		.word	voice_active
 458 009c 00000000 		.word	current_engine_index
 459 00a0 00000000 		.word	modulations
 460 00a4 00000000 		.word	.LANCHOR1
 461              	.LBE424:
 462              	.LBE423:
 463              	.LBE431:
 464              	.LBE432:
ARM GAS  /var/folders/9s/8rp0_f2s1n31qbztm3b5_fdh0000gn/T//cc1V9ehO.s 			page 35


 465              	.LBE434:
 466              	.LBE436:
 467              	.LBE438:
 468              	.LBE440:
 469              	.LBE441:
 470              		.cfi_endproc
 471              	.LFE5962:
 473              		.section	.text._ZNSt14_Function_baseD2Ev,"axG",%progbits,_ZNSt14_Function_baseD5Ev,comdat
 474              		.align	1
 475              		.weak	_ZNSt14_Function_baseD2Ev
 476              		.syntax unified
 477              		.thumb
 478              		.thumb_func
 480              	_ZNSt14_Function_baseD2Ev:
 481              	.LVL26:
 482              	.LFB5276:
 242:/Library/DaisyToolchain/0.2.0/arm/arm-none-eabi/include/c++/10.3.1/bits/std_function.h ****     {
 483              		.loc 13 242 5 view -0
 484              		.cfi_startproc
 485              		@ args = 0, pretend = 0, frame = 0
 486              		@ frame_needed = 0, uses_anonymous_args = 0
 487              	.LBB442:
 244:/Library/DaisyToolchain/0.2.0/arm/arm-none-eabi/include/c++/10.3.1/bits/std_function.h **** 	_M_manager(_M_functor, _M_functor, __destroy_functor);
 488              		.loc 13 244 7 view .LVU105
 244:/Library/DaisyToolchain/0.2.0/arm/arm-none-eabi/include/c++/10.3.1/bits/std_function.h **** 	_M_manager(_M_functor, _M_functor, __destroy_functor);
 489              		.loc 13 244 11 is_stmt 0 view .LVU106
 490 0000 8368     		ldr	r3, [r0, #8]
 491              	.LBE442:
 242:/Library/DaisyToolchain/0.2.0/arm/arm-none-eabi/include/c++/10.3.1/bits/std_function.h ****     {
 492              		.loc 13 242 5 view .LVU107
 493 0002 10B5     		push	{r4, lr}
 494              		.cfi_def_cfa_offset 8
 495              		.cfi_offset 4, -8
 496              		.cfi_offset 14, -4
 242:/Library/DaisyToolchain/0.2.0/arm/arm-none-eabi/include/c++/10.3.1/bits/std_function.h ****     {
 497              		.loc 13 242 5 view .LVU108
 498 0004 0446     		mov	r4, r0
 499              	.LBB443:
 244:/Library/DaisyToolchain/0.2.0/arm/arm-none-eabi/include/c++/10.3.1/bits/std_function.h **** 	_M_manager(_M_functor, _M_functor, __destroy_functor);
 500              		.loc 13 244 7 view .LVU109
 501 0006 13B1     		cbz	r3, .L20
 245:/Library/DaisyToolchain/0.2.0/arm/arm-none-eabi/include/c++/10.3.1/bits/std_function.h ****     }
 502              		.loc 13 245 2 is_stmt 1 view .LVU110
 245:/Library/DaisyToolchain/0.2.0/arm/arm-none-eabi/include/c++/10.3.1/bits/std_function.h ****     }
 503              		.loc 13 245 12 is_stmt 0 view .LVU111
 504 0008 0322     		movs	r2, #3
 505 000a 0146     		mov	r1, r0
 506 000c 9847     		blx	r3
 507              	.LVL27:
 508              	.L20:
 245:/Library/DaisyToolchain/0.2.0/arm/arm-none-eabi/include/c++/10.3.1/bits/std_function.h ****     }
 509              		.loc 13 245 12 view .LVU112
 510              	.LBE443:
 246:/Library/DaisyToolchain/0.2.0/arm/arm-none-eabi/include/c++/10.3.1/bits/std_function.h **** 
 511              		.loc 13 246 5 view .LVU113
 512 000e 2046     		mov	r0, r4
 513 0010 10BD     		pop	{r4, pc}
ARM GAS  /var/folders/9s/8rp0_f2s1n31qbztm3b5_fdh0000gn/T//cc1V9ehO.s 			page 36


 246:/Library/DaisyToolchain/0.2.0/arm/arm-none-eabi/include/c++/10.3.1/bits/std_function.h **** 
 514              		.loc 13 246 5 view .LVU114
 515              		.cfi_endproc
 516              	.LFE5276:
 518              		.weak	_ZNSt14_Function_baseD1Ev
 519              		.thumb_set _ZNSt14_Function_baseD1Ev,_ZNSt14_Function_baseD2Ev
 520              		.section	.text._ZN11ArpeggiatorD2Ev,"axG",%progbits,_ZN11ArpeggiatorD5Ev,comdat
 521              		.align	1
 522              		.weak	_ZN11ArpeggiatorD2Ev
 523              		.syntax unified
 524              		.thumb
 525              		.thumb_func
 527              	_ZN11ArpeggiatorD2Ev:
 528              	.LVL28:
 529              	.LFB6148:
 530              		.file 17 "Arpeggiator.h"
   1:Arpeggiator.h **** #ifndef ARPEGGIATOR_H
   2:Arpeggiator.h **** #define ARPEGGIATOR_H
   3:Arpeggiator.h **** 
   4:Arpeggiator.h **** #include "daisy_seed.h"
   5:Arpeggiator.h **** #include "daisysp.h"
   6:Arpeggiator.h **** #include <functional>
   7:Arpeggiator.h **** 
   8:Arpeggiator.h **** using namespace daisy;
   9:Arpeggiator.h **** using namespace daisysp;
  10:Arpeggiator.h **** 
  11:Arpeggiator.h **** class Arpeggiator {
 531              		.loc 17 11 7 is_stmt 1 view -0
 532              		.cfi_startproc
 533              		@ args = 0, pretend = 0, frame = 0
 534              		@ frame_needed = 0, uses_anonymous_args = 0
 535              	.LBB444:
 536              	.LBI444:
 294:/Library/DaisyToolchain/0.2.0/arm/arm-none-eabi/include/c++/10.3.1/bits/std_function.h ****     };
 295:/Library/DaisyToolchain/0.2.0/arm/arm-none-eabi/include/c++/10.3.1/bits/std_function.h **** 
 296:/Library/DaisyToolchain/0.2.0/arm/arm-none-eabi/include/c++/10.3.1/bits/std_function.h ****   /**
 297:/Library/DaisyToolchain/0.2.0/arm/arm-none-eabi/include/c++/10.3.1/bits/std_function.h ****    *  @brief Primary class template for std::function.
 298:/Library/DaisyToolchain/0.2.0/arm/arm-none-eabi/include/c++/10.3.1/bits/std_function.h ****    *  @ingroup functors
 299:/Library/DaisyToolchain/0.2.0/arm/arm-none-eabi/include/c++/10.3.1/bits/std_function.h ****    *
 300:/Library/DaisyToolchain/0.2.0/arm/arm-none-eabi/include/c++/10.3.1/bits/std_function.h ****    *  Polymorphic function wrapper.
 301:/Library/DaisyToolchain/0.2.0/arm/arm-none-eabi/include/c++/10.3.1/bits/std_function.h ****    */
 302:/Library/DaisyToolchain/0.2.0/arm/arm-none-eabi/include/c++/10.3.1/bits/std_function.h ****   template<typename _Res, typename... _ArgTypes>
 303:/Library/DaisyToolchain/0.2.0/arm/arm-none-eabi/include/c++/10.3.1/bits/std_function.h ****     class function<_Res(_ArgTypes...)>
 537              		.loc 13 303 11 view .LVU116
 538              	.LBE444:
 539              		.loc 17 11 7 is_stmt 0 view .LVU117
 540 0000 10B5     		push	{r4, lr}
 541              		.cfi_def_cfa_offset 8
 542              		.cfi_offset 4, -8
 543              		.cfi_offset 14, -4
 544              		.loc 17 11 7 view .LVU118
 545 0002 0446     		mov	r4, r0
 546              	.LBB446:
 547              	.LBB445:
 548              		.loc 13 303 11 view .LVU119
 549 0004 2830     		adds	r0, r0, #40
 550              	.LVL29:
ARM GAS  /var/folders/9s/8rp0_f2s1n31qbztm3b5_fdh0000gn/T//cc1V9ehO.s 			page 37


 551              		.loc 13 303 11 view .LVU120
 552 0006 FFF7FEFF 		bl	_ZNSt14_Function_baseD2Ev
 553              	.LVL30:
 554              		.loc 13 303 11 view .LVU121
 555              	.LBE445:
 556              	.LBE446:
 557              	.LBB447:
 558              	.LBI447:
 559              		.file 18 "lib/DaisySP/Source/Utility/metro.h"
   1:lib/DaisySP/Source/Utility/metro.h **** /*
   2:lib/DaisySP/Source/Utility/metro.h **** Copyright (c) 2020 Electrosmith, Corp
   3:lib/DaisySP/Source/Utility/metro.h **** 
   4:lib/DaisySP/Source/Utility/metro.h **** Use of this source code is governed by an MIT-style
   5:lib/DaisySP/Source/Utility/metro.h **** license that can be found in the LICENSE file or at
   6:lib/DaisySP/Source/Utility/metro.h **** https://opensource.org/licenses/MIT.
   7:lib/DaisySP/Source/Utility/metro.h **** */
   8:lib/DaisySP/Source/Utility/metro.h **** 
   9:lib/DaisySP/Source/Utility/metro.h **** #pragma once
  10:lib/DaisySP/Source/Utility/metro.h **** #ifndef DSY_METRO_H
  11:lib/DaisySP/Source/Utility/metro.h **** #define DSY_METRO_H
  12:lib/DaisySP/Source/Utility/metro.h **** #include <stdint.h>
  13:lib/DaisySP/Source/Utility/metro.h **** #ifdef __cplusplus
  14:lib/DaisySP/Source/Utility/metro.h **** 
  15:lib/DaisySP/Source/Utility/metro.h **** namespace daisysp
  16:lib/DaisySP/Source/Utility/metro.h **** {
  17:lib/DaisySP/Source/Utility/metro.h **** /** Creates a clock signal at a specific frequency.
  18:lib/DaisySP/Source/Utility/metro.h **** */
  19:lib/DaisySP/Source/Utility/metro.h **** class Metro
  20:lib/DaisySP/Source/Utility/metro.h **** {
  21:lib/DaisySP/Source/Utility/metro.h ****   public:
  22:lib/DaisySP/Source/Utility/metro.h ****     Metro() {}
  23:lib/DaisySP/Source/Utility/metro.h ****     ~Metro() {}
 560              		.loc 18 23 5 is_stmt 1 view .LVU122
 561              		.loc 18 23 5 is_stmt 0 view .LVU123
 562              	.LBE447:
 563              		.loc 17 11 7 view .LVU124
 564 000a 2046     		mov	r0, r4
 565 000c 10BD     		pop	{r4, pc}
 566              		.loc 17 11 7 view .LVU125
 567              		.cfi_endproc
 568              	.LFE6148:
 570              		.weak	_ZN11ArpeggiatorD1Ev
 571              		.thumb_set _ZN11ArpeggiatorD1Ev,_ZN11ArpeggiatorD2Ev
 572              		.section	.text._Z18InitializeHardwarev,"ax",%progbits
 573              		.align	1
 574              		.global	_Z18InitializeHardwarev
 575              		.syntax unified
 576              		.thumb
 577              		.thumb_func
 579              	_Z18InitializeHardwarev:
 580              	.LFB5343:
  45:Interface.cpp ****     // Initialize Daisy Seed hardware
 581              		.loc 16 45 27 is_stmt 1 view -0
 582              		.cfi_startproc
 583              		@ args = 0, pretend = 0, frame = 0
 584              		@ frame_needed = 0, uses_anonymous_args = 0
  47:Interface.cpp ****     hw.Init();
ARM GAS  /var/folders/9s/8rp0_f2s1n31qbztm3b5_fdh0000gn/T//cc1V9ehO.s 			page 38


 585              		.loc 16 47 5 view .LVU127
  45:Interface.cpp ****     // Initialize Daisy Seed hardware
 586              		.loc 16 45 27 is_stmt 0 view .LVU128
 587 0000 10B5     		push	{r4, lr}
 588              		.cfi_def_cfa_offset 8
 589              		.cfi_offset 4, -8
 590              		.cfi_offset 14, -4
  47:Interface.cpp ****     hw.Init();
 591              		.loc 16 47 17 view .LVU129
 592 0002 0D48     		ldr	r0, .L26
 593 0004 FFF7FEFF 		bl	_ZN5daisy9DaisySeed9ConfigureEv
 594              	.LVL31:
  48:Interface.cpp ****     hw.SetAudioBlockSize(BLOCK_SIZE);
 595              		.loc 16 48 5 is_stmt 1 view .LVU130
  48:Interface.cpp ****     hw.SetAudioBlockSize(BLOCK_SIZE);
 596              		.loc 16 48 12 is_stmt 0 view .LVU131
 597 0008 0021     		movs	r1, #0
 598 000a 0B48     		ldr	r0, .L26
 599 000c FFF7FEFF 		bl	_ZN5daisy9DaisySeed4InitEb
 600              	.LVL32:
  49:Interface.cpp ****     sample_rate = hw.AudioSampleRate();
 601              		.loc 16 49 5 is_stmt 1 view .LVU132
  49:Interface.cpp ****     sample_rate = hw.AudioSampleRate();
 602              		.loc 16 49 25 is_stmt 0 view .LVU133
 603 0010 1021     		movs	r1, #16
 604 0012 0948     		ldr	r0, .L26
 605 0014 FFF7FEFF 		bl	_ZN5daisy9DaisySeed17SetAudioBlockSizeEj
 606              	.LVL33:
  50:Interface.cpp ****     hw.SetAudioSampleRate(SaiHandle::Config::SampleRate::SAI_48KHZ); // Using 48kHz now
 607              		.loc 16 50 5 is_stmt 1 view .LVU134
  50:Interface.cpp ****     hw.SetAudioSampleRate(SaiHandle::Config::SampleRate::SAI_48KHZ); // Using 48kHz now
 608              		.loc 16 50 17 is_stmt 0 view .LVU135
 609 0018 084C     		ldr	r4, .L26+4
  50:Interface.cpp ****     hw.SetAudioSampleRate(SaiHandle::Config::SampleRate::SAI_48KHZ); // Using 48kHz now
 610              		.loc 16 50 37 view .LVU136
 611 001a 0748     		ldr	r0, .L26
 612 001c FFF7FEFF 		bl	_ZN5daisy9DaisySeed15AudioSampleRateEv
 613              	.LVL34:
  51:Interface.cpp ****     sample_rate = hw.AudioSampleRate(); // Update sample_rate after setting it
 614              		.loc 16 51 26 view .LVU137
 615 0020 0321     		movs	r1, #3
 616 0022 0548     		ldr	r0, .L26
  50:Interface.cpp ****     hw.SetAudioSampleRate(SaiHandle::Config::SampleRate::SAI_48KHZ); // Using 48kHz now
 617              		.loc 16 50 17 view .LVU138
 618 0024 84ED000A 		vstr.32	s0, [r4]
  51:Interface.cpp ****     sample_rate = hw.AudioSampleRate(); // Update sample_rate after setting it
 619              		.loc 16 51 5 is_stmt 1 view .LVU139
  51:Interface.cpp ****     sample_rate = hw.AudioSampleRate(); // Update sample_rate after setting it
 620              		.loc 16 51 26 is_stmt 0 view .LVU140
 621 0028 FFF7FEFF 		bl	_ZN5daisy9DaisySeed18SetAudioSampleRateENS_9SaiHandle6Config10SampleRateE
 622              	.LVL35:
  52:Interface.cpp **** }
 623              		.loc 16 52 5 is_stmt 1 view .LVU141
  52:Interface.cpp **** }
 624              		.loc 16 52 37 is_stmt 0 view .LVU142
 625 002c 0248     		ldr	r0, .L26
 626 002e FFF7FEFF 		bl	_ZN5daisy9DaisySeed15AudioSampleRateEv
ARM GAS  /var/folders/9s/8rp0_f2s1n31qbztm3b5_fdh0000gn/T//cc1V9ehO.s 			page 39


 627              	.LVL36:
  52:Interface.cpp **** }
 628              		.loc 16 52 17 view .LVU143
 629 0032 84ED000A 		vstr.32	s0, [r4]
  53:Interface.cpp **** 
 630              		.loc 16 53 1 view .LVU144
 631 0036 10BD     		pop	{r4, pc}
 632              	.L27:
 633              		.align	2
 634              	.L26:
 635 0038 00000000 		.word	.LANCHOR2
 636 003c 00000000 		.word	.LANCHOR3
 637              		.cfi_endproc
 638              	.LFE5343:
 640              		.section	.text._Z18InitializeControlsv,"ax",%progbits
 641              		.align	1
 642              		.global	_Z18InitializeControlsv
 643              		.syntax unified
 644              		.thumb
 645              		.thumb_func
 647              	_Z18InitializeControlsv:
 648              	.LFB5344:
  55:Interface.cpp ****     // --- Configure ADCs (12 Channels) ---
 649              		.loc 16 55 27 is_stmt 1 view -0
 650              		.cfi_startproc
 651              		@ args = 0, pretend = 0, frame = 256
 652              		@ frame_needed = 0, uses_anonymous_args = 0
  57:Interface.cpp ****     adc_config[0].InitSingle(hw.GetPin(15)); // ADC 0: Delay Time
 653              		.loc 16 57 5 view .LVU146
  58:Interface.cpp ****     adc_config[1].InitSingle(hw.GetPin(16)); // ADC 1: Delay Mix & Feedback
 654              		.loc 16 58 5 view .LVU147
  55:Interface.cpp ****     // --- Configure ADCs (12 Channels) ---
 655              		.loc 16 55 27 is_stmt 0 view .LVU148
 656 0000 30B5     		push	{r4, r5, lr}
 657              		.cfi_def_cfa_offset 12
 658              		.cfi_offset 4, -12
 659              		.cfi_offset 5, -8
 660              		.cfi_offset 14, -4
 661 0002 2DED028B 		vpush.64	{d8}
 662              		.cfi_def_cfa_offset 20
 663              		.cfi_offset 80, -20
 664              		.cfi_offset 81, -16
 665 0006 C1B0     		sub	sp, sp, #260
 666              		.cfi_def_cfa_offset 280
  58:Interface.cpp ****     adc_config[1].InitSingle(hw.GetPin(16)); // ADC 1: Delay Mix & Feedback
 667              		.loc 16 58 29 view .LVU149
 668 0008 0F20     		movs	r0, #15
 669 000a FFF7FEFF 		bl	_ZN5daisy9DaisySeed6GetPinEh
 670              	.LVL37:
  70:Interface.cpp ****     hw.adc.Start();
 671              		.loc 16 70 16 view .LVU150
 672 000e 9D4C     		ldr	r4, .L29
  58:Interface.cpp ****     adc_config[1].InitSingle(hw.GetPin(16)); // ADC 1: Delay Mix & Feedback
 673              		.loc 16 58 29 view .LVU151
 674 0010 ADF80000 		strh	r0, [sp]	@ movhi
 675 0014 0DA8     		add	r0, sp, #52
 676 0016 0099     		ldr	r1, [sp]
ARM GAS  /var/folders/9s/8rp0_f2s1n31qbztm3b5_fdh0000gn/T//cc1V9ehO.s 			page 40


 677 0018 FFF7FEFF 		bl	_ZN5daisy16AdcChannelConfig10InitSingleE12dsy_gpio_pin
 678              	.LVL38:
  59:Interface.cpp ****     adc_config[2].InitSingle(hw.GetPin(17)); // ADC 2: Envelope Release
 679              		.loc 16 59 5 is_stmt 1 view .LVU152
  59:Interface.cpp ****     adc_config[2].InitSingle(hw.GetPin(17)); // ADC 2: Envelope Release
 680              		.loc 16 59 29 is_stmt 0 view .LVU153
 681 001c 1020     		movs	r0, #16
 682 001e FFF7FEFF 		bl	_ZN5daisy9DaisySeed6GetPinEh
 683              	.LVL39:
 684 0022 ADF80400 		strh	r0, [sp, #4]	@ movhi
 685 0026 0199     		ldr	r1, [sp, #4]
 686 0028 0DF14500 		add	r0, sp, #69
 687 002c FFF7FEFF 		bl	_ZN5daisy16AdcChannelConfig10InitSingleE12dsy_gpio_pin
 688              	.LVL40:
  60:Interface.cpp ****     adc_config[3].InitSingle(hw.GetPin(18)); // ADC 3: Envelope Attack
 689              		.loc 16 60 5 is_stmt 1 view .LVU154
  60:Interface.cpp ****     adc_config[3].InitSingle(hw.GetPin(18)); // ADC 3: Envelope Attack
 690              		.loc 16 60 29 is_stmt 0 view .LVU155
 691 0030 1120     		movs	r0, #17
 692 0032 FFF7FEFF 		bl	_ZN5daisy9DaisySeed6GetPinEh
 693              	.LVL41:
 694 0036 ADF80800 		strh	r0, [sp, #8]	@ movhi
 695 003a 0299     		ldr	r1, [sp, #8]
 696 003c 0DF15600 		add	r0, sp, #86
 697 0040 FFF7FEFF 		bl	_ZN5daisy16AdcChannelConfig10InitSingleE12dsy_gpio_pin
 698              	.LVL42:
  61:Interface.cpp ****     adc_config[4].InitSingle(hw.GetPin(19)); // ADC 4: Plaits Timbre
 699              		.loc 16 61 5 is_stmt 1 view .LVU156
  61:Interface.cpp ****     adc_config[4].InitSingle(hw.GetPin(19)); // ADC 4: Plaits Timbre
 700              		.loc 16 61 29 is_stmt 0 view .LVU157
 701 0044 1220     		movs	r0, #18
 702 0046 FFF7FEFF 		bl	_ZN5daisy9DaisySeed6GetPinEh
 703              	.LVL43:
 704 004a ADF80C00 		strh	r0, [sp, #12]	@ movhi
 705 004e 0399     		ldr	r1, [sp, #12]
 706 0050 0DF16700 		add	r0, sp, #103
 707 0054 FFF7FEFF 		bl	_ZN5daisy16AdcChannelConfig10InitSingleE12dsy_gpio_pin
 708              	.LVL44:
  62:Interface.cpp ****     adc_config[5].InitSingle(hw.GetPin(20)); // ADC 5: Plaits Harmonics
 709              		.loc 16 62 5 is_stmt 1 view .LVU158
  62:Interface.cpp ****     adc_config[5].InitSingle(hw.GetPin(20)); // ADC 5: Plaits Harmonics
 710              		.loc 16 62 29 is_stmt 0 view .LVU159
 711 0058 1320     		movs	r0, #19
 712 005a FFF7FEFF 		bl	_ZN5daisy9DaisySeed6GetPinEh
 713              	.LVL45:
 714 005e ADF81000 		strh	r0, [sp, #16]	@ movhi
 715 0062 0499     		ldr	r1, [sp, #16]
 716 0064 1EA8     		add	r0, sp, #120
 717 0066 FFF7FEFF 		bl	_ZN5daisy16AdcChannelConfig10InitSingleE12dsy_gpio_pin
 718              	.LVL46:
  63:Interface.cpp ****     adc_config[6].InitSingle(hw.GetPin(21)); // ADC 6: Plaits Morph
 719              		.loc 16 63 5 is_stmt 1 view .LVU160
  63:Interface.cpp ****     adc_config[6].InitSingle(hw.GetPin(21)); // ADC 6: Plaits Morph
 720              		.loc 16 63 29 is_stmt 0 view .LVU161
 721 006a 1420     		movs	r0, #20
 722 006c FFF7FEFF 		bl	_ZN5daisy9DaisySeed6GetPinEh
 723              	.LVL47:
ARM GAS  /var/folders/9s/8rp0_f2s1n31qbztm3b5_fdh0000gn/T//cc1V9ehO.s 			page 41


 724 0070 ADF81400 		strh	r0, [sp, #20]	@ movhi
 725 0074 0599     		ldr	r1, [sp, #20]
 726 0076 0DF18900 		add	r0, sp, #137
 727 007a FFF7FEFF 		bl	_ZN5daisy16AdcChannelConfig10InitSingleE12dsy_gpio_pin
 728              	.LVL48:
  64:Interface.cpp ****     adc_config[7].InitSingle(hw.GetPin(22)); // ADC 7: Plaits Pitch
 729              		.loc 16 64 5 is_stmt 1 view .LVU162
  64:Interface.cpp ****     adc_config[7].InitSingle(hw.GetPin(22)); // ADC 7: Plaits Pitch
 730              		.loc 16 64 29 is_stmt 0 view .LVU163
 731 007e 1520     		movs	r0, #21
 732 0080 FFF7FEFF 		bl	_ZN5daisy9DaisySeed6GetPinEh
 733              	.LVL49:
 734 0084 ADF81800 		strh	r0, [sp, #24]	@ movhi
 735 0088 0699     		ldr	r1, [sp, #24]
 736 008a 0DF19A00 		add	r0, sp, #154
 737 008e FFF7FEFF 		bl	_ZN5daisy16AdcChannelConfig10InitSingleE12dsy_gpio_pin
 738              	.LVL50:
  65:Interface.cpp ****     adc_config[8].InitSingle(hw.GetPin(23)); // ADC 8: Arpeggiator Toggle Pad
 739              		.loc 16 65 5 is_stmt 1 view .LVU164
  65:Interface.cpp ****     adc_config[8].InitSingle(hw.GetPin(23)); // ADC 8: Arpeggiator Toggle Pad
 740              		.loc 16 65 29 is_stmt 0 view .LVU165
 741 0092 1620     		movs	r0, #22
 742 0094 FFF7FEFF 		bl	_ZN5daisy9DaisySeed6GetPinEh
 743              	.LVL51:
 744 0098 ADF81C00 		strh	r0, [sp, #28]	@ movhi
 745 009c 0799     		ldr	r1, [sp, #28]
 746 009e 0DF1AB00 		add	r0, sp, #171
 747 00a2 FFF7FEFF 		bl	_ZN5daisy16AdcChannelConfig10InitSingleE12dsy_gpio_pin
 748              	.LVL52:
  66:Interface.cpp ****     adc_config[9].InitSingle(hw.GetPin(24)); // ADC 9: Model Select Previous Pad
 749              		.loc 16 66 5 is_stmt 1 view .LVU166
  66:Interface.cpp ****     adc_config[9].InitSingle(hw.GetPin(24)); // ADC 9: Model Select Previous Pad
 750              		.loc 16 66 29 is_stmt 0 view .LVU167
 751 00a6 1720     		movs	r0, #23
 752 00a8 FFF7FEFF 		bl	_ZN5daisy9DaisySeed6GetPinEh
 753              	.LVL53:
 754 00ac ADF82000 		strh	r0, [sp, #32]	@ movhi
 755 00b0 0899     		ldr	r1, [sp, #32]
 756 00b2 2FA8     		add	r0, sp, #188
 757 00b4 FFF7FEFF 		bl	_ZN5daisy16AdcChannelConfig10InitSingleE12dsy_gpio_pin
 758              	.LVL54:
  67:Interface.cpp ****     adc_config[10].InitSingle(hw.GetPin(25)); // ADC 10: Model Select Next Pad
 759              		.loc 16 67 5 is_stmt 1 view .LVU168
  67:Interface.cpp ****     adc_config[10].InitSingle(hw.GetPin(25)); // ADC 10: Model Select Next Pad
 760              		.loc 16 67 29 is_stmt 0 view .LVU169
 761 00b8 1820     		movs	r0, #24
 762 00ba FFF7FEFF 		bl	_ZN5daisy9DaisySeed6GetPinEh
 763              	.LVL55:
 764 00be ADF82400 		strh	r0, [sp, #36]	@ movhi
 765 00c2 0999     		ldr	r1, [sp, #36]
 766 00c4 0DF1CD00 		add	r0, sp, #205
 767 00c8 FFF7FEFF 		bl	_ZN5daisy16AdcChannelConfig10InitSingleE12dsy_gpio_pin
 768              	.LVL56:
  68:Interface.cpp ****     adc_config[11].InitSingle(hw.GetPin(28)); // ADC 11: Mod Wheel Control
 769              		.loc 16 68 5 is_stmt 1 view .LVU170
  68:Interface.cpp ****     adc_config[11].InitSingle(hw.GetPin(28)); // ADC 11: Mod Wheel Control
 770              		.loc 16 68 30 is_stmt 0 view .LVU171
ARM GAS  /var/folders/9s/8rp0_f2s1n31qbztm3b5_fdh0000gn/T//cc1V9ehO.s 			page 42


 771 00cc 1920     		movs	r0, #25
 772 00ce FFF7FEFF 		bl	_ZN5daisy9DaisySeed6GetPinEh
 773              	.LVL57:
 774 00d2 ADF82800 		strh	r0, [sp, #40]	@ movhi
 775 00d6 0A99     		ldr	r1, [sp, #40]
 776 00d8 0DF1DE00 		add	r0, sp, #222
 777 00dc FFF7FEFF 		bl	_ZN5daisy16AdcChannelConfig10InitSingleE12dsy_gpio_pin
 778              	.LVL58:
  69:Interface.cpp ****     hw.adc.Init(adc_config, 12); // Initialize 12 channels
 779              		.loc 16 69 5 is_stmt 1 view .LVU172
  69:Interface.cpp ****     hw.adc.Init(adc_config, 12); // Initialize 12 channels
 780              		.loc 16 69 30 is_stmt 0 view .LVU173
 781 00e0 1C20     		movs	r0, #28
 782 00e2 FFF7FEFF 		bl	_ZN5daisy9DaisySeed6GetPinEh
 783              	.LVL59:
 784 00e6 ADF82C00 		strh	r0, [sp, #44]	@ movhi
 785 00ea 0B99     		ldr	r1, [sp, #44]
 786 00ec 0DF1EF00 		add	r0, sp, #239
 787 00f0 FFF7FEFF 		bl	_ZN5daisy16AdcChannelConfig10InitSingleE12dsy_gpio_pin
 788              	.LVL60:
  70:Interface.cpp ****     hw.adc.Start();
 789              		.loc 16 70 5 is_stmt 1 view .LVU174
  70:Interface.cpp ****     hw.adc.Start();
 790              		.loc 16 70 16 is_stmt 0 view .LVU175
 791 00f4 0423     		movs	r3, #4
 792 00f6 0C22     		movs	r2, #12
 793 00f8 0DA9     		add	r1, sp, #52
 794 00fa 2046     		mov	r0, r4
  74:Interface.cpp ****     delay_mix_feedback_knob.Init(hw.adc.GetPtr(1), sample_rate); // ADC 1
 795              		.loc 16 74 25 view .LVU176
 796 00fc 624D     		ldr	r5, .L29+4
  70:Interface.cpp ****     hw.adc.Start();
 797              		.loc 16 70 16 view .LVU177
 798 00fe FFF7FEFF 		bl	_ZN5daisy9AdcHandle4InitEPNS_16AdcChannelConfigEjNS0_12OverSamplingE
 799              	.LVL61:
  71:Interface.cpp **** 
 800              		.loc 16 71 5 is_stmt 1 view .LVU178
  71:Interface.cpp **** 
 801              		.loc 16 71 17 is_stmt 0 view .LVU179
 802 0102 2046     		mov	r0, r4
 803 0104 FFF7FEFF 		bl	_ZN5daisy9AdcHandle5StartEv
 804              	.LVL62:
  74:Interface.cpp ****     delay_mix_feedback_knob.Init(hw.adc.GetPtr(1), sample_rate); // ADC 1
 805              		.loc 16 74 5 is_stmt 1 view .LVU180
  74:Interface.cpp ****     delay_mix_feedback_knob.Init(hw.adc.GetPtr(1), sample_rate); // ADC 1
 806              		.loc 16 74 25 is_stmt 0 view .LVU181
 807 0108 0021     		movs	r1, #0
 808 010a 2046     		mov	r0, r4
 809 010c 9FED5F8A 		vldr.32	s16, .L29+8
 810 0110 FFF7FEFF 		bl	_ZNK5daisy9AdcHandle6GetPtrEh
 811              	.LVL63:
 812 0114 0023     		movs	r3, #0
 813 0116 F0EE480A 		vmov.f32	s1, s16
 814 011a 95ED000A 		vldr.32	s0, [r5]
 815 011e 1A46     		mov	r2, r3
 816 0120 0146     		mov	r1, r0
 817 0122 5B48     		ldr	r0, .L29+12
ARM GAS  /var/folders/9s/8rp0_f2s1n31qbztm3b5_fdh0000gn/T//cc1V9ehO.s 			page 43


 818 0124 FFF7FEFF 		bl	_ZN5daisy13AnalogControl4InitEPtfbbf
 819              	.LVL64:
  75:Interface.cpp ****     env_release_knob.Init(hw.adc.GetPtr(2), sample_rate);       // ADC 2
 820              		.loc 16 75 5 is_stmt 1 view .LVU182
  75:Interface.cpp ****     env_release_knob.Init(hw.adc.GetPtr(2), sample_rate);       // ADC 2
 821              		.loc 16 75 33 is_stmt 0 view .LVU183
 822 0128 0121     		movs	r1, #1
 823 012a 2046     		mov	r0, r4
 824 012c FFF7FEFF 		bl	_ZNK5daisy9AdcHandle6GetPtrEh
 825              	.LVL65:
 826 0130 0023     		movs	r3, #0
 827 0132 F0EE480A 		vmov.f32	s1, s16
 828 0136 95ED000A 		vldr.32	s0, [r5]
 829 013a 1A46     		mov	r2, r3
 830 013c 0146     		mov	r1, r0
 831 013e 5548     		ldr	r0, .L29+16
 832 0140 FFF7FEFF 		bl	_ZN5daisy13AnalogControl4InitEPtfbbf
 833              	.LVL66:
  76:Interface.cpp ****     env_attack_knob.Init(hw.adc.GetPtr(3), sample_rate);        // ADC 3
 834              		.loc 16 76 5 is_stmt 1 view .LVU184
  76:Interface.cpp ****     env_attack_knob.Init(hw.adc.GetPtr(3), sample_rate);        // ADC 3
 835              		.loc 16 76 26 is_stmt 0 view .LVU185
 836 0144 0221     		movs	r1, #2
 837 0146 2046     		mov	r0, r4
 838 0148 FFF7FEFF 		bl	_ZNK5daisy9AdcHandle6GetPtrEh
 839              	.LVL67:
 840 014c 0023     		movs	r3, #0
 841 014e F0EE480A 		vmov.f32	s1, s16
 842 0152 95ED000A 		vldr.32	s0, [r5]
 843 0156 1A46     		mov	r2, r3
 844 0158 0146     		mov	r1, r0
 845 015a 4F48     		ldr	r0, .L29+20
 846 015c FFF7FEFF 		bl	_ZN5daisy13AnalogControl4InitEPtfbbf
 847              	.LVL68:
  77:Interface.cpp ****     timbre_knob.Init(hw.adc.GetPtr(4), sample_rate);            // ADC 4
 848              		.loc 16 77 5 is_stmt 1 view .LVU186
  77:Interface.cpp ****     timbre_knob.Init(hw.adc.GetPtr(4), sample_rate);            // ADC 4
 849              		.loc 16 77 25 is_stmt 0 view .LVU187
 850 0160 0321     		movs	r1, #3
 851 0162 2046     		mov	r0, r4
 852 0164 FFF7FEFF 		bl	_ZNK5daisy9AdcHandle6GetPtrEh
 853              	.LVL69:
 854 0168 0023     		movs	r3, #0
 855 016a F0EE480A 		vmov.f32	s1, s16
 856 016e 95ED000A 		vldr.32	s0, [r5]
 857 0172 1A46     		mov	r2, r3
 858 0174 0146     		mov	r1, r0
 859 0176 4948     		ldr	r0, .L29+24
 860 0178 FFF7FEFF 		bl	_ZN5daisy13AnalogControl4InitEPtfbbf
 861              	.LVL70:
  78:Interface.cpp ****     harmonics_knob.Init(hw.adc.GetPtr(5), sample_rate);         // ADC 5
 862              		.loc 16 78 5 is_stmt 1 view .LVU188
  78:Interface.cpp ****     harmonics_knob.Init(hw.adc.GetPtr(5), sample_rate);         // ADC 5
 863              		.loc 16 78 21 is_stmt 0 view .LVU189
 864 017c 0421     		movs	r1, #4
 865 017e 2046     		mov	r0, r4
 866 0180 FFF7FEFF 		bl	_ZNK5daisy9AdcHandle6GetPtrEh
ARM GAS  /var/folders/9s/8rp0_f2s1n31qbztm3b5_fdh0000gn/T//cc1V9ehO.s 			page 44


 867              	.LVL71:
 868 0184 0023     		movs	r3, #0
 869 0186 F0EE480A 		vmov.f32	s1, s16
 870 018a 95ED000A 		vldr.32	s0, [r5]
 871 018e 1A46     		mov	r2, r3
 872 0190 0146     		mov	r1, r0
 873 0192 4348     		ldr	r0, .L29+28
 874 0194 FFF7FEFF 		bl	_ZN5daisy13AnalogControl4InitEPtfbbf
 875              	.LVL72:
  79:Interface.cpp ****     morph_knob.Init(hw.adc.GetPtr(6), sample_rate);             // ADC 6
 876              		.loc 16 79 5 is_stmt 1 view .LVU190
  79:Interface.cpp ****     morph_knob.Init(hw.adc.GetPtr(6), sample_rate);             // ADC 6
 877              		.loc 16 79 24 is_stmt 0 view .LVU191
 878 0198 0521     		movs	r1, #5
 879 019a 2046     		mov	r0, r4
 880 019c FFF7FEFF 		bl	_ZNK5daisy9AdcHandle6GetPtrEh
 881              	.LVL73:
 882 01a0 0023     		movs	r3, #0
 883 01a2 F0EE480A 		vmov.f32	s1, s16
 884 01a6 95ED000A 		vldr.32	s0, [r5]
 885 01aa 1A46     		mov	r2, r3
 886 01ac 0146     		mov	r1, r0
 887 01ae 3D48     		ldr	r0, .L29+32
 888 01b0 FFF7FEFF 		bl	_ZN5daisy13AnalogControl4InitEPtfbbf
 889              	.LVL74:
  80:Interface.cpp ****     pitch_knob.Init(hw.adc.GetPtr(7), sample_rate);             // ADC 7
 890              		.loc 16 80 5 is_stmt 1 view .LVU192
  80:Interface.cpp ****     pitch_knob.Init(hw.adc.GetPtr(7), sample_rate);             // ADC 7
 891              		.loc 16 80 20 is_stmt 0 view .LVU193
 892 01b4 0621     		movs	r1, #6
 893 01b6 2046     		mov	r0, r4
 894 01b8 FFF7FEFF 		bl	_ZNK5daisy9AdcHandle6GetPtrEh
 895              	.LVL75:
 896 01bc 0023     		movs	r3, #0
 897 01be F0EE480A 		vmov.f32	s1, s16
 898 01c2 95ED000A 		vldr.32	s0, [r5]
 899 01c6 1A46     		mov	r2, r3
 900 01c8 0146     		mov	r1, r0
 901 01ca 3748     		ldr	r0, .L29+36
 902 01cc FFF7FEFF 		bl	_ZN5daisy13AnalogControl4InitEPtfbbf
 903              	.LVL76:
  81:Interface.cpp ****     arp_pad.Init(hw.adc.GetPtr(8), sample_rate);               // ADC 8
 904              		.loc 16 81 5 is_stmt 1 view .LVU194
  81:Interface.cpp ****     arp_pad.Init(hw.adc.GetPtr(8), sample_rate);               // ADC 8
 905              		.loc 16 81 20 is_stmt 0 view .LVU195
 906 01d0 0721     		movs	r1, #7
 907 01d2 2046     		mov	r0, r4
 908 01d4 FFF7FEFF 		bl	_ZNK5daisy9AdcHandle6GetPtrEh
 909              	.LVL77:
 910 01d8 0023     		movs	r3, #0
 911 01da F0EE480A 		vmov.f32	s1, s16
 912 01de 95ED000A 		vldr.32	s0, [r5]
 913 01e2 1A46     		mov	r2, r3
 914 01e4 0146     		mov	r1, r0
 915 01e6 3148     		ldr	r0, .L29+40
 916 01e8 FFF7FEFF 		bl	_ZN5daisy13AnalogControl4InitEPtfbbf
 917              	.LVL78:
ARM GAS  /var/folders/9s/8rp0_f2s1n31qbztm3b5_fdh0000gn/T//cc1V9ehO.s 			page 45


  82:Interface.cpp ****     model_prev_pad.Init(hw.adc.GetPtr(9), sample_rate);        // ADC 9
 918              		.loc 16 82 5 is_stmt 1 view .LVU196
  82:Interface.cpp ****     model_prev_pad.Init(hw.adc.GetPtr(9), sample_rate);        // ADC 9
 919              		.loc 16 82 17 is_stmt 0 view .LVU197
 920 01ec 0821     		movs	r1, #8
 921 01ee 2046     		mov	r0, r4
 922 01f0 FFF7FEFF 		bl	_ZNK5daisy9AdcHandle6GetPtrEh
 923              	.LVL79:
 924 01f4 0023     		movs	r3, #0
 925 01f6 F0EE480A 		vmov.f32	s1, s16
 926 01fa 95ED000A 		vldr.32	s0, [r5]
 927 01fe 1A46     		mov	r2, r3
 928 0200 0146     		mov	r1, r0
 929 0202 2B48     		ldr	r0, .L29+44
 930 0204 FFF7FEFF 		bl	_ZN5daisy13AnalogControl4InitEPtfbbf
 931              	.LVL80:
  83:Interface.cpp ****     model_next_pad.Init(hw.adc.GetPtr(10), sample_rate);       // ADC 10
 932              		.loc 16 83 5 is_stmt 1 view .LVU198
  83:Interface.cpp ****     model_next_pad.Init(hw.adc.GetPtr(10), sample_rate);       // ADC 10
 933              		.loc 16 83 24 is_stmt 0 view .LVU199
 934 0208 0921     		movs	r1, #9
 935 020a 2046     		mov	r0, r4
 936 020c FFF7FEFF 		bl	_ZNK5daisy9AdcHandle6GetPtrEh
 937              	.LVL81:
 938 0210 0023     		movs	r3, #0
 939 0212 F0EE480A 		vmov.f32	s1, s16
 940 0216 95ED000A 		vldr.32	s0, [r5]
 941 021a 1A46     		mov	r2, r3
 942 021c 0146     		mov	r1, r0
 943 021e 2548     		ldr	r0, .L29+48
 944 0220 FFF7FEFF 		bl	_ZN5daisy13AnalogControl4InitEPtfbbf
 945              	.LVL82:
  84:Interface.cpp ****     mod_wheel.Init(hw.adc.GetPtr(11), sample_rate);            // ADC 11
 946              		.loc 16 84 5 is_stmt 1 view .LVU200
  84:Interface.cpp ****     mod_wheel.Init(hw.adc.GetPtr(11), sample_rate);            // ADC 11
 947              		.loc 16 84 24 is_stmt 0 view .LVU201
 948 0224 0A21     		movs	r1, #10
 949 0226 2046     		mov	r0, r4
 950 0228 FFF7FEFF 		bl	_ZNK5daisy9AdcHandle6GetPtrEh
 951              	.LVL83:
 952 022c 0023     		movs	r3, #0
 953 022e F0EE480A 		vmov.f32	s1, s16
 954 0232 95ED000A 		vldr.32	s0, [r5]
 955 0236 1A46     		mov	r2, r3
 956 0238 0146     		mov	r1, r0
 957 023a 1F48     		ldr	r0, .L29+52
 958 023c FFF7FEFF 		bl	_ZN5daisy13AnalogControl4InitEPtfbbf
 959              	.LVL84:
  85:Interface.cpp **** 
 960              		.loc 16 85 5 is_stmt 1 view .LVU202
  85:Interface.cpp **** 
 961              		.loc 16 85 19 is_stmt 0 view .LVU203
 962 0240 0B21     		movs	r1, #11
 963 0242 2046     		mov	r0, r4
 964 0244 FFF7FEFF 		bl	_ZNK5daisy9AdcHandle6GetPtrEh
 965              	.LVL85:
 966 0248 0023     		movs	r3, #0
ARM GAS  /var/folders/9s/8rp0_f2s1n31qbztm3b5_fdh0000gn/T//cc1V9ehO.s 			page 46


 967 024a F0EE480A 		vmov.f32	s1, s16
 968 024e 0146     		mov	r1, r0
 969 0250 1A46     		mov	r2, r3
 970 0252 95ED000A 		vldr.32	s0, [r5]
 971 0256 1948     		ldr	r0, .L29+56
 972 0258 FFF7FEFF 		bl	_ZN5daisy13AnalogControl4InitEPtfbbf
 973              	.LVL86:
  88:Interface.cpp **** }
 974              		.loc 16 88 5 is_stmt 1 view .LVU204
  88:Interface.cpp **** }
 975              		.loc 16 88 16 is_stmt 0 view .LVU205
 976 025c 1B20     		movs	r0, #27
 977 025e FFF7FEFF 		bl	_ZN5daisy9DaisySeed6GetPinEh
 978              	.LVL87:
 979 0262 95ED000A 		vldr.32	s0, [r5]
 980 0266 DFED167A 		vldr.32	s15, .L29+60
 981 026a ADF83000 		strh	r0, [sp, #48]	@ movhi
 982 026e 80EE270A 		vdiv.f32	s0, s0, s15
 983 0272 0C99     		ldr	r1, [sp, #48]
 984 0274 1348     		ldr	r0, .L29+64
 985 0276 FFF7FEFF 		bl	_ZN5daisy6Switch4InitE12dsy_gpio_pinf
 986              	.LVL88:
  89:Interface.cpp **** 
 987              		.loc 16 89 1 view .LVU206
 988 027a 41B0     		add	sp, sp, #260
 989              		.cfi_def_cfa_offset 20
 990              		@ sp needed
 991 027c BDEC028B 		vldm	sp!, {d8}
 992              		.cfi_restore 80
 993              		.cfi_restore 81
 994              		.cfi_def_cfa_offset 12
 995 0280 30BD     		pop	{r4, r5, pc}
 996              	.L30:
 997 0282 00BF     		.align	2
 998              	.L29:
 999 0284 18000000 		.word	.LANCHOR2+24
 1000 0288 00000000 		.word	.LANCHOR3
 1001 028c 6F12033B 		.word	990057071
 1002 0290 00000000 		.word	.LANCHOR4
 1003 0294 00000000 		.word	.LANCHOR5
 1004 0298 00000000 		.word	.LANCHOR6
 1005 029c 00000000 		.word	.LANCHOR7
 1006 02a0 00000000 		.word	.LANCHOR8
 1007 02a4 00000000 		.word	.LANCHOR9
 1008 02a8 00000000 		.word	.LANCHOR10
 1009 02ac 00000000 		.word	.LANCHOR11
 1010 02b0 00000000 		.word	.LANCHOR12
 1011 02b4 00000000 		.word	.LANCHOR13
 1012 02b8 00000000 		.word	.LANCHOR14
 1013 02bc 00000000 		.word	.LANCHOR15
 1014 02c0 00004042 		.word	1111490560
 1015 02c4 00000000 		.word	.LANCHOR16
 1016              		.cfi_endproc
 1017              	.LFE5344:
 1019              		.section	.text._Z21InitializeTouchSensorv,"ax",%progbits
 1020              		.align	1
 1021              		.global	_Z21InitializeTouchSensorv
ARM GAS  /var/folders/9s/8rp0_f2s1n31qbztm3b5_fdh0000gn/T//cc1V9ehO.s 			page 47


 1022              		.syntax unified
 1023              		.thumb
 1024              		.thumb_func
 1026              	_Z21InitializeTouchSensorv:
 1027              	.LFB5345:
  91:Interface.cpp ****     // --- Initialize MPR121 ---
 1028              		.loc 16 91 30 is_stmt 1 view -0
 1029              		.cfi_startproc
 1030              		@ args = 0, pretend = 0, frame = 24
 1031              		@ frame_needed = 0, uses_anonymous_args = 0
  93:Interface.cpp ****     touch_config.Defaults();
 1032              		.loc 16 93 5 view .LVU208
  91:Interface.cpp ****     // --- Initialize MPR121 ---
 1033              		.loc 16 91 30 is_stmt 0 view .LVU209
 1034 0000 7FB5     		push	{r0, r1, r2, r3, r4, r5, r6, lr}
 1035              		.cfi_def_cfa_offset 32
 1036              		.cfi_offset 14, -4
 1037              	.LVL89:
 1038              	.LBB458:
 1039              	.LBI458:
  58:mpr121_daisy.h **** 
  59:mpr121_daisy.h ****     struct Config
 1040              		.loc 8 59 12 is_stmt 1 view .LVU210
 1041              	.LBB459:
 1042              	.LBI459:
 1043              		.file 19 "lib/libdaisy/src/per/i2c.h"
   1:lib/libdaisy/src/per/i2c.h **** #pragma once
   2:lib/libdaisy/src/per/i2c.h **** #include "daisy_core.h"
   3:lib/libdaisy/src/per/i2c.h **** 
   4:lib/libdaisy/src/per/i2c.h **** namespace daisy
   5:lib/libdaisy/src/per/i2c.h **** {
   6:lib/libdaisy/src/per/i2c.h **** /** A handle for interacting with an I2C peripheral. This is a dumb
   7:lib/libdaisy/src/per/i2c.h ****  *  gateway that internally points to one of the four I2C peripherals
   8:lib/libdaisy/src/per/i2c.h ****  *  after it was initialised. It can then be copied and passed around.
   9:lib/libdaisy/src/per/i2c.h ****  *  Use an I2CHandle like this:
  10:lib/libdaisy/src/per/i2c.h ****  *  
  11:lib/libdaisy/src/per/i2c.h ****  *      // setup the configuration
  12:lib/libdaisy/src/per/i2c.h ****  *      I2CHandle::Config i2c_conf;
  13:lib/libdaisy/src/per/i2c.h ****  *      i2c_conf.periph = I2CHandle::Config::Peripheral::I2C_1;
  14:lib/libdaisy/src/per/i2c.h ****  *      i2c_conf.speed  = I2CHandle::Config::Speed::I2C_400KHZ;
  15:lib/libdaisy/src/per/i2c.h ****  *      i2c_conf.mode   = I2CHandle::Config::Mode::Master;
  16:lib/libdaisy/src/per/i2c.h ****  *      i2c_conf.pin_config.scl  = {DSY_GPIOB, 8};
  17:lib/libdaisy/src/per/i2c.h ****  *      i2c_conf.pin_config.sda  = {DSY_GPIOB, 9};
  18:lib/libdaisy/src/per/i2c.h ****  *      // initialise the peripheral
  19:lib/libdaisy/src/per/i2c.h ****  *      I2CHandle i2c;
  20:lib/libdaisy/src/per/i2c.h ****  *      i2c.Init(i2c_conf);
  21:lib/libdaisy/src/per/i2c.h ****  *      // now i2c points to the corresponding peripheral and can be used.
  22:lib/libdaisy/src/per/i2c.h ****  *      i2c.TransmitBlocking( ... );
  23:lib/libdaisy/src/per/i2c.h ****  */
  24:lib/libdaisy/src/per/i2c.h **** class I2CHandle
  25:lib/libdaisy/src/per/i2c.h **** {
  26:lib/libdaisy/src/per/i2c.h ****   public:
  27:lib/libdaisy/src/per/i2c.h ****     /** Contains settings for initialising an I2C interface. */
  28:lib/libdaisy/src/per/i2c.h ****     struct Config
 1044              		.loc 19 28 12 view .LVU211
 1045              	.LBB460:
 1046 0002 1023     		movs	r3, #16
ARM GAS  /var/folders/9s/8rp0_f2s1n31qbztm3b5_fdh0000gn/T//cc1V9ehO.s 			page 48


 1047              	.LBE460:
 1048              	.LBE459:
 1049              	.LBE458:
 1050              	.LBB463:
 1051              	.LBB464:
  60:mpr121_daisy.h ****     {
  61:mpr121_daisy.h ****         I2CHandle::Config i2c_config;
  62:mpr121_daisy.h ****         uint8_t          i2c_address;
  63:mpr121_daisy.h **** 
  64:mpr121_daisy.h ****         void Defaults()
  65:mpr121_daisy.h ****         {
  66:mpr121_daisy.h ****             i2c_config.periph = I2CHandle::Config::Peripheral::I2C_1;
  67:mpr121_daisy.h ****             i2c_config.speed  = I2CHandle::Config::Speed::I2C_400KHZ;
 1052              		.loc 8 67 31 is_stmt 0 view .LVU212
 1053 0004 0122     		movs	r2, #1
 1054              	.LBE464:
 1055              	.LBE463:
  95:Interface.cpp ****         while(1) { hw.SetLed(true); System::Delay(50); hw.SetLed(false); System::Delay(50); }
 1056              		.loc 16 95 27 view .LVU213
 1057 0006 6946     		mov	r1, sp
 1058 0008 1548     		ldr	r0, .L34
 1059              	.LBB466:
 1060              	.LBB462:
 1061              	.LBB461:
 1062              		.loc 19 28 12 view .LVU214
 1063 000a 8DF81030 		strb	r3, [sp, #16]
 1064              	.LVL90:
 1065              		.loc 19 28 12 view .LVU215
 1066              	.LBE461:
 1067              	.LBE462:
 1068              	.LBE466:
  94:Interface.cpp ****     if (!touch_sensor.Init(touch_config)) {
 1069              		.loc 16 94 5 is_stmt 1 view .LVU216
 1070              	.LBB467:
 1071              	.LBI463:
  64:mpr121_daisy.h ****         {
 1072              		.loc 8 64 14 view .LVU217
 1073              	.LBB465:
  66:mpr121_daisy.h ****             i2c_config.speed  = I2CHandle::Config::Speed::I2C_400KHZ;
 1074              		.loc 8 66 13 view .LVU218
  66:mpr121_daisy.h ****             i2c_config.speed  = I2CHandle::Config::Speed::I2C_400KHZ;
 1075              		.loc 8 66 31 is_stmt 0 view .LVU219
 1076 000e 0023     		movs	r3, #0
  68:mpr121_daisy.h ****             i2c_config.mode   = I2CHandle::Config::Mode::I2C_MASTER;
 1077              		.loc 8 68 31 view .LVU220
 1078 0010 CDE90223 		strd	r2, r3, [sp, #8]
  66:mpr121_daisy.h ****             i2c_config.speed  = I2CHandle::Config::Speed::I2C_400KHZ;
 1079              		.loc 8 66 31 view .LVU221
 1080 0014 0093     		str	r3, [sp]
  67:mpr121_daisy.h ****             i2c_config.mode   = I2CHandle::Config::Mode::I2C_MASTER;
 1081              		.loc 8 67 13 is_stmt 1 view .LVU222
  69:mpr121_daisy.h ****             i2c_config.pin_config.scl = {DSY_GPIOB, 8};
 1082              		.loc 8 69 13 view .LVU223
 1083              		.loc 8 69 39 is_stmt 0 view .LVU224
 1084 0016 134B     		ldr	r3, .L34+4
 1085 0018 1A88     		ldrh	r2, [r3]	@ unaligned
  70:mpr121_daisy.h ****             i2c_config.pin_config.sda = {DSY_GPIOB, 9};
ARM GAS  /var/folders/9s/8rp0_f2s1n31qbztm3b5_fdh0000gn/T//cc1V9ehO.s 			page 49


 1086              		.loc 8 70 39 view .LVU225
 1087 001a 5B88     		ldrh	r3, [r3, #2]	@ unaligned
  69:mpr121_daisy.h ****             i2c_config.pin_config.scl = {DSY_GPIOB, 8};
 1088              		.loc 8 69 39 view .LVU226
 1089 001c ADF80420 		strh	r2, [sp, #4]	@ unaligned
 1090              		.loc 8 70 13 is_stmt 1 view .LVU227
 1091              		.loc 8 70 39 is_stmt 0 view .LVU228
 1092 0020 ADF80630 		strh	r3, [sp, #6]	@ unaligned
  71:mpr121_daisy.h ****             i2c_address               = MPR121_I2CADDR_DEFAULT;
 1093              		.loc 8 71 13 is_stmt 1 view .LVU229
 1094              		.loc 8 71 39 is_stmt 0 view .LVU230
 1095 0024 5A23     		movs	r3, #90
 1096 0026 8DF81430 		strb	r3, [sp, #20]
 1097              	.LVL91:
 1098              		.loc 8 71 39 view .LVU231
 1099              	.LBE465:
 1100              	.LBE467:
  95:Interface.cpp ****         while(1) { hw.SetLed(true); System::Delay(50); hw.SetLed(false); System::Delay(50); }
 1101              		.loc 16 95 5 is_stmt 1 view .LVU232
  95:Interface.cpp ****         while(1) { hw.SetLed(true); System::Delay(50); hw.SetLed(false); System::Delay(50); }
 1102              		.loc 16 95 27 is_stmt 0 view .LVU233
 1103 002a FFF7FEFF 		bl	_ZN6Mpr1214InitERKNS_6ConfigE
 1104              	.LVL92:
  95:Interface.cpp ****         while(1) { hw.SetLed(true); System::Delay(50); hw.SetLed(false); System::Delay(50); }
 1105              		.loc 16 95 5 view .LVU234
 1106 002e 70B9     		cbnz	r0, .L32
 1107              	.L33:
  96:Interface.cpp ****     }
 1108              		.loc 16 96 9 is_stmt 1 discriminator 1 view .LVU235
  96:Interface.cpp ****     }
 1109              		.loc 16 96 20 discriminator 1 view .LVU236
  96:Interface.cpp ****     }
 1110              		.loc 16 96 29 is_stmt 0 discriminator 1 view .LVU237
 1111 0030 0121     		movs	r1, #1
 1112 0032 0D48     		ldr	r0, .L34+8
 1113 0034 FFF7FEFF 		bl	_ZN5daisy9DaisySeed6SetLedEb
 1114              	.LVL93:
  96:Interface.cpp ****     }
 1115              		.loc 16 96 37 is_stmt 1 discriminator 1 view .LVU238
  96:Interface.cpp ****     }
 1116              		.loc 16 96 50 is_stmt 0 discriminator 1 view .LVU239
 1117 0038 3220     		movs	r0, #50
 1118 003a FFF7FEFF 		bl	_ZN5daisy6System5DelayEm
 1119              	.LVL94:
  96:Interface.cpp ****     }
 1120              		.loc 16 96 56 is_stmt 1 discriminator 1 view .LVU240
  96:Interface.cpp ****     }
 1121              		.loc 16 96 65 is_stmt 0 discriminator 1 view .LVU241
 1122 003e 0021     		movs	r1, #0
 1123 0040 0948     		ldr	r0, .L34+8
 1124 0042 FFF7FEFF 		bl	_ZN5daisy9DaisySeed6SetLedEb
 1125              	.LVL95:
  96:Interface.cpp ****     }
 1126              		.loc 16 96 74 is_stmt 1 discriminator 1 view .LVU242
  96:Interface.cpp ****     }
 1127              		.loc 16 96 87 is_stmt 0 discriminator 1 view .LVU243
 1128 0046 3220     		movs	r0, #50
ARM GAS  /var/folders/9s/8rp0_f2s1n31qbztm3b5_fdh0000gn/T//cc1V9ehO.s 			page 50


 1129 0048 FFF7FEFF 		bl	_ZN5daisy6System5DelayEm
 1130              	.LVL96:
  96:Interface.cpp ****     }
 1131              		.loc 16 96 9 is_stmt 1 discriminator 1 view .LVU244
 1132 004c F0E7     		b	.L33
 1133              	.L32:
 1134              	.LBB468:
 1135              	.LBI468:
  91:Interface.cpp ****     // --- Initialize MPR121 ---
 1136              		.loc 16 91 6 view .LVU245
 1137              	.LBB469:
  99:Interface.cpp **** }
 1138              		.loc 16 99 5 view .LVU246
  99:Interface.cpp **** }
 1139              		.loc 16 99 31 is_stmt 0 view .LVU247
 1140 004e 0322     		movs	r2, #3
 1141 0050 0621     		movs	r1, #6
 1142 0052 0348     		ldr	r0, .L34
 1143 0054 FFF7FEFF 		bl	_ZN6Mpr12113SetThresholdsEhh
 1144              	.LVL97:
 1145              	.LBE469:
 1146              	.LBE468:
 100:Interface.cpp **** 
 1147              		.loc 16 100 1 view .LVU248
 1148 0058 07B0     		add	sp, sp, #28
 1149              		.cfi_def_cfa_offset 4
 1150              		@ sp needed
 1151 005a 5DF804FB 		ldr	pc, [sp], #4
 1152              	.L35:
 1153 005e 00BF     		.align	2
 1154              	.L34:
 1155 0060 00000000 		.word	.LANCHOR18
 1156 0064 00000000 		.word	.LANCHOR17
 1157 0068 00000000 		.word	.LANCHOR2
 1158              		.cfi_endproc
 1159              	.LFE5345:
 1161              		.section	.text._Z19InitializeTouchLEDsv,"ax",%progbits
 1162              		.align	1
 1163              		.global	_Z19InitializeTouchLEDsv
 1164              		.syntax unified
 1165              		.thumb
 1166              		.thumb_func
 1168              	_Z19InitializeTouchLEDsv:
 1169              	.LFB5350:
 111:Interface.cpp ****     GPIO::Config led_cfg;
 1170              		.loc 16 111 28 is_stmt 1 view -0
 1171              		.cfi_startproc
 1172              		@ args = 0, pretend = 0, frame = 40
 1173              		@ frame_needed = 0, uses_anonymous_args = 0
 112:Interface.cpp ****     led_cfg.mode  = GPIO::Mode::OUTPUT;
 1174              		.loc 16 112 5 view .LVU250
 111:Interface.cpp ****     GPIO::Config led_cfg;
 1175              		.loc 16 111 28 is_stmt 0 view .LVU251
 1176 0000 70B5     		push	{r4, r5, r6, lr}
 1177              		.cfi_def_cfa_offset 16
 1178              		.cfi_offset 4, -16
 1179              		.cfi_offset 5, -12
ARM GAS  /var/folders/9s/8rp0_f2s1n31qbztm3b5_fdh0000gn/T//cc1V9ehO.s 			page 51


 1180              		.cfi_offset 6, -8
 1181              		.cfi_offset 14, -4
 1182              	.LBB477:
 1183              	.LBB478:
 1184              	.LBB479:
 1185              		.file 20 "lib/libdaisy/src/per/gpio.h"
   1:lib/libdaisy/src/per/gpio.h **** #pragma once
   2:lib/libdaisy/src/per/gpio.h **** #ifndef DSY_GPIO_H
   3:lib/libdaisy/src/per/gpio.h **** #define DSY_GPIO_H
   4:lib/libdaisy/src/per/gpio.h **** #include "daisy_core.h"
   5:lib/libdaisy/src/per/gpio.h **** 
   6:lib/libdaisy/src/per/gpio.h **** /** New C++ GPIO */
   7:lib/libdaisy/src/per/gpio.h **** #ifdef __cplusplus
   8:lib/libdaisy/src/per/gpio.h **** 
   9:lib/libdaisy/src/per/gpio.h **** namespace daisy
  10:lib/libdaisy/src/per/gpio.h **** {
  11:lib/libdaisy/src/per/gpio.h **** /** @brief General Purpose I/O control */
  12:lib/libdaisy/src/per/gpio.h **** class GPIO
  13:lib/libdaisy/src/per/gpio.h **** {
  14:lib/libdaisy/src/per/gpio.h ****   public:
  15:lib/libdaisy/src/per/gpio.h ****     /** @brief Mode of operation for the specified GPIO */
  16:lib/libdaisy/src/per/gpio.h ****     enum class Mode
  17:lib/libdaisy/src/per/gpio.h ****     {
  18:lib/libdaisy/src/per/gpio.h ****         INPUT,     /**< Input for reading state of pin */
  19:lib/libdaisy/src/per/gpio.h ****         OUTPUT,    /**< Output w/ push-pull configuration */
  20:lib/libdaisy/src/per/gpio.h ****         OUTPUT_OD, /**< Output w/ open-drain configuration */
  21:lib/libdaisy/src/per/gpio.h ****         ANALOG,    /**< Analog for connection to ADC or DAC peripheral */
  22:lib/libdaisy/src/per/gpio.h ****     };
  23:lib/libdaisy/src/per/gpio.h **** 
  24:lib/libdaisy/src/per/gpio.h ****     /** @brief Configures whether an internal Pull up or Pull down resistor is used. 
  25:lib/libdaisy/src/per/gpio.h ****      *  
  26:lib/libdaisy/src/per/gpio.h ****      * Internal Pull up/down resistors are typically 40k ohms, and will be between
  27:lib/libdaisy/src/per/gpio.h ****      * 30k and 50k
  28:lib/libdaisy/src/per/gpio.h ****      * 
  29:lib/libdaisy/src/per/gpio.h ****      * When the Pin is configured in Analog mode, the pull up/down resistors are
  30:lib/libdaisy/src/per/gpio.h ****      * disabled by hardware. 
  31:lib/libdaisy/src/per/gpio.h ****      */
  32:lib/libdaisy/src/per/gpio.h ****     enum class Pull
  33:lib/libdaisy/src/per/gpio.h ****     {
  34:lib/libdaisy/src/per/gpio.h ****         NOPULL,   /**< No pull up resistor */
  35:lib/libdaisy/src/per/gpio.h ****         PULLUP,   /**< Internal pull up enabled */
  36:lib/libdaisy/src/per/gpio.h ****         PULLDOWN, /**< Internal pull down enabled*/
  37:lib/libdaisy/src/per/gpio.h ****     };
  38:lib/libdaisy/src/per/gpio.h **** 
  39:lib/libdaisy/src/per/gpio.h ****     /** @brief Output speed controls the drive strength, and slew rate of the pin */
  40:lib/libdaisy/src/per/gpio.h ****     enum class Speed
  41:lib/libdaisy/src/per/gpio.h ****     {
  42:lib/libdaisy/src/per/gpio.h ****         LOW,
  43:lib/libdaisy/src/per/gpio.h ****         MEDIUM,
  44:lib/libdaisy/src/per/gpio.h ****         HIGH,
  45:lib/libdaisy/src/per/gpio.h ****         VERY_HIGH,
  46:lib/libdaisy/src/per/gpio.h ****     };
  47:lib/libdaisy/src/per/gpio.h **** 
  48:lib/libdaisy/src/per/gpio.h ****     /** @brief Configuration for a given GPIO */
  49:lib/libdaisy/src/per/gpio.h ****     struct Config
  50:lib/libdaisy/src/per/gpio.h ****     {
  51:lib/libdaisy/src/per/gpio.h ****         Pin   pin;
ARM GAS  /var/folders/9s/8rp0_f2s1n31qbztm3b5_fdh0000gn/T//cc1V9ehO.s 			page 52


  52:lib/libdaisy/src/per/gpio.h ****         Mode  mode;
  53:lib/libdaisy/src/per/gpio.h ****         Pull  pull;
  54:lib/libdaisy/src/per/gpio.h ****         Speed speed;
  55:lib/libdaisy/src/per/gpio.h **** 
  56:lib/libdaisy/src/per/gpio.h ****         /** Constructor with no arguments will prepare an invalid GPIO set as
  57:lib/libdaisy/src/per/gpio.h ****          *  an input, with no pullup. 
  58:lib/libdaisy/src/per/gpio.h ****          */
  59:lib/libdaisy/src/per/gpio.h ****         Config()
  60:lib/libdaisy/src/per/gpio.h ****         : pin(), mode(Mode::INPUT), pull(Pull::NOPULL), speed(Speed::LOW)
 1186              		.loc 20 60 73 view .LVU252
 1187 0002 0023     		movs	r3, #0
 1188              	.LBE479:
 1189              	.LBE478:
 1190              	.LBE477:
 111:Interface.cpp ****     GPIO::Config led_cfg;
 1191              		.loc 16 111 28 view .LVU253
 1192 0004 8AB0     		sub	sp, sp, #40
 1193              		.cfi_def_cfa_offset 56
 1194              	.LVL98:
 1195              	.LBB483:
 1196              	.LBI477:
  59:lib/libdaisy/src/per/gpio.h ****         : pin(), mode(Mode::INPUT), pull(Pull::NOPULL), speed(Speed::LOW)
 1197              		.loc 20 59 9 is_stmt 1 view .LVU254
 1198              	.LBB482:
 1199              	.LBB481:
 1200              	.LBB480:
 1201              	.LBI480:
 1202              		.file 21 "lib/libdaisy/src/daisy_core.h"
   1:lib/libdaisy/src/daisy_core.h **** #pragma once
   2:lib/libdaisy/src/daisy_core.h **** #ifndef DSY_CORE_HW_H
   3:lib/libdaisy/src/daisy_core.h **** #define DSY_CORE_HW_H /**< & */
   4:lib/libdaisy/src/daisy_core.h **** #include <stdint.h>
   5:lib/libdaisy/src/daisy_core.h **** #include <stdlib.h>
   6:lib/libdaisy/src/daisy_core.h **** 
   7:lib/libdaisy/src/daisy_core.h **** #if defined(_MSC_VER)
   8:lib/libdaisy/src/daisy_core.h **** #define FORCE_INLINE __forceinline /**< & */
   9:lib/libdaisy/src/daisy_core.h **** #elif defined(__clang__)
  10:lib/libdaisy/src/daisy_core.h **** #define FORCE_INLINE inline __attribute__((always_inline)) /**< & */
  11:lib/libdaisy/src/daisy_core.h **** #pragma clang diagnostic ignored "-Wduplicate-decl-specifier"
  12:lib/libdaisy/src/daisy_core.h **** #elif defined(__GNUC__)
  13:lib/libdaisy/src/daisy_core.h **** #define FORCE_INLINE inline __attribute__((always_inline)) /**< & */
  14:lib/libdaisy/src/daisy_core.h **** #else
  15:lib/libdaisy/src/daisy_core.h **** #error unknown compiler
  16:lib/libdaisy/src/daisy_core.h **** #endif
  17:lib/libdaisy/src/daisy_core.h **** 
  18:lib/libdaisy/src/daisy_core.h **** /** @addtogroup utility
  19:lib/libdaisy/src/daisy_core.h ****     @{
  20:lib/libdaisy/src/daisy_core.h **** */
  21:lib/libdaisy/src/daisy_core.h **** 
  22:lib/libdaisy/src/daisy_core.h **** /** Macro for area of memory that is configured as cacheless
  23:lib/libdaisy/src/daisy_core.h **** This should be used primarily for DMA buffers, and the like.
  24:lib/libdaisy/src/daisy_core.h **** */
  25:lib/libdaisy/src/daisy_core.h **** #define DMA_BUFFER_MEM_SECTION __attribute__((section(".sram1_bss")))
  26:lib/libdaisy/src/daisy_core.h **** /** 
  27:lib/libdaisy/src/daisy_core.h **** THE DTCM RAM section is also non-cached. However, is not suitable 
  28:lib/libdaisy/src/daisy_core.h **** for DMA transfers. Performance is on par with internal SRAM w/ 
  29:lib/libdaisy/src/daisy_core.h **** cache enabled.
ARM GAS  /var/folders/9s/8rp0_f2s1n31qbztm3b5_fdh0000gn/T//cc1V9ehO.s 			page 53


  30:lib/libdaisy/src/daisy_core.h **** */
  31:lib/libdaisy/src/daisy_core.h **** #define DTCM_MEM_SECTION __attribute__((section(".dtcmram_bss")))
  32:lib/libdaisy/src/daisy_core.h **** 
  33:lib/libdaisy/src/daisy_core.h **** #define FBIPMAX 0.999985f             /**< close to 1.0f-LSB at 16 bit */
  34:lib/libdaisy/src/daisy_core.h **** #define FBIPMIN (-FBIPMAX)            /**< - (1 - LSB) */
  35:lib/libdaisy/src/daisy_core.h **** #define U82F_SCALE 0.0078740f         /**< 1 / 127 */
  36:lib/libdaisy/src/daisy_core.h **** #define F2U8_SCALE 127.0f             /**< 128 - 1 */
  37:lib/libdaisy/src/daisy_core.h **** #define S82F_SCALE 0.0078125f         /**< 1 / (2**7) */
  38:lib/libdaisy/src/daisy_core.h **** #define F2S8_SCALE 127.0f             /**< (2 ** 7) - 1 */
  39:lib/libdaisy/src/daisy_core.h **** #define S162F_SCALE 3.0517578125e-05f /**< 1 / (2** 15) */
  40:lib/libdaisy/src/daisy_core.h **** #define F2S16_SCALE 32767.0f          /**< (2 ** 15) - 1 */
  41:lib/libdaisy/src/daisy_core.h **** #define F2S24_SCALE 8388608.0f        /**< 2 ** 23 */
  42:lib/libdaisy/src/daisy_core.h **** #define S242F_SCALE 1.192092896e-07f  /**< 1 / (2 ** 23) */
  43:lib/libdaisy/src/daisy_core.h **** #define S24SIGN 0x800000              /**< 2 ** 23 */
  44:lib/libdaisy/src/daisy_core.h **** #define S322F_SCALE 4.6566129e-10f    /**< 1 / (2** 31) */
  45:lib/libdaisy/src/daisy_core.h **** #define F2S32_SCALE 2147483647.f      /**< (2 ** 31) - 1 */
  46:lib/libdaisy/src/daisy_core.h **** 
  47:lib/libdaisy/src/daisy_core.h **** 
  48:lib/libdaisy/src/daisy_core.h **** /** shorthand macro for simplifying the reading of the left 
  49:lib/libdaisy/src/daisy_core.h ****  *  channel of a non-interleaved output buffer named out */
  50:lib/libdaisy/src/daisy_core.h **** #define OUT_L out[0]
  51:lib/libdaisy/src/daisy_core.h **** 
  52:lib/libdaisy/src/daisy_core.h **** /** shorthand macro for simplifying the reading of the right 
  53:lib/libdaisy/src/daisy_core.h ****  *  channel of a non-interleaved output buffer named out */
  54:lib/libdaisy/src/daisy_core.h **** #define OUT_R out[1]
  55:lib/libdaisy/src/daisy_core.h **** 
  56:lib/libdaisy/src/daisy_core.h **** /** shorthand macro for simplifying the reading of the left 
  57:lib/libdaisy/src/daisy_core.h ****  *  channel of a non-interleaved input buffer named in */
  58:lib/libdaisy/src/daisy_core.h **** #define IN_L in[0]
  59:lib/libdaisy/src/daisy_core.h **** 
  60:lib/libdaisy/src/daisy_core.h **** /** shorthand macro for simplifying the reading of the right 
  61:lib/libdaisy/src/daisy_core.h ****  *  channel of a non-interleaved input buffer named in */
  62:lib/libdaisy/src/daisy_core.h **** #define IN_R in[1]
  63:lib/libdaisy/src/daisy_core.h **** 
  64:lib/libdaisy/src/daisy_core.h **** /** 
  65:lib/libdaisy/src/daisy_core.h ****     Computes cube.
  66:lib/libdaisy/src/daisy_core.h ****     \param x Number to be cubed
  67:lib/libdaisy/src/daisy_core.h ****     \return x ^ 3
  68:lib/libdaisy/src/daisy_core.h **** */
  69:lib/libdaisy/src/daisy_core.h **** FORCE_INLINE float cube(float x)
  70:lib/libdaisy/src/daisy_core.h **** {
  71:lib/libdaisy/src/daisy_core.h ****     return (x * x) * x;
  72:lib/libdaisy/src/daisy_core.h **** }
  73:lib/libdaisy/src/daisy_core.h **** 
  74:lib/libdaisy/src/daisy_core.h **** /** 
  75:lib/libdaisy/src/daisy_core.h ****     Converts unsigned 8-bit to float
  76:lib/libdaisy/src/daisy_core.h ****     \param x Number to be scaled.
  77:lib/libdaisy/src/daisy_core.h ****     \return Scaled number.
  78:lib/libdaisy/src/daisy_core.h **** */
  79:lib/libdaisy/src/daisy_core.h **** FORCE_INLINE float u82f(uint8_t x)
  80:lib/libdaisy/src/daisy_core.h **** {
  81:lib/libdaisy/src/daisy_core.h ****     return ((float)x - 127.f) * U82F_SCALE;
  82:lib/libdaisy/src/daisy_core.h **** }
  83:lib/libdaisy/src/daisy_core.h **** 
  84:lib/libdaisy/src/daisy_core.h **** /**
  85:lib/libdaisy/src/daisy_core.h ****     Converts float to unsigned 8-bit
  86:lib/libdaisy/src/daisy_core.h **** */
ARM GAS  /var/folders/9s/8rp0_f2s1n31qbztm3b5_fdh0000gn/T//cc1V9ehO.s 			page 54


  87:lib/libdaisy/src/daisy_core.h **** FORCE_INLINE uint8_t f2u8(float x)
  88:lib/libdaisy/src/daisy_core.h **** {
  89:lib/libdaisy/src/daisy_core.h ****     x = x <= FBIPMIN ? FBIPMIN : x;
  90:lib/libdaisy/src/daisy_core.h ****     x = x >= FBIPMAX ? FBIPMAX : x;
  91:lib/libdaisy/src/daisy_core.h ****     return (uint8_t)((x * F2U8_SCALE) + F2U8_SCALE);
  92:lib/libdaisy/src/daisy_core.h **** }
  93:lib/libdaisy/src/daisy_core.h **** 
  94:lib/libdaisy/src/daisy_core.h **** 
  95:lib/libdaisy/src/daisy_core.h **** /** 
  96:lib/libdaisy/src/daisy_core.h ****     Converts Signed 8-bit to float
  97:lib/libdaisy/src/daisy_core.h ****     \param x Number to be scaled.
  98:lib/libdaisy/src/daisy_core.h ****     \return Scaled number.
  99:lib/libdaisy/src/daisy_core.h **** */
 100:lib/libdaisy/src/daisy_core.h **** FORCE_INLINE float s82f(int8_t x)
 101:lib/libdaisy/src/daisy_core.h **** {
 102:lib/libdaisy/src/daisy_core.h ****     return (float)x * S82F_SCALE;
 103:lib/libdaisy/src/daisy_core.h **** }
 104:lib/libdaisy/src/daisy_core.h **** 
 105:lib/libdaisy/src/daisy_core.h **** /**
 106:lib/libdaisy/src/daisy_core.h ****     Converts float to Signed 8-bit
 107:lib/libdaisy/src/daisy_core.h **** */
 108:lib/libdaisy/src/daisy_core.h **** FORCE_INLINE int8_t f2s8(float x)
 109:lib/libdaisy/src/daisy_core.h **** {
 110:lib/libdaisy/src/daisy_core.h ****     x = x <= FBIPMIN ? FBIPMIN : x;
 111:lib/libdaisy/src/daisy_core.h ****     x = x >= FBIPMAX ? FBIPMAX : x;
 112:lib/libdaisy/src/daisy_core.h ****     return (int32_t)(x * F2S8_SCALE);
 113:lib/libdaisy/src/daisy_core.h **** }
 114:lib/libdaisy/src/daisy_core.h **** 
 115:lib/libdaisy/src/daisy_core.h **** /** 
 116:lib/libdaisy/src/daisy_core.h ****     Converts Signed 16-bit to float
 117:lib/libdaisy/src/daisy_core.h ****     \param x Number to be scaled.
 118:lib/libdaisy/src/daisy_core.h ****     \return Scaled number.
 119:lib/libdaisy/src/daisy_core.h **** */
 120:lib/libdaisy/src/daisy_core.h **** FORCE_INLINE float s162f(int16_t x)
 121:lib/libdaisy/src/daisy_core.h **** {
 122:lib/libdaisy/src/daisy_core.h ****     return (float)x * S162F_SCALE;
 123:lib/libdaisy/src/daisy_core.h **** }
 124:lib/libdaisy/src/daisy_core.h **** 
 125:lib/libdaisy/src/daisy_core.h **** /**
 126:lib/libdaisy/src/daisy_core.h ****     Converts float to Signed 16-bit
 127:lib/libdaisy/src/daisy_core.h **** */
 128:lib/libdaisy/src/daisy_core.h **** FORCE_INLINE int16_t f2s16(float x)
 129:lib/libdaisy/src/daisy_core.h **** {
 130:lib/libdaisy/src/daisy_core.h ****     x = x <= FBIPMIN ? FBIPMIN : x;
 131:lib/libdaisy/src/daisy_core.h ****     x = x >= FBIPMAX ? FBIPMAX : x;
 132:lib/libdaisy/src/daisy_core.h ****     return (int32_t)(x * F2S16_SCALE);
 133:lib/libdaisy/src/daisy_core.h **** }
 134:lib/libdaisy/src/daisy_core.h **** 
 135:lib/libdaisy/src/daisy_core.h **** /**
 136:lib/libdaisy/src/daisy_core.h ****     Converts Signed 24-bit to float
 137:lib/libdaisy/src/daisy_core.h ****  */
 138:lib/libdaisy/src/daisy_core.h **** FORCE_INLINE float s242f(int32_t x)
 139:lib/libdaisy/src/daisy_core.h **** {
 140:lib/libdaisy/src/daisy_core.h ****     x = (x ^ S24SIGN) - S24SIGN; //sign extend aka ((x<<8)>>8)
 141:lib/libdaisy/src/daisy_core.h ****     return (float)x * S242F_SCALE;
 142:lib/libdaisy/src/daisy_core.h **** }
 143:lib/libdaisy/src/daisy_core.h **** /**
ARM GAS  /var/folders/9s/8rp0_f2s1n31qbztm3b5_fdh0000gn/T//cc1V9ehO.s 			page 55


 144:lib/libdaisy/src/daisy_core.h ****     Converts float to Signed 24-bit
 145:lib/libdaisy/src/daisy_core.h ****  */
 146:lib/libdaisy/src/daisy_core.h **** FORCE_INLINE int32_t f2s24(float x)
 147:lib/libdaisy/src/daisy_core.h **** {
 148:lib/libdaisy/src/daisy_core.h ****     x = x <= FBIPMIN ? FBIPMIN : x;
 149:lib/libdaisy/src/daisy_core.h ****     x = x >= FBIPMAX ? FBIPMAX : x;
 150:lib/libdaisy/src/daisy_core.h ****     return (int32_t)(x * F2S24_SCALE);
 151:lib/libdaisy/src/daisy_core.h **** }
 152:lib/libdaisy/src/daisy_core.h **** 
 153:lib/libdaisy/src/daisy_core.h **** /**
 154:lib/libdaisy/src/daisy_core.h ****     Converts Signed 32-bit to float
 155:lib/libdaisy/src/daisy_core.h ****  */
 156:lib/libdaisy/src/daisy_core.h **** FORCE_INLINE float s322f(int32_t x)
 157:lib/libdaisy/src/daisy_core.h **** {
 158:lib/libdaisy/src/daisy_core.h ****     return (float)x * S322F_SCALE;
 159:lib/libdaisy/src/daisy_core.h **** }
 160:lib/libdaisy/src/daisy_core.h **** /**
 161:lib/libdaisy/src/daisy_core.h ****     Converts float to Signed 24-bit
 162:lib/libdaisy/src/daisy_core.h ****  */
 163:lib/libdaisy/src/daisy_core.h **** FORCE_INLINE int32_t f2s32(float x)
 164:lib/libdaisy/src/daisy_core.h **** {
 165:lib/libdaisy/src/daisy_core.h ****     x = x <= FBIPMIN ? FBIPMIN : x;
 166:lib/libdaisy/src/daisy_core.h ****     x = x >= FBIPMAX ? FBIPMAX : x;
 167:lib/libdaisy/src/daisy_core.h ****     return (int32_t)(x * F2S32_SCALE);
 168:lib/libdaisy/src/daisy_core.h **** }
 169:lib/libdaisy/src/daisy_core.h **** 
 170:lib/libdaisy/src/daisy_core.h **** 
 171:lib/libdaisy/src/daisy_core.h **** /** Enums and a simple struct for defining a hardware pin on the MCU
 172:lib/libdaisy/src/daisy_core.h ****  *  These correlate with the stm32 datasheet, and are used to configure
 173:lib/libdaisy/src/daisy_core.h ****  *  the hardware.
 174:lib/libdaisy/src/daisy_core.h ****  * 
 175:lib/libdaisy/src/daisy_core.h ****  *  This along with the dsy_gpio_pin class should no longer be used.
 176:lib/libdaisy/src/daisy_core.h ****  *  They are available for backwards compatability. 
 177:lib/libdaisy/src/daisy_core.h ****  * 
 178:lib/libdaisy/src/daisy_core.h ****  *  Please use GPIOPort enum and the Pin struct instead.
 179:lib/libdaisy/src/daisy_core.h ****  */
 180:lib/libdaisy/src/daisy_core.h **** typedef enum
 181:lib/libdaisy/src/daisy_core.h **** {
 182:lib/libdaisy/src/daisy_core.h ****     DSY_GPIOA, /**< & */
 183:lib/libdaisy/src/daisy_core.h ****     DSY_GPIOB, /**< & */
 184:lib/libdaisy/src/daisy_core.h ****     DSY_GPIOC, /**< & */
 185:lib/libdaisy/src/daisy_core.h ****     DSY_GPIOD, /**< & */
 186:lib/libdaisy/src/daisy_core.h ****     DSY_GPIOE, /**< & */
 187:lib/libdaisy/src/daisy_core.h ****     DSY_GPIOF, /**< & */
 188:lib/libdaisy/src/daisy_core.h ****     DSY_GPIOG, /**< & */
 189:lib/libdaisy/src/daisy_core.h ****     DSY_GPIOH, /**< & */
 190:lib/libdaisy/src/daisy_core.h ****     DSY_GPIOI, /**< & */
 191:lib/libdaisy/src/daisy_core.h ****     DSY_GPIOJ, /**< & */
 192:lib/libdaisy/src/daisy_core.h ****     DSY_GPIOK, /**< & */
 193:lib/libdaisy/src/daisy_core.h ****     DSY_GPIOX, /** This is a non-existant port for unsupported bits of hardware. */
 194:lib/libdaisy/src/daisy_core.h ****     DSY_GPIO_LAST, /** Final enum member */
 195:lib/libdaisy/src/daisy_core.h **** } dsy_gpio_port;
 196:lib/libdaisy/src/daisy_core.h **** 
 197:lib/libdaisy/src/daisy_core.h **** /** Hardware define pins 
 198:lib/libdaisy/src/daisy_core.h ****  *  
 199:lib/libdaisy/src/daisy_core.h ****  *  The dsy_gpio_pin struct should no longer be used, and is only available for
 200:lib/libdaisy/src/daisy_core.h ****  *  backwards compatability.
ARM GAS  /var/folders/9s/8rp0_f2s1n31qbztm3b5_fdh0000gn/T//cc1V9ehO.s 			page 56


 201:lib/libdaisy/src/daisy_core.h ****  * 
 202:lib/libdaisy/src/daisy_core.h ****  *  Please use Pin struct instead.
 203:lib/libdaisy/src/daisy_core.h ****  */
 204:lib/libdaisy/src/daisy_core.h **** typedef struct
 205:lib/libdaisy/src/daisy_core.h **** {
 206:lib/libdaisy/src/daisy_core.h ****     dsy_gpio_port port; /**< & */
 207:lib/libdaisy/src/daisy_core.h ****     uint8_t       pin;  /**< number 0-15 */
 208:lib/libdaisy/src/daisy_core.h **** } dsy_gpio_pin;
 209:lib/libdaisy/src/daisy_core.h **** 
 210:lib/libdaisy/src/daisy_core.h **** /** Helper for creating pins from port/pin combos easily
 211:lib/libdaisy/src/daisy_core.h ****  * 
 212:lib/libdaisy/src/daisy_core.h ****  *  The dsy_gpio_pin struct should no longer be used, and is only available for
 213:lib/libdaisy/src/daisy_core.h ****  *  backwards compatability.
 214:lib/libdaisy/src/daisy_core.h ****  * 
 215:lib/libdaisy/src/daisy_core.h ****  *  Please use Pin struct instead.
 216:lib/libdaisy/src/daisy_core.h **** */
 217:lib/libdaisy/src/daisy_core.h **** FORCE_INLINE dsy_gpio_pin dsy_pin(dsy_gpio_port port, uint8_t pin)
 218:lib/libdaisy/src/daisy_core.h **** {
 219:lib/libdaisy/src/daisy_core.h ****     dsy_gpio_pin p;
 220:lib/libdaisy/src/daisy_core.h ****     p.port = port;
 221:lib/libdaisy/src/daisy_core.h ****     p.pin  = pin;
 222:lib/libdaisy/src/daisy_core.h ****     return p;
 223:lib/libdaisy/src/daisy_core.h **** }
 224:lib/libdaisy/src/daisy_core.h **** 
 225:lib/libdaisy/src/daisy_core.h **** /** Helper for testing sameness of two dsy_gpio_pins
 226:lib/libdaisy/src/daisy_core.h ****  *  \return    1 if same, 0 if different
 227:lib/libdaisy/src/daisy_core.h ****  * 
 228:lib/libdaisy/src/daisy_core.h ****  *  The dsy_gpio_pin struct should no longer be used, and is only available for
 229:lib/libdaisy/src/daisy_core.h ****  *  backwards compatability.
 230:lib/libdaisy/src/daisy_core.h ****  * 
 231:lib/libdaisy/src/daisy_core.h ****  *  Please use Pin struct instead.
 232:lib/libdaisy/src/daisy_core.h ****  */
 233:lib/libdaisy/src/daisy_core.h **** FORCE_INLINE uint8_t dsy_pin_cmp(dsy_gpio_pin *a, dsy_gpio_pin *b)
 234:lib/libdaisy/src/daisy_core.h **** {
 235:lib/libdaisy/src/daisy_core.h ****     return ((a->port == b->port) && (a->pin == b->pin));
 236:lib/libdaisy/src/daisy_core.h **** }
 237:lib/libdaisy/src/daisy_core.h **** 
 238:lib/libdaisy/src/daisy_core.h **** #ifdef __cplusplus
 239:lib/libdaisy/src/daisy_core.h **** 
 240:lib/libdaisy/src/daisy_core.h **** namespace daisy
 241:lib/libdaisy/src/daisy_core.h **** {
 242:lib/libdaisy/src/daisy_core.h **** /** @brief GPIO Port names */
 243:lib/libdaisy/src/daisy_core.h **** enum GPIOPort
 244:lib/libdaisy/src/daisy_core.h **** {
 245:lib/libdaisy/src/daisy_core.h ****     PORTA, /**< Port A */
 246:lib/libdaisy/src/daisy_core.h ****     PORTB, /**< Port B */
 247:lib/libdaisy/src/daisy_core.h ****     PORTC, /**< Port C */
 248:lib/libdaisy/src/daisy_core.h ****     PORTD, /**< Port D */
 249:lib/libdaisy/src/daisy_core.h ****     PORTE, /**< Port E */
 250:lib/libdaisy/src/daisy_core.h ****     PORTF, /**< Port F */
 251:lib/libdaisy/src/daisy_core.h ****     PORTG, /**< Port G */
 252:lib/libdaisy/src/daisy_core.h ****     PORTH, /**< Port H */
 253:lib/libdaisy/src/daisy_core.h ****     PORTI, /**< Port I */
 254:lib/libdaisy/src/daisy_core.h ****     PORTJ, /**< Port J */
 255:lib/libdaisy/src/daisy_core.h ****     PORTK, /**< Port K */
 256:lib/libdaisy/src/daisy_core.h ****     PORTX, /**< Used as a dummy port to signal an invalid pin. */
 257:lib/libdaisy/src/daisy_core.h **** };
ARM GAS  /var/folders/9s/8rp0_f2s1n31qbztm3b5_fdh0000gn/T//cc1V9ehO.s 			page 57


 258:lib/libdaisy/src/daisy_core.h **** 
 259:lib/libdaisy/src/daisy_core.h **** /** @brief representation of hardware port/pin combination */
 260:lib/libdaisy/src/daisy_core.h **** struct Pin
 261:lib/libdaisy/src/daisy_core.h **** {
 262:lib/libdaisy/src/daisy_core.h ****     GPIOPort port;
 263:lib/libdaisy/src/daisy_core.h ****     uint8_t  pin;
 264:lib/libdaisy/src/daisy_core.h **** 
 265:lib/libdaisy/src/daisy_core.h ****     /** @brief Constructor creates a valid pin. 
 266:lib/libdaisy/src/daisy_core.h ****      *  @param pt GPIOPort between PA, and PK corresponding to STM32 Port.
 267:lib/libdaisy/src/daisy_core.h ****      *  @param pn pin number in range of 0-15
 268:lib/libdaisy/src/daisy_core.h ****     */
 269:lib/libdaisy/src/daisy_core.h ****     constexpr Pin(const GPIOPort pt, const uint8_t pn) : port(pt), pin(pn) {}
 270:lib/libdaisy/src/daisy_core.h **** 
 271:lib/libdaisy/src/daisy_core.h ****     /** @brief Basic Constructor creates an invalid Pin object */
 272:lib/libdaisy/src/daisy_core.h ****     constexpr Pin() : port(PORTX), pin(255) {}
 1203              		.loc 21 272 15 view .LVU255
 1204              		.loc 21 272 15 is_stmt 0 view .LVU256
 1205              	.LBE480:
 1206              		.loc 20 60 73 view .LVU257
 1207 0006 CDE90233 		strd	r3, r3, [sp, #8]
 1208              	.LVL99:
 1209              		.loc 20 60 73 view .LVU258
 1210              	.LBE481:
 1211              	.LBE482:
 1212              	.LBE483:
 113:Interface.cpp ****     led_cfg.pull  = GPIO::Pull::NOPULL;
 1213              		.loc 16 113 5 is_stmt 1 view .LVU259
 113:Interface.cpp ****     led_cfg.pull  = GPIO::Pull::NOPULL;
 1214              		.loc 16 113 19 is_stmt 0 view .LVU260
 1215 000a 0123     		movs	r3, #1
 117:Interface.cpp ****         seed::D14, seed::D13, seed::D10, seed::D9,
 1216              		.loc 16 117 9 view .LVU261
 1217 000c 04AA     		add	r2, sp, #16
 113:Interface.cpp ****     led_cfg.pull  = GPIO::Pull::NOPULL;
 1218              		.loc 16 113 19 view .LVU262
 1219 000e 0193     		str	r3, [sp, #4]
 114:Interface.cpp ****     led_cfg.speed = GPIO::Speed::LOW;
 1220              		.loc 16 114 5 is_stmt 1 view .LVU263
 115:Interface.cpp **** 
 1221              		.loc 16 115 5 view .LVU264
 117:Interface.cpp ****         seed::D14, seed::D13, seed::D10, seed::D9,
 1222              		.loc 16 117 5 view .LVU265
 1223 0010 1646     		mov	r6, r2
 117:Interface.cpp ****         seed::D14, seed::D13, seed::D10, seed::D9,
 1224              		.loc 16 117 9 is_stmt 0 view .LVU266
 1225 0012 104B     		ldr	r3, .L41
 1226 0014 03F11805 		add	r5, r3, #24
 1227              	.L37:
 1228 0018 1868     		ldr	r0, [r3]	@ unaligned
 1229 001a 0833     		adds	r3, r3, #8
 1230 001c 53F8041C 		ldr	r1, [r3, #-4]	@ unaligned
 1231 0020 1446     		mov	r4, r2
 1232 0022 AB42     		cmp	r3, r5
 1233 0024 03C4     		stmia	r4!, {r0, r1}
 1234 0026 2246     		mov	r2, r4
 1235 0028 F6D1     		bne	.L37
 123:Interface.cpp ****         led_cfg.pin = led_pins[i];
ARM GAS  /var/folders/9s/8rp0_f2s1n31qbztm3b5_fdh0000gn/T//cc1V9ehO.s 			page 58


 1236              		.loc 16 123 5 is_stmt 1 view .LVU267
 1237              	.LVL100:
 1238              	.LBB484:
 123:Interface.cpp ****         led_cfg.pin = led_pins[i];
 1239              		.loc 16 123 22 view .LVU268
 1240 002a 0B4D     		ldr	r5, .L41+4
 123:Interface.cpp ****         led_cfg.pin = led_pins[i];
 1241              		.loc 16 123 13 is_stmt 0 view .LVU269
 1242 002c 0024     		movs	r4, #0
 1243              	.LVL101:
 1244              	.L38:
 124:Interface.cpp ****         touch_leds[i].Init(led_cfg);
 1245              		.loc 16 124 9 is_stmt 1 discriminator 2 view .LVU270
 124:Interface.cpp ****         touch_leds[i].Init(led_cfg);
 1246              		.loc 16 124 21 is_stmt 0 discriminator 2 view .LVU271
 1247 002e 36F81430 		ldrh	r3, [r6, r4, lsl #1]
 125:Interface.cpp ****         touch_leds[i].Write(true);
 1248              		.loc 16 125 27 discriminator 2 view .LVU272
 1249 0032 2846     		mov	r0, r5
 1250 0034 6946     		mov	r1, sp
 123:Interface.cpp ****         led_cfg.pin = led_pins[i];
 1251              		.loc 16 123 5 discriminator 2 view .LVU273
 1252 0036 0134     		adds	r4, r4, #1
 1253              	.LVL102:
 124:Interface.cpp ****         touch_leds[i].Init(led_cfg);
 1254              		.loc 16 124 21 discriminator 2 view .LVU274
 1255 0038 ADF80030 		strh	r3, [sp]	@ movhi
 125:Interface.cpp ****         touch_leds[i].Write(true);
 1256              		.loc 16 125 9 is_stmt 1 discriminator 2 view .LVU275
 125:Interface.cpp ****         touch_leds[i].Write(true);
 1257              		.loc 16 125 27 is_stmt 0 discriminator 2 view .LVU276
 1258 003c FFF7FEFF 		bl	_ZN5daisy4GPIO4InitERKNS0_6ConfigE
 1259              	.LVL103:
 126:Interface.cpp ****     }
 1260              		.loc 16 126 9 is_stmt 1 discriminator 2 view .LVU277
 126:Interface.cpp ****     }
 1261              		.loc 16 126 28 is_stmt 0 discriminator 2 view .LVU278
 1262 0040 2846     		mov	r0, r5
 1263 0042 0121     		movs	r1, #1
 1264 0044 FFF7FEFF 		bl	_ZN5daisy4GPIO5WriteEb
 1265              	.LVL104:
 123:Interface.cpp ****         led_cfg.pin = led_pins[i];
 1266              		.loc 16 123 5 is_stmt 1 discriminator 2 view .LVU279
 123:Interface.cpp ****         led_cfg.pin = led_pins[i];
 1267              		.loc 16 123 22 discriminator 2 view .LVU280
 1268 0048 0C2C     		cmp	r4, #12
 1269 004a 05F11405 		add	r5, r5, #20
 1270 004e EED1     		bne	.L38
 1271              	.LBE484:
 128:Interface.cpp **** 
 1272              		.loc 16 128 1 is_stmt 0 view .LVU281
 1273 0050 0AB0     		add	sp, sp, #40
 1274              		.cfi_def_cfa_offset 16
 1275              		@ sp needed
 1276 0052 70BD     		pop	{r4, r5, r6, pc}
 1277              	.LVL105:
 1278              	.L42:
ARM GAS  /var/folders/9s/8rp0_f2s1n31qbztm3b5_fdh0000gn/T//cc1V9ehO.s 			page 59


 128:Interface.cpp **** 
 1279              		.loc 16 128 1 view .LVU282
 1280              		.align	2
 1281              	.L41:
 1282 0054 04000000 		.word	.LANCHOR17+4
 1283 0058 00000000 		.word	.LANCHOR19
 1284              		.cfi_endproc
 1285              	.LFE5350:
 1287              		.section	.rodata._Z8Bootloadv.str1.1,"aMS",%progbits,1
 1288              	.LC3:
 1289 0000 456E7465 		.ascii	"Entering bootloader (ADC combo)...\000"
 1289      72696E67 
 1289      20626F6F 
 1289      746C6F61 
 1289      64657220 
 1290              		.section	.text._Z8Bootloadv,"ax",%progbits
 1291              		.align	1
 1292              		.global	_Z8Bootloadv
 1293              		.syntax unified
 1294              		.thumb
 1295              		.thumb_func
 1297              	_Z8Bootloadv:
 1298              	.LFB5358:
 160:Interface.cpp ****     });
 161:Interface.cpp ****     
 162:Interface.cpp ****     // --- Serial Log (Start before audio) ---
 163:Interface.cpp ****     // Use blocking log start so the USB CDC is fully synchronized before the first prints.
 164:Interface.cpp ****     // This prevents the logger buffer from overflowing and truncating long messages.
 165:Interface.cpp ****     hw.StartLog(false); // Start log immediately (non-blocking) - reverted to prevent freezing at s
 166:Interface.cpp ****     
 167:Interface.cpp ****     // --- Start Audio ---
 168:Interface.cpp ****     hw.StartAudio(AudioCallback);
 169:Interface.cpp ****     
 170:Interface.cpp ****     hw.PrintLine("Plaits Synth Started - Ready for Bootloader CMD");
 171:Interface.cpp ****     char settings[64];
 172:Interface.cpp ****     // Print Max Voices (compile time)
 173:Interface.cpp ****     sprintf(settings, "Max Voices: %d | Block: %d | SR: %d", NUM_VOICES, BLOCK_SIZE, (int)sample_ra
 174:Interface.cpp ****     hw.PrintLine(settings);
 175:Interface.cpp ****     sprintf(settings, "Engine Range: 0-%d", MAX_ENGINE_INDEX);
 176:Interface.cpp ****     hw.PrintLine(settings);
 177:Interface.cpp ****     sprintf(settings, "Mode: %s", (MAX_ENGINE_INDEX <=3) ? "Poly (0-3)" : "Dynamic Poly"); // Indic
 178:Interface.cpp ****     hw.PrintLine(settings);
 179:Interface.cpp ****     hw.PrintLine("----------------");
 180:Interface.cpp **** }
 181:Interface.cpp **** 
 182:Interface.cpp **** // --- User Interface Functions ---
 183:Interface.cpp **** void Bootload() {
 1299              		.loc 16 183 17 is_stmt 1 view -0
 1300              		.cfi_startproc
 1301              		@ args = 0, pretend = 0, frame = 0
 1302              		@ frame_needed = 0, uses_anonymous_args = 0
 184:Interface.cpp ****     // Bootloader via ADC: pads on ADC 8, 9, and 10 pressed simultaneously at any time
 185:Interface.cpp ****     if (arp_pad.GetRawFloat() > 0.5f &&
 1303              		.loc 16 185 5 view .LVU284
 1304              	.LBB493:
 1305              	.LBI493:
  24:lib/libdaisy/src/hid/ctrl.h **** 
ARM GAS  /var/folders/9s/8rp0_f2s1n31qbztm3b5_fdh0000gn/T//cc1V9ehO.s 			page 60


  25:lib/libdaisy/src/hid/ctrl.h ****     /** 
  26:lib/libdaisy/src/hid/ctrl.h ****     Initializes the control
  27:lib/libdaisy/src/hid/ctrl.h ****     \param *adcptr is a pointer to the raw adc read value -- This can be acquired with dsy_adc_get_
  28:lib/libdaisy/src/hid/ctrl.h ****     \param sr is the samplerate in Hz that the Process function will be called at.
  29:lib/libdaisy/src/hid/ctrl.h ****     \param flip determines whether the input is flipped (i.e. 1.f - input) or not before being proc
  30:lib/libdaisy/src/hid/ctrl.h ****     \param invert determines whether the input is inverted (i.e. -1.f * input) or note before being
  31:lib/libdaisy/src/hid/ctrl.h ****     \param slew_seconds is the slew time in seconds that it takes for the control to change to a ne
  32:lib/libdaisy/src/hid/ctrl.h ****     */
  33:lib/libdaisy/src/hid/ctrl.h ****     void Init(uint16_t *adcptr,
  34:lib/libdaisy/src/hid/ctrl.h ****               float     sr,
  35:lib/libdaisy/src/hid/ctrl.h ****               bool      flip         = false,
  36:lib/libdaisy/src/hid/ctrl.h ****               bool      invert       = false,
  37:lib/libdaisy/src/hid/ctrl.h ****               float     slew_seconds = 0.002f);
  38:lib/libdaisy/src/hid/ctrl.h **** 
  39:lib/libdaisy/src/hid/ctrl.h ****     /** 
  40:lib/libdaisy/src/hid/ctrl.h ****     This Initializes the AnalogControl for a -5V to 5V inverted input
  41:lib/libdaisy/src/hid/ctrl.h ****     All of the Init details are the same otherwise
  42:lib/libdaisy/src/hid/ctrl.h ****     \param *adcptr Pointer to analog digital converter
  43:lib/libdaisy/src/hid/ctrl.h ****     \param sr Audio engine sample rate
  44:lib/libdaisy/src/hid/ctrl.h ****     */
  45:lib/libdaisy/src/hid/ctrl.h ****     void InitBipolarCv(uint16_t *adcptr, float sr);
  46:lib/libdaisy/src/hid/ctrl.h **** 
  47:lib/libdaisy/src/hid/ctrl.h ****     /** 
  48:lib/libdaisy/src/hid/ctrl.h ****     Filters, and transforms a raw ADC read into a normalized range.
  49:lib/libdaisy/src/hid/ctrl.h ****     this should be called at the rate of specified by samplerate at Init time.   
  50:lib/libdaisy/src/hid/ctrl.h ****     Default Initializations will return 0.0 -> 1.0
  51:lib/libdaisy/src/hid/ctrl.h ****     Bi-polar CV inputs will return -1.0 -> 1.0
  52:lib/libdaisy/src/hid/ctrl.h ****     */
  53:lib/libdaisy/src/hid/ctrl.h ****     float Process();
  54:lib/libdaisy/src/hid/ctrl.h **** 
  55:lib/libdaisy/src/hid/ctrl.h ****     /** Returns the current stored value, without reprocessing */
  56:lib/libdaisy/src/hid/ctrl.h ****     inline float Value() const { return val_; }
  57:lib/libdaisy/src/hid/ctrl.h **** 
  58:lib/libdaisy/src/hid/ctrl.h ****     /** Directly set the Coefficient of the one pole smoothing filter. 
  59:lib/libdaisy/src/hid/ctrl.h ****      ***/
  60:lib/libdaisy/src/hid/ctrl.h ****     inline void SetCoeff(float val) { coeff_ = val; }
  61:lib/libdaisy/src/hid/ctrl.h **** 
  62:lib/libdaisy/src/hid/ctrl.h ****     /** Returns the raw unsigned 16-bit value from the ADC */
  63:lib/libdaisy/src/hid/ctrl.h ****     inline uint16_t GetRawValue() { return *raw_; }
  64:lib/libdaisy/src/hid/ctrl.h **** 
  65:lib/libdaisy/src/hid/ctrl.h ****     /** Returns a normalized float value representing the current ADC value. */
  66:lib/libdaisy/src/hid/ctrl.h ****     inline float GetRawFloat() { return (float)(*raw_) / 65535.f; }
 1306              		.loc 2 66 18 view .LVU285
 1307              	.LVL106:
 1308              	.LBB494:
 1309              		.loc 2 66 34 view .LVU286
 1310              		.loc 2 66 34 is_stmt 0 view .LVU287
 1311              	.LBE494:
 1312              	.LBE493:
 183:Interface.cpp ****     // Bootloader via ADC: pads on ADC 8, 9, and 10 pressed simultaneously at any time
 1313              		.loc 16 183 17 view .LVU288
 1314 0000 08B5     		push	{r3, lr}
 1315              		.cfi_def_cfa_offset 8
 1316              		.cfi_offset 3, -8
 1317              		.cfi_offset 14, -4
 1318              	.LBB496:
 1319              	.LBB495:
ARM GAS  /var/folders/9s/8rp0_f2s1n31qbztm3b5_fdh0000gn/T//cc1V9ehO.s 			page 61


 1320              		.loc 2 66 49 view .LVU289
 1321 0002 1C4B     		ldr	r3, .L51
 1322              		.loc 2 66 58 view .LVU290
 1323 0004 9FED1C7A 		vldr.32	s14, .L51+4
 1324              		.loc 2 66 49 view .LVU291
 1325 0008 1B68     		ldr	r3, [r3]
 1326              		.loc 2 66 41 view .LVU292
 1327 000a 1B88     		ldrh	r3, [r3]
 1328 000c 07EE903A 		vmov	s15, r3	@ int
 1329 0010 F8EE677A 		vcvt.f32.u32	s15, s15
 1330              		.loc 2 66 58 view .LVU293
 1331 0014 C7EE876A 		vdiv.f32	s13, s15, s14
 1332              	.LBE495:
 1333              	.LBE496:
 186:Interface.cpp ****         model_prev_pad.GetRawFloat() > 0.5f &&
 1334              		.loc 16 186 45 view .LVU294
 1335 0018 F6EE007A 		vmov.f32	s15, #5.0e-1
 1336 001c F4EEE76A 		vcmpe.f32	s13, s15
 1337 0020 F1EE10FA 		vmrs	APSR_nzcv, FPSCR
 1338 0024 25DD     		ble	.L43
 1339              	.LBB497:
 1340              	.LBI497:
 1341              		.loc 2 66 18 is_stmt 1 discriminator 1 view .LVU295
 1342              	.LVL107:
 1343              	.LBB498:
 1344              		.loc 2 66 34 discriminator 1 view .LVU296
 1345              		.loc 2 66 49 is_stmt 0 discriminator 1 view .LVU297
 1346 0026 154B     		ldr	r3, .L51+8
 1347 0028 1B68     		ldr	r3, [r3]
 1348              		.loc 2 66 41 discriminator 1 view .LVU298
 1349 002a 1B88     		ldrh	r3, [r3]
 1350 002c 06EE903A 		vmov	s13, r3	@ int
 1351 0030 F8EE666A 		vcvt.f32.u32	s13, s13
 1352              		.loc 2 66 58 discriminator 1 view .LVU299
 1353 0034 86EE876A 		vdiv.f32	s12, s13, s14
 1354              	.LBE498:
 1355              	.LBE497:
 185:Interface.cpp ****         model_prev_pad.GetRawFloat() > 0.5f &&
 1356              		.loc 16 185 38 discriminator 1 view .LVU300
 1357 0038 B4EEE76A 		vcmpe.f32	s12, s15
 1358 003c F1EE10FA 		vmrs	APSR_nzcv, FPSCR
 1359 0040 17DD     		ble	.L43
 1360              	.LBB499:
 1361              	.LBI499:
 1362              		.loc 2 66 18 is_stmt 1 discriminator 4 view .LVU301
 1363              	.LVL108:
 1364              	.LBB500:
 1365              		.loc 2 66 34 discriminator 4 view .LVU302
 1366              		.loc 2 66 49 is_stmt 0 discriminator 4 view .LVU303
 1367 0042 0F4B     		ldr	r3, .L51+12
 1368 0044 1B68     		ldr	r3, [r3]
 1369              		.loc 2 66 41 discriminator 4 view .LVU304
 1370 0046 1B88     		ldrh	r3, [r3]
 1371 0048 06EE903A 		vmov	s13, r3	@ int
 1372 004c F8EE666A 		vcvt.f32.u32	s13, s13
 1373              		.loc 2 66 58 discriminator 4 view .LVU305
 1374 0050 86EE876A 		vdiv.f32	s12, s13, s14
ARM GAS  /var/folders/9s/8rp0_f2s1n31qbztm3b5_fdh0000gn/T//cc1V9ehO.s 			page 62


 1375              	.LBE500:
 1376              	.LBE499:
 1377              		.loc 16 186 45 discriminator 4 view .LVU306
 1378 0054 B4EEE76A 		vcmpe.f32	s12, s15
 1379 0058 F1EE10FA 		vmrs	APSR_nzcv, FPSCR
 1380 005c 09DD     		ble	.L43
 187:Interface.cpp ****         model_next_pad.GetRawFloat() > 0.5f) {
 188:Interface.cpp ****         hw.PrintLine("Entering bootloader (ADC combo)...");
 1381              		.loc 16 188 9 is_stmt 1 view .LVU307
 1382              	.LVL109:
 1383              	.LBB501:
 1384              	.LBI501:
  23:lib/libdaisy/src/daisy_seed.h **** 
  24:lib/libdaisy/src/daisy_seed.h ****     /** This function used to provide a pre-initialization configuraiton 
  25:lib/libdaisy/src/daisy_seed.h ****      *  it has since been deprecated, and does nothing.
  26:lib/libdaisy/src/daisy_seed.h ****      */
  27:lib/libdaisy/src/daisy_seed.h ****     void Configure();
  28:lib/libdaisy/src/daisy_seed.h **** 
  29:lib/libdaisy/src/daisy_seed.h ****     /** 
  30:lib/libdaisy/src/daisy_seed.h ****     Initializes the Daisy Seed and the following peripherals:
  31:lib/libdaisy/src/daisy_seed.h ****     SDRAM, QSPI, 24-bit 48kHz Audio via AK4556, Internal USB,
  32:lib/libdaisy/src/daisy_seed.h ****     as well as the built-in LED and Testpoint.
  33:lib/libdaisy/src/daisy_seed.h **** 
  34:lib/libdaisy/src/daisy_seed.h ****     ADCs, DACs, and other special peripherals (such as I2C, SPI, etc.)
  35:lib/libdaisy/src/daisy_seed.h ****     can be initialized using their specific initializers within libdaisy
  36:lib/libdaisy/src/daisy_seed.h ****     for a specific application.
  37:lib/libdaisy/src/daisy_seed.h ****     */
  38:lib/libdaisy/src/daisy_seed.h ****     void Init(bool boost = false);
  39:lib/libdaisy/src/daisy_seed.h **** 
  40:lib/libdaisy/src/daisy_seed.h ****     /** 
  41:lib/libdaisy/src/daisy_seed.h ****     Deinitializes all peripherals automatically handled by `Init`.
  42:lib/libdaisy/src/daisy_seed.h ****     */
  43:lib/libdaisy/src/daisy_seed.h ****     void DeInit();
  44:lib/libdaisy/src/daisy_seed.h **** 
  45:lib/libdaisy/src/daisy_seed.h ****     /** 
  46:lib/libdaisy/src/daisy_seed.h ****     Wait some ms before going on.
  47:lib/libdaisy/src/daisy_seed.h ****     \param del Delay time in ms.
  48:lib/libdaisy/src/daisy_seed.h ****     */
  49:lib/libdaisy/src/daisy_seed.h ****     void DelayMs(size_t del);
  50:lib/libdaisy/src/daisy_seed.h **** 
  51:lib/libdaisy/src/daisy_seed.h ****     /** 
  52:lib/libdaisy/src/daisy_seed.h ****     Returns the gpio_pin corresponding to the index 0-31.
  53:lib/libdaisy/src/daisy_seed.h ****     For the given GPIO on the Daisy Seed (labeled 1-32 in docs).
  54:lib/libdaisy/src/daisy_seed.h ****     */
  55:lib/libdaisy/src/daisy_seed.h ****     static dsy_gpio_pin GetPin(uint8_t pin_idx);
  56:lib/libdaisy/src/daisy_seed.h **** 
  57:lib/libdaisy/src/daisy_seed.h ****     /** Begins the audio for the seeds builtin audio.
  58:lib/libdaisy/src/daisy_seed.h ****     the specified callback will get called whenever
  59:lib/libdaisy/src/daisy_seed.h ****     new data is ready to be prepared.
  60:lib/libdaisy/src/daisy_seed.h ****     */
  61:lib/libdaisy/src/daisy_seed.h ****     void StartAudio(AudioHandle::InterleavingAudioCallback cb);
  62:lib/libdaisy/src/daisy_seed.h **** 
  63:lib/libdaisy/src/daisy_seed.h ****     /** Begins the audio for the seeds builtin audio.
  64:lib/libdaisy/src/daisy_seed.h ****     the specified callback will get called whenever
  65:lib/libdaisy/src/daisy_seed.h ****     new data is ready to be prepared.
  66:lib/libdaisy/src/daisy_seed.h ****     This will use the newer non-interleaved callback.
  67:lib/libdaisy/src/daisy_seed.h ****     */
ARM GAS  /var/folders/9s/8rp0_f2s1n31qbztm3b5_fdh0000gn/T//cc1V9ehO.s 			page 63


  68:lib/libdaisy/src/daisy_seed.h ****     void StartAudio(AudioHandle::AudioCallback cb);
  69:lib/libdaisy/src/daisy_seed.h **** 
  70:lib/libdaisy/src/daisy_seed.h ****     /** Changes to a new interleaved callback
  71:lib/libdaisy/src/daisy_seed.h ****      */
  72:lib/libdaisy/src/daisy_seed.h ****     void ChangeAudioCallback(AudioHandle::InterleavingAudioCallback cb);
  73:lib/libdaisy/src/daisy_seed.h **** 
  74:lib/libdaisy/src/daisy_seed.h ****     /** Changes to a new multichannel callback
  75:lib/libdaisy/src/daisy_seed.h ****      */
  76:lib/libdaisy/src/daisy_seed.h ****     void ChangeAudioCallback(AudioHandle::AudioCallback cb);
  77:lib/libdaisy/src/daisy_seed.h **** 
  78:lib/libdaisy/src/daisy_seed.h ****     /** Stops the audio if it is running. */
  79:lib/libdaisy/src/daisy_seed.h ****     void StopAudio();
  80:lib/libdaisy/src/daisy_seed.h **** 
  81:lib/libdaisy/src/daisy_seed.h ****     /** Updates the Audio Sample Rate, and reinitializes.
  82:lib/libdaisy/src/daisy_seed.h ****      ** Audio must be stopped for this to work.
  83:lib/libdaisy/src/daisy_seed.h ****      */
  84:lib/libdaisy/src/daisy_seed.h ****     void SetAudioSampleRate(SaiHandle::Config::SampleRate samplerate);
  85:lib/libdaisy/src/daisy_seed.h **** 
  86:lib/libdaisy/src/daisy_seed.h ****     /** Returns the audio sample rate in Hz as a floating point number.
  87:lib/libdaisy/src/daisy_seed.h ****      */
  88:lib/libdaisy/src/daisy_seed.h ****     float AudioSampleRate();
  89:lib/libdaisy/src/daisy_seed.h **** 
  90:lib/libdaisy/src/daisy_seed.h ****     /** Sets the number of samples processed per channel by the audio callback.
  91:lib/libdaisy/src/daisy_seed.h ****      */
  92:lib/libdaisy/src/daisy_seed.h ****     void SetAudioBlockSize(size_t blocksize);
  93:lib/libdaisy/src/daisy_seed.h **** 
  94:lib/libdaisy/src/daisy_seed.h ****     /** Returns the number of samples per channel in a block of audio. */
  95:lib/libdaisy/src/daisy_seed.h ****     size_t AudioBlockSize();
  96:lib/libdaisy/src/daisy_seed.h **** 
  97:lib/libdaisy/src/daisy_seed.h ****     /** Returns the rate in Hz that the Audio callback is called */
  98:lib/libdaisy/src/daisy_seed.h ****     float AudioCallbackRate() const;
  99:lib/libdaisy/src/daisy_seed.h **** 
 100:lib/libdaisy/src/daisy_seed.h ****     /** Sets the state of the built in LED
 101:lib/libdaisy/src/daisy_seed.h ****      */
 102:lib/libdaisy/src/daisy_seed.h ****     void SetLed(bool state);
 103:lib/libdaisy/src/daisy_seed.h **** 
 104:lib/libdaisy/src/daisy_seed.h ****     /** Sets the state of the test point near pin 10
 105:lib/libdaisy/src/daisy_seed.h ****      */
 106:lib/libdaisy/src/daisy_seed.h ****     void SetTestPoint(bool state);
 107:lib/libdaisy/src/daisy_seed.h **** 
 108:lib/libdaisy/src/daisy_seed.h ****     /** Print formatted debug log message
 109:lib/libdaisy/src/daisy_seed.h ****      */
 110:lib/libdaisy/src/daisy_seed.h ****     template <typename... VA>
 111:lib/libdaisy/src/daisy_seed.h ****     static void Print(const char* format, VA... va)
 112:lib/libdaisy/src/daisy_seed.h ****     {
 113:lib/libdaisy/src/daisy_seed.h ****         Log::Print(format, va...);
 114:lib/libdaisy/src/daisy_seed.h ****     }
 115:lib/libdaisy/src/daisy_seed.h **** 
 116:lib/libdaisy/src/daisy_seed.h ****     /** Print formatted debug log message with automatic line termination
 117:lib/libdaisy/src/daisy_seed.h ****     */
 118:lib/libdaisy/src/daisy_seed.h ****     template <typename... VA>
 119:lib/libdaisy/src/daisy_seed.h ****     static void PrintLine(const char* format, VA... va)
 1385              		.loc 3 119 17 view .LVU308
 1386              	.LBB502:
 120:lib/libdaisy/src/daisy_seed.h ****     {
 121:lib/libdaisy/src/daisy_seed.h ****         Log::PrintLine(format, va...);
 1387              		.loc 3 121 23 is_stmt 0 view .LVU309
ARM GAS  /var/folders/9s/8rp0_f2s1n31qbztm3b5_fdh0000gn/T//cc1V9ehO.s 			page 64


 1388 005e 0948     		ldr	r0, .L51+16
 1389 0060 FFF7FEFF 		bl	_ZN5daisy6LoggerILNS_17LoggerDestinationE1EE9PrintLineEPKcz
 1390              	.LVL110:
 1391              		.loc 3 121 23 view .LVU310
 1392              	.LBE502:
 1393              	.LBE501:
 189:Interface.cpp ****         System::Delay(100);
 1394              		.loc 16 189 9 is_stmt 1 view .LVU311
 1395              		.loc 16 189 22 is_stmt 0 view .LVU312
 1396 0064 6420     		movs	r0, #100
 1397 0066 FFF7FEFF 		bl	_ZN5daisy6System5DelayEm
 1398              	.LVL111:
 190:Interface.cpp ****         System::ResetToBootloader();
 1399              		.loc 16 190 9 is_stmt 1 view .LVU313
 191:Interface.cpp ****     }
 192:Interface.cpp **** }
 1400              		.loc 16 192 1 is_stmt 0 view .LVU314
 1401 006a BDE80840 		pop	{r3, lr}
 1402              		.cfi_remember_state
 1403              		.cfi_restore 14
 1404              		.cfi_restore 3
 1405              		.cfi_def_cfa_offset 0
 190:Interface.cpp ****         System::ResetToBootloader();
 1406              		.loc 16 190 34 view .LVU315
 1407 006e FFF7FEBF 		b	_ZN5daisy6System17ResetToBootloaderEv
 1408              	.LVL112:
 1409              	.L43:
 1410              		.cfi_restore_state
 1411              		.loc 16 192 1 view .LVU316
 1412 0072 08BD     		pop	{r3, pc}
 1413              	.L52:
 1414              		.align	2
 1415              	.L51:
 1416 0074 00000000 		.word	.LANCHOR12
 1417 0078 00FF7F47 		.word	1199570688
 1418 007c 00000000 		.word	.LANCHOR13
 1419 0080 00000000 		.word	.LANCHOR14
 1420 0084 00000000 		.word	.LC3
 1421              		.cfi_endproc
 1422              	.LFE5358:
 1424              		.section	.text._Z9UpdateLEDv,"ax",%progbits
 1425              		.align	1
 1426              		.global	_Z9UpdateLEDv
 1427              		.syntax unified
 1428              		.thumb
 1429              		.thumb_func
 1431              	_Z9UpdateLEDv:
 1432              	.LFB5359:
 193:Interface.cpp **** 
 194:Interface.cpp **** void UpdateLED() {
 1433              		.loc 16 194 18 is_stmt 1 view -0
 1434              		.cfi_startproc
 1435              		@ args = 0, pretend = 0, frame = 0
 1436              		@ frame_needed = 0, uses_anonymous_args = 0
 195:Interface.cpp ****     // LED based on voice activity (any voice active)
 196:Interface.cpp ****     bool any_voice_active = false;
 1437              		.loc 16 196 5 view .LVU318
ARM GAS  /var/folders/9s/8rp0_f2s1n31qbztm3b5_fdh0000gn/T//cc1V9ehO.s 			page 65


 1438              	.LVL113:
 197:Interface.cpp ****     for(int v=0; v<NUM_VOICES; ++v) { 
 1439              		.loc 16 197 5 view .LVU319
 1440              	.LBB503:
 1441              		.loc 16 197 19 view .LVU320
 1442              	.LBE503:
 194:Interface.cpp ****     // LED based on voice activity (any voice active)
 1443              		.loc 16 194 18 is_stmt 0 view .LVU321
 1444 0000 08B5     		push	{r3, lr}
 1445              		.cfi_def_cfa_offset 8
 1446              		.cfi_offset 3, -8
 1447              		.cfi_offset 14, -4
 1448 0002 0D4A     		ldr	r2, .L58
 1449              	.LBB504:
 1450              		.loc 16 197 13 view .LVU322
 1451 0004 0023     		movs	r3, #0
 1452              	.LVL114:
 1453              	.L56:
 198:Interface.cpp ****         if(voice_active[v]) { 
 1454              		.loc 16 198 9 is_stmt 1 view .LVU323
 1455              		.loc 16 198 26 is_stmt 0 view .LVU324
 1456 0006 12F8011B 		ldrb	r1, [r2], #1	@ zero_extendqisi2
 1457              		.loc 16 198 9 view .LVU325
 1458 000a 79B9     		cbnz	r1, .L54
 197:Interface.cpp ****     for(int v=0; v<NUM_VOICES; ++v) { 
 1459              		.loc 16 197 5 is_stmt 1 discriminator 2 view .LVU326
 1460 000c 0133     		adds	r3, r3, #1
 1461              	.LVL115:
 197:Interface.cpp ****     for(int v=0; v<NUM_VOICES; ++v) { 
 1462              		.loc 16 197 19 discriminator 2 view .LVU327
 1463 000e 042B     		cmp	r3, #4
 1464 0010 F9D1     		bne	.L56
 197:Interface.cpp ****     for(int v=0; v<NUM_VOICES; ++v) { 
 1465              		.loc 16 197 19 is_stmt 0 discriminator 2 view .LVU328
 1466              	.LBE504:
 199:Interface.cpp ****             any_voice_active = true; 
 200:Interface.cpp ****             break; 
 201:Interface.cpp ****         } 
 202:Interface.cpp ****     }
 203:Interface.cpp ****     
 204:Interface.cpp ****     bool led_on = any_voice_active;
 1467              		.loc 16 204 5 is_stmt 1 view .LVU329
 1468              	.LVL116:
 205:Interface.cpp ****     if (!any_voice_active && (System::GetNow() % 1000) < 500) { // Blink if inactive
 1469              		.loc 16 205 5 view .LVU330
 1470              		.loc 16 205 45 is_stmt 0 view .LVU331
 1471 0012 FFF7FEFF 		bl	_ZN5daisy6System6GetNowEv
 1472              	.LVL117:
 1473              		.loc 16 205 48 view .LVU332
 1474 0016 4FF47A71 		mov	r1, #1000
 1475 001a B0FBF1F3 		udiv	r3, r0, r1
 1476 001e 03FB1101 		mls	r1, r3, r1, r0
 1477              		.loc 16 205 27 view .LVU333
 1478 0022 B1F5FA7F 		cmp	r1, #500
 1479 0026 2CBF     		ite	cs
 1480 0028 0021     		movcs	r1, #0
 1481 002a 0121     		movcc	r1, #1
ARM GAS  /var/folders/9s/8rp0_f2s1n31qbztm3b5_fdh0000gn/T//cc1V9ehO.s 			page 66


 1482              	.LVL118:
 1483              	.L54:
 206:Interface.cpp ****         led_on = true;
 207:Interface.cpp ****     }
 208:Interface.cpp ****     hw.SetLed(led_on);
 1484              		.loc 16 208 5 is_stmt 1 view .LVU334
 1485              		.loc 16 208 14 is_stmt 0 view .LVU335
 1486 002c 0348     		ldr	r0, .L58+4
 209:Interface.cpp **** } ...
 1487              		.loc 16 209 1 view .LVU336
 1488 002e BDE80840 		pop	{r3, lr}
 1489              		.cfi_restore 14
 1490              		.cfi_restore 3
 1491              		.cfi_def_cfa_offset 0
 208:Interface.cpp ****     hw.SetLed(led_on);
 1492              		.loc 16 208 14 view .LVU337
 1493 0032 FFF7FEBF 		b	_ZN5daisy9DaisySeed6SetLedEb
 1494              	.LVL119:
 1495              	.L59:
 208:Interface.cpp ****     hw.SetLed(led_on);
 1496              		.loc 16 208 14 view .LVU338
 1497 0036 00BF     		.align	2
 1498              	.L58:
 1499 0038 00000000 		.word	voice_active
 1500 003c 00000000 		.word	.LANCHOR2
 1501              		.cfi_endproc
 1502              	.LFE5359:
 1504              		.section	.text._ZN10infrasonic13BiquadCascadeILj1ELNS_13BiquadSection10FilterTypeE2EE18updateCoeff
 1505              		.align	1
 1506              		.weak	_ZN10infrasonic13BiquadCascadeILj1ELNS_13BiquadSection10FilterTypeE2EE18updateCoefficientsEv
 1507              		.syntax unified
 1508              		.thumb
 1509              		.thumb_func
 1511              	_ZN10infrasonic13BiquadCascadeILj1ELNS_13BiquadSection10FilterTypeE2EE18updateCoefficientsEv:
 1512              	.LVL120:
 1513              	.LFB6025:
  78:Effects/BiquadFilters.h **** 
  79:Effects/BiquadFilters.h ****         // Individual param update methods recalculate coefficients
  80:Effects/BiquadFilters.h ****         // every time one of them is called. To update everything at once,
  81:Effects/BiquadFilters.h ****         // use SetParams()
  82:Effects/BiquadFilters.h **** 
  83:Effects/BiquadFilters.h ****         void Init(const float sample_rate) {
  84:Effects/BiquadFilters.h ****             sample_rate_ = sample_rate;
  85:Effects/BiquadFilters.h ****             cutoff_hz_ = sample_rate * 0.25f;
  86:Effects/BiquadFilters.h ****             SetFlatResponse();
  87:Effects/BiquadFilters.h ****         }
  88:Effects/BiquadFilters.h **** 
  89:Effects/BiquadFilters.h ****         inline void SetCutoff(const float cutoff_hz)
  90:Effects/BiquadFilters.h ****         {
  91:Effects/BiquadFilters.h ****             cutoff_hz_ = daisysp::fclamp(cutoff_hz, 1.f, sample_rate_ * 0.5f);
  92:Effects/BiquadFilters.h ****             updateCoefficients();
  93:Effects/BiquadFilters.h ****         }
  94:Effects/BiquadFilters.h **** 
  95:Effects/BiquadFilters.h ****         inline void SetQ(const float q)
  96:Effects/BiquadFilters.h ****         {
  97:Effects/BiquadFilters.h ****             for (size_t i=0; i<NumSections; i++) {
  98:Effects/BiquadFilters.h ****                 q_[i] = daisysp::fmax(q, 0.1f);
ARM GAS  /var/folders/9s/8rp0_f2s1n31qbztm3b5_fdh0000gn/T//cc1V9ehO.s 			page 67


  99:Effects/BiquadFilters.h ****             }
 100:Effects/BiquadFilters.h ****             updateCoefficients();
 101:Effects/BiquadFilters.h ****         }
 102:Effects/BiquadFilters.h **** 
 103:Effects/BiquadFilters.h ****         /// Update params simultaneously, recalculating coefficients only once 
 104:Effects/BiquadFilters.h ****         inline void SetParams(const float cutoff_hz, const float q)
 105:Effects/BiquadFilters.h ****         {
 106:Effects/BiquadFilters.h ****             cutoff_hz_ = daisysp::fclamp(cutoff_hz, 1.f, sample_rate_ * 0.5f);
 107:Effects/BiquadFilters.h ****             for (size_t i=0; i<NumSections; i++) {
 108:Effects/BiquadFilters.h ****                 q_[i] = daisysp::fmax(q, 0.1f);
 109:Effects/BiquadFilters.h ****             }
 110:Effects/BiquadFilters.h ****             updateCoefficients();
 111:Effects/BiquadFilters.h ****         }
 112:Effects/BiquadFilters.h **** 
 113:Effects/BiquadFilters.h ****         /// Sets Q values in each section for a truly "flat" (-3dB cutoff point) response
 114:Effects/BiquadFilters.h ****         /// NOTE: per limitations of this class this only works for even-order filters
 115:Effects/BiquadFilters.h ****         inline void SetFlatResponse()
 116:Effects/BiquadFilters.h ****         {
 117:Effects/BiquadFilters.h ****             const float angleIncrement = 1.f / (4.f * static_cast<float>(NumSections));
 118:Effects/BiquadFilters.h ****             for (size_t i=0; i<NumSections; i++) {
 119:Effects/BiquadFilters.h ****                 q_[i] = 1.f / (2.f * cosf(PI_F * (angleIncrement * (i * 2 + 1))));
 120:Effects/BiquadFilters.h ****             }
 121:Effects/BiquadFilters.h ****             updateCoefficients();
 122:Effects/BiquadFilters.h ****         }
 123:Effects/BiquadFilters.h **** 
 124:Effects/BiquadFilters.h ****         inline float Process(const float in)
 125:Effects/BiquadFilters.h ****         {
 126:Effects/BiquadFilters.h ****             float out = in;
 127:Effects/BiquadFilters.h ****             for (auto &biquad : biquads_) {
 128:Effects/BiquadFilters.h ****                 out = biquad.Process(out, 0);
 129:Effects/BiquadFilters.h ****             }
 130:Effects/BiquadFilters.h ****             return out;
 131:Effects/BiquadFilters.h ****         }
 132:Effects/BiquadFilters.h **** 
 133:Effects/BiquadFilters.h ****         /// In-place stereo processing
 134:Effects/BiquadFilters.h ****         inline void ProcessStereo(float &sampL, float &sampR)
 135:Effects/BiquadFilters.h ****         {
 136:Effects/BiquadFilters.h ****             for (auto &biquad : biquads_) {
 137:Effects/BiquadFilters.h ****                 sampL = biquad.Process(sampL, 0);
 138:Effects/BiquadFilters.h ****                 sampR = biquad.Process(sampR, 1);
 139:Effects/BiquadFilters.h ****             }
 140:Effects/BiquadFilters.h ****         }
 141:Effects/BiquadFilters.h **** 
 142:Effects/BiquadFilters.h ****     private:
 143:Effects/BiquadFilters.h **** 
 144:Effects/BiquadFilters.h ****         float sample_rate_;
 145:Effects/BiquadFilters.h ****         float cutoff_hz_, q_[NumSections];
 146:Effects/BiquadFilters.h **** 
 147:Effects/BiquadFilters.h ****         std::array<BiquadSection, NumSections> biquads_;
 148:Effects/BiquadFilters.h **** 
 149:Effects/BiquadFilters.h ****         inline void updateCoefficients() {
 1514              		.loc 10 149 21 is_stmt 1 view -0
 1515              		.cfi_startproc
 1516              		@ args = 0, pretend = 0, frame = 40
 1517              		@ frame_needed = 0, uses_anonymous_args = 0
 1518              	.LBB505:
 150:Effects/BiquadFilters.h ****             for (size_t i=0; i<NumSections; i++) {
ARM GAS  /var/folders/9s/8rp0_f2s1n31qbztm3b5_fdh0000gn/T//cc1V9ehO.s 			page 68


 1519              		.loc 10 150 31 view .LVU340
 1520              	.LBB506:
 1521              	.LBI506:
  95:/Library/DaisyToolchain/0.2.0/arm/arm-none-eabi/include/c++/10.3.1/array ****     {
  96:/Library/DaisyToolchain/0.2.0/arm/arm-none-eabi/include/c++/10.3.1/array ****       typedef _Tp 	    			      value_type;
  97:/Library/DaisyToolchain/0.2.0/arm/arm-none-eabi/include/c++/10.3.1/array ****       typedef value_type*			      pointer;
  98:/Library/DaisyToolchain/0.2.0/arm/arm-none-eabi/include/c++/10.3.1/array ****       typedef const value_type*                       const_pointer;
  99:/Library/DaisyToolchain/0.2.0/arm/arm-none-eabi/include/c++/10.3.1/array ****       typedef value_type&                   	      reference;
 100:/Library/DaisyToolchain/0.2.0/arm/arm-none-eabi/include/c++/10.3.1/array ****       typedef const value_type&             	      const_reference;
 101:/Library/DaisyToolchain/0.2.0/arm/arm-none-eabi/include/c++/10.3.1/array ****       typedef value_type*          		      iterator;
 102:/Library/DaisyToolchain/0.2.0/arm/arm-none-eabi/include/c++/10.3.1/array ****       typedef const value_type*			      const_iterator;
 103:/Library/DaisyToolchain/0.2.0/arm/arm-none-eabi/include/c++/10.3.1/array ****       typedef std::size_t                    	      size_type;
 104:/Library/DaisyToolchain/0.2.0/arm/arm-none-eabi/include/c++/10.3.1/array ****       typedef std::ptrdiff_t                   	      difference_type;
 105:/Library/DaisyToolchain/0.2.0/arm/arm-none-eabi/include/c++/10.3.1/array ****       typedef std::reverse_iterator<iterator>	      reverse_iterator;
 106:/Library/DaisyToolchain/0.2.0/arm/arm-none-eabi/include/c++/10.3.1/array ****       typedef std::reverse_iterator<const_iterator>   const_reverse_iterator;
 107:/Library/DaisyToolchain/0.2.0/arm/arm-none-eabi/include/c++/10.3.1/array **** 
 108:/Library/DaisyToolchain/0.2.0/arm/arm-none-eabi/include/c++/10.3.1/array ****       // Support for zero-sized arrays mandatory.
 109:/Library/DaisyToolchain/0.2.0/arm/arm-none-eabi/include/c++/10.3.1/array ****       typedef _GLIBCXX_STD_C::__array_traits<_Tp, _Nm> _AT_Type;
 110:/Library/DaisyToolchain/0.2.0/arm/arm-none-eabi/include/c++/10.3.1/array ****       typename _AT_Type::_Type                         _M_elems;
 111:/Library/DaisyToolchain/0.2.0/arm/arm-none-eabi/include/c++/10.3.1/array **** 
 112:/Library/DaisyToolchain/0.2.0/arm/arm-none-eabi/include/c++/10.3.1/array ****       // No explicit construct/copy/destroy for aggregate type.
 113:/Library/DaisyToolchain/0.2.0/arm/arm-none-eabi/include/c++/10.3.1/array **** 
 114:/Library/DaisyToolchain/0.2.0/arm/arm-none-eabi/include/c++/10.3.1/array ****       // DR 776.
 115:/Library/DaisyToolchain/0.2.0/arm/arm-none-eabi/include/c++/10.3.1/array ****       _GLIBCXX20_CONSTEXPR void
 116:/Library/DaisyToolchain/0.2.0/arm/arm-none-eabi/include/c++/10.3.1/array ****       fill(const value_type& __u)
 117:/Library/DaisyToolchain/0.2.0/arm/arm-none-eabi/include/c++/10.3.1/array ****       { std::fill_n(begin(), size(), __u); }
 118:/Library/DaisyToolchain/0.2.0/arm/arm-none-eabi/include/c++/10.3.1/array **** 
 119:/Library/DaisyToolchain/0.2.0/arm/arm-none-eabi/include/c++/10.3.1/array ****       _GLIBCXX20_CONSTEXPR void
 120:/Library/DaisyToolchain/0.2.0/arm/arm-none-eabi/include/c++/10.3.1/array ****       swap(array& __other)
 121:/Library/DaisyToolchain/0.2.0/arm/arm-none-eabi/include/c++/10.3.1/array ****       noexcept(_AT_Type::_Is_nothrow_swappable::value)
 122:/Library/DaisyToolchain/0.2.0/arm/arm-none-eabi/include/c++/10.3.1/array ****       { std::swap_ranges(begin(), end(), __other.begin()); }
 123:/Library/DaisyToolchain/0.2.0/arm/arm-none-eabi/include/c++/10.3.1/array **** 
 124:/Library/DaisyToolchain/0.2.0/arm/arm-none-eabi/include/c++/10.3.1/array ****       // Iterators.
 125:/Library/DaisyToolchain/0.2.0/arm/arm-none-eabi/include/c++/10.3.1/array ****       _GLIBCXX17_CONSTEXPR iterator
 126:/Library/DaisyToolchain/0.2.0/arm/arm-none-eabi/include/c++/10.3.1/array ****       begin() noexcept
 127:/Library/DaisyToolchain/0.2.0/arm/arm-none-eabi/include/c++/10.3.1/array ****       { return iterator(data()); }
 128:/Library/DaisyToolchain/0.2.0/arm/arm-none-eabi/include/c++/10.3.1/array **** 
 129:/Library/DaisyToolchain/0.2.0/arm/arm-none-eabi/include/c++/10.3.1/array ****       _GLIBCXX17_CONSTEXPR const_iterator
 130:/Library/DaisyToolchain/0.2.0/arm/arm-none-eabi/include/c++/10.3.1/array ****       begin() const noexcept
 131:/Library/DaisyToolchain/0.2.0/arm/arm-none-eabi/include/c++/10.3.1/array ****       { return const_iterator(data()); }
 132:/Library/DaisyToolchain/0.2.0/arm/arm-none-eabi/include/c++/10.3.1/array **** 
 133:/Library/DaisyToolchain/0.2.0/arm/arm-none-eabi/include/c++/10.3.1/array ****       _GLIBCXX17_CONSTEXPR iterator
 134:/Library/DaisyToolchain/0.2.0/arm/arm-none-eabi/include/c++/10.3.1/array ****       end() noexcept
 135:/Library/DaisyToolchain/0.2.0/arm/arm-none-eabi/include/c++/10.3.1/array ****       { return iterator(data() + _Nm); }
 136:/Library/DaisyToolchain/0.2.0/arm/arm-none-eabi/include/c++/10.3.1/array **** 
 137:/Library/DaisyToolchain/0.2.0/arm/arm-none-eabi/include/c++/10.3.1/array ****       _GLIBCXX17_CONSTEXPR const_iterator
 138:/Library/DaisyToolchain/0.2.0/arm/arm-none-eabi/include/c++/10.3.1/array ****       end() const noexcept
 139:/Library/DaisyToolchain/0.2.0/arm/arm-none-eabi/include/c++/10.3.1/array ****       { return const_iterator(data() + _Nm); }
 140:/Library/DaisyToolchain/0.2.0/arm/arm-none-eabi/include/c++/10.3.1/array **** 
 141:/Library/DaisyToolchain/0.2.0/arm/arm-none-eabi/include/c++/10.3.1/array ****       _GLIBCXX17_CONSTEXPR reverse_iterator
 142:/Library/DaisyToolchain/0.2.0/arm/arm-none-eabi/include/c++/10.3.1/array ****       rbegin() noexcept
 143:/Library/DaisyToolchain/0.2.0/arm/arm-none-eabi/include/c++/10.3.1/array ****       { return reverse_iterator(end()); }
 144:/Library/DaisyToolchain/0.2.0/arm/arm-none-eabi/include/c++/10.3.1/array **** 
 145:/Library/DaisyToolchain/0.2.0/arm/arm-none-eabi/include/c++/10.3.1/array ****       _GLIBCXX17_CONSTEXPR const_reverse_iterator
 146:/Library/DaisyToolchain/0.2.0/arm/arm-none-eabi/include/c++/10.3.1/array ****       rbegin() const noexcept
 147:/Library/DaisyToolchain/0.2.0/arm/arm-none-eabi/include/c++/10.3.1/array ****       { return const_reverse_iterator(end()); }
 148:/Library/DaisyToolchain/0.2.0/arm/arm-none-eabi/include/c++/10.3.1/array **** 
ARM GAS  /var/folders/9s/8rp0_f2s1n31qbztm3b5_fdh0000gn/T//cc1V9ehO.s 			page 69


 149:/Library/DaisyToolchain/0.2.0/arm/arm-none-eabi/include/c++/10.3.1/array ****       _GLIBCXX17_CONSTEXPR reverse_iterator
 150:/Library/DaisyToolchain/0.2.0/arm/arm-none-eabi/include/c++/10.3.1/array ****       rend() noexcept
 151:/Library/DaisyToolchain/0.2.0/arm/arm-none-eabi/include/c++/10.3.1/array ****       { return reverse_iterator(begin()); }
 152:/Library/DaisyToolchain/0.2.0/arm/arm-none-eabi/include/c++/10.3.1/array **** 
 153:/Library/DaisyToolchain/0.2.0/arm/arm-none-eabi/include/c++/10.3.1/array ****       _GLIBCXX17_CONSTEXPR const_reverse_iterator
 154:/Library/DaisyToolchain/0.2.0/arm/arm-none-eabi/include/c++/10.3.1/array ****       rend() const noexcept
 155:/Library/DaisyToolchain/0.2.0/arm/arm-none-eabi/include/c++/10.3.1/array ****       { return const_reverse_iterator(begin()); }
 156:/Library/DaisyToolchain/0.2.0/arm/arm-none-eabi/include/c++/10.3.1/array **** 
 157:/Library/DaisyToolchain/0.2.0/arm/arm-none-eabi/include/c++/10.3.1/array ****       _GLIBCXX17_CONSTEXPR const_iterator
 158:/Library/DaisyToolchain/0.2.0/arm/arm-none-eabi/include/c++/10.3.1/array ****       cbegin() const noexcept
 159:/Library/DaisyToolchain/0.2.0/arm/arm-none-eabi/include/c++/10.3.1/array ****       { return const_iterator(data()); }
 160:/Library/DaisyToolchain/0.2.0/arm/arm-none-eabi/include/c++/10.3.1/array **** 
 161:/Library/DaisyToolchain/0.2.0/arm/arm-none-eabi/include/c++/10.3.1/array ****       _GLIBCXX17_CONSTEXPR const_iterator
 162:/Library/DaisyToolchain/0.2.0/arm/arm-none-eabi/include/c++/10.3.1/array ****       cend() const noexcept
 163:/Library/DaisyToolchain/0.2.0/arm/arm-none-eabi/include/c++/10.3.1/array ****       { return const_iterator(data() + _Nm); }
 164:/Library/DaisyToolchain/0.2.0/arm/arm-none-eabi/include/c++/10.3.1/array **** 
 165:/Library/DaisyToolchain/0.2.0/arm/arm-none-eabi/include/c++/10.3.1/array ****       _GLIBCXX17_CONSTEXPR const_reverse_iterator
 166:/Library/DaisyToolchain/0.2.0/arm/arm-none-eabi/include/c++/10.3.1/array ****       crbegin() const noexcept
 167:/Library/DaisyToolchain/0.2.0/arm/arm-none-eabi/include/c++/10.3.1/array ****       { return const_reverse_iterator(end()); }
 168:/Library/DaisyToolchain/0.2.0/arm/arm-none-eabi/include/c++/10.3.1/array **** 
 169:/Library/DaisyToolchain/0.2.0/arm/arm-none-eabi/include/c++/10.3.1/array ****       _GLIBCXX17_CONSTEXPR const_reverse_iterator
 170:/Library/DaisyToolchain/0.2.0/arm/arm-none-eabi/include/c++/10.3.1/array ****       crend() const noexcept
 171:/Library/DaisyToolchain/0.2.0/arm/arm-none-eabi/include/c++/10.3.1/array ****       { return const_reverse_iterator(begin()); }
 172:/Library/DaisyToolchain/0.2.0/arm/arm-none-eabi/include/c++/10.3.1/array **** 
 173:/Library/DaisyToolchain/0.2.0/arm/arm-none-eabi/include/c++/10.3.1/array ****       // Capacity.
 174:/Library/DaisyToolchain/0.2.0/arm/arm-none-eabi/include/c++/10.3.1/array ****       constexpr size_type
 175:/Library/DaisyToolchain/0.2.0/arm/arm-none-eabi/include/c++/10.3.1/array ****       size() const noexcept { return _Nm; }
 176:/Library/DaisyToolchain/0.2.0/arm/arm-none-eabi/include/c++/10.3.1/array **** 
 177:/Library/DaisyToolchain/0.2.0/arm/arm-none-eabi/include/c++/10.3.1/array ****       constexpr size_type
 178:/Library/DaisyToolchain/0.2.0/arm/arm-none-eabi/include/c++/10.3.1/array ****       max_size() const noexcept { return _Nm; }
 179:/Library/DaisyToolchain/0.2.0/arm/arm-none-eabi/include/c++/10.3.1/array **** 
 180:/Library/DaisyToolchain/0.2.0/arm/arm-none-eabi/include/c++/10.3.1/array ****       _GLIBCXX_NODISCARD constexpr bool
 181:/Library/DaisyToolchain/0.2.0/arm/arm-none-eabi/include/c++/10.3.1/array ****       empty() const noexcept { return size() == 0; }
 182:/Library/DaisyToolchain/0.2.0/arm/arm-none-eabi/include/c++/10.3.1/array **** 
 183:/Library/DaisyToolchain/0.2.0/arm/arm-none-eabi/include/c++/10.3.1/array ****       // Element access.
 184:/Library/DaisyToolchain/0.2.0/arm/arm-none-eabi/include/c++/10.3.1/array ****       _GLIBCXX17_CONSTEXPR reference
 185:/Library/DaisyToolchain/0.2.0/arm/arm-none-eabi/include/c++/10.3.1/array ****       operator[](size_type __n) noexcept
 1522              		.loc 11 185 7 view .LVU341
 1523              	.LBB507:
 1524              	.LBI507:
  55:/Library/DaisyToolchain/0.2.0/arm/arm-none-eabi/include/c++/10.3.1/array ****       { return const_cast<_Tp&>(__t[__n]); }
 1525              		.loc 11 55 7 view .LVU342
  55:/Library/DaisyToolchain/0.2.0/arm/arm-none-eabi/include/c++/10.3.1/array ****       { return const_cast<_Tp&>(__t[__n]); }
 1526              		.loc 11 55 7 is_stmt 0 view .LVU343
 1527              	.LBE507:
 1528              	.LBE506:
 1529              	.LBE505:
 149:Effects/BiquadFilters.h ****             for (size_t i=0; i<NumSections; i++) {
 1530              		.loc 10 149 21 view .LVU344
 1531 0000 70B5     		push	{r4, r5, r6, lr}
 1532              		.cfi_def_cfa_offset 16
 1533              		.cfi_offset 4, -16
 1534              		.cfi_offset 5, -12
 1535              		.cfi_offset 6, -8
 1536              		.cfi_offset 14, -4
 1537 0002 8AB0     		sub	sp, sp, #40
 1538              		.cfi_def_cfa_offset 56
ARM GAS  /var/folders/9s/8rp0_f2s1n31qbztm3b5_fdh0000gn/T//cc1V9ehO.s 			page 70


 1539              	.LBB510:
 151:Effects/BiquadFilters.h ****                 biquads_[i].SetCoefficients(BiquadSection::CalculateCoefficients(FilterType, sample
 1540              		.loc 10 151 44 view .LVU345
 1541 0004 90ED021A 		vldr.32	s2, [r0, #8]
 1542 0008 D0ED010A 		vldr.32	s1, [r0, #4]
 1543 000c 0446     		mov	r4, r0
 1544 000e 6D46     		mov	r5, sp
 1545 0010 90ED000A 		vldr.32	s0, [r0]
 1546 0014 0221     		movs	r1, #2
 1547 0016 6846     		mov	r0, sp
 1548              	.LVL121:
 1549              		.loc 10 151 44 view .LVU346
 1550 0018 FFF7FEFF 		bl	_ZN10infrasonic13BiquadSection21CalculateCoefficientsENS0_10FilterTypeEfff
 1551              	.LVL122:
 1552              		.loc 10 151 44 view .LVU347
 1553 001c 05AE     		add	r6, sp, #20
 1554 001e 0C34     		adds	r4, r4, #12
 1555              	.LVL123:
 1556              		.loc 10 151 44 view .LVU348
 1557 0020 0FCD     		ldmia	r5!, {r0, r1, r2, r3}
 1558 0022 0FC6     		stmia	r6!, {r0, r1, r2, r3}
 1559 0024 2E68     		ldr	r6, [r5]
 1560              	.LBB508:
 1561              	.LBI508:
  37:Effects/BiquadFilters.h **** 
 1562              		.loc 10 37 14 is_stmt 1 view .LVU349
 1563              	.LBB509:
  37:Effects/BiquadFilters.h **** 
 1564              		.loc 10 37 65 view .LVU350
  37:Effects/BiquadFilters.h **** 
 1565              		.loc 10 37 72 is_stmt 0 view .LVU351
 1566 0026 05AD     		add	r5, sp, #20
 1567 0028 0FCD     		ldmia	r5!, {r0, r1, r2, r3}
 1568 002a 0FC4     		stmia	r4!, {r0, r1, r2, r3}
 1569              	.LVL124:
  37:Effects/BiquadFilters.h **** 
 1570              		.loc 10 37 72 view .LVU352
 1571 002c 2660     		str	r6, [r4]
 1572              	.LVL125:
  37:Effects/BiquadFilters.h **** 
 1573              		.loc 10 37 72 view .LVU353
 1574              	.LBE509:
 1575              	.LBE508:
 150:Effects/BiquadFilters.h ****                 biquads_[i].SetCoefficients(BiquadSection::CalculateCoefficients(FilterType, sample
 1576              		.loc 10 150 13 is_stmt 1 view .LVU354
 150:Effects/BiquadFilters.h ****                 biquads_[i].SetCoefficients(BiquadSection::CalculateCoefficients(FilterType, sample
 1577              		.loc 10 150 31 view .LVU355
 1578              	.LBE510:
 152:Effects/BiquadFilters.h ****             }
 153:Effects/BiquadFilters.h ****         }
 1579              		.loc 10 153 9 is_stmt 0 view .LVU356
 1580 002e 0AB0     		add	sp, sp, #40
 1581              		.cfi_def_cfa_offset 16
 1582              		@ sp needed
 1583 0030 70BD     		pop	{r4, r5, r6, pc}
 1584              		.loc 10 153 9 view .LVU357
 1585              		.cfi_endproc
ARM GAS  /var/folders/9s/8rp0_f2s1n31qbztm3b5_fdh0000gn/T//cc1V9ehO.s 			page 71


 1586              	.LFE6025:
 1588              		.section	.text._Z15InitializeDelayv,"ax",%progbits
 1589              		.align	1
 1590              		.global	_Z15InitializeDelayv
 1591              		.syntax unified
 1592              		.thumb
 1593              		.thumb_func
 1595              	_Z15InitializeDelayv:
 1596              	.LFB5349:
 102:Interface.cpp **** void InitializeDelay() {
 1597              		.loc 16 102 24 is_stmt 1 view -0
 1598              		.cfi_startproc
 1599              		@ args = 0, pretend = 0, frame = 0
 1600              		@ frame_needed = 0, uses_anonymous_args = 0
 104:Interface.cpp ****     delay.Init(sample_rate); 
 1601              		.loc 16 104 5 view .LVU359
 102:Interface.cpp **** void InitializeDelay() {
 1602              		.loc 16 102 24 is_stmt 0 view .LVU360
 1603 0000 F8B5     		push	{r3, r4, r5, r6, r7, lr}
 1604              		.cfi_def_cfa_offset 24
 1605              		.cfi_offset 3, -24
 1606              		.cfi_offset 4, -20
 1607              		.cfi_offset 5, -16
 1608              		.cfi_offset 6, -12
 1609              		.cfi_offset 7, -8
 1610              		.cfi_offset 14, -4
 1611              	.LBB543:
 1612              	.LBB544:
  26:Effects/EchoDelay.h **** 
  27:Effects/EchoDelay.h ****         void Init(float sample_rate)
  28:Effects/EchoDelay.h ****         {
  29:Effects/EchoDelay.h ****             sample_rate_ = sample_rate;
 1613              		.loc 9 29 26 view .LVU361
 1614 0002 2C4C     		ldr	r4, .L64
 1615              	.LBB545:
 1616              	.LBB546:
 1617              	.LBB547:
 1618              	.LBB548:
  33:lib/DaisySP/Source/Utility/delayline.h ****     /** initializes the delay line by clearing the values within, and setting delay to 1 sample.
  34:lib/DaisySP/Source/Utility/delayline.h ****     */
  35:lib/DaisySP/Source/Utility/delayline.h ****     void Init() { Reset(); }
  36:lib/DaisySP/Source/Utility/delayline.h ****     /** clears buffer, sets write ptr to 0, and delay to 1 sample.
  37:lib/DaisySP/Source/Utility/delayline.h ****     */
  38:lib/DaisySP/Source/Utility/delayline.h ****     void Reset()
  39:lib/DaisySP/Source/Utility/delayline.h ****     {
  40:lib/DaisySP/Source/Utility/delayline.h ****         for(size_t i = 0; i < max_size; i++)
  41:lib/DaisySP/Source/Utility/delayline.h ****         {
  42:lib/DaisySP/Source/Utility/delayline.h ****             line_[i] = T(0);
 1619              		.loc 12 42 22 view .LVU362
 1620 0004 0021     		movs	r1, #0
 1621              	.LBE548:
 1622              	.LBE547:
 1623              	.LBE546:
 1624              	.LBE545:
 1625              	.LBE544:
 1626              	.LBE543:
 104:Interface.cpp ****     delay.Init(sample_rate); 
ARM GAS  /var/folders/9s/8rp0_f2s1n31qbztm3b5_fdh0000gn/T//cc1V9ehO.s 			page 72


 1627              		.loc 16 104 15 view .LVU363
 1628 0006 2C4B     		ldr	r3, .L64+4
 1629              	.LBB606:
 1630              	.LBB603:
 1631              		.loc 9 29 26 view .LVU364
 1632 0008 2046     		mov	r0, r4
 1633              	.LBB557:
 1634              	.LBB554:
 1635              	.LBB551:
 1636              	.LBB549:
 1637              		.loc 12 42 22 view .LVU365
 1638 000a 2C4A     		ldr	r2, .L64+8
 1639              	.LBE549:
 1640              	.LBE551:
 1641              	.LBE554:
 1642              	.LBE557:
 1643              	.LBE603:
 1644              	.LBE606:
 102:Interface.cpp **** void InitializeDelay() {
 1645              		.loc 16 102 24 view .LVU366
 1646 000c 2DED028B 		vpush.64	{d8}
 1647              		.cfi_def_cfa_offset 32
 1648              		.cfi_offset 80, -32
 1649              		.cfi_offset 81, -28
 104:Interface.cpp ****     delay.Init(sample_rate); 
 1650              		.loc 16 104 15 view .LVU367
 1651 0010 93ED008A 		vldr.32	s16, [r3]
 1652              	.LVL126:
 1653              	.LBB607:
 1654              	.LBI543:
  27:Effects/EchoDelay.h ****         {
 1655              		.loc 9 27 14 is_stmt 1 view .LVU368
 1656              	.LBB604:
 1657              		.loc 9 29 26 is_stmt 0 view .LVU369
 1658 0014 2030     		adds	r0, r0, #32
 1659              	.LBB558:
 1660              	.LBB559:
 106:Effects/BiquadFilters.h ****             for (size_t i=0; i<NumSections; i++) {
 1661              		.loc 10 106 41 view .LVU370
 1662 0016 F6EE008A 		vmov.f32	s17, #5.0e-1
 1663              	.LBE559:
 1664              	.LBE558:
 1665              		.loc 9 29 26 view .LVU371
 1666 001a 84ED008A 		vstr.32	s16, [r4]
 1667              	.LVL127:
 1668              	.LBB581:
 1669              	.LBI545:
  35:lib/DaisySP/Source/Utility/delayline.h ****     /** clears buffer, sets write ptr to 0, and delay to 1 sample.
 1670              		.loc 12 35 10 is_stmt 1 view .LVU372
 1671              	.LBB555:
 1672              	.LBI546:
  38:lib/DaisySP/Source/Utility/delayline.h ****     {
 1673              		.loc 12 38 10 view .LVU373
 1674              	.LBB552:
 1675              	.LBB550:
  40:lib/DaisySP/Source/Utility/delayline.h ****         {
 1676              		.loc 12 40 29 view .LVU374
ARM GAS  /var/folders/9s/8rp0_f2s1n31qbztm3b5_fdh0000gn/T//cc1V9ehO.s 			page 73


 1677              		.loc 12 42 22 is_stmt 0 view .LVU375
 1678 001e FFF7FEFF 		bl	memset
 1679              	.LVL128:
 1680              		.loc 12 42 22 view .LVU376
 1681              	.LBE550:
  43:lib/DaisySP/Source/Utility/delayline.h ****         }
  44:lib/DaisySP/Source/Utility/delayline.h ****         write_ptr_ = 0;
  45:lib/DaisySP/Source/Utility/delayline.h ****         delay_     = 1;
 1682              		.loc 12 45 20 view .LVU377
 1683 0022 0022     		movs	r2, #0
 1684 0024 0123     		movs	r3, #1
 1685              	.LBE552:
 1686              	.LBE555:
 1687              	.LBE581:
 1688              	.LBB582:
 1689              	.LBB583:
  85:Effects/BiquadFilters.h ****             SetFlatResponse();
 1690              		.loc 10 85 38 view .LVU378
 1691 0026 F5EE007A 		vmov.f32	s15, #2.5e-1
 1692              	.LBE583:
 1693              	.LBE582:
 1694              	.LBB597:
 1695              	.LBB556:
 1696              	.LBB553:
 1697              		.loc 12 45 20 view .LVU379
 1698 002a C4E90623 		strd	r2, r3, [r4, #24]
 1699              	.LVL129:
 1700              		.loc 12 45 20 view .LVU380
 1701              	.LBE553:
 1702              	.LBE556:
 1703              	.LBE597:
 1704              	.LBB598:
 1705              	.LBI582:
  83:Effects/BiquadFilters.h ****             sample_rate_ = sample_rate;
 1706              		.loc 10 83 14 is_stmt 1 view .LVU381
 1707              	.LBB595:
  84:Effects/BiquadFilters.h ****             cutoff_hz_ = sample_rate * 0.25f;
 1708              		.loc 10 84 26 is_stmt 0 view .LVU382
 1709 002e 04F53833 		add	r3, r4, #188416
 1710 0032 03F56267 		add	r7, r3, #3616
  85:Effects/BiquadFilters.h ****             SetFlatResponse();
 1711              		.loc 10 85 24 view .LVU383
 1712 0036 03F62466 		addw	r6, r3, #3620
 1713              	.LBB584:
 1714              	.LBB585:
 1715              	.LBB586:
 119:Effects/BiquadFilters.h ****             }
 1716              		.loc 10 119 23 view .LVU384
 1717 003a 03F62865 		addw	r5, r3, #3624
 1718 003e 204B     		ldr	r3, .L64+12
 1719              	.LBE586:
 1720              	.LBE585:
 1721              	.LBE584:
  84:Effects/BiquadFilters.h ****             cutoff_hz_ = sample_rate * 0.25f;
 1722              		.loc 10 84 26 view .LVU385
 1723 0040 87ED008A 		vstr.32	s16, [r7]
  85:Effects/BiquadFilters.h ****             SetFlatResponse();
ARM GAS  /var/folders/9s/8rp0_f2s1n31qbztm3b5_fdh0000gn/T//cc1V9ehO.s 			page 74


 1724              		.loc 10 85 38 view .LVU386
 1725 0044 28EE278A 		vmul.f32	s16, s16, s15
 1726              	.LVL130:
 1727              	.LBB592:
 1728              	.LBB589:
 121:Effects/BiquadFilters.h ****         }
 1729              		.loc 10 121 31 view .LVU387
 1730 0048 3846     		mov	r0, r7
 1731              	.LBB587:
 119:Effects/BiquadFilters.h ****             }
 1732              		.loc 10 119 23 view .LVU388
 1733 004a 2B60     		str	r3, [r5]	@ float
 1734              	.LBE587:
 1735              	.LBE589:
 1736              	.LBE592:
  85:Effects/BiquadFilters.h ****             SetFlatResponse();
 1737              		.loc 10 85 24 view .LVU389
 1738 004c 86ED008A 		vstr.32	s16, [r6]
 1739              	.LVL131:
 1740              	.LBB593:
 1741              	.LBI584:
 115:Effects/BiquadFilters.h ****         {
 1742              		.loc 10 115 21 is_stmt 1 view .LVU390
 1743              	.LBB590:
 1744              	.LBB588:
 118:Effects/BiquadFilters.h ****                 q_[i] = 1.f / (2.f * cosf(PI_F * (angleIncrement * (i * 2 + 1))));
 1745              		.loc 10 118 31 view .LVU391
 118:Effects/BiquadFilters.h ****                 q_[i] = 1.f / (2.f * cosf(PI_F * (angleIncrement * (i * 2 + 1))));
 1746              		.loc 10 118 13 view .LVU392
 118:Effects/BiquadFilters.h ****                 q_[i] = 1.f / (2.f * cosf(PI_F * (angleIncrement * (i * 2 + 1))));
 1747              		.loc 10 118 31 view .LVU393
 1748              	.LBE588:
 1749              	.LBE590:
 1750              	.LBE593:
 1751              	.LBE595:
 1752              	.LBE598:
 1753              	.LBB599:
 1754              	.LBB578:
 1755              	.LBB560:
 1756              	.LBB561:
 1757              	.LBB562:
 1758              		.file 22 "lib/DaisySP/Source/Utility/dsp.h"
   1:lib/DaisySP/Source/Utility/dsp.h **** /*
   2:lib/DaisySP/Source/Utility/dsp.h **** Copyright (c) 2020 Electrosmith, Corp, Emilie Gillet
   3:lib/DaisySP/Source/Utility/dsp.h **** 
   4:lib/DaisySP/Source/Utility/dsp.h **** Use of this source code is governed by an MIT-style
   5:lib/DaisySP/Source/Utility/dsp.h **** license that can be found in the LICENSE file or at
   6:lib/DaisySP/Source/Utility/dsp.h **** https://opensource.org/licenses/MIT.
   7:lib/DaisySP/Source/Utility/dsp.h **** */
   8:lib/DaisySP/Source/Utility/dsp.h **** 
   9:lib/DaisySP/Source/Utility/dsp.h **** /** Helpful defines, functions, and other utilities for use in/with daisysp modules.
  10:lib/DaisySP/Source/Utility/dsp.h **** */
  11:lib/DaisySP/Source/Utility/dsp.h **** #pragma once
  12:lib/DaisySP/Source/Utility/dsp.h **** #ifndef DSY_CORE_DSP
  13:lib/DaisySP/Source/Utility/dsp.h **** #define DSY_CORE_DSP
  14:lib/DaisySP/Source/Utility/dsp.h **** #include <cassert>
  15:lib/DaisySP/Source/Utility/dsp.h **** #include <cstdint>
ARM GAS  /var/folders/9s/8rp0_f2s1n31qbztm3b5_fdh0000gn/T//cc1V9ehO.s 			page 75


  16:lib/DaisySP/Source/Utility/dsp.h **** #include <random>
  17:lib/DaisySP/Source/Utility/dsp.h **** #include <cmath>
  18:lib/DaisySP/Source/Utility/dsp.h **** 
  19:lib/DaisySP/Source/Utility/dsp.h **** /** PIs
  20:lib/DaisySP/Source/Utility/dsp.h **** */
  21:lib/DaisySP/Source/Utility/dsp.h **** #define PI_F 3.1415927410125732421875f
  22:lib/DaisySP/Source/Utility/dsp.h **** #define TWOPI_F (2.0f * PI_F)
  23:lib/DaisySP/Source/Utility/dsp.h **** #define HALFPI_F (PI_F * 0.5f)
  24:lib/DaisySP/Source/Utility/dsp.h **** #define DSY_MIN(in, mn) (in < mn ? in : mn)
  25:lib/DaisySP/Source/Utility/dsp.h **** #define DSY_MAX(in, mx) (in > mx ? in : mx)
  26:lib/DaisySP/Source/Utility/dsp.h **** #define DSY_CLAMP(in, mn, mx) (DSY_MIN(DSY_MAX(in, mn), mx))
  27:lib/DaisySP/Source/Utility/dsp.h **** #define DSY_COUNTOF(_arr) (sizeof(_arr) / sizeof(_arr[0]))
  28:lib/DaisySP/Source/Utility/dsp.h **** 
  29:lib/DaisySP/Source/Utility/dsp.h **** namespace daisysp
  30:lib/DaisySP/Source/Utility/dsp.h **** {
  31:lib/DaisySP/Source/Utility/dsp.h **** //Avoids division for random floats. e.g. rand() * kRandFrac
  32:lib/DaisySP/Source/Utility/dsp.h **** static constexpr float kRandFrac = 1.f / (float)RAND_MAX;
  33:lib/DaisySP/Source/Utility/dsp.h **** 
  34:lib/DaisySP/Source/Utility/dsp.h **** //Convert from semitones to other units. e.g. 2 ^ (kOneTwelfth * x)
  35:lib/DaisySP/Source/Utility/dsp.h **** static constexpr float kOneTwelfth = 1.f / 12.f;
  36:lib/DaisySP/Source/Utility/dsp.h **** 
  37:lib/DaisySP/Source/Utility/dsp.h **** /** efficient floating point min/max
  38:lib/DaisySP/Source/Utility/dsp.h **** c/o stephen mccaul
  39:lib/DaisySP/Source/Utility/dsp.h **** */
  40:lib/DaisySP/Source/Utility/dsp.h **** inline float fmax(float a, float b)
  41:lib/DaisySP/Source/Utility/dsp.h **** {
  42:lib/DaisySP/Source/Utility/dsp.h ****     float r;
  43:lib/DaisySP/Source/Utility/dsp.h **** #ifdef __arm__
  44:lib/DaisySP/Source/Utility/dsp.h ****     asm("vmaxnm.f32 %[d], %[n], %[m]" : [d] "=t"(r) : [n] "t"(a), [m] "t"(b) :);
 1759              		.loc 22 44 5 is_stmt 0 view .LVU394
 1760 0050 B7EE008A 		vmov.f32	s16, #1.0e+0
 1761              	.LBE562:
 1762              	.LBE561:
 1763              	.LBE560:
 1764              	.LBE578:
 1765              	.LBE599:
 1766              	.LBB600:
 1767              	.LBB596:
 1768              	.LBB594:
 1769              	.LBB591:
 121:Effects/BiquadFilters.h ****         }
 1770              		.loc 10 121 31 view .LVU395
 1771 0054 FFF7FEFF 		bl	_ZN10infrasonic13BiquadCascadeILj1ELNS_13BiquadSection10FilterTypeE2EE18updateCoefficientsEv
 1772              	.LVL132:
 121:Effects/BiquadFilters.h ****         }
 1773              		.loc 10 121 31 view .LVU396
 1774              	.LBE591:
 1775              	.LBE594:
 1776              	.LBE596:
 1777              	.LBE600:
 1778              	.LBB601:
 1779              	.LBI558:
 104:Effects/BiquadFilters.h ****         {
 1780              		.loc 10 104 21 is_stmt 1 view .LVU397
 1781              	.LBB579:
 1782              	.LBB571:
 1783              	.LBI560:
ARM GAS  /var/folders/9s/8rp0_f2s1n31qbztm3b5_fdh0000gn/T//cc1V9ehO.s 			page 76


  45:lib/DaisySP/Source/Utility/dsp.h **** #else
  46:lib/DaisySP/Source/Utility/dsp.h ****     r = (a > b) ? a : b;
  47:lib/DaisySP/Source/Utility/dsp.h **** #endif // __arm__
  48:lib/DaisySP/Source/Utility/dsp.h ****     return r;
  49:lib/DaisySP/Source/Utility/dsp.h **** }
  50:lib/DaisySP/Source/Utility/dsp.h **** 
  51:lib/DaisySP/Source/Utility/dsp.h **** inline float fmin(float a, float b)
  52:lib/DaisySP/Source/Utility/dsp.h **** {
  53:lib/DaisySP/Source/Utility/dsp.h ****     float r;
  54:lib/DaisySP/Source/Utility/dsp.h **** #ifdef __arm__
  55:lib/DaisySP/Source/Utility/dsp.h ****     asm("vminnm.f32 %[d], %[n], %[m]" : [d] "=t"(r) : [n] "t"(a), [m] "t"(b) :);
  56:lib/DaisySP/Source/Utility/dsp.h **** #else
  57:lib/DaisySP/Source/Utility/dsp.h ****     r = (a < b) ? a : b;
  58:lib/DaisySP/Source/Utility/dsp.h **** #endif // __arm__
  59:lib/DaisySP/Source/Utility/dsp.h ****     return r;
  60:lib/DaisySP/Source/Utility/dsp.h **** }
  61:lib/DaisySP/Source/Utility/dsp.h **** 
  62:lib/DaisySP/Source/Utility/dsp.h **** /** quick fp clamp
  63:lib/DaisySP/Source/Utility/dsp.h **** */
  64:lib/DaisySP/Source/Utility/dsp.h **** inline float fclamp(float in, float min, float max)
 1784              		.loc 22 64 14 view .LVU398
 1785              	.LBE571:
 1786              	.LBE579:
 1787              	.LBE601:
 1788              	.LBE604:
 1789              	.LBE607:
  65:lib/DaisySP/Source/Utility/dsp.h **** {
  66:lib/DaisySP/Source/Utility/dsp.h ****     return fmin(fmax(in, min), max);
 1790              		.loc 22 66 5 view .LVU399
 1791              	.LBB608:
 1792              	.LBB605:
 1793              	.LBB602:
 1794              	.LBB580:
 1795              	.LBB572:
 1796              	.LBB566:
 1797              	.LBI561:
  40:lib/DaisySP/Source/Utility/dsp.h **** {
 1798              		.loc 22 40 14 view .LVU400
 1799              	.LBB563:
  42:lib/DaisySP/Source/Utility/dsp.h **** #ifdef __arm__
 1800              		.loc 22 42 5 view .LVU401
  44:lib/DaisySP/Source/Utility/dsp.h **** #else
 1801              		.loc 22 44 5 view .LVU402
 1802              	.LBE563:
 1803              	.LBE566:
 1804              	.LBE572:
 106:Effects/BiquadFilters.h ****             for (size_t i=0; i<NumSections; i++) {
 1805              		.loc 10 106 41 is_stmt 0 view .LVU403
 1806 0058 97ED007A 		vldr.32	s14, [r7]
 1807              	.LBB573:
 1808              	.LBB567:
 1809              	.LBB564:
  44:lib/DaisySP/Source/Utility/dsp.h **** #else
 1810              		.loc 22 44 5 view .LVU404
 1811 005c DFED197A 		vldr.32	s15, .L64+16
 1812              	.LBE564:
 1813              	.LBE567:
ARM GAS  /var/folders/9s/8rp0_f2s1n31qbztm3b5_fdh0000gn/T//cc1V9ehO.s 			page 77


 1814              	.LBE573:
 110:Effects/BiquadFilters.h ****         }
 1815              		.loc 10 110 31 view .LVU405
 1816 0060 3846     		mov	r0, r7
 106:Effects/BiquadFilters.h ****             for (size_t i=0; i<NumSections; i++) {
 1817              		.loc 10 106 41 view .LVU406
 1818 0062 27EE287A 		vmul.f32	s14, s14, s17
 1819              	.LVL133:
 1820              	.LBB574:
 1821              	.LBB568:
 1822              	.LBB565:
  44:lib/DaisySP/Source/Utility/dsp.h **** #else
 1823              		.loc 22 44 5 view .LVU407
 1824              		.syntax unified
 1825              	@ 44 "lib/DaisySP/Source/Utility/dsp.h" 1
 1826 0066 C7FE887A 		vmaxnm.f32 s15, s15, s16
 1827              	@ 0 "" 2
 1828              	.LVL134:
  48:lib/DaisySP/Source/Utility/dsp.h **** }
 1829              		.loc 22 48 5 is_stmt 1 view .LVU408
  48:lib/DaisySP/Source/Utility/dsp.h **** }
 1830              		.loc 22 48 5 is_stmt 0 view .LVU409
 1831              		.thumb
 1832              		.syntax unified
 1833              	.LBE565:
 1834              	.LBE568:
 1835              	.LBB569:
 1836              	.LBI569:
  51:lib/DaisySP/Source/Utility/dsp.h **** {
 1837              		.loc 22 51 14 is_stmt 1 view .LVU410
 1838              	.LBB570:
  53:lib/DaisySP/Source/Utility/dsp.h **** #ifdef __arm__
 1839              		.loc 22 53 5 view .LVU411
  55:lib/DaisySP/Source/Utility/dsp.h **** #else
 1840              		.loc 22 55 5 view .LVU412
 1841              		.syntax unified
 1842              	@ 55 "lib/DaisySP/Source/Utility/dsp.h" 1
 1843 006a C7FEC77A 		vminnm.f32 s15, s15, s14
 1844              	@ 0 "" 2
 1845              	.LVL135:
  59:lib/DaisySP/Source/Utility/dsp.h **** }
 1846              		.loc 22 59 5 view .LVU413
  59:lib/DaisySP/Source/Utility/dsp.h **** }
 1847              		.loc 22 59 5 is_stmt 0 view .LVU414
 1848              		.thumb
 1849              		.syntax unified
 1850              	.LBE570:
 1851              	.LBE569:
 1852              	.LBE574:
 106:Effects/BiquadFilters.h ****             for (size_t i=0; i<NumSections; i++) {
 1853              		.loc 10 106 24 view .LVU415
 1854 006e C6ED007A 		vstr.32	s15, [r6]
 1855              	.LVL136:
 1856              	.LBB575:
 107:Effects/BiquadFilters.h ****                 q_[i] = daisysp::fmax(q, 0.1f);
 1857              		.loc 10 107 31 is_stmt 1 view .LVU416
 1858              	.LBB576:
ARM GAS  /var/folders/9s/8rp0_f2s1n31qbztm3b5_fdh0000gn/T//cc1V9ehO.s 			page 78


 1859              	.LBI576:
  40:lib/DaisySP/Source/Utility/dsp.h **** {
 1860              		.loc 22 40 14 view .LVU417
 1861              	.LBB577:
  42:lib/DaisySP/Source/Utility/dsp.h **** #ifdef __arm__
 1862              		.loc 22 42 5 view .LVU418
  44:lib/DaisySP/Source/Utility/dsp.h **** #else
 1863              		.loc 22 44 5 view .LVU419
 1864 0072 DFED157A 		vldr.32	s15, .L64+20
 1865              		.syntax unified
 1866              	@ 44 "lib/DaisySP/Source/Utility/dsp.h" 1
 1867 0076 C8FE277A 		vmaxnm.f32 s15, s16, s15
 1868              	@ 0 "" 2
 1869              	.LVL137:
  48:lib/DaisySP/Source/Utility/dsp.h **** }
 1870              		.loc 22 48 5 view .LVU420
  48:lib/DaisySP/Source/Utility/dsp.h **** }
 1871              		.loc 22 48 5 is_stmt 0 view .LVU421
 1872              		.thumb
 1873              		.syntax unified
 1874              	.LBE577:
 1875              	.LBE576:
 108:Effects/BiquadFilters.h ****             }
 1876              		.loc 10 108 23 view .LVU422
 1877 007a C5ED007A 		vstr.32	s15, [r5]
 107:Effects/BiquadFilters.h ****                 q_[i] = daisysp::fmax(q, 0.1f);
 1878              		.loc 10 107 13 is_stmt 1 view .LVU423
 1879              	.LVL138:
 107:Effects/BiquadFilters.h ****                 q_[i] = daisysp::fmax(q, 0.1f);
 1880              		.loc 10 107 31 view .LVU424
 1881              	.LBE575:
 110:Effects/BiquadFilters.h ****         }
 1882              		.loc 10 110 31 is_stmt 0 view .LVU425
 1883 007e FFF7FEFF 		bl	_ZN10infrasonic13BiquadCascadeILj1ELNS_13BiquadSection10FilterTypeE2EE18updateCoefficientsEv
 1884              	.LVL139:
 110:Effects/BiquadFilters.h ****         }
 1885              		.loc 10 110 31 view .LVU426
 1886              	.LBE580:
 1887              	.LBE602:
 1888              	.LBE605:
 1889              	.LBE608:
 105:Interface.cpp ****     delay.SetLagTime(0.02f);         // Short lag for time changes
 1890              		.loc 16 105 5 is_stmt 1 view .LVU427
 1891              	.LBB609:
 1892              	.LBI609:
  30:Effects/EchoDelay.h ****             delayLine_.Init();
  31:Effects/EchoDelay.h ****             bpf_.Init(sample_rate);
  32:Effects/EchoDelay.h ****             bpf_.SetParams(800.0f, 1.0f);
  33:Effects/EchoDelay.h ****         }
  34:Effects/EchoDelay.h **** 
  35:Effects/EchoDelay.h ****         /**
  36:Effects/EchoDelay.h ****          * @brief Set the approximate lag time (smoothing) for delay time changes, in seconds
  37:Effects/EchoDelay.h ****          */
  38:Effects/EchoDelay.h ****         void SetLagTime(const float time_s)
 1893              		.loc 9 38 14 view .LVU428
 1894              	.LBB610:
  39:Effects/EchoDelay.h ****         {
ARM GAS  /var/folders/9s/8rp0_f2s1n31qbztm3b5_fdh0000gn/T//cc1V9ehO.s 			page 79


  40:Effects/EchoDelay.h ****             delay_smooth_coef_ = onepole_coef(time_s, sample_rate_);
 1895              		.loc 9 40 46 is_stmt 0 view .LVU429
 1896 0082 D4ED007A 		vldr.32	s15, [r4]
 1897              	.LVL140:
 1898              	.LBB611:
 1899              	.LBI611:
 1900              		.file 23 "Effects/DSPUtils.h"
   1:Effects/DSPUtils.h **** #pragma once
   2:Effects/DSPUtils.h **** #ifndef INFS_DSPUTILS_H
   3:Effects/DSPUtils.h **** #define INFS_DSPUTILS_H
   4:Effects/DSPUtils.h **** 
   5:Effects/DSPUtils.h **** #include <cmath>
   6:Effects/DSPUtils.h **** #include <Utility/dsp.h>
   7:Effects/DSPUtils.h **** #ifdef __arm__
   8:Effects/DSPUtils.h **** #include <arm_math.h>
   9:Effects/DSPUtils.h **** #endif
  10:Effects/DSPUtils.h **** 
  11:Effects/DSPUtils.h **** namespace infrasonic {
  12:Effects/DSPUtils.h **** 
  13:Effects/DSPUtils.h **** inline float dbfs2lin(float dbfs) {
  14:Effects/DSPUtils.h ****     return daisysp::pow10f(dbfs * 0.05f);
  15:Effects/DSPUtils.h **** }
  16:Effects/DSPUtils.h **** 
  17:Effects/DSPUtils.h **** inline float lin2dbfs(float lin) {
  18:Effects/DSPUtils.h ****     return daisysp::fastlog10f(lin) * 20.0f;
  19:Effects/DSPUtils.h **** }
  20:Effects/DSPUtils.h **** 
  21:Effects/DSPUtils.h **** // Coefficient for one pole smoothing filter based on Tau time constant for `time_s`
  22:Effects/DSPUtils.h **** inline float onepole_coef(float time_s, float sample_rate) {
 1901              		.loc 23 22 14 is_stmt 1 view .LVU430
 1902              	.LBB612:
  23:Effects/DSPUtils.h ****     if (time_s <= 0.0f || sample_rate <= 0.0f) { return 1.0f; }
 1903              		.loc 23 23 5 view .LVU431
 1904              		.loc 23 23 24 is_stmt 0 view .LVU432
 1905 0086 F5EEC07A 		vcmpe.f32	s15, #0
 1906 008a F1EE10FA 		vmrs	APSR_nzcv, FPSCR
 1907 008e 07D9     		bls	.L62
  24:Effects/DSPUtils.h ****     return daisysp::fmin(1.0f / (time_s * sample_rate), 1.0f);
 1908              		.loc 23 24 5 is_stmt 1 view .LVU433
 1909              	.LVL141:
 1910              	.LBB613:
 1911              	.LBI613:
  51:lib/DaisySP/Source/Utility/dsp.h **** {
 1912              		.loc 22 51 14 view .LVU434
 1913              	.LBB614:
  53:lib/DaisySP/Source/Utility/dsp.h **** #ifdef __arm__
 1914              		.loc 22 53 5 view .LVU435
  55:lib/DaisySP/Source/Utility/dsp.h **** #else
 1915              		.loc 22 55 5 view .LVU436
 1916              	.LBE614:
 1917              	.LBE613:
 1918              		.loc 23 24 41 is_stmt 0 view .LVU437
 1919 0090 9FED0E7A 		vldr.32	s14, .L64+24
 1920 0094 67EE877A 		vmul.f32	s15, s15, s14
 1921              	.LVL142:
 1922              		.loc 23 24 25 view .LVU438
 1923 0098 88EE277A 		vdiv.f32	s14, s16, s15
ARM GAS  /var/folders/9s/8rp0_f2s1n31qbztm3b5_fdh0000gn/T//cc1V9ehO.s 			page 80


 1924              	.LVL143:
 1925              	.LBB616:
 1926              	.LBB615:
  55:lib/DaisySP/Source/Utility/dsp.h **** #else
 1927              		.loc 22 55 5 view .LVU439
 1928              		.syntax unified
 1929              	@ 55 "lib/DaisySP/Source/Utility/dsp.h" 1
 1930 009c 87FE488A 		vminnm.f32 s16, s14, s16
 1931              	@ 0 "" 2
 1932              	.LVL144:
  59:lib/DaisySP/Source/Utility/dsp.h **** }
 1933              		.loc 22 59 5 is_stmt 1 view .LVU440
 1934              		.thumb
 1935              		.syntax unified
 1936              	.L62:
  59:lib/DaisySP/Source/Utility/dsp.h **** }
 1937              		.loc 22 59 5 is_stmt 0 view .LVU441
 1938              	.LBE615:
 1939              	.LBE616:
 1940              	.LBE612:
 1941              	.LBE611:
 1942              	.LBE610:
 1943              	.LBE609:
 1944              	.LBB618:
 1945              	.LBB619:
  41:Effects/EchoDelay.h ****         }
  42:Effects/EchoDelay.h **** 
  43:Effects/EchoDelay.h ****         /**
  44:Effects/EchoDelay.h ****          * @brief Set the Delay Time in seconds
  45:Effects/EchoDelay.h ****          *
  46:Effects/EchoDelay.h ****          * @param time_s Delay time in seconds. Will be truncated to MaxLength.
  47:Effects/EchoDelay.h ****          * @param immediately If true, sets delay time immediately with no smoothing.
  48:Effects/EchoDelay.h ****          */
  49:Effects/EchoDelay.h ****         void SetDelayTime(const float time_s, bool immediately = false)
  50:Effects/EchoDelay.h ****         {
  51:Effects/EchoDelay.h ****             delay_time_target_ = time_s;
 1946              		.loc 9 51 32 view .LVU442
 1947 00a0 0B4B     		ldr	r3, .L64+28
 1948              	.LBE619:
 1949              	.LBE618:
 1950              	.LBB621:
 1951              	.LBB617:
  40:Effects/EchoDelay.h ****         }
 1952              		.loc 9 40 32 view .LVU443
 1953 00a2 84ED038A 		vstr.32	s16, [r4, #12]
 1954              	.LVL145:
  40:Effects/EchoDelay.h ****         }
 1955              		.loc 9 40 32 view .LVU444
 1956              	.LBE617:
 1957              	.LBE621:
 106:Interface.cpp ****     delay.SetDelayTime(0.3f, true); // 300ms delay, set immediately
 1958              		.loc 16 106 5 is_stmt 1 view .LVU445
 1959              	.LBB622:
 1960              	.LBI618:
  49:Effects/EchoDelay.h ****         {
 1961              		.loc 9 49 14 view .LVU446
 1962              	.LBE622:
ARM GAS  /var/folders/9s/8rp0_f2s1n31qbztm3b5_fdh0000gn/T//cc1V9ehO.s 			page 81


 1963              	.LBB623:
 1964              	.LBB624:
  52:Effects/EchoDelay.h ****             if (immediately) delay_time_current_ = time_s;
  53:Effects/EchoDelay.h ****         }
  54:Effects/EchoDelay.h **** 
  55:Effects/EchoDelay.h ****         /**
  56:Effects/EchoDelay.h ****          * @brief
  57:Effects/EchoDelay.h ****          * Set the feedback amount (linear multiplier).
  58:Effects/EchoDelay.h ****          * This can be >1 in magnitude for saturated swells, or negative.
  59:Effects/EchoDelay.h ****          *
  60:Effects/EchoDelay.h ****          * NOTE: This is not internally smoothed. Use external smoothing if desired.
  61:Effects/EchoDelay.h ****          *
  62:Effects/EchoDelay.h ****          * @param feedback
  63:Effects/EchoDelay.h ****          */
  64:Effects/EchoDelay.h ****         void SetFeedback(const float feedback)
  65:Effects/EchoDelay.h ****         {
  66:Effects/EchoDelay.h ****             feedback_ = feedback;
 1965              		.loc 9 66 23 is_stmt 0 view .LVU447
 1966 00a6 C4ED048A 		vstr.32	s17, [r4, #16]
 1967              	.LBE624:
 1968              	.LBE623:
 1969              	.LBB625:
 1970              	.LBB620:
  51:Effects/EchoDelay.h ****             if (immediately) delay_time_current_ = time_s;
 1971              		.loc 9 51 32 view .LVU448
 1972 00aa A360     		str	r3, [r4, #8]	@ float
  52:Effects/EchoDelay.h ****             if (immediately) delay_time_current_ = time_s;
 1973              		.loc 9 52 50 view .LVU449
 1974 00ac 6360     		str	r3, [r4, #4]	@ float
 1975              	.LVL146:
  52:Effects/EchoDelay.h ****             if (immediately) delay_time_current_ = time_s;
 1976              		.loc 9 52 50 view .LVU450
 1977              	.LBE620:
 1978              	.LBE625:
 107:Interface.cpp ****     delay.SetFeedback(0.5f);         // 50% feedback
 1979              		.loc 16 107 5 is_stmt 1 view .LVU451
 1980              	.LBB626:
 1981              	.LBI623:
  64:Effects/EchoDelay.h ****         {
 1982              		.loc 9 64 14 view .LVU452
  64:Effects/EchoDelay.h ****         {
 1983              		.loc 9 64 14 is_stmt 0 view .LVU453
 1984              	.LBE626:
 108:Interface.cpp **** }
 1985              		.loc 16 108 1 view .LVU454
 1986 00ae BDEC028B 		vldm	sp!, {d8}
 1987              		.cfi_restore 80
 1988              		.cfi_restore 81
 1989              		.cfi_def_cfa_offset 24
 1990 00b2 F8BD     		pop	{r3, r4, r5, r6, r7, pc}
 1991              	.L65:
 1992              		.align	2
 1993              	.L64:
 1994 00b4 00000000 		.word	delay
 1995 00b8 00000000 		.word	.LANCHOR3
 1996 00bc 00EE0200 		.word	192000
 1997 00c0 F304353F 		.word	1060439283
ARM GAS  /var/folders/9s/8rp0_f2s1n31qbztm3b5_fdh0000gn/T//cc1V9ehO.s 			page 82


 1998 00c4 00004844 		.word	1145569280
 1999 00c8 CDCCCC3D 		.word	1036831949
 2000 00cc 0AD7A33C 		.word	1017370378
 2001 00d0 9A99993E 		.word	1050253722
 2002              		.cfi_endproc
 2003              	.LFE5349:
 2005              		.section	.rodata._Z15InitializeSynthv.str1.1,"aMS",%progbits,1
 2006              	.LC4:
 2007 0000 506F6C79 		.ascii	"Poly (0-3)\000"
 2007      2028302D 
 2007      332900
 2008              	.LC5:
 2009 000b 44796E61 		.ascii	"Dynamic Poly\000"
 2009      6D696320 
 2009      506F6C79 
 2009      00
 2010              	.LC6:
 2011 0018 506C6169 		.ascii	"Plaits Synth Started - Ready for Bootloader CMD\000"
 2011      74732053 
 2011      796E7468 
 2011      20537461 
 2011      72746564 
 2012              	.LC7:
 2013 0048 4D617820 		.ascii	"Max Voices: %d | Block: %d | SR: %d\000"
 2013      566F6963 
 2013      65733A20 
 2013      2564207C 
 2013      20426C6F 
 2014              	.LC8:
 2015 006c 456E6769 		.ascii	"Engine Range: 0-%d\000"
 2015      6E652052 
 2015      616E6765 
 2015      3A20302D 
 2015      256400
 2016              	.LC9:
 2017 007f 4D6F6465 		.ascii	"Mode: %s\000"
 2017      3A202573 
 2017      00
 2018              	.LC10:
 2019 0088 2D2D2D2D 		.ascii	"----------------\000"
 2019      2D2D2D2D 
 2019      2D2D2D2D 
 2019      2D2D2D2D 
 2019      00
 2020              		.section	.text._Z15InitializeSynthv,"ax",%progbits
 2021              		.align	1
 2022              		.global	_Z15InitializeSynthv
 2023              		.syntax unified
 2024              		.thumb
 2025              		.thumb_func
 2027              	_Z15InitializeSynthv:
 2028              	.LFB5351:
 130:Interface.cpp **** void InitializeSynth() {
 2029              		.loc 16 130 24 is_stmt 1 view -0
 2030              		.cfi_startproc
 2031              		@ args = 0, pretend = 0, frame = 64
 2032              		@ frame_needed = 0, uses_anonymous_args = 0
ARM GAS  /var/folders/9s/8rp0_f2s1n31qbztm3b5_fdh0000gn/T//cc1V9ehO.s 			page 83


 131:Interface.cpp ****     InitializeHardware();
 2033              		.loc 16 131 5 view .LVU456
 130:Interface.cpp **** void InitializeSynth() {
 2034              		.loc 16 130 24 is_stmt 0 view .LVU457
 2035 0000 10B5     		push	{r4, lr}
 2036              		.cfi_def_cfa_offset 8
 2037              		.cfi_offset 4, -8
 2038              		.cfi_offset 14, -4
 137:Interface.cpp ****     cpu_meter.Init(sample_rate, BLOCK_SIZE); // Initialize the CPU Load Meter
 2039              		.loc 16 137 19 view .LVU458
 2040 0002 424C     		ldr	r4, .L69
 130:Interface.cpp **** void InitializeSynth() {
 2041              		.loc 16 130 24 view .LVU459
 2042 0004 2DED028B 		vpush.64	{d8}
 2043              		.cfi_def_cfa_offset 16
 2044              		.cfi_offset 80, -16
 2045              		.cfi_offset 81, -12
 2046 0008 92B0     		sub	sp, sp, #72
 2047              		.cfi_def_cfa_offset 88
 131:Interface.cpp ****     InitializeHardware();
 2048              		.loc 16 131 23 view .LVU460
 2049 000a FFF7FEFF 		bl	_Z18InitializeHardwarev
 2050              	.LVL147:
 132:Interface.cpp ****     InitializeVoices(); // Call function from Polyphony.cpp
 2051              		.loc 16 132 5 is_stmt 1 view .LVU461
 132:Interface.cpp ****     InitializeVoices(); // Call function from Polyphony.cpp
 2052              		.loc 16 132 21 is_stmt 0 view .LVU462
 2053 000e FFF7FEFF 		bl	_Z16InitializeVoicesv
 2054              	.LVL148:
 133:Interface.cpp ****     InitializeControls();
 2055              		.loc 16 133 5 is_stmt 1 view .LVU463
 133:Interface.cpp ****     InitializeControls();
 2056              		.loc 16 133 23 is_stmt 0 view .LVU464
 2057 0012 FFF7FEFF 		bl	_Z18InitializeControlsv
 2058              	.LVL149:
 134:Interface.cpp ****     InitializeTouchSensor();
 2059              		.loc 16 134 5 is_stmt 1 view .LVU465
 134:Interface.cpp ****     InitializeTouchSensor();
 2060              		.loc 16 134 26 is_stmt 0 view .LVU466
 2061 0016 FFF7FEFF 		bl	_Z21InitializeTouchSensorv
 2062              	.LVL150:
 135:Interface.cpp ****     InitializeDelay();
 2063              		.loc 16 135 5 is_stmt 1 view .LVU467
 135:Interface.cpp ****     InitializeDelay();
 2064              		.loc 16 135 20 is_stmt 0 view .LVU468
 2065 001a FFF7FEFF 		bl	_Z15InitializeDelayv
 2066              	.LVL151:
 136:Interface.cpp ****     InitializeTouchLEDs();
 2067              		.loc 16 136 5 is_stmt 1 view .LVU469
 136:Interface.cpp ****     InitializeTouchLEDs();
 2068              		.loc 16 136 24 is_stmt 0 view .LVU470
 2069 001e FFF7FEFF 		bl	_Z19InitializeTouchLEDsv
 2070              	.LVL152:
 137:Interface.cpp ****     cpu_meter.Init(sample_rate, BLOCK_SIZE); // Initialize the CPU Load Meter
 2071              		.loc 16 137 5 is_stmt 1 view .LVU471
 137:Interface.cpp ****     cpu_meter.Init(sample_rate, BLOCK_SIZE); // Initialize the CPU Load Meter
 2072              		.loc 16 137 19 is_stmt 0 view .LVU472
ARM GAS  /var/folders/9s/8rp0_f2s1n31qbztm3b5_fdh0000gn/T//cc1V9ehO.s 			page 84


 2073 0022 94ED008A 		vldr.32	s16, [r4]
 2074              	.LVL153:
 2075              	.LBB653:
 2076              	.LBI653:
 2077              		.file 24 "lib/libdaisy/src/util/CpuLoadMeter.h"
   1:lib/libdaisy/src/util/CpuLoadMeter.h **** #pragma once
   2:lib/libdaisy/src/util/CpuLoadMeter.h **** 
   3:lib/libdaisy/src/util/CpuLoadMeter.h **** #include "sys/system.h"
   4:lib/libdaisy/src/util/CpuLoadMeter.h **** #include <cmath>
   5:lib/libdaisy/src/util/CpuLoadMeter.h **** 
   6:lib/libdaisy/src/util/CpuLoadMeter.h **** namespace daisy
   7:lib/libdaisy/src/util/CpuLoadMeter.h **** {
   8:lib/libdaisy/src/util/CpuLoadMeter.h **** /** @brief CPU load metering
   9:lib/libdaisy/src/util/CpuLoadMeter.h ****  *  @author jelliesen
  10:lib/libdaisy/src/util/CpuLoadMeter.h ****  *  @addtogroup utility
  11:lib/libdaisy/src/util/CpuLoadMeter.h ****  * 
  12:lib/libdaisy/src/util/CpuLoadMeter.h ****  *  To measure the CPU load of your audio processing, create a CpuLoadMeter
  13:lib/libdaisy/src/util/CpuLoadMeter.h ****  *  and initialize it with your block size and sample rate.
  14:lib/libdaisy/src/util/CpuLoadMeter.h ****  *  Then at the beginning of the audio callback, call `OnBlockStart()`, 
  15:lib/libdaisy/src/util/CpuLoadMeter.h ****  *  and at the end of the audio callback, call `OnBlockEnd()`.
  16:lib/libdaisy/src/util/CpuLoadMeter.h ****  *  You can then read out the minimum, maximum and average CPU load.
  17:lib/libdaisy/src/util/CpuLoadMeter.h ****  */
  18:lib/libdaisy/src/util/CpuLoadMeter.h **** class CpuLoadMeter
  19:lib/libdaisy/src/util/CpuLoadMeter.h **** {
  20:lib/libdaisy/src/util/CpuLoadMeter.h ****   public:
  21:lib/libdaisy/src/util/CpuLoadMeter.h ****     CpuLoadMeter(){};
  22:lib/libdaisy/src/util/CpuLoadMeter.h **** 
  23:lib/libdaisy/src/util/CpuLoadMeter.h ****     /** Initializes the CpuLoadMeter for a particular sample rate and block size.
  24:lib/libdaisy/src/util/CpuLoadMeter.h ****      *  @param sampleRateInHz           The sample rate in Hz
  25:lib/libdaisy/src/util/CpuLoadMeter.h ****      *  @param blockSizeInSamples       The block size in samples
  26:lib/libdaisy/src/util/CpuLoadMeter.h ****      *  @param smoothingFilterCutoffHz  The cutoff frequency of the smoothing filter that's used to
  27:lib/libdaisy/src/util/CpuLoadMeter.h ****      *                                  create the average CPU load reading.
  28:lib/libdaisy/src/util/CpuLoadMeter.h ****      */
  29:lib/libdaisy/src/util/CpuLoadMeter.h ****     void Init(float sampleRateInHz,
 2078              		.loc 24 29 10 is_stmt 1 view .LVU473
 2079              	.LBB654:
  30:lib/libdaisy/src/util/CpuLoadMeter.h ****               int   blockSizeInSamples,
  31:lib/libdaisy/src/util/CpuLoadMeter.h ****               float smoothingFilterCutoffHz = 1.0f)
  32:lib/libdaisy/src/util/CpuLoadMeter.h ****     {
  33:lib/libdaisy/src/util/CpuLoadMeter.h ****         const auto secPerBlock = float(blockSizeInSamples) / sampleRateInHz;
 2080              		.loc 24 33 9 view .LVU474
  34:lib/libdaisy/src/util/CpuLoadMeter.h ****         const auto ticksPerS   = float(System::GetTickFreq());
 2081              		.loc 24 34 9 view .LVU475
 2082              		.loc 24 34 59 is_stmt 0 view .LVU476
 2083 0026 FFF7FEFF 		bl	_ZN5daisy6System11GetTickFreqEv
 2084              	.LVL154:
  35:lib/libdaisy/src/util/CpuLoadMeter.h ****         ticksPerBlockInv_      = 1.0f / (ticksPerS * secPerBlock);
 2085              		.loc 24 35 9 is_stmt 1 view .LVU477
  33:lib/libdaisy/src/util/CpuLoadMeter.h ****         const auto ticksPerS   = float(System::GetTickFreq());
 2086              		.loc 24 33 20 is_stmt 0 view .LVU478
 2087 002a B3EE007A 		vmov.f32	s14, #1.6e+1
 2088              		.loc 24 35 32 view .LVU479
 2089 002e 384B     		ldr	r3, .L69+4
 2090              	.LBB655:
 2091              	.LBB656:
  36:lib/libdaisy/src/util/CpuLoadMeter.h **** 
  37:lib/libdaisy/src/util/CpuLoadMeter.h ****         // update filter coefficient for smoothing filter (1pole lowpass)
ARM GAS  /var/folders/9s/8rp0_f2s1n31qbztm3b5_fdh0000gn/T//cc1V9ehO.s 			page 85


  38:lib/libdaisy/src/util/CpuLoadMeter.h ****         const auto blockRateInHz = sampleRateInHz / float(blockSizeInSamples);
  39:lib/libdaisy/src/util/CpuLoadMeter.h ****         const auto cutoffNormalized
  40:lib/libdaisy/src/util/CpuLoadMeter.h ****             = smoothingFilterCutoffHz * 2.0f * 3.141592653f / blockRateInHz;
  41:lib/libdaisy/src/util/CpuLoadMeter.h ****         // according to
  42:lib/libdaisy/src/util/CpuLoadMeter.h ****         // https://en.wikipedia.org/wiki/Low-pass_filter#Simple_infinite_impulse_response_filter
  43:lib/libdaisy/src/util/CpuLoadMeter.h ****         smoothingConstant_ = cutoffNormalized / (cutoffNormalized + 1.0f);
  44:lib/libdaisy/src/util/CpuLoadMeter.h **** 
  45:lib/libdaisy/src/util/CpuLoadMeter.h ****         Reset();
  46:lib/libdaisy/src/util/CpuLoadMeter.h ****     }
  47:lib/libdaisy/src/util/CpuLoadMeter.h **** 
  48:lib/libdaisy/src/util/CpuLoadMeter.h ****     /** Call this at the beginning of your audio callback */
  49:lib/libdaisy/src/util/CpuLoadMeter.h ****     void OnBlockStart() { currentBlockStartTicks_ = System::GetTick(); }
  50:lib/libdaisy/src/util/CpuLoadMeter.h **** 
  51:lib/libdaisy/src/util/CpuLoadMeter.h ****     /** Call this at the end of your audio callback */
  52:lib/libdaisy/src/util/CpuLoadMeter.h ****     void OnBlockEnd()
  53:lib/libdaisy/src/util/CpuLoadMeter.h ****     {
  54:lib/libdaisy/src/util/CpuLoadMeter.h ****         const auto end         = System::GetTick();
  55:lib/libdaisy/src/util/CpuLoadMeter.h ****         const auto ticksPassed = end - currentBlockStartTicks_;
  56:lib/libdaisy/src/util/CpuLoadMeter.h ****         const auto currentBlockLoad
  57:lib/libdaisy/src/util/CpuLoadMeter.h ****             = float(ticksPassed) * ticksPerBlockInv_; // usPassed / usPerBlock
  58:lib/libdaisy/src/util/CpuLoadMeter.h **** 
  59:lib/libdaisy/src/util/CpuLoadMeter.h ****         if(firstCycle_)
  60:lib/libdaisy/src/util/CpuLoadMeter.h ****         {
  61:lib/libdaisy/src/util/CpuLoadMeter.h ****             max_ = min_ = avg_ = currentBlockLoad;
  62:lib/libdaisy/src/util/CpuLoadMeter.h ****             firstCycle_        = false;
  63:lib/libdaisy/src/util/CpuLoadMeter.h ****         }
  64:lib/libdaisy/src/util/CpuLoadMeter.h ****         else
  65:lib/libdaisy/src/util/CpuLoadMeter.h ****         {
  66:lib/libdaisy/src/util/CpuLoadMeter.h ****             if(currentBlockLoad > max_)
  67:lib/libdaisy/src/util/CpuLoadMeter.h ****                 max_ = currentBlockLoad;
  68:lib/libdaisy/src/util/CpuLoadMeter.h ****             if(currentBlockLoad < min_)
  69:lib/libdaisy/src/util/CpuLoadMeter.h ****                 min_ = currentBlockLoad;
  70:lib/libdaisy/src/util/CpuLoadMeter.h **** 
  71:lib/libdaisy/src/util/CpuLoadMeter.h ****             avg_ = smoothingConstant_ * currentBlockLoad
  72:lib/libdaisy/src/util/CpuLoadMeter.h ****                    + (1.0f - smoothingConstant_) * avg_;
  73:lib/libdaisy/src/util/CpuLoadMeter.h ****         }
  74:lib/libdaisy/src/util/CpuLoadMeter.h ****     }
  75:lib/libdaisy/src/util/CpuLoadMeter.h **** 
  76:lib/libdaisy/src/util/CpuLoadMeter.h ****     /** Returns the smoothed average CPU load in the range 0..1 */
  77:lib/libdaisy/src/util/CpuLoadMeter.h ****     float GetAvgCpuLoad() const { return avg_; }
  78:lib/libdaisy/src/util/CpuLoadMeter.h ****     /** Returns the minimun CPU load observed since the last call to Reset(). */
  79:lib/libdaisy/src/util/CpuLoadMeter.h ****     float GetMinCpuLoad() const { return min_; }
  80:lib/libdaisy/src/util/CpuLoadMeter.h ****     /** Returns the maximum CPU load observed since the last call to Reset(). */
  81:lib/libdaisy/src/util/CpuLoadMeter.h ****     float GetMaxCpuLoad() const { return max_; }
  82:lib/libdaisy/src/util/CpuLoadMeter.h **** 
  83:lib/libdaisy/src/util/CpuLoadMeter.h ****     /** Resets the minimun, maximum and average load readings. */
  84:lib/libdaisy/src/util/CpuLoadMeter.h ****     void Reset()
  85:lib/libdaisy/src/util/CpuLoadMeter.h ****     {
  86:lib/libdaisy/src/util/CpuLoadMeter.h ****         firstCycle_ = true;
 2092              		.loc 24 86 21 view .LVU480
 2093 0030 0122     		movs	r2, #1
 2094              	.LBE656:
 2095              	.LBE655:
 2096              	.LBE654:
 2097              	.LBE653:
 140:Interface.cpp ****     arp.Init(sample_rate);
 2098              		.loc 16 140 13 view .LVU481
ARM GAS  /var/folders/9s/8rp0_f2s1n31qbztm3b5_fdh0000gn/T//cc1V9ehO.s 			page 86


 2099 0032 94ED000A 		vldr.32	s0, [r4]
 2100              	.LBB667:
 2101              	.LBB665:
  33:lib/libdaisy/src/util/CpuLoadMeter.h ****         const auto ticksPerS   = float(System::GetTickFreq());
 2102              		.loc 24 33 20 view .LVU482
 2103 0036 C7EE087A 		vdiv.f32	s15, s14, s16
 2104              	.LVL155:
  34:lib/libdaisy/src/util/CpuLoadMeter.h ****         ticksPerBlockInv_      = 1.0f / (ticksPerS * secPerBlock);
 2105              		.loc 24 34 61 view .LVU483
 2106 003a 07EE100A 		vmov	s14, r0	@ int
 2107              	.LBB661:
 2108              	.LBB657:
 2109              		.loc 24 86 21 view .LVU484
 2110 003e 1A70     		strb	r2, [r3]
  87:lib/libdaisy/src/util/CpuLoadMeter.h ****         avg_ = max_ = min_ = NAN;
 2111              		.loc 24 87 28 view .LVU485
 2112 0040 344A     		ldr	r2, .L69+8
 2113              	.LBE657:
 2114              	.LBE661:
 2115              	.LBE665:
 2116              	.LBE667:
 140:Interface.cpp ****     arp.Init(sample_rate);
 2117              		.loc 16 140 13 view .LVU486
 2118 0042 3548     		ldr	r0, .L69+12
 2119              	.LVL156:
 2120              	.LBB668:
 2121              	.LBB666:
 2122              	.LBB662:
 2123              	.LBB658:
 2124              		.loc 24 87 28 view .LVU487
 2125 0044 DA60     		str	r2, [r3, #12]	@ float
 2126              	.LBE658:
 2127              	.LBE662:
  34:lib/libdaisy/src/util/CpuLoadMeter.h ****         ticksPerBlockInv_      = 1.0f / (ticksPerS * secPerBlock);
 2128              		.loc 24 34 61 view .LVU488
 2129 0046 B8EE477A 		vcvt.f32.u32	s14, s14
 2130              	.LVL157:
 2131              	.LBB663:
 2132              	.LBB659:
 2133              		.loc 24 87 21 view .LVU489
 2134 004a 1A61     		str	r2, [r3, #16]	@ float
 2135              		.loc 24 87 14 view .LVU490
 2136 004c 5A61     		str	r2, [r3, #20]	@ float
 2137              	.LBE659:
 2138              	.LBE663:
  35:lib/libdaisy/src/util/CpuLoadMeter.h **** 
 2139              		.loc 24 35 52 view .LVU491
 2140 004e 27EE877A 		vmul.f32	s14, s15, s14
 2141              	.LVL158:
  35:lib/libdaisy/src/util/CpuLoadMeter.h **** 
 2142              		.loc 24 35 39 view .LVU492
 2143 0052 F7EE007A 		vmov.f32	s15, #1.0e+0
 2144              	.LVL159:
  35:lib/libdaisy/src/util/CpuLoadMeter.h **** 
 2145              		.loc 24 35 39 view .LVU493
 2146 0056 C7EE876A 		vdiv.f32	s13, s15, s14
  38:lib/libdaisy/src/util/CpuLoadMeter.h ****         const auto cutoffNormalized
ARM GAS  /var/folders/9s/8rp0_f2s1n31qbztm3b5_fdh0000gn/T//cc1V9ehO.s 			page 87


 2147              		.loc 24 38 20 view .LVU494
 2148 005a 9FED307A 		vldr.32	s14, .L69+16
 2149 005e 28EE078A 		vmul.f32	s16, s16, s14
 2150              	.LVL160:
  35:lib/libdaisy/src/util/CpuLoadMeter.h **** 
 2151              		.loc 24 35 32 view .LVU495
 2152 0062 C3ED016A 		vstr.32	s13, [r3, #4]
  38:lib/libdaisy/src/util/CpuLoadMeter.h ****         const auto cutoffNormalized
 2153              		.loc 24 38 9 is_stmt 1 view .LVU496
  39:lib/libdaisy/src/util/CpuLoadMeter.h ****             = smoothingFilterCutoffHz * 2.0f * 3.141592653f / blockRateInHz;
 2154              		.loc 24 39 9 view .LVU497
  39:lib/libdaisy/src/util/CpuLoadMeter.h ****             = smoothingFilterCutoffHz * 2.0f * 3.141592653f / blockRateInHz;
 2155              		.loc 24 39 20 is_stmt 0 view .LVU498
 2156 0066 DFED2E6A 		vldr.32	s13, .L69+20
 2157 006a 86EE887A 		vdiv.f32	s14, s13, s16
 2158              	.LVL161:
  43:lib/libdaisy/src/util/CpuLoadMeter.h **** 
 2159              		.loc 24 43 9 is_stmt 1 view .LVU499
  43:lib/libdaisy/src/util/CpuLoadMeter.h **** 
 2160              		.loc 24 43 67 is_stmt 0 view .LVU500
 2161 006e 77EE277A 		vadd.f32	s15, s14, s15
  43:lib/libdaisy/src/util/CpuLoadMeter.h **** 
 2162              		.loc 24 43 47 view .LVU501
 2163 0072 C7EE276A 		vdiv.f32	s13, s14, s15
  43:lib/libdaisy/src/util/CpuLoadMeter.h **** 
 2164              		.loc 24 43 28 view .LVU502
 2165 0076 C3ED066A 		vstr.32	s13, [r3, #24]
  45:lib/libdaisy/src/util/CpuLoadMeter.h ****     }
 2166              		.loc 24 45 9 is_stmt 1 view .LVU503
 2167              	.LVL162:
 2168              	.LBB664:
 2169              	.LBI655:
  84:lib/libdaisy/src/util/CpuLoadMeter.h ****     {
 2170              		.loc 24 84 10 view .LVU504
 2171              	.LBB660:
  86:lib/libdaisy/src/util/CpuLoadMeter.h ****         avg_ = max_ = min_ = NAN;
 2172              		.loc 24 86 9 view .LVU505
 2173              		.loc 24 87 9 view .LVU506
 2174              		.loc 24 87 9 is_stmt 0 view .LVU507
 2175              	.LBE660:
 2176              	.LBE664:
 2177              	.LBE666:
 2178              	.LBE668:
 140:Interface.cpp ****     arp.Init(sample_rate);
 2179              		.loc 16 140 5 is_stmt 1 view .LVU508
 140:Interface.cpp ****     arp.Init(sample_rate);
 2180              		.loc 16 140 13 is_stmt 0 view .LVU509
 2181 007a FFF7FEFF 		bl	_ZN11Arpeggiator4InitEf
 2182              	.LVL163:
 142:Interface.cpp ****     arp.SetMainTempo(8.0f);
 2183              		.loc 16 142 5 is_stmt 1 view .LVU510
 142:Interface.cpp ****     arp.SetMainTempo(8.0f);
 2184              		.loc 16 142 21 is_stmt 0 view .LVU511
 2185 007e B2EE000A 		vmov.f32	s0, #8.0e+0
 2186 0082 2548     		ldr	r0, .L69+12
 2187 0084 FFF7FEFF 		bl	_ZN11Arpeggiator12SetMainTempoEf
 2188              	.LVL164:
ARM GAS  /var/folders/9s/8rp0_f2s1n31qbztm3b5_fdh0000gn/T//cc1V9ehO.s 			page 88


 144:Interface.cpp ****     arp.SetNoteTriggerCallback([](int pad_idx) {
 2189              		.loc 16 144 5 is_stmt 1 view .LVU512
 2190              	.LBB669:
 2191              	.LBI669:
 304:/Library/DaisyToolchain/0.2.0/arm/arm-none-eabi/include/c++/10.3.1/bits/std_function.h ****     : public _Maybe_unary_or_binary_function<_Res, _ArgTypes...>,
 305:/Library/DaisyToolchain/0.2.0/arm/arm-none-eabi/include/c++/10.3.1/bits/std_function.h ****       private _Function_base
 306:/Library/DaisyToolchain/0.2.0/arm/arm-none-eabi/include/c++/10.3.1/bits/std_function.h ****     {
 307:/Library/DaisyToolchain/0.2.0/arm/arm-none-eabi/include/c++/10.3.1/bits/std_function.h ****       template<typename _Func,
 308:/Library/DaisyToolchain/0.2.0/arm/arm-none-eabi/include/c++/10.3.1/bits/std_function.h **** 	       typename _Res2 = __invoke_result<_Func&, _ArgTypes...>>
 309:/Library/DaisyToolchain/0.2.0/arm/arm-none-eabi/include/c++/10.3.1/bits/std_function.h **** 	struct _Callable
 310:/Library/DaisyToolchain/0.2.0/arm/arm-none-eabi/include/c++/10.3.1/bits/std_function.h **** 	: __is_invocable_impl<_Res2, _Res>::type
 311:/Library/DaisyToolchain/0.2.0/arm/arm-none-eabi/include/c++/10.3.1/bits/std_function.h **** 	{ };
 312:/Library/DaisyToolchain/0.2.0/arm/arm-none-eabi/include/c++/10.3.1/bits/std_function.h **** 
 313:/Library/DaisyToolchain/0.2.0/arm/arm-none-eabi/include/c++/10.3.1/bits/std_function.h ****       // Used so the return type convertibility checks aren't done when
 314:/Library/DaisyToolchain/0.2.0/arm/arm-none-eabi/include/c++/10.3.1/bits/std_function.h ****       // performing overload resolution for copy construction/assignment.
 315:/Library/DaisyToolchain/0.2.0/arm/arm-none-eabi/include/c++/10.3.1/bits/std_function.h ****       template<typename _Tp>
 316:/Library/DaisyToolchain/0.2.0/arm/arm-none-eabi/include/c++/10.3.1/bits/std_function.h **** 	struct _Callable<function, _Tp> : false_type { };
 317:/Library/DaisyToolchain/0.2.0/arm/arm-none-eabi/include/c++/10.3.1/bits/std_function.h **** 
 318:/Library/DaisyToolchain/0.2.0/arm/arm-none-eabi/include/c++/10.3.1/bits/std_function.h ****       template<typename _Cond, typename _Tp>
 319:/Library/DaisyToolchain/0.2.0/arm/arm-none-eabi/include/c++/10.3.1/bits/std_function.h **** 	using _Requires = typename enable_if<_Cond::value, _Tp>::type;
 320:/Library/DaisyToolchain/0.2.0/arm/arm-none-eabi/include/c++/10.3.1/bits/std_function.h **** 
 321:/Library/DaisyToolchain/0.2.0/arm/arm-none-eabi/include/c++/10.3.1/bits/std_function.h ****     public:
 322:/Library/DaisyToolchain/0.2.0/arm/arm-none-eabi/include/c++/10.3.1/bits/std_function.h ****       typedef _Res result_type;
 323:/Library/DaisyToolchain/0.2.0/arm/arm-none-eabi/include/c++/10.3.1/bits/std_function.h **** 
 324:/Library/DaisyToolchain/0.2.0/arm/arm-none-eabi/include/c++/10.3.1/bits/std_function.h ****       // [3.7.2.1] construct/copy/destroy
 325:/Library/DaisyToolchain/0.2.0/arm/arm-none-eabi/include/c++/10.3.1/bits/std_function.h **** 
 326:/Library/DaisyToolchain/0.2.0/arm/arm-none-eabi/include/c++/10.3.1/bits/std_function.h ****       /**
 327:/Library/DaisyToolchain/0.2.0/arm/arm-none-eabi/include/c++/10.3.1/bits/std_function.h ****        *  @brief Default construct creates an empty function call wrapper.
 328:/Library/DaisyToolchain/0.2.0/arm/arm-none-eabi/include/c++/10.3.1/bits/std_function.h ****        *  @post @c !(bool)*this
 329:/Library/DaisyToolchain/0.2.0/arm/arm-none-eabi/include/c++/10.3.1/bits/std_function.h ****        */
 330:/Library/DaisyToolchain/0.2.0/arm/arm-none-eabi/include/c++/10.3.1/bits/std_function.h ****       function() noexcept
 331:/Library/DaisyToolchain/0.2.0/arm/arm-none-eabi/include/c++/10.3.1/bits/std_function.h ****       : _Function_base() { }
 332:/Library/DaisyToolchain/0.2.0/arm/arm-none-eabi/include/c++/10.3.1/bits/std_function.h **** 
 333:/Library/DaisyToolchain/0.2.0/arm/arm-none-eabi/include/c++/10.3.1/bits/std_function.h ****       /**
 334:/Library/DaisyToolchain/0.2.0/arm/arm-none-eabi/include/c++/10.3.1/bits/std_function.h ****        *  @brief Creates an empty function call wrapper.
 335:/Library/DaisyToolchain/0.2.0/arm/arm-none-eabi/include/c++/10.3.1/bits/std_function.h ****        *  @post @c !(bool)*this
 336:/Library/DaisyToolchain/0.2.0/arm/arm-none-eabi/include/c++/10.3.1/bits/std_function.h ****        */
 337:/Library/DaisyToolchain/0.2.0/arm/arm-none-eabi/include/c++/10.3.1/bits/std_function.h ****       function(nullptr_t) noexcept
 338:/Library/DaisyToolchain/0.2.0/arm/arm-none-eabi/include/c++/10.3.1/bits/std_function.h ****       : _Function_base() { }
 339:/Library/DaisyToolchain/0.2.0/arm/arm-none-eabi/include/c++/10.3.1/bits/std_function.h **** 
 340:/Library/DaisyToolchain/0.2.0/arm/arm-none-eabi/include/c++/10.3.1/bits/std_function.h ****       /**
 341:/Library/DaisyToolchain/0.2.0/arm/arm-none-eabi/include/c++/10.3.1/bits/std_function.h ****        *  @brief %Function copy constructor.
 342:/Library/DaisyToolchain/0.2.0/arm/arm-none-eabi/include/c++/10.3.1/bits/std_function.h ****        *  @param __x A %function object with identical call signature.
 343:/Library/DaisyToolchain/0.2.0/arm/arm-none-eabi/include/c++/10.3.1/bits/std_function.h ****        *  @post @c bool(*this) == bool(__x)
 344:/Library/DaisyToolchain/0.2.0/arm/arm-none-eabi/include/c++/10.3.1/bits/std_function.h ****        *
 345:/Library/DaisyToolchain/0.2.0/arm/arm-none-eabi/include/c++/10.3.1/bits/std_function.h ****        *  The newly-created %function contains a copy of the target of @a
 346:/Library/DaisyToolchain/0.2.0/arm/arm-none-eabi/include/c++/10.3.1/bits/std_function.h ****        *  __x (if it has one).
 347:/Library/DaisyToolchain/0.2.0/arm/arm-none-eabi/include/c++/10.3.1/bits/std_function.h ****        */
 348:/Library/DaisyToolchain/0.2.0/arm/arm-none-eabi/include/c++/10.3.1/bits/std_function.h ****       function(const function& __x);
 349:/Library/DaisyToolchain/0.2.0/arm/arm-none-eabi/include/c++/10.3.1/bits/std_function.h **** 
 350:/Library/DaisyToolchain/0.2.0/arm/arm-none-eabi/include/c++/10.3.1/bits/std_function.h ****       /**
 351:/Library/DaisyToolchain/0.2.0/arm/arm-none-eabi/include/c++/10.3.1/bits/std_function.h ****        *  @brief %Function move constructor.
 352:/Library/DaisyToolchain/0.2.0/arm/arm-none-eabi/include/c++/10.3.1/bits/std_function.h ****        *  @param __x A %function object rvalue with identical call signature.
 353:/Library/DaisyToolchain/0.2.0/arm/arm-none-eabi/include/c++/10.3.1/bits/std_function.h ****        *
 354:/Library/DaisyToolchain/0.2.0/arm/arm-none-eabi/include/c++/10.3.1/bits/std_function.h ****        *  The newly-created %function contains the target of @a __x
 355:/Library/DaisyToolchain/0.2.0/arm/arm-none-eabi/include/c++/10.3.1/bits/std_function.h ****        *  (if it has one).
 356:/Library/DaisyToolchain/0.2.0/arm/arm-none-eabi/include/c++/10.3.1/bits/std_function.h ****        */
ARM GAS  /var/folders/9s/8rp0_f2s1n31qbztm3b5_fdh0000gn/T//cc1V9ehO.s 			page 89


 357:/Library/DaisyToolchain/0.2.0/arm/arm-none-eabi/include/c++/10.3.1/bits/std_function.h ****       function(function&& __x) noexcept : _Function_base()
 358:/Library/DaisyToolchain/0.2.0/arm/arm-none-eabi/include/c++/10.3.1/bits/std_function.h ****       {
 359:/Library/DaisyToolchain/0.2.0/arm/arm-none-eabi/include/c++/10.3.1/bits/std_function.h **** 	__x.swap(*this);
 360:/Library/DaisyToolchain/0.2.0/arm/arm-none-eabi/include/c++/10.3.1/bits/std_function.h ****       }
 361:/Library/DaisyToolchain/0.2.0/arm/arm-none-eabi/include/c++/10.3.1/bits/std_function.h **** 
 362:/Library/DaisyToolchain/0.2.0/arm/arm-none-eabi/include/c++/10.3.1/bits/std_function.h ****       /**
 363:/Library/DaisyToolchain/0.2.0/arm/arm-none-eabi/include/c++/10.3.1/bits/std_function.h ****        *  @brief Builds a %function that targets a copy of the incoming
 364:/Library/DaisyToolchain/0.2.0/arm/arm-none-eabi/include/c++/10.3.1/bits/std_function.h ****        *  function object.
 365:/Library/DaisyToolchain/0.2.0/arm/arm-none-eabi/include/c++/10.3.1/bits/std_function.h ****        *  @param __f A %function object that is callable with parameters of
 366:/Library/DaisyToolchain/0.2.0/arm/arm-none-eabi/include/c++/10.3.1/bits/std_function.h ****        *  type @c T1, @c T2, ..., @c TN and returns a value convertible
 367:/Library/DaisyToolchain/0.2.0/arm/arm-none-eabi/include/c++/10.3.1/bits/std_function.h ****        *  to @c Res.
 368:/Library/DaisyToolchain/0.2.0/arm/arm-none-eabi/include/c++/10.3.1/bits/std_function.h ****        *
 369:/Library/DaisyToolchain/0.2.0/arm/arm-none-eabi/include/c++/10.3.1/bits/std_function.h ****        *  The newly-created %function object will target a copy of
 370:/Library/DaisyToolchain/0.2.0/arm/arm-none-eabi/include/c++/10.3.1/bits/std_function.h ****        *  @a __f. If @a __f is @c reference_wrapper<F>, then this function
 371:/Library/DaisyToolchain/0.2.0/arm/arm-none-eabi/include/c++/10.3.1/bits/std_function.h ****        *  object will contain a reference to the function object @c
 372:/Library/DaisyToolchain/0.2.0/arm/arm-none-eabi/include/c++/10.3.1/bits/std_function.h ****        *  __f.get(). If @a __f is a NULL function pointer or NULL
 373:/Library/DaisyToolchain/0.2.0/arm/arm-none-eabi/include/c++/10.3.1/bits/std_function.h ****        *  pointer-to-member, the newly-created object will be empty.
 374:/Library/DaisyToolchain/0.2.0/arm/arm-none-eabi/include/c++/10.3.1/bits/std_function.h ****        *
 375:/Library/DaisyToolchain/0.2.0/arm/arm-none-eabi/include/c++/10.3.1/bits/std_function.h ****        *  If @a __f is a non-NULL function pointer or an object of type @c
 376:/Library/DaisyToolchain/0.2.0/arm/arm-none-eabi/include/c++/10.3.1/bits/std_function.h ****        *  reference_wrapper<F>, this function will not throw.
 377:/Library/DaisyToolchain/0.2.0/arm/arm-none-eabi/include/c++/10.3.1/bits/std_function.h ****        */
 378:/Library/DaisyToolchain/0.2.0/arm/arm-none-eabi/include/c++/10.3.1/bits/std_function.h ****       template<typename _Functor,
 379:/Library/DaisyToolchain/0.2.0/arm/arm-none-eabi/include/c++/10.3.1/bits/std_function.h **** 	       typename = _Requires<__not_<is_same<_Functor, function>>, void>,
 380:/Library/DaisyToolchain/0.2.0/arm/arm-none-eabi/include/c++/10.3.1/bits/std_function.h **** 	       typename = _Requires<_Callable<_Functor>, void>>
 381:/Library/DaisyToolchain/0.2.0/arm/arm-none-eabi/include/c++/10.3.1/bits/std_function.h **** 	function(_Functor);
 382:/Library/DaisyToolchain/0.2.0/arm/arm-none-eabi/include/c++/10.3.1/bits/std_function.h **** 
 383:/Library/DaisyToolchain/0.2.0/arm/arm-none-eabi/include/c++/10.3.1/bits/std_function.h ****       /**
 384:/Library/DaisyToolchain/0.2.0/arm/arm-none-eabi/include/c++/10.3.1/bits/std_function.h ****        *  @brief %Function assignment operator.
 385:/Library/DaisyToolchain/0.2.0/arm/arm-none-eabi/include/c++/10.3.1/bits/std_function.h ****        *  @param __x A %function with identical call signature.
 386:/Library/DaisyToolchain/0.2.0/arm/arm-none-eabi/include/c++/10.3.1/bits/std_function.h ****        *  @post @c (bool)*this == (bool)x
 387:/Library/DaisyToolchain/0.2.0/arm/arm-none-eabi/include/c++/10.3.1/bits/std_function.h ****        *  @returns @c *this
 388:/Library/DaisyToolchain/0.2.0/arm/arm-none-eabi/include/c++/10.3.1/bits/std_function.h ****        *
 389:/Library/DaisyToolchain/0.2.0/arm/arm-none-eabi/include/c++/10.3.1/bits/std_function.h ****        *  The target of @a __x is copied to @c *this. If @a __x has no
 390:/Library/DaisyToolchain/0.2.0/arm/arm-none-eabi/include/c++/10.3.1/bits/std_function.h ****        *  target, then @c *this will be empty.
 391:/Library/DaisyToolchain/0.2.0/arm/arm-none-eabi/include/c++/10.3.1/bits/std_function.h ****        *
 392:/Library/DaisyToolchain/0.2.0/arm/arm-none-eabi/include/c++/10.3.1/bits/std_function.h ****        *  If @a __x targets a function pointer or a reference to a function
 393:/Library/DaisyToolchain/0.2.0/arm/arm-none-eabi/include/c++/10.3.1/bits/std_function.h ****        *  object, then this operation will not throw an %exception.
 394:/Library/DaisyToolchain/0.2.0/arm/arm-none-eabi/include/c++/10.3.1/bits/std_function.h ****        */
 395:/Library/DaisyToolchain/0.2.0/arm/arm-none-eabi/include/c++/10.3.1/bits/std_function.h ****       function&
 396:/Library/DaisyToolchain/0.2.0/arm/arm-none-eabi/include/c++/10.3.1/bits/std_function.h ****       operator=(const function& __x)
 397:/Library/DaisyToolchain/0.2.0/arm/arm-none-eabi/include/c++/10.3.1/bits/std_function.h ****       {
 398:/Library/DaisyToolchain/0.2.0/arm/arm-none-eabi/include/c++/10.3.1/bits/std_function.h **** 	function(__x).swap(*this);
 399:/Library/DaisyToolchain/0.2.0/arm/arm-none-eabi/include/c++/10.3.1/bits/std_function.h **** 	return *this;
 400:/Library/DaisyToolchain/0.2.0/arm/arm-none-eabi/include/c++/10.3.1/bits/std_function.h ****       }
 401:/Library/DaisyToolchain/0.2.0/arm/arm-none-eabi/include/c++/10.3.1/bits/std_function.h **** 
 402:/Library/DaisyToolchain/0.2.0/arm/arm-none-eabi/include/c++/10.3.1/bits/std_function.h ****       /**
 403:/Library/DaisyToolchain/0.2.0/arm/arm-none-eabi/include/c++/10.3.1/bits/std_function.h ****        *  @brief %Function move-assignment operator.
 404:/Library/DaisyToolchain/0.2.0/arm/arm-none-eabi/include/c++/10.3.1/bits/std_function.h ****        *  @param __x A %function rvalue with identical call signature.
 405:/Library/DaisyToolchain/0.2.0/arm/arm-none-eabi/include/c++/10.3.1/bits/std_function.h ****        *  @returns @c *this
 406:/Library/DaisyToolchain/0.2.0/arm/arm-none-eabi/include/c++/10.3.1/bits/std_function.h ****        *
 407:/Library/DaisyToolchain/0.2.0/arm/arm-none-eabi/include/c++/10.3.1/bits/std_function.h ****        *  The target of @a __x is moved to @c *this. If @a __x has no
 408:/Library/DaisyToolchain/0.2.0/arm/arm-none-eabi/include/c++/10.3.1/bits/std_function.h ****        *  target, then @c *this will be empty.
 409:/Library/DaisyToolchain/0.2.0/arm/arm-none-eabi/include/c++/10.3.1/bits/std_function.h ****        *
 410:/Library/DaisyToolchain/0.2.0/arm/arm-none-eabi/include/c++/10.3.1/bits/std_function.h ****        *  If @a __x targets a function pointer or a reference to a function
 411:/Library/DaisyToolchain/0.2.0/arm/arm-none-eabi/include/c++/10.3.1/bits/std_function.h ****        *  object, then this operation will not throw an %exception.
 412:/Library/DaisyToolchain/0.2.0/arm/arm-none-eabi/include/c++/10.3.1/bits/std_function.h ****        */
 413:/Library/DaisyToolchain/0.2.0/arm/arm-none-eabi/include/c++/10.3.1/bits/std_function.h ****       function&
ARM GAS  /var/folders/9s/8rp0_f2s1n31qbztm3b5_fdh0000gn/T//cc1V9ehO.s 			page 90


 414:/Library/DaisyToolchain/0.2.0/arm/arm-none-eabi/include/c++/10.3.1/bits/std_function.h ****       operator=(function&& __x) noexcept
 415:/Library/DaisyToolchain/0.2.0/arm/arm-none-eabi/include/c++/10.3.1/bits/std_function.h ****       {
 416:/Library/DaisyToolchain/0.2.0/arm/arm-none-eabi/include/c++/10.3.1/bits/std_function.h **** 	function(std::move(__x)).swap(*this);
 417:/Library/DaisyToolchain/0.2.0/arm/arm-none-eabi/include/c++/10.3.1/bits/std_function.h **** 	return *this;
 418:/Library/DaisyToolchain/0.2.0/arm/arm-none-eabi/include/c++/10.3.1/bits/std_function.h ****       }
 419:/Library/DaisyToolchain/0.2.0/arm/arm-none-eabi/include/c++/10.3.1/bits/std_function.h **** 
 420:/Library/DaisyToolchain/0.2.0/arm/arm-none-eabi/include/c++/10.3.1/bits/std_function.h ****       /**
 421:/Library/DaisyToolchain/0.2.0/arm/arm-none-eabi/include/c++/10.3.1/bits/std_function.h ****        *  @brief %Function assignment to zero.
 422:/Library/DaisyToolchain/0.2.0/arm/arm-none-eabi/include/c++/10.3.1/bits/std_function.h ****        *  @post @c !(bool)*this
 423:/Library/DaisyToolchain/0.2.0/arm/arm-none-eabi/include/c++/10.3.1/bits/std_function.h ****        *  @returns @c *this
 424:/Library/DaisyToolchain/0.2.0/arm/arm-none-eabi/include/c++/10.3.1/bits/std_function.h ****        *
 425:/Library/DaisyToolchain/0.2.0/arm/arm-none-eabi/include/c++/10.3.1/bits/std_function.h ****        *  The target of @c *this is deallocated, leaving it empty.
 426:/Library/DaisyToolchain/0.2.0/arm/arm-none-eabi/include/c++/10.3.1/bits/std_function.h ****        */
 427:/Library/DaisyToolchain/0.2.0/arm/arm-none-eabi/include/c++/10.3.1/bits/std_function.h ****       function&
 428:/Library/DaisyToolchain/0.2.0/arm/arm-none-eabi/include/c++/10.3.1/bits/std_function.h ****       operator=(nullptr_t) noexcept
 429:/Library/DaisyToolchain/0.2.0/arm/arm-none-eabi/include/c++/10.3.1/bits/std_function.h ****       {
 430:/Library/DaisyToolchain/0.2.0/arm/arm-none-eabi/include/c++/10.3.1/bits/std_function.h **** 	if (_M_manager)
 431:/Library/DaisyToolchain/0.2.0/arm/arm-none-eabi/include/c++/10.3.1/bits/std_function.h **** 	  {
 432:/Library/DaisyToolchain/0.2.0/arm/arm-none-eabi/include/c++/10.3.1/bits/std_function.h **** 	    _M_manager(_M_functor, _M_functor, __destroy_functor);
 433:/Library/DaisyToolchain/0.2.0/arm/arm-none-eabi/include/c++/10.3.1/bits/std_function.h **** 	    _M_manager = nullptr;
 434:/Library/DaisyToolchain/0.2.0/arm/arm-none-eabi/include/c++/10.3.1/bits/std_function.h **** 	    _M_invoker = nullptr;
 435:/Library/DaisyToolchain/0.2.0/arm/arm-none-eabi/include/c++/10.3.1/bits/std_function.h **** 	  }
 436:/Library/DaisyToolchain/0.2.0/arm/arm-none-eabi/include/c++/10.3.1/bits/std_function.h **** 	return *this;
 437:/Library/DaisyToolchain/0.2.0/arm/arm-none-eabi/include/c++/10.3.1/bits/std_function.h ****       }
 438:/Library/DaisyToolchain/0.2.0/arm/arm-none-eabi/include/c++/10.3.1/bits/std_function.h **** 
 439:/Library/DaisyToolchain/0.2.0/arm/arm-none-eabi/include/c++/10.3.1/bits/std_function.h ****       /**
 440:/Library/DaisyToolchain/0.2.0/arm/arm-none-eabi/include/c++/10.3.1/bits/std_function.h ****        *  @brief %Function assignment to a new target.
 441:/Library/DaisyToolchain/0.2.0/arm/arm-none-eabi/include/c++/10.3.1/bits/std_function.h ****        *  @param __f A %function object that is callable with parameters of
 442:/Library/DaisyToolchain/0.2.0/arm/arm-none-eabi/include/c++/10.3.1/bits/std_function.h ****        *  type @c T1, @c T2, ..., @c TN and returns a value convertible
 443:/Library/DaisyToolchain/0.2.0/arm/arm-none-eabi/include/c++/10.3.1/bits/std_function.h ****        *  to @c Res.
 444:/Library/DaisyToolchain/0.2.0/arm/arm-none-eabi/include/c++/10.3.1/bits/std_function.h ****        *  @return @c *this
 445:/Library/DaisyToolchain/0.2.0/arm/arm-none-eabi/include/c++/10.3.1/bits/std_function.h ****        *
 446:/Library/DaisyToolchain/0.2.0/arm/arm-none-eabi/include/c++/10.3.1/bits/std_function.h ****        *  This  %function object wrapper will target a copy of @a
 447:/Library/DaisyToolchain/0.2.0/arm/arm-none-eabi/include/c++/10.3.1/bits/std_function.h ****        *  __f. If @a __f is @c reference_wrapper<F>, then this function
 448:/Library/DaisyToolchain/0.2.0/arm/arm-none-eabi/include/c++/10.3.1/bits/std_function.h ****        *  object will contain a reference to the function object @c
 449:/Library/DaisyToolchain/0.2.0/arm/arm-none-eabi/include/c++/10.3.1/bits/std_function.h ****        *  __f.get(). If @a __f is a NULL function pointer or NULL
 450:/Library/DaisyToolchain/0.2.0/arm/arm-none-eabi/include/c++/10.3.1/bits/std_function.h ****        *  pointer-to-member, @c this object will be empty.
 451:/Library/DaisyToolchain/0.2.0/arm/arm-none-eabi/include/c++/10.3.1/bits/std_function.h ****        *
 452:/Library/DaisyToolchain/0.2.0/arm/arm-none-eabi/include/c++/10.3.1/bits/std_function.h ****        *  If @a __f is a non-NULL function pointer or an object of type @c
 453:/Library/DaisyToolchain/0.2.0/arm/arm-none-eabi/include/c++/10.3.1/bits/std_function.h ****        *  reference_wrapper<F>, this function will not throw.
 454:/Library/DaisyToolchain/0.2.0/arm/arm-none-eabi/include/c++/10.3.1/bits/std_function.h ****        */
 455:/Library/DaisyToolchain/0.2.0/arm/arm-none-eabi/include/c++/10.3.1/bits/std_function.h ****       template<typename _Functor>
 456:/Library/DaisyToolchain/0.2.0/arm/arm-none-eabi/include/c++/10.3.1/bits/std_function.h **** 	_Requires<_Callable<typename decay<_Functor>::type>, function&>
 457:/Library/DaisyToolchain/0.2.0/arm/arm-none-eabi/include/c++/10.3.1/bits/std_function.h **** 	operator=(_Functor&& __f)
 458:/Library/DaisyToolchain/0.2.0/arm/arm-none-eabi/include/c++/10.3.1/bits/std_function.h **** 	{
 459:/Library/DaisyToolchain/0.2.0/arm/arm-none-eabi/include/c++/10.3.1/bits/std_function.h **** 	  function(std::forward<_Functor>(__f)).swap(*this);
 460:/Library/DaisyToolchain/0.2.0/arm/arm-none-eabi/include/c++/10.3.1/bits/std_function.h **** 	  return *this;
 461:/Library/DaisyToolchain/0.2.0/arm/arm-none-eabi/include/c++/10.3.1/bits/std_function.h **** 	}
 462:/Library/DaisyToolchain/0.2.0/arm/arm-none-eabi/include/c++/10.3.1/bits/std_function.h **** 
 463:/Library/DaisyToolchain/0.2.0/arm/arm-none-eabi/include/c++/10.3.1/bits/std_function.h ****       /// @overload
 464:/Library/DaisyToolchain/0.2.0/arm/arm-none-eabi/include/c++/10.3.1/bits/std_function.h ****       template<typename _Functor>
 465:/Library/DaisyToolchain/0.2.0/arm/arm-none-eabi/include/c++/10.3.1/bits/std_function.h **** 	function&
 466:/Library/DaisyToolchain/0.2.0/arm/arm-none-eabi/include/c++/10.3.1/bits/std_function.h **** 	operator=(reference_wrapper<_Functor> __f) noexcept
 467:/Library/DaisyToolchain/0.2.0/arm/arm-none-eabi/include/c++/10.3.1/bits/std_function.h **** 	{
 468:/Library/DaisyToolchain/0.2.0/arm/arm-none-eabi/include/c++/10.3.1/bits/std_function.h **** 	  function(__f).swap(*this);
 469:/Library/DaisyToolchain/0.2.0/arm/arm-none-eabi/include/c++/10.3.1/bits/std_function.h **** 	  return *this;
 470:/Library/DaisyToolchain/0.2.0/arm/arm-none-eabi/include/c++/10.3.1/bits/std_function.h **** 	}
ARM GAS  /var/folders/9s/8rp0_f2s1n31qbztm3b5_fdh0000gn/T//cc1V9ehO.s 			page 91


 471:/Library/DaisyToolchain/0.2.0/arm/arm-none-eabi/include/c++/10.3.1/bits/std_function.h **** 
 472:/Library/DaisyToolchain/0.2.0/arm/arm-none-eabi/include/c++/10.3.1/bits/std_function.h ****       // [3.7.2.2] function modifiers
 473:/Library/DaisyToolchain/0.2.0/arm/arm-none-eabi/include/c++/10.3.1/bits/std_function.h **** 
 474:/Library/DaisyToolchain/0.2.0/arm/arm-none-eabi/include/c++/10.3.1/bits/std_function.h ****       /**
 475:/Library/DaisyToolchain/0.2.0/arm/arm-none-eabi/include/c++/10.3.1/bits/std_function.h ****        *  @brief Swap the targets of two %function objects.
 476:/Library/DaisyToolchain/0.2.0/arm/arm-none-eabi/include/c++/10.3.1/bits/std_function.h ****        *  @param __x A %function with identical call signature.
 477:/Library/DaisyToolchain/0.2.0/arm/arm-none-eabi/include/c++/10.3.1/bits/std_function.h ****        *
 478:/Library/DaisyToolchain/0.2.0/arm/arm-none-eabi/include/c++/10.3.1/bits/std_function.h ****        *  Swap the targets of @c this function object and @a __f. This
 479:/Library/DaisyToolchain/0.2.0/arm/arm-none-eabi/include/c++/10.3.1/bits/std_function.h ****        *  function will not throw an %exception.
 480:/Library/DaisyToolchain/0.2.0/arm/arm-none-eabi/include/c++/10.3.1/bits/std_function.h ****        */
 481:/Library/DaisyToolchain/0.2.0/arm/arm-none-eabi/include/c++/10.3.1/bits/std_function.h ****       void swap(function& __x) noexcept
 482:/Library/DaisyToolchain/0.2.0/arm/arm-none-eabi/include/c++/10.3.1/bits/std_function.h ****       {
 483:/Library/DaisyToolchain/0.2.0/arm/arm-none-eabi/include/c++/10.3.1/bits/std_function.h **** 	std::swap(_M_functor, __x._M_functor);
 484:/Library/DaisyToolchain/0.2.0/arm/arm-none-eabi/include/c++/10.3.1/bits/std_function.h **** 	std::swap(_M_manager, __x._M_manager);
 485:/Library/DaisyToolchain/0.2.0/arm/arm-none-eabi/include/c++/10.3.1/bits/std_function.h **** 	std::swap(_M_invoker, __x._M_invoker);
 486:/Library/DaisyToolchain/0.2.0/arm/arm-none-eabi/include/c++/10.3.1/bits/std_function.h ****       }
 487:/Library/DaisyToolchain/0.2.0/arm/arm-none-eabi/include/c++/10.3.1/bits/std_function.h **** 
 488:/Library/DaisyToolchain/0.2.0/arm/arm-none-eabi/include/c++/10.3.1/bits/std_function.h ****       // [3.7.2.3] function capacity
 489:/Library/DaisyToolchain/0.2.0/arm/arm-none-eabi/include/c++/10.3.1/bits/std_function.h **** 
 490:/Library/DaisyToolchain/0.2.0/arm/arm-none-eabi/include/c++/10.3.1/bits/std_function.h ****       /**
 491:/Library/DaisyToolchain/0.2.0/arm/arm-none-eabi/include/c++/10.3.1/bits/std_function.h ****        *  @brief Determine if the %function wrapper has a target.
 492:/Library/DaisyToolchain/0.2.0/arm/arm-none-eabi/include/c++/10.3.1/bits/std_function.h ****        *
 493:/Library/DaisyToolchain/0.2.0/arm/arm-none-eabi/include/c++/10.3.1/bits/std_function.h ****        *  @return @c true when this %function object contains a target,
 494:/Library/DaisyToolchain/0.2.0/arm/arm-none-eabi/include/c++/10.3.1/bits/std_function.h ****        *  or @c false when it is empty.
 495:/Library/DaisyToolchain/0.2.0/arm/arm-none-eabi/include/c++/10.3.1/bits/std_function.h ****        *
 496:/Library/DaisyToolchain/0.2.0/arm/arm-none-eabi/include/c++/10.3.1/bits/std_function.h ****        *  This function will not throw an %exception.
 497:/Library/DaisyToolchain/0.2.0/arm/arm-none-eabi/include/c++/10.3.1/bits/std_function.h ****        */
 498:/Library/DaisyToolchain/0.2.0/arm/arm-none-eabi/include/c++/10.3.1/bits/std_function.h ****       explicit operator bool() const noexcept
 499:/Library/DaisyToolchain/0.2.0/arm/arm-none-eabi/include/c++/10.3.1/bits/std_function.h ****       { return !_M_empty(); }
 500:/Library/DaisyToolchain/0.2.0/arm/arm-none-eabi/include/c++/10.3.1/bits/std_function.h **** 
 501:/Library/DaisyToolchain/0.2.0/arm/arm-none-eabi/include/c++/10.3.1/bits/std_function.h ****       // [3.7.2.4] function invocation
 502:/Library/DaisyToolchain/0.2.0/arm/arm-none-eabi/include/c++/10.3.1/bits/std_function.h **** 
 503:/Library/DaisyToolchain/0.2.0/arm/arm-none-eabi/include/c++/10.3.1/bits/std_function.h ****       /**
 504:/Library/DaisyToolchain/0.2.0/arm/arm-none-eabi/include/c++/10.3.1/bits/std_function.h ****        *  @brief Invokes the function targeted by @c *this.
 505:/Library/DaisyToolchain/0.2.0/arm/arm-none-eabi/include/c++/10.3.1/bits/std_function.h ****        *  @returns the result of the target.
 506:/Library/DaisyToolchain/0.2.0/arm/arm-none-eabi/include/c++/10.3.1/bits/std_function.h ****        *  @throws bad_function_call when @c !(bool)*this
 507:/Library/DaisyToolchain/0.2.0/arm/arm-none-eabi/include/c++/10.3.1/bits/std_function.h ****        *
 508:/Library/DaisyToolchain/0.2.0/arm/arm-none-eabi/include/c++/10.3.1/bits/std_function.h ****        *  The function call operator invokes the target function object
 509:/Library/DaisyToolchain/0.2.0/arm/arm-none-eabi/include/c++/10.3.1/bits/std_function.h ****        *  stored by @c this.
 510:/Library/DaisyToolchain/0.2.0/arm/arm-none-eabi/include/c++/10.3.1/bits/std_function.h ****        */
 511:/Library/DaisyToolchain/0.2.0/arm/arm-none-eabi/include/c++/10.3.1/bits/std_function.h ****       _Res operator()(_ArgTypes... __args) const;
 512:/Library/DaisyToolchain/0.2.0/arm/arm-none-eabi/include/c++/10.3.1/bits/std_function.h **** 
 513:/Library/DaisyToolchain/0.2.0/arm/arm-none-eabi/include/c++/10.3.1/bits/std_function.h **** #if __cpp_rtti
 514:/Library/DaisyToolchain/0.2.0/arm/arm-none-eabi/include/c++/10.3.1/bits/std_function.h ****       // [3.7.2.5] function target access
 515:/Library/DaisyToolchain/0.2.0/arm/arm-none-eabi/include/c++/10.3.1/bits/std_function.h ****       /**
 516:/Library/DaisyToolchain/0.2.0/arm/arm-none-eabi/include/c++/10.3.1/bits/std_function.h ****        *  @brief Determine the type of the target of this function object
 517:/Library/DaisyToolchain/0.2.0/arm/arm-none-eabi/include/c++/10.3.1/bits/std_function.h ****        *  wrapper.
 518:/Library/DaisyToolchain/0.2.0/arm/arm-none-eabi/include/c++/10.3.1/bits/std_function.h ****        *
 519:/Library/DaisyToolchain/0.2.0/arm/arm-none-eabi/include/c++/10.3.1/bits/std_function.h ****        *  @returns the type identifier of the target function object, or
 520:/Library/DaisyToolchain/0.2.0/arm/arm-none-eabi/include/c++/10.3.1/bits/std_function.h ****        *  @c typeid(void) if @c !(bool)*this.
 521:/Library/DaisyToolchain/0.2.0/arm/arm-none-eabi/include/c++/10.3.1/bits/std_function.h ****        *
 522:/Library/DaisyToolchain/0.2.0/arm/arm-none-eabi/include/c++/10.3.1/bits/std_function.h ****        *  This function will not throw an %exception.
 523:/Library/DaisyToolchain/0.2.0/arm/arm-none-eabi/include/c++/10.3.1/bits/std_function.h ****        */
 524:/Library/DaisyToolchain/0.2.0/arm/arm-none-eabi/include/c++/10.3.1/bits/std_function.h ****       const type_info& target_type() const noexcept;
 525:/Library/DaisyToolchain/0.2.0/arm/arm-none-eabi/include/c++/10.3.1/bits/std_function.h **** 
 526:/Library/DaisyToolchain/0.2.0/arm/arm-none-eabi/include/c++/10.3.1/bits/std_function.h ****       /**
 527:/Library/DaisyToolchain/0.2.0/arm/arm-none-eabi/include/c++/10.3.1/bits/std_function.h ****        *  @brief Access the stored target function object.
ARM GAS  /var/folders/9s/8rp0_f2s1n31qbztm3b5_fdh0000gn/T//cc1V9ehO.s 			page 92


 528:/Library/DaisyToolchain/0.2.0/arm/arm-none-eabi/include/c++/10.3.1/bits/std_function.h ****        *
 529:/Library/DaisyToolchain/0.2.0/arm/arm-none-eabi/include/c++/10.3.1/bits/std_function.h ****        *  @return Returns a pointer to the stored target function object,
 530:/Library/DaisyToolchain/0.2.0/arm/arm-none-eabi/include/c++/10.3.1/bits/std_function.h ****        *  if @c typeid(_Functor).equals(target_type()); otherwise, a NULL
 531:/Library/DaisyToolchain/0.2.0/arm/arm-none-eabi/include/c++/10.3.1/bits/std_function.h ****        *  pointer.
 532:/Library/DaisyToolchain/0.2.0/arm/arm-none-eabi/include/c++/10.3.1/bits/std_function.h ****        *
 533:/Library/DaisyToolchain/0.2.0/arm/arm-none-eabi/include/c++/10.3.1/bits/std_function.h ****        * This function does not throw exceptions.
 534:/Library/DaisyToolchain/0.2.0/arm/arm-none-eabi/include/c++/10.3.1/bits/std_function.h ****        *
 535:/Library/DaisyToolchain/0.2.0/arm/arm-none-eabi/include/c++/10.3.1/bits/std_function.h ****        * @{
 536:/Library/DaisyToolchain/0.2.0/arm/arm-none-eabi/include/c++/10.3.1/bits/std_function.h ****        */
 537:/Library/DaisyToolchain/0.2.0/arm/arm-none-eabi/include/c++/10.3.1/bits/std_function.h ****       template<typename _Functor>       _Functor* target() noexcept;
 538:/Library/DaisyToolchain/0.2.0/arm/arm-none-eabi/include/c++/10.3.1/bits/std_function.h **** 
 539:/Library/DaisyToolchain/0.2.0/arm/arm-none-eabi/include/c++/10.3.1/bits/std_function.h ****       template<typename _Functor> const _Functor* target() const noexcept;
 540:/Library/DaisyToolchain/0.2.0/arm/arm-none-eabi/include/c++/10.3.1/bits/std_function.h ****       /// @}
 541:/Library/DaisyToolchain/0.2.0/arm/arm-none-eabi/include/c++/10.3.1/bits/std_function.h **** #endif
 542:/Library/DaisyToolchain/0.2.0/arm/arm-none-eabi/include/c++/10.3.1/bits/std_function.h **** 
 543:/Library/DaisyToolchain/0.2.0/arm/arm-none-eabi/include/c++/10.3.1/bits/std_function.h ****     private:
 544:/Library/DaisyToolchain/0.2.0/arm/arm-none-eabi/include/c++/10.3.1/bits/std_function.h ****       using _Invoker_type = _Res (*)(const _Any_data&, _ArgTypes&&...);
 545:/Library/DaisyToolchain/0.2.0/arm/arm-none-eabi/include/c++/10.3.1/bits/std_function.h ****       _Invoker_type _M_invoker;
 546:/Library/DaisyToolchain/0.2.0/arm/arm-none-eabi/include/c++/10.3.1/bits/std_function.h ****   };
 547:/Library/DaisyToolchain/0.2.0/arm/arm-none-eabi/include/c++/10.3.1/bits/std_function.h **** 
 548:/Library/DaisyToolchain/0.2.0/arm/arm-none-eabi/include/c++/10.3.1/bits/std_function.h **** #if __cpp_deduction_guides >= 201606
 549:/Library/DaisyToolchain/0.2.0/arm/arm-none-eabi/include/c++/10.3.1/bits/std_function.h ****   template<typename>
 550:/Library/DaisyToolchain/0.2.0/arm/arm-none-eabi/include/c++/10.3.1/bits/std_function.h ****     struct __function_guide_helper
 551:/Library/DaisyToolchain/0.2.0/arm/arm-none-eabi/include/c++/10.3.1/bits/std_function.h ****     { };
 552:/Library/DaisyToolchain/0.2.0/arm/arm-none-eabi/include/c++/10.3.1/bits/std_function.h **** 
 553:/Library/DaisyToolchain/0.2.0/arm/arm-none-eabi/include/c++/10.3.1/bits/std_function.h ****   template<typename _Res, typename _Tp, bool _Nx, typename... _Args>
 554:/Library/DaisyToolchain/0.2.0/arm/arm-none-eabi/include/c++/10.3.1/bits/std_function.h ****     struct __function_guide_helper<
 555:/Library/DaisyToolchain/0.2.0/arm/arm-none-eabi/include/c++/10.3.1/bits/std_function.h ****       _Res (_Tp::*) (_Args...) noexcept(_Nx)
 556:/Library/DaisyToolchain/0.2.0/arm/arm-none-eabi/include/c++/10.3.1/bits/std_function.h ****     >
 557:/Library/DaisyToolchain/0.2.0/arm/arm-none-eabi/include/c++/10.3.1/bits/std_function.h ****     { using type = _Res(_Args...); };
 558:/Library/DaisyToolchain/0.2.0/arm/arm-none-eabi/include/c++/10.3.1/bits/std_function.h **** 
 559:/Library/DaisyToolchain/0.2.0/arm/arm-none-eabi/include/c++/10.3.1/bits/std_function.h ****   template<typename _Res, typename _Tp, bool _Nx, typename... _Args>
 560:/Library/DaisyToolchain/0.2.0/arm/arm-none-eabi/include/c++/10.3.1/bits/std_function.h ****     struct __function_guide_helper<
 561:/Library/DaisyToolchain/0.2.0/arm/arm-none-eabi/include/c++/10.3.1/bits/std_function.h ****       _Res (_Tp::*) (_Args...) & noexcept(_Nx)
 562:/Library/DaisyToolchain/0.2.0/arm/arm-none-eabi/include/c++/10.3.1/bits/std_function.h ****     >
 563:/Library/DaisyToolchain/0.2.0/arm/arm-none-eabi/include/c++/10.3.1/bits/std_function.h ****     { using type = _Res(_Args...); };
 564:/Library/DaisyToolchain/0.2.0/arm/arm-none-eabi/include/c++/10.3.1/bits/std_function.h **** 
 565:/Library/DaisyToolchain/0.2.0/arm/arm-none-eabi/include/c++/10.3.1/bits/std_function.h ****   template<typename _Res, typename _Tp, bool _Nx, typename... _Args>
 566:/Library/DaisyToolchain/0.2.0/arm/arm-none-eabi/include/c++/10.3.1/bits/std_function.h ****     struct __function_guide_helper<
 567:/Library/DaisyToolchain/0.2.0/arm/arm-none-eabi/include/c++/10.3.1/bits/std_function.h ****       _Res (_Tp::*) (_Args...) const noexcept(_Nx)
 568:/Library/DaisyToolchain/0.2.0/arm/arm-none-eabi/include/c++/10.3.1/bits/std_function.h ****     >
 569:/Library/DaisyToolchain/0.2.0/arm/arm-none-eabi/include/c++/10.3.1/bits/std_function.h ****     { using type = _Res(_Args...); };
 570:/Library/DaisyToolchain/0.2.0/arm/arm-none-eabi/include/c++/10.3.1/bits/std_function.h **** 
 571:/Library/DaisyToolchain/0.2.0/arm/arm-none-eabi/include/c++/10.3.1/bits/std_function.h ****   template<typename _Res, typename _Tp, bool _Nx, typename... _Args>
 572:/Library/DaisyToolchain/0.2.0/arm/arm-none-eabi/include/c++/10.3.1/bits/std_function.h ****     struct __function_guide_helper<
 573:/Library/DaisyToolchain/0.2.0/arm/arm-none-eabi/include/c++/10.3.1/bits/std_function.h ****       _Res (_Tp::*) (_Args...) const & noexcept(_Nx)
 574:/Library/DaisyToolchain/0.2.0/arm/arm-none-eabi/include/c++/10.3.1/bits/std_function.h ****     >
 575:/Library/DaisyToolchain/0.2.0/arm/arm-none-eabi/include/c++/10.3.1/bits/std_function.h ****     { using type = _Res(_Args...); };
 576:/Library/DaisyToolchain/0.2.0/arm/arm-none-eabi/include/c++/10.3.1/bits/std_function.h **** 
 577:/Library/DaisyToolchain/0.2.0/arm/arm-none-eabi/include/c++/10.3.1/bits/std_function.h ****   template<typename _Res, typename... _ArgTypes>
 578:/Library/DaisyToolchain/0.2.0/arm/arm-none-eabi/include/c++/10.3.1/bits/std_function.h ****     function(_Res(*)(_ArgTypes...)) -> function<_Res(_ArgTypes...)>;
 579:/Library/DaisyToolchain/0.2.0/arm/arm-none-eabi/include/c++/10.3.1/bits/std_function.h **** 
 580:/Library/DaisyToolchain/0.2.0/arm/arm-none-eabi/include/c++/10.3.1/bits/std_function.h ****   template<typename _Functor, typename _Signature = typename
 581:/Library/DaisyToolchain/0.2.0/arm/arm-none-eabi/include/c++/10.3.1/bits/std_function.h **** 	   __function_guide_helper<decltype(&_Functor::operator())>::type>
 582:/Library/DaisyToolchain/0.2.0/arm/arm-none-eabi/include/c++/10.3.1/bits/std_function.h ****     function(_Functor) -> function<_Signature>;
 583:/Library/DaisyToolchain/0.2.0/arm/arm-none-eabi/include/c++/10.3.1/bits/std_function.h **** #endif
 584:/Library/DaisyToolchain/0.2.0/arm/arm-none-eabi/include/c++/10.3.1/bits/std_function.h **** 
ARM GAS  /var/folders/9s/8rp0_f2s1n31qbztm3b5_fdh0000gn/T//cc1V9ehO.s 			page 93


 585:/Library/DaisyToolchain/0.2.0/arm/arm-none-eabi/include/c++/10.3.1/bits/std_function.h ****   // Out-of-line member definitions.
 586:/Library/DaisyToolchain/0.2.0/arm/arm-none-eabi/include/c++/10.3.1/bits/std_function.h ****   template<typename _Res, typename... _ArgTypes>
 587:/Library/DaisyToolchain/0.2.0/arm/arm-none-eabi/include/c++/10.3.1/bits/std_function.h ****     function<_Res(_ArgTypes...)>::
 588:/Library/DaisyToolchain/0.2.0/arm/arm-none-eabi/include/c++/10.3.1/bits/std_function.h ****     function(const function& __x)
 589:/Library/DaisyToolchain/0.2.0/arm/arm-none-eabi/include/c++/10.3.1/bits/std_function.h ****     : _Function_base()
 590:/Library/DaisyToolchain/0.2.0/arm/arm-none-eabi/include/c++/10.3.1/bits/std_function.h ****     {
 591:/Library/DaisyToolchain/0.2.0/arm/arm-none-eabi/include/c++/10.3.1/bits/std_function.h ****       if (static_cast<bool>(__x))
 592:/Library/DaisyToolchain/0.2.0/arm/arm-none-eabi/include/c++/10.3.1/bits/std_function.h **** 	{
 593:/Library/DaisyToolchain/0.2.0/arm/arm-none-eabi/include/c++/10.3.1/bits/std_function.h **** 	  __x._M_manager(_M_functor, __x._M_functor, __clone_functor);
 594:/Library/DaisyToolchain/0.2.0/arm/arm-none-eabi/include/c++/10.3.1/bits/std_function.h **** 	  _M_invoker = __x._M_invoker;
 595:/Library/DaisyToolchain/0.2.0/arm/arm-none-eabi/include/c++/10.3.1/bits/std_function.h **** 	  _M_manager = __x._M_manager;
 596:/Library/DaisyToolchain/0.2.0/arm/arm-none-eabi/include/c++/10.3.1/bits/std_function.h **** 	}
 597:/Library/DaisyToolchain/0.2.0/arm/arm-none-eabi/include/c++/10.3.1/bits/std_function.h ****     }
 598:/Library/DaisyToolchain/0.2.0/arm/arm-none-eabi/include/c++/10.3.1/bits/std_function.h **** 
 599:/Library/DaisyToolchain/0.2.0/arm/arm-none-eabi/include/c++/10.3.1/bits/std_function.h ****   template<typename _Res, typename... _ArgTypes>
 600:/Library/DaisyToolchain/0.2.0/arm/arm-none-eabi/include/c++/10.3.1/bits/std_function.h ****     template<typename _Functor, typename, typename>
 601:/Library/DaisyToolchain/0.2.0/arm/arm-none-eabi/include/c++/10.3.1/bits/std_function.h ****       function<_Res(_ArgTypes...)>::
 2192              		.loc 13 601 7 view .LVU513
 2193              	.LBB670:
 2194              	.LBB671:
 2195              	.LBI671:
 240:/Library/DaisyToolchain/0.2.0/arm/arm-none-eabi/include/c++/10.3.1/bits/std_function.h **** 
 2196              		.loc 13 240 5 view .LVU514
 240:/Library/DaisyToolchain/0.2.0/arm/arm-none-eabi/include/c++/10.3.1/bits/std_function.h **** 
 2197              		.loc 13 240 5 is_stmt 0 view .LVU515
 2198              	.LBE671:
 2199              	.LBB672:
 2200              	.LBB673:
 2201              	.LBI673:
 227:/Library/DaisyToolchain/0.2.0/arm/arm-none-eabi/include/c++/10.3.1/bits/std_function.h **** 	  { return true; }
 2202              		.loc 13 227 4 is_stmt 1 view .LVU516
 227:/Library/DaisyToolchain/0.2.0/arm/arm-none-eabi/include/c++/10.3.1/bits/std_function.h **** 	  { return true; }
 2203              		.loc 13 227 4 is_stmt 0 view .LVU517
 2204              	.LBE673:
 2205              	.LBB674:
 2206              	.LBI674:
 2207              		.file 25 "/Library/DaisyToolchain/0.2.0/arm/arm-none-eabi/include/c++/10.3.1/bits/move.h"
   1:/Library/DaisyToolchain/0.2.0/arm/arm-none-eabi/include/c++/10.3.1/bits/move.h **** // Move, forward and identity for C++11 + swap -*- C++ -*-
   2:/Library/DaisyToolchain/0.2.0/arm/arm-none-eabi/include/c++/10.3.1/bits/move.h **** 
   3:/Library/DaisyToolchain/0.2.0/arm/arm-none-eabi/include/c++/10.3.1/bits/move.h **** // Copyright (C) 2007-2020 Free Software Foundation, Inc.
   4:/Library/DaisyToolchain/0.2.0/arm/arm-none-eabi/include/c++/10.3.1/bits/move.h **** //
   5:/Library/DaisyToolchain/0.2.0/arm/arm-none-eabi/include/c++/10.3.1/bits/move.h **** // This file is part of the GNU ISO C++ Library.  This library is free
   6:/Library/DaisyToolchain/0.2.0/arm/arm-none-eabi/include/c++/10.3.1/bits/move.h **** // software; you can redistribute it and/or modify it under the
   7:/Library/DaisyToolchain/0.2.0/arm/arm-none-eabi/include/c++/10.3.1/bits/move.h **** // terms of the GNU General Public License as published by the
   8:/Library/DaisyToolchain/0.2.0/arm/arm-none-eabi/include/c++/10.3.1/bits/move.h **** // Free Software Foundation; either version 3, or (at your option)
   9:/Library/DaisyToolchain/0.2.0/arm/arm-none-eabi/include/c++/10.3.1/bits/move.h **** // any later version.
  10:/Library/DaisyToolchain/0.2.0/arm/arm-none-eabi/include/c++/10.3.1/bits/move.h **** 
  11:/Library/DaisyToolchain/0.2.0/arm/arm-none-eabi/include/c++/10.3.1/bits/move.h **** // This library is distributed in the hope that it will be useful,
  12:/Library/DaisyToolchain/0.2.0/arm/arm-none-eabi/include/c++/10.3.1/bits/move.h **** // but WITHOUT ANY WARRANTY; without even the implied warranty of
  13:/Library/DaisyToolchain/0.2.0/arm/arm-none-eabi/include/c++/10.3.1/bits/move.h **** // MERCHANTABILITY or FITNESS FOR A PARTICULAR PURPOSE.  See the
  14:/Library/DaisyToolchain/0.2.0/arm/arm-none-eabi/include/c++/10.3.1/bits/move.h **** // GNU General Public License for more details.
  15:/Library/DaisyToolchain/0.2.0/arm/arm-none-eabi/include/c++/10.3.1/bits/move.h **** 
  16:/Library/DaisyToolchain/0.2.0/arm/arm-none-eabi/include/c++/10.3.1/bits/move.h **** // Under Section 7 of GPL version 3, you are granted additional
  17:/Library/DaisyToolchain/0.2.0/arm/arm-none-eabi/include/c++/10.3.1/bits/move.h **** // permissions described in the GCC Runtime Library Exception, version
  18:/Library/DaisyToolchain/0.2.0/arm/arm-none-eabi/include/c++/10.3.1/bits/move.h **** // 3.1, as published by the Free Software Foundation.
  19:/Library/DaisyToolchain/0.2.0/arm/arm-none-eabi/include/c++/10.3.1/bits/move.h **** 
  20:/Library/DaisyToolchain/0.2.0/arm/arm-none-eabi/include/c++/10.3.1/bits/move.h **** // You should have received a copy of the GNU General Public License and
ARM GAS  /var/folders/9s/8rp0_f2s1n31qbztm3b5_fdh0000gn/T//cc1V9ehO.s 			page 94


  21:/Library/DaisyToolchain/0.2.0/arm/arm-none-eabi/include/c++/10.3.1/bits/move.h **** // a copy of the GCC Runtime Library Exception along with this program;
  22:/Library/DaisyToolchain/0.2.0/arm/arm-none-eabi/include/c++/10.3.1/bits/move.h **** // see the files COPYING3 and COPYING.RUNTIME respectively.  If not, see
  23:/Library/DaisyToolchain/0.2.0/arm/arm-none-eabi/include/c++/10.3.1/bits/move.h **** // <http://www.gnu.org/licenses/>.
  24:/Library/DaisyToolchain/0.2.0/arm/arm-none-eabi/include/c++/10.3.1/bits/move.h **** 
  25:/Library/DaisyToolchain/0.2.0/arm/arm-none-eabi/include/c++/10.3.1/bits/move.h **** /** @file bits/move.h
  26:/Library/DaisyToolchain/0.2.0/arm/arm-none-eabi/include/c++/10.3.1/bits/move.h ****  *  This is an internal header file, included by other library headers.
  27:/Library/DaisyToolchain/0.2.0/arm/arm-none-eabi/include/c++/10.3.1/bits/move.h ****  *  Do not attempt to use it directly. @headername{utility}
  28:/Library/DaisyToolchain/0.2.0/arm/arm-none-eabi/include/c++/10.3.1/bits/move.h ****  */
  29:/Library/DaisyToolchain/0.2.0/arm/arm-none-eabi/include/c++/10.3.1/bits/move.h **** 
  30:/Library/DaisyToolchain/0.2.0/arm/arm-none-eabi/include/c++/10.3.1/bits/move.h **** #ifndef _MOVE_H
  31:/Library/DaisyToolchain/0.2.0/arm/arm-none-eabi/include/c++/10.3.1/bits/move.h **** #define _MOVE_H 1
  32:/Library/DaisyToolchain/0.2.0/arm/arm-none-eabi/include/c++/10.3.1/bits/move.h **** 
  33:/Library/DaisyToolchain/0.2.0/arm/arm-none-eabi/include/c++/10.3.1/bits/move.h **** #include <bits/c++config.h>
  34:/Library/DaisyToolchain/0.2.0/arm/arm-none-eabi/include/c++/10.3.1/bits/move.h **** #if __cplusplus < 201103L
  35:/Library/DaisyToolchain/0.2.0/arm/arm-none-eabi/include/c++/10.3.1/bits/move.h **** # include <bits/concept_check.h>
  36:/Library/DaisyToolchain/0.2.0/arm/arm-none-eabi/include/c++/10.3.1/bits/move.h **** #endif
  37:/Library/DaisyToolchain/0.2.0/arm/arm-none-eabi/include/c++/10.3.1/bits/move.h **** 
  38:/Library/DaisyToolchain/0.2.0/arm/arm-none-eabi/include/c++/10.3.1/bits/move.h **** namespace std _GLIBCXX_VISIBILITY(default)
  39:/Library/DaisyToolchain/0.2.0/arm/arm-none-eabi/include/c++/10.3.1/bits/move.h **** {
  40:/Library/DaisyToolchain/0.2.0/arm/arm-none-eabi/include/c++/10.3.1/bits/move.h **** _GLIBCXX_BEGIN_NAMESPACE_VERSION
  41:/Library/DaisyToolchain/0.2.0/arm/arm-none-eabi/include/c++/10.3.1/bits/move.h **** 
  42:/Library/DaisyToolchain/0.2.0/arm/arm-none-eabi/include/c++/10.3.1/bits/move.h ****   // Used, in C++03 mode too, by allocators, etc.
  43:/Library/DaisyToolchain/0.2.0/arm/arm-none-eabi/include/c++/10.3.1/bits/move.h ****   /**
  44:/Library/DaisyToolchain/0.2.0/arm/arm-none-eabi/include/c++/10.3.1/bits/move.h ****    *  @brief Same as C++11 std::addressof
  45:/Library/DaisyToolchain/0.2.0/arm/arm-none-eabi/include/c++/10.3.1/bits/move.h ****    *  @ingroup utilities
  46:/Library/DaisyToolchain/0.2.0/arm/arm-none-eabi/include/c++/10.3.1/bits/move.h ****    */
  47:/Library/DaisyToolchain/0.2.0/arm/arm-none-eabi/include/c++/10.3.1/bits/move.h ****   template<typename _Tp>
  48:/Library/DaisyToolchain/0.2.0/arm/arm-none-eabi/include/c++/10.3.1/bits/move.h ****     inline _GLIBCXX_CONSTEXPR _Tp*
  49:/Library/DaisyToolchain/0.2.0/arm/arm-none-eabi/include/c++/10.3.1/bits/move.h ****     __addressof(_Tp& __r) _GLIBCXX_NOEXCEPT
  50:/Library/DaisyToolchain/0.2.0/arm/arm-none-eabi/include/c++/10.3.1/bits/move.h ****     { return __builtin_addressof(__r); }
  51:/Library/DaisyToolchain/0.2.0/arm/arm-none-eabi/include/c++/10.3.1/bits/move.h **** 
  52:/Library/DaisyToolchain/0.2.0/arm/arm-none-eabi/include/c++/10.3.1/bits/move.h **** #if __cplusplus >= 201103L
  53:/Library/DaisyToolchain/0.2.0/arm/arm-none-eabi/include/c++/10.3.1/bits/move.h **** 
  54:/Library/DaisyToolchain/0.2.0/arm/arm-none-eabi/include/c++/10.3.1/bits/move.h **** _GLIBCXX_END_NAMESPACE_VERSION
  55:/Library/DaisyToolchain/0.2.0/arm/arm-none-eabi/include/c++/10.3.1/bits/move.h **** } // namespace
  56:/Library/DaisyToolchain/0.2.0/arm/arm-none-eabi/include/c++/10.3.1/bits/move.h **** 
  57:/Library/DaisyToolchain/0.2.0/arm/arm-none-eabi/include/c++/10.3.1/bits/move.h **** #include <type_traits> // Brings in std::declval too.
  58:/Library/DaisyToolchain/0.2.0/arm/arm-none-eabi/include/c++/10.3.1/bits/move.h **** 
  59:/Library/DaisyToolchain/0.2.0/arm/arm-none-eabi/include/c++/10.3.1/bits/move.h **** namespace std _GLIBCXX_VISIBILITY(default)
  60:/Library/DaisyToolchain/0.2.0/arm/arm-none-eabi/include/c++/10.3.1/bits/move.h **** {
  61:/Library/DaisyToolchain/0.2.0/arm/arm-none-eabi/include/c++/10.3.1/bits/move.h **** _GLIBCXX_BEGIN_NAMESPACE_VERSION
  62:/Library/DaisyToolchain/0.2.0/arm/arm-none-eabi/include/c++/10.3.1/bits/move.h **** 
  63:/Library/DaisyToolchain/0.2.0/arm/arm-none-eabi/include/c++/10.3.1/bits/move.h ****   /**
  64:/Library/DaisyToolchain/0.2.0/arm/arm-none-eabi/include/c++/10.3.1/bits/move.h ****    *  @addtogroup utilities
  65:/Library/DaisyToolchain/0.2.0/arm/arm-none-eabi/include/c++/10.3.1/bits/move.h ****    *  @{
  66:/Library/DaisyToolchain/0.2.0/arm/arm-none-eabi/include/c++/10.3.1/bits/move.h ****    */
  67:/Library/DaisyToolchain/0.2.0/arm/arm-none-eabi/include/c++/10.3.1/bits/move.h **** 
  68:/Library/DaisyToolchain/0.2.0/arm/arm-none-eabi/include/c++/10.3.1/bits/move.h ****   /**
  69:/Library/DaisyToolchain/0.2.0/arm/arm-none-eabi/include/c++/10.3.1/bits/move.h ****    *  @brief  Forward an lvalue.
  70:/Library/DaisyToolchain/0.2.0/arm/arm-none-eabi/include/c++/10.3.1/bits/move.h ****    *  @return The parameter cast to the specified type.
  71:/Library/DaisyToolchain/0.2.0/arm/arm-none-eabi/include/c++/10.3.1/bits/move.h ****    *
  72:/Library/DaisyToolchain/0.2.0/arm/arm-none-eabi/include/c++/10.3.1/bits/move.h ****    *  This function is used to implement "perfect forwarding".
  73:/Library/DaisyToolchain/0.2.0/arm/arm-none-eabi/include/c++/10.3.1/bits/move.h ****    */
  74:/Library/DaisyToolchain/0.2.0/arm/arm-none-eabi/include/c++/10.3.1/bits/move.h ****   template<typename _Tp>
  75:/Library/DaisyToolchain/0.2.0/arm/arm-none-eabi/include/c++/10.3.1/bits/move.h ****     constexpr _Tp&&
  76:/Library/DaisyToolchain/0.2.0/arm/arm-none-eabi/include/c++/10.3.1/bits/move.h ****     forward(typename std::remove_reference<_Tp>::type& __t) noexcept
  77:/Library/DaisyToolchain/0.2.0/arm/arm-none-eabi/include/c++/10.3.1/bits/move.h ****     { return static_cast<_Tp&&>(__t); }
ARM GAS  /var/folders/9s/8rp0_f2s1n31qbztm3b5_fdh0000gn/T//cc1V9ehO.s 			page 95


  78:/Library/DaisyToolchain/0.2.0/arm/arm-none-eabi/include/c++/10.3.1/bits/move.h **** 
  79:/Library/DaisyToolchain/0.2.0/arm/arm-none-eabi/include/c++/10.3.1/bits/move.h ****   /**
  80:/Library/DaisyToolchain/0.2.0/arm/arm-none-eabi/include/c++/10.3.1/bits/move.h ****    *  @brief  Forward an rvalue.
  81:/Library/DaisyToolchain/0.2.0/arm/arm-none-eabi/include/c++/10.3.1/bits/move.h ****    *  @return The parameter cast to the specified type.
  82:/Library/DaisyToolchain/0.2.0/arm/arm-none-eabi/include/c++/10.3.1/bits/move.h ****    *
  83:/Library/DaisyToolchain/0.2.0/arm/arm-none-eabi/include/c++/10.3.1/bits/move.h ****    *  This function is used to implement "perfect forwarding".
  84:/Library/DaisyToolchain/0.2.0/arm/arm-none-eabi/include/c++/10.3.1/bits/move.h ****    */
  85:/Library/DaisyToolchain/0.2.0/arm/arm-none-eabi/include/c++/10.3.1/bits/move.h ****   template<typename _Tp>
  86:/Library/DaisyToolchain/0.2.0/arm/arm-none-eabi/include/c++/10.3.1/bits/move.h ****     constexpr _Tp&&
  87:/Library/DaisyToolchain/0.2.0/arm/arm-none-eabi/include/c++/10.3.1/bits/move.h ****     forward(typename std::remove_reference<_Tp>::type&& __t) noexcept
  88:/Library/DaisyToolchain/0.2.0/arm/arm-none-eabi/include/c++/10.3.1/bits/move.h ****     {
  89:/Library/DaisyToolchain/0.2.0/arm/arm-none-eabi/include/c++/10.3.1/bits/move.h ****       static_assert(!std::is_lvalue_reference<_Tp>::value, "template argument"
  90:/Library/DaisyToolchain/0.2.0/arm/arm-none-eabi/include/c++/10.3.1/bits/move.h **** 		    " substituting _Tp is an lvalue reference type");
  91:/Library/DaisyToolchain/0.2.0/arm/arm-none-eabi/include/c++/10.3.1/bits/move.h ****       return static_cast<_Tp&&>(__t);
  92:/Library/DaisyToolchain/0.2.0/arm/arm-none-eabi/include/c++/10.3.1/bits/move.h ****     }
  93:/Library/DaisyToolchain/0.2.0/arm/arm-none-eabi/include/c++/10.3.1/bits/move.h **** 
  94:/Library/DaisyToolchain/0.2.0/arm/arm-none-eabi/include/c++/10.3.1/bits/move.h ****   /**
  95:/Library/DaisyToolchain/0.2.0/arm/arm-none-eabi/include/c++/10.3.1/bits/move.h ****    *  @brief  Convert a value to an rvalue.
  96:/Library/DaisyToolchain/0.2.0/arm/arm-none-eabi/include/c++/10.3.1/bits/move.h ****    *  @param  __t  A thing of arbitrary type.
  97:/Library/DaisyToolchain/0.2.0/arm/arm-none-eabi/include/c++/10.3.1/bits/move.h ****    *  @return The parameter cast to an rvalue-reference to allow moving it.
  98:/Library/DaisyToolchain/0.2.0/arm/arm-none-eabi/include/c++/10.3.1/bits/move.h ****   */
  99:/Library/DaisyToolchain/0.2.0/arm/arm-none-eabi/include/c++/10.3.1/bits/move.h ****   template<typename _Tp>
 100:/Library/DaisyToolchain/0.2.0/arm/arm-none-eabi/include/c++/10.3.1/bits/move.h ****     constexpr typename std::remove_reference<_Tp>::type&&
 101:/Library/DaisyToolchain/0.2.0/arm/arm-none-eabi/include/c++/10.3.1/bits/move.h ****     move(_Tp&& __t) noexcept
 2208              		.loc 25 101 5 is_stmt 1 view .LVU518
 2209              		.loc 25 101 5 is_stmt 0 view .LVU519
 2210              	.LBE674:
 2211              	.LBB675:
 2212              	.LBI675:
 207:/Library/DaisyToolchain/0.2.0/arm/arm-none-eabi/include/c++/10.3.1/bits/std_function.h **** 	{ _M_init_functor(__functor, std::move(__f), _Local_storage()); }
 2213              		.loc 13 207 2 is_stmt 1 view .LVU520
 207:/Library/DaisyToolchain/0.2.0/arm/arm-none-eabi/include/c++/10.3.1/bits/std_function.h **** 	{ _M_init_functor(__functor, std::move(__f), _Local_storage()); }
 2214              		.loc 13 207 2 is_stmt 0 view .LVU521
 2215              	.LBE675:
 2216              	.LBE672:
 2217              	.LBE670:
 2218              	.LBE669:
  87:/Library/DaisyToolchain/0.2.0/arm/arm-none-eabi/include/c++/10.3.1/bits/std_function.h ****     const void* _M_access() const { return &_M_pod_data[0]; }
 2219              		.loc 13 87 37 is_stmt 1 view .LVU522
 2220              		.file 26 "/Library/DaisyToolchain/0.2.0/arm/arm-none-eabi/include/c++/10.3.1/new"
   1:/Library/DaisyToolchain/0.2.0/arm/arm-none-eabi/include/c++/10.3.1/new **** // The -*- C++ -*- dynamic memory management header.
   2:/Library/DaisyToolchain/0.2.0/arm/arm-none-eabi/include/c++/10.3.1/new **** 
   3:/Library/DaisyToolchain/0.2.0/arm/arm-none-eabi/include/c++/10.3.1/new **** // Copyright (C) 1994-2020 Free Software Foundation, Inc.
   4:/Library/DaisyToolchain/0.2.0/arm/arm-none-eabi/include/c++/10.3.1/new **** 
   5:/Library/DaisyToolchain/0.2.0/arm/arm-none-eabi/include/c++/10.3.1/new **** // This file is part of GCC.
   6:/Library/DaisyToolchain/0.2.0/arm/arm-none-eabi/include/c++/10.3.1/new **** //
   7:/Library/DaisyToolchain/0.2.0/arm/arm-none-eabi/include/c++/10.3.1/new **** // GCC is free software; you can redistribute it and/or modify
   8:/Library/DaisyToolchain/0.2.0/arm/arm-none-eabi/include/c++/10.3.1/new **** // it under the terms of the GNU General Public License as published by
   9:/Library/DaisyToolchain/0.2.0/arm/arm-none-eabi/include/c++/10.3.1/new **** // the Free Software Foundation; either version 3, or (at your option)
  10:/Library/DaisyToolchain/0.2.0/arm/arm-none-eabi/include/c++/10.3.1/new **** // any later version.
  11:/Library/DaisyToolchain/0.2.0/arm/arm-none-eabi/include/c++/10.3.1/new **** // 
  12:/Library/DaisyToolchain/0.2.0/arm/arm-none-eabi/include/c++/10.3.1/new **** // GCC is distributed in the hope that it will be useful,
  13:/Library/DaisyToolchain/0.2.0/arm/arm-none-eabi/include/c++/10.3.1/new **** // but WITHOUT ANY WARRANTY; without even the implied warranty of
  14:/Library/DaisyToolchain/0.2.0/arm/arm-none-eabi/include/c++/10.3.1/new **** // MERCHANTABILITY or FITNESS FOR A PARTICULAR PURPOSE.  See the
  15:/Library/DaisyToolchain/0.2.0/arm/arm-none-eabi/include/c++/10.3.1/new **** // GNU General Public License for more details.
  16:/Library/DaisyToolchain/0.2.0/arm/arm-none-eabi/include/c++/10.3.1/new **** // 
  17:/Library/DaisyToolchain/0.2.0/arm/arm-none-eabi/include/c++/10.3.1/new **** // Under Section 7 of GPL version 3, you are granted additional
ARM GAS  /var/folders/9s/8rp0_f2s1n31qbztm3b5_fdh0000gn/T//cc1V9ehO.s 			page 96


  18:/Library/DaisyToolchain/0.2.0/arm/arm-none-eabi/include/c++/10.3.1/new **** // permissions described in the GCC Runtime Library Exception, version
  19:/Library/DaisyToolchain/0.2.0/arm/arm-none-eabi/include/c++/10.3.1/new **** // 3.1, as published by the Free Software Foundation.
  20:/Library/DaisyToolchain/0.2.0/arm/arm-none-eabi/include/c++/10.3.1/new **** 
  21:/Library/DaisyToolchain/0.2.0/arm/arm-none-eabi/include/c++/10.3.1/new **** // You should have received a copy of the GNU General Public License and
  22:/Library/DaisyToolchain/0.2.0/arm/arm-none-eabi/include/c++/10.3.1/new **** // a copy of the GCC Runtime Library Exception along with this program;
  23:/Library/DaisyToolchain/0.2.0/arm/arm-none-eabi/include/c++/10.3.1/new **** // see the files COPYING3 and COPYING.RUNTIME respectively.  If not, see
  24:/Library/DaisyToolchain/0.2.0/arm/arm-none-eabi/include/c++/10.3.1/new **** // <http://www.gnu.org/licenses/>.
  25:/Library/DaisyToolchain/0.2.0/arm/arm-none-eabi/include/c++/10.3.1/new **** 
  26:/Library/DaisyToolchain/0.2.0/arm/arm-none-eabi/include/c++/10.3.1/new **** /** @file new
  27:/Library/DaisyToolchain/0.2.0/arm/arm-none-eabi/include/c++/10.3.1/new ****  *  This is a Standard C++ Library header.
  28:/Library/DaisyToolchain/0.2.0/arm/arm-none-eabi/include/c++/10.3.1/new ****  *
  29:/Library/DaisyToolchain/0.2.0/arm/arm-none-eabi/include/c++/10.3.1/new ****  *  The header @c new defines several functions to manage dynamic memory and
  30:/Library/DaisyToolchain/0.2.0/arm/arm-none-eabi/include/c++/10.3.1/new ****  *  handling memory allocation errors; see
  31:/Library/DaisyToolchain/0.2.0/arm/arm-none-eabi/include/c++/10.3.1/new ****  *  https://gcc.gnu.org/onlinedocs/libstdc++/manual/dynamic_memory.html
  32:/Library/DaisyToolchain/0.2.0/arm/arm-none-eabi/include/c++/10.3.1/new ****  *  for more.
  33:/Library/DaisyToolchain/0.2.0/arm/arm-none-eabi/include/c++/10.3.1/new ****  */
  34:/Library/DaisyToolchain/0.2.0/arm/arm-none-eabi/include/c++/10.3.1/new **** 
  35:/Library/DaisyToolchain/0.2.0/arm/arm-none-eabi/include/c++/10.3.1/new **** #ifndef _NEW
  36:/Library/DaisyToolchain/0.2.0/arm/arm-none-eabi/include/c++/10.3.1/new **** #define _NEW
  37:/Library/DaisyToolchain/0.2.0/arm/arm-none-eabi/include/c++/10.3.1/new **** 
  38:/Library/DaisyToolchain/0.2.0/arm/arm-none-eabi/include/c++/10.3.1/new **** #pragma GCC system_header
  39:/Library/DaisyToolchain/0.2.0/arm/arm-none-eabi/include/c++/10.3.1/new **** 
  40:/Library/DaisyToolchain/0.2.0/arm/arm-none-eabi/include/c++/10.3.1/new **** #include <bits/c++config.h>
  41:/Library/DaisyToolchain/0.2.0/arm/arm-none-eabi/include/c++/10.3.1/new **** #include <exception>
  42:/Library/DaisyToolchain/0.2.0/arm/arm-none-eabi/include/c++/10.3.1/new **** 
  43:/Library/DaisyToolchain/0.2.0/arm/arm-none-eabi/include/c++/10.3.1/new **** #pragma GCC visibility push(default)
  44:/Library/DaisyToolchain/0.2.0/arm/arm-none-eabi/include/c++/10.3.1/new **** 
  45:/Library/DaisyToolchain/0.2.0/arm/arm-none-eabi/include/c++/10.3.1/new **** extern "C++" {
  46:/Library/DaisyToolchain/0.2.0/arm/arm-none-eabi/include/c++/10.3.1/new **** 
  47:/Library/DaisyToolchain/0.2.0/arm/arm-none-eabi/include/c++/10.3.1/new **** namespace std 
  48:/Library/DaisyToolchain/0.2.0/arm/arm-none-eabi/include/c++/10.3.1/new **** {
  49:/Library/DaisyToolchain/0.2.0/arm/arm-none-eabi/include/c++/10.3.1/new ****   /**
  50:/Library/DaisyToolchain/0.2.0/arm/arm-none-eabi/include/c++/10.3.1/new ****    *  @brief  Exception possibly thrown by @c new.
  51:/Library/DaisyToolchain/0.2.0/arm/arm-none-eabi/include/c++/10.3.1/new ****    *  @ingroup exceptions
  52:/Library/DaisyToolchain/0.2.0/arm/arm-none-eabi/include/c++/10.3.1/new ****    *
  53:/Library/DaisyToolchain/0.2.0/arm/arm-none-eabi/include/c++/10.3.1/new ****    *  @c bad_alloc (or classes derived from it) is used to report allocation
  54:/Library/DaisyToolchain/0.2.0/arm/arm-none-eabi/include/c++/10.3.1/new ****    *  errors from the throwing forms of @c new.  */
  55:/Library/DaisyToolchain/0.2.0/arm/arm-none-eabi/include/c++/10.3.1/new ****   class bad_alloc : public exception 
  56:/Library/DaisyToolchain/0.2.0/arm/arm-none-eabi/include/c++/10.3.1/new ****   {
  57:/Library/DaisyToolchain/0.2.0/arm/arm-none-eabi/include/c++/10.3.1/new ****   public:
  58:/Library/DaisyToolchain/0.2.0/arm/arm-none-eabi/include/c++/10.3.1/new ****     bad_alloc() throw() { }
  59:/Library/DaisyToolchain/0.2.0/arm/arm-none-eabi/include/c++/10.3.1/new **** 
  60:/Library/DaisyToolchain/0.2.0/arm/arm-none-eabi/include/c++/10.3.1/new **** #if __cplusplus >= 201103L
  61:/Library/DaisyToolchain/0.2.0/arm/arm-none-eabi/include/c++/10.3.1/new ****     bad_alloc(const bad_alloc&) = default;
  62:/Library/DaisyToolchain/0.2.0/arm/arm-none-eabi/include/c++/10.3.1/new ****     bad_alloc& operator=(const bad_alloc&) = default;
  63:/Library/DaisyToolchain/0.2.0/arm/arm-none-eabi/include/c++/10.3.1/new **** #endif
  64:/Library/DaisyToolchain/0.2.0/arm/arm-none-eabi/include/c++/10.3.1/new **** 
  65:/Library/DaisyToolchain/0.2.0/arm/arm-none-eabi/include/c++/10.3.1/new ****     // This declaration is not useless:
  66:/Library/DaisyToolchain/0.2.0/arm/arm-none-eabi/include/c++/10.3.1/new ****     // http://gcc.gnu.org/onlinedocs/gcc-3.0.2/gcc_6.html#SEC118
  67:/Library/DaisyToolchain/0.2.0/arm/arm-none-eabi/include/c++/10.3.1/new ****     virtual ~bad_alloc() throw();
  68:/Library/DaisyToolchain/0.2.0/arm/arm-none-eabi/include/c++/10.3.1/new **** 
  69:/Library/DaisyToolchain/0.2.0/arm/arm-none-eabi/include/c++/10.3.1/new ****     // See comment in eh_exception.cc.
  70:/Library/DaisyToolchain/0.2.0/arm/arm-none-eabi/include/c++/10.3.1/new ****     virtual const char* what() const throw();
  71:/Library/DaisyToolchain/0.2.0/arm/arm-none-eabi/include/c++/10.3.1/new ****   };
  72:/Library/DaisyToolchain/0.2.0/arm/arm-none-eabi/include/c++/10.3.1/new **** 
  73:/Library/DaisyToolchain/0.2.0/arm/arm-none-eabi/include/c++/10.3.1/new **** #if __cplusplus >= 201103L
  74:/Library/DaisyToolchain/0.2.0/arm/arm-none-eabi/include/c++/10.3.1/new ****   class bad_array_new_length : public bad_alloc
ARM GAS  /var/folders/9s/8rp0_f2s1n31qbztm3b5_fdh0000gn/T//cc1V9ehO.s 			page 97


  75:/Library/DaisyToolchain/0.2.0/arm/arm-none-eabi/include/c++/10.3.1/new ****   {
  76:/Library/DaisyToolchain/0.2.0/arm/arm-none-eabi/include/c++/10.3.1/new ****   public:
  77:/Library/DaisyToolchain/0.2.0/arm/arm-none-eabi/include/c++/10.3.1/new ****     bad_array_new_length() throw() { }
  78:/Library/DaisyToolchain/0.2.0/arm/arm-none-eabi/include/c++/10.3.1/new **** 
  79:/Library/DaisyToolchain/0.2.0/arm/arm-none-eabi/include/c++/10.3.1/new ****     // This declaration is not useless:
  80:/Library/DaisyToolchain/0.2.0/arm/arm-none-eabi/include/c++/10.3.1/new ****     // http://gcc.gnu.org/onlinedocs/gcc-3.0.2/gcc_6.html#SEC118
  81:/Library/DaisyToolchain/0.2.0/arm/arm-none-eabi/include/c++/10.3.1/new ****     virtual ~bad_array_new_length() throw();
  82:/Library/DaisyToolchain/0.2.0/arm/arm-none-eabi/include/c++/10.3.1/new **** 
  83:/Library/DaisyToolchain/0.2.0/arm/arm-none-eabi/include/c++/10.3.1/new ****     // See comment in eh_exception.cc.
  84:/Library/DaisyToolchain/0.2.0/arm/arm-none-eabi/include/c++/10.3.1/new ****     virtual const char* what() const throw();
  85:/Library/DaisyToolchain/0.2.0/arm/arm-none-eabi/include/c++/10.3.1/new ****   };
  86:/Library/DaisyToolchain/0.2.0/arm/arm-none-eabi/include/c++/10.3.1/new **** #endif
  87:/Library/DaisyToolchain/0.2.0/arm/arm-none-eabi/include/c++/10.3.1/new **** 
  88:/Library/DaisyToolchain/0.2.0/arm/arm-none-eabi/include/c++/10.3.1/new **** #if __cpp_aligned_new
  89:/Library/DaisyToolchain/0.2.0/arm/arm-none-eabi/include/c++/10.3.1/new ****   enum class align_val_t: size_t {};
  90:/Library/DaisyToolchain/0.2.0/arm/arm-none-eabi/include/c++/10.3.1/new **** #endif
  91:/Library/DaisyToolchain/0.2.0/arm/arm-none-eabi/include/c++/10.3.1/new **** 
  92:/Library/DaisyToolchain/0.2.0/arm/arm-none-eabi/include/c++/10.3.1/new ****   struct nothrow_t
  93:/Library/DaisyToolchain/0.2.0/arm/arm-none-eabi/include/c++/10.3.1/new ****   {
  94:/Library/DaisyToolchain/0.2.0/arm/arm-none-eabi/include/c++/10.3.1/new **** #if __cplusplus >= 201103L
  95:/Library/DaisyToolchain/0.2.0/arm/arm-none-eabi/include/c++/10.3.1/new ****     explicit nothrow_t() = default;
  96:/Library/DaisyToolchain/0.2.0/arm/arm-none-eabi/include/c++/10.3.1/new **** #endif
  97:/Library/DaisyToolchain/0.2.0/arm/arm-none-eabi/include/c++/10.3.1/new ****   };
  98:/Library/DaisyToolchain/0.2.0/arm/arm-none-eabi/include/c++/10.3.1/new **** 
  99:/Library/DaisyToolchain/0.2.0/arm/arm-none-eabi/include/c++/10.3.1/new ****   extern const nothrow_t nothrow;
 100:/Library/DaisyToolchain/0.2.0/arm/arm-none-eabi/include/c++/10.3.1/new **** 
 101:/Library/DaisyToolchain/0.2.0/arm/arm-none-eabi/include/c++/10.3.1/new ****   /** If you write your own error handler to be called by @c new, it must
 102:/Library/DaisyToolchain/0.2.0/arm/arm-none-eabi/include/c++/10.3.1/new ****    *  be of this type.  */
 103:/Library/DaisyToolchain/0.2.0/arm/arm-none-eabi/include/c++/10.3.1/new ****   typedef void (*new_handler)();
 104:/Library/DaisyToolchain/0.2.0/arm/arm-none-eabi/include/c++/10.3.1/new **** 
 105:/Library/DaisyToolchain/0.2.0/arm/arm-none-eabi/include/c++/10.3.1/new ****   /// Takes a replacement handler as the argument, returns the
 106:/Library/DaisyToolchain/0.2.0/arm/arm-none-eabi/include/c++/10.3.1/new ****   /// previous handler.
 107:/Library/DaisyToolchain/0.2.0/arm/arm-none-eabi/include/c++/10.3.1/new ****   new_handler set_new_handler(new_handler) throw();
 108:/Library/DaisyToolchain/0.2.0/arm/arm-none-eabi/include/c++/10.3.1/new **** 
 109:/Library/DaisyToolchain/0.2.0/arm/arm-none-eabi/include/c++/10.3.1/new **** #if __cplusplus >= 201103L
 110:/Library/DaisyToolchain/0.2.0/arm/arm-none-eabi/include/c++/10.3.1/new ****   /// Return the current new handler.
 111:/Library/DaisyToolchain/0.2.0/arm/arm-none-eabi/include/c++/10.3.1/new ****   new_handler get_new_handler() noexcept;
 112:/Library/DaisyToolchain/0.2.0/arm/arm-none-eabi/include/c++/10.3.1/new **** #endif
 113:/Library/DaisyToolchain/0.2.0/arm/arm-none-eabi/include/c++/10.3.1/new **** } // namespace std
 114:/Library/DaisyToolchain/0.2.0/arm/arm-none-eabi/include/c++/10.3.1/new **** 
 115:/Library/DaisyToolchain/0.2.0/arm/arm-none-eabi/include/c++/10.3.1/new **** //@{
 116:/Library/DaisyToolchain/0.2.0/arm/arm-none-eabi/include/c++/10.3.1/new **** /** These are replaceable signatures:
 117:/Library/DaisyToolchain/0.2.0/arm/arm-none-eabi/include/c++/10.3.1/new ****  *  - normal single new and delete (no arguments, throw @c bad_alloc on error)
 118:/Library/DaisyToolchain/0.2.0/arm/arm-none-eabi/include/c++/10.3.1/new ****  *  - normal array new and delete (same)
 119:/Library/DaisyToolchain/0.2.0/arm/arm-none-eabi/include/c++/10.3.1/new ****  *  - @c nothrow single new and delete (take a @c nothrow argument, return
 120:/Library/DaisyToolchain/0.2.0/arm/arm-none-eabi/include/c++/10.3.1/new ****  *    @c NULL on error)
 121:/Library/DaisyToolchain/0.2.0/arm/arm-none-eabi/include/c++/10.3.1/new ****  *  - @c nothrow array new and delete (same)
 122:/Library/DaisyToolchain/0.2.0/arm/arm-none-eabi/include/c++/10.3.1/new ****  *
 123:/Library/DaisyToolchain/0.2.0/arm/arm-none-eabi/include/c++/10.3.1/new ****  *  Placement new and delete signatures (take a memory address argument,
 124:/Library/DaisyToolchain/0.2.0/arm/arm-none-eabi/include/c++/10.3.1/new ****  *  does nothing) may not be replaced by a user's program.
 125:/Library/DaisyToolchain/0.2.0/arm/arm-none-eabi/include/c++/10.3.1/new **** */
 126:/Library/DaisyToolchain/0.2.0/arm/arm-none-eabi/include/c++/10.3.1/new **** _GLIBCXX_NODISCARD void* operator new(std::size_t) _GLIBCXX_THROW (std::bad_alloc)
 127:/Library/DaisyToolchain/0.2.0/arm/arm-none-eabi/include/c++/10.3.1/new ****   __attribute__((__externally_visible__));
 128:/Library/DaisyToolchain/0.2.0/arm/arm-none-eabi/include/c++/10.3.1/new **** _GLIBCXX_NODISCARD void* operator new[](std::size_t) _GLIBCXX_THROW (std::bad_alloc)
 129:/Library/DaisyToolchain/0.2.0/arm/arm-none-eabi/include/c++/10.3.1/new ****   __attribute__((__externally_visible__));
 130:/Library/DaisyToolchain/0.2.0/arm/arm-none-eabi/include/c++/10.3.1/new **** void operator delete(void*) _GLIBCXX_USE_NOEXCEPT
 131:/Library/DaisyToolchain/0.2.0/arm/arm-none-eabi/include/c++/10.3.1/new ****   __attribute__((__externally_visible__));
ARM GAS  /var/folders/9s/8rp0_f2s1n31qbztm3b5_fdh0000gn/T//cc1V9ehO.s 			page 98


 132:/Library/DaisyToolchain/0.2.0/arm/arm-none-eabi/include/c++/10.3.1/new **** void operator delete[](void*) _GLIBCXX_USE_NOEXCEPT
 133:/Library/DaisyToolchain/0.2.0/arm/arm-none-eabi/include/c++/10.3.1/new ****   __attribute__((__externally_visible__));
 134:/Library/DaisyToolchain/0.2.0/arm/arm-none-eabi/include/c++/10.3.1/new **** #if __cpp_sized_deallocation
 135:/Library/DaisyToolchain/0.2.0/arm/arm-none-eabi/include/c++/10.3.1/new **** void operator delete(void*, std::size_t) _GLIBCXX_USE_NOEXCEPT
 136:/Library/DaisyToolchain/0.2.0/arm/arm-none-eabi/include/c++/10.3.1/new ****   __attribute__((__externally_visible__));
 137:/Library/DaisyToolchain/0.2.0/arm/arm-none-eabi/include/c++/10.3.1/new **** void operator delete[](void*, std::size_t) _GLIBCXX_USE_NOEXCEPT
 138:/Library/DaisyToolchain/0.2.0/arm/arm-none-eabi/include/c++/10.3.1/new ****   __attribute__((__externally_visible__));
 139:/Library/DaisyToolchain/0.2.0/arm/arm-none-eabi/include/c++/10.3.1/new **** #endif
 140:/Library/DaisyToolchain/0.2.0/arm/arm-none-eabi/include/c++/10.3.1/new **** _GLIBCXX_NODISCARD void* operator new(std::size_t, const std::nothrow_t&) _GLIBCXX_USE_NOEXCEPT
 141:/Library/DaisyToolchain/0.2.0/arm/arm-none-eabi/include/c++/10.3.1/new ****   __attribute__((__externally_visible__, __malloc__));
 142:/Library/DaisyToolchain/0.2.0/arm/arm-none-eabi/include/c++/10.3.1/new **** _GLIBCXX_NODISCARD void* operator new[](std::size_t, const std::nothrow_t&) _GLIBCXX_USE_NOEXCEPT
 143:/Library/DaisyToolchain/0.2.0/arm/arm-none-eabi/include/c++/10.3.1/new ****   __attribute__((__externally_visible__, __malloc__));
 144:/Library/DaisyToolchain/0.2.0/arm/arm-none-eabi/include/c++/10.3.1/new **** void operator delete(void*, const std::nothrow_t&) _GLIBCXX_USE_NOEXCEPT
 145:/Library/DaisyToolchain/0.2.0/arm/arm-none-eabi/include/c++/10.3.1/new ****   __attribute__((__externally_visible__));
 146:/Library/DaisyToolchain/0.2.0/arm/arm-none-eabi/include/c++/10.3.1/new **** void operator delete[](void*, const std::nothrow_t&) _GLIBCXX_USE_NOEXCEPT
 147:/Library/DaisyToolchain/0.2.0/arm/arm-none-eabi/include/c++/10.3.1/new ****   __attribute__((__externally_visible__));
 148:/Library/DaisyToolchain/0.2.0/arm/arm-none-eabi/include/c++/10.3.1/new **** #if __cpp_aligned_new
 149:/Library/DaisyToolchain/0.2.0/arm/arm-none-eabi/include/c++/10.3.1/new **** _GLIBCXX_NODISCARD void* operator new(std::size_t, std::align_val_t)
 150:/Library/DaisyToolchain/0.2.0/arm/arm-none-eabi/include/c++/10.3.1/new ****   __attribute__((__externally_visible__));
 151:/Library/DaisyToolchain/0.2.0/arm/arm-none-eabi/include/c++/10.3.1/new **** _GLIBCXX_NODISCARD void* operator new(std::size_t, std::align_val_t, const std::nothrow_t&)
 152:/Library/DaisyToolchain/0.2.0/arm/arm-none-eabi/include/c++/10.3.1/new ****   _GLIBCXX_USE_NOEXCEPT __attribute__((__externally_visible__, __malloc__));
 153:/Library/DaisyToolchain/0.2.0/arm/arm-none-eabi/include/c++/10.3.1/new **** void operator delete(void*, std::align_val_t)
 154:/Library/DaisyToolchain/0.2.0/arm/arm-none-eabi/include/c++/10.3.1/new ****   _GLIBCXX_USE_NOEXCEPT __attribute__((__externally_visible__));
 155:/Library/DaisyToolchain/0.2.0/arm/arm-none-eabi/include/c++/10.3.1/new **** void operator delete(void*, std::align_val_t, const std::nothrow_t&)
 156:/Library/DaisyToolchain/0.2.0/arm/arm-none-eabi/include/c++/10.3.1/new ****   _GLIBCXX_USE_NOEXCEPT __attribute__((__externally_visible__));
 157:/Library/DaisyToolchain/0.2.0/arm/arm-none-eabi/include/c++/10.3.1/new **** _GLIBCXX_NODISCARD void* operator new[](std::size_t, std::align_val_t)
 158:/Library/DaisyToolchain/0.2.0/arm/arm-none-eabi/include/c++/10.3.1/new ****   __attribute__((__externally_visible__));
 159:/Library/DaisyToolchain/0.2.0/arm/arm-none-eabi/include/c++/10.3.1/new **** _GLIBCXX_NODISCARD void* operator new[](std::size_t, std::align_val_t, const std::nothrow_t&)
 160:/Library/DaisyToolchain/0.2.0/arm/arm-none-eabi/include/c++/10.3.1/new ****   _GLIBCXX_USE_NOEXCEPT __attribute__((__externally_visible__, __malloc__));
 161:/Library/DaisyToolchain/0.2.0/arm/arm-none-eabi/include/c++/10.3.1/new **** void operator delete[](void*, std::align_val_t)
 162:/Library/DaisyToolchain/0.2.0/arm/arm-none-eabi/include/c++/10.3.1/new ****   _GLIBCXX_USE_NOEXCEPT __attribute__((__externally_visible__));
 163:/Library/DaisyToolchain/0.2.0/arm/arm-none-eabi/include/c++/10.3.1/new **** void operator delete[](void*, std::align_val_t, const std::nothrow_t&)
 164:/Library/DaisyToolchain/0.2.0/arm/arm-none-eabi/include/c++/10.3.1/new ****   _GLIBCXX_USE_NOEXCEPT __attribute__((__externally_visible__));
 165:/Library/DaisyToolchain/0.2.0/arm/arm-none-eabi/include/c++/10.3.1/new **** #if __cpp_sized_deallocation
 166:/Library/DaisyToolchain/0.2.0/arm/arm-none-eabi/include/c++/10.3.1/new **** void operator delete(void*, std::size_t, std::align_val_t)
 167:/Library/DaisyToolchain/0.2.0/arm/arm-none-eabi/include/c++/10.3.1/new ****   _GLIBCXX_USE_NOEXCEPT __attribute__((__externally_visible__));
 168:/Library/DaisyToolchain/0.2.0/arm/arm-none-eabi/include/c++/10.3.1/new **** void operator delete[](void*, std::size_t, std::align_val_t)
 169:/Library/DaisyToolchain/0.2.0/arm/arm-none-eabi/include/c++/10.3.1/new ****   _GLIBCXX_USE_NOEXCEPT __attribute__((__externally_visible__));
 170:/Library/DaisyToolchain/0.2.0/arm/arm-none-eabi/include/c++/10.3.1/new **** #endif // __cpp_sized_deallocation
 171:/Library/DaisyToolchain/0.2.0/arm/arm-none-eabi/include/c++/10.3.1/new **** #endif // __cpp_aligned_new
 172:/Library/DaisyToolchain/0.2.0/arm/arm-none-eabi/include/c++/10.3.1/new **** 
 173:/Library/DaisyToolchain/0.2.0/arm/arm-none-eabi/include/c++/10.3.1/new **** // Default placement versions of operator new.
 174:/Library/DaisyToolchain/0.2.0/arm/arm-none-eabi/include/c++/10.3.1/new **** _GLIBCXX_NODISCARD inline void* operator new(std::size_t, void* __p) _GLIBCXX_USE_NOEXCEPT
 175:/Library/DaisyToolchain/0.2.0/arm/arm-none-eabi/include/c++/10.3.1/new **** { return __p; }
 2221              		.loc 26 175 3 view .LVU523
 2222              	.LBB680:
 2223              	.LBB678:
 2224              	.LBB676:
 602:/Library/DaisyToolchain/0.2.0/arm/arm-none-eabi/include/c++/10.3.1/bits/std_function.h ****       function(_Functor __f)
 603:/Library/DaisyToolchain/0.2.0/arm/arm-none-eabi/include/c++/10.3.1/bits/std_function.h ****       : _Function_base()
 604:/Library/DaisyToolchain/0.2.0/arm/arm-none-eabi/include/c++/10.3.1/bits/std_function.h ****       {
 605:/Library/DaisyToolchain/0.2.0/arm/arm-none-eabi/include/c++/10.3.1/bits/std_function.h **** 	typedef _Function_handler<_Res(_ArgTypes...), _Functor> _My_handler;
 606:/Library/DaisyToolchain/0.2.0/arm/arm-none-eabi/include/c++/10.3.1/bits/std_function.h **** 
 607:/Library/DaisyToolchain/0.2.0/arm/arm-none-eabi/include/c++/10.3.1/bits/std_function.h **** 	if (_My_handler::_M_not_empty_function(__f))
 608:/Library/DaisyToolchain/0.2.0/arm/arm-none-eabi/include/c++/10.3.1/bits/std_function.h **** 	  {
 609:/Library/DaisyToolchain/0.2.0/arm/arm-none-eabi/include/c++/10.3.1/bits/std_function.h **** 	    _My_handler::_M_init_functor(_M_functor, std::move(__f));
 610:/Library/DaisyToolchain/0.2.0/arm/arm-none-eabi/include/c++/10.3.1/bits/std_function.h **** 	    _M_invoker = &_My_handler::_M_invoke;
ARM GAS  /var/folders/9s/8rp0_f2s1n31qbztm3b5_fdh0000gn/T//cc1V9ehO.s 			page 99


 2225              		.loc 13 610 17 is_stmt 0 view .LVU524
 2226 0088 264B     		ldr	r3, .L69+24
 2227              	.LBE676:
 2228              	.LBE678:
 2229              	.LBE680:
 144:Interface.cpp ****     arp.SetNoteTriggerCallback([](int pad_idx) {
 2230              		.loc 16 144 31 view .LVU525
 2231 008a 02A9     		add	r1, sp, #8
 2232              	.LVL165:
 144:Interface.cpp ****     arp.SetNoteTriggerCallback([](int pad_idx) {
 2233              		.loc 16 144 31 view .LVU526
 2234 008c 2248     		ldr	r0, .L69+12
 2235              	.LBB681:
 2236              	.LBB679:
 2237              	.LBB677:
 2238              		.loc 13 610 17 view .LVU527
 2239 008e 0593     		str	r3, [sp, #20]
 611:/Library/DaisyToolchain/0.2.0/arm/arm-none-eabi/include/c++/10.3.1/bits/std_function.h **** 	    _M_manager = &_My_handler::_M_manager;
 2240              		.loc 13 611 17 view .LVU528
 2241 0090 254B     		ldr	r3, .L69+28
 2242 0092 0493     		str	r3, [sp, #16]
 2243              	.LVL166:
 2244              		.loc 13 611 17 view .LVU529
 2245              	.LBE677:
 2246              	.LBE679:
 2247              	.LBE681:
 144:Interface.cpp ****     arp.SetNoteTriggerCallback([](int pad_idx) {
 2248              		.loc 16 144 31 view .LVU530
 2249 0094 FFF7FEFF 		bl	_ZN11Arpeggiator22SetNoteTriggerCallbackESt8functionIFviEE
 2250              	.LVL167:
 2251              	.LBB682:
 2252              	.LBI682:
 303:/Library/DaisyToolchain/0.2.0/arm/arm-none-eabi/include/c++/10.3.1/bits/std_function.h ****     : public _Maybe_unary_or_binary_function<_Res, _ArgTypes...>,
 2253              		.loc 13 303 11 is_stmt 1 view .LVU531
 2254              	.LBB683:
 2255 0098 02A8     		add	r0, sp, #8
 2256              	.LVL168:
 303:/Library/DaisyToolchain/0.2.0/arm/arm-none-eabi/include/c++/10.3.1/bits/std_function.h ****     : public _Maybe_unary_or_binary_function<_Res, _ArgTypes...>,
 2257              		.loc 13 303 11 is_stmt 0 view .LVU532
 2258 009a FFF7FEFF 		bl	_ZNSt14_Function_baseD2Ev
 2259              	.LVL169:
 303:/Library/DaisyToolchain/0.2.0/arm/arm-none-eabi/include/c++/10.3.1/bits/std_function.h ****     : public _Maybe_unary_or_binary_function<_Res, _ArgTypes...>,
 2260              		.loc 13 303 11 view .LVU533
 2261              	.LBE683:
 2262              	.LBE682:
 165:Interface.cpp ****     hw.StartLog(false); // Start log immediately (non-blocking) - reverted to prevent freezing at s
 2263              		.loc 16 165 5 is_stmt 1 view .LVU534
 2264              	.LBB684:
 2265              	.LBI684:
 122:lib/libdaisy/src/daisy_seed.h ****     }
 123:lib/libdaisy/src/daisy_seed.h **** 
 124:lib/libdaisy/src/daisy_seed.h ****     /** Start the logging session. Optionally wait for terminal connection before proceeding.
 125:lib/libdaisy/src/daisy_seed.h ****     */
 126:lib/libdaisy/src/daisy_seed.h ****     static void StartLog(bool wait_for_pc = false)
 2266              		.loc 3 126 17 view .LVU535
 2267              	.LBB685:
 127:lib/libdaisy/src/daisy_seed.h ****     {
ARM GAS  /var/folders/9s/8rp0_f2s1n31qbztm3b5_fdh0000gn/T//cc1V9ehO.s 			page 100


 128:lib/libdaisy/src/daisy_seed.h ****         Log::StartLog(wait_for_pc);
 2268              		.loc 3 128 9 view .LVU536
 2269              		.loc 3 128 22 is_stmt 0 view .LVU537
 2270 009e 0020     		movs	r0, #0
 2271 00a0 FFF7FEFF 		bl	_ZN5daisy6LoggerILNS_17LoggerDestinationE1EE8StartLogEb
 2272              	.LVL170:
 2273              		.loc 3 128 22 view .LVU538
 2274              	.LBE685:
 2275              	.LBE684:
 168:Interface.cpp ****     hw.StartAudio(AudioCallback);
 2276              		.loc 16 168 5 is_stmt 1 view .LVU539
 168:Interface.cpp ****     hw.StartAudio(AudioCallback);
 2277              		.loc 16 168 18 is_stmt 0 view .LVU540
 2278 00a4 2149     		ldr	r1, .L69+32
 2279 00a6 2248     		ldr	r0, .L69+36
 2280 00a8 FFF7FEFF 		bl	_ZN5daisy9DaisySeed10StartAudioEPFvPKfPfjE
 2281              	.LVL171:
 170:Interface.cpp ****     hw.PrintLine("Plaits Synth Started - Ready for Bootloader CMD");
 2282              		.loc 16 170 5 is_stmt 1 view .LVU541
 2283              	.LBB686:
 2284              	.LBI686:
 119:lib/libdaisy/src/daisy_seed.h ****     {
 2285              		.loc 3 119 17 view .LVU542
 2286              	.LBB687:
 121:lib/libdaisy/src/daisy_seed.h ****     }
 2287              		.loc 3 121 23 is_stmt 0 view .LVU543
 2288 00ac 2148     		ldr	r0, .L69+40
 2289 00ae FFF7FEFF 		bl	_ZN5daisy6LoggerILNS_17LoggerDestinationE1EE9PrintLineEPKcz
 2290              	.LVL172:
 121:lib/libdaisy/src/daisy_seed.h ****     }
 2291              		.loc 3 121 23 view .LVU544
 2292              	.LBE687:
 2293              	.LBE686:
 171:Interface.cpp ****     char settings[64];
 2294              		.loc 16 171 5 is_stmt 1 view .LVU545
 173:Interface.cpp ****     sprintf(settings, "Max Voices: %d | Block: %d | SR: %d", NUM_VOICES, BLOCK_SIZE, (int)sample_ra
 2295              		.loc 16 173 5 view .LVU546
 173:Interface.cpp ****     sprintf(settings, "Max Voices: %d | Block: %d | SR: %d", NUM_VOICES, BLOCK_SIZE, (int)sample_ra
 2296              		.loc 16 173 12 is_stmt 0 view .LVU547
 2297 00b2 D4ED007A 		vldr.32	s15, [r4]
 2298 00b6 1023     		movs	r3, #16
 2299 00b8 0422     		movs	r2, #4
 2300 00ba FDEEE77A 		vcvt.s32.f32	s15, s15
 2301 00be 1E49     		ldr	r1, .L69+44
 2302 00c0 02A8     		add	r0, sp, #8
 2303 00c2 CDED007A 		vstr.32	s15, [sp]	@ int
 2304 00c6 FFF7FEFF 		bl	sprintf
 2305              	.LVL173:
 174:Interface.cpp ****     hw.PrintLine(settings);
 2306              		.loc 16 174 5 is_stmt 1 view .LVU548
 2307              	.LBB688:
 2308              	.LBI688:
 119:lib/libdaisy/src/daisy_seed.h ****     {
 2309              		.loc 3 119 17 view .LVU549
 2310              	.LBB689:
 121:lib/libdaisy/src/daisy_seed.h ****     }
 2311              		.loc 3 121 23 is_stmt 0 view .LVU550
ARM GAS  /var/folders/9s/8rp0_f2s1n31qbztm3b5_fdh0000gn/T//cc1V9ehO.s 			page 101


 2312 00ca 02A8     		add	r0, sp, #8
 2313              	.LVL174:
 121:lib/libdaisy/src/daisy_seed.h ****     }
 2314              		.loc 3 121 23 view .LVU551
 2315 00cc FFF7FEFF 		bl	_ZN5daisy6LoggerILNS_17LoggerDestinationE1EE9PrintLineEPKcz
 2316              	.LVL175:
 121:lib/libdaisy/src/daisy_seed.h ****     }
 2317              		.loc 3 121 23 view .LVU552
 2318              	.LBE689:
 2319              	.LBE688:
 175:Interface.cpp ****     sprintf(settings, "Engine Range: 0-%d", MAX_ENGINE_INDEX);
 2320              		.loc 16 175 5 is_stmt 1 view .LVU553
 175:Interface.cpp ****     sprintf(settings, "Engine Range: 0-%d", MAX_ENGINE_INDEX);
 2321              		.loc 16 175 12 is_stmt 0 view .LVU554
 2322 00d0 1A4B     		ldr	r3, .L69+48
 2323 00d2 1B49     		ldr	r1, .L69+52
 2324 00d4 02A8     		add	r0, sp, #8
 2325 00d6 1C68     		ldr	r4, [r3]
 2326 00d8 2246     		mov	r2, r4
 2327 00da FFF7FEFF 		bl	sprintf
 2328              	.LVL176:
 176:Interface.cpp ****     hw.PrintLine(settings);
 2329              		.loc 16 176 5 is_stmt 1 view .LVU555
 2330              	.LBB690:
 2331              	.LBI690:
 119:lib/libdaisy/src/daisy_seed.h ****     {
 2332              		.loc 3 119 17 view .LVU556
 2333              	.LBB691:
 121:lib/libdaisy/src/daisy_seed.h ****     }
 2334              		.loc 3 121 23 is_stmt 0 view .LVU557
 2335 00de 02A8     		add	r0, sp, #8
 2336              	.LVL177:
 121:lib/libdaisy/src/daisy_seed.h ****     }
 2337              		.loc 3 121 23 view .LVU558
 2338 00e0 FFF7FEFF 		bl	_ZN5daisy6LoggerILNS_17LoggerDestinationE1EE9PrintLineEPKcz
 2339              	.LVL178:
 121:lib/libdaisy/src/daisy_seed.h ****     }
 2340              		.loc 3 121 23 view .LVU559
 2341              	.LBE691:
 2342              	.LBE690:
 177:Interface.cpp ****     sprintf(settings, "Mode: %s", (MAX_ENGINE_INDEX <=3) ? "Poly (0-3)" : "Dynamic Poly"); // Indic
 2343              		.loc 16 177 5 is_stmt 1 view .LVU560
 177:Interface.cpp ****     sprintf(settings, "Mode: %s", (MAX_ENGINE_INDEX <=3) ? "Poly (0-3)" : "Dynamic Poly"); // Indic
 2344              		.loc 16 177 12 is_stmt 0 view .LVU561
 2345 00e4 174B     		ldr	r3, .L69+56
 2346 00e6 184A     		ldr	r2, .L69+60
 2347 00e8 02A8     		add	r0, sp, #8
 2348 00ea 1849     		ldr	r1, .L69+64
 2349 00ec 032C     		cmp	r4, #3
 2350 00ee C8BF     		it	gt
 2351 00f0 1A46     		movgt	r2, r3
 2352 00f2 FFF7FEFF 		bl	sprintf
 2353              	.LVL179:
 178:Interface.cpp ****     hw.PrintLine(settings);
 2354              		.loc 16 178 5 is_stmt 1 view .LVU562
 2355              	.LBB692:
 2356              	.LBI692:
ARM GAS  /var/folders/9s/8rp0_f2s1n31qbztm3b5_fdh0000gn/T//cc1V9ehO.s 			page 102


 119:lib/libdaisy/src/daisy_seed.h ****     {
 2357              		.loc 3 119 17 view .LVU563
 2358              	.LBB693:
 121:lib/libdaisy/src/daisy_seed.h ****     }
 2359              		.loc 3 121 23 is_stmt 0 view .LVU564
 2360 00f6 02A8     		add	r0, sp, #8
 2361              	.LVL180:
 121:lib/libdaisy/src/daisy_seed.h ****     }
 2362              		.loc 3 121 23 view .LVU565
 2363 00f8 FFF7FEFF 		bl	_ZN5daisy6LoggerILNS_17LoggerDestinationE1EE9PrintLineEPKcz
 2364              	.LVL181:
 121:lib/libdaisy/src/daisy_seed.h ****     }
 2365              		.loc 3 121 23 view .LVU566
 2366              	.LBE693:
 2367              	.LBE692:
 179:Interface.cpp ****     hw.PrintLine("----------------");
 2368              		.loc 16 179 5 is_stmt 1 view .LVU567
 2369              	.LBB694:
 2370              	.LBI694:
 119:lib/libdaisy/src/daisy_seed.h ****     {
 2371              		.loc 3 119 17 view .LVU568
 2372              	.LBB695:
 121:lib/libdaisy/src/daisy_seed.h ****     }
 2373              		.loc 3 121 23 is_stmt 0 view .LVU569
 2374 00fc 1448     		ldr	r0, .L69+68
 2375 00fe FFF7FEFF 		bl	_ZN5daisy6LoggerILNS_17LoggerDestinationE1EE9PrintLineEPKcz
 2376              	.LVL182:
 121:lib/libdaisy/src/daisy_seed.h ****     }
 2377              		.loc 3 121 23 view .LVU570
 2378              	.LBE695:
 2379              	.LBE694:
 180:Interface.cpp **** }
 2380              		.loc 16 180 1 view .LVU571
 2381 0102 12B0     		add	sp, sp, #72
 2382              		.cfi_def_cfa_offset 16
 2383              		@ sp needed
 2384 0104 BDEC028B 		vldm	sp!, {d8}
 2385              		.cfi_restore 80
 2386              		.cfi_restore 81
 2387              		.cfi_def_cfa_offset 8
 2388 0108 10BD     		pop	{r4, pc}
 2389              	.L70:
 2390 010a 00BF     		.align	2
 2391              	.L69:
 2392 010c 00000000 		.word	.LANCHOR3
 2393 0110 00000000 		.word	cpu_meter
 2394 0114 0000C07F 		.word	2143289344
 2395 0118 00000000 		.word	.LANCHOR20
 2396 011c 0000803D 		.word	1031798784
 2397 0120 DB0FC940 		.word	1086918619
 2398 0124 00000000 		.word	_ZNSt17_Function_handlerIFviEZ15InitializeSynthvEUliE_E9_M_invokeERKSt9_Any_dataOi
 2399 0128 00000000 		.word	_ZNSt17_Function_handlerIFviEZ15InitializeSynthvEUliE_E10_M_managerERSt9_Any_dataRKS3_St18_M
 2400 012c 00000000 		.word	_Z13AudioCallbackPKfPfj
 2401 0130 00000000 		.word	.LANCHOR2
 2402 0134 18000000 		.word	.LC6
 2403 0138 48000000 		.word	.LC7
 2404 013c 00000000 		.word	MAX_ENGINE_INDEX
ARM GAS  /var/folders/9s/8rp0_f2s1n31qbztm3b5_fdh0000gn/T//cc1V9ehO.s 			page 103


 2405 0140 6C000000 		.word	.LC8
 2406 0144 0B000000 		.word	.LC5
 2407 0148 00000000 		.word	.LC4
 2408 014c 7F000000 		.word	.LC9
 2409 0150 88000000 		.word	.LC10
 2410              		.cfi_endproc
 2411              	.LFE5351:
 2413              		.section	.text.startup._GLOBAL__sub_I_hw,"ax",%progbits
 2414              		.align	1
 2415              		.syntax unified
 2416              		.thumb
 2417              		.thumb_func
 2419              	_GLOBAL__sub_I_hw:
 2420              	.LFB6153:
 2421              		.loc 16 209 1 is_stmt 1 view -0
 2422              		.cfi_startproc
 2423              		@ args = 0, pretend = 0, frame = 0
 2424              		@ frame_needed = 0, uses_anonymous_args = 0
 2425              	.LBB768:
 2426              	.LBI768:
 2427              		.loc 16 209 1 view .LVU573
 2428              	.LVL183:
 2429              	.LBB769:
 2430              	.LBB770:
 2431              	.LBI770:
  21:lib/libdaisy/src/daisy_seed.h ****     ~DaisySeed() {}
 2432              		.loc 3 21 5 view .LVU574
 2433              	.LBB771:
 2434              	.LBB772:
 2435              	.LBI772:
 2436              		.file 27 "lib/libdaisy/src/per/qspi.h"
   1:lib/libdaisy/src/per/qspi.h **** #ifndef DSY_QSPI
   2:lib/libdaisy/src/per/qspi.h **** #define DSY_QSPI /**< Macro */
   3:lib/libdaisy/src/per/qspi.h **** 
   4:lib/libdaisy/src/per/qspi.h **** #ifndef UNIT_TEST // for unit tests, a dummy implementation
   5:lib/libdaisy/src/per/qspi.h **** 
   6:lib/libdaisy/src/per/qspi.h **** #include <cstdint>
   7:lib/libdaisy/src/per/qspi.h **** #include "daisy_core.h" // Added for dsy_gpio_pin typedef
   8:lib/libdaisy/src/per/qspi.h **** 
   9:lib/libdaisy/src/per/qspi.h **** #define DSY_QSPI_TEXT       \
  10:lib/libdaisy/src/per/qspi.h ****     __attribute__((section( \
  11:lib/libdaisy/src/per/qspi.h ****         ".qspiflash_text"))) /**< used for reading memory in memory_mapped mode. */
  12:lib/libdaisy/src/per/qspi.h **** #define DSY_QSPI_DATA       \
  13:lib/libdaisy/src/per/qspi.h ****     __attribute__((section( \
  14:lib/libdaisy/src/per/qspi.h ****         ".qspiflash_data"))) /**< used for reading memory in memory_mapped mode. */
  15:lib/libdaisy/src/per/qspi.h **** #define DSY_QSPI_BSS        \
  16:lib/libdaisy/src/per/qspi.h ****     __attribute__((section( \
  17:lib/libdaisy/src/per/qspi.h ****         ".qspiflash_bss"))) /**< used for reading memory in memory_mapped mode. */
  18:lib/libdaisy/src/per/qspi.h **** 
  19:lib/libdaisy/src/per/qspi.h **** namespace daisy
  20:lib/libdaisy/src/per/qspi.h **** {
  21:lib/libdaisy/src/per/qspi.h **** /** @addtogroup serial
  22:lib/libdaisy/src/per/qspi.h **** @{
  23:lib/libdaisy/src/per/qspi.h **** */
  24:lib/libdaisy/src/per/qspi.h **** 
  25:lib/libdaisy/src/per/qspi.h **** /** 
  26:lib/libdaisy/src/per/qspi.h ****  Driver for QSPI peripheral to interface with external flash memory. \n 
ARM GAS  /var/folders/9s/8rp0_f2s1n31qbztm3b5_fdh0000gn/T//cc1V9ehO.s 			page 104


  27:lib/libdaisy/src/per/qspi.h ****     Currently supported QSPI Devices: \n 
  28:lib/libdaisy/src/per/qspi.h ****     * IS25LP080D
  29:lib/libdaisy/src/per/qspi.h **** */
  30:lib/libdaisy/src/per/qspi.h **** class QSPIHandle
  31:lib/libdaisy/src/per/qspi.h **** {
  32:lib/libdaisy/src/per/qspi.h ****   public:
  33:lib/libdaisy/src/per/qspi.h ****     enum Result
  34:lib/libdaisy/src/per/qspi.h ****     {
  35:lib/libdaisy/src/per/qspi.h ****         OK = 0,
  36:lib/libdaisy/src/per/qspi.h ****         ERR
  37:lib/libdaisy/src/per/qspi.h ****     };
  38:lib/libdaisy/src/per/qspi.h **** 
  39:lib/libdaisy/src/per/qspi.h ****     /** Indicates the current status of the module. 
  40:lib/libdaisy/src/per/qspi.h ****          *  Warnings are indicated by a leading W.
  41:lib/libdaisy/src/per/qspi.h ****          *  Errors are indicated by a leading E and cause an immediate exit.
  42:lib/libdaisy/src/per/qspi.h ****          * 
  43:lib/libdaisy/src/per/qspi.h ****          *  \param GOOD - No errors have been reported.
  44:lib/libdaisy/src/per/qspi.h ****          *  \param E_HAL_ERROR - HAL code did not return HAL_OK.
  45:lib/libdaisy/src/per/qspi.h ****          *  \param E_SWITCHING_MODES - An error was encountered while switching QSPI peripheral mod
  46:lib/libdaisy/src/per/qspi.h ****          *  \param E_INVALID_MODE - QSPI should not be written to while the program is executing fr
  47:lib/libdaisy/src/per/qspi.h ****          */
  48:lib/libdaisy/src/per/qspi.h ****     enum Status
  49:lib/libdaisy/src/per/qspi.h ****     {
  50:lib/libdaisy/src/per/qspi.h ****         GOOD = 0,
  51:lib/libdaisy/src/per/qspi.h ****         E_HAL_ERROR,
  52:lib/libdaisy/src/per/qspi.h ****         E_SWITCHING_MODES,
  53:lib/libdaisy/src/per/qspi.h ****         E_INVALID_MODE,
  54:lib/libdaisy/src/per/qspi.h ****     };
  55:lib/libdaisy/src/per/qspi.h **** 
  56:lib/libdaisy/src/per/qspi.h ****     /** Configuration structure for interfacing with QSPI Driver */
  57:lib/libdaisy/src/per/qspi.h ****     struct Config
  58:lib/libdaisy/src/per/qspi.h ****     {
  59:lib/libdaisy/src/per/qspi.h ****         /** Flash Devices supported. (Both of these are more-or-less the same, just different sizes
  60:lib/libdaisy/src/per/qspi.h ****         enum Device
  61:lib/libdaisy/src/per/qspi.h ****         {
  62:lib/libdaisy/src/per/qspi.h ****             IS25LP080D,  /**< & */
  63:lib/libdaisy/src/per/qspi.h ****             IS25LP064A,  /**< & */
  64:lib/libdaisy/src/per/qspi.h ****             DEVICE_LAST, /**< & */
  65:lib/libdaisy/src/per/qspi.h ****         };
  66:lib/libdaisy/src/per/qspi.h **** 
  67:lib/libdaisy/src/per/qspi.h ****         /** 
  68:lib/libdaisy/src/per/qspi.h ****         Modes of operation.
  69:lib/libdaisy/src/per/qspi.h ****         Memory Mapped mode: QSPI configured so that the QSPI can be
  70:lib/libdaisy/src/per/qspi.h ****         read from starting address 0x90000000. Writing is not
  71:lib/libdaisy/src/per/qspi.h ****         possible in this mode. \n 
  72:lib/libdaisy/src/per/qspi.h ****         Indirect Polling mode: Device driver enabled. 
  73:lib/libdaisy/src/per/qspi.h ****         */
  74:lib/libdaisy/src/per/qspi.h ****         enum Mode
  75:lib/libdaisy/src/per/qspi.h ****         {
  76:lib/libdaisy/src/per/qspi.h ****             MEMORY_MAPPED,    /**< & */
  77:lib/libdaisy/src/per/qspi.h ****             INDIRECT_POLLING, /**< & */
  78:lib/libdaisy/src/per/qspi.h ****             MODE_LAST,
  79:lib/libdaisy/src/per/qspi.h ****         };
  80:lib/libdaisy/src/per/qspi.h **** 
  81:lib/libdaisy/src/per/qspi.h ****         //SCK,  CE# (active low)
  82:lib/libdaisy/src/per/qspi.h ****         struct
  83:lib/libdaisy/src/per/qspi.h ****         {
ARM GAS  /var/folders/9s/8rp0_f2s1n31qbztm3b5_fdh0000gn/T//cc1V9ehO.s 			page 105


  84:lib/libdaisy/src/per/qspi.h ****             dsy_gpio_pin io0; /**< & */
  85:lib/libdaisy/src/per/qspi.h ****             dsy_gpio_pin io1; /**< & */
  86:lib/libdaisy/src/per/qspi.h ****             dsy_gpio_pin io2; /**< & */
  87:lib/libdaisy/src/per/qspi.h ****             dsy_gpio_pin io3; /**< & */
  88:lib/libdaisy/src/per/qspi.h ****             dsy_gpio_pin clk; /**< & */
  89:lib/libdaisy/src/per/qspi.h ****             dsy_gpio_pin ncs; /**< & */
  90:lib/libdaisy/src/per/qspi.h ****         } pin_config;
  91:lib/libdaisy/src/per/qspi.h **** 
  92:lib/libdaisy/src/per/qspi.h ****         Device device;
  93:lib/libdaisy/src/per/qspi.h ****         Mode   mode;
  94:lib/libdaisy/src/per/qspi.h ****     };
  95:lib/libdaisy/src/per/qspi.h **** 
  96:lib/libdaisy/src/per/qspi.h ****     /** 
  97:lib/libdaisy/src/per/qspi.h ****         Initializes QSPI peripheral, and Resets, and prepares memory for access.
  98:lib/libdaisy/src/per/qspi.h ****         \param config should be populated with the mode, device and pin_config before calling this 
  99:lib/libdaisy/src/per/qspi.h ****         \return Result::OK or Result::ERR
 100:lib/libdaisy/src/per/qspi.h ****         */
 101:lib/libdaisy/src/per/qspi.h ****     Result Init(const Config& config);
 102:lib/libdaisy/src/per/qspi.h **** 
 103:lib/libdaisy/src/per/qspi.h ****     /** Returns the current config. */
 104:lib/libdaisy/src/per/qspi.h ****     const Config& GetConfig() const;
 105:lib/libdaisy/src/per/qspi.h **** 
 106:lib/libdaisy/src/per/qspi.h ****     // Couldn't this just be called before anything else in init? That
 107:lib/libdaisy/src/per/qspi.h ****     // would make manually calling it unnecessary.
 108:lib/libdaisy/src/per/qspi.h ****     /** 
 109:lib/libdaisy/src/per/qspi.h ****         Deinitializes the peripheral
 110:lib/libdaisy/src/per/qspi.h ****         This should be called before reinitializing QSPI in a different mode.
 111:lib/libdaisy/src/per/qspi.h ****         \return Result::OK or Result::ERR
 112:lib/libdaisy/src/per/qspi.h ****         */
 113:lib/libdaisy/src/per/qspi.h ****     Result DeInit();
 114:lib/libdaisy/src/per/qspi.h **** 
 115:lib/libdaisy/src/per/qspi.h ****     /** 
 116:lib/libdaisy/src/per/qspi.h ****         Writes a single page to to the specified address on the QSPI chip.
 117:lib/libdaisy/src/per/qspi.h ****         For IS25LP*, page size is 256 bytes.
 118:lib/libdaisy/src/per/qspi.h ****         \param address Address to write to
 119:lib/libdaisy/src/per/qspi.h ****         \param size Buffer size
 120:lib/libdaisy/src/per/qspi.h ****         \param buffer Buffer to write
 121:lib/libdaisy/src/per/qspi.h ****         \return Result::OK or Result::ERR
 122:lib/libdaisy/src/per/qspi.h ****         */
 123:lib/libdaisy/src/per/qspi.h ****     Result WritePage(uint32_t address, uint32_t size, uint8_t* buffer);
 124:lib/libdaisy/src/per/qspi.h **** 
 125:lib/libdaisy/src/per/qspi.h ****     /** 
 126:lib/libdaisy/src/per/qspi.h ****         Writes data in buffer to to the QSPI. Starting at address to address+size 
 127:lib/libdaisy/src/per/qspi.h ****         \param address Address to write to
 128:lib/libdaisy/src/per/qspi.h ****         \param size Buffer size
 129:lib/libdaisy/src/per/qspi.h ****         \param buffer Buffer to write
 130:lib/libdaisy/src/per/qspi.h ****         \return Result::OK or Result::ERR
 131:lib/libdaisy/src/per/qspi.h ****         */
 132:lib/libdaisy/src/per/qspi.h ****     Result Write(uint32_t address, uint32_t size, uint8_t* buffer);
 133:lib/libdaisy/src/per/qspi.h **** 
 134:lib/libdaisy/src/per/qspi.h ****     /** 
 135:lib/libdaisy/src/per/qspi.h ****         Erases the area specified on the chip.
 136:lib/libdaisy/src/per/qspi.h ****         Erasures will happen by 4K, 32K or 64K increments.
 137:lib/libdaisy/src/per/qspi.h ****         Smallest erase possible is 4kB at a time. (on IS25LP*)
 138:lib/libdaisy/src/per/qspi.h ****         \param start_addr Address to begin erasing from
 139:lib/libdaisy/src/per/qspi.h ****         \param end_addr  Address to stop erasing at
 140:lib/libdaisy/src/per/qspi.h ****         \return Result::OK or Result::ERR
ARM GAS  /var/folders/9s/8rp0_f2s1n31qbztm3b5_fdh0000gn/T//cc1V9ehO.s 			page 106


 141:lib/libdaisy/src/per/qspi.h ****         */
 142:lib/libdaisy/src/per/qspi.h ****     Result Erase(uint32_t start_addr, uint32_t end_addr);
 143:lib/libdaisy/src/per/qspi.h **** 
 144:lib/libdaisy/src/per/qspi.h ****     /**  
 145:lib/libdaisy/src/per/qspi.h ****          Erases a single sector of the chip.  
 146:lib/libdaisy/src/per/qspi.h ****         TODO: Document the size of this function. 
 147:lib/libdaisy/src/per/qspi.h ****         \param addr Address of sector to erase
 148:lib/libdaisy/src/per/qspi.h ****         \return Result::OK or Result::ERR
 149:lib/libdaisy/src/per/qspi.h ****         */
 150:lib/libdaisy/src/per/qspi.h ****     Result EraseSector(uint32_t address);
 151:lib/libdaisy/src/per/qspi.h **** 
 152:lib/libdaisy/src/per/qspi.h ****     /** Returns the current class status. Useful for debugging.
 153:lib/libdaisy/src/per/qspi.h ****      *  \returns Status
 154:lib/libdaisy/src/per/qspi.h ****      */
 155:lib/libdaisy/src/per/qspi.h ****     Status GetStatus();
 156:lib/libdaisy/src/per/qspi.h **** 
 157:lib/libdaisy/src/per/qspi.h ****     /** Returns a pointer to the actual memory used 
 158:lib/libdaisy/src/per/qspi.h ****      *  The memory at this address is read-only
 159:lib/libdaisy/src/per/qspi.h ****      *  to write to it use the Write function.
 160:lib/libdaisy/src/per/qspi.h ****      * 
 161:lib/libdaisy/src/per/qspi.h ****      *  \param offset returns the pointer starting this 
 162:lib/libdaisy/src/per/qspi.h ****      *                many bytes into the memory
 163:lib/libdaisy/src/per/qspi.h ****     */
 164:lib/libdaisy/src/per/qspi.h ****     void* GetData(uint32_t offset = 0);
 165:lib/libdaisy/src/per/qspi.h **** 
 166:lib/libdaisy/src/per/qspi.h ****     QSPIHandle() : pimpl_(nullptr) {}
 2437              		.loc 27 166 5 view .LVU575
 2438              	.LBE772:
 2439              	.LBE771:
 2440              	.LBE770:
 2441              	.LBE769:
 2442              	.LBE768:
 2443              		.loc 16 209 1 is_stmt 0 view .LVU576
 2444 0000 10B5     		push	{r4, lr}
 2445              		.cfi_def_cfa_offset 8
 2446              		.cfi_offset 4, -8
 2447              		.cfi_offset 14, -4
 2448              	.LBB859:
 2449              	.LBB855:
 2450              	.LBB790:
 2451              	.LBB788:
 2452              	.LBB777:
 2453              	.LBB773:
 2454              	.LBB774:
 2455              		.loc 27 166 34 view .LVU577
 2456 0002 3E48     		ldr	r0, .L74
 2457 0004 0024     		movs	r4, #0
 2458              	.LBE774:
 2459              	.LBE773:
 2460              	.LBE777:
 2461              	.LBE788:
 2462              	.LBE790:
   5:Interface.cpp **** DaisySeed hw;
 2463              		.loc 16 5 11 view .LVU578
 2464 0006 3E4A     		ldr	r2, .L74+4
 2465 0008 3E49     		ldr	r1, .L74+8
 2466              	.LBB791:
ARM GAS  /var/folders/9s/8rp0_f2s1n31qbztm3b5_fdh0000gn/T//cc1V9ehO.s 			page 107


 2467              	.LBB789:
 2468              	.LBB778:
 2469              	.LBB776:
 2470              	.LBB775:
 2471              		.loc 27 166 34 view .LVU579
 2472 000a 0460     		str	r4, [r0]
 2473              	.LVL184:
 2474              		.loc 27 166 34 view .LVU580
 2475              	.LBE775:
 2476              	.LBE776:
 2477              	.LBE778:
 2478              	.LBB779:
 2479              	.LBI779:
  62:lib/libdaisy/src/hid/audio.h ****     ~AudioHandle() {}
 2480              		.loc 7 62 5 is_stmt 1 view .LVU581
 2481              	.LBB780:
 2482              	.LBB781:
  62:lib/libdaisy/src/hid/audio.h ****     ~AudioHandle() {}
 2483              		.loc 7 62 35 is_stmt 0 view .LVU582
 2484 000c 4461     		str	r4, [r0, #20]
 2485              	.LVL185:
  62:lib/libdaisy/src/hid/audio.h ****     ~AudioHandle() {}
 2486              		.loc 7 62 35 view .LVU583
 2487              	.LBE781:
 2488              	.LBE780:
 2489              	.LBE779:
 2490              	.LBB782:
 2491              	.LBI782:
  84:lib/libdaisy/src/per/adc.h ****     ~AdcHandle() {}
 2492              		.loc 6 84 5 is_stmt 1 view .LVU584
  84:lib/libdaisy/src/per/adc.h ****     ~AdcHandle() {}
 2493              		.loc 6 84 5 is_stmt 0 view .LVU585
 2494              	.LBE782:
 2495              	.LBB783:
 2496              	.LBI783:
 2497              		.file 28 "lib/libdaisy/src/per/dac.h"
   1:lib/libdaisy/src/per/dac.h **** #pragma once
   2:lib/libdaisy/src/per/dac.h **** #ifndef DSY_DAC_H
   3:lib/libdaisy/src/per/dac.h **** #define DSY_DAC_H
   4:lib/libdaisy/src/per/dac.h **** 
   5:lib/libdaisy/src/per/dac.h **** #include "daisy_core.h"
   6:lib/libdaisy/src/per/dac.h **** 
   7:lib/libdaisy/src/per/dac.h **** namespace daisy
   8:lib/libdaisy/src/per/dac.h **** {
   9:lib/libdaisy/src/per/dac.h **** /** DAC handle for Built-in DAC Peripheral 
  10:lib/libdaisy/src/per/dac.h ****  ** 
  11:lib/libdaisy/src/per/dac.h ****  ** For now only Normal Mode is supported,
  12:lib/libdaisy/src/per/dac.h ****  ** Sample and hold mode provides reduced power consumption, but requires a bit more setup.
  13:lib/libdaisy/src/per/dac.h ****  **
  14:lib/libdaisy/src/per/dac.h ****  ** For now connecting the DAC through other internal periphearls is also not supported.
  15:lib/libdaisy/src/per/dac.h ****  **
  16:lib/libdaisy/src/per/dac.h ****  ** Since the DAC channels have dedicated pins we don't need to pass in a pin config like with
  17:lib/libdaisy/src/per/dac.h ****  ** other modules. However, it is still important to not try to use the DAC pins for anything else.
  18:lib/libdaisy/src/per/dac.h ****  ** DAC Channel 1 is on PA4, and DAC Channel 2 is on PA5
  19:lib/libdaisy/src/per/dac.h ****  ***/
  20:lib/libdaisy/src/per/dac.h **** class DacHandle
  21:lib/libdaisy/src/per/dac.h **** {
ARM GAS  /var/folders/9s/8rp0_f2s1n31qbztm3b5_fdh0000gn/T//cc1V9ehO.s 			page 108


  22:lib/libdaisy/src/per/dac.h ****   public:
  23:lib/libdaisy/src/per/dac.h ****     /** Return Values for the DacHandle class */
  24:lib/libdaisy/src/per/dac.h ****     enum class Result
  25:lib/libdaisy/src/per/dac.h ****     {
  26:lib/libdaisy/src/per/dac.h ****         OK,
  27:lib/libdaisy/src/per/dac.h ****         ERR,
  28:lib/libdaisy/src/per/dac.h ****     };
  29:lib/libdaisy/src/per/dac.h **** 
  30:lib/libdaisy/src/per/dac.h ****     /** Selects which channel(s) will be configured for use. */
  31:lib/libdaisy/src/per/dac.h ****     enum class Channel
  32:lib/libdaisy/src/per/dac.h ****     {
  33:lib/libdaisy/src/per/dac.h ****         ONE,
  34:lib/libdaisy/src/per/dac.h ****         TWO,
  35:lib/libdaisy/src/per/dac.h ****         BOTH,
  36:lib/libdaisy/src/per/dac.h ****     };
  37:lib/libdaisy/src/per/dac.h **** 
  38:lib/libdaisy/src/per/dac.h ****     /** Sets the Mode for the DAC channels.
  39:lib/libdaisy/src/per/dac.h ****      **
  40:lib/libdaisy/src/per/dac.h ****      ** Polling mode uses the blocking mode to transmit a single value at a time.
  41:lib/libdaisy/src/per/dac.h ****      **
  42:lib/libdaisy/src/per/dac.h ****      ** DMA mode uses a buffer, and periodically transmits it triggering a 
  43:lib/libdaisy/src/per/dac.h ****      ** callback to fill the buffer when it is ready for more samples.
  44:lib/libdaisy/src/per/dac.h ****      ***/
  45:lib/libdaisy/src/per/dac.h ****     enum class Mode
  46:lib/libdaisy/src/per/dac.h ****     {
  47:lib/libdaisy/src/per/dac.h ****         POLLING,
  48:lib/libdaisy/src/per/dac.h ****         DMA,
  49:lib/libdaisy/src/per/dac.h ****     };
  50:lib/libdaisy/src/per/dac.h **** 
  51:lib/libdaisy/src/per/dac.h ****     /** Sets the number of bits per sample transmitted out of the DAC.
  52:lib/libdaisy/src/per/dac.h ****      ** The output range will be: 0V - VDDA
  53:lib/libdaisy/src/per/dac.h ****      ** The resolution will be roughly: bitdepth / (VDDA - 0V) 
  54:lib/libdaisy/src/per/dac.h ****      ***/
  55:lib/libdaisy/src/per/dac.h ****     enum class BitDepth
  56:lib/libdaisy/src/per/dac.h ****     {
  57:lib/libdaisy/src/per/dac.h ****         BITS_8,
  58:lib/libdaisy/src/per/dac.h ****         BITS_12
  59:lib/libdaisy/src/per/dac.h ****     };
  60:lib/libdaisy/src/per/dac.h **** 
  61:lib/libdaisy/src/per/dac.h ****     /** Sets whether the DAC output is buffered for higher drive ability. */
  62:lib/libdaisy/src/per/dac.h ****     enum class BufferState
  63:lib/libdaisy/src/per/dac.h ****     {
  64:lib/libdaisy/src/per/dac.h ****         ENABLED,
  65:lib/libdaisy/src/per/dac.h ****         DISABLED,
  66:lib/libdaisy/src/per/dac.h ****     };
  67:lib/libdaisy/src/per/dac.h **** 
  68:lib/libdaisy/src/per/dac.h ****     /** Configuration structure for initializing the DAC structure. */
  69:lib/libdaisy/src/per/dac.h ****     struct Config
  70:lib/libdaisy/src/per/dac.h ****     {
  71:lib/libdaisy/src/per/dac.h ****         /** Target Samplerate in Hz used to configure the internal 
  72:lib/libdaisy/src/per/dac.h ****          ** timebase for DMA mode. Does nothing in POLLING mode.
  73:lib/libdaisy/src/per/dac.h ****          ** If the value is 0 at Init time this will default to 48000Hz 
  74:lib/libdaisy/src/per/dac.h ****          ** otherwise the driver will attempt meet the target.*/
  75:lib/libdaisy/src/per/dac.h ****         uint32_t target_samplerate;
  76:lib/libdaisy/src/per/dac.h **** 
  77:lib/libdaisy/src/per/dac.h ****         Channel     chn;
  78:lib/libdaisy/src/per/dac.h ****         Mode        mode;
ARM GAS  /var/folders/9s/8rp0_f2s1n31qbztm3b5_fdh0000gn/T//cc1V9ehO.s 			page 109


  79:lib/libdaisy/src/per/dac.h ****         BitDepth    bitdepth;
  80:lib/libdaisy/src/per/dac.h ****         BufferState buff_state;
  81:lib/libdaisy/src/per/dac.h ****     };
  82:lib/libdaisy/src/per/dac.h **** 
  83:lib/libdaisy/src/per/dac.h ****     DacHandle() : pimpl_(nullptr) {}
 2498              		.loc 28 83 5 is_stmt 1 view .LVU586
 2499              	.LBB784:
 2500              	.LBB785:
 2501              		.loc 28 83 33 is_stmt 0 view .LVU587
 2502 000e 0462     		str	r4, [r0, #32]
 2503              	.LVL186:
 2504              		.loc 28 83 33 view .LVU588
 2505              	.LBE785:
 2506              	.LBE784:
 2507              	.LBE783:
 2508              	.LBB786:
 2509              	.LBI786:
  40:lib/libdaisy/src/hid/usb.h **** 
 2510              		.loc 5 40 5 is_stmt 1 view .LVU589
  40:lib/libdaisy/src/hid/usb.h **** 
 2511              		.loc 5 40 5 is_stmt 0 view .LVU590
 2512              	.LBE786:
 2513              	.LBB787:
 2514              	.LBI787:
  77:lib/libdaisy/src/sys/system.h ****     ~System() {}
 2515              		.loc 4 77 5 is_stmt 1 view .LVU591
  77:lib/libdaisy/src/sys/system.h ****     ~System() {}
 2516              		.loc 4 77 5 is_stmt 0 view .LVU592
 2517              	.LBE787:
 2518              	.LBE789:
 2519              	.LBE791:
   5:Interface.cpp **** DaisySeed hw;
 2520              		.loc 16 5 11 view .LVU593
 2521 0010 FFF7FEFF 		bl	__aeabi_atexit
 2522              	.LVL187:
 2523              	.LBB792:
 2524              	.LBI792:
  56:mpr121_daisy.h ****     ~Mpr121() {}
 2525              		.loc 8 56 5 is_stmt 1 view .LVU594
 2526              	.LBB793:
 2527              	.LBB794:
 2528              	.LBI794:
  29:lib/libdaisy/src/per/i2c.h ****     {
  30:lib/libdaisy/src/per/i2c.h ****         /** Specifies whether the interface will operate in master or slave mode. */
  31:lib/libdaisy/src/per/i2c.h ****         enum class Mode
  32:lib/libdaisy/src/per/i2c.h ****         {
  33:lib/libdaisy/src/per/i2c.h ****             I2C_MASTER,
  34:lib/libdaisy/src/per/i2c.h ****             I2C_SLAVE,
  35:lib/libdaisy/src/per/i2c.h ****         };
  36:lib/libdaisy/src/per/i2c.h **** 
  37:lib/libdaisy/src/per/i2c.h ****         /** Specifices the internal peripheral to use (these are mapped to different pins on the ha
  38:lib/libdaisy/src/per/i2c.h ****         enum class Peripheral
  39:lib/libdaisy/src/per/i2c.h ****         {
  40:lib/libdaisy/src/per/i2c.h ****             I2C_1 = 0, /**< & */
  41:lib/libdaisy/src/per/i2c.h ****             I2C_2,     /**< & */
  42:lib/libdaisy/src/per/i2c.h ****             I2C_3,     /**< & */
  43:lib/libdaisy/src/per/i2c.h ****             I2C_4,     /**< & */
ARM GAS  /var/folders/9s/8rp0_f2s1n31qbztm3b5_fdh0000gn/T//cc1V9ehO.s 			page 110


  44:lib/libdaisy/src/per/i2c.h ****         };
  45:lib/libdaisy/src/per/i2c.h **** 
  46:lib/libdaisy/src/per/i2c.h ****         /** Rate at which the clock/data will be sent/received. The device being used will have max
  47:lib/libdaisy/src/per/i2c.h ****          *  1MHZ Mode is currently 886kHz
  48:lib/libdaisy/src/per/i2c.h ****          */
  49:lib/libdaisy/src/per/i2c.h ****         enum class Speed
  50:lib/libdaisy/src/per/i2c.h ****         {
  51:lib/libdaisy/src/per/i2c.h ****             I2C_100KHZ, /**< & */
  52:lib/libdaisy/src/per/i2c.h ****             I2C_400KHZ, /**< & */
  53:lib/libdaisy/src/per/i2c.h ****             I2C_1MHZ,   /**< & */
  54:lib/libdaisy/src/per/i2c.h ****         };
  55:lib/libdaisy/src/per/i2c.h **** 
  56:lib/libdaisy/src/per/i2c.h ****         Peripheral periph; /**< & */
  57:lib/libdaisy/src/per/i2c.h ****         struct
  58:lib/libdaisy/src/per/i2c.h ****         {
  59:lib/libdaisy/src/per/i2c.h ****             dsy_gpio_pin scl; /**< & */
  60:lib/libdaisy/src/per/i2c.h ****             dsy_gpio_pin sda; /**< & */
  61:lib/libdaisy/src/per/i2c.h ****         } pin_config;         /**< & */
  62:lib/libdaisy/src/per/i2c.h **** 
  63:lib/libdaisy/src/per/i2c.h ****         Speed speed; /**< & */
  64:lib/libdaisy/src/per/i2c.h ****         Mode  mode;  /**< & */
  65:lib/libdaisy/src/per/i2c.h ****         // 0x10 is chosen as a default to avoid conflicts with reserved addresses
  66:lib/libdaisy/src/per/i2c.h ****         uint8_t address = 0x10; /**< & */
  67:lib/libdaisy/src/per/i2c.h ****     };
  68:lib/libdaisy/src/per/i2c.h **** 
  69:lib/libdaisy/src/per/i2c.h ****     /** Return values for I2C functions. */
  70:lib/libdaisy/src/per/i2c.h ****     enum class Result
  71:lib/libdaisy/src/per/i2c.h ****     {
  72:lib/libdaisy/src/per/i2c.h ****         OK, /**< & */
  73:lib/libdaisy/src/per/i2c.h ****         ERR /**< & */
  74:lib/libdaisy/src/per/i2c.h ****     };
  75:lib/libdaisy/src/per/i2c.h **** 
  76:lib/libdaisy/src/per/i2c.h ****     enum class Direction
  77:lib/libdaisy/src/per/i2c.h ****     {
  78:lib/libdaisy/src/per/i2c.h ****         TRANSMIT, /**< & */
  79:lib/libdaisy/src/per/i2c.h ****         RECEIVE,  /**< & */
  80:lib/libdaisy/src/per/i2c.h ****     };
  81:lib/libdaisy/src/per/i2c.h **** 
  82:lib/libdaisy/src/per/i2c.h ****     I2CHandle() : pimpl_(nullptr) {}
 2529              		.loc 19 82 5 view .LVU595
 2530              	.LBB795:
 2531              	.LBB796:
 2532              		.loc 19 82 33 is_stmt 0 view .LVU596
 2533 0014 3C48     		ldr	r0, .L74+12
 2534              	.LBE796:
 2535              	.LBE795:
 2536              	.LBE794:
 2537              	.LBE793:
 2538              	.LBE792:
   6:Interface.cpp **** Mpr121 touch_sensor;
 2539              		.loc 16 6 8 view .LVU597
 2540 0016 3A4A     		ldr	r2, .L74+4
 2541 0018 3C49     		ldr	r1, .L74+16
 2542              	.LBB801:
 2543              	.LBB800:
 2544              	.LBB799:
 2545              	.LBB798:
ARM GAS  /var/folders/9s/8rp0_f2s1n31qbztm3b5_fdh0000gn/T//cc1V9ehO.s 			page 111


 2546              	.LBB797:
 2547              		.loc 19 82 33 view .LVU598
 2548 001a 0460     		str	r4, [r0]
 2549              	.LBE797:
 2550              	.LBE798:
 2551              	.LBE799:
  56:mpr121_daisy.h ****     ~Mpr121() {}
 2552              		.loc 8 56 14 view .LVU599
 2553 001c 8480     		strh	r4, [r0, #4]	@ movhi
 2554              	.LVL188:
  56:mpr121_daisy.h ****     ~Mpr121() {}
 2555              		.loc 8 56 14 view .LVU600
 2556              	.LBE800:
 2557              	.LBE801:
   6:Interface.cpp **** Mpr121 touch_sensor;
 2558              		.loc 16 6 8 view .LVU601
 2559 001e FFF7FEFF 		bl	__aeabi_atexit
 2560              	.LVL189:
 2561              	.LBB802:
 2562              	.LBI802:
  24:Effects/EchoDelay.h ****         ~EchoDelay() {}
 2563              		.loc 9 24 9 is_stmt 1 view .LVU602
 2564              	.LBB803:
 2565              	.LBB804:
 2566              	.LBI804:
  31:lib/DaisySP/Source/Utility/delayline.h ****     ~DelayLine() {}
 2567              		.loc 12 31 5 view .LVU603
  31:lib/DaisySP/Source/Utility/delayline.h ****     ~DelayLine() {}
 2568              		.loc 12 31 5 is_stmt 0 view .LVU604
 2569              	.LBE804:
 2570              	.LBB805:
 2571              	.LBI805:
  76:Effects/BiquadFilters.h ****         ~BiquadCascade() {}
 2572              		.loc 10 76 9 is_stmt 1 view .LVU605
 2573              	.LBB806:
 2574              	.LBB807:
 2575              	.LBI807:
  94:/Library/DaisyToolchain/0.2.0/arm/arm-none-eabi/include/c++/10.3.1/array ****     {
 2576              		.loc 11 94 12 view .LVU606
 2577              	.LBE807:
 2578              	.LBE806:
 2579              	.LBE805:
 2580              	.LBE803:
 2581              	.LBE802:
 2582              	.LBE855:
 2583              	.LBE859:
  94:/Library/DaisyToolchain/0.2.0/arm/arm-none-eabi/include/c++/10.3.1/array ****     {
 2584              		.loc 11 94 12 view .LVU607
 2585              	.LBB860:
 2586              	.LBB856:
 2587              	.LBB829:
 2588              	.LBB826:
 2589              	.LBB823:
 2590              	.LBB820:
 2591              	.LBB817:
 2592              	.LBB808:
 2593              	.LBI808:
ARM GAS  /var/folders/9s/8rp0_f2s1n31qbztm3b5_fdh0000gn/T//cc1V9ehO.s 			page 112


  34:Effects/BiquadFilters.h ****         ~BiquadSection() {}
 2594              		.loc 10 34 9 view .LVU608
 2595              	.LBB809:
 2596              	.LBB810:
  34:Effects/BiquadFilters.h ****         ~BiquadSection() {}
 2597              		.loc 10 34 25 is_stmt 0 view .LVU609
 2598 0022 1422     		movs	r2, #20
 2599 0024 2146     		mov	r1, r4
 2600 0026 3A48     		ldr	r0, .L74+20
 2601              	.LVL190:
  34:Effects/BiquadFilters.h ****         ~BiquadSection() {}
 2602              		.loc 10 34 25 view .LVU610
 2603 0028 FFF7FEFF 		bl	memset
 2604              	.LVL191:
  34:Effects/BiquadFilters.h ****         ~BiquadSection() {}
 2605              		.loc 10 34 25 view .LVU611
 2606 002c 394A     		ldr	r2, .L74+24
 2607 002e 0023     		movs	r3, #0
 2608              	.LBE810:
 2609              	.LBE809:
 2610              	.LBE808:
 2611              	.LBE817:
 2612              	.LBE820:
 2613              	.LBE823:
 2614              	.LBE826:
 2615              	.LBE829:
   7:Interface.cpp **** EchoDelay<48000> delay;
 2616              		.loc 16 7 18 view .LVU612
 2617 0030 3948     		ldr	r0, .L74+28
 2618              	.LBB830:
 2619              	.LBB827:
 2620              	.LBB824:
 2621              	.LBB821:
 2622              	.LBB818:
 2623              	.LBB815:
 2624              	.LBB813:
 2625              	.LBB811:
  34:Effects/BiquadFilters.h ****         ~BiquadSection() {}
 2626              		.loc 10 34 25 view .LVU613
 2627 0032 1146     		mov	r1, r2
 2628 0034 9360     		str	r3, [r2, #8]	@ float
 2629 0036 41F8043B 		str	r3, [r1], #4	@ float
 2630 003a D360     		str	r3, [r2, #12]	@ float
 2631              	.LVL192:
  34:Effects/BiquadFilters.h ****         ~BiquadSection() {}
 2632              		.loc 10 34 25 view .LVU614
 2633              	.LBE811:
 2634              	.LBE813:
 2635              	.LBE815:
 2636              	.LBE818:
 2637              	.LBE821:
 2638              	.LBE824:
 2639              	.LBE827:
 2640              	.LBE830:
 2641              	.LBE856:
 2642              	.LBE860:
  94:/Library/DaisyToolchain/0.2.0/arm/arm-none-eabi/include/c++/10.3.1/array ****     {
ARM GAS  /var/folders/9s/8rp0_f2s1n31qbztm3b5_fdh0000gn/T//cc1V9ehO.s 			page 113


 2643              		.loc 11 94 12 is_stmt 1 view .LVU615
  94:/Library/DaisyToolchain/0.2.0/arm/arm-none-eabi/include/c++/10.3.1/array ****     {
 2644              		.loc 11 94 12 view .LVU616
 2645              	.LBB861:
 2646              	.LBB857:
 2647              	.LBB831:
 2648              	.LBB828:
 2649              	.LBB825:
 2650              	.LBB822:
 2651              	.LBB819:
 2652              	.LBB816:
 2653              	.LBB814:
 2654              	.LBB812:
  34:Effects/BiquadFilters.h ****         ~BiquadSection() {}
 2655              		.loc 10 34 25 is_stmt 0 view .LVU617
 2656 003c 0B60     		str	r3, [r1]	@ float
 2657              	.LBE812:
 2658              	.LBE814:
 2659              	.LBE816:
 2660              	.LBE819:
 2661              	.LBE822:
 2662              	.LBE825:
 2663              	.LBE828:
 2664              	.LBE831:
   7:Interface.cpp **** EchoDelay<48000> delay;
 2665              		.loc 16 7 18 view .LVU618
 2666 003e 304A     		ldr	r2, .L74+4
 2667 0040 3649     		ldr	r1, .L74+32
 2668 0042 FFF7FEFF 		bl	__aeabi_atexit
 2669              	.LVL193:
   9:Interface.cpp **** Arpeggiator arp;
 2670              		.loc 16 9 13 view .LVU619
 2671 0046 3648     		ldr	r0, .L74+36
 2672 0048 FFF7FEFF 		bl	_ZN11ArpeggiatorC1Ev
 2673              	.LVL194:
 2674 004c 2C4A     		ldr	r2, .L74+4
 2675 004e 3549     		ldr	r1, .L74+40
 2676 0050 3348     		ldr	r0, .L74+36
 2677 0052 FFF7FEFF 		bl	__aeabi_atexit
 2678              	.LVL195:
  11:Interface.cpp **** GPIO touch_leds[12];
 2679              		.loc 16 11 19 is_stmt 1 view .LVU620
 2680 0056 344B     		ldr	r3, .L74+44
   9:Interface.cpp **** Arpeggiator arp;
 2681              		.loc 16 9 13 is_stmt 0 view .LVU621
 2682 0058 0C22     		movs	r2, #12
 2683              	.L72:
 2684              	.LVL196:
 2685              	.LBB832:
 2686              	.LBI832:
  61:lib/libdaisy/src/per/gpio.h ****         {
  62:lib/libdaisy/src/per/gpio.h ****         }
  63:lib/libdaisy/src/per/gpio.h ****     };
  64:lib/libdaisy/src/per/gpio.h **** 
  65:lib/libdaisy/src/per/gpio.h ****     GPIO() {}
 2687              		.loc 20 65 5 is_stmt 1 view .LVU622
 2688              	.LBB833:
ARM GAS  /var/folders/9s/8rp0_f2s1n31qbztm3b5_fdh0000gn/T//cc1V9ehO.s 			page 114


 2689              	.LBI833:
  59:lib/libdaisy/src/per/gpio.h ****         : pin(), mode(Mode::INPUT), pull(Pull::NOPULL), speed(Speed::LOW)
 2690              		.loc 20 59 9 view .LVU623
 2691              	.LBB834:
 2692              	.LBB835:
 2693              	.LBI835:
 2694              		.loc 21 272 15 view .LVU624
 2695              	.LBB836:
 2696              		.loc 21 272 43 is_stmt 0 view .LVU625
 2697 005a 0B21     		movs	r1, #11
 2698              	.LBE836:
 2699              	.LBE835:
 2700              	.LBE834:
 2701              	.LBE833:
 2702              	.LBE832:
  11:Interface.cpp **** GPIO touch_leds[12];
 2703              		.loc 16 11 19 view .LVU626
 2704 005c 013A     		subs	r2, r2, #1
 2705              	.LBB841:
 2706              	.LBB840:
 2707              	.LBB839:
 2708              	.LBB838:
 2709              	.LBB837:
 2710              		.loc 21 272 43 view .LVU627
 2711 005e 1970     		strb	r1, [r3]
 2712 0060 4FF0FF01 		mov	r1, #255
 2713 0064 5970     		strb	r1, [r3, #1]
 2714              	.LVL197:
 2715              		.loc 21 272 43 view .LVU628
 2716              	.LBE837:
 2717              	.LBE838:
  60:lib/libdaisy/src/per/gpio.h ****         {
 2718              		.loc 20 60 73 view .LVU629
 2719 0066 4FF00001 		mov	r1, #0
 2720 006a C3E90111 		strd	r1, r1, [r3, #4]
 2721 006e D960     		str	r1, [r3, #12]
 2722              	.LVL198:
  60:lib/libdaisy/src/per/gpio.h ****         {
 2723              		.loc 20 60 73 view .LVU630
 2724              	.LBE839:
 2725              	.LBE840:
 2726              	.LBE841:
  11:Interface.cpp **** GPIO touch_leds[12];
 2727              		.loc 16 11 19 is_stmt 1 view .LVU631
  11:Interface.cpp **** GPIO touch_leds[12];
 2728              		.loc 16 11 19 view .LVU632
 2729 0070 03F11403 		add	r3, r3, #20
 2730 0074 F1D1     		bne	.L72
 2731              	.LVL199:
 2732              	.LBB842:
 2733              	.LBI842:
  41:lib/libdaisy/src/hid/switch.h ****     ~Switch() {}
 2734              		.loc 1 41 5 view .LVU633
  41:lib/libdaisy/src/hid/switch.h ****     ~Switch() {}
 2735              		.loc 1 41 5 is_stmt 0 view .LVU634
 2736              	.LBE842:
  18:Interface.cpp **** Switch button;
ARM GAS  /var/folders/9s/8rp0_f2s1n31qbztm3b5_fdh0000gn/T//cc1V9ehO.s 			page 115


 2737              		.loc 16 18 8 view .LVU635
 2738 0076 224A     		ldr	r2, .L74+4
 2739 0078 2C49     		ldr	r1, .L74+48
 2740 007a 2D48     		ldr	r0, .L74+52
 2741 007c FFF7FEFF 		bl	__aeabi_atexit
 2742              	.LVL200:
 2743              	.LBB843:
 2744              	.LBI843:
  21:lib/libdaisy/src/hid/ctrl.h ****     /** destructor */
 2745              		.loc 2 21 5 is_stmt 1 view .LVU636
  21:lib/libdaisy/src/hid/ctrl.h ****     /** destructor */
 2746              		.loc 2 21 5 is_stmt 0 view .LVU637
 2747              	.LBE843:
  19:Interface.cpp **** AnalogControl delay_time_knob;        // ADC 0 (Pin 15) Delay Time
 2748              		.loc 16 19 15 view .LVU638
 2749 0080 1F4A     		ldr	r2, .L74+4
 2750 0082 2C49     		ldr	r1, .L74+56
 2751 0084 2C48     		ldr	r0, .L74+60
 2752 0086 FFF7FEFF 		bl	__aeabi_atexit
 2753              	.LVL201:
 2754              	.LBB844:
 2755              	.LBI844:
  21:lib/libdaisy/src/hid/ctrl.h ****     /** destructor */
 2756              		.loc 2 21 5 is_stmt 1 view .LVU639
  21:lib/libdaisy/src/hid/ctrl.h ****     /** destructor */
 2757              		.loc 2 21 5 is_stmt 0 view .LVU640
 2758              	.LBE844:
  20:Interface.cpp **** AnalogControl delay_mix_feedback_knob; // ADC 1 (Pin 16) Delay Mix & Feedback
 2759              		.loc 16 20 15 view .LVU641
 2760 008a 1D4A     		ldr	r2, .L74+4
 2761 008c 2949     		ldr	r1, .L74+56
 2762 008e 2B48     		ldr	r0, .L74+64
 2763 0090 FFF7FEFF 		bl	__aeabi_atexit
 2764              	.LVL202:
 2765              	.LBB845:
 2766              	.LBI845:
  21:lib/libdaisy/src/hid/ctrl.h ****     /** destructor */
 2767              		.loc 2 21 5 is_stmt 1 view .LVU642
  21:lib/libdaisy/src/hid/ctrl.h ****     /** destructor */
 2768              		.loc 2 21 5 is_stmt 0 view .LVU643
 2769              	.LBE845:
  21:Interface.cpp **** AnalogControl env_release_knob;       // ADC 2 (Pin 17) Envelope Release
 2770              		.loc 16 21 15 view .LVU644
 2771 0094 1A4A     		ldr	r2, .L74+4
 2772 0096 2749     		ldr	r1, .L74+56
 2773 0098 2948     		ldr	r0, .L74+68
 2774 009a FFF7FEFF 		bl	__aeabi_atexit
 2775              	.LVL203:
 2776              	.LBB846:
 2777              	.LBI846:
  21:lib/libdaisy/src/hid/ctrl.h ****     /** destructor */
 2778              		.loc 2 21 5 is_stmt 1 view .LVU645
  21:lib/libdaisy/src/hid/ctrl.h ****     /** destructor */
 2779              		.loc 2 21 5 is_stmt 0 view .LVU646
 2780              	.LBE846:
  22:Interface.cpp **** AnalogControl env_attack_knob;        // ADC 3 (Pin 18) Envelope Attack
 2781              		.loc 16 22 15 view .LVU647
ARM GAS  /var/folders/9s/8rp0_f2s1n31qbztm3b5_fdh0000gn/T//cc1V9ehO.s 			page 116


 2782 009e 184A     		ldr	r2, .L74+4
 2783 00a0 2449     		ldr	r1, .L74+56
 2784 00a2 2848     		ldr	r0, .L74+72
 2785 00a4 FFF7FEFF 		bl	__aeabi_atexit
 2786              	.LVL204:
 2787              	.LBB847:
 2788              	.LBI847:
  21:lib/libdaisy/src/hid/ctrl.h ****     /** destructor */
 2789              		.loc 2 21 5 is_stmt 1 view .LVU648
  21:lib/libdaisy/src/hid/ctrl.h ****     /** destructor */
 2790              		.loc 2 21 5 is_stmt 0 view .LVU649
 2791              	.LBE847:
  23:Interface.cpp **** AnalogControl timbre_knob;            // ADC 4 (Pin 19) Plaits Timbre
 2792              		.loc 16 23 15 view .LVU650
 2793 00a8 154A     		ldr	r2, .L74+4
 2794 00aa 2249     		ldr	r1, .L74+56
 2795 00ac 2648     		ldr	r0, .L74+76
 2796 00ae FFF7FEFF 		bl	__aeabi_atexit
 2797              	.LVL205:
 2798              	.LBB848:
 2799              	.LBI848:
  21:lib/libdaisy/src/hid/ctrl.h ****     /** destructor */
 2800              		.loc 2 21 5 is_stmt 1 view .LVU651
  21:lib/libdaisy/src/hid/ctrl.h ****     /** destructor */
 2801              		.loc 2 21 5 is_stmt 0 view .LVU652
 2802              	.LBE848:
  24:Interface.cpp **** AnalogControl harmonics_knob;         // ADC 5 (Pin 20) Plaits Harmonics
 2803              		.loc 16 24 15 view .LVU653
 2804 00b2 134A     		ldr	r2, .L74+4
 2805 00b4 1F49     		ldr	r1, .L74+56
 2806 00b6 2548     		ldr	r0, .L74+80
 2807 00b8 FFF7FEFF 		bl	__aeabi_atexit
 2808              	.LVL206:
 2809              	.LBB849:
 2810              	.LBI849:
  21:lib/libdaisy/src/hid/ctrl.h ****     /** destructor */
 2811              		.loc 2 21 5 is_stmt 1 view .LVU654
  21:lib/libdaisy/src/hid/ctrl.h ****     /** destructor */
 2812              		.loc 2 21 5 is_stmt 0 view .LVU655
 2813              	.LBE849:
  25:Interface.cpp **** AnalogControl morph_knob;             // ADC 6 (Pin 21) Plaits Morph
 2814              		.loc 16 25 15 view .LVU656
 2815 00bc 104A     		ldr	r2, .L74+4
 2816 00be 1D49     		ldr	r1, .L74+56
 2817 00c0 2348     		ldr	r0, .L74+84
 2818 00c2 FFF7FEFF 		bl	__aeabi_atexit
 2819              	.LVL207:
 2820              	.LBB850:
 2821              	.LBI850:
  21:lib/libdaisy/src/hid/ctrl.h ****     /** destructor */
 2822              		.loc 2 21 5 is_stmt 1 view .LVU657
  21:lib/libdaisy/src/hid/ctrl.h ****     /** destructor */
 2823              		.loc 2 21 5 is_stmt 0 view .LVU658
 2824              	.LBE850:
  26:Interface.cpp **** AnalogControl pitch_knob;             // ADC 7 (Pin 22) Plaits Pitch
 2825              		.loc 16 26 15 view .LVU659
 2826 00c6 0E4A     		ldr	r2, .L74+4
ARM GAS  /var/folders/9s/8rp0_f2s1n31qbztm3b5_fdh0000gn/T//cc1V9ehO.s 			page 117


 2827 00c8 1A49     		ldr	r1, .L74+56
 2828 00ca 2248     		ldr	r0, .L74+88
 2829 00cc FFF7FEFF 		bl	__aeabi_atexit
 2830              	.LVL208:
 2831              	.LBB851:
 2832              	.LBI851:
  21:lib/libdaisy/src/hid/ctrl.h ****     /** destructor */
 2833              		.loc 2 21 5 is_stmt 1 view .LVU660
  21:lib/libdaisy/src/hid/ctrl.h ****     /** destructor */
 2834              		.loc 2 21 5 is_stmt 0 view .LVU661
 2835              	.LBE851:
  27:Interface.cpp **** AnalogControl arp_pad;               // ADC 8 (Pin 23) Arpeggiator Toggle Pad
 2836              		.loc 16 27 15 view .LVU662
 2837 00d0 0B4A     		ldr	r2, .L74+4
 2838 00d2 1849     		ldr	r1, .L74+56
 2839 00d4 2048     		ldr	r0, .L74+92
 2840 00d6 FFF7FEFF 		bl	__aeabi_atexit
 2841              	.LVL209:
 2842              	.LBB852:
 2843              	.LBI852:
  21:lib/libdaisy/src/hid/ctrl.h ****     /** destructor */
 2844              		.loc 2 21 5 is_stmt 1 view .LVU663
  21:lib/libdaisy/src/hid/ctrl.h ****     /** destructor */
 2845              		.loc 2 21 5 is_stmt 0 view .LVU664
 2846              	.LBE852:
  28:Interface.cpp **** AnalogControl model_prev_pad;        // ADC 9 (Pin 24) Model Select Previous Pad
 2847              		.loc 16 28 15 view .LVU665
 2848 00da 094A     		ldr	r2, .L74+4
 2849 00dc 1549     		ldr	r1, .L74+56
 2850 00de 1F48     		ldr	r0, .L74+96
 2851 00e0 FFF7FEFF 		bl	__aeabi_atexit
 2852              	.LVL210:
 2853              	.LBB853:
 2854              	.LBI853:
  21:lib/libdaisy/src/hid/ctrl.h ****     /** destructor */
 2855              		.loc 2 21 5 is_stmt 1 view .LVU666
  21:lib/libdaisy/src/hid/ctrl.h ****     /** destructor */
 2856              		.loc 2 21 5 is_stmt 0 view .LVU667
 2857              	.LBE853:
  29:Interface.cpp **** AnalogControl model_next_pad;        // ADC 10 (Pin 25) Model Select Next Pad
 2858              		.loc 16 29 15 view .LVU668
 2859 00e4 064A     		ldr	r2, .L74+4
 2860 00e6 1349     		ldr	r1, .L74+56
 2861 00e8 1D48     		ldr	r0, .L74+100
 2862 00ea FFF7FEFF 		bl	__aeabi_atexit
 2863              	.LVL211:
 2864              	.LBB854:
 2865              	.LBI854:
  21:lib/libdaisy/src/hid/ctrl.h ****     /** destructor */
 2866              		.loc 2 21 5 is_stmt 1 view .LVU669
  21:lib/libdaisy/src/hid/ctrl.h ****     /** destructor */
 2867              		.loc 2 21 5 is_stmt 0 view .LVU670
 2868              	.LBE854:
  30:Interface.cpp **** AnalogControl mod_wheel;             // ADC 11 (Pin 28) Mod Wheel Control
 2869              		.loc 16 30 15 view .LVU671
 2870 00ee 044A     		ldr	r2, .L74+4
 2871 00f0 1049     		ldr	r1, .L74+56
ARM GAS  /var/folders/9s/8rp0_f2s1n31qbztm3b5_fdh0000gn/T//cc1V9ehO.s 			page 118


 2872 00f2 1C48     		ldr	r0, .L74+104
 2873              	.LBE857:
 2874              	.LBE861:
 2875              		.loc 16 209 1 view .LVU672
 2876 00f4 BDE81040 		pop	{r4, lr}
 2877              		.cfi_restore 14
 2878              		.cfi_restore 4
 2879              		.cfi_def_cfa_offset 0
 2880              	.LBB862:
 2881              	.LBB858:
  30:Interface.cpp **** AnalogControl mod_wheel;             // ADC 11 (Pin 28) Mod Wheel Control
 2882              		.loc 16 30 15 view .LVU673
 2883 00f8 FFF7FEBF 		b	__aeabi_atexit
 2884              	.LVL212:
 2885              	.L75:
 2886              		.align	2
 2887              	.L74:
 2888 00fc 00000000 		.word	.LANCHOR2
 2889 0100 00000000 		.word	__dso_handle
 2890 0104 00000000 		.word	_ZN5daisy9DaisySeedD1Ev
 2891 0108 00000000 		.word	.LANCHOR18
 2892 010c 00000000 		.word	_ZN6Mpr121D1Ev
 2893 0110 2CEE0200 		.word	delay+192044
 2894 0114 40EE0200 		.word	delay+192064
 2895 0118 00000000 		.word	delay
 2896 011c 00000000 		.word	_ZN10infrasonic9EchoDelayILj48000EED1Ev
 2897 0120 00000000 		.word	.LANCHOR20
 2898 0124 00000000 		.word	_ZN11ArpeggiatorD1Ev
 2899 0128 00000000 		.word	.LANCHOR19
 2900 012c 00000000 		.word	_ZN5daisy6SwitchD1Ev
 2901 0130 00000000 		.word	.LANCHOR16
 2902 0134 00000000 		.word	_ZN5daisy13AnalogControlD1Ev
 2903 0138 00000000 		.word	.LANCHOR4
 2904 013c 00000000 		.word	.LANCHOR5
 2905 0140 00000000 		.word	.LANCHOR6
 2906 0144 00000000 		.word	.LANCHOR7
 2907 0148 00000000 		.word	.LANCHOR8
 2908 014c 00000000 		.word	.LANCHOR9
 2909 0150 00000000 		.word	.LANCHOR10
 2910 0154 00000000 		.word	.LANCHOR11
 2911 0158 00000000 		.word	.LANCHOR12
 2912 015c 00000000 		.word	.LANCHOR13
 2913 0160 00000000 		.word	.LANCHOR14
 2914 0164 00000000 		.word	.LANCHOR15
 2915              	.LBE858:
 2916              	.LBE862:
 2917              		.cfi_endproc
 2918              	.LFE6153:
 2920              		.section	.init_array,"aw",%init_array
 2921              		.align	2
 2922 0000 00000000 		.word	_GLOBAL__sub_I_hw(target1)
 2923              		.global	button_was_pressed
 2924              		.global	button_held_start_time
 2925              		.global	BOOTLOADER_HOLD_TIME_MS
 2926              		.global	smoothed_output_level
 2927              		.global	update_display
 2928              		.global	avg_elapsed_us
ARM GAS  /var/folders/9s/8rp0_f2s1n31qbztm3b5_fdh0000gn/T//cc1V9ehO.s 			page 119


 2929              		.global	sample_rate
 2930              		.global	mod_wheel
 2931              		.global	model_next_pad
 2932              		.global	model_prev_pad
 2933              		.global	arp_pad
 2934              		.global	pitch_knob
 2935              		.global	morph_knob
 2936              		.global	harmonics_knob
 2937              		.global	timbre_knob
 2938              		.global	env_attack_knob
 2939              		.global	env_release_knob
 2940              		.global	delay_mix_feedback_knob
 2941              		.global	delay_time_knob
 2942              		.global	button
 2943              		.global	ARP_LED_DURATION_MS
 2944              		.global	arp_led_timestamps
 2945              		.global	touch_leds
 2946              		.global	arp
 2947              		.global	delay
 2948              		.global	touch_sensor
 2949              		.global	hw
 2950              		.section	.rodata
 2951              		.set	.LANCHOR17,. + 0
 2952              	.LC0:
 2953 0000 01       		.byte	1
 2954 0001 08       		.byte	8
 2955              	.LC1:
 2956 0002 01       		.byte	1
 2957 0003 09       		.byte	9
 2958              	.LC2:
 2959 0004 01       		.byte	1
 2960 0005 07       		.byte	7
 2961 0006 01       		.byte	1
 2962 0007 06       		.byte	6
 2963 0008 01       		.byte	1
 2964 0009 05       		.byte	5
 2965 000a 01       		.byte	1
 2966 000b 04       		.byte	4
 2967 000c 06       		.byte	6
 2968 000d 0B       		.byte	11
 2969 000e 06       		.byte	6
 2970 000f 0A       		.byte	10
 2971 0010 02       		.byte	2
 2972 0011 0C       		.byte	12
 2973 0012 03       		.byte	3
 2974 0013 02       		.byte	2
 2975 0014 02       		.byte	2
 2976 0015 08       		.byte	8
 2977 0016 02       		.byte	2
 2978 0017 09       		.byte	9
 2979 0018 02       		.byte	2
 2980 0019 0A       		.byte	10
 2981 001a 02       		.byte	2
 2982 001b 0B       		.byte	11
 2983              		.section	.bss.arp,"aw",%nobits
 2984              		.align	2
 2985              		.set	.LANCHOR20,. + 0
ARM GAS  /var/folders/9s/8rp0_f2s1n31qbztm3b5_fdh0000gn/T//cc1V9ehO.s 			page 120


 2988              	arp:
 2989 0000 00000000 		.space	84
 2989      00000000 
 2989      00000000 
 2989      00000000 
 2989      00000000 
 2990              		.section	.bss.arp_led_timestamps,"aw",%nobits
 2991              		.align	2
 2992              		.set	.LANCHOR1,. + 0
 2995              	arp_led_timestamps:
 2996 0000 00000000 		.space	48
 2996      00000000 
 2996      00000000 
 2996      00000000 
 2996      00000000 
 2997              		.section	.bss.arp_pad,"aw",%nobits
 2998              		.align	2
 2999              		.set	.LANCHOR12,. + 0
 3002              	arp_pad:
 3003 0000 00000000 		.space	32
 3003      00000000 
 3003      00000000 
 3003      00000000 
 3003      00000000 
 3004              		.section	.bss.avg_elapsed_us,"aw",%nobits
 3005              		.align	2
 3008              	avg_elapsed_us:
 3009 0000 00000000 		.space	4
 3010              		.section	.bss.button,"aw",%nobits
 3011              		.align	2
 3012              		.set	.LANCHOR16,. + 0
 3015              	button:
 3016 0000 00000000 		.space	12
 3016      00000000 
 3016      00000000 
 3017              		.section	.bss.button_held_start_time,"aw",%nobits
 3018              		.align	2
 3021              	button_held_start_time:
 3022 0000 00000000 		.space	4
 3023              		.section	.bss.button_was_pressed,"aw",%nobits
 3026              	button_was_pressed:
 3027 0000 00       		.space	1
 3028              		.section	.bss.delay,"aw",%nobits
 3029              		.align	2
 3032              	delay:
 3033 0000 00000000 		.space	192080
 3033      00000000 
 3033      00000000 
 3033      00000000 
 3033      00000000 
 3034              		.section	.bss.delay_mix_feedback_knob,"aw",%nobits
 3035              		.align	2
 3036              		.set	.LANCHOR5,. + 0
 3039              	delay_mix_feedback_knob:
 3040 0000 00000000 		.space	32
 3040      00000000 
 3040      00000000 
ARM GAS  /var/folders/9s/8rp0_f2s1n31qbztm3b5_fdh0000gn/T//cc1V9ehO.s 			page 121


 3040      00000000 
 3040      00000000 
 3041              		.section	.bss.delay_time_knob,"aw",%nobits
 3042              		.align	2
 3043              		.set	.LANCHOR4,. + 0
 3046              	delay_time_knob:
 3047 0000 00000000 		.space	32
 3047      00000000 
 3047      00000000 
 3047      00000000 
 3047      00000000 
 3048              		.section	.bss.env_attack_knob,"aw",%nobits
 3049              		.align	2
 3050              		.set	.LANCHOR7,. + 0
 3053              	env_attack_knob:
 3054 0000 00000000 		.space	32
 3054      00000000 
 3054      00000000 
 3054      00000000 
 3054      00000000 
 3055              		.section	.bss.env_release_knob,"aw",%nobits
 3056              		.align	2
 3057              		.set	.LANCHOR6,. + 0
 3060              	env_release_knob:
 3061 0000 00000000 		.space	32
 3061      00000000 
 3061      00000000 
 3061      00000000 
 3061      00000000 
 3062              		.section	.bss.harmonics_knob,"aw",%nobits
 3063              		.align	2
 3064              		.set	.LANCHOR9,. + 0
 3067              	harmonics_knob:
 3068 0000 00000000 		.space	32
 3068      00000000 
 3068      00000000 
 3068      00000000 
 3068      00000000 
 3069              		.section	.bss.hw,"aw",%nobits
 3070              		.align	2
 3071              		.set	.LANCHOR2,. + 0
 3074              	hw:
 3075 0000 00000000 		.space	60
 3075      00000000 
 3075      00000000 
 3075      00000000 
 3075      00000000 
 3076              		.section	.bss.mod_wheel,"aw",%nobits
 3077              		.align	2
 3078              		.set	.LANCHOR15,. + 0
 3081              	mod_wheel:
 3082 0000 00000000 		.space	32
 3082      00000000 
 3082      00000000 
 3082      00000000 
 3082      00000000 
 3083              		.section	.bss.model_next_pad,"aw",%nobits
ARM GAS  /var/folders/9s/8rp0_f2s1n31qbztm3b5_fdh0000gn/T//cc1V9ehO.s 			page 122


 3084              		.align	2
 3085              		.set	.LANCHOR14,. + 0
 3088              	model_next_pad:
 3089 0000 00000000 		.space	32
 3089      00000000 
 3089      00000000 
 3089      00000000 
 3089      00000000 
 3090              		.section	.bss.model_prev_pad,"aw",%nobits
 3091              		.align	2
 3092              		.set	.LANCHOR13,. + 0
 3095              	model_prev_pad:
 3096 0000 00000000 		.space	32
 3096      00000000 
 3096      00000000 
 3096      00000000 
 3096      00000000 
 3097              		.section	.bss.morph_knob,"aw",%nobits
 3098              		.align	2
 3099              		.set	.LANCHOR10,. + 0
 3102              	morph_knob:
 3103 0000 00000000 		.space	32
 3103      00000000 
 3103      00000000 
 3103      00000000 
 3103      00000000 
 3104              		.section	.bss.pitch_knob,"aw",%nobits
 3105              		.align	2
 3106              		.set	.LANCHOR11,. + 0
 3109              	pitch_knob:
 3110 0000 00000000 		.space	32
 3110      00000000 
 3110      00000000 
 3110      00000000 
 3110      00000000 
 3111              		.section	.bss.smoothed_output_level,"aw",%nobits
 3112              		.align	2
 3115              	smoothed_output_level:
 3116 0000 00000000 		.space	4
 3117              		.section	.bss.timbre_knob,"aw",%nobits
 3118              		.align	2
 3119              		.set	.LANCHOR8,. + 0
 3122              	timbre_knob:
 3123 0000 00000000 		.space	32
 3123      00000000 
 3123      00000000 
 3123      00000000 
 3123      00000000 
 3124              		.section	.bss.touch_leds,"aw",%nobits
 3125              		.align	2
 3126              		.set	.LANCHOR19,. + 0
 3129              	touch_leds:
 3130 0000 00000000 		.space	240
 3130      00000000 
 3130      00000000 
 3130      00000000 
 3130      00000000 
ARM GAS  /var/folders/9s/8rp0_f2s1n31qbztm3b5_fdh0000gn/T//cc1V9ehO.s 			page 123


 3131              		.section	.bss.touch_sensor,"aw",%nobits
 3132              		.align	2
 3133              		.set	.LANCHOR18,. + 0
 3136              	touch_sensor:
 3137 0000 00000000 		.space	8
 3137      00000000 
 3138              		.section	.bss.update_display,"aw",%nobits
 3141              	update_display:
 3142 0000 00       		.space	1
 3143              		.section	.data.sample_rate,"aw"
 3144              		.align	2
 3145              		.set	.LANCHOR3,. + 0
 3148              	sample_rate:
 3149 0000 00803B47 		.word	1195081728
 3150              		.section	.rodata.ARP_LED_DURATION_MS,"a"
 3151              		.align	2
 3154              	ARP_LED_DURATION_MS:
 3155 0000 64000000 		.word	100
 3156              		.section	.rodata.BOOTLOADER_HOLD_TIME_MS,"a"
 3157              		.align	2
 3160              	BOOTLOADER_HOLD_TIME_MS:
 3161 0000 B80B0000 		.word	3000
 3162              		.section	.rodata._ZTIZ15InitializeSynthvEUliE_,"a"
 3163              		.align	2
 3164              		.set	.LANCHOR0,. + 0
 3167              	_ZTIZ15InitializeSynthvEUliE_:
 3168 0000 08000000 		.word	_ZTVN10__cxxabiv117__class_type_infoE+8
 3169 0004 00000000 		.word	_ZTSZ15InitializeSynthvEUliE_
 3170              		.section	.rodata._ZTSZ15InitializeSynthvEUliE_,"a"
 3173              	_ZTSZ15InitializeSynthvEUliE_:
 3174 0000 2A5A3135 		.ascii	"*Z15InitializeSynthvEUliE_\000"
 3174      496E6974 
 3174      69616C69 
 3174      7A655379 
 3174      6E746876 
 3175              		.text
 3176              	.Letext0:
 3177              		.file 29 "/Library/DaisyToolchain/0.2.0/arm/arm-none-eabi/include/machine/_default_types.h"
 3178              		.file 30 "/Library/DaisyToolchain/0.2.0/arm/arm-none-eabi/include/sys/_stdint.h"
 3179              		.file 31 "/Library/DaisyToolchain/0.2.0/arm/arm-none-eabi/include/stdint.h"
 3180              		.file 32 "/Library/DaisyToolchain/0.2.0/arm/lib/gcc/arm-none-eabi/10.3.1/include/stddef.h"
 3181              		.file 33 "/Library/DaisyToolchain/0.2.0/arm/arm-none-eabi/include/c++/10.3.1/bits/cpp_type_traits.
 3182              		.file 34 "/Library/DaisyToolchain/0.2.0/arm/arm-none-eabi/include/c++/10.3.1/cmath"
 3183              		.file 35 "/Library/DaisyToolchain/0.2.0/arm/arm-none-eabi/include/c++/10.3.1/bits/std_abs.h"
 3184              		.file 36 "/Library/DaisyToolchain/0.2.0/arm/arm-none-eabi/include/c++/10.3.1/cstdlib"
 3185              		.file 37 "/Library/DaisyToolchain/0.2.0/arm/arm-none-eabi/include/c++/10.3.1/cstdint"
 3186              		.file 38 "/Library/DaisyToolchain/0.2.0/arm/arm-none-eabi/include/c++/10.3.1/type_traits"
 3187              		.file 39 "/Library/DaisyToolchain/0.2.0/arm/arm-none-eabi/include/c++/10.3.1/arm-none-eabi/thumb/v
 3188              		.file 40 "/Library/DaisyToolchain/0.2.0/arm/arm-none-eabi/include/c++/10.3.1/bits/stl_pair.h"
 3189              		.file 41 "/Library/DaisyToolchain/0.2.0/arm/arm-none-eabi/include/c++/10.3.1/debug/debug.h"
 3190              		.file 42 "/Library/DaisyToolchain/0.2.0/arm/arm-none-eabi/include/c++/10.3.1/bits/algorithmfwd.h"
 3191              		.file 43 "/Library/DaisyToolchain/0.2.0/arm/arm-none-eabi/include/c++/10.3.1/bits/exception_ptr.h"
 3192              		.file 44 "/Library/DaisyToolchain/0.2.0/arm/arm-none-eabi/include/c++/10.3.1/cstdarg"
 3193              		.file 45 "/Library/DaisyToolchain/0.2.0/arm/arm-none-eabi/include/c++/10.3.1/cstdio"
 3194              		.file 46 "/Library/DaisyToolchain/0.2.0/arm/arm-none-eabi/include/c++/10.3.1/cstring"
 3195              		.file 47 "/Library/DaisyToolchain/0.2.0/arm/arm-none-eabi/include/c++/10.3.1/cwchar"
 3196              		.file 48 "/Library/DaisyToolchain/0.2.0/arm/arm-none-eabi/include/c++/10.3.1/clocale"
ARM GAS  /var/folders/9s/8rp0_f2s1n31qbztm3b5_fdh0000gn/T//cc1V9ehO.s 			page 124


 3197              		.file 49 "/Library/DaisyToolchain/0.2.0/arm/arm-none-eabi/include/c++/10.3.1/bits/basic_string.h"
 3198              		.file 50 "/Library/DaisyToolchain/0.2.0/arm/arm-none-eabi/include/c++/10.3.1/bits/stl_iterator.h"
 3199              		.file 51 "/Library/DaisyToolchain/0.2.0/arm/arm-none-eabi/include/c++/10.3.1/bits/uses_allocator.h
 3200              		.file 52 "/Library/DaisyToolchain/0.2.0/arm/arm-none-eabi/include/c++/10.3.1/tuple"
 3201              		.file 53 "/Library/DaisyToolchain/0.2.0/arm/arm-none-eabi/include/c++/10.3.1/functional"
 3202              		.file 54 "/Library/DaisyToolchain/0.2.0/arm/arm-none-eabi/include/c++/10.3.1/bits/stl_function.h"
 3203              		.file 55 "/Library/DaisyToolchain/0.2.0/arm/arm-none-eabi/include/c++/10.3.1/bits/refwrap.h"
 3204              		.file 56 "/Library/DaisyToolchain/0.2.0/arm/arm-none-eabi/include/c++/10.3.1/bits/predefined_ops.h
 3205              		.file 57 "/Library/DaisyToolchain/0.2.0/arm/arm-none-eabi/include/sys/_types.h"
 3206              		.file 58 "/Library/DaisyToolchain/0.2.0/arm/arm-none-eabi/include/sys/reent.h"
 3207              		.file 59 "/Library/DaisyToolchain/0.2.0/arm/arm-none-eabi/include/sys/lock.h"
 3208              		.file 60 "/Library/DaisyToolchain/0.2.0/arm/arm-none-eabi/include/math.h"
 3209              		.file 61 "/Library/DaisyToolchain/0.2.0/arm/arm-none-eabi/include/stdlib.h"
 3210              		.file 62 "/Library/DaisyToolchain/0.2.0/arm/arm-none-eabi/include/c++/10.3.1/math.h"
 3211              		.file 63 "/Library/DaisyToolchain/0.2.0/arm/arm-none-eabi/include/c++/10.3.1/stdlib.h"
 3212              		.file 64 "lib/libdaisy/src/per/tim.h"
 3213              		.file 65 "lib/libdaisy/src/per/sai.h"
 3214              		.file 66 "lib/libdaisy/src/hid/logger_impl.h"
 3215              		.file 67 "lib/libdaisy/src/util/wav_format.h"
 3216              		.file 68 "lib/libdaisy/src/hid/logger.h"
 3217              		.file 69 "lib/libdaisy/src/dev/sdram.h"
 3218              		.file 70 "/Library/DaisyToolchain/0.2.0/arm/lib/gcc/arm-none-eabi/10.3.1/include/stdarg.h"
 3219              		.file 71 "/Library/DaisyToolchain/0.2.0/arm/arm-none-eabi/include/stdio.h"
 3220              		.file 72 "/Library/DaisyToolchain/0.2.0/arm/arm-none-eabi/include/string.h"
 3221              		.file 73 "lib/DaisySP/Source/Control/adenv.h"
 3222              		.file 74 "/Library/DaisyToolchain/0.2.0/arm/arm-none-eabi/include/wchar.h"
 3223              		.file 75 "/Library/DaisyToolchain/0.2.0/arm/arm-none-eabi/include/locale.h"
 3224              		.file 76 "eurorack/stmlib/stmlib.h"
 3225              		.file 77 "eurorack/plaits/dsp/dsp.h"
 3226              		.file 78 "eurorack/plaits/dsp/engine/additive_engine.h"
 3227              		.file 79 "eurorack/plaits/dsp/oscillator/oscillator.h"
 3228              		.file 80 "eurorack/plaits/dsp/engine/chord_engine.h"
 3229              		.file 81 "eurorack/plaits/dsp/physical_modelling/resonator.h"
 3230              		.file 82 "eurorack/plaits/dsp/engine/particle_engine.h"
 3231              		.file 83 "eurorack/plaits/dsp/physical_modelling/string.h"
 3232              		.file 84 "eurorack/plaits/dsp/engine/string_engine.h"
 3233              		.file 85 "eurorack/plaits/dsp/engine/swarm_engine.h"
 3234              		.file 86 "eurorack/plaits/dsp/oscillator/variable_saw_oscillator.h"
 3235              		.file 87 "eurorack/plaits/dsp/voice.h"
 3236              		.file 88 "<built-in>"
 3237              		.file 89 "Thaumazein.h"
 3238              		.file 90 "lib/libdaisy/src/dev/sr_595.h"
ARM GAS  /var/folders/9s/8rp0_f2s1n31qbztm3b5_fdh0000gn/T//cc1V9ehO.s 			page 125


DEFINED SYMBOLS
                            *ABS*:0000000000000000 Interface.cpp
/var/folders/9s/8rp0_f2s1n31qbztm3b5_fdh0000gn/T//cc1V9ehO.s:19     .text._ZN5daisy6SwitchD2Ev:0000000000000000 $t
/var/folders/9s/8rp0_f2s1n31qbztm3b5_fdh0000gn/T//cc1V9ehO.s:25     .text._ZN5daisy6SwitchD2Ev:0000000000000000 _ZN5daisy6SwitchD2Ev
/var/folders/9s/8rp0_f2s1n31qbztm3b5_fdh0000gn/T//cc1V9ehO.s:25     .text._ZN5daisy6SwitchD2Ev:0000000000000000 _ZN5daisy6SwitchD1Ev
/var/folders/9s/8rp0_f2s1n31qbztm3b5_fdh0000gn/T//cc1V9ehO.s:42     .text._ZN5daisy13AnalogControlD2Ev:0000000000000000 $t
/var/folders/9s/8rp0_f2s1n31qbztm3b5_fdh0000gn/T//cc1V9ehO.s:48     .text._ZN5daisy13AnalogControlD2Ev:0000000000000000 _ZN5daisy13AnalogControlD2Ev
/var/folders/9s/8rp0_f2s1n31qbztm3b5_fdh0000gn/T//cc1V9ehO.s:48     .text._ZN5daisy13AnalogControlD2Ev:0000000000000000 _ZN5daisy13AnalogControlD1Ev
/var/folders/9s/8rp0_f2s1n31qbztm3b5_fdh0000gn/T//cc1V9ehO.s:65     .text._ZN5daisy9DaisySeedD2Ev:0000000000000000 $t
/var/folders/9s/8rp0_f2s1n31qbztm3b5_fdh0000gn/T//cc1V9ehO.s:71     .text._ZN5daisy9DaisySeedD2Ev:0000000000000000 _ZN5daisy9DaisySeedD2Ev
/var/folders/9s/8rp0_f2s1n31qbztm3b5_fdh0000gn/T//cc1V9ehO.s:71     .text._ZN5daisy9DaisySeedD2Ev:0000000000000000 _ZN5daisy9DaisySeedD1Ev
/var/folders/9s/8rp0_f2s1n31qbztm3b5_fdh0000gn/T//cc1V9ehO.s:112    .text._ZN6Mpr121D2Ev:0000000000000000 $t
/var/folders/9s/8rp0_f2s1n31qbztm3b5_fdh0000gn/T//cc1V9ehO.s:118    .text._ZN6Mpr121D2Ev:0000000000000000 _ZN6Mpr121D2Ev
/var/folders/9s/8rp0_f2s1n31qbztm3b5_fdh0000gn/T//cc1V9ehO.s:118    .text._ZN6Mpr121D2Ev:0000000000000000 _ZN6Mpr121D1Ev
/var/folders/9s/8rp0_f2s1n31qbztm3b5_fdh0000gn/T//cc1V9ehO.s:135    .text._ZN10infrasonic9EchoDelayILj48000EED2Ev:0000000000000000 $t
/var/folders/9s/8rp0_f2s1n31qbztm3b5_fdh0000gn/T//cc1V9ehO.s:141    .text._ZN10infrasonic9EchoDelayILj48000EED2Ev:0000000000000000 _ZN10infrasonic9EchoDelayILj48000EED2Ev
/var/folders/9s/8rp0_f2s1n31qbztm3b5_fdh0000gn/T//cc1V9ehO.s:141    .text._ZN10infrasonic9EchoDelayILj48000EED2Ev:0000000000000000 _ZN10infrasonic9EchoDelayILj48000EED1Ev
/var/folders/9s/8rp0_f2s1n31qbztm3b5_fdh0000gn/T//cc1V9ehO.s:175    .text._ZNSt17_Function_handlerIFviEZ15InitializeSynthvEUliE_E10_M_managerERSt9_Any_dataRKS3_St18_Manager_operation:0000000000000000 $t
/var/folders/9s/8rp0_f2s1n31qbztm3b5_fdh0000gn/T//cc1V9ehO.s:180    .text._ZNSt17_Function_handlerIFviEZ15InitializeSynthvEUliE_E10_M_managerERSt9_Any_dataRKS3_St18_Manager_operation:0000000000000000 _ZNSt17_Function_handlerIFviEZ15InitializeSynthvEUliE_E10_M_managerERSt9_Any_dataRKS3_St18_Manager_operation
/var/folders/9s/8rp0_f2s1n31qbztm3b5_fdh0000gn/T//cc1V9ehO.s:235    .text._ZNSt17_Function_handlerIFviEZ15InitializeSynthvEUliE_E10_M_managerERSt9_Any_dataRKS3_St18_Manager_operation:0000000000000014 $d
/var/folders/9s/8rp0_f2s1n31qbztm3b5_fdh0000gn/T//cc1V9ehO.s:240    .text._ZNSt17_Function_handlerIFviEZ15InitializeSynthvEUliE_E9_M_invokeERKSt9_Any_dataOi:0000000000000000 $t
/var/folders/9s/8rp0_f2s1n31qbztm3b5_fdh0000gn/T//cc1V9ehO.s:245    .text._ZNSt17_Function_handlerIFviEZ15InitializeSynthvEUliE_E9_M_invokeERKSt9_Any_dataOi:0000000000000000 _ZNSt17_Function_handlerIFviEZ15InitializeSynthvEUliE_E9_M_invokeERKSt9_Any_dataOi
/var/folders/9s/8rp0_f2s1n31qbztm3b5_fdh0000gn/T//cc1V9ehO.s:454    .text._ZNSt17_Function_handlerIFviEZ15InitializeSynthvEUliE_E9_M_invokeERKSt9_Any_dataOi:000000000000008c $d
/var/folders/9s/8rp0_f2s1n31qbztm3b5_fdh0000gn/T//cc1V9ehO.s:474    .text._ZNSt14_Function_baseD2Ev:0000000000000000 $t
/var/folders/9s/8rp0_f2s1n31qbztm3b5_fdh0000gn/T//cc1V9ehO.s:480    .text._ZNSt14_Function_baseD2Ev:0000000000000000 _ZNSt14_Function_baseD2Ev
/var/folders/9s/8rp0_f2s1n31qbztm3b5_fdh0000gn/T//cc1V9ehO.s:480    .text._ZNSt14_Function_baseD2Ev:0000000000000000 _ZNSt14_Function_baseD1Ev
/var/folders/9s/8rp0_f2s1n31qbztm3b5_fdh0000gn/T//cc1V9ehO.s:521    .text._ZN11ArpeggiatorD2Ev:0000000000000000 $t
/var/folders/9s/8rp0_f2s1n31qbztm3b5_fdh0000gn/T//cc1V9ehO.s:527    .text._ZN11ArpeggiatorD2Ev:0000000000000000 _ZN11ArpeggiatorD2Ev
/var/folders/9s/8rp0_f2s1n31qbztm3b5_fdh0000gn/T//cc1V9ehO.s:527    .text._ZN11ArpeggiatorD2Ev:0000000000000000 _ZN11ArpeggiatorD1Ev
/var/folders/9s/8rp0_f2s1n31qbztm3b5_fdh0000gn/T//cc1V9ehO.s:573    .text._Z18InitializeHardwarev:0000000000000000 $t
/var/folders/9s/8rp0_f2s1n31qbztm3b5_fdh0000gn/T//cc1V9ehO.s:579    .text._Z18InitializeHardwarev:0000000000000000 _Z18InitializeHardwarev
/var/folders/9s/8rp0_f2s1n31qbztm3b5_fdh0000gn/T//cc1V9ehO.s:635    .text._Z18InitializeHardwarev:0000000000000038 $d
/var/folders/9s/8rp0_f2s1n31qbztm3b5_fdh0000gn/T//cc1V9ehO.s:641    .text._Z18InitializeControlsv:0000000000000000 $t
/var/folders/9s/8rp0_f2s1n31qbztm3b5_fdh0000gn/T//cc1V9ehO.s:647    .text._Z18InitializeControlsv:0000000000000000 _Z18InitializeControlsv
/var/folders/9s/8rp0_f2s1n31qbztm3b5_fdh0000gn/T//cc1V9ehO.s:999    .text._Z18InitializeControlsv:0000000000000284 $d
/var/folders/9s/8rp0_f2s1n31qbztm3b5_fdh0000gn/T//cc1V9ehO.s:1020   .text._Z21InitializeTouchSensorv:0000000000000000 $t
/var/folders/9s/8rp0_f2s1n31qbztm3b5_fdh0000gn/T//cc1V9ehO.s:1026   .text._Z21InitializeTouchSensorv:0000000000000000 _Z21InitializeTouchSensorv
/var/folders/9s/8rp0_f2s1n31qbztm3b5_fdh0000gn/T//cc1V9ehO.s:1155   .text._Z21InitializeTouchSensorv:0000000000000060 $d
/var/folders/9s/8rp0_f2s1n31qbztm3b5_fdh0000gn/T//cc1V9ehO.s:1162   .text._Z19InitializeTouchLEDsv:0000000000000000 $t
/var/folders/9s/8rp0_f2s1n31qbztm3b5_fdh0000gn/T//cc1V9ehO.s:1168   .text._Z19InitializeTouchLEDsv:0000000000000000 _Z19InitializeTouchLEDsv
/var/folders/9s/8rp0_f2s1n31qbztm3b5_fdh0000gn/T//cc1V9ehO.s:1282   .text._Z19InitializeTouchLEDsv:0000000000000054 $d
/var/folders/9s/8rp0_f2s1n31qbztm3b5_fdh0000gn/T//cc1V9ehO.s:1291   .text._Z8Bootloadv:0000000000000000 $t
/var/folders/9s/8rp0_f2s1n31qbztm3b5_fdh0000gn/T//cc1V9ehO.s:1297   .text._Z8Bootloadv:0000000000000000 _Z8Bootloadv
/var/folders/9s/8rp0_f2s1n31qbztm3b5_fdh0000gn/T//cc1V9ehO.s:1416   .text._Z8Bootloadv:0000000000000074 $d
/var/folders/9s/8rp0_f2s1n31qbztm3b5_fdh0000gn/T//cc1V9ehO.s:1425   .text._Z9UpdateLEDv:0000000000000000 $t
/var/folders/9s/8rp0_f2s1n31qbztm3b5_fdh0000gn/T//cc1V9ehO.s:1431   .text._Z9UpdateLEDv:0000000000000000 _Z9UpdateLEDv
/var/folders/9s/8rp0_f2s1n31qbztm3b5_fdh0000gn/T//cc1V9ehO.s:1499   .text._Z9UpdateLEDv:0000000000000038 $d
/var/folders/9s/8rp0_f2s1n31qbztm3b5_fdh0000gn/T//cc1V9ehO.s:1505   .text._ZN10infrasonic13BiquadCascadeILj1ELNS_13BiquadSection10FilterTypeE2EE18updateCoefficientsEv:0000000000000000 $t
/var/folders/9s/8rp0_f2s1n31qbztm3b5_fdh0000gn/T//cc1V9ehO.s:1511   .text._ZN10infrasonic13BiquadCascadeILj1ELNS_13BiquadSection10FilterTypeE2EE18updateCoefficientsEv:0000000000000000 _ZN10infrasonic13BiquadCascadeILj1ELNS_13BiquadSection10FilterTypeE2EE18updateCoefficientsEv
/var/folders/9s/8rp0_f2s1n31qbztm3b5_fdh0000gn/T//cc1V9ehO.s:1589   .text._Z15InitializeDelayv:0000000000000000 $t
/var/folders/9s/8rp0_f2s1n31qbztm3b5_fdh0000gn/T//cc1V9ehO.s:1595   .text._Z15InitializeDelayv:0000000000000000 _Z15InitializeDelayv
/var/folders/9s/8rp0_f2s1n31qbztm3b5_fdh0000gn/T//cc1V9ehO.s:1994   .text._Z15InitializeDelayv:00000000000000b4 $d
/var/folders/9s/8rp0_f2s1n31qbztm3b5_fdh0000gn/T//cc1V9ehO.s:3032   .bss.delay:0000000000000000 delay
/var/folders/9s/8rp0_f2s1n31qbztm3b5_fdh0000gn/T//cc1V9ehO.s:2021   .text._Z15InitializeSynthv:0000000000000000 $t
/var/folders/9s/8rp0_f2s1n31qbztm3b5_fdh0000gn/T//cc1V9ehO.s:2027   .text._Z15InitializeSynthv:0000000000000000 _Z15InitializeSynthv
/var/folders/9s/8rp0_f2s1n31qbztm3b5_fdh0000gn/T//cc1V9ehO.s:2392   .text._Z15InitializeSynthv:000000000000010c $d
/var/folders/9s/8rp0_f2s1n31qbztm3b5_fdh0000gn/T//cc1V9ehO.s:2414   .text.startup._GLOBAL__sub_I_hw:0000000000000000 $t
ARM GAS  /var/folders/9s/8rp0_f2s1n31qbztm3b5_fdh0000gn/T//cc1V9ehO.s 			page 126


/var/folders/9s/8rp0_f2s1n31qbztm3b5_fdh0000gn/T//cc1V9ehO.s:2419   .text.startup._GLOBAL__sub_I_hw:0000000000000000 _GLOBAL__sub_I_hw
/var/folders/9s/8rp0_f2s1n31qbztm3b5_fdh0000gn/T//cc1V9ehO.s:2888   .text.startup._GLOBAL__sub_I_hw:00000000000000fc $d
/var/folders/9s/8rp0_f2s1n31qbztm3b5_fdh0000gn/T//cc1V9ehO.s:2921   .init_array:0000000000000000 $d
/var/folders/9s/8rp0_f2s1n31qbztm3b5_fdh0000gn/T//cc1V9ehO.s:3026   .bss.button_was_pressed:0000000000000000 button_was_pressed
/var/folders/9s/8rp0_f2s1n31qbztm3b5_fdh0000gn/T//cc1V9ehO.s:3021   .bss.button_held_start_time:0000000000000000 button_held_start_time
/var/folders/9s/8rp0_f2s1n31qbztm3b5_fdh0000gn/T//cc1V9ehO.s:3160   .rodata.BOOTLOADER_HOLD_TIME_MS:0000000000000000 BOOTLOADER_HOLD_TIME_MS
/var/folders/9s/8rp0_f2s1n31qbztm3b5_fdh0000gn/T//cc1V9ehO.s:3115   .bss.smoothed_output_level:0000000000000000 smoothed_output_level
/var/folders/9s/8rp0_f2s1n31qbztm3b5_fdh0000gn/T//cc1V9ehO.s:3141   .bss.update_display:0000000000000000 update_display
/var/folders/9s/8rp0_f2s1n31qbztm3b5_fdh0000gn/T//cc1V9ehO.s:3008   .bss.avg_elapsed_us:0000000000000000 avg_elapsed_us
/var/folders/9s/8rp0_f2s1n31qbztm3b5_fdh0000gn/T//cc1V9ehO.s:3148   .data.sample_rate:0000000000000000 sample_rate
/var/folders/9s/8rp0_f2s1n31qbztm3b5_fdh0000gn/T//cc1V9ehO.s:3081   .bss.mod_wheel:0000000000000000 mod_wheel
/var/folders/9s/8rp0_f2s1n31qbztm3b5_fdh0000gn/T//cc1V9ehO.s:3088   .bss.model_next_pad:0000000000000000 model_next_pad
/var/folders/9s/8rp0_f2s1n31qbztm3b5_fdh0000gn/T//cc1V9ehO.s:3095   .bss.model_prev_pad:0000000000000000 model_prev_pad
/var/folders/9s/8rp0_f2s1n31qbztm3b5_fdh0000gn/T//cc1V9ehO.s:3002   .bss.arp_pad:0000000000000000 arp_pad
/var/folders/9s/8rp0_f2s1n31qbztm3b5_fdh0000gn/T//cc1V9ehO.s:3109   .bss.pitch_knob:0000000000000000 pitch_knob
/var/folders/9s/8rp0_f2s1n31qbztm3b5_fdh0000gn/T//cc1V9ehO.s:3102   .bss.morph_knob:0000000000000000 morph_knob
/var/folders/9s/8rp0_f2s1n31qbztm3b5_fdh0000gn/T//cc1V9ehO.s:3067   .bss.harmonics_knob:0000000000000000 harmonics_knob
/var/folders/9s/8rp0_f2s1n31qbztm3b5_fdh0000gn/T//cc1V9ehO.s:3122   .bss.timbre_knob:0000000000000000 timbre_knob
/var/folders/9s/8rp0_f2s1n31qbztm3b5_fdh0000gn/T//cc1V9ehO.s:3053   .bss.env_attack_knob:0000000000000000 env_attack_knob
/var/folders/9s/8rp0_f2s1n31qbztm3b5_fdh0000gn/T//cc1V9ehO.s:3060   .bss.env_release_knob:0000000000000000 env_release_knob
/var/folders/9s/8rp0_f2s1n31qbztm3b5_fdh0000gn/T//cc1V9ehO.s:3039   .bss.delay_mix_feedback_knob:0000000000000000 delay_mix_feedback_knob
/var/folders/9s/8rp0_f2s1n31qbztm3b5_fdh0000gn/T//cc1V9ehO.s:3046   .bss.delay_time_knob:0000000000000000 delay_time_knob
/var/folders/9s/8rp0_f2s1n31qbztm3b5_fdh0000gn/T//cc1V9ehO.s:3015   .bss.button:0000000000000000 button
/var/folders/9s/8rp0_f2s1n31qbztm3b5_fdh0000gn/T//cc1V9ehO.s:3154   .rodata.ARP_LED_DURATION_MS:0000000000000000 ARP_LED_DURATION_MS
/var/folders/9s/8rp0_f2s1n31qbztm3b5_fdh0000gn/T//cc1V9ehO.s:2995   .bss.arp_led_timestamps:0000000000000000 arp_led_timestamps
/var/folders/9s/8rp0_f2s1n31qbztm3b5_fdh0000gn/T//cc1V9ehO.s:3129   .bss.touch_leds:0000000000000000 touch_leds
/var/folders/9s/8rp0_f2s1n31qbztm3b5_fdh0000gn/T//cc1V9ehO.s:2988   .bss.arp:0000000000000000 arp
/var/folders/9s/8rp0_f2s1n31qbztm3b5_fdh0000gn/T//cc1V9ehO.s:3136   .bss.touch_sensor:0000000000000000 touch_sensor
/var/folders/9s/8rp0_f2s1n31qbztm3b5_fdh0000gn/T//cc1V9ehO.s:3074   .bss.hw:0000000000000000 hw
/var/folders/9s/8rp0_f2s1n31qbztm3b5_fdh0000gn/T//cc1V9ehO.s:2984   .bss.arp:0000000000000000 $d
/var/folders/9s/8rp0_f2s1n31qbztm3b5_fdh0000gn/T//cc1V9ehO.s:2991   .bss.arp_led_timestamps:0000000000000000 $d
/var/folders/9s/8rp0_f2s1n31qbztm3b5_fdh0000gn/T//cc1V9ehO.s:2998   .bss.arp_pad:0000000000000000 $d
/var/folders/9s/8rp0_f2s1n31qbztm3b5_fdh0000gn/T//cc1V9ehO.s:3005   .bss.avg_elapsed_us:0000000000000000 $d
/var/folders/9s/8rp0_f2s1n31qbztm3b5_fdh0000gn/T//cc1V9ehO.s:3011   .bss.button:0000000000000000 $d
/var/folders/9s/8rp0_f2s1n31qbztm3b5_fdh0000gn/T//cc1V9ehO.s:3018   .bss.button_held_start_time:0000000000000000 $d
/var/folders/9s/8rp0_f2s1n31qbztm3b5_fdh0000gn/T//cc1V9ehO.s:3027   .bss.button_was_pressed:0000000000000000 $d
/var/folders/9s/8rp0_f2s1n31qbztm3b5_fdh0000gn/T//cc1V9ehO.s:3029   .bss.delay:0000000000000000 $d
/var/folders/9s/8rp0_f2s1n31qbztm3b5_fdh0000gn/T//cc1V9ehO.s:3035   .bss.delay_mix_feedback_knob:0000000000000000 $d
/var/folders/9s/8rp0_f2s1n31qbztm3b5_fdh0000gn/T//cc1V9ehO.s:3042   .bss.delay_time_knob:0000000000000000 $d
/var/folders/9s/8rp0_f2s1n31qbztm3b5_fdh0000gn/T//cc1V9ehO.s:3049   .bss.env_attack_knob:0000000000000000 $d
/var/folders/9s/8rp0_f2s1n31qbztm3b5_fdh0000gn/T//cc1V9ehO.s:3056   .bss.env_release_knob:0000000000000000 $d
/var/folders/9s/8rp0_f2s1n31qbztm3b5_fdh0000gn/T//cc1V9ehO.s:3063   .bss.harmonics_knob:0000000000000000 $d
/var/folders/9s/8rp0_f2s1n31qbztm3b5_fdh0000gn/T//cc1V9ehO.s:3070   .bss.hw:0000000000000000 $d
/var/folders/9s/8rp0_f2s1n31qbztm3b5_fdh0000gn/T//cc1V9ehO.s:3077   .bss.mod_wheel:0000000000000000 $d
/var/folders/9s/8rp0_f2s1n31qbztm3b5_fdh0000gn/T//cc1V9ehO.s:3084   .bss.model_next_pad:0000000000000000 $d
/var/folders/9s/8rp0_f2s1n31qbztm3b5_fdh0000gn/T//cc1V9ehO.s:3091   .bss.model_prev_pad:0000000000000000 $d
/var/folders/9s/8rp0_f2s1n31qbztm3b5_fdh0000gn/T//cc1V9ehO.s:3098   .bss.morph_knob:0000000000000000 $d
/var/folders/9s/8rp0_f2s1n31qbztm3b5_fdh0000gn/T//cc1V9ehO.s:3105   .bss.pitch_knob:0000000000000000 $d
/var/folders/9s/8rp0_f2s1n31qbztm3b5_fdh0000gn/T//cc1V9ehO.s:3112   .bss.smoothed_output_level:0000000000000000 $d
/var/folders/9s/8rp0_f2s1n31qbztm3b5_fdh0000gn/T//cc1V9ehO.s:3118   .bss.timbre_knob:0000000000000000 $d
/var/folders/9s/8rp0_f2s1n31qbztm3b5_fdh0000gn/T//cc1V9ehO.s:3125   .bss.touch_leds:0000000000000000 $d
/var/folders/9s/8rp0_f2s1n31qbztm3b5_fdh0000gn/T//cc1V9ehO.s:3132   .bss.touch_sensor:0000000000000000 $d
/var/folders/9s/8rp0_f2s1n31qbztm3b5_fdh0000gn/T//cc1V9ehO.s:3142   .bss.update_display:0000000000000000 $d
/var/folders/9s/8rp0_f2s1n31qbztm3b5_fdh0000gn/T//cc1V9ehO.s:3144   .data.sample_rate:0000000000000000 $d
/var/folders/9s/8rp0_f2s1n31qbztm3b5_fdh0000gn/T//cc1V9ehO.s:3151   .rodata.ARP_LED_DURATION_MS:0000000000000000 $d
/var/folders/9s/8rp0_f2s1n31qbztm3b5_fdh0000gn/T//cc1V9ehO.s:3157   .rodata.BOOTLOADER_HOLD_TIME_MS:0000000000000000 $d
/var/folders/9s/8rp0_f2s1n31qbztm3b5_fdh0000gn/T//cc1V9ehO.s:3163   .rodata._ZTIZ15InitializeSynthvEUliE_:0000000000000000 $d
ARM GAS  /var/folders/9s/8rp0_f2s1n31qbztm3b5_fdh0000gn/T//cc1V9ehO.s 			page 127


/var/folders/9s/8rp0_f2s1n31qbztm3b5_fdh0000gn/T//cc1V9ehO.s:3167   .rodata._ZTIZ15InitializeSynthvEUliE_:0000000000000000 _ZTIZ15InitializeSynthvEUliE_
/var/folders/9s/8rp0_f2s1n31qbztm3b5_fdh0000gn/T//cc1V9ehO.s:3173   .rodata._ZTSZ15InitializeSynthvEUliE_:0000000000000000 _ZTSZ15InitializeSynthvEUliE_
                           .group:0000000000000000 _ZN5daisy6SwitchD5Ev
                           .group:0000000000000000 _ZN5daisy13AnalogControlD5Ev
                           .group:0000000000000000 _ZN5daisy9DaisySeedD5Ev
                           .group:0000000000000000 _ZN6Mpr121D5Ev
                           .group:0000000000000000 _ZN10infrasonic9EchoDelayILj48000EED5Ev
                           .group:0000000000000000 _ZNSt14_Function_baseD5Ev
                           .group:0000000000000000 _ZN11ArpeggiatorD5Ev

UNDEFINED SYMBOLS
_ZN5daisy6System6GetNowEv
voice_envelopes
kTouchMidiNotes
voice_note
voice_active
current_engine_index
modulations
_ZN5daisy9DaisySeed9ConfigureEv
_ZN5daisy9DaisySeed4InitEb
_ZN5daisy9DaisySeed17SetAudioBlockSizeEj
_ZN5daisy9DaisySeed15AudioSampleRateEv
_ZN5daisy9DaisySeed18SetAudioSampleRateENS_9SaiHandle6Config10SampleRateE
_ZN5daisy9DaisySeed6GetPinEh
_ZN5daisy16AdcChannelConfig10InitSingleE12dsy_gpio_pin
_ZN5daisy9AdcHandle4InitEPNS_16AdcChannelConfigEjNS0_12OverSamplingE
_ZN5daisy9AdcHandle5StartEv
_ZNK5daisy9AdcHandle6GetPtrEh
_ZN5daisy13AnalogControl4InitEPtfbbf
_ZN5daisy6Switch4InitE12dsy_gpio_pinf
_ZN6Mpr1214InitERKNS_6ConfigE
_ZN5daisy9DaisySeed6SetLedEb
_ZN5daisy6System5DelayEm
_ZN6Mpr12113SetThresholdsEhh
_ZN5daisy4GPIO4InitERKNS0_6ConfigE
_ZN5daisy4GPIO5WriteEb
_ZN5daisy6LoggerILNS_17LoggerDestinationE1EE9PrintLineEPKcz
_ZN5daisy6System17ResetToBootloaderEv
_ZN10infrasonic13BiquadSection21CalculateCoefficientsENS0_10FilterTypeEfff
memset
_Z16InitializeVoicesv
_ZN5daisy6System11GetTickFreqEv
_ZN11Arpeggiator4InitEf
_ZN11Arpeggiator12SetMainTempoEf
_ZN11Arpeggiator22SetNoteTriggerCallbackESt8functionIFviEE
_ZN5daisy6LoggerILNS_17LoggerDestinationE1EE8StartLogEb
_ZN5daisy9DaisySeed10StartAudioEPFvPKfPfjE
sprintf
cpu_meter
_Z13AudioCallbackPKfPfj
MAX_ENGINE_INDEX
__aeabi_atexit
_ZN11ArpeggiatorC1Ev
__dso_handle
_ZTVN10__cxxabiv117__class_type_infoE
