ARM GAS  /var/folders/9s/8rp0_f2s1n31qbztm3b5_fdh0000gn/T//ccCzuEKD.s 			page 1


   1              		.cpu cortex-m7
   2              		.arch armv7e-m
   3              		.fpu fpv5-d16
   4              		.eabi_attribute 28, 1
   5              		.eabi_attribute 20, 1
   6              		.eabi_attribute 21, 1
   7              		.eabi_attribute 23, 3
   8              		.eabi_attribute 24, 1
   9              		.eabi_attribute 25, 1
  10              		.eabi_attribute 26, 1
  11              		.eabi_attribute 30, 4
  12              		.eabi_attribute 34, 1
  13              		.eabi_attribute 18, 4
  14              		.file	"Interface.cpp"
  15              		.text
  16              	.Ltext0:
  17              		.cfi_sections	.debug_frame
  18              		.section	.text._ZN5daisy6SwitchD2Ev,"axG",%progbits,_ZN5daisy6SwitchD5Ev,comdat
  19              		.align	1
  20              		.weak	_ZN5daisy6SwitchD2Ev
  21              		.syntax unified
  22              		.thumb
  23              		.thumb_func
  25              	_ZN5daisy6SwitchD2Ev:
  26              	.LVL0:
  27              	.LFB1567:
  28              		.file 1 "lib/libdaisy/src/hid/switch.h"
   1:lib/libdaisy/src/hid/switch.h **** #pragma once
   2:lib/libdaisy/src/hid/switch.h **** #ifndef DSY_SWITCH_H
   3:lib/libdaisy/src/hid/switch.h **** #define DSY_SWITCH_H
   4:lib/libdaisy/src/hid/switch.h **** #include "daisy_core.h"
   5:lib/libdaisy/src/hid/switch.h **** #include "per/gpio.h"
   6:lib/libdaisy/src/hid/switch.h **** #include "sys/system.h"
   7:lib/libdaisy/src/hid/switch.h **** 
   8:lib/libdaisy/src/hid/switch.h **** namespace daisy
   9:lib/libdaisy/src/hid/switch.h **** {
  10:lib/libdaisy/src/hid/switch.h **** /** 
  11:lib/libdaisy/src/hid/switch.h ****     Generic Class for handling momentary/latching switches \n 
  12:lib/libdaisy/src/hid/switch.h ****     Inspired/influenced by Mutable Instruments (pichenettes) Switch classes
  13:lib/libdaisy/src/hid/switch.h ****     @author Stephen Hensley
  14:lib/libdaisy/src/hid/switch.h ****     @date December 2019
  15:lib/libdaisy/src/hid/switch.h ****     @ingroup controls
  16:lib/libdaisy/src/hid/switch.h **** */
  17:lib/libdaisy/src/hid/switch.h **** class Switch
  18:lib/libdaisy/src/hid/switch.h **** {
  19:lib/libdaisy/src/hid/switch.h ****   public:
  20:lib/libdaisy/src/hid/switch.h ****     /** Specifies the expected behavior of the switch */
  21:lib/libdaisy/src/hid/switch.h ****     enum Type
  22:lib/libdaisy/src/hid/switch.h ****     {
  23:lib/libdaisy/src/hid/switch.h ****         TYPE_TOGGLE,    /**< & */
  24:lib/libdaisy/src/hid/switch.h ****         TYPE_MOMENTARY, /**< & */
  25:lib/libdaisy/src/hid/switch.h ****     };
  26:lib/libdaisy/src/hid/switch.h ****     /** Specifies whether the pressed is HIGH or LOW. */
  27:lib/libdaisy/src/hid/switch.h ****     enum Polarity
  28:lib/libdaisy/src/hid/switch.h ****     {
  29:lib/libdaisy/src/hid/switch.h ****         POLARITY_NORMAL,   /**< & */
  30:lib/libdaisy/src/hid/switch.h ****         POLARITY_INVERTED, /**< & */
ARM GAS  /var/folders/9s/8rp0_f2s1n31qbztm3b5_fdh0000gn/T//ccCzuEKD.s 			page 2


  31:lib/libdaisy/src/hid/switch.h ****     };
  32:lib/libdaisy/src/hid/switch.h **** 
  33:lib/libdaisy/src/hid/switch.h ****     /** Specifies whether to use built-in Pull Up/Down resistors to hold button at a given state wh
  34:lib/libdaisy/src/hid/switch.h ****     enum Pull
  35:lib/libdaisy/src/hid/switch.h ****     {
  36:lib/libdaisy/src/hid/switch.h ****         PULL_UP,   /**< & */
  37:lib/libdaisy/src/hid/switch.h ****         PULL_DOWN, /**< & */
  38:lib/libdaisy/src/hid/switch.h ****         PULL_NONE, /**< & */
  39:lib/libdaisy/src/hid/switch.h ****     };
  40:lib/libdaisy/src/hid/switch.h **** 
  41:lib/libdaisy/src/hid/switch.h ****     Switch() {}
  42:lib/libdaisy/src/hid/switch.h ****     ~Switch() {}
  29              		.loc 1 42 5 view -0
  30              		.cfi_startproc
  31              		@ args = 0, pretend = 0, frame = 0
  32              		@ frame_needed = 0, uses_anonymous_args = 0
  33              		@ link register save eliminated.
  34              		.loc 1 42 16 is_stmt 0 view .LVU1
  35 0000 7047     		bx	lr
  36              		.cfi_endproc
  37              	.LFE1567:
  39              		.weak	_ZN5daisy6SwitchD1Ev
  40              		.thumb_set _ZN5daisy6SwitchD1Ev,_ZN5daisy6SwitchD2Ev
  41              		.section	.text._ZN5daisy13AnalogControlD2Ev,"axG",%progbits,_ZN5daisy13AnalogControlD5Ev,comdat
  42              		.align	1
  43              		.weak	_ZN5daisy13AnalogControlD2Ev
  44              		.syntax unified
  45              		.thumb
  46              		.thumb_func
  48              	_ZN5daisy13AnalogControlD2Ev:
  49              	.LVL1:
  50              	.LFB1599:
  51              		.file 2 "lib/libdaisy/src/hid/ctrl.h"
   1:lib/libdaisy/src/hid/ctrl.h **** #pragma once
   2:lib/libdaisy/src/hid/ctrl.h **** #ifndef DSY_KNOB_H
   3:lib/libdaisy/src/hid/ctrl.h **** #define DSY_KNOB_H /**< & */
   4:lib/libdaisy/src/hid/ctrl.h **** #include <stdint.h>
   5:lib/libdaisy/src/hid/ctrl.h **** 
   6:lib/libdaisy/src/hid/ctrl.h **** #ifdef __cplusplus
   7:lib/libdaisy/src/hid/ctrl.h **** namespace daisy
   8:lib/libdaisy/src/hid/ctrl.h **** {
   9:lib/libdaisy/src/hid/ctrl.h **** /**
  10:lib/libdaisy/src/hid/ctrl.h ****     @brief Hardware Interface for control inputs \n 
  11:lib/libdaisy/src/hid/ctrl.h ****     Primarily designed for ADC input controls such as \n 
  12:lib/libdaisy/src/hid/ctrl.h ****     potentiometers, and control voltage. \n 
  13:lib/libdaisy/src/hid/ctrl.h ****     @author Stephen Hensley
  14:lib/libdaisy/src/hid/ctrl.h ****     @date November 2019
  15:lib/libdaisy/src/hid/ctrl.h ****     @ingroup controls
  16:lib/libdaisy/src/hid/ctrl.h **** */
  17:lib/libdaisy/src/hid/ctrl.h **** class AnalogControl
  18:lib/libdaisy/src/hid/ctrl.h **** {
  19:lib/libdaisy/src/hid/ctrl.h ****   public:
  20:lib/libdaisy/src/hid/ctrl.h ****     /** Constructor */
  21:lib/libdaisy/src/hid/ctrl.h ****     AnalogControl() {}
  22:lib/libdaisy/src/hid/ctrl.h ****     /** destructor */
  23:lib/libdaisy/src/hid/ctrl.h ****     ~AnalogControl() {}
  52              		.loc 2 23 5 is_stmt 1 view -0
ARM GAS  /var/folders/9s/8rp0_f2s1n31qbztm3b5_fdh0000gn/T//ccCzuEKD.s 			page 3


  53              		.cfi_startproc
  54              		@ args = 0, pretend = 0, frame = 0
  55              		@ frame_needed = 0, uses_anonymous_args = 0
  56              		@ link register save eliminated.
  57              		.loc 2 23 23 is_stmt 0 view .LVU3
  58 0000 7047     		bx	lr
  59              		.cfi_endproc
  60              	.LFE1599:
  62              		.weak	_ZN5daisy13AnalogControlD1Ev
  63              		.thumb_set _ZN5daisy13AnalogControlD1Ev,_ZN5daisy13AnalogControlD2Ev
  64              		.section	.text._ZN5daisy9DaisySeedD2Ev,"axG",%progbits,_ZN5daisy9DaisySeedD5Ev,comdat
  65              		.align	1
  66              		.weak	_ZN5daisy9DaisySeedD2Ev
  67              		.syntax unified
  68              		.thumb
  69              		.thumb_func
  71              	_ZN5daisy9DaisySeedD2Ev:
  72              	.LVL2:
  73              	.LFB2146:
  74              		.file 3 "lib/libdaisy/src/daisy_seed.h"
   1:lib/libdaisy/src/daisy_seed.h **** #pragma once
   2:lib/libdaisy/src/daisy_seed.h **** #ifndef DSY_SEED_H
   3:lib/libdaisy/src/daisy_seed.h **** #define DSY_SEED_H
   4:lib/libdaisy/src/daisy_seed.h **** 
   5:lib/libdaisy/src/daisy_seed.h **** #include "daisy.h"
   6:lib/libdaisy/src/daisy_seed.h **** 
   7:lib/libdaisy/src/daisy_seed.h **** //Uncomment this out if you're still using the rev2 hardware
   8:lib/libdaisy/src/daisy_seed.h **** //#define SEED_REV2
   9:lib/libdaisy/src/daisy_seed.h **** 
  10:lib/libdaisy/src/daisy_seed.h **** namespace daisy
  11:lib/libdaisy/src/daisy_seed.h **** {
  12:lib/libdaisy/src/daisy_seed.h **** /**
  13:lib/libdaisy/src/daisy_seed.h ****    @brief This is the higher-level interface for the Daisy board. \n 
  14:lib/libdaisy/src/daisy_seed.h ****     All basic peripheral configuration/initialization is setup here. \n
  15:lib/libdaisy/src/daisy_seed.h **** 
  16:lib/libdaisy/src/daisy_seed.h ****    @ingroup boards
  17:lib/libdaisy/src/daisy_seed.h **** */
  18:lib/libdaisy/src/daisy_seed.h **** class DaisySeed
  19:lib/libdaisy/src/daisy_seed.h **** {
  20:lib/libdaisy/src/daisy_seed.h ****   public:
  21:lib/libdaisy/src/daisy_seed.h ****     DaisySeed() {}
  22:lib/libdaisy/src/daisy_seed.h ****     ~DaisySeed() {}
  75              		.loc 3 22 5 is_stmt 1 view -0
  76              		.cfi_startproc
  77              		@ args = 0, pretend = 0, frame = 0
  78              		@ frame_needed = 0, uses_anonymous_args = 0
  79              		@ link register save eliminated.
  80              	.LBB225:
  81              	.LBI225:
  82              		.file 4 "lib/libdaisy/src/sys/system.h"
   1:lib/libdaisy/src/sys/system.h **** #ifndef DSY_SYSTEM_H
   2:lib/libdaisy/src/sys/system.h **** #define DSY_SYSTEM_H
   3:lib/libdaisy/src/sys/system.h **** 
   4:lib/libdaisy/src/sys/system.h **** #ifndef UNIT_TEST // for unit tests, a dummy implementation is provided below
   5:lib/libdaisy/src/sys/system.h **** 
   6:lib/libdaisy/src/sys/system.h **** #include <cstdint>
   7:lib/libdaisy/src/sys/system.h **** #include "per/tim.h"
ARM GAS  /var/folders/9s/8rp0_f2s1n31qbztm3b5_fdh0000gn/T//ccCzuEKD.s 			page 4


   8:lib/libdaisy/src/sys/system.h **** 
   9:lib/libdaisy/src/sys/system.h **** namespace daisy
  10:lib/libdaisy/src/sys/system.h **** {
  11:lib/libdaisy/src/sys/system.h **** /** A handle for interacting with the Core System. 
  12:lib/libdaisy/src/sys/system.h ****  ** This includes the Clock tree, MPU, global DMA initialization,
  13:lib/libdaisy/src/sys/system.h ****  ** cache handling, and any other necessary global initiailzation
  14:lib/libdaisy/src/sys/system.h ****  **
  15:lib/libdaisy/src/sys/system.h ****  ** @author shensley
  16:lib/libdaisy/src/sys/system.h ****  ** @addtogroup system
  17:lib/libdaisy/src/sys/system.h ****  */
  18:lib/libdaisy/src/sys/system.h **** class System
  19:lib/libdaisy/src/sys/system.h **** {
  20:lib/libdaisy/src/sys/system.h ****   public:
  21:lib/libdaisy/src/sys/system.h ****     /** Contains settings for initializing the System */
  22:lib/libdaisy/src/sys/system.h ****     struct Config
  23:lib/libdaisy/src/sys/system.h ****     {
  24:lib/libdaisy/src/sys/system.h ****         /** Specifies the system clock frequency that feeds APB/AHB clocks, etc. */
  25:lib/libdaisy/src/sys/system.h ****         enum class SysClkFreq
  26:lib/libdaisy/src/sys/system.h ****         {
  27:lib/libdaisy/src/sys/system.h ****             FREQ_400MHZ,
  28:lib/libdaisy/src/sys/system.h ****             FREQ_480MHZ,
  29:lib/libdaisy/src/sys/system.h ****         };
  30:lib/libdaisy/src/sys/system.h **** 
  31:lib/libdaisy/src/sys/system.h ****         /** Method to call on the struct to set to defaults
  32:lib/libdaisy/src/sys/system.h ****          ** CPU Freq set to 400MHz
  33:lib/libdaisy/src/sys/system.h ****          ** Cache Enabled 
  34:lib/libdaisy/src/sys/system.h ****          ** */
  35:lib/libdaisy/src/sys/system.h ****         void Defaults()
  36:lib/libdaisy/src/sys/system.h ****         {
  37:lib/libdaisy/src/sys/system.h ****             cpu_freq    = SysClkFreq::FREQ_400MHZ;
  38:lib/libdaisy/src/sys/system.h ****             use_dcache  = true;
  39:lib/libdaisy/src/sys/system.h ****             use_icache  = true;
  40:lib/libdaisy/src/sys/system.h ****             skip_clocks = false;
  41:lib/libdaisy/src/sys/system.h ****         }
  42:lib/libdaisy/src/sys/system.h **** 
  43:lib/libdaisy/src/sys/system.h ****         /** Method to call on the struct to set to boost mode:
  44:lib/libdaisy/src/sys/system.h ****          ** CPU Freq set to 480MHz
  45:lib/libdaisy/src/sys/system.h ****          ** Cache Enabled 
  46:lib/libdaisy/src/sys/system.h ****          ** */
  47:lib/libdaisy/src/sys/system.h ****         void Boost()
  48:lib/libdaisy/src/sys/system.h ****         {
  49:lib/libdaisy/src/sys/system.h ****             cpu_freq    = SysClkFreq::FREQ_480MHZ;
  50:lib/libdaisy/src/sys/system.h ****             use_dcache  = true;
  51:lib/libdaisy/src/sys/system.h ****             use_icache  = true;
  52:lib/libdaisy/src/sys/system.h ****             skip_clocks = false;
  53:lib/libdaisy/src/sys/system.h ****         }
  54:lib/libdaisy/src/sys/system.h **** 
  55:lib/libdaisy/src/sys/system.h ****         SysClkFreq cpu_freq;
  56:lib/libdaisy/src/sys/system.h ****         bool       use_dcache;
  57:lib/libdaisy/src/sys/system.h ****         bool       use_icache;
  58:lib/libdaisy/src/sys/system.h ****         bool       skip_clocks;
  59:lib/libdaisy/src/sys/system.h ****     };
  60:lib/libdaisy/src/sys/system.h **** 
  61:lib/libdaisy/src/sys/system.h ****     /** Describes the different regions of memory available to the Daisy
  62:lib/libdaisy/src/sys/system.h ****      * 
  63:lib/libdaisy/src/sys/system.h ****      */
  64:lib/libdaisy/src/sys/system.h ****     enum MemoryRegion
ARM GAS  /var/folders/9s/8rp0_f2s1n31qbztm3b5_fdh0000gn/T//ccCzuEKD.s 			page 5


  65:lib/libdaisy/src/sys/system.h ****     {
  66:lib/libdaisy/src/sys/system.h ****         INTERNAL_FLASH = 0,
  67:lib/libdaisy/src/sys/system.h ****         ITCMRAM,
  68:lib/libdaisy/src/sys/system.h ****         DTCMRAM,
  69:lib/libdaisy/src/sys/system.h ****         SRAM_D1,
  70:lib/libdaisy/src/sys/system.h ****         SRAM_D2,
  71:lib/libdaisy/src/sys/system.h ****         SRAM_D3,
  72:lib/libdaisy/src/sys/system.h ****         SDRAM,
  73:lib/libdaisy/src/sys/system.h ****         QSPI,
  74:lib/libdaisy/src/sys/system.h ****         INVALID_ADDRESS,
  75:lib/libdaisy/src/sys/system.h ****     };
  76:lib/libdaisy/src/sys/system.h **** 
  77:lib/libdaisy/src/sys/system.h ****     System() {}
  78:lib/libdaisy/src/sys/system.h ****     ~System() {}
  83              		.loc 4 78 5 view .LVU5
  84              		.loc 4 78 5 is_stmt 0 view .LVU6
  85              	.LBE225:
  86              	.LBB226:
  87              	.LBI226:
  88              		.file 5 "lib/libdaisy/src/hid/usb.h"
   1:lib/libdaisy/src/hid/usb.h **** #pragma once
   2:lib/libdaisy/src/hid/usb.h **** #ifndef DSY_HID_USB_H
   3:lib/libdaisy/src/hid/usb.h **** #define DSY_HID_USB_H
   4:lib/libdaisy/src/hid/usb.h **** #include <stdint.h>
   5:lib/libdaisy/src/hid/usb.h **** #include <stdlib.h>
   6:lib/libdaisy/src/hid/usb.h **** 
   7:lib/libdaisy/src/hid/usb.h **** namespace daisy
   8:lib/libdaisy/src/hid/usb.h **** /** @addtogroup externals
   9:lib/libdaisy/src/hid/usb.h ****     @{
  10:lib/libdaisy/src/hid/usb.h **** */
  11:lib/libdaisy/src/hid/usb.h **** 
  12:lib/libdaisy/src/hid/usb.h **** {
  13:lib/libdaisy/src/hid/usb.h **** /** 
  14:lib/libdaisy/src/hid/usb.h ****     @brief Interface for initializing and using the USB Peripherals on the daisy
  15:lib/libdaisy/src/hid/usb.h ****     @author Stephen Hensley
  16:lib/libdaisy/src/hid/usb.h ****     @date December 2019
  17:lib/libdaisy/src/hid/usb.h **** */
  18:lib/libdaisy/src/hid/usb.h **** class UsbHandle
  19:lib/libdaisy/src/hid/usb.h **** {
  20:lib/libdaisy/src/hid/usb.h ****   public:
  21:lib/libdaisy/src/hid/usb.h ****     /** Return values for USBHandle Functions */
  22:lib/libdaisy/src/hid/usb.h ****     enum class Result
  23:lib/libdaisy/src/hid/usb.h ****     {
  24:lib/libdaisy/src/hid/usb.h ****         OK,
  25:lib/libdaisy/src/hid/usb.h ****         ERR,
  26:lib/libdaisy/src/hid/usb.h ****     };
  27:lib/libdaisy/src/hid/usb.h **** 
  28:lib/libdaisy/src/hid/usb.h ****     /** Specified which of the two USB Peripherals to initialize. */
  29:lib/libdaisy/src/hid/usb.h ****     enum UsbPeriph
  30:lib/libdaisy/src/hid/usb.h ****     {
  31:lib/libdaisy/src/hid/usb.h ****         FS_INTERNAL, /**< Internal pin */
  32:lib/libdaisy/src/hid/usb.h ****         FS_EXTERNAL, /**< FS External D+ pin is Pin 38 (GPIO32). FS External D- pin is Pin 37 (GPIO
  33:lib/libdaisy/src/hid/usb.h ****         FS_BOTH,     /**< Both */
  34:lib/libdaisy/src/hid/usb.h ****     };
  35:lib/libdaisy/src/hid/usb.h **** 
  36:lib/libdaisy/src/hid/usb.h **** 
  37:lib/libdaisy/src/hid/usb.h ****     /** Function called upon reception of a buffer */
ARM GAS  /var/folders/9s/8rp0_f2s1n31qbztm3b5_fdh0000gn/T//ccCzuEKD.s 			page 6


  38:lib/libdaisy/src/hid/usb.h ****     typedef void (*ReceiveCallback)(uint8_t* buff, uint32_t* len);
  39:lib/libdaisy/src/hid/usb.h **** 
  40:lib/libdaisy/src/hid/usb.h ****     UsbHandle() {}
  41:lib/libdaisy/src/hid/usb.h **** 
  42:lib/libdaisy/src/hid/usb.h ****     ~UsbHandle() {}
  89              		.loc 5 42 5 is_stmt 1 view .LVU7
  90              		.loc 5 42 5 is_stmt 0 view .LVU8
  91              	.LBE226:
  92              	.LBB227:
  93              	.LBI227:
  94              		.file 6 "lib/libdaisy/src/per/adc.h"
   1:lib/libdaisy/src/per/adc.h **** #pragma once
   2:lib/libdaisy/src/per/adc.h **** #ifndef DSY_ADC_H
   3:lib/libdaisy/src/per/adc.h **** #define DSY_ADC_H /**< Macro */
   4:lib/libdaisy/src/per/adc.h **** #include <stdint.h>
   5:lib/libdaisy/src/per/adc.h **** #include <stdlib.h>
   6:lib/libdaisy/src/per/adc.h **** #include "daisy_core.h"
   7:lib/libdaisy/src/per/adc.h **** #include "per/gpio.h"
   8:lib/libdaisy/src/per/adc.h **** 
   9:lib/libdaisy/src/per/adc.h **** #define DSY_ADC_MAX_CHANNELS 16 /**< Maximum number of ADC channels */
  10:lib/libdaisy/src/per/adc.h **** 
  11:lib/libdaisy/src/per/adc.h **** namespace daisy
  12:lib/libdaisy/src/per/adc.h **** {
  13:lib/libdaisy/src/per/adc.h **** /** @addtogroup analog_digital_conversion
  14:lib/libdaisy/src/per/adc.h ****     @{
  15:lib/libdaisy/src/per/adc.h **** */
  16:lib/libdaisy/src/per/adc.h **** 
  17:lib/libdaisy/src/per/adc.h **** /* While there may not be many configuration options here,
  18:lib/libdaisy/src/per/adc.h **** using a struct like this allows us to add more configuration
  19:lib/libdaisy/src/per/adc.h **** later without breaking existing functionality.
  20:lib/libdaisy/src/per/adc.h **** */
  21:lib/libdaisy/src/per/adc.h **** 
  22:lib/libdaisy/src/per/adc.h **** /** Configuration Structure for a given channel */
  23:lib/libdaisy/src/per/adc.h **** struct AdcChannelConfig
  24:lib/libdaisy/src/per/adc.h **** {
  25:lib/libdaisy/src/per/adc.h ****     /** Which pin to use for multiplexing */
  26:lib/libdaisy/src/per/adc.h ****     enum MuxPin
  27:lib/libdaisy/src/per/adc.h ****     {
  28:lib/libdaisy/src/per/adc.h ****         MUX_SEL_0,    /**< & */
  29:lib/libdaisy/src/per/adc.h ****         MUX_SEL_1,    /**< & */
  30:lib/libdaisy/src/per/adc.h ****         MUX_SEL_2,    /**< & */
  31:lib/libdaisy/src/per/adc.h ****         MUX_SEL_LAST, /**< & */
  32:lib/libdaisy/src/per/adc.h ****     };
  33:lib/libdaisy/src/per/adc.h **** 
  34:lib/libdaisy/src/per/adc.h ****     /** Initializes a single ADC pin as an ADC. 
  35:lib/libdaisy/src/per/adc.h ****     \param pin Pin to init.
  36:lib/libdaisy/src/per/adc.h ****      */
  37:lib/libdaisy/src/per/adc.h ****     void InitSingle(dsy_gpio_pin pin);
  38:lib/libdaisy/src/per/adc.h **** 
  39:lib/libdaisy/src/per/adc.h ****     /** 
  40:lib/libdaisy/src/per/adc.h ****     Initializes a single ADC pin as a Multiplexed ADC.
  41:lib/libdaisy/src/per/adc.h ****     Requires a CD405X Multiplexer connected to the pin.
  42:lib/libdaisy/src/per/adc.h ****     You only need to supply the mux pins that are required,
  43:lib/libdaisy/src/per/adc.h ****     e.g. a 4052 mux would only require mux_0 and mux_1.
  44:lib/libdaisy/src/per/adc.h ****     Internal Callbacks handle the pin addressing.
  45:lib/libdaisy/src/per/adc.h ****     \param mux_channels must be 1-8
  46:lib/libdaisy/src/per/adc.h ****     \param mux_0 First mux pin
ARM GAS  /var/folders/9s/8rp0_f2s1n31qbztm3b5_fdh0000gn/T//ccCzuEKD.s 			page 7


  47:lib/libdaisy/src/per/adc.h ****     \param mux_1 Second mux pin
  48:lib/libdaisy/src/per/adc.h ****     \param mux_2 Third mux pin
  49:lib/libdaisy/src/per/adc.h ****     \param adc_pin &
  50:lib/libdaisy/src/per/adc.h ****     */
  51:lib/libdaisy/src/per/adc.h ****     void InitMux(dsy_gpio_pin adc_pin,
  52:lib/libdaisy/src/per/adc.h ****                  size_t       mux_channels,
  53:lib/libdaisy/src/per/adc.h ****                  dsy_gpio_pin mux_0,
  54:lib/libdaisy/src/per/adc.h ****                  dsy_gpio_pin mux_1 = {DSY_GPIOX, 0},
  55:lib/libdaisy/src/per/adc.h ****                  dsy_gpio_pin mux_2 = {DSY_GPIOX, 0});
  56:lib/libdaisy/src/per/adc.h **** 
  57:lib/libdaisy/src/per/adc.h ****     dsy_gpio pin_;                   /**< & */
  58:lib/libdaisy/src/per/adc.h ****     dsy_gpio mux_pin_[MUX_SEL_LAST]; /**< & */
  59:lib/libdaisy/src/per/adc.h ****     uint8_t  mux_channels_;          /**< & */
  60:lib/libdaisy/src/per/adc.h **** };
  61:lib/libdaisy/src/per/adc.h **** 
  62:lib/libdaisy/src/per/adc.h **** /**
  63:lib/libdaisy/src/per/adc.h ****    Handler for analog to digital conversion
  64:lib/libdaisy/src/per/adc.h **** */
  65:lib/libdaisy/src/per/adc.h **** class AdcHandle
  66:lib/libdaisy/src/per/adc.h **** {
  67:lib/libdaisy/src/per/adc.h ****   public:
  68:lib/libdaisy/src/per/adc.h ****     /** Supported oversampling amounts */
  69:lib/libdaisy/src/per/adc.h ****     enum OverSampling
  70:lib/libdaisy/src/per/adc.h ****     {
  71:lib/libdaisy/src/per/adc.h ****         OVS_NONE, /**< & */
  72:lib/libdaisy/src/per/adc.h ****         OVS_4,    /**< & */
  73:lib/libdaisy/src/per/adc.h ****         OVS_8,    /**< & */
  74:lib/libdaisy/src/per/adc.h ****         OVS_16,   /**< & */
  75:lib/libdaisy/src/per/adc.h ****         OVS_32,   /**< & */
  76:lib/libdaisy/src/per/adc.h ****         OVS_64,   /**< & */
  77:lib/libdaisy/src/per/adc.h ****         OVS_128,  /**< & */
  78:lib/libdaisy/src/per/adc.h ****         OVS_256,  /**< & */
  79:lib/libdaisy/src/per/adc.h ****         OVS_512,  /**< & */
  80:lib/libdaisy/src/per/adc.h ****         OVS_1024, /**< & */
  81:lib/libdaisy/src/per/adc.h ****         OVS_LAST, /**< & */
  82:lib/libdaisy/src/per/adc.h ****     };
  83:lib/libdaisy/src/per/adc.h **** 
  84:lib/libdaisy/src/per/adc.h ****     AdcHandle() {}
  85:lib/libdaisy/src/per/adc.h ****     ~AdcHandle() {}
  95              		.loc 6 85 5 is_stmt 1 view .LVU9
  96              		.loc 6 85 5 is_stmt 0 view .LVU10
  97              	.LBE227:
  98              	.LBB228:
  99              	.LBI228:
 100              		.file 7 "lib/libdaisy/src/hid/audio.h"
   1:lib/libdaisy/src/hid/audio.h **** #ifndef DSY_AUDIO_H
   2:lib/libdaisy/src/hid/audio.h **** #define DSY_AUDIO_H /**< & */
   3:lib/libdaisy/src/hid/audio.h **** 
   4:lib/libdaisy/src/hid/audio.h **** #include "per/sai.h"
   5:lib/libdaisy/src/hid/audio.h **** 
   6:lib/libdaisy/src/hid/audio.h **** namespace daisy
   7:lib/libdaisy/src/hid/audio.h **** {
   8:lib/libdaisy/src/hid/audio.h **** class AudioHandle
   9:lib/libdaisy/src/hid/audio.h **** {
  10:lib/libdaisy/src/hid/audio.h ****   public:
  11:lib/libdaisy/src/hid/audio.h ****     /** Manually configurable details about the Audio Engine */
  12:lib/libdaisy/src/hid/audio.h ****     /** TODO: Figure out how to get samplerate in here. */
ARM GAS  /var/folders/9s/8rp0_f2s1n31qbztm3b5_fdh0000gn/T//ccCzuEKD.s 			page 8


  13:lib/libdaisy/src/hid/audio.h ****     struct Config
  14:lib/libdaisy/src/hid/audio.h ****     {
  15:lib/libdaisy/src/hid/audio.h ****         size_t                        blocksize;
  16:lib/libdaisy/src/hid/audio.h ****         SaiHandle::Config::SampleRate samplerate;
  17:lib/libdaisy/src/hid/audio.h ****         float                         postgain;
  18:lib/libdaisy/src/hid/audio.h ****     };
  19:lib/libdaisy/src/hid/audio.h **** 
  20:lib/libdaisy/src/hid/audio.h ****     enum class Result
  21:lib/libdaisy/src/hid/audio.h ****     {
  22:lib/libdaisy/src/hid/audio.h ****         OK,
  23:lib/libdaisy/src/hid/audio.h ****         ERR,
  24:lib/libdaisy/src/hid/audio.h ****     };
  25:lib/libdaisy/src/hid/audio.h **** 
  26:lib/libdaisy/src/hid/audio.h ****     /** Non-Interleaving input buffer
  27:lib/libdaisy/src/hid/audio.h ****      * Buffer arranged by float[chn][sample] 
  28:lib/libdaisy/src/hid/audio.h ****      * const so that the user can't modify the input
  29:lib/libdaisy/src/hid/audio.h ****     */
  30:lib/libdaisy/src/hid/audio.h ****     typedef const float* const* InputBuffer;
  31:lib/libdaisy/src/hid/audio.h **** 
  32:lib/libdaisy/src/hid/audio.h ****     /** Non-Interleaving output buffer
  33:lib/libdaisy/src/hid/audio.h ****      * Arranged by float[chn][sample] 
  34:lib/libdaisy/src/hid/audio.h ****     */
  35:lib/libdaisy/src/hid/audio.h ****     typedef float** OutputBuffer;
  36:lib/libdaisy/src/hid/audio.h **** 
  37:lib/libdaisy/src/hid/audio.h ****     /** Type for a Non-Interleaving audio callback 
  38:lib/libdaisy/src/hid/audio.h ****    * Non-Interleaving audio callbacks in daisy will be of this type
  39:lib/libdaisy/src/hid/audio.h ****   */
  40:lib/libdaisy/src/hid/audio.h ****     typedef void (*AudioCallback)(InputBuffer  in,
  41:lib/libdaisy/src/hid/audio.h ****                                   OutputBuffer out,
  42:lib/libdaisy/src/hid/audio.h ****                                   size_t       size);
  43:lib/libdaisy/src/hid/audio.h **** 
  44:lib/libdaisy/src/hid/audio.h ****     /** Interleaving Input buffer
  45:lib/libdaisy/src/hid/audio.h ****      ** audio is prepared as { L0, R0, L1, R1, . . . LN, RN }]
  46:lib/libdaisy/src/hid/audio.h ****      ** this is const, as the user shouldn't modify it
  47:lib/libdaisy/src/hid/audio.h ****     */
  48:lib/libdaisy/src/hid/audio.h ****     typedef const float* InterleavingInputBuffer;
  49:lib/libdaisy/src/hid/audio.h **** 
  50:lib/libdaisy/src/hid/audio.h ****     /** Interleaving Output buffer 
  51:lib/libdaisy/src/hid/audio.h ****      ** audio is prepared as { L0, R0, L1, R1, . . . LN, RN }
  52:lib/libdaisy/src/hid/audio.h ****     */
  53:lib/libdaisy/src/hid/audio.h ****     typedef float* InterleavingOutputBuffer;
  54:lib/libdaisy/src/hid/audio.h **** 
  55:lib/libdaisy/src/hid/audio.h ****     /** Interleaving Audio Callback 
  56:lib/libdaisy/src/hid/audio.h ****    * Interleaving audio callbacks in daisy must be of this type
  57:lib/libdaisy/src/hid/audio.h ****   */
  58:lib/libdaisy/src/hid/audio.h ****     typedef void (*InterleavingAudioCallback)(InterleavingInputBuffer  in,
  59:lib/libdaisy/src/hid/audio.h ****                                               InterleavingOutputBuffer out,
  60:lib/libdaisy/src/hid/audio.h ****                                               size_t                   size);
  61:lib/libdaisy/src/hid/audio.h **** 
  62:lib/libdaisy/src/hid/audio.h ****     AudioHandle() : pimpl_(nullptr) {}
  63:lib/libdaisy/src/hid/audio.h ****     ~AudioHandle() {}
 101              		.loc 7 63 5 is_stmt 1 view .LVU11
 102              		.loc 7 63 5 is_stmt 0 view .LVU12
 103              	.LBE228:
 104              		.loc 3 22 19 view .LVU13
 105 0000 7047     		bx	lr
 106              		.cfi_endproc
ARM GAS  /var/folders/9s/8rp0_f2s1n31qbztm3b5_fdh0000gn/T//ccCzuEKD.s 			page 9


 107              	.LFE2146:
 109              		.weak	_ZN5daisy9DaisySeedD1Ev
 110              		.thumb_set _ZN5daisy9DaisySeedD1Ev,_ZN5daisy9DaisySeedD2Ev
 111              		.section	.text._ZN6Mpr121D2Ev,"axG",%progbits,_ZN6Mpr121D5Ev,comdat
 112              		.align	1
 113              		.weak	_ZN6Mpr121D2Ev
 114              		.syntax unified
 115              		.thumb
 116              		.thumb_func
 118              	_ZN6Mpr121D2Ev:
 119              	.LVL3:
 120              	.LFB4962:
 121              		.file 8 "mpr121_daisy.h"
   1:mpr121_daisy.h **** #pragma once
   2:mpr121_daisy.h **** #ifndef MPR121_DAISY_H
   3:mpr121_daisy.h **** #define MPR121_DAISY_H
   4:mpr121_daisy.h **** 
   5:mpr121_daisy.h **** #include "daisy_seed.h"
   6:mpr121_daisy.h **** #include "per/i2c.h"
   7:mpr121_daisy.h **** 
   8:mpr121_daisy.h **** using namespace daisy;
   9:mpr121_daisy.h **** 
  10:mpr121_daisy.h **** /// mp
  11:mpr121_daisy.h **** 
  12:mpr121_daisy.h **** // Register map
  13:mpr121_daisy.h **** #define MPR121_TOUCHSTATUS_L 0x00
  14:mpr121_daisy.h **** #define MPR121_TOUCHSTATUS_H 0x01
  15:mpr121_daisy.h **** #define MPR121_FILTDATA_0L 0x04
  16:mpr121_daisy.h **** #define MPR121_FILTDATA_0H 0x05
  17:mpr121_daisy.h **** #define MPR121_BASELINE_0 0x1E
  18:mpr121_daisy.h **** #define MPR121_MHDR 0x2B
  19:mpr121_daisy.h **** #define MPR121_NHDR 0x2C
  20:mpr121_daisy.h **** #define MPR121_NCLR 0x2D
  21:mpr121_daisy.h **** #define MPR121_FDLR 0x2E
  22:mpr121_daisy.h **** #define MPR121_MHDF 0x2F
  23:mpr121_daisy.h **** #define MPR121_NHDF 0x30
  24:mpr121_daisy.h **** #define MPR121_NCLF 0x31
  25:mpr121_daisy.h **** #define MPR121_FDLF 0x32
  26:mpr121_daisy.h **** #define MPR121_NHDT 0x33
  27:mpr121_daisy.h **** #define MPR121_NCLT 0x34
  28:mpr121_daisy.h **** #define MPR121_FDLT 0x35
  29:mpr121_daisy.h **** 
  30:mpr121_daisy.h **** #define MPR121_TOUCHTH_0 0x41
  31:mpr121_daisy.h **** #define MPR121_RELEASETH_0 0x42
  32:mpr121_daisy.h **** #define MPR121_DEBOUNCE 0x5B
  33:mpr121_daisy.h **** #define MPR121_CONFIG1 0x5C
  34:mpr121_daisy.h **** #define MPR121_CONFIG2 0x5D
  35:mpr121_daisy.h **** #define MPR121_CHARGECURR_0 0x5F
  36:mpr121_daisy.h **** #define MPR121_CHARGETIME_1 0x6C
  37:mpr121_daisy.h **** #define MPR121_ECR 0x5E
  38:mpr121_daisy.h **** #define MPR121_AUTOCONFIG0 0x7B
  39:mpr121_daisy.h **** #define MPR121_AUTOCONFIG1 0x7C
  40:mpr121_daisy.h **** #define MPR121_UPLIMIT 0x7D
  41:mpr121_daisy.h **** #define MPR121_LOWLIMIT 0x7E
  42:mpr121_daisy.h **** #define MPR121_TARGETLIMIT 0x7F
  43:mpr121_daisy.h **** 
  44:mpr121_daisy.h **** #define MPR121_GPIODIR 0x76
ARM GAS  /var/folders/9s/8rp0_f2s1n31qbztm3b5_fdh0000gn/T//ccCzuEKD.s 			page 10


  45:mpr121_daisy.h **** #define MPR121_GPIOEN 0x77
  46:mpr121_daisy.h **** #define MPR121_GPIOSET 0x78
  47:mpr121_daisy.h **** #define MPR121_GPIOCLR 0x79
  48:mpr121_daisy.h **** #define MPR121_GPIOTOGGLE 0x7A
  49:mpr121_daisy.h **** 
  50:mpr121_daisy.h **** #define MPR121_SOFTRESET 0x80
  51:mpr121_daisy.h **** #define MPR121_I2CADDR_DEFAULT 0x5A
  52:mpr121_daisy.h **** 
  53:mpr121_daisy.h **** class Mpr121
  54:mpr121_daisy.h **** {
  55:mpr121_daisy.h ****   public:
  56:mpr121_daisy.h ****     Mpr121() {}
  57:mpr121_daisy.h ****     ~Mpr121() {}
 122              		.loc 8 57 5 is_stmt 1 view -0
 123              		.cfi_startproc
 124              		@ args = 0, pretend = 0, frame = 0
 125              		@ frame_needed = 0, uses_anonymous_args = 0
 126              		@ link register save eliminated.
 127              		.loc 8 57 16 is_stmt 0 view .LVU15
 128 0000 7047     		bx	lr
 129              		.cfi_endproc
 130              	.LFE4962:
 132              		.weak	_ZN6Mpr121D1Ev
 133              		.thumb_set _ZN6Mpr121D1Ev,_ZN6Mpr121D2Ev
 134              		.section	.text._ZN10infrasonic9EchoDelayILj48000EED2Ev,"axG",%progbits,_ZN10infrasonic9EchoDelayIL
 135              		.align	1
 136              		.weak	_ZN10infrasonic9EchoDelayILj48000EED2Ev
 137              		.syntax unified
 138              		.thumb
 139              		.thumb_func
 141              	_ZN10infrasonic9EchoDelayILj48000EED2Ev:
 142              	.LVL4:
 143              	.LFB5820:
 144              		.file 9 "Effects/EchoDelay.h"
   1:Effects/EchoDelay.h **** #pragma once
   2:Effects/EchoDelay.h **** #ifndef INFS_ECHODELAY_H
   3:Effects/EchoDelay.h **** #define INFS_ECHODELAY_H
   4:Effects/EchoDelay.h **** 
   5:Effects/EchoDelay.h **** #include <daisysp.h>
   6:Effects/EchoDelay.h **** #include "BiquadFilters.h"
   7:Effects/EchoDelay.h **** #include "DSPUtils.h"
   8:Effects/EchoDelay.h **** 
   9:Effects/EchoDelay.h **** namespace infrasonic {
  10:Effects/EchoDelay.h **** 
  11:Effects/EchoDelay.h **** /**
  12:Effects/EchoDelay.h ****  * @brief
  13:Effects/EchoDelay.h ****  * Tape-ish echo delay.
  14:Effects/EchoDelay.h ****  *   - Feedback is unbounded, but signal is soft-clipped
  15:Effects/EchoDelay.h ****  *   - Output is full-wet, should be mixed with dry signal externally
  16:Effects/EchoDelay.h ****  *
  17:Effects/EchoDelay.h ****  * @tparam MaxLength Max length of delay in samples
  18:Effects/EchoDelay.h ****  */
  19:Effects/EchoDelay.h **** template<size_t MaxLength>
  20:Effects/EchoDelay.h **** class EchoDelay {
  21:Effects/EchoDelay.h **** 
  22:Effects/EchoDelay.h ****     public:
  23:Effects/EchoDelay.h **** 
ARM GAS  /var/folders/9s/8rp0_f2s1n31qbztm3b5_fdh0000gn/T//ccCzuEKD.s 			page 11


  24:Effects/EchoDelay.h ****         EchoDelay() {}
  25:Effects/EchoDelay.h ****         ~EchoDelay() {}
 145              		.loc 9 25 9 is_stmt 1 view -0
 146              		.cfi_startproc
 147              		@ args = 0, pretend = 0, frame = 0
 148              		@ frame_needed = 0, uses_anonymous_args = 0
 149              		@ link register save eliminated.
 150              	.LBB229:
 151              	.LBI229:
 152              		.file 10 "Effects/BiquadFilters.h"
   1:Effects/BiquadFilters.h **** #pragma once
   2:Effects/BiquadFilters.h **** #ifndef INFS_BIQUADFILTERS_H
   3:Effects/BiquadFilters.h **** #define INFS_BIQUADFILTERS_H
   4:Effects/BiquadFilters.h **** 
   5:Effects/BiquadFilters.h **** #include <cassert>
   6:Effects/BiquadFilters.h **** #include <array>
   7:Effects/BiquadFilters.h **** #include <daisysp.h>
   8:Effects/BiquadFilters.h **** 
   9:Effects/BiquadFilters.h **** namespace infrasonic {
  10:Effects/BiquadFilters.h **** 
  11:Effects/BiquadFilters.h **** /**
  12:Effects/BiquadFilters.h ****  *  Single precision 2nd order biquad filter section with support for stereo processing.
  13:Effects/BiquadFilters.h ****  *  NOTE: There are templated filter definitions at the bottom of this file for convenience. 
  14:Effects/BiquadFilters.h ****  */
  15:Effects/BiquadFilters.h **** class BiquadSection {
  16:Effects/BiquadFilters.h **** 
  17:Effects/BiquadFilters.h ****     public:
  18:Effects/BiquadFilters.h **** 
  19:Effects/BiquadFilters.h ****         enum class FilterType {
  20:Effects/BiquadFilters.h ****             LowPass,
  21:Effects/BiquadFilters.h ****             HighPass,
  22:Effects/BiquadFilters.h ****             BandPass
  23:Effects/BiquadFilters.h ****         };
  24:Effects/BiquadFilters.h **** 
  25:Effects/BiquadFilters.h ****         // Assumes normalized coefficients (a0 == 1)
  26:Effects/BiquadFilters.h ****         // Ordering numerator then denominator: {b0, b1, b2, a1, a2}
  27:Effects/BiquadFilters.h ****         using Coefficients = std::array<float, 5>;
  28:Effects/BiquadFilters.h **** 
  29:Effects/BiquadFilters.h ****         static const Coefficients CalculateCoefficients(const FilterType type, 
  30:Effects/BiquadFilters.h ****                                                         const float sample_rate,
  31:Effects/BiquadFilters.h ****                                                         const float cutoff_hz,
  32:Effects/BiquadFilters.h ****                                                         const float q);
  33:Effects/BiquadFilters.h **** 
  34:Effects/BiquadFilters.h ****         BiquadSection() {}
  35:Effects/BiquadFilters.h ****         ~BiquadSection() {}
  36:Effects/BiquadFilters.h **** 
  37:Effects/BiquadFilters.h ****         void SetCoefficients(const Coefficients coefficients) { coefs_ = coefficients; }
  38:Effects/BiquadFilters.h **** 
  39:Effects/BiquadFilters.h ****         inline float Process(const float in, const int channel)
  40:Effects/BiquadFilters.h ****         {
  41:Effects/BiquadFilters.h ****             assert(channel < 2);
  42:Effects/BiquadFilters.h **** 
  43:Effects/BiquadFilters.h ****             // TODO: arm accelerated version
  44:Effects/BiquadFilters.h **** 
  45:Effects/BiquadFilters.h ****             const float &b0 = coefs_[0];
  46:Effects/BiquadFilters.h ****             const float &b1 = coefs_[1];
  47:Effects/BiquadFilters.h ****             const float &b2 = coefs_[2];
ARM GAS  /var/folders/9s/8rp0_f2s1n31qbztm3b5_fdh0000gn/T//ccCzuEKD.s 			page 12


  48:Effects/BiquadFilters.h ****             const float &a1 = coefs_[3];
  49:Effects/BiquadFilters.h ****             const float &a2 = coefs_[4];
  50:Effects/BiquadFilters.h **** 
  51:Effects/BiquadFilters.h ****             // Transposed direct form 2
  52:Effects/BiquadFilters.h ****             float y = b0 * in + s1_[channel];
  53:Effects/BiquadFilters.h ****             s1_[channel] = s2_[channel] + in * b1 - a1 * y;
  54:Effects/BiquadFilters.h ****             s2_[channel] = b2 * in - a2 * y;
  55:Effects/BiquadFilters.h ****             return y;
  56:Effects/BiquadFilters.h ****         }
  57:Effects/BiquadFilters.h **** 
  58:Effects/BiquadFilters.h ****     private:
  59:Effects/BiquadFilters.h ****         // coef
  60:Effects/BiquadFilters.h ****         Coefficients coefs_{0, 0, 0, 0, 0};
  61:Effects/BiquadFilters.h **** 
  62:Effects/BiquadFilters.h ****         // state
  63:Effects/BiquadFilters.h ****         float s1_[2] = {0, 0};
  64:Effects/BiquadFilters.h ****         float s2_[2] = {0, 0};
  65:Effects/BiquadFilters.h **** 
  66:Effects/BiquadFilters.h **** };
  67:Effects/BiquadFilters.h **** 
  68:Effects/BiquadFilters.h **** /// Templated cascaded biquad filter. Filter Order = 2 * NumSections.
  69:Effects/BiquadFilters.h **** /// NOTE: Only supports even-ordered filters.
  70:Effects/BiquadFilters.h **** template<size_t NumSections, BiquadSection::FilterType FilterType>
  71:Effects/BiquadFilters.h **** class BiquadCascade {
  72:Effects/BiquadFilters.h **** 
  73:Effects/BiquadFilters.h ****     static_assert(NumSections > 0, "Must have at least one section");
  74:Effects/BiquadFilters.h **** 
  75:Effects/BiquadFilters.h ****     public:
  76:Effects/BiquadFilters.h ****         BiquadCascade() {}
  77:Effects/BiquadFilters.h ****         ~BiquadCascade() {}
 153              		.loc 10 77 9 view .LVU17
 154              	.LBB230:
 155              	.LBI230:
 156              		.file 11 "/Library/DaisyToolchain/0.2.0/arm/arm-none-eabi/include/c++/10.3.1/array"
   1:/Library/DaisyToolchain/0.2.0/arm/arm-none-eabi/include/c++/10.3.1/array **** // <array> -*- C++ -*-
   2:/Library/DaisyToolchain/0.2.0/arm/arm-none-eabi/include/c++/10.3.1/array **** 
   3:/Library/DaisyToolchain/0.2.0/arm/arm-none-eabi/include/c++/10.3.1/array **** // Copyright (C) 2007-2020 Free Software Foundation, Inc.
   4:/Library/DaisyToolchain/0.2.0/arm/arm-none-eabi/include/c++/10.3.1/array **** //
   5:/Library/DaisyToolchain/0.2.0/arm/arm-none-eabi/include/c++/10.3.1/array **** // This file is part of the GNU ISO C++ Library.  This library is free
   6:/Library/DaisyToolchain/0.2.0/arm/arm-none-eabi/include/c++/10.3.1/array **** // software; you can redistribute it and/or modify it under the
   7:/Library/DaisyToolchain/0.2.0/arm/arm-none-eabi/include/c++/10.3.1/array **** // terms of the GNU General Public License as published by the
   8:/Library/DaisyToolchain/0.2.0/arm/arm-none-eabi/include/c++/10.3.1/array **** // Free Software Foundation; either version 3, or (at your option)
   9:/Library/DaisyToolchain/0.2.0/arm/arm-none-eabi/include/c++/10.3.1/array **** // any later version.
  10:/Library/DaisyToolchain/0.2.0/arm/arm-none-eabi/include/c++/10.3.1/array **** 
  11:/Library/DaisyToolchain/0.2.0/arm/arm-none-eabi/include/c++/10.3.1/array **** // This library is distributed in the hope that it will be useful,
  12:/Library/DaisyToolchain/0.2.0/arm/arm-none-eabi/include/c++/10.3.1/array **** // but WITHOUT ANY WARRANTY; without even the implied warranty of
  13:/Library/DaisyToolchain/0.2.0/arm/arm-none-eabi/include/c++/10.3.1/array **** // MERCHANTABILITY or FITNESS FOR A PARTICULAR PURPOSE.  See the
  14:/Library/DaisyToolchain/0.2.0/arm/arm-none-eabi/include/c++/10.3.1/array **** // GNU General Public License for more details.
  15:/Library/DaisyToolchain/0.2.0/arm/arm-none-eabi/include/c++/10.3.1/array **** 
  16:/Library/DaisyToolchain/0.2.0/arm/arm-none-eabi/include/c++/10.3.1/array **** // Under Section 7 of GPL version 3, you are granted additional
  17:/Library/DaisyToolchain/0.2.0/arm/arm-none-eabi/include/c++/10.3.1/array **** // permissions described in the GCC Runtime Library Exception, version
  18:/Library/DaisyToolchain/0.2.0/arm/arm-none-eabi/include/c++/10.3.1/array **** // 3.1, as published by the Free Software Foundation.
  19:/Library/DaisyToolchain/0.2.0/arm/arm-none-eabi/include/c++/10.3.1/array **** 
  20:/Library/DaisyToolchain/0.2.0/arm/arm-none-eabi/include/c++/10.3.1/array **** // You should have received a copy of the GNU General Public License and
  21:/Library/DaisyToolchain/0.2.0/arm/arm-none-eabi/include/c++/10.3.1/array **** // a copy of the GCC Runtime Library Exception along with this program;
  22:/Library/DaisyToolchain/0.2.0/arm/arm-none-eabi/include/c++/10.3.1/array **** // see the files COPYING3 and COPYING.RUNTIME respectively.  If not, see
  23:/Library/DaisyToolchain/0.2.0/arm/arm-none-eabi/include/c++/10.3.1/array **** // <http://www.gnu.org/licenses/>.
ARM GAS  /var/folders/9s/8rp0_f2s1n31qbztm3b5_fdh0000gn/T//ccCzuEKD.s 			page 13


  24:/Library/DaisyToolchain/0.2.0/arm/arm-none-eabi/include/c++/10.3.1/array **** 
  25:/Library/DaisyToolchain/0.2.0/arm/arm-none-eabi/include/c++/10.3.1/array **** /** @file include/array
  26:/Library/DaisyToolchain/0.2.0/arm/arm-none-eabi/include/c++/10.3.1/array ****  *  This is a Standard C++ Library header.
  27:/Library/DaisyToolchain/0.2.0/arm/arm-none-eabi/include/c++/10.3.1/array ****  */
  28:/Library/DaisyToolchain/0.2.0/arm/arm-none-eabi/include/c++/10.3.1/array **** 
  29:/Library/DaisyToolchain/0.2.0/arm/arm-none-eabi/include/c++/10.3.1/array **** #ifndef _GLIBCXX_ARRAY
  30:/Library/DaisyToolchain/0.2.0/arm/arm-none-eabi/include/c++/10.3.1/array **** #define _GLIBCXX_ARRAY 1
  31:/Library/DaisyToolchain/0.2.0/arm/arm-none-eabi/include/c++/10.3.1/array **** 
  32:/Library/DaisyToolchain/0.2.0/arm/arm-none-eabi/include/c++/10.3.1/array **** #pragma GCC system_header
  33:/Library/DaisyToolchain/0.2.0/arm/arm-none-eabi/include/c++/10.3.1/array **** 
  34:/Library/DaisyToolchain/0.2.0/arm/arm-none-eabi/include/c++/10.3.1/array **** #if __cplusplus < 201103L
  35:/Library/DaisyToolchain/0.2.0/arm/arm-none-eabi/include/c++/10.3.1/array **** # include <bits/c++0x_warning.h>
  36:/Library/DaisyToolchain/0.2.0/arm/arm-none-eabi/include/c++/10.3.1/array **** #else
  37:/Library/DaisyToolchain/0.2.0/arm/arm-none-eabi/include/c++/10.3.1/array **** 
  38:/Library/DaisyToolchain/0.2.0/arm/arm-none-eabi/include/c++/10.3.1/array **** #include <utility>
  39:/Library/DaisyToolchain/0.2.0/arm/arm-none-eabi/include/c++/10.3.1/array **** #include <bits/functexcept.h>
  40:/Library/DaisyToolchain/0.2.0/arm/arm-none-eabi/include/c++/10.3.1/array **** #include <bits/stl_algobase.h>
  41:/Library/DaisyToolchain/0.2.0/arm/arm-none-eabi/include/c++/10.3.1/array **** #include <bits/range_access.h>
  42:/Library/DaisyToolchain/0.2.0/arm/arm-none-eabi/include/c++/10.3.1/array **** 
  43:/Library/DaisyToolchain/0.2.0/arm/arm-none-eabi/include/c++/10.3.1/array **** namespace std _GLIBCXX_VISIBILITY(default)
  44:/Library/DaisyToolchain/0.2.0/arm/arm-none-eabi/include/c++/10.3.1/array **** {
  45:/Library/DaisyToolchain/0.2.0/arm/arm-none-eabi/include/c++/10.3.1/array **** _GLIBCXX_BEGIN_NAMESPACE_CONTAINER
  46:/Library/DaisyToolchain/0.2.0/arm/arm-none-eabi/include/c++/10.3.1/array **** 
  47:/Library/DaisyToolchain/0.2.0/arm/arm-none-eabi/include/c++/10.3.1/array ****   template<typename _Tp, std::size_t _Nm>
  48:/Library/DaisyToolchain/0.2.0/arm/arm-none-eabi/include/c++/10.3.1/array ****     struct __array_traits
  49:/Library/DaisyToolchain/0.2.0/arm/arm-none-eabi/include/c++/10.3.1/array ****     {
  50:/Library/DaisyToolchain/0.2.0/arm/arm-none-eabi/include/c++/10.3.1/array ****       typedef _Tp _Type[_Nm];
  51:/Library/DaisyToolchain/0.2.0/arm/arm-none-eabi/include/c++/10.3.1/array ****       typedef __is_swappable<_Tp> _Is_swappable;
  52:/Library/DaisyToolchain/0.2.0/arm/arm-none-eabi/include/c++/10.3.1/array ****       typedef __is_nothrow_swappable<_Tp> _Is_nothrow_swappable;
  53:/Library/DaisyToolchain/0.2.0/arm/arm-none-eabi/include/c++/10.3.1/array **** 
  54:/Library/DaisyToolchain/0.2.0/arm/arm-none-eabi/include/c++/10.3.1/array ****       static constexpr _Tp&
  55:/Library/DaisyToolchain/0.2.0/arm/arm-none-eabi/include/c++/10.3.1/array ****       _S_ref(const _Type& __t, std::size_t __n) noexcept
  56:/Library/DaisyToolchain/0.2.0/arm/arm-none-eabi/include/c++/10.3.1/array ****       { return const_cast<_Tp&>(__t[__n]); }
  57:/Library/DaisyToolchain/0.2.0/arm/arm-none-eabi/include/c++/10.3.1/array **** 
  58:/Library/DaisyToolchain/0.2.0/arm/arm-none-eabi/include/c++/10.3.1/array ****       static constexpr _Tp*
  59:/Library/DaisyToolchain/0.2.0/arm/arm-none-eabi/include/c++/10.3.1/array ****       _S_ptr(const _Type& __t) noexcept
  60:/Library/DaisyToolchain/0.2.0/arm/arm-none-eabi/include/c++/10.3.1/array ****       { return const_cast<_Tp*>(__t); }
  61:/Library/DaisyToolchain/0.2.0/arm/arm-none-eabi/include/c++/10.3.1/array ****     };
  62:/Library/DaisyToolchain/0.2.0/arm/arm-none-eabi/include/c++/10.3.1/array **** 
  63:/Library/DaisyToolchain/0.2.0/arm/arm-none-eabi/include/c++/10.3.1/array ****  template<typename _Tp>
  64:/Library/DaisyToolchain/0.2.0/arm/arm-none-eabi/include/c++/10.3.1/array ****    struct __array_traits<_Tp, 0>
  65:/Library/DaisyToolchain/0.2.0/arm/arm-none-eabi/include/c++/10.3.1/array ****    {
  66:/Library/DaisyToolchain/0.2.0/arm/arm-none-eabi/include/c++/10.3.1/array ****      struct _Type { };
  67:/Library/DaisyToolchain/0.2.0/arm/arm-none-eabi/include/c++/10.3.1/array ****      typedef true_type _Is_swappable;
  68:/Library/DaisyToolchain/0.2.0/arm/arm-none-eabi/include/c++/10.3.1/array ****      typedef true_type _Is_nothrow_swappable;
  69:/Library/DaisyToolchain/0.2.0/arm/arm-none-eabi/include/c++/10.3.1/array **** 
  70:/Library/DaisyToolchain/0.2.0/arm/arm-none-eabi/include/c++/10.3.1/array ****      static constexpr _Tp&
  71:/Library/DaisyToolchain/0.2.0/arm/arm-none-eabi/include/c++/10.3.1/array ****      _S_ref(const _Type&, std::size_t) noexcept
  72:/Library/DaisyToolchain/0.2.0/arm/arm-none-eabi/include/c++/10.3.1/array ****      { return *static_cast<_Tp*>(nullptr); }
  73:/Library/DaisyToolchain/0.2.0/arm/arm-none-eabi/include/c++/10.3.1/array **** 
  74:/Library/DaisyToolchain/0.2.0/arm/arm-none-eabi/include/c++/10.3.1/array ****      static constexpr _Tp*
  75:/Library/DaisyToolchain/0.2.0/arm/arm-none-eabi/include/c++/10.3.1/array ****      _S_ptr(const _Type&) noexcept
  76:/Library/DaisyToolchain/0.2.0/arm/arm-none-eabi/include/c++/10.3.1/array ****      { return nullptr; }
  77:/Library/DaisyToolchain/0.2.0/arm/arm-none-eabi/include/c++/10.3.1/array ****    };
  78:/Library/DaisyToolchain/0.2.0/arm/arm-none-eabi/include/c++/10.3.1/array **** 
  79:/Library/DaisyToolchain/0.2.0/arm/arm-none-eabi/include/c++/10.3.1/array ****   /**
  80:/Library/DaisyToolchain/0.2.0/arm/arm-none-eabi/include/c++/10.3.1/array ****    *  @brief A standard container for storing a fixed size sequence of elements.
ARM GAS  /var/folders/9s/8rp0_f2s1n31qbztm3b5_fdh0000gn/T//ccCzuEKD.s 			page 14


  81:/Library/DaisyToolchain/0.2.0/arm/arm-none-eabi/include/c++/10.3.1/array ****    *
  82:/Library/DaisyToolchain/0.2.0/arm/arm-none-eabi/include/c++/10.3.1/array ****    *  @ingroup sequences
  83:/Library/DaisyToolchain/0.2.0/arm/arm-none-eabi/include/c++/10.3.1/array ****    *
  84:/Library/DaisyToolchain/0.2.0/arm/arm-none-eabi/include/c++/10.3.1/array ****    *  Meets the requirements of a <a href="tables.html#65">container</a>, a
  85:/Library/DaisyToolchain/0.2.0/arm/arm-none-eabi/include/c++/10.3.1/array ****    *  <a href="tables.html#66">reversible container</a>, and a
  86:/Library/DaisyToolchain/0.2.0/arm/arm-none-eabi/include/c++/10.3.1/array ****    *  <a href="tables.html#67">sequence</a>.
  87:/Library/DaisyToolchain/0.2.0/arm/arm-none-eabi/include/c++/10.3.1/array ****    *
  88:/Library/DaisyToolchain/0.2.0/arm/arm-none-eabi/include/c++/10.3.1/array ****    *  Sets support random access iterators.
  89:/Library/DaisyToolchain/0.2.0/arm/arm-none-eabi/include/c++/10.3.1/array ****    *
  90:/Library/DaisyToolchain/0.2.0/arm/arm-none-eabi/include/c++/10.3.1/array ****    *  @tparam  Tp  Type of element. Required to be a complete type.
  91:/Library/DaisyToolchain/0.2.0/arm/arm-none-eabi/include/c++/10.3.1/array ****    *  @tparam  Nm  Number of elements.
  92:/Library/DaisyToolchain/0.2.0/arm/arm-none-eabi/include/c++/10.3.1/array ****   */
  93:/Library/DaisyToolchain/0.2.0/arm/arm-none-eabi/include/c++/10.3.1/array ****   template<typename _Tp, std::size_t _Nm>
  94:/Library/DaisyToolchain/0.2.0/arm/arm-none-eabi/include/c++/10.3.1/array ****     struct array
 157              		.loc 11 94 12 view .LVU18
 158              		.loc 11 94 12 is_stmt 0 view .LVU19
 159              	.LBE230:
 160              	.LBE229:
 161              	.LBB231:
 162              	.LBI231:
 163              		.file 12 "lib/DaisySP/Source/Utility/delayline.h"
   1:lib/DaisySP/Source/Utility/delayline.h **** /*
   2:lib/DaisySP/Source/Utility/delayline.h **** Copyright (c) 2020 Electrosmith, Corp
   3:lib/DaisySP/Source/Utility/delayline.h **** 
   4:lib/DaisySP/Source/Utility/delayline.h **** Use of this source code is governed by an MIT-style
   5:lib/DaisySP/Source/Utility/delayline.h **** license that can be found in the LICENSE file or at
   6:lib/DaisySP/Source/Utility/delayline.h **** https://opensource.org/licenses/MIT.
   7:lib/DaisySP/Source/Utility/delayline.h **** */
   8:lib/DaisySP/Source/Utility/delayline.h **** 
   9:lib/DaisySP/Source/Utility/delayline.h **** #pragma once
  10:lib/DaisySP/Source/Utility/delayline.h **** #ifndef DSY_DELAY_H
  11:lib/DaisySP/Source/Utility/delayline.h **** #define DSY_DELAY_H
  12:lib/DaisySP/Source/Utility/delayline.h **** #include <stdlib.h>
  13:lib/DaisySP/Source/Utility/delayline.h **** #include <stdint.h>
  14:lib/DaisySP/Source/Utility/delayline.h **** namespace daisysp
  15:lib/DaisySP/Source/Utility/delayline.h **** {
  16:lib/DaisySP/Source/Utility/delayline.h **** /** Simple Delay line.
  17:lib/DaisySP/Source/Utility/delayline.h **** November 2019
  18:lib/DaisySP/Source/Utility/delayline.h **** 
  19:lib/DaisySP/Source/Utility/delayline.h **** Converted to Template December 2019
  20:lib/DaisySP/Source/Utility/delayline.h **** 
  21:lib/DaisySP/Source/Utility/delayline.h **** declaration example: (1 second of floats)
  22:lib/DaisySP/Source/Utility/delayline.h **** 
  23:lib/DaisySP/Source/Utility/delayline.h **** DelayLine<float, SAMPLE_RATE> del;
  24:lib/DaisySP/Source/Utility/delayline.h **** 
  25:lib/DaisySP/Source/Utility/delayline.h **** By: shensley
  26:lib/DaisySP/Source/Utility/delayline.h **** */
  27:lib/DaisySP/Source/Utility/delayline.h **** template <typename T, size_t max_size>
  28:lib/DaisySP/Source/Utility/delayline.h **** class DelayLine
  29:lib/DaisySP/Source/Utility/delayline.h **** {
  30:lib/DaisySP/Source/Utility/delayline.h ****   public:
  31:lib/DaisySP/Source/Utility/delayline.h ****     DelayLine() {}
  32:lib/DaisySP/Source/Utility/delayline.h ****     ~DelayLine() {}
 164              		.loc 12 32 5 is_stmt 1 view .LVU20
 165              		.loc 12 32 5 is_stmt 0 view .LVU21
 166              	.LBE231:
 167              		.loc 9 25 23 view .LVU22
ARM GAS  /var/folders/9s/8rp0_f2s1n31qbztm3b5_fdh0000gn/T//ccCzuEKD.s 			page 15


 168 0000 7047     		bx	lr
 169              		.cfi_endproc
 170              	.LFE5820:
 172              		.weak	_ZN10infrasonic9EchoDelayILj48000EED1Ev
 173              		.thumb_set _ZN10infrasonic9EchoDelayILj48000EED1Ev,_ZN10infrasonic9EchoDelayILj48000EED2Ev
 174              		.section	.text._Z18InitializeHardwarev,"ax",%progbits
 175              		.align	1
 176              		.global	_Z18InitializeHardwarev
 177              		.syntax unified
 178              		.thumb
 179              		.thumb_func
 181              	_Z18InitializeHardwarev:
 182              	.LFB5057:
 183              		.file 13 "Interface.cpp"
   1:Interface.cpp **** #include "Thaumazein.h"
   2:Interface.cpp **** 
   3:Interface.cpp **** // --- Global hardware variables ---
   4:Interface.cpp **** DaisySeed hw;
   5:Interface.cpp **** Mpr121 touch_sensor;
   6:Interface.cpp **** EchoDelay<48000> delay;
   7:Interface.cpp **** 
   8:Interface.cpp **** // Hardware controls - Remapped to use ADCs 0-9
   9:Interface.cpp **** Switch button;
  10:Interface.cpp **** AnalogControl delay_time_knob;        // ADC 0 (Pin 15) Delay Time
  11:Interface.cpp **** AnalogControl delay_mix_feedback_knob; // ADC 1 (Pin 16) Delay Mix & Feedback
  12:Interface.cpp **** AnalogControl env_release_knob;       // ADC 2 (Pin 17) Envelope Release
  13:Interface.cpp **** AnalogControl env_attack_knob;        // ADC 3 (Pin 18) Envelope Attack
  14:Interface.cpp **** AnalogControl timbre_knob;            // ADC 4 (Pin 19) Plaits Timbre
  15:Interface.cpp **** AnalogControl harmonics_knob;         // ADC 5 (Pin 20) Plaits Harmonics
  16:Interface.cpp **** AnalogControl morph_knob;             // ADC 6 (Pin 21) Plaits Morph
  17:Interface.cpp **** AnalogControl pitch_knob;             // ADC 7 (Pin 22) Plaits Pitch
  18:Interface.cpp **** AnalogControl arp_pad;               // ADC 8 (Pin 23) Arpeggiator Toggle Pad
  19:Interface.cpp **** AnalogControl model_prev_pad;        // ADC 9 (Pin 24) Model Select Previous Pad
  20:Interface.cpp **** AnalogControl model_next_pad;        // ADC 10 (Pin 25) Model Select Next Pad
  21:Interface.cpp **** AnalogControl mod_wheel;             // ADC 11 (Pin 28) Mod Wheel Control
  22:Interface.cpp **** 
  23:Interface.cpp **** // CPU usage monitoring
  24:Interface.cpp **** float sample_rate = 48000.0f; 
  25:Interface.cpp **** volatile uint32_t avg_elapsed_us = 0; 
  26:Interface.cpp **** volatile bool update_display = false; 
  27:Interface.cpp **** // Output Level monitoring
  28:Interface.cpp **** volatile float smoothed_output_level = 0.0f; 
  29:Interface.cpp **** 
  30:Interface.cpp **** // Bootloader configuration
  31:Interface.cpp **** const uint32_t BOOTLOADER_HOLD_TIME_MS = 3000; // Hold button for 3 seconds
  32:Interface.cpp **** uint32_t button_held_start_time = 0;
  33:Interface.cpp **** bool button_was_pressed = false;
  34:Interface.cpp **** 
  35:Interface.cpp **** // --- Initialization functions ---
  36:Interface.cpp **** void InitializeHardware() {
 184              		.loc 13 36 27 is_stmt 1 view -0
 185              		.cfi_startproc
 186              		@ args = 0, pretend = 0, frame = 0
 187              		@ frame_needed = 0, uses_anonymous_args = 0
  37:Interface.cpp ****     // Initialize Daisy Seed hardware
  38:Interface.cpp ****     hw.Configure();
 188              		.loc 13 38 5 view .LVU24
ARM GAS  /var/folders/9s/8rp0_f2s1n31qbztm3b5_fdh0000gn/T//ccCzuEKD.s 			page 16


  36:Interface.cpp ****     // Initialize Daisy Seed hardware
 189              		.loc 13 36 27 is_stmt 0 view .LVU25
 190 0000 10B5     		push	{r4, lr}
 191              		.cfi_def_cfa_offset 8
 192              		.cfi_offset 4, -8
 193              		.cfi_offset 14, -4
 194              		.loc 13 38 17 view .LVU26
 195 0002 0D48     		ldr	r0, .L7
 196 0004 FFF7FEFF 		bl	_ZN5daisy9DaisySeed9ConfigureEv
 197              	.LVL5:
  39:Interface.cpp ****     hw.Init();
 198              		.loc 13 39 5 is_stmt 1 view .LVU27
 199              		.loc 13 39 12 is_stmt 0 view .LVU28
 200 0008 0021     		movs	r1, #0
 201 000a 0B48     		ldr	r0, .L7
 202 000c FFF7FEFF 		bl	_ZN5daisy9DaisySeed4InitEb
 203              	.LVL6:
  40:Interface.cpp ****     hw.SetAudioBlockSize(BLOCK_SIZE);
 204              		.loc 13 40 5 is_stmt 1 view .LVU29
 205              		.loc 13 40 25 is_stmt 0 view .LVU30
 206 0010 1021     		movs	r1, #16
 207 0012 0948     		ldr	r0, .L7
 208 0014 FFF7FEFF 		bl	_ZN5daisy9DaisySeed17SetAudioBlockSizeEj
 209              	.LVL7:
  41:Interface.cpp ****     sample_rate = hw.AudioSampleRate();
 210              		.loc 13 41 5 is_stmt 1 view .LVU31
 211              		.loc 13 41 17 is_stmt 0 view .LVU32
 212 0018 084C     		ldr	r4, .L7+4
 213              		.loc 13 41 37 view .LVU33
 214 001a 0748     		ldr	r0, .L7
 215 001c FFF7FEFF 		bl	_ZN5daisy9DaisySeed15AudioSampleRateEv
 216              	.LVL8:
  42:Interface.cpp ****     hw.SetAudioSampleRate(SaiHandle::Config::SampleRate::SAI_48KHZ); // Using 48kHz now
 217              		.loc 13 42 26 view .LVU34
 218 0020 0321     		movs	r1, #3
 219 0022 0548     		ldr	r0, .L7
  41:Interface.cpp ****     sample_rate = hw.AudioSampleRate();
 220              		.loc 13 41 17 view .LVU35
 221 0024 84ED000A 		vstr.32	s0, [r4]
 222              		.loc 13 42 5 is_stmt 1 view .LVU36
 223              		.loc 13 42 26 is_stmt 0 view .LVU37
 224 0028 FFF7FEFF 		bl	_ZN5daisy9DaisySeed18SetAudioSampleRateENS_9SaiHandle6Config10SampleRateE
 225              	.LVL9:
  43:Interface.cpp ****     sample_rate = hw.AudioSampleRate(); // Update sample_rate after setting it
 226              		.loc 13 43 5 is_stmt 1 view .LVU38
 227              		.loc 13 43 37 is_stmt 0 view .LVU39
 228 002c 0248     		ldr	r0, .L7
 229 002e FFF7FEFF 		bl	_ZN5daisy9DaisySeed15AudioSampleRateEv
 230              	.LVL10:
 231              		.loc 13 43 17 view .LVU40
 232 0032 84ED000A 		vstr.32	s0, [r4]
  44:Interface.cpp **** }
 233              		.loc 13 44 1 view .LVU41
 234 0036 10BD     		pop	{r4, pc}
 235              	.L8:
 236              		.align	2
 237              	.L7:
ARM GAS  /var/folders/9s/8rp0_f2s1n31qbztm3b5_fdh0000gn/T//ccCzuEKD.s 			page 17


 238 0038 00000000 		.word	.LANCHOR0
 239 003c 00000000 		.word	.LANCHOR1
 240              		.cfi_endproc
 241              	.LFE5057:
 243              		.section	.text._Z18InitializeControlsv,"ax",%progbits
 244              		.align	1
 245              		.global	_Z18InitializeControlsv
 246              		.syntax unified
 247              		.thumb
 248              		.thumb_func
 250              	_Z18InitializeControlsv:
 251              	.LFB5058:
  45:Interface.cpp **** 
  46:Interface.cpp **** void InitializeControls() {
 252              		.loc 13 46 27 is_stmt 1 view -0
 253              		.cfi_startproc
 254              		@ args = 0, pretend = 0, frame = 256
 255              		@ frame_needed = 0, uses_anonymous_args = 0
  47:Interface.cpp ****     // --- Configure ADCs (12 Channels) ---
  48:Interface.cpp ****     AdcChannelConfig adc_config[12];
 256              		.loc 13 48 5 view .LVU43
  49:Interface.cpp ****     adc_config[0].InitSingle(hw.GetPin(15)); // ADC 0: Delay Time
 257              		.loc 13 49 5 view .LVU44
  46:Interface.cpp ****     // --- Configure ADCs (12 Channels) ---
 258              		.loc 13 46 27 is_stmt 0 view .LVU45
 259 0000 30B5     		push	{r4, r5, lr}
 260              		.cfi_def_cfa_offset 12
 261              		.cfi_offset 4, -12
 262              		.cfi_offset 5, -8
 263              		.cfi_offset 14, -4
 264 0002 2DED028B 		vpush.64	{d8}
 265              		.cfi_def_cfa_offset 20
 266              		.cfi_offset 80, -20
 267              		.cfi_offset 81, -16
 268 0006 C1B0     		sub	sp, sp, #260
 269              		.cfi_def_cfa_offset 280
 270              		.loc 13 49 29 view .LVU46
 271 0008 0F20     		movs	r0, #15
 272 000a FFF7FEFF 		bl	_ZN5daisy9DaisySeed6GetPinEh
 273              	.LVL11:
  50:Interface.cpp ****     adc_config[1].InitSingle(hw.GetPin(16)); // ADC 1: Delay Mix & Feedback
  51:Interface.cpp ****     adc_config[2].InitSingle(hw.GetPin(17)); // ADC 2: Envelope Release
  52:Interface.cpp ****     adc_config[3].InitSingle(hw.GetPin(18)); // ADC 3: Envelope Attack
  53:Interface.cpp ****     adc_config[4].InitSingle(hw.GetPin(19)); // ADC 4: Plaits Timbre
  54:Interface.cpp ****     adc_config[5].InitSingle(hw.GetPin(20)); // ADC 5: Plaits Harmonics
  55:Interface.cpp ****     adc_config[6].InitSingle(hw.GetPin(21)); // ADC 6: Plaits Morph
  56:Interface.cpp ****     adc_config[7].InitSingle(hw.GetPin(22)); // ADC 7: Plaits Pitch
  57:Interface.cpp ****     adc_config[8].InitSingle(hw.GetPin(23)); // ADC 8: Arpeggiator Toggle Pad
  58:Interface.cpp ****     adc_config[9].InitSingle(hw.GetPin(24)); // ADC 9: Model Select Previous Pad
  59:Interface.cpp ****     adc_config[10].InitSingle(hw.GetPin(25)); // ADC 10: Model Select Next Pad
  60:Interface.cpp ****     adc_config[11].InitSingle(hw.GetPin(28)); // ADC 11: Mod Wheel Control
  61:Interface.cpp ****     hw.adc.Init(adc_config, 12); // Initialize 12 channels
 274              		.loc 13 61 16 view .LVU47
 275 000e 9D4C     		ldr	r4, .L10
  49:Interface.cpp ****     adc_config[1].InitSingle(hw.GetPin(16)); // ADC 1: Delay Mix & Feedback
 276              		.loc 13 49 29 view .LVU48
 277 0010 ADF80000 		strh	r0, [sp]	@ movhi
ARM GAS  /var/folders/9s/8rp0_f2s1n31qbztm3b5_fdh0000gn/T//ccCzuEKD.s 			page 18


 278 0014 0DA8     		add	r0, sp, #52
 279 0016 0099     		ldr	r1, [sp]
 280 0018 FFF7FEFF 		bl	_ZN5daisy16AdcChannelConfig10InitSingleE12dsy_gpio_pin
 281              	.LVL12:
  50:Interface.cpp ****     adc_config[1].InitSingle(hw.GetPin(16)); // ADC 1: Delay Mix & Feedback
 282              		.loc 13 50 5 is_stmt 1 view .LVU49
  50:Interface.cpp ****     adc_config[1].InitSingle(hw.GetPin(16)); // ADC 1: Delay Mix & Feedback
 283              		.loc 13 50 29 is_stmt 0 view .LVU50
 284 001c 1020     		movs	r0, #16
 285 001e FFF7FEFF 		bl	_ZN5daisy9DaisySeed6GetPinEh
 286              	.LVL13:
 287 0022 ADF80400 		strh	r0, [sp, #4]	@ movhi
 288 0026 0199     		ldr	r1, [sp, #4]
 289 0028 0DF14500 		add	r0, sp, #69
 290 002c FFF7FEFF 		bl	_ZN5daisy16AdcChannelConfig10InitSingleE12dsy_gpio_pin
 291              	.LVL14:
  51:Interface.cpp ****     adc_config[3].InitSingle(hw.GetPin(18)); // ADC 3: Envelope Attack
 292              		.loc 13 51 5 is_stmt 1 view .LVU51
  51:Interface.cpp ****     adc_config[3].InitSingle(hw.GetPin(18)); // ADC 3: Envelope Attack
 293              		.loc 13 51 29 is_stmt 0 view .LVU52
 294 0030 1120     		movs	r0, #17
 295 0032 FFF7FEFF 		bl	_ZN5daisy9DaisySeed6GetPinEh
 296              	.LVL15:
 297 0036 ADF80800 		strh	r0, [sp, #8]	@ movhi
 298 003a 0299     		ldr	r1, [sp, #8]
 299 003c 0DF15600 		add	r0, sp, #86
 300 0040 FFF7FEFF 		bl	_ZN5daisy16AdcChannelConfig10InitSingleE12dsy_gpio_pin
 301              	.LVL16:
  52:Interface.cpp ****     adc_config[4].InitSingle(hw.GetPin(19)); // ADC 4: Plaits Timbre
 302              		.loc 13 52 5 is_stmt 1 view .LVU53
  52:Interface.cpp ****     adc_config[4].InitSingle(hw.GetPin(19)); // ADC 4: Plaits Timbre
 303              		.loc 13 52 29 is_stmt 0 view .LVU54
 304 0044 1220     		movs	r0, #18
 305 0046 FFF7FEFF 		bl	_ZN5daisy9DaisySeed6GetPinEh
 306              	.LVL17:
 307 004a ADF80C00 		strh	r0, [sp, #12]	@ movhi
 308 004e 0399     		ldr	r1, [sp, #12]
 309 0050 0DF16700 		add	r0, sp, #103
 310 0054 FFF7FEFF 		bl	_ZN5daisy16AdcChannelConfig10InitSingleE12dsy_gpio_pin
 311              	.LVL18:
  53:Interface.cpp ****     adc_config[5].InitSingle(hw.GetPin(20)); // ADC 5: Plaits Harmonics
 312              		.loc 13 53 5 is_stmt 1 view .LVU55
  53:Interface.cpp ****     adc_config[5].InitSingle(hw.GetPin(20)); // ADC 5: Plaits Harmonics
 313              		.loc 13 53 29 is_stmt 0 view .LVU56
 314 0058 1320     		movs	r0, #19
 315 005a FFF7FEFF 		bl	_ZN5daisy9DaisySeed6GetPinEh
 316              	.LVL19:
 317 005e ADF81000 		strh	r0, [sp, #16]	@ movhi
 318 0062 0499     		ldr	r1, [sp, #16]
 319 0064 1EA8     		add	r0, sp, #120
 320 0066 FFF7FEFF 		bl	_ZN5daisy16AdcChannelConfig10InitSingleE12dsy_gpio_pin
 321              	.LVL20:
  54:Interface.cpp ****     adc_config[6].InitSingle(hw.GetPin(21)); // ADC 6: Plaits Morph
 322              		.loc 13 54 5 is_stmt 1 view .LVU57
  54:Interface.cpp ****     adc_config[6].InitSingle(hw.GetPin(21)); // ADC 6: Plaits Morph
 323              		.loc 13 54 29 is_stmt 0 view .LVU58
 324 006a 1420     		movs	r0, #20
ARM GAS  /var/folders/9s/8rp0_f2s1n31qbztm3b5_fdh0000gn/T//ccCzuEKD.s 			page 19


 325 006c FFF7FEFF 		bl	_ZN5daisy9DaisySeed6GetPinEh
 326              	.LVL21:
 327 0070 ADF81400 		strh	r0, [sp, #20]	@ movhi
 328 0074 0599     		ldr	r1, [sp, #20]
 329 0076 0DF18900 		add	r0, sp, #137
 330 007a FFF7FEFF 		bl	_ZN5daisy16AdcChannelConfig10InitSingleE12dsy_gpio_pin
 331              	.LVL22:
  55:Interface.cpp ****     adc_config[7].InitSingle(hw.GetPin(22)); // ADC 7: Plaits Pitch
 332              		.loc 13 55 5 is_stmt 1 view .LVU59
  55:Interface.cpp ****     adc_config[7].InitSingle(hw.GetPin(22)); // ADC 7: Plaits Pitch
 333              		.loc 13 55 29 is_stmt 0 view .LVU60
 334 007e 1520     		movs	r0, #21
 335 0080 FFF7FEFF 		bl	_ZN5daisy9DaisySeed6GetPinEh
 336              	.LVL23:
 337 0084 ADF81800 		strh	r0, [sp, #24]	@ movhi
 338 0088 0699     		ldr	r1, [sp, #24]
 339 008a 0DF19A00 		add	r0, sp, #154
 340 008e FFF7FEFF 		bl	_ZN5daisy16AdcChannelConfig10InitSingleE12dsy_gpio_pin
 341              	.LVL24:
  56:Interface.cpp ****     adc_config[8].InitSingle(hw.GetPin(23)); // ADC 8: Arpeggiator Toggle Pad
 342              		.loc 13 56 5 is_stmt 1 view .LVU61
  56:Interface.cpp ****     adc_config[8].InitSingle(hw.GetPin(23)); // ADC 8: Arpeggiator Toggle Pad
 343              		.loc 13 56 29 is_stmt 0 view .LVU62
 344 0092 1620     		movs	r0, #22
 345 0094 FFF7FEFF 		bl	_ZN5daisy9DaisySeed6GetPinEh
 346              	.LVL25:
 347 0098 ADF81C00 		strh	r0, [sp, #28]	@ movhi
 348 009c 0799     		ldr	r1, [sp, #28]
 349 009e 0DF1AB00 		add	r0, sp, #171
 350 00a2 FFF7FEFF 		bl	_ZN5daisy16AdcChannelConfig10InitSingleE12dsy_gpio_pin
 351              	.LVL26:
  57:Interface.cpp ****     adc_config[9].InitSingle(hw.GetPin(24)); // ADC 9: Model Select Previous Pad
 352              		.loc 13 57 5 is_stmt 1 view .LVU63
  57:Interface.cpp ****     adc_config[9].InitSingle(hw.GetPin(24)); // ADC 9: Model Select Previous Pad
 353              		.loc 13 57 29 is_stmt 0 view .LVU64
 354 00a6 1720     		movs	r0, #23
 355 00a8 FFF7FEFF 		bl	_ZN5daisy9DaisySeed6GetPinEh
 356              	.LVL27:
 357 00ac ADF82000 		strh	r0, [sp, #32]	@ movhi
 358 00b0 0899     		ldr	r1, [sp, #32]
 359 00b2 2FA8     		add	r0, sp, #188
 360 00b4 FFF7FEFF 		bl	_ZN5daisy16AdcChannelConfig10InitSingleE12dsy_gpio_pin
 361              	.LVL28:
  58:Interface.cpp ****     adc_config[10].InitSingle(hw.GetPin(25)); // ADC 10: Model Select Next Pad
 362              		.loc 13 58 5 is_stmt 1 view .LVU65
  58:Interface.cpp ****     adc_config[10].InitSingle(hw.GetPin(25)); // ADC 10: Model Select Next Pad
 363              		.loc 13 58 29 is_stmt 0 view .LVU66
 364 00b8 1820     		movs	r0, #24
 365 00ba FFF7FEFF 		bl	_ZN5daisy9DaisySeed6GetPinEh
 366              	.LVL29:
 367 00be ADF82400 		strh	r0, [sp, #36]	@ movhi
 368 00c2 0999     		ldr	r1, [sp, #36]
 369 00c4 0DF1CD00 		add	r0, sp, #205
 370 00c8 FFF7FEFF 		bl	_ZN5daisy16AdcChannelConfig10InitSingleE12dsy_gpio_pin
 371              	.LVL30:
  59:Interface.cpp ****     adc_config[11].InitSingle(hw.GetPin(28)); // ADC 11: Mod Wheel Control
 372              		.loc 13 59 5 is_stmt 1 view .LVU67
ARM GAS  /var/folders/9s/8rp0_f2s1n31qbztm3b5_fdh0000gn/T//ccCzuEKD.s 			page 20


  59:Interface.cpp ****     adc_config[11].InitSingle(hw.GetPin(28)); // ADC 11: Mod Wheel Control
 373              		.loc 13 59 30 is_stmt 0 view .LVU68
 374 00cc 1920     		movs	r0, #25
 375 00ce FFF7FEFF 		bl	_ZN5daisy9DaisySeed6GetPinEh
 376              	.LVL31:
 377 00d2 ADF82800 		strh	r0, [sp, #40]	@ movhi
 378 00d6 0A99     		ldr	r1, [sp, #40]
 379 00d8 0DF1DE00 		add	r0, sp, #222
 380 00dc FFF7FEFF 		bl	_ZN5daisy16AdcChannelConfig10InitSingleE12dsy_gpio_pin
 381              	.LVL32:
  60:Interface.cpp ****     hw.adc.Init(adc_config, 12); // Initialize 12 channels
 382              		.loc 13 60 5 is_stmt 1 view .LVU69
  60:Interface.cpp ****     hw.adc.Init(adc_config, 12); // Initialize 12 channels
 383              		.loc 13 60 30 is_stmt 0 view .LVU70
 384 00e0 1C20     		movs	r0, #28
 385 00e2 FFF7FEFF 		bl	_ZN5daisy9DaisySeed6GetPinEh
 386              	.LVL33:
 387 00e6 ADF82C00 		strh	r0, [sp, #44]	@ movhi
 388 00ea 0B99     		ldr	r1, [sp, #44]
 389 00ec 0DF1EF00 		add	r0, sp, #239
 390 00f0 FFF7FEFF 		bl	_ZN5daisy16AdcChannelConfig10InitSingleE12dsy_gpio_pin
 391              	.LVL34:
 392              		.loc 13 61 5 is_stmt 1 view .LVU71
 393              		.loc 13 61 16 is_stmt 0 view .LVU72
 394 00f4 0423     		movs	r3, #4
 395 00f6 0C22     		movs	r2, #12
 396 00f8 0DA9     		add	r1, sp, #52
 397 00fa 2046     		mov	r0, r4
  62:Interface.cpp ****     hw.adc.Start();
  63:Interface.cpp **** 
  64:Interface.cpp ****     // --- Initialize Controls (Matches new mapping) ---
  65:Interface.cpp ****     delay_time_knob.Init(hw.adc.GetPtr(0), sample_rate);        // ADC 0
 398              		.loc 13 65 25 view .LVU73
 399 00fc 624D     		ldr	r5, .L10+4
  61:Interface.cpp ****     hw.adc.Start();
 400              		.loc 13 61 16 view .LVU74
 401 00fe FFF7FEFF 		bl	_ZN5daisy9AdcHandle4InitEPNS_16AdcChannelConfigEjNS0_12OverSamplingE
 402              	.LVL35:
  62:Interface.cpp ****     hw.adc.Start();
 403              		.loc 13 62 5 is_stmt 1 view .LVU75
  62:Interface.cpp ****     hw.adc.Start();
 404              		.loc 13 62 17 is_stmt 0 view .LVU76
 405 0102 2046     		mov	r0, r4
 406 0104 FFF7FEFF 		bl	_ZN5daisy9AdcHandle5StartEv
 407              	.LVL36:
 408              		.loc 13 65 5 is_stmt 1 view .LVU77
 409              		.loc 13 65 25 is_stmt 0 view .LVU78
 410 0108 0021     		movs	r1, #0
 411 010a 2046     		mov	r0, r4
 412 010c 9FED5F8A 		vldr.32	s16, .L10+8
 413 0110 FFF7FEFF 		bl	_ZNK5daisy9AdcHandle6GetPtrEh
 414              	.LVL37:
 415 0114 0023     		movs	r3, #0
 416 0116 F0EE480A 		vmov.f32	s1, s16
 417 011a 95ED000A 		vldr.32	s0, [r5]
 418 011e 1A46     		mov	r2, r3
 419 0120 0146     		mov	r1, r0
ARM GAS  /var/folders/9s/8rp0_f2s1n31qbztm3b5_fdh0000gn/T//ccCzuEKD.s 			page 21


 420 0122 5B48     		ldr	r0, .L10+12
 421 0124 FFF7FEFF 		bl	_ZN5daisy13AnalogControl4InitEPtfbbf
 422              	.LVL38:
  66:Interface.cpp ****     delay_mix_feedback_knob.Init(hw.adc.GetPtr(1), sample_rate); // ADC 1
 423              		.loc 13 66 5 is_stmt 1 view .LVU79
 424              		.loc 13 66 33 is_stmt 0 view .LVU80
 425 0128 0121     		movs	r1, #1
 426 012a 2046     		mov	r0, r4
 427 012c FFF7FEFF 		bl	_ZNK5daisy9AdcHandle6GetPtrEh
 428              	.LVL39:
 429 0130 0023     		movs	r3, #0
 430 0132 F0EE480A 		vmov.f32	s1, s16
 431 0136 95ED000A 		vldr.32	s0, [r5]
 432 013a 1A46     		mov	r2, r3
 433 013c 0146     		mov	r1, r0
 434 013e 5548     		ldr	r0, .L10+16
 435 0140 FFF7FEFF 		bl	_ZN5daisy13AnalogControl4InitEPtfbbf
 436              	.LVL40:
  67:Interface.cpp ****     env_release_knob.Init(hw.adc.GetPtr(2), sample_rate);       // ADC 2
 437              		.loc 13 67 5 is_stmt 1 view .LVU81
 438              		.loc 13 67 26 is_stmt 0 view .LVU82
 439 0144 0221     		movs	r1, #2
 440 0146 2046     		mov	r0, r4
 441 0148 FFF7FEFF 		bl	_ZNK5daisy9AdcHandle6GetPtrEh
 442              	.LVL41:
 443 014c 0023     		movs	r3, #0
 444 014e F0EE480A 		vmov.f32	s1, s16
 445 0152 95ED000A 		vldr.32	s0, [r5]
 446 0156 1A46     		mov	r2, r3
 447 0158 0146     		mov	r1, r0
 448 015a 4F48     		ldr	r0, .L10+20
 449 015c FFF7FEFF 		bl	_ZN5daisy13AnalogControl4InitEPtfbbf
 450              	.LVL42:
  68:Interface.cpp ****     env_attack_knob.Init(hw.adc.GetPtr(3), sample_rate);        // ADC 3
 451              		.loc 13 68 5 is_stmt 1 view .LVU83
 452              		.loc 13 68 25 is_stmt 0 view .LVU84
 453 0160 0321     		movs	r1, #3
 454 0162 2046     		mov	r0, r4
 455 0164 FFF7FEFF 		bl	_ZNK5daisy9AdcHandle6GetPtrEh
 456              	.LVL43:
 457 0168 0023     		movs	r3, #0
 458 016a F0EE480A 		vmov.f32	s1, s16
 459 016e 95ED000A 		vldr.32	s0, [r5]
 460 0172 1A46     		mov	r2, r3
 461 0174 0146     		mov	r1, r0
 462 0176 4948     		ldr	r0, .L10+24
 463 0178 FFF7FEFF 		bl	_ZN5daisy13AnalogControl4InitEPtfbbf
 464              	.LVL44:
  69:Interface.cpp ****     timbre_knob.Init(hw.adc.GetPtr(4), sample_rate);            // ADC 4
 465              		.loc 13 69 5 is_stmt 1 view .LVU85
 466              		.loc 13 69 21 is_stmt 0 view .LVU86
 467 017c 0421     		movs	r1, #4
 468 017e 2046     		mov	r0, r4
 469 0180 FFF7FEFF 		bl	_ZNK5daisy9AdcHandle6GetPtrEh
 470              	.LVL45:
 471 0184 0023     		movs	r3, #0
 472 0186 F0EE480A 		vmov.f32	s1, s16
ARM GAS  /var/folders/9s/8rp0_f2s1n31qbztm3b5_fdh0000gn/T//ccCzuEKD.s 			page 22


 473 018a 95ED000A 		vldr.32	s0, [r5]
 474 018e 1A46     		mov	r2, r3
 475 0190 0146     		mov	r1, r0
 476 0192 4348     		ldr	r0, .L10+28
 477 0194 FFF7FEFF 		bl	_ZN5daisy13AnalogControl4InitEPtfbbf
 478              	.LVL46:
  70:Interface.cpp ****     harmonics_knob.Init(hw.adc.GetPtr(5), sample_rate);         // ADC 5
 479              		.loc 13 70 5 is_stmt 1 view .LVU87
 480              		.loc 13 70 24 is_stmt 0 view .LVU88
 481 0198 0521     		movs	r1, #5
 482 019a 2046     		mov	r0, r4
 483 019c FFF7FEFF 		bl	_ZNK5daisy9AdcHandle6GetPtrEh
 484              	.LVL47:
 485 01a0 0023     		movs	r3, #0
 486 01a2 F0EE480A 		vmov.f32	s1, s16
 487 01a6 95ED000A 		vldr.32	s0, [r5]
 488 01aa 1A46     		mov	r2, r3
 489 01ac 0146     		mov	r1, r0
 490 01ae 3D48     		ldr	r0, .L10+32
 491 01b0 FFF7FEFF 		bl	_ZN5daisy13AnalogControl4InitEPtfbbf
 492              	.LVL48:
  71:Interface.cpp ****     morph_knob.Init(hw.adc.GetPtr(6), sample_rate);             // ADC 6
 493              		.loc 13 71 5 is_stmt 1 view .LVU89
 494              		.loc 13 71 20 is_stmt 0 view .LVU90
 495 01b4 0621     		movs	r1, #6
 496 01b6 2046     		mov	r0, r4
 497 01b8 FFF7FEFF 		bl	_ZNK5daisy9AdcHandle6GetPtrEh
 498              	.LVL49:
 499 01bc 0023     		movs	r3, #0
 500 01be F0EE480A 		vmov.f32	s1, s16
 501 01c2 95ED000A 		vldr.32	s0, [r5]
 502 01c6 1A46     		mov	r2, r3
 503 01c8 0146     		mov	r1, r0
 504 01ca 3748     		ldr	r0, .L10+36
 505 01cc FFF7FEFF 		bl	_ZN5daisy13AnalogControl4InitEPtfbbf
 506              	.LVL50:
  72:Interface.cpp ****     pitch_knob.Init(hw.adc.GetPtr(7), sample_rate);             // ADC 7
 507              		.loc 13 72 5 is_stmt 1 view .LVU91
 508              		.loc 13 72 20 is_stmt 0 view .LVU92
 509 01d0 0721     		movs	r1, #7
 510 01d2 2046     		mov	r0, r4
 511 01d4 FFF7FEFF 		bl	_ZNK5daisy9AdcHandle6GetPtrEh
 512              	.LVL51:
 513 01d8 0023     		movs	r3, #0
 514 01da F0EE480A 		vmov.f32	s1, s16
 515 01de 95ED000A 		vldr.32	s0, [r5]
 516 01e2 1A46     		mov	r2, r3
 517 01e4 0146     		mov	r1, r0
 518 01e6 3148     		ldr	r0, .L10+40
 519 01e8 FFF7FEFF 		bl	_ZN5daisy13AnalogControl4InitEPtfbbf
 520              	.LVL52:
  73:Interface.cpp ****     arp_pad.Init(hw.adc.GetPtr(8), sample_rate);               // ADC 8
 521              		.loc 13 73 5 is_stmt 1 view .LVU93
 522              		.loc 13 73 17 is_stmt 0 view .LVU94
 523 01ec 0821     		movs	r1, #8
 524 01ee 2046     		mov	r0, r4
 525 01f0 FFF7FEFF 		bl	_ZNK5daisy9AdcHandle6GetPtrEh
ARM GAS  /var/folders/9s/8rp0_f2s1n31qbztm3b5_fdh0000gn/T//ccCzuEKD.s 			page 23


 526              	.LVL53:
 527 01f4 0023     		movs	r3, #0
 528 01f6 F0EE480A 		vmov.f32	s1, s16
 529 01fa 95ED000A 		vldr.32	s0, [r5]
 530 01fe 1A46     		mov	r2, r3
 531 0200 0146     		mov	r1, r0
 532 0202 2B48     		ldr	r0, .L10+44
 533 0204 FFF7FEFF 		bl	_ZN5daisy13AnalogControl4InitEPtfbbf
 534              	.LVL54:
  74:Interface.cpp ****     model_prev_pad.Init(hw.adc.GetPtr(9), sample_rate);        // ADC 9
 535              		.loc 13 74 5 is_stmt 1 view .LVU95
 536              		.loc 13 74 24 is_stmt 0 view .LVU96
 537 0208 0921     		movs	r1, #9
 538 020a 2046     		mov	r0, r4
 539 020c FFF7FEFF 		bl	_ZNK5daisy9AdcHandle6GetPtrEh
 540              	.LVL55:
 541 0210 0023     		movs	r3, #0
 542 0212 F0EE480A 		vmov.f32	s1, s16
 543 0216 95ED000A 		vldr.32	s0, [r5]
 544 021a 1A46     		mov	r2, r3
 545 021c 0146     		mov	r1, r0
 546 021e 2548     		ldr	r0, .L10+48
 547 0220 FFF7FEFF 		bl	_ZN5daisy13AnalogControl4InitEPtfbbf
 548              	.LVL56:
  75:Interface.cpp ****     model_next_pad.Init(hw.adc.GetPtr(10), sample_rate);       // ADC 10
 549              		.loc 13 75 5 is_stmt 1 view .LVU97
 550              		.loc 13 75 24 is_stmt 0 view .LVU98
 551 0224 0A21     		movs	r1, #10
 552 0226 2046     		mov	r0, r4
 553 0228 FFF7FEFF 		bl	_ZNK5daisy9AdcHandle6GetPtrEh
 554              	.LVL57:
 555 022c 0023     		movs	r3, #0
 556 022e F0EE480A 		vmov.f32	s1, s16
 557 0232 95ED000A 		vldr.32	s0, [r5]
 558 0236 1A46     		mov	r2, r3
 559 0238 0146     		mov	r1, r0
 560 023a 1F48     		ldr	r0, .L10+52
 561 023c FFF7FEFF 		bl	_ZN5daisy13AnalogControl4InitEPtfbbf
 562              	.LVL58:
  76:Interface.cpp ****     mod_wheel.Init(hw.adc.GetPtr(11), sample_rate);            // ADC 11
 563              		.loc 13 76 5 is_stmt 1 view .LVU99
 564              		.loc 13 76 19 is_stmt 0 view .LVU100
 565 0240 0B21     		movs	r1, #11
 566 0242 2046     		mov	r0, r4
 567 0244 FFF7FEFF 		bl	_ZNK5daisy9AdcHandle6GetPtrEh
 568              	.LVL59:
 569 0248 0023     		movs	r3, #0
 570 024a F0EE480A 		vmov.f32	s1, s16
 571 024e 0146     		mov	r1, r0
 572 0250 1A46     		mov	r2, r3
 573 0252 95ED000A 		vldr.32	s0, [r5]
 574 0256 1948     		ldr	r0, .L10+56
 575 0258 FFF7FEFF 		bl	_ZN5daisy13AnalogControl4InitEPtfbbf
 576              	.LVL60:
  77:Interface.cpp **** 
  78:Interface.cpp ****     // --- Initialize Buttons ---
  79:Interface.cpp ****     button.Init(hw.GetPin(27), sample_rate / 48.0f);
ARM GAS  /var/folders/9s/8rp0_f2s1n31qbztm3b5_fdh0000gn/T//ccCzuEKD.s 			page 24


 577              		.loc 13 79 5 is_stmt 1 view .LVU101
 578              		.loc 13 79 16 is_stmt 0 view .LVU102
 579 025c 1B20     		movs	r0, #27
 580 025e FFF7FEFF 		bl	_ZN5daisy9DaisySeed6GetPinEh
 581              	.LVL61:
 582 0262 95ED000A 		vldr.32	s0, [r5]
 583 0266 DFED167A 		vldr.32	s15, .L10+60
 584 026a ADF83000 		strh	r0, [sp, #48]	@ movhi
 585 026e 80EE270A 		vdiv.f32	s0, s0, s15
 586 0272 0C99     		ldr	r1, [sp, #48]
 587 0274 1348     		ldr	r0, .L10+64
 588 0276 FFF7FEFF 		bl	_ZN5daisy6Switch4InitE12dsy_gpio_pinf
 589              	.LVL62:
  80:Interface.cpp **** }
 590              		.loc 13 80 1 view .LVU103
 591 027a 41B0     		add	sp, sp, #260
 592              		.cfi_def_cfa_offset 20
 593              		@ sp needed
 594 027c BDEC028B 		vldm	sp!, {d8}
 595              		.cfi_restore 80
 596              		.cfi_restore 81
 597              		.cfi_def_cfa_offset 12
 598 0280 30BD     		pop	{r4, r5, pc}
 599              	.L11:
 600 0282 00BF     		.align	2
 601              	.L10:
 602 0284 18000000 		.word	.LANCHOR0+24
 603 0288 00000000 		.word	.LANCHOR1
 604 028c 6F12033B 		.word	990057071
 605 0290 00000000 		.word	.LANCHOR2
 606 0294 00000000 		.word	.LANCHOR3
 607 0298 00000000 		.word	.LANCHOR4
 608 029c 00000000 		.word	.LANCHOR5
 609 02a0 00000000 		.word	.LANCHOR6
 610 02a4 00000000 		.word	.LANCHOR7
 611 02a8 00000000 		.word	.LANCHOR8
 612 02ac 00000000 		.word	.LANCHOR9
 613 02b0 00000000 		.word	.LANCHOR10
 614 02b4 00000000 		.word	.LANCHOR11
 615 02b8 00000000 		.word	.LANCHOR12
 616 02bc 00000000 		.word	.LANCHOR13
 617 02c0 00004042 		.word	1111490560
 618 02c4 00000000 		.word	.LANCHOR14
 619              		.cfi_endproc
 620              	.LFE5058:
 622              		.section	.text._Z21InitializeTouchSensorv,"ax",%progbits
 623              		.align	1
 624              		.global	_Z21InitializeTouchSensorv
 625              		.syntax unified
 626              		.thumb
 627              		.thumb_func
 629              	_Z21InitializeTouchSensorv:
 630              	.LFB5059:
  81:Interface.cpp **** 
  82:Interface.cpp **** void InitializeTouchSensor() {
 631              		.loc 13 82 30 is_stmt 1 view -0
 632              		.cfi_startproc
ARM GAS  /var/folders/9s/8rp0_f2s1n31qbztm3b5_fdh0000gn/T//ccCzuEKD.s 			page 25


 633              		@ args = 0, pretend = 0, frame = 24
 634              		@ frame_needed = 0, uses_anonymous_args = 0
  83:Interface.cpp ****     // --- Initialize MPR121 ---
  84:Interface.cpp ****     Mpr121::Config touch_config;
 635              		.loc 13 84 5 view .LVU105
  82:Interface.cpp ****     // --- Initialize MPR121 ---
 636              		.loc 13 82 30 is_stmt 0 view .LVU106
 637 0000 7FB5     		push	{r0, r1, r2, r3, r4, r5, r6, lr}
 638              		.cfi_def_cfa_offset 32
 639              		.cfi_offset 14, -4
 640              	.LVL63:
 641              	.LBB242:
 642              	.LBI242:
  58:mpr121_daisy.h **** 
  59:mpr121_daisy.h ****     struct Config
 643              		.loc 8 59 12 is_stmt 1 view .LVU107
 644              	.LBB243:
 645              	.LBI243:
 646              		.file 14 "lib/libdaisy/src/per/i2c.h"
   1:lib/libdaisy/src/per/i2c.h **** #pragma once
   2:lib/libdaisy/src/per/i2c.h **** #include "daisy_core.h"
   3:lib/libdaisy/src/per/i2c.h **** 
   4:lib/libdaisy/src/per/i2c.h **** namespace daisy
   5:lib/libdaisy/src/per/i2c.h **** {
   6:lib/libdaisy/src/per/i2c.h **** /** A handle for interacting with an I2C peripheral. This is a dumb
   7:lib/libdaisy/src/per/i2c.h ****  *  gateway that internally points to one of the four I2C peripherals
   8:lib/libdaisy/src/per/i2c.h ****  *  after it was initialised. It can then be copied and passed around.
   9:lib/libdaisy/src/per/i2c.h ****  *  Use an I2CHandle like this:
  10:lib/libdaisy/src/per/i2c.h ****  *  
  11:lib/libdaisy/src/per/i2c.h ****  *      // setup the configuration
  12:lib/libdaisy/src/per/i2c.h ****  *      I2CHandle::Config i2c_conf;
  13:lib/libdaisy/src/per/i2c.h ****  *      i2c_conf.periph = I2CHandle::Config::Peripheral::I2C_1;
  14:lib/libdaisy/src/per/i2c.h ****  *      i2c_conf.speed  = I2CHandle::Config::Speed::I2C_400KHZ;
  15:lib/libdaisy/src/per/i2c.h ****  *      i2c_conf.mode   = I2CHandle::Config::Mode::Master;
  16:lib/libdaisy/src/per/i2c.h ****  *      i2c_conf.pin_config.scl  = {DSY_GPIOB, 8};
  17:lib/libdaisy/src/per/i2c.h ****  *      i2c_conf.pin_config.sda  = {DSY_GPIOB, 9};
  18:lib/libdaisy/src/per/i2c.h ****  *      // initialise the peripheral
  19:lib/libdaisy/src/per/i2c.h ****  *      I2CHandle i2c;
  20:lib/libdaisy/src/per/i2c.h ****  *      i2c.Init(i2c_conf);
  21:lib/libdaisy/src/per/i2c.h ****  *      // now i2c points to the corresponding peripheral and can be used.
  22:lib/libdaisy/src/per/i2c.h ****  *      i2c.TransmitBlocking( ... );
  23:lib/libdaisy/src/per/i2c.h ****  */
  24:lib/libdaisy/src/per/i2c.h **** class I2CHandle
  25:lib/libdaisy/src/per/i2c.h **** {
  26:lib/libdaisy/src/per/i2c.h ****   public:
  27:lib/libdaisy/src/per/i2c.h ****     /** Contains settings for initialising an I2C interface. */
  28:lib/libdaisy/src/per/i2c.h ****     struct Config
 647              		.loc 14 28 12 view .LVU108
 648              	.LBB244:
 649 0002 1023     		movs	r3, #16
 650              	.LBE244:
 651              	.LBE243:
 652              	.LBE242:
 653              	.LBB247:
 654              	.LBB248:
  60:mpr121_daisy.h ****     {
  61:mpr121_daisy.h ****         I2CHandle::Config i2c_config;
ARM GAS  /var/folders/9s/8rp0_f2s1n31qbztm3b5_fdh0000gn/T//ccCzuEKD.s 			page 26


  62:mpr121_daisy.h ****         uint8_t          i2c_address;
  63:mpr121_daisy.h **** 
  64:mpr121_daisy.h ****         void Defaults()
  65:mpr121_daisy.h ****         {
  66:mpr121_daisy.h ****             i2c_config.periph = I2CHandle::Config::Peripheral::I2C_1;
  67:mpr121_daisy.h ****             i2c_config.speed  = I2CHandle::Config::Speed::I2C_400KHZ;
 655              		.loc 8 67 31 is_stmt 0 view .LVU109
 656 0004 0122     		movs	r2, #1
 657              	.LBE248:
 658              	.LBE247:
  85:Interface.cpp ****     touch_config.Defaults();
  86:Interface.cpp ****     if (!touch_sensor.Init(touch_config)) {
 659              		.loc 13 86 27 view .LVU110
 660 0006 6946     		mov	r1, sp
 661 0008 1548     		ldr	r0, .L15
 662              	.LBB250:
 663              	.LBB246:
 664              	.LBB245:
 665              		.loc 14 28 12 view .LVU111
 666 000a 8DF81030 		strb	r3, [sp, #16]
 667              	.LVL64:
 668              		.loc 14 28 12 view .LVU112
 669              	.LBE245:
 670              	.LBE246:
 671              	.LBE250:
  85:Interface.cpp ****     touch_config.Defaults();
 672              		.loc 13 85 5 is_stmt 1 view .LVU113
 673              	.LBB251:
 674              	.LBI247:
  64:mpr121_daisy.h ****         {
 675              		.loc 8 64 14 view .LVU114
 676              	.LBB249:
  66:mpr121_daisy.h ****             i2c_config.speed  = I2CHandle::Config::Speed::I2C_400KHZ;
 677              		.loc 8 66 13 view .LVU115
  66:mpr121_daisy.h ****             i2c_config.speed  = I2CHandle::Config::Speed::I2C_400KHZ;
 678              		.loc 8 66 31 is_stmt 0 view .LVU116
 679 000e 0023     		movs	r3, #0
  68:mpr121_daisy.h ****             i2c_config.mode   = I2CHandle::Config::Mode::I2C_MASTER;
 680              		.loc 8 68 31 view .LVU117
 681 0010 CDE90223 		strd	r2, r3, [sp, #8]
  66:mpr121_daisy.h ****             i2c_config.speed  = I2CHandle::Config::Speed::I2C_400KHZ;
 682              		.loc 8 66 31 view .LVU118
 683 0014 0093     		str	r3, [sp]
  67:mpr121_daisy.h ****             i2c_config.mode   = I2CHandle::Config::Mode::I2C_MASTER;
 684              		.loc 8 67 13 is_stmt 1 view .LVU119
  69:mpr121_daisy.h ****             i2c_config.pin_config.scl = {DSY_GPIOB, 8};
 685              		.loc 8 69 13 view .LVU120
 686              		.loc 8 69 39 is_stmt 0 view .LVU121
 687 0016 134B     		ldr	r3, .L15+4
 688 0018 1A88     		ldrh	r2, [r3]	@ unaligned
  70:mpr121_daisy.h ****             i2c_config.pin_config.sda = {DSY_GPIOB, 9};
 689              		.loc 8 70 39 view .LVU122
 690 001a 5B88     		ldrh	r3, [r3, #2]	@ unaligned
  69:mpr121_daisy.h ****             i2c_config.pin_config.scl = {DSY_GPIOB, 8};
 691              		.loc 8 69 39 view .LVU123
 692 001c ADF80420 		strh	r2, [sp, #4]	@ unaligned
 693              		.loc 8 70 13 is_stmt 1 view .LVU124
ARM GAS  /var/folders/9s/8rp0_f2s1n31qbztm3b5_fdh0000gn/T//ccCzuEKD.s 			page 27


 694              		.loc 8 70 39 is_stmt 0 view .LVU125
 695 0020 ADF80630 		strh	r3, [sp, #6]	@ unaligned
  71:mpr121_daisy.h ****             i2c_address               = MPR121_I2CADDR_DEFAULT;
 696              		.loc 8 71 13 is_stmt 1 view .LVU126
 697              		.loc 8 71 39 is_stmt 0 view .LVU127
 698 0024 5A23     		movs	r3, #90
 699 0026 8DF81430 		strb	r3, [sp, #20]
 700              	.LVL65:
 701              		.loc 8 71 39 view .LVU128
 702              	.LBE249:
 703              	.LBE251:
 704              		.loc 13 86 5 is_stmt 1 view .LVU129
 705              		.loc 13 86 27 is_stmt 0 view .LVU130
 706 002a FFF7FEFF 		bl	_ZN6Mpr1214InitERKNS_6ConfigE
 707              	.LVL66:
 708              		.loc 13 86 5 view .LVU131
 709 002e 70B9     		cbnz	r0, .L13
 710              	.L14:
  87:Interface.cpp ****         while(1) { hw.SetLed(true); System::Delay(50); hw.SetLed(false); System::Delay(50); }
 711              		.loc 13 87 9 is_stmt 1 discriminator 1 view .LVU132
 712              		.loc 13 87 20 discriminator 1 view .LVU133
 713              		.loc 13 87 29 is_stmt 0 discriminator 1 view .LVU134
 714 0030 0121     		movs	r1, #1
 715 0032 0D48     		ldr	r0, .L15+8
 716 0034 FFF7FEFF 		bl	_ZN5daisy9DaisySeed6SetLedEb
 717              	.LVL67:
 718              		.loc 13 87 37 is_stmt 1 discriminator 1 view .LVU135
 719              		.loc 13 87 50 is_stmt 0 discriminator 1 view .LVU136
 720 0038 3220     		movs	r0, #50
 721 003a FFF7FEFF 		bl	_ZN5daisy6System5DelayEm
 722              	.LVL68:
 723              		.loc 13 87 56 is_stmt 1 discriminator 1 view .LVU137
 724              		.loc 13 87 65 is_stmt 0 discriminator 1 view .LVU138
 725 003e 0021     		movs	r1, #0
 726 0040 0948     		ldr	r0, .L15+8
 727 0042 FFF7FEFF 		bl	_ZN5daisy9DaisySeed6SetLedEb
 728              	.LVL69:
 729              		.loc 13 87 74 is_stmt 1 discriminator 1 view .LVU139
 730              		.loc 13 87 87 is_stmt 0 discriminator 1 view .LVU140
 731 0046 3220     		movs	r0, #50
 732 0048 FFF7FEFF 		bl	_ZN5daisy6System5DelayEm
 733              	.LVL70:
 734              		.loc 13 87 9 is_stmt 1 discriminator 1 view .LVU141
 735 004c F0E7     		b	.L14
 736              	.L13:
 737              	.LBB252:
 738              	.LBI252:
  82:Interface.cpp ****     // --- Initialize MPR121 ---
 739              		.loc 13 82 6 view .LVU142
 740              	.LBB253:
  88:Interface.cpp ****     }
  89:Interface.cpp ****     // Override default thresholds for more sensitivity
  90:Interface.cpp ****     touch_sensor.SetThresholds(6, 3); 
 741              		.loc 13 90 5 view .LVU143
 742              		.loc 13 90 31 is_stmt 0 view .LVU144
 743 004e 0322     		movs	r2, #3
 744 0050 0621     		movs	r1, #6
ARM GAS  /var/folders/9s/8rp0_f2s1n31qbztm3b5_fdh0000gn/T//ccCzuEKD.s 			page 28


 745 0052 0348     		ldr	r0, .L15
 746 0054 FFF7FEFF 		bl	_ZN6Mpr12113SetThresholdsEhh
 747              	.LVL71:
 748              	.LBE253:
 749              	.LBE252:
  91:Interface.cpp **** }
 750              		.loc 13 91 1 view .LVU145
 751 0058 07B0     		add	sp, sp, #28
 752              		.cfi_def_cfa_offset 4
 753              		@ sp needed
 754 005a 5DF804FB 		ldr	pc, [sp], #4
 755              	.L16:
 756 005e 00BF     		.align	2
 757              	.L15:
 758 0060 00000000 		.word	.LANCHOR16
 759 0064 00000000 		.word	.LANCHOR15
 760 0068 00000000 		.word	.LANCHOR0
 761              		.cfi_endproc
 762              	.LFE5059:
 764              		.section	.rodata._Z8Bootloadv.str1.1,"aMS",%progbits,1
 765              	.LC2:
 766 0000 456E7465 		.ascii	"Entering bootloader (ADC combo)...\000"
 766      72696E67 
 766      20626F6F 
 766      746C6F61 
 766      64657220 
 767              		.section	.text._Z8Bootloadv,"ax",%progbits
 768              		.align	1
 769              		.global	_Z8Bootloadv
 770              		.syntax unified
 771              		.thumb
 772              		.thumb_func
 774              	_Z8Bootloadv:
 775              	.LFB5065:
  92:Interface.cpp **** 
  93:Interface.cpp **** void InitializeDelay() {
  94:Interface.cpp ****     // --- Initialize Echo Delay --- 
  95:Interface.cpp ****     delay.Init(sample_rate); 
  96:Interface.cpp ****     delay.SetLagTime(0.02f);         // Short lag for time changes
  97:Interface.cpp ****     delay.SetDelayTime(0.3f, true); // 300ms delay, set immediately
  98:Interface.cpp ****     delay.SetFeedback(0.5f);         // 50% feedback
  99:Interface.cpp **** }
 100:Interface.cpp **** 
 101:Interface.cpp **** void InitializeSynth() {
 102:Interface.cpp ****     InitializeHardware();
 103:Interface.cpp ****     InitializeVoices(); // Call function from Polyphony.cpp
 104:Interface.cpp ****     InitializeControls();
 105:Interface.cpp ****     InitializeTouchSensor();
 106:Interface.cpp ****     InitializeDelay();
 107:Interface.cpp ****     cpu_meter.Init(sample_rate, BLOCK_SIZE); // Initialize the CPU Load Meter
 108:Interface.cpp ****     
 109:Interface.cpp ****     // --- Start Audio ---
 110:Interface.cpp ****     hw.StartAudio(AudioCallback);
 111:Interface.cpp ****     
 112:Interface.cpp ****     // --- Serial Log (Needs to be started for USB reading) ---
 113:Interface.cpp ****     hw.StartLog(false); // Start log immediately (non-blocking)
 114:Interface.cpp ****     
ARM GAS  /var/folders/9s/8rp0_f2s1n31qbztm3b5_fdh0000gn/T//ccCzuEKD.s 			page 29


 115:Interface.cpp ****     hw.PrintLine("Plaits Synth Started - Ready for Bootloader CMD");
 116:Interface.cpp ****     char settings[64];
 117:Interface.cpp ****     // Print Max Voices (compile time)
 118:Interface.cpp ****     sprintf(settings, "Max Voices: %d | Block: %d | SR: %d", NUM_VOICES, BLOCK_SIZE, (int)sample_ra
 119:Interface.cpp ****     hw.PrintLine(settings);
 120:Interface.cpp ****     sprintf(settings, "Engine Range: 0-%d", MAX_ENGINE_INDEX);
 121:Interface.cpp ****     hw.PrintLine(settings);
 122:Interface.cpp ****     sprintf(settings, "Mode: %s", (MAX_ENGINE_INDEX <=3) ? "Poly (0-3)" : "Dynamic Poly"); // Indic
 123:Interface.cpp ****     hw.PrintLine(settings);
 124:Interface.cpp ****     hw.PrintLine("----------------");
 125:Interface.cpp **** }
 126:Interface.cpp **** 
 127:Interface.cpp **** // --- User Interface Functions ---
 128:Interface.cpp **** void Bootload() {
 776              		.loc 13 128 17 is_stmt 1 view -0
 777              		.cfi_startproc
 778              		@ args = 0, pretend = 0, frame = 0
 779              		@ frame_needed = 0, uses_anonymous_args = 0
 129:Interface.cpp ****     // Bootloader via ADC: pads on ADC 8, 9, and 10 pressed simultaneously at any time
 130:Interface.cpp ****     if (arp_pad.GetRawFloat() > 0.5f &&
 780              		.loc 13 130 5 view .LVU147
 781              	.LBB262:
 782              	.LBI262:
  24:lib/libdaisy/src/hid/ctrl.h **** 
  25:lib/libdaisy/src/hid/ctrl.h ****     /** 
  26:lib/libdaisy/src/hid/ctrl.h ****     Initializes the control
  27:lib/libdaisy/src/hid/ctrl.h ****     \param *adcptr is a pointer to the raw adc read value -- This can be acquired with dsy_adc_get_
  28:lib/libdaisy/src/hid/ctrl.h ****     \param sr is the samplerate in Hz that the Process function will be called at.
  29:lib/libdaisy/src/hid/ctrl.h ****     \param flip determines whether the input is flipped (i.e. 1.f - input) or not before being proc
  30:lib/libdaisy/src/hid/ctrl.h ****     \param invert determines whether the input is inverted (i.e. -1.f * input) or note before being
  31:lib/libdaisy/src/hid/ctrl.h ****     \param slew_seconds is the slew time in seconds that it takes for the control to change to a ne
  32:lib/libdaisy/src/hid/ctrl.h ****     */
  33:lib/libdaisy/src/hid/ctrl.h ****     void Init(uint16_t *adcptr,
  34:lib/libdaisy/src/hid/ctrl.h ****               float     sr,
  35:lib/libdaisy/src/hid/ctrl.h ****               bool      flip         = false,
  36:lib/libdaisy/src/hid/ctrl.h ****               bool      invert       = false,
  37:lib/libdaisy/src/hid/ctrl.h ****               float     slew_seconds = 0.002f);
  38:lib/libdaisy/src/hid/ctrl.h **** 
  39:lib/libdaisy/src/hid/ctrl.h ****     /** 
  40:lib/libdaisy/src/hid/ctrl.h ****     This Initializes the AnalogControl for a -5V to 5V inverted input
  41:lib/libdaisy/src/hid/ctrl.h ****     All of the Init details are the same otherwise
  42:lib/libdaisy/src/hid/ctrl.h ****     \param *adcptr Pointer to analog digital converter
  43:lib/libdaisy/src/hid/ctrl.h ****     \param sr Audio engine sample rate
  44:lib/libdaisy/src/hid/ctrl.h ****     */
  45:lib/libdaisy/src/hid/ctrl.h ****     void InitBipolarCv(uint16_t *adcptr, float sr);
  46:lib/libdaisy/src/hid/ctrl.h **** 
  47:lib/libdaisy/src/hid/ctrl.h ****     /** 
  48:lib/libdaisy/src/hid/ctrl.h ****     Filters, and transforms a raw ADC read into a normalized range.
  49:lib/libdaisy/src/hid/ctrl.h ****     this should be called at the rate of specified by samplerate at Init time.   
  50:lib/libdaisy/src/hid/ctrl.h ****     Default Initializations will return 0.0 -> 1.0
  51:lib/libdaisy/src/hid/ctrl.h ****     Bi-polar CV inputs will return -1.0 -> 1.0
  52:lib/libdaisy/src/hid/ctrl.h ****     */
  53:lib/libdaisy/src/hid/ctrl.h ****     float Process();
  54:lib/libdaisy/src/hid/ctrl.h **** 
  55:lib/libdaisy/src/hid/ctrl.h ****     /** Returns the current stored value, without reprocessing */
  56:lib/libdaisy/src/hid/ctrl.h ****     inline float Value() const { return val_; }
  57:lib/libdaisy/src/hid/ctrl.h **** 
ARM GAS  /var/folders/9s/8rp0_f2s1n31qbztm3b5_fdh0000gn/T//ccCzuEKD.s 			page 30


  58:lib/libdaisy/src/hid/ctrl.h ****     /** Directly set the Coefficient of the one pole smoothing filter. 
  59:lib/libdaisy/src/hid/ctrl.h ****      ***/
  60:lib/libdaisy/src/hid/ctrl.h ****     inline void SetCoeff(float val) { coeff_ = val; }
  61:lib/libdaisy/src/hid/ctrl.h **** 
  62:lib/libdaisy/src/hid/ctrl.h ****     /** Returns the raw unsigned 16-bit value from the ADC */
  63:lib/libdaisy/src/hid/ctrl.h ****     inline uint16_t GetRawValue() { return *raw_; }
  64:lib/libdaisy/src/hid/ctrl.h **** 
  65:lib/libdaisy/src/hid/ctrl.h ****     /** Returns a normalized float value representing the current ADC value. */
  66:lib/libdaisy/src/hid/ctrl.h ****     inline float GetRawFloat() { return (float)(*raw_) / 65535.f; }
 783              		.loc 2 66 18 view .LVU148
 784              	.LVL72:
 785              	.LBB263:
 786              		.loc 2 66 34 view .LVU149
 787              		.loc 2 66 34 is_stmt 0 view .LVU150
 788              	.LBE263:
 789              	.LBE262:
 128:Interface.cpp ****     // Bootloader via ADC: pads on ADC 8, 9, and 10 pressed simultaneously at any time
 790              		.loc 13 128 17 view .LVU151
 791 0000 08B5     		push	{r3, lr}
 792              		.cfi_def_cfa_offset 8
 793              		.cfi_offset 3, -8
 794              		.cfi_offset 14, -4
 795              	.LBB265:
 796              	.LBB264:
 797              		.loc 2 66 49 view .LVU152
 798 0002 1C4B     		ldr	r3, .L25
 799              		.loc 2 66 58 view .LVU153
 800 0004 9FED1C7A 		vldr.32	s14, .L25+4
 801              		.loc 2 66 49 view .LVU154
 802 0008 1B68     		ldr	r3, [r3]
 803              		.loc 2 66 41 view .LVU155
 804 000a 1B88     		ldrh	r3, [r3]
 805 000c 07EE903A 		vmov	s15, r3	@ int
 806 0010 F8EE677A 		vcvt.f32.u32	s15, s15
 807              		.loc 2 66 58 view .LVU156
 808 0014 C7EE876A 		vdiv.f32	s13, s15, s14
 809              	.LBE264:
 810              	.LBE265:
 131:Interface.cpp ****         model_prev_pad.GetRawFloat() > 0.5f &&
 811              		.loc 13 131 45 view .LVU157
 812 0018 F6EE007A 		vmov.f32	s15, #5.0e-1
 813 001c F4EEE76A 		vcmpe.f32	s13, s15
 814 0020 F1EE10FA 		vmrs	APSR_nzcv, FPSCR
 815 0024 25DD     		ble	.L17
 816              	.LBB266:
 817              	.LBI266:
 818              		.loc 2 66 18 is_stmt 1 discriminator 1 view .LVU158
 819              	.LVL73:
 820              	.LBB267:
 821              		.loc 2 66 34 discriminator 1 view .LVU159
 822              		.loc 2 66 49 is_stmt 0 discriminator 1 view .LVU160
 823 0026 154B     		ldr	r3, .L25+8
 824 0028 1B68     		ldr	r3, [r3]
 825              		.loc 2 66 41 discriminator 1 view .LVU161
 826 002a 1B88     		ldrh	r3, [r3]
 827 002c 06EE903A 		vmov	s13, r3	@ int
 828 0030 F8EE666A 		vcvt.f32.u32	s13, s13
ARM GAS  /var/folders/9s/8rp0_f2s1n31qbztm3b5_fdh0000gn/T//ccCzuEKD.s 			page 31


 829              		.loc 2 66 58 discriminator 1 view .LVU162
 830 0034 86EE876A 		vdiv.f32	s12, s13, s14
 831              	.LBE267:
 832              	.LBE266:
 130:Interface.cpp ****         model_prev_pad.GetRawFloat() > 0.5f &&
 833              		.loc 13 130 38 discriminator 1 view .LVU163
 834 0038 B4EEE76A 		vcmpe.f32	s12, s15
 835 003c F1EE10FA 		vmrs	APSR_nzcv, FPSCR
 836 0040 17DD     		ble	.L17
 837              	.LBB268:
 838              	.LBI268:
 839              		.loc 2 66 18 is_stmt 1 discriminator 4 view .LVU164
 840              	.LVL74:
 841              	.LBB269:
 842              		.loc 2 66 34 discriminator 4 view .LVU165
 843              		.loc 2 66 49 is_stmt 0 discriminator 4 view .LVU166
 844 0042 0F4B     		ldr	r3, .L25+12
 845 0044 1B68     		ldr	r3, [r3]
 846              		.loc 2 66 41 discriminator 4 view .LVU167
 847 0046 1B88     		ldrh	r3, [r3]
 848 0048 06EE903A 		vmov	s13, r3	@ int
 849 004c F8EE666A 		vcvt.f32.u32	s13, s13
 850              		.loc 2 66 58 discriminator 4 view .LVU168
 851 0050 86EE876A 		vdiv.f32	s12, s13, s14
 852              	.LBE269:
 853              	.LBE268:
 854              		.loc 13 131 45 discriminator 4 view .LVU169
 855 0054 B4EEE76A 		vcmpe.f32	s12, s15
 856 0058 F1EE10FA 		vmrs	APSR_nzcv, FPSCR
 857 005c 09DD     		ble	.L17
 132:Interface.cpp ****         model_next_pad.GetRawFloat() > 0.5f) {
 133:Interface.cpp ****         hw.PrintLine("Entering bootloader (ADC combo)...");
 858              		.loc 13 133 9 is_stmt 1 view .LVU170
 859              	.LVL75:
 860              	.LBB270:
 861              	.LBI270:
  23:lib/libdaisy/src/daisy_seed.h **** 
  24:lib/libdaisy/src/daisy_seed.h ****     /** This function used to provide a pre-initialization configuraiton 
  25:lib/libdaisy/src/daisy_seed.h ****      *  it has since been deprecated, and does nothing.
  26:lib/libdaisy/src/daisy_seed.h ****      */
  27:lib/libdaisy/src/daisy_seed.h ****     void Configure();
  28:lib/libdaisy/src/daisy_seed.h **** 
  29:lib/libdaisy/src/daisy_seed.h ****     /** 
  30:lib/libdaisy/src/daisy_seed.h ****     Initializes the Daisy Seed and the following peripherals:
  31:lib/libdaisy/src/daisy_seed.h ****     SDRAM, QSPI, 24-bit 48kHz Audio via AK4556, Internal USB,
  32:lib/libdaisy/src/daisy_seed.h ****     as well as the built-in LED and Testpoint.
  33:lib/libdaisy/src/daisy_seed.h **** 
  34:lib/libdaisy/src/daisy_seed.h ****     ADCs, DACs, and other special peripherals (such as I2C, SPI, etc.)
  35:lib/libdaisy/src/daisy_seed.h ****     can be initialized using their specific initializers within libdaisy
  36:lib/libdaisy/src/daisy_seed.h ****     for a specific application.
  37:lib/libdaisy/src/daisy_seed.h ****     */
  38:lib/libdaisy/src/daisy_seed.h ****     void Init(bool boost = false);
  39:lib/libdaisy/src/daisy_seed.h **** 
  40:lib/libdaisy/src/daisy_seed.h ****     /** 
  41:lib/libdaisy/src/daisy_seed.h ****     Deinitializes all peripherals automatically handled by `Init`.
  42:lib/libdaisy/src/daisy_seed.h ****     */
  43:lib/libdaisy/src/daisy_seed.h ****     void DeInit();
ARM GAS  /var/folders/9s/8rp0_f2s1n31qbztm3b5_fdh0000gn/T//ccCzuEKD.s 			page 32


  44:lib/libdaisy/src/daisy_seed.h **** 
  45:lib/libdaisy/src/daisy_seed.h ****     /** 
  46:lib/libdaisy/src/daisy_seed.h ****     Wait some ms before going on.
  47:lib/libdaisy/src/daisy_seed.h ****     \param del Delay time in ms.
  48:lib/libdaisy/src/daisy_seed.h ****     */
  49:lib/libdaisy/src/daisy_seed.h ****     void DelayMs(size_t del);
  50:lib/libdaisy/src/daisy_seed.h **** 
  51:lib/libdaisy/src/daisy_seed.h ****     /** 
  52:lib/libdaisy/src/daisy_seed.h ****     Returns the gpio_pin corresponding to the index 0-31.
  53:lib/libdaisy/src/daisy_seed.h ****     For the given GPIO on the Daisy Seed (labeled 1-32 in docs).
  54:lib/libdaisy/src/daisy_seed.h ****     */
  55:lib/libdaisy/src/daisy_seed.h ****     static dsy_gpio_pin GetPin(uint8_t pin_idx);
  56:lib/libdaisy/src/daisy_seed.h **** 
  57:lib/libdaisy/src/daisy_seed.h ****     /** Begins the audio for the seeds builtin audio.
  58:lib/libdaisy/src/daisy_seed.h ****     the specified callback will get called whenever
  59:lib/libdaisy/src/daisy_seed.h ****     new data is ready to be prepared.
  60:lib/libdaisy/src/daisy_seed.h ****     */
  61:lib/libdaisy/src/daisy_seed.h ****     void StartAudio(AudioHandle::InterleavingAudioCallback cb);
  62:lib/libdaisy/src/daisy_seed.h **** 
  63:lib/libdaisy/src/daisy_seed.h ****     /** Begins the audio for the seeds builtin audio.
  64:lib/libdaisy/src/daisy_seed.h ****     the specified callback will get called whenever
  65:lib/libdaisy/src/daisy_seed.h ****     new data is ready to be prepared.
  66:lib/libdaisy/src/daisy_seed.h ****     This will use the newer non-interleaved callback.
  67:lib/libdaisy/src/daisy_seed.h ****     */
  68:lib/libdaisy/src/daisy_seed.h ****     void StartAudio(AudioHandle::AudioCallback cb);
  69:lib/libdaisy/src/daisy_seed.h **** 
  70:lib/libdaisy/src/daisy_seed.h ****     /** Changes to a new interleaved callback
  71:lib/libdaisy/src/daisy_seed.h ****      */
  72:lib/libdaisy/src/daisy_seed.h ****     void ChangeAudioCallback(AudioHandle::InterleavingAudioCallback cb);
  73:lib/libdaisy/src/daisy_seed.h **** 
  74:lib/libdaisy/src/daisy_seed.h ****     /** Changes to a new multichannel callback
  75:lib/libdaisy/src/daisy_seed.h ****      */
  76:lib/libdaisy/src/daisy_seed.h ****     void ChangeAudioCallback(AudioHandle::AudioCallback cb);
  77:lib/libdaisy/src/daisy_seed.h **** 
  78:lib/libdaisy/src/daisy_seed.h ****     /** Stops the audio if it is running. */
  79:lib/libdaisy/src/daisy_seed.h ****     void StopAudio();
  80:lib/libdaisy/src/daisy_seed.h **** 
  81:lib/libdaisy/src/daisy_seed.h ****     /** Updates the Audio Sample Rate, and reinitializes.
  82:lib/libdaisy/src/daisy_seed.h ****      ** Audio must be stopped for this to work.
  83:lib/libdaisy/src/daisy_seed.h ****      */
  84:lib/libdaisy/src/daisy_seed.h ****     void SetAudioSampleRate(SaiHandle::Config::SampleRate samplerate);
  85:lib/libdaisy/src/daisy_seed.h **** 
  86:lib/libdaisy/src/daisy_seed.h ****     /** Returns the audio sample rate in Hz as a floating point number.
  87:lib/libdaisy/src/daisy_seed.h ****      */
  88:lib/libdaisy/src/daisy_seed.h ****     float AudioSampleRate();
  89:lib/libdaisy/src/daisy_seed.h **** 
  90:lib/libdaisy/src/daisy_seed.h ****     /** Sets the number of samples processed per channel by the audio callback.
  91:lib/libdaisy/src/daisy_seed.h ****      */
  92:lib/libdaisy/src/daisy_seed.h ****     void SetAudioBlockSize(size_t blocksize);
  93:lib/libdaisy/src/daisy_seed.h **** 
  94:lib/libdaisy/src/daisy_seed.h ****     /** Returns the number of samples per channel in a block of audio. */
  95:lib/libdaisy/src/daisy_seed.h ****     size_t AudioBlockSize();
  96:lib/libdaisy/src/daisy_seed.h **** 
  97:lib/libdaisy/src/daisy_seed.h ****     /** Returns the rate in Hz that the Audio callback is called */
  98:lib/libdaisy/src/daisy_seed.h ****     float AudioCallbackRate() const;
  99:lib/libdaisy/src/daisy_seed.h **** 
 100:lib/libdaisy/src/daisy_seed.h ****     /** Sets the state of the built in LED
ARM GAS  /var/folders/9s/8rp0_f2s1n31qbztm3b5_fdh0000gn/T//ccCzuEKD.s 			page 33


 101:lib/libdaisy/src/daisy_seed.h ****      */
 102:lib/libdaisy/src/daisy_seed.h ****     void SetLed(bool state);
 103:lib/libdaisy/src/daisy_seed.h **** 
 104:lib/libdaisy/src/daisy_seed.h ****     /** Sets the state of the test point near pin 10
 105:lib/libdaisy/src/daisy_seed.h ****      */
 106:lib/libdaisy/src/daisy_seed.h ****     void SetTestPoint(bool state);
 107:lib/libdaisy/src/daisy_seed.h **** 
 108:lib/libdaisy/src/daisy_seed.h ****     /** Print formatted debug log message
 109:lib/libdaisy/src/daisy_seed.h ****      */
 110:lib/libdaisy/src/daisy_seed.h ****     template <typename... VA>
 111:lib/libdaisy/src/daisy_seed.h ****     static void Print(const char* format, VA... va)
 112:lib/libdaisy/src/daisy_seed.h ****     {
 113:lib/libdaisy/src/daisy_seed.h ****         Log::Print(format, va...);
 114:lib/libdaisy/src/daisy_seed.h ****     }
 115:lib/libdaisy/src/daisy_seed.h **** 
 116:lib/libdaisy/src/daisy_seed.h ****     /** Print formatted debug log message with automatic line termination
 117:lib/libdaisy/src/daisy_seed.h ****     */
 118:lib/libdaisy/src/daisy_seed.h ****     template <typename... VA>
 119:lib/libdaisy/src/daisy_seed.h ****     static void PrintLine(const char* format, VA... va)
 862              		.loc 3 119 17 view .LVU171
 863              	.LBB271:
 120:lib/libdaisy/src/daisy_seed.h ****     {
 121:lib/libdaisy/src/daisy_seed.h ****         Log::PrintLine(format, va...);
 864              		.loc 3 121 23 is_stmt 0 view .LVU172
 865 005e 0948     		ldr	r0, .L25+16
 866 0060 FFF7FEFF 		bl	_ZN5daisy6LoggerILNS_17LoggerDestinationE1EE9PrintLineEPKcz
 867              	.LVL76:
 868              		.loc 3 121 23 view .LVU173
 869              	.LBE271:
 870              	.LBE270:
 134:Interface.cpp ****         System::Delay(100);
 871              		.loc 13 134 9 is_stmt 1 view .LVU174
 872              		.loc 13 134 22 is_stmt 0 view .LVU175
 873 0064 6420     		movs	r0, #100
 874 0066 FFF7FEFF 		bl	_ZN5daisy6System5DelayEm
 875              	.LVL77:
 135:Interface.cpp ****         System::ResetToBootloader();
 876              		.loc 13 135 9 is_stmt 1 view .LVU176
 136:Interface.cpp ****     }
 137:Interface.cpp **** }
 877              		.loc 13 137 1 is_stmt 0 view .LVU177
 878 006a BDE80840 		pop	{r3, lr}
 879              		.cfi_remember_state
 880              		.cfi_restore 14
 881              		.cfi_restore 3
 882              		.cfi_def_cfa_offset 0
 135:Interface.cpp ****         System::ResetToBootloader();
 883              		.loc 13 135 34 view .LVU178
 884 006e FFF7FEBF 		b	_ZN5daisy6System17ResetToBootloaderEv
 885              	.LVL78:
 886              	.L17:
 887              		.cfi_restore_state
 888              		.loc 13 137 1 view .LVU179
 889 0072 08BD     		pop	{r3, pc}
 890              	.L26:
 891              		.align	2
 892              	.L25:
ARM GAS  /var/folders/9s/8rp0_f2s1n31qbztm3b5_fdh0000gn/T//ccCzuEKD.s 			page 34


 893 0074 00000000 		.word	.LANCHOR10
 894 0078 00FF7F47 		.word	1199570688
 895 007c 00000000 		.word	.LANCHOR11
 896 0080 00000000 		.word	.LANCHOR12
 897 0084 00000000 		.word	.LC2
 898              		.cfi_endproc
 899              	.LFE5065:
 901              		.section	.text._Z9UpdateLEDv,"ax",%progbits
 902              		.align	1
 903              		.global	_Z9UpdateLEDv
 904              		.syntax unified
 905              		.thumb
 906              		.thumb_func
 908              	_Z9UpdateLEDv:
 909              	.LFB5066:
 138:Interface.cpp **** 
 139:Interface.cpp **** void UpdateLED() {
 910              		.loc 13 139 18 is_stmt 1 view -0
 911              		.cfi_startproc
 912              		@ args = 0, pretend = 0, frame = 0
 913              		@ frame_needed = 0, uses_anonymous_args = 0
 140:Interface.cpp ****     // LED based on voice activity (any voice active)
 141:Interface.cpp ****     bool any_voice_active = false;
 914              		.loc 13 141 5 view .LVU181
 915              	.LVL79:
 142:Interface.cpp ****     for(int v=0; v<NUM_VOICES; ++v) { 
 916              		.loc 13 142 5 view .LVU182
 917              	.LBB272:
 918              		.loc 13 142 19 view .LVU183
 919              	.LBE272:
 139:Interface.cpp ****     // LED based on voice activity (any voice active)
 920              		.loc 13 139 18 is_stmt 0 view .LVU184
 921 0000 08B5     		push	{r3, lr}
 922              		.cfi_def_cfa_offset 8
 923              		.cfi_offset 3, -8
 924              		.cfi_offset 14, -4
 925 0002 0D4A     		ldr	r2, .L32
 926              	.LBB273:
 927              		.loc 13 142 13 view .LVU185
 928 0004 0023     		movs	r3, #0
 929              	.LVL80:
 930              	.L30:
 143:Interface.cpp ****         if(voice_active[v]) { 
 931              		.loc 13 143 9 is_stmt 1 view .LVU186
 932              		.loc 13 143 26 is_stmt 0 view .LVU187
 933 0006 12F8011B 		ldrb	r1, [r2], #1	@ zero_extendqisi2
 934              		.loc 13 143 9 view .LVU188
 935 000a 79B9     		cbnz	r1, .L28
 142:Interface.cpp ****     for(int v=0; v<NUM_VOICES; ++v) { 
 936              		.loc 13 142 5 is_stmt 1 discriminator 2 view .LVU189
 937 000c 0133     		adds	r3, r3, #1
 938              	.LVL81:
 142:Interface.cpp ****     for(int v=0; v<NUM_VOICES; ++v) { 
 939              		.loc 13 142 19 discriminator 2 view .LVU190
 940 000e 042B     		cmp	r3, #4
 941 0010 F9D1     		bne	.L30
 142:Interface.cpp ****     for(int v=0; v<NUM_VOICES; ++v) { 
ARM GAS  /var/folders/9s/8rp0_f2s1n31qbztm3b5_fdh0000gn/T//ccCzuEKD.s 			page 35


 942              		.loc 13 142 19 is_stmt 0 discriminator 2 view .LVU191
 943              	.LBE273:
 144:Interface.cpp ****             any_voice_active = true; 
 145:Interface.cpp ****             break; 
 146:Interface.cpp ****         } 
 147:Interface.cpp ****     }
 148:Interface.cpp ****     
 149:Interface.cpp ****     bool led_on = any_voice_active;
 944              		.loc 13 149 5 is_stmt 1 view .LVU192
 945              	.LVL82:
 150:Interface.cpp ****     if (!any_voice_active && (System::GetNow() % 1000) < 500) { // Blink if inactive
 946              		.loc 13 150 5 view .LVU193
 947              		.loc 13 150 45 is_stmt 0 view .LVU194
 948 0012 FFF7FEFF 		bl	_ZN5daisy6System6GetNowEv
 949              	.LVL83:
 950              		.loc 13 150 48 view .LVU195
 951 0016 4FF47A71 		mov	r1, #1000
 952 001a B0FBF1F3 		udiv	r3, r0, r1
 953 001e 03FB1101 		mls	r1, r3, r1, r0
 954              		.loc 13 150 27 view .LVU196
 955 0022 B1F5FA7F 		cmp	r1, #500
 956 0026 2CBF     		ite	cs
 957 0028 0021     		movcs	r1, #0
 958 002a 0121     		movcc	r1, #1
 959              	.LVL84:
 960              	.L28:
 151:Interface.cpp ****         led_on = true;
 152:Interface.cpp ****     }
 153:Interface.cpp ****     hw.SetLed(led_on);
 961              		.loc 13 153 5 is_stmt 1 view .LVU197
 962              		.loc 13 153 14 is_stmt 0 view .LVU198
 963 002c 0348     		ldr	r0, .L32+4
 154:Interface.cpp **** } ...
 964              		.loc 13 154 1 view .LVU199
 965 002e BDE80840 		pop	{r3, lr}
 966              		.cfi_restore 14
 967              		.cfi_restore 3
 968              		.cfi_def_cfa_offset 0
 153:Interface.cpp ****     hw.SetLed(led_on);
 969              		.loc 13 153 14 view .LVU200
 970 0032 FFF7FEBF 		b	_ZN5daisy9DaisySeed6SetLedEb
 971              	.LVL85:
 972              	.L33:
 153:Interface.cpp ****     hw.SetLed(led_on);
 973              		.loc 13 153 14 view .LVU201
 974 0036 00BF     		.align	2
 975              	.L32:
 976 0038 00000000 		.word	voice_active
 977 003c 00000000 		.word	.LANCHOR0
 978              		.cfi_endproc
 979              	.LFE5066:
 981              		.section	.text._ZN10infrasonic13BiquadCascadeILj1ELNS_13BiquadSection10FilterTypeE2EE18updateCoeff
 982              		.align	1
 983              		.weak	_ZN10infrasonic13BiquadCascadeILj1ELNS_13BiquadSection10FilterTypeE2EE18updateCoefficientsEv
 984              		.syntax unified
 985              		.thumb
 986              		.thumb_func
ARM GAS  /var/folders/9s/8rp0_f2s1n31qbztm3b5_fdh0000gn/T//ccCzuEKD.s 			page 36


 988              	_ZN10infrasonic13BiquadCascadeILj1ELNS_13BiquadSection10FilterTypeE2EE18updateCoefficientsEv:
 989              	.LVL86:
 990              	.LFB5717:
  78:Effects/BiquadFilters.h **** 
  79:Effects/BiquadFilters.h ****         // Individual param update methods recalculate coefficients
  80:Effects/BiquadFilters.h ****         // every time one of them is called. To update everything at once,
  81:Effects/BiquadFilters.h ****         // use SetParams()
  82:Effects/BiquadFilters.h **** 
  83:Effects/BiquadFilters.h ****         void Init(const float sample_rate) {
  84:Effects/BiquadFilters.h ****             sample_rate_ = sample_rate;
  85:Effects/BiquadFilters.h ****             cutoff_hz_ = sample_rate * 0.25f;
  86:Effects/BiquadFilters.h ****             SetFlatResponse();
  87:Effects/BiquadFilters.h ****         }
  88:Effects/BiquadFilters.h **** 
  89:Effects/BiquadFilters.h ****         inline void SetCutoff(const float cutoff_hz)
  90:Effects/BiquadFilters.h ****         {
  91:Effects/BiquadFilters.h ****             cutoff_hz_ = daisysp::fclamp(cutoff_hz, 1.f, sample_rate_ * 0.5f);
  92:Effects/BiquadFilters.h ****             updateCoefficients();
  93:Effects/BiquadFilters.h ****         }
  94:Effects/BiquadFilters.h **** 
  95:Effects/BiquadFilters.h ****         inline void SetQ(const float q)
  96:Effects/BiquadFilters.h ****         {
  97:Effects/BiquadFilters.h ****             for (size_t i=0; i<NumSections; i++) {
  98:Effects/BiquadFilters.h ****                 q_[i] = daisysp::fmax(q, 0.1f);
  99:Effects/BiquadFilters.h ****             }
 100:Effects/BiquadFilters.h ****             updateCoefficients();
 101:Effects/BiquadFilters.h ****         }
 102:Effects/BiquadFilters.h **** 
 103:Effects/BiquadFilters.h ****         /// Update params simultaneously, recalculating coefficients only once 
 104:Effects/BiquadFilters.h ****         inline void SetParams(const float cutoff_hz, const float q)
 105:Effects/BiquadFilters.h ****         {
 106:Effects/BiquadFilters.h ****             cutoff_hz_ = daisysp::fclamp(cutoff_hz, 1.f, sample_rate_ * 0.5f);
 107:Effects/BiquadFilters.h ****             for (size_t i=0; i<NumSections; i++) {
 108:Effects/BiquadFilters.h ****                 q_[i] = daisysp::fmax(q, 0.1f);
 109:Effects/BiquadFilters.h ****             }
 110:Effects/BiquadFilters.h ****             updateCoefficients();
 111:Effects/BiquadFilters.h ****         }
 112:Effects/BiquadFilters.h **** 
 113:Effects/BiquadFilters.h ****         /// Sets Q values in each section for a truly "flat" (-3dB cutoff point) response
 114:Effects/BiquadFilters.h ****         /// NOTE: per limitations of this class this only works for even-order filters
 115:Effects/BiquadFilters.h ****         inline void SetFlatResponse()
 116:Effects/BiquadFilters.h ****         {
 117:Effects/BiquadFilters.h ****             const float angleIncrement = 1.f / (4.f * static_cast<float>(NumSections));
 118:Effects/BiquadFilters.h ****             for (size_t i=0; i<NumSections; i++) {
 119:Effects/BiquadFilters.h ****                 q_[i] = 1.f / (2.f * cosf(PI_F * (angleIncrement * (i * 2 + 1))));
 120:Effects/BiquadFilters.h ****             }
 121:Effects/BiquadFilters.h ****             updateCoefficients();
 122:Effects/BiquadFilters.h ****         }
 123:Effects/BiquadFilters.h **** 
 124:Effects/BiquadFilters.h ****         inline float Process(const float in)
 125:Effects/BiquadFilters.h ****         {
 126:Effects/BiquadFilters.h ****             float out = in;
 127:Effects/BiquadFilters.h ****             for (auto &biquad : biquads_) {
 128:Effects/BiquadFilters.h ****                 out = biquad.Process(out, 0);
 129:Effects/BiquadFilters.h ****             }
 130:Effects/BiquadFilters.h ****             return out;
 131:Effects/BiquadFilters.h ****         }
ARM GAS  /var/folders/9s/8rp0_f2s1n31qbztm3b5_fdh0000gn/T//ccCzuEKD.s 			page 37


 132:Effects/BiquadFilters.h **** 
 133:Effects/BiquadFilters.h ****         /// In-place stereo processing
 134:Effects/BiquadFilters.h ****         inline void ProcessStereo(float &sampL, float &sampR)
 135:Effects/BiquadFilters.h ****         {
 136:Effects/BiquadFilters.h ****             for (auto &biquad : biquads_) {
 137:Effects/BiquadFilters.h ****                 sampL = biquad.Process(sampL, 0);
 138:Effects/BiquadFilters.h ****                 sampR = biquad.Process(sampR, 1);
 139:Effects/BiquadFilters.h ****             }
 140:Effects/BiquadFilters.h ****         }
 141:Effects/BiquadFilters.h **** 
 142:Effects/BiquadFilters.h ****     private:
 143:Effects/BiquadFilters.h **** 
 144:Effects/BiquadFilters.h ****         float sample_rate_;
 145:Effects/BiquadFilters.h ****         float cutoff_hz_, q_[NumSections];
 146:Effects/BiquadFilters.h **** 
 147:Effects/BiquadFilters.h ****         std::array<BiquadSection, NumSections> biquads_;
 148:Effects/BiquadFilters.h **** 
 149:Effects/BiquadFilters.h ****         inline void updateCoefficients() {
 991              		.loc 10 149 21 is_stmt 1 view -0
 992              		.cfi_startproc
 993              		@ args = 0, pretend = 0, frame = 40
 994              		@ frame_needed = 0, uses_anonymous_args = 0
 995              	.LBB274:
 150:Effects/BiquadFilters.h ****             for (size_t i=0; i<NumSections; i++) {
 996              		.loc 10 150 31 view .LVU203
 997              	.LBB275:
 998              	.LBI275:
  95:/Library/DaisyToolchain/0.2.0/arm/arm-none-eabi/include/c++/10.3.1/array ****     {
  96:/Library/DaisyToolchain/0.2.0/arm/arm-none-eabi/include/c++/10.3.1/array ****       typedef _Tp 	    			      value_type;
  97:/Library/DaisyToolchain/0.2.0/arm/arm-none-eabi/include/c++/10.3.1/array ****       typedef value_type*			      pointer;
  98:/Library/DaisyToolchain/0.2.0/arm/arm-none-eabi/include/c++/10.3.1/array ****       typedef const value_type*                       const_pointer;
  99:/Library/DaisyToolchain/0.2.0/arm/arm-none-eabi/include/c++/10.3.1/array ****       typedef value_type&                   	      reference;
 100:/Library/DaisyToolchain/0.2.0/arm/arm-none-eabi/include/c++/10.3.1/array ****       typedef const value_type&             	      const_reference;
 101:/Library/DaisyToolchain/0.2.0/arm/arm-none-eabi/include/c++/10.3.1/array ****       typedef value_type*          		      iterator;
 102:/Library/DaisyToolchain/0.2.0/arm/arm-none-eabi/include/c++/10.3.1/array ****       typedef const value_type*			      const_iterator;
 103:/Library/DaisyToolchain/0.2.0/arm/arm-none-eabi/include/c++/10.3.1/array ****       typedef std::size_t                    	      size_type;
 104:/Library/DaisyToolchain/0.2.0/arm/arm-none-eabi/include/c++/10.3.1/array ****       typedef std::ptrdiff_t                   	      difference_type;
 105:/Library/DaisyToolchain/0.2.0/arm/arm-none-eabi/include/c++/10.3.1/array ****       typedef std::reverse_iterator<iterator>	      reverse_iterator;
 106:/Library/DaisyToolchain/0.2.0/arm/arm-none-eabi/include/c++/10.3.1/array ****       typedef std::reverse_iterator<const_iterator>   const_reverse_iterator;
 107:/Library/DaisyToolchain/0.2.0/arm/arm-none-eabi/include/c++/10.3.1/array **** 
 108:/Library/DaisyToolchain/0.2.0/arm/arm-none-eabi/include/c++/10.3.1/array ****       // Support for zero-sized arrays mandatory.
 109:/Library/DaisyToolchain/0.2.0/arm/arm-none-eabi/include/c++/10.3.1/array ****       typedef _GLIBCXX_STD_C::__array_traits<_Tp, _Nm> _AT_Type;
 110:/Library/DaisyToolchain/0.2.0/arm/arm-none-eabi/include/c++/10.3.1/array ****       typename _AT_Type::_Type                         _M_elems;
 111:/Library/DaisyToolchain/0.2.0/arm/arm-none-eabi/include/c++/10.3.1/array **** 
 112:/Library/DaisyToolchain/0.2.0/arm/arm-none-eabi/include/c++/10.3.1/array ****       // No explicit construct/copy/destroy for aggregate type.
 113:/Library/DaisyToolchain/0.2.0/arm/arm-none-eabi/include/c++/10.3.1/array **** 
 114:/Library/DaisyToolchain/0.2.0/arm/arm-none-eabi/include/c++/10.3.1/array ****       // DR 776.
 115:/Library/DaisyToolchain/0.2.0/arm/arm-none-eabi/include/c++/10.3.1/array ****       _GLIBCXX20_CONSTEXPR void
 116:/Library/DaisyToolchain/0.2.0/arm/arm-none-eabi/include/c++/10.3.1/array ****       fill(const value_type& __u)
 117:/Library/DaisyToolchain/0.2.0/arm/arm-none-eabi/include/c++/10.3.1/array ****       { std::fill_n(begin(), size(), __u); }
 118:/Library/DaisyToolchain/0.2.0/arm/arm-none-eabi/include/c++/10.3.1/array **** 
 119:/Library/DaisyToolchain/0.2.0/arm/arm-none-eabi/include/c++/10.3.1/array ****       _GLIBCXX20_CONSTEXPR void
 120:/Library/DaisyToolchain/0.2.0/arm/arm-none-eabi/include/c++/10.3.1/array ****       swap(array& __other)
 121:/Library/DaisyToolchain/0.2.0/arm/arm-none-eabi/include/c++/10.3.1/array ****       noexcept(_AT_Type::_Is_nothrow_swappable::value)
 122:/Library/DaisyToolchain/0.2.0/arm/arm-none-eabi/include/c++/10.3.1/array ****       { std::swap_ranges(begin(), end(), __other.begin()); }
 123:/Library/DaisyToolchain/0.2.0/arm/arm-none-eabi/include/c++/10.3.1/array **** 
 124:/Library/DaisyToolchain/0.2.0/arm/arm-none-eabi/include/c++/10.3.1/array ****       // Iterators.
ARM GAS  /var/folders/9s/8rp0_f2s1n31qbztm3b5_fdh0000gn/T//ccCzuEKD.s 			page 38


 125:/Library/DaisyToolchain/0.2.0/arm/arm-none-eabi/include/c++/10.3.1/array ****       _GLIBCXX17_CONSTEXPR iterator
 126:/Library/DaisyToolchain/0.2.0/arm/arm-none-eabi/include/c++/10.3.1/array ****       begin() noexcept
 127:/Library/DaisyToolchain/0.2.0/arm/arm-none-eabi/include/c++/10.3.1/array ****       { return iterator(data()); }
 128:/Library/DaisyToolchain/0.2.0/arm/arm-none-eabi/include/c++/10.3.1/array **** 
 129:/Library/DaisyToolchain/0.2.0/arm/arm-none-eabi/include/c++/10.3.1/array ****       _GLIBCXX17_CONSTEXPR const_iterator
 130:/Library/DaisyToolchain/0.2.0/arm/arm-none-eabi/include/c++/10.3.1/array ****       begin() const noexcept
 131:/Library/DaisyToolchain/0.2.0/arm/arm-none-eabi/include/c++/10.3.1/array ****       { return const_iterator(data()); }
 132:/Library/DaisyToolchain/0.2.0/arm/arm-none-eabi/include/c++/10.3.1/array **** 
 133:/Library/DaisyToolchain/0.2.0/arm/arm-none-eabi/include/c++/10.3.1/array ****       _GLIBCXX17_CONSTEXPR iterator
 134:/Library/DaisyToolchain/0.2.0/arm/arm-none-eabi/include/c++/10.3.1/array ****       end() noexcept
 135:/Library/DaisyToolchain/0.2.0/arm/arm-none-eabi/include/c++/10.3.1/array ****       { return iterator(data() + _Nm); }
 136:/Library/DaisyToolchain/0.2.0/arm/arm-none-eabi/include/c++/10.3.1/array **** 
 137:/Library/DaisyToolchain/0.2.0/arm/arm-none-eabi/include/c++/10.3.1/array ****       _GLIBCXX17_CONSTEXPR const_iterator
 138:/Library/DaisyToolchain/0.2.0/arm/arm-none-eabi/include/c++/10.3.1/array ****       end() const noexcept
 139:/Library/DaisyToolchain/0.2.0/arm/arm-none-eabi/include/c++/10.3.1/array ****       { return const_iterator(data() + _Nm); }
 140:/Library/DaisyToolchain/0.2.0/arm/arm-none-eabi/include/c++/10.3.1/array **** 
 141:/Library/DaisyToolchain/0.2.0/arm/arm-none-eabi/include/c++/10.3.1/array ****       _GLIBCXX17_CONSTEXPR reverse_iterator
 142:/Library/DaisyToolchain/0.2.0/arm/arm-none-eabi/include/c++/10.3.1/array ****       rbegin() noexcept
 143:/Library/DaisyToolchain/0.2.0/arm/arm-none-eabi/include/c++/10.3.1/array ****       { return reverse_iterator(end()); }
 144:/Library/DaisyToolchain/0.2.0/arm/arm-none-eabi/include/c++/10.3.1/array **** 
 145:/Library/DaisyToolchain/0.2.0/arm/arm-none-eabi/include/c++/10.3.1/array ****       _GLIBCXX17_CONSTEXPR const_reverse_iterator
 146:/Library/DaisyToolchain/0.2.0/arm/arm-none-eabi/include/c++/10.3.1/array ****       rbegin() const noexcept
 147:/Library/DaisyToolchain/0.2.0/arm/arm-none-eabi/include/c++/10.3.1/array ****       { return const_reverse_iterator(end()); }
 148:/Library/DaisyToolchain/0.2.0/arm/arm-none-eabi/include/c++/10.3.1/array **** 
 149:/Library/DaisyToolchain/0.2.0/arm/arm-none-eabi/include/c++/10.3.1/array ****       _GLIBCXX17_CONSTEXPR reverse_iterator
 150:/Library/DaisyToolchain/0.2.0/arm/arm-none-eabi/include/c++/10.3.1/array ****       rend() noexcept
 151:/Library/DaisyToolchain/0.2.0/arm/arm-none-eabi/include/c++/10.3.1/array ****       { return reverse_iterator(begin()); }
 152:/Library/DaisyToolchain/0.2.0/arm/arm-none-eabi/include/c++/10.3.1/array **** 
 153:/Library/DaisyToolchain/0.2.0/arm/arm-none-eabi/include/c++/10.3.1/array ****       _GLIBCXX17_CONSTEXPR const_reverse_iterator
 154:/Library/DaisyToolchain/0.2.0/arm/arm-none-eabi/include/c++/10.3.1/array ****       rend() const noexcept
 155:/Library/DaisyToolchain/0.2.0/arm/arm-none-eabi/include/c++/10.3.1/array ****       { return const_reverse_iterator(begin()); }
 156:/Library/DaisyToolchain/0.2.0/arm/arm-none-eabi/include/c++/10.3.1/array **** 
 157:/Library/DaisyToolchain/0.2.0/arm/arm-none-eabi/include/c++/10.3.1/array ****       _GLIBCXX17_CONSTEXPR const_iterator
 158:/Library/DaisyToolchain/0.2.0/arm/arm-none-eabi/include/c++/10.3.1/array ****       cbegin() const noexcept
 159:/Library/DaisyToolchain/0.2.0/arm/arm-none-eabi/include/c++/10.3.1/array ****       { return const_iterator(data()); }
 160:/Library/DaisyToolchain/0.2.0/arm/arm-none-eabi/include/c++/10.3.1/array **** 
 161:/Library/DaisyToolchain/0.2.0/arm/arm-none-eabi/include/c++/10.3.1/array ****       _GLIBCXX17_CONSTEXPR const_iterator
 162:/Library/DaisyToolchain/0.2.0/arm/arm-none-eabi/include/c++/10.3.1/array ****       cend() const noexcept
 163:/Library/DaisyToolchain/0.2.0/arm/arm-none-eabi/include/c++/10.3.1/array ****       { return const_iterator(data() + _Nm); }
 164:/Library/DaisyToolchain/0.2.0/arm/arm-none-eabi/include/c++/10.3.1/array **** 
 165:/Library/DaisyToolchain/0.2.0/arm/arm-none-eabi/include/c++/10.3.1/array ****       _GLIBCXX17_CONSTEXPR const_reverse_iterator
 166:/Library/DaisyToolchain/0.2.0/arm/arm-none-eabi/include/c++/10.3.1/array ****       crbegin() const noexcept
 167:/Library/DaisyToolchain/0.2.0/arm/arm-none-eabi/include/c++/10.3.1/array ****       { return const_reverse_iterator(end()); }
 168:/Library/DaisyToolchain/0.2.0/arm/arm-none-eabi/include/c++/10.3.1/array **** 
 169:/Library/DaisyToolchain/0.2.0/arm/arm-none-eabi/include/c++/10.3.1/array ****       _GLIBCXX17_CONSTEXPR const_reverse_iterator
 170:/Library/DaisyToolchain/0.2.0/arm/arm-none-eabi/include/c++/10.3.1/array ****       crend() const noexcept
 171:/Library/DaisyToolchain/0.2.0/arm/arm-none-eabi/include/c++/10.3.1/array ****       { return const_reverse_iterator(begin()); }
 172:/Library/DaisyToolchain/0.2.0/arm/arm-none-eabi/include/c++/10.3.1/array **** 
 173:/Library/DaisyToolchain/0.2.0/arm/arm-none-eabi/include/c++/10.3.1/array ****       // Capacity.
 174:/Library/DaisyToolchain/0.2.0/arm/arm-none-eabi/include/c++/10.3.1/array ****       constexpr size_type
 175:/Library/DaisyToolchain/0.2.0/arm/arm-none-eabi/include/c++/10.3.1/array ****       size() const noexcept { return _Nm; }
 176:/Library/DaisyToolchain/0.2.0/arm/arm-none-eabi/include/c++/10.3.1/array **** 
 177:/Library/DaisyToolchain/0.2.0/arm/arm-none-eabi/include/c++/10.3.1/array ****       constexpr size_type
 178:/Library/DaisyToolchain/0.2.0/arm/arm-none-eabi/include/c++/10.3.1/array ****       max_size() const noexcept { return _Nm; }
 179:/Library/DaisyToolchain/0.2.0/arm/arm-none-eabi/include/c++/10.3.1/array **** 
 180:/Library/DaisyToolchain/0.2.0/arm/arm-none-eabi/include/c++/10.3.1/array ****       _GLIBCXX_NODISCARD constexpr bool
 181:/Library/DaisyToolchain/0.2.0/arm/arm-none-eabi/include/c++/10.3.1/array ****       empty() const noexcept { return size() == 0; }
ARM GAS  /var/folders/9s/8rp0_f2s1n31qbztm3b5_fdh0000gn/T//ccCzuEKD.s 			page 39


 182:/Library/DaisyToolchain/0.2.0/arm/arm-none-eabi/include/c++/10.3.1/array **** 
 183:/Library/DaisyToolchain/0.2.0/arm/arm-none-eabi/include/c++/10.3.1/array ****       // Element access.
 184:/Library/DaisyToolchain/0.2.0/arm/arm-none-eabi/include/c++/10.3.1/array ****       _GLIBCXX17_CONSTEXPR reference
 185:/Library/DaisyToolchain/0.2.0/arm/arm-none-eabi/include/c++/10.3.1/array ****       operator[](size_type __n) noexcept
 999              		.loc 11 185 7 view .LVU204
 1000              	.LBB276:
 1001              	.LBI276:
  55:/Library/DaisyToolchain/0.2.0/arm/arm-none-eabi/include/c++/10.3.1/array ****       { return const_cast<_Tp&>(__t[__n]); }
 1002              		.loc 11 55 7 view .LVU205
  55:/Library/DaisyToolchain/0.2.0/arm/arm-none-eabi/include/c++/10.3.1/array ****       { return const_cast<_Tp&>(__t[__n]); }
 1003              		.loc 11 55 7 is_stmt 0 view .LVU206
 1004              	.LBE276:
 1005              	.LBE275:
 1006              	.LBE274:
 149:Effects/BiquadFilters.h ****             for (size_t i=0; i<NumSections; i++) {
 1007              		.loc 10 149 21 view .LVU207
 1008 0000 70B5     		push	{r4, r5, r6, lr}
 1009              		.cfi_def_cfa_offset 16
 1010              		.cfi_offset 4, -16
 1011              		.cfi_offset 5, -12
 1012              		.cfi_offset 6, -8
 1013              		.cfi_offset 14, -4
 1014 0002 8AB0     		sub	sp, sp, #40
 1015              		.cfi_def_cfa_offset 56
 1016              	.LBB279:
 151:Effects/BiquadFilters.h ****                 biquads_[i].SetCoefficients(BiquadSection::CalculateCoefficients(FilterType, sample
 1017              		.loc 10 151 44 view .LVU208
 1018 0004 90ED021A 		vldr.32	s2, [r0, #8]
 1019 0008 D0ED010A 		vldr.32	s1, [r0, #4]
 1020 000c 0446     		mov	r4, r0
 1021 000e 6D46     		mov	r5, sp
 1022 0010 90ED000A 		vldr.32	s0, [r0]
 1023 0014 0221     		movs	r1, #2
 1024 0016 6846     		mov	r0, sp
 1025              	.LVL87:
 1026              		.loc 10 151 44 view .LVU209
 1027 0018 FFF7FEFF 		bl	_ZN10infrasonic13BiquadSection21CalculateCoefficientsENS0_10FilterTypeEfff
 1028              	.LVL88:
 1029              		.loc 10 151 44 view .LVU210
 1030 001c 05AE     		add	r6, sp, #20
 1031 001e 0C34     		adds	r4, r4, #12
 1032              	.LVL89:
 1033              		.loc 10 151 44 view .LVU211
 1034 0020 0FCD     		ldmia	r5!, {r0, r1, r2, r3}
 1035 0022 0FC6     		stmia	r6!, {r0, r1, r2, r3}
 1036 0024 2E68     		ldr	r6, [r5]
 1037              	.LBB277:
 1038              	.LBI277:
  37:Effects/BiquadFilters.h **** 
 1039              		.loc 10 37 14 is_stmt 1 view .LVU212
 1040              	.LBB278:
  37:Effects/BiquadFilters.h **** 
 1041              		.loc 10 37 65 view .LVU213
  37:Effects/BiquadFilters.h **** 
 1042              		.loc 10 37 72 is_stmt 0 view .LVU214
 1043 0026 05AD     		add	r5, sp, #20
 1044 0028 0FCD     		ldmia	r5!, {r0, r1, r2, r3}
ARM GAS  /var/folders/9s/8rp0_f2s1n31qbztm3b5_fdh0000gn/T//ccCzuEKD.s 			page 40


 1045 002a 0FC4     		stmia	r4!, {r0, r1, r2, r3}
 1046              	.LVL90:
  37:Effects/BiquadFilters.h **** 
 1047              		.loc 10 37 72 view .LVU215
 1048 002c 2660     		str	r6, [r4]
 1049              	.LVL91:
  37:Effects/BiquadFilters.h **** 
 1050              		.loc 10 37 72 view .LVU216
 1051              	.LBE278:
 1052              	.LBE277:
 150:Effects/BiquadFilters.h ****                 biquads_[i].SetCoefficients(BiquadSection::CalculateCoefficients(FilterType, sample
 1053              		.loc 10 150 13 is_stmt 1 view .LVU217
 150:Effects/BiquadFilters.h ****                 biquads_[i].SetCoefficients(BiquadSection::CalculateCoefficients(FilterType, sample
 1054              		.loc 10 150 31 view .LVU218
 1055              	.LBE279:
 152:Effects/BiquadFilters.h ****             }
 153:Effects/BiquadFilters.h ****         }
 1056              		.loc 10 153 9 is_stmt 0 view .LVU219
 1057 002e 0AB0     		add	sp, sp, #40
 1058              		.cfi_def_cfa_offset 16
 1059              		@ sp needed
 1060 0030 70BD     		pop	{r4, r5, r6, pc}
 1061              		.loc 10 153 9 view .LVU220
 1062              		.cfi_endproc
 1063              	.LFE5717:
 1065              		.section	.text._Z15InitializeDelayv,"ax",%progbits
 1066              		.align	1
 1067              		.global	_Z15InitializeDelayv
 1068              		.syntax unified
 1069              		.thumb
 1070              		.thumb_func
 1072              	_Z15InitializeDelayv:
 1073              	.LFB5063:
  93:Interface.cpp **** void InitializeDelay() {
 1074              		.loc 13 93 24 is_stmt 1 view -0
 1075              		.cfi_startproc
 1076              		@ args = 0, pretend = 0, frame = 0
 1077              		@ frame_needed = 0, uses_anonymous_args = 0
  95:Interface.cpp ****     delay.Init(sample_rate); 
 1078              		.loc 13 95 5 view .LVU222
  93:Interface.cpp **** void InitializeDelay() {
 1079              		.loc 13 93 24 is_stmt 0 view .LVU223
 1080 0000 F8B5     		push	{r3, r4, r5, r6, r7, lr}
 1081              		.cfi_def_cfa_offset 24
 1082              		.cfi_offset 3, -24
 1083              		.cfi_offset 4, -20
 1084              		.cfi_offset 5, -16
 1085              		.cfi_offset 6, -12
 1086              		.cfi_offset 7, -8
 1087              		.cfi_offset 14, -4
 1088              	.LBB312:
 1089              	.LBB313:
  26:Effects/EchoDelay.h **** 
  27:Effects/EchoDelay.h ****         void Init(float sample_rate)
  28:Effects/EchoDelay.h ****         {
  29:Effects/EchoDelay.h ****             sample_rate_ = sample_rate;
 1090              		.loc 9 29 26 view .LVU224
ARM GAS  /var/folders/9s/8rp0_f2s1n31qbztm3b5_fdh0000gn/T//ccCzuEKD.s 			page 41


 1091 0002 2C4C     		ldr	r4, .L38
 1092              	.LBB314:
 1093              	.LBB315:
 1094              	.LBB316:
 1095              	.LBB317:
  33:lib/DaisySP/Source/Utility/delayline.h ****     /** initializes the delay line by clearing the values within, and setting delay to 1 sample.
  34:lib/DaisySP/Source/Utility/delayline.h ****     */
  35:lib/DaisySP/Source/Utility/delayline.h ****     void Init() { Reset(); }
  36:lib/DaisySP/Source/Utility/delayline.h ****     /** clears buffer, sets write ptr to 0, and delay to 1 sample.
  37:lib/DaisySP/Source/Utility/delayline.h ****     */
  38:lib/DaisySP/Source/Utility/delayline.h ****     void Reset()
  39:lib/DaisySP/Source/Utility/delayline.h ****     {
  40:lib/DaisySP/Source/Utility/delayline.h ****         for(size_t i = 0; i < max_size; i++)
  41:lib/DaisySP/Source/Utility/delayline.h ****         {
  42:lib/DaisySP/Source/Utility/delayline.h ****             line_[i] = T(0);
 1096              		.loc 12 42 22 view .LVU225
 1097 0004 0021     		movs	r1, #0
 1098              	.LBE317:
 1099              	.LBE316:
 1100              	.LBE315:
 1101              	.LBE314:
 1102              	.LBE313:
 1103              	.LBE312:
  95:Interface.cpp ****     delay.Init(sample_rate); 
 1104              		.loc 13 95 15 view .LVU226
 1105 0006 2C4B     		ldr	r3, .L38+4
 1106              	.LBB375:
 1107              	.LBB372:
 1108              		.loc 9 29 26 view .LVU227
 1109 0008 2046     		mov	r0, r4
 1110              	.LBB326:
 1111              	.LBB323:
 1112              	.LBB320:
 1113              	.LBB318:
 1114              		.loc 12 42 22 view .LVU228
 1115 000a 2C4A     		ldr	r2, .L38+8
 1116              	.LBE318:
 1117              	.LBE320:
 1118              	.LBE323:
 1119              	.LBE326:
 1120              	.LBE372:
 1121              	.LBE375:
  93:Interface.cpp **** void InitializeDelay() {
 1122              		.loc 13 93 24 view .LVU229
 1123 000c 2DED028B 		vpush.64	{d8}
 1124              		.cfi_def_cfa_offset 32
 1125              		.cfi_offset 80, -32
 1126              		.cfi_offset 81, -28
  95:Interface.cpp ****     delay.Init(sample_rate); 
 1127              		.loc 13 95 15 view .LVU230
 1128 0010 93ED008A 		vldr.32	s16, [r3]
 1129              	.LVL92:
 1130              	.LBB376:
 1131              	.LBI312:
  27:Effects/EchoDelay.h ****         {
 1132              		.loc 9 27 14 is_stmt 1 view .LVU231
 1133              	.LBB373:
ARM GAS  /var/folders/9s/8rp0_f2s1n31qbztm3b5_fdh0000gn/T//ccCzuEKD.s 			page 42


 1134              		.loc 9 29 26 is_stmt 0 view .LVU232
 1135 0014 2030     		adds	r0, r0, #32
 1136              	.LBB327:
 1137              	.LBB328:
 106:Effects/BiquadFilters.h ****             for (size_t i=0; i<NumSections; i++) {
 1138              		.loc 10 106 41 view .LVU233
 1139 0016 F6EE008A 		vmov.f32	s17, #5.0e-1
 1140              	.LBE328:
 1141              	.LBE327:
 1142              		.loc 9 29 26 view .LVU234
 1143 001a 84ED008A 		vstr.32	s16, [r4]
 1144              	.LVL93:
 1145              	.LBB350:
 1146              	.LBI314:
  35:lib/DaisySP/Source/Utility/delayline.h ****     /** clears buffer, sets write ptr to 0, and delay to 1 sample.
 1147              		.loc 12 35 10 is_stmt 1 view .LVU235
 1148              	.LBB324:
 1149              	.LBI315:
  38:lib/DaisySP/Source/Utility/delayline.h ****     {
 1150              		.loc 12 38 10 view .LVU236
 1151              	.LBB321:
 1152              	.LBB319:
  40:lib/DaisySP/Source/Utility/delayline.h ****         {
 1153              		.loc 12 40 29 view .LVU237
 1154              		.loc 12 42 22 is_stmt 0 view .LVU238
 1155 001e FFF7FEFF 		bl	memset
 1156              	.LVL94:
 1157              		.loc 12 42 22 view .LVU239
 1158              	.LBE319:
  43:lib/DaisySP/Source/Utility/delayline.h ****         }
  44:lib/DaisySP/Source/Utility/delayline.h ****         write_ptr_ = 0;
  45:lib/DaisySP/Source/Utility/delayline.h ****         delay_     = 1;
 1159              		.loc 12 45 20 view .LVU240
 1160 0022 0022     		movs	r2, #0
 1161 0024 0123     		movs	r3, #1
 1162              	.LBE321:
 1163              	.LBE324:
 1164              	.LBE350:
 1165              	.LBB351:
 1166              	.LBB352:
  85:Effects/BiquadFilters.h ****             SetFlatResponse();
 1167              		.loc 10 85 38 view .LVU241
 1168 0026 F5EE007A 		vmov.f32	s15, #2.5e-1
 1169              	.LBE352:
 1170              	.LBE351:
 1171              	.LBB366:
 1172              	.LBB325:
 1173              	.LBB322:
 1174              		.loc 12 45 20 view .LVU242
 1175 002a C4E90623 		strd	r2, r3, [r4, #24]
 1176              	.LVL95:
 1177              		.loc 12 45 20 view .LVU243
 1178              	.LBE322:
 1179              	.LBE325:
 1180              	.LBE366:
 1181              	.LBB367:
 1182              	.LBI351:
ARM GAS  /var/folders/9s/8rp0_f2s1n31qbztm3b5_fdh0000gn/T//ccCzuEKD.s 			page 43


  83:Effects/BiquadFilters.h ****             sample_rate_ = sample_rate;
 1183              		.loc 10 83 14 is_stmt 1 view .LVU244
 1184              	.LBB364:
  84:Effects/BiquadFilters.h ****             cutoff_hz_ = sample_rate * 0.25f;
 1185              		.loc 10 84 26 is_stmt 0 view .LVU245
 1186 002e 04F53833 		add	r3, r4, #188416
 1187 0032 03F56267 		add	r7, r3, #3616
  85:Effects/BiquadFilters.h ****             SetFlatResponse();
 1188              		.loc 10 85 24 view .LVU246
 1189 0036 03F62466 		addw	r6, r3, #3620
 1190              	.LBB353:
 1191              	.LBB354:
 1192              	.LBB355:
 119:Effects/BiquadFilters.h ****             }
 1193              		.loc 10 119 23 view .LVU247
 1194 003a 03F62865 		addw	r5, r3, #3624
 1195 003e 204B     		ldr	r3, .L38+12
 1196              	.LBE355:
 1197              	.LBE354:
 1198              	.LBE353:
  84:Effects/BiquadFilters.h ****             cutoff_hz_ = sample_rate * 0.25f;
 1199              		.loc 10 84 26 view .LVU248
 1200 0040 87ED008A 		vstr.32	s16, [r7]
  85:Effects/BiquadFilters.h ****             SetFlatResponse();
 1201              		.loc 10 85 38 view .LVU249
 1202 0044 28EE278A 		vmul.f32	s16, s16, s15
 1203              	.LVL96:
 1204              	.LBB361:
 1205              	.LBB358:
 121:Effects/BiquadFilters.h ****         }
 1206              		.loc 10 121 31 view .LVU250
 1207 0048 3846     		mov	r0, r7
 1208              	.LBB356:
 119:Effects/BiquadFilters.h ****             }
 1209              		.loc 10 119 23 view .LVU251
 1210 004a 2B60     		str	r3, [r5]	@ float
 1211              	.LBE356:
 1212              	.LBE358:
 1213              	.LBE361:
  85:Effects/BiquadFilters.h ****             SetFlatResponse();
 1214              		.loc 10 85 24 view .LVU252
 1215 004c 86ED008A 		vstr.32	s16, [r6]
 1216              	.LVL97:
 1217              	.LBB362:
 1218              	.LBI353:
 115:Effects/BiquadFilters.h ****         {
 1219              		.loc 10 115 21 is_stmt 1 view .LVU253
 1220              	.LBB359:
 1221              	.LBB357:
 118:Effects/BiquadFilters.h ****                 q_[i] = 1.f / (2.f * cosf(PI_F * (angleIncrement * (i * 2 + 1))));
 1222              		.loc 10 118 31 view .LVU254
 118:Effects/BiquadFilters.h ****                 q_[i] = 1.f / (2.f * cosf(PI_F * (angleIncrement * (i * 2 + 1))));
 1223              		.loc 10 118 13 view .LVU255
 118:Effects/BiquadFilters.h ****                 q_[i] = 1.f / (2.f * cosf(PI_F * (angleIncrement * (i * 2 + 1))));
 1224              		.loc 10 118 31 view .LVU256
 1225              	.LBE357:
 1226              	.LBE359:
ARM GAS  /var/folders/9s/8rp0_f2s1n31qbztm3b5_fdh0000gn/T//ccCzuEKD.s 			page 44


 1227              	.LBE362:
 1228              	.LBE364:
 1229              	.LBE367:
 1230              	.LBB368:
 1231              	.LBB347:
 1232              	.LBB329:
 1233              	.LBB330:
 1234              	.LBB331:
 1235              		.file 15 "lib/DaisySP/Source/Utility/dsp.h"
   1:lib/DaisySP/Source/Utility/dsp.h **** /*
   2:lib/DaisySP/Source/Utility/dsp.h **** Copyright (c) 2020 Electrosmith, Corp, Emilie Gillet
   3:lib/DaisySP/Source/Utility/dsp.h **** 
   4:lib/DaisySP/Source/Utility/dsp.h **** Use of this source code is governed by an MIT-style
   5:lib/DaisySP/Source/Utility/dsp.h **** license that can be found in the LICENSE file or at
   6:lib/DaisySP/Source/Utility/dsp.h **** https://opensource.org/licenses/MIT.
   7:lib/DaisySP/Source/Utility/dsp.h **** */
   8:lib/DaisySP/Source/Utility/dsp.h **** 
   9:lib/DaisySP/Source/Utility/dsp.h **** /** Helpful defines, functions, and other utilities for use in/with daisysp modules.
  10:lib/DaisySP/Source/Utility/dsp.h **** */
  11:lib/DaisySP/Source/Utility/dsp.h **** #pragma once
  12:lib/DaisySP/Source/Utility/dsp.h **** #ifndef DSY_CORE_DSP
  13:lib/DaisySP/Source/Utility/dsp.h **** #define DSY_CORE_DSP
  14:lib/DaisySP/Source/Utility/dsp.h **** #include <cassert>
  15:lib/DaisySP/Source/Utility/dsp.h **** #include <cstdint>
  16:lib/DaisySP/Source/Utility/dsp.h **** #include <random>
  17:lib/DaisySP/Source/Utility/dsp.h **** #include <cmath>
  18:lib/DaisySP/Source/Utility/dsp.h **** 
  19:lib/DaisySP/Source/Utility/dsp.h **** /** PIs
  20:lib/DaisySP/Source/Utility/dsp.h **** */
  21:lib/DaisySP/Source/Utility/dsp.h **** #define PI_F 3.1415927410125732421875f
  22:lib/DaisySP/Source/Utility/dsp.h **** #define TWOPI_F (2.0f * PI_F)
  23:lib/DaisySP/Source/Utility/dsp.h **** #define HALFPI_F (PI_F * 0.5f)
  24:lib/DaisySP/Source/Utility/dsp.h **** #define DSY_MIN(in, mn) (in < mn ? in : mn)
  25:lib/DaisySP/Source/Utility/dsp.h **** #define DSY_MAX(in, mx) (in > mx ? in : mx)
  26:lib/DaisySP/Source/Utility/dsp.h **** #define DSY_CLAMP(in, mn, mx) (DSY_MIN(DSY_MAX(in, mn), mx))
  27:lib/DaisySP/Source/Utility/dsp.h **** #define DSY_COUNTOF(_arr) (sizeof(_arr) / sizeof(_arr[0]))
  28:lib/DaisySP/Source/Utility/dsp.h **** 
  29:lib/DaisySP/Source/Utility/dsp.h **** namespace daisysp
  30:lib/DaisySP/Source/Utility/dsp.h **** {
  31:lib/DaisySP/Source/Utility/dsp.h **** //Avoids division for random floats. e.g. rand() * kRandFrac
  32:lib/DaisySP/Source/Utility/dsp.h **** static constexpr float kRandFrac = 1.f / (float)RAND_MAX;
  33:lib/DaisySP/Source/Utility/dsp.h **** 
  34:lib/DaisySP/Source/Utility/dsp.h **** //Convert from semitones to other units. e.g. 2 ^ (kOneTwelfth * x)
  35:lib/DaisySP/Source/Utility/dsp.h **** static constexpr float kOneTwelfth = 1.f / 12.f;
  36:lib/DaisySP/Source/Utility/dsp.h **** 
  37:lib/DaisySP/Source/Utility/dsp.h **** /** efficient floating point min/max
  38:lib/DaisySP/Source/Utility/dsp.h **** c/o stephen mccaul
  39:lib/DaisySP/Source/Utility/dsp.h **** */
  40:lib/DaisySP/Source/Utility/dsp.h **** inline float fmax(float a, float b)
  41:lib/DaisySP/Source/Utility/dsp.h **** {
  42:lib/DaisySP/Source/Utility/dsp.h ****     float r;
  43:lib/DaisySP/Source/Utility/dsp.h **** #ifdef __arm__
  44:lib/DaisySP/Source/Utility/dsp.h ****     asm("vmaxnm.f32 %[d], %[n], %[m]" : [d] "=t"(r) : [n] "t"(a), [m] "t"(b) :);
 1236              		.loc 15 44 5 is_stmt 0 view .LVU257
 1237 0050 B7EE008A 		vmov.f32	s16, #1.0e+0
 1238              	.LBE331:
 1239              	.LBE330:
ARM GAS  /var/folders/9s/8rp0_f2s1n31qbztm3b5_fdh0000gn/T//ccCzuEKD.s 			page 45


 1240              	.LBE329:
 1241              	.LBE347:
 1242              	.LBE368:
 1243              	.LBB369:
 1244              	.LBB365:
 1245              	.LBB363:
 1246              	.LBB360:
 121:Effects/BiquadFilters.h ****         }
 1247              		.loc 10 121 31 view .LVU258
 1248 0054 FFF7FEFF 		bl	_ZN10infrasonic13BiquadCascadeILj1ELNS_13BiquadSection10FilterTypeE2EE18updateCoefficientsEv
 1249              	.LVL98:
 121:Effects/BiquadFilters.h ****         }
 1250              		.loc 10 121 31 view .LVU259
 1251              	.LBE360:
 1252              	.LBE363:
 1253              	.LBE365:
 1254              	.LBE369:
 1255              	.LBB370:
 1256              	.LBI327:
 104:Effects/BiquadFilters.h ****         {
 1257              		.loc 10 104 21 is_stmt 1 view .LVU260
 1258              	.LBB348:
 1259              	.LBB340:
 1260              	.LBI329:
  45:lib/DaisySP/Source/Utility/dsp.h **** #else
  46:lib/DaisySP/Source/Utility/dsp.h ****     r = (a > b) ? a : b;
  47:lib/DaisySP/Source/Utility/dsp.h **** #endif // __arm__
  48:lib/DaisySP/Source/Utility/dsp.h ****     return r;
  49:lib/DaisySP/Source/Utility/dsp.h **** }
  50:lib/DaisySP/Source/Utility/dsp.h **** 
  51:lib/DaisySP/Source/Utility/dsp.h **** inline float fmin(float a, float b)
  52:lib/DaisySP/Source/Utility/dsp.h **** {
  53:lib/DaisySP/Source/Utility/dsp.h ****     float r;
  54:lib/DaisySP/Source/Utility/dsp.h **** #ifdef __arm__
  55:lib/DaisySP/Source/Utility/dsp.h ****     asm("vminnm.f32 %[d], %[n], %[m]" : [d] "=t"(r) : [n] "t"(a), [m] "t"(b) :);
  56:lib/DaisySP/Source/Utility/dsp.h **** #else
  57:lib/DaisySP/Source/Utility/dsp.h ****     r = (a < b) ? a : b;
  58:lib/DaisySP/Source/Utility/dsp.h **** #endif // __arm__
  59:lib/DaisySP/Source/Utility/dsp.h ****     return r;
  60:lib/DaisySP/Source/Utility/dsp.h **** }
  61:lib/DaisySP/Source/Utility/dsp.h **** 
  62:lib/DaisySP/Source/Utility/dsp.h **** /** quick fp clamp
  63:lib/DaisySP/Source/Utility/dsp.h **** */
  64:lib/DaisySP/Source/Utility/dsp.h **** inline float fclamp(float in, float min, float max)
 1261              		.loc 15 64 14 view .LVU261
 1262              	.LBE340:
 1263              	.LBE348:
 1264              	.LBE370:
 1265              	.LBE373:
 1266              	.LBE376:
  65:lib/DaisySP/Source/Utility/dsp.h **** {
  66:lib/DaisySP/Source/Utility/dsp.h ****     return fmin(fmax(in, min), max);
 1267              		.loc 15 66 5 view .LVU262
 1268              	.LBB377:
 1269              	.LBB374:
 1270              	.LBB371:
 1271              	.LBB349:
ARM GAS  /var/folders/9s/8rp0_f2s1n31qbztm3b5_fdh0000gn/T//ccCzuEKD.s 			page 46


 1272              	.LBB341:
 1273              	.LBB335:
 1274              	.LBI330:
  40:lib/DaisySP/Source/Utility/dsp.h **** {
 1275              		.loc 15 40 14 view .LVU263
 1276              	.LBB332:
  42:lib/DaisySP/Source/Utility/dsp.h **** #ifdef __arm__
 1277              		.loc 15 42 5 view .LVU264
  44:lib/DaisySP/Source/Utility/dsp.h **** #else
 1278              		.loc 15 44 5 view .LVU265
 1279              	.LBE332:
 1280              	.LBE335:
 1281              	.LBE341:
 106:Effects/BiquadFilters.h ****             for (size_t i=0; i<NumSections; i++) {
 1282              		.loc 10 106 41 is_stmt 0 view .LVU266
 1283 0058 97ED007A 		vldr.32	s14, [r7]
 1284              	.LBB342:
 1285              	.LBB336:
 1286              	.LBB333:
  44:lib/DaisySP/Source/Utility/dsp.h **** #else
 1287              		.loc 15 44 5 view .LVU267
 1288 005c DFED197A 		vldr.32	s15, .L38+16
 1289              	.LBE333:
 1290              	.LBE336:
 1291              	.LBE342:
 110:Effects/BiquadFilters.h ****         }
 1292              		.loc 10 110 31 view .LVU268
 1293 0060 3846     		mov	r0, r7
 106:Effects/BiquadFilters.h ****             for (size_t i=0; i<NumSections; i++) {
 1294              		.loc 10 106 41 view .LVU269
 1295 0062 27EE287A 		vmul.f32	s14, s14, s17
 1296              	.LVL99:
 1297              	.LBB343:
 1298              	.LBB337:
 1299              	.LBB334:
  44:lib/DaisySP/Source/Utility/dsp.h **** #else
 1300              		.loc 15 44 5 view .LVU270
 1301              		.syntax unified
 1302              	@ 44 "lib/DaisySP/Source/Utility/dsp.h" 1
 1303 0066 C7FE887A 		vmaxnm.f32 s15, s15, s16
 1304              	@ 0 "" 2
 1305              	.LVL100:
  48:lib/DaisySP/Source/Utility/dsp.h **** }
 1306              		.loc 15 48 5 is_stmt 1 view .LVU271
  48:lib/DaisySP/Source/Utility/dsp.h **** }
 1307              		.loc 15 48 5 is_stmt 0 view .LVU272
 1308              		.thumb
 1309              		.syntax unified
 1310              	.LBE334:
 1311              	.LBE337:
 1312              	.LBB338:
 1313              	.LBI338:
  51:lib/DaisySP/Source/Utility/dsp.h **** {
 1314              		.loc 15 51 14 is_stmt 1 view .LVU273
 1315              	.LBB339:
  53:lib/DaisySP/Source/Utility/dsp.h **** #ifdef __arm__
 1316              		.loc 15 53 5 view .LVU274
ARM GAS  /var/folders/9s/8rp0_f2s1n31qbztm3b5_fdh0000gn/T//ccCzuEKD.s 			page 47


  55:lib/DaisySP/Source/Utility/dsp.h **** #else
 1317              		.loc 15 55 5 view .LVU275
 1318              		.syntax unified
 1319              	@ 55 "lib/DaisySP/Source/Utility/dsp.h" 1
 1320 006a C7FEC77A 		vminnm.f32 s15, s15, s14
 1321              	@ 0 "" 2
 1322              	.LVL101:
  59:lib/DaisySP/Source/Utility/dsp.h **** }
 1323              		.loc 15 59 5 view .LVU276
  59:lib/DaisySP/Source/Utility/dsp.h **** }
 1324              		.loc 15 59 5 is_stmt 0 view .LVU277
 1325              		.thumb
 1326              		.syntax unified
 1327              	.LBE339:
 1328              	.LBE338:
 1329              	.LBE343:
 106:Effects/BiquadFilters.h ****             for (size_t i=0; i<NumSections; i++) {
 1330              		.loc 10 106 24 view .LVU278
 1331 006e C6ED007A 		vstr.32	s15, [r6]
 1332              	.LVL102:
 1333              	.LBB344:
 107:Effects/BiquadFilters.h ****                 q_[i] = daisysp::fmax(q, 0.1f);
 1334              		.loc 10 107 31 is_stmt 1 view .LVU279
 1335              	.LBB345:
 1336              	.LBI345:
  40:lib/DaisySP/Source/Utility/dsp.h **** {
 1337              		.loc 15 40 14 view .LVU280
 1338              	.LBB346:
  42:lib/DaisySP/Source/Utility/dsp.h **** #ifdef __arm__
 1339              		.loc 15 42 5 view .LVU281
  44:lib/DaisySP/Source/Utility/dsp.h **** #else
 1340              		.loc 15 44 5 view .LVU282
 1341 0072 DFED157A 		vldr.32	s15, .L38+20
 1342              		.syntax unified
 1343              	@ 44 "lib/DaisySP/Source/Utility/dsp.h" 1
 1344 0076 C8FE277A 		vmaxnm.f32 s15, s16, s15
 1345              	@ 0 "" 2
 1346              	.LVL103:
  48:lib/DaisySP/Source/Utility/dsp.h **** }
 1347              		.loc 15 48 5 view .LVU283
  48:lib/DaisySP/Source/Utility/dsp.h **** }
 1348              		.loc 15 48 5 is_stmt 0 view .LVU284
 1349              		.thumb
 1350              		.syntax unified
 1351              	.LBE346:
 1352              	.LBE345:
 108:Effects/BiquadFilters.h ****             }
 1353              		.loc 10 108 23 view .LVU285
 1354 007a C5ED007A 		vstr.32	s15, [r5]
 107:Effects/BiquadFilters.h ****                 q_[i] = daisysp::fmax(q, 0.1f);
 1355              		.loc 10 107 13 is_stmt 1 view .LVU286
 1356              	.LVL104:
 107:Effects/BiquadFilters.h ****                 q_[i] = daisysp::fmax(q, 0.1f);
 1357              		.loc 10 107 31 view .LVU287
 1358              	.LBE344:
 110:Effects/BiquadFilters.h ****         }
 1359              		.loc 10 110 31 is_stmt 0 view .LVU288
ARM GAS  /var/folders/9s/8rp0_f2s1n31qbztm3b5_fdh0000gn/T//ccCzuEKD.s 			page 48


 1360 007e FFF7FEFF 		bl	_ZN10infrasonic13BiquadCascadeILj1ELNS_13BiquadSection10FilterTypeE2EE18updateCoefficientsEv
 1361              	.LVL105:
 110:Effects/BiquadFilters.h ****         }
 1362              		.loc 10 110 31 view .LVU289
 1363              	.LBE349:
 1364              	.LBE371:
 1365              	.LBE374:
 1366              	.LBE377:
  96:Interface.cpp ****     delay.SetLagTime(0.02f);         // Short lag for time changes
 1367              		.loc 13 96 5 is_stmt 1 view .LVU290
 1368              	.LBB378:
 1369              	.LBI378:
  30:Effects/EchoDelay.h ****             delayLine_.Init();
  31:Effects/EchoDelay.h ****             bpf_.Init(sample_rate);
  32:Effects/EchoDelay.h ****             bpf_.SetParams(800.0f, 1.0f);
  33:Effects/EchoDelay.h ****         }
  34:Effects/EchoDelay.h **** 
  35:Effects/EchoDelay.h ****         /**
  36:Effects/EchoDelay.h ****          * @brief Set the approximate lag time (smoothing) for delay time changes, in seconds
  37:Effects/EchoDelay.h ****          */
  38:Effects/EchoDelay.h ****         void SetLagTime(const float time_s)
 1370              		.loc 9 38 14 view .LVU291
 1371              	.LBB379:
  39:Effects/EchoDelay.h ****         {
  40:Effects/EchoDelay.h ****             delay_smooth_coef_ = onepole_coef(time_s, sample_rate_);
 1372              		.loc 9 40 46 is_stmt 0 view .LVU292
 1373 0082 D4ED007A 		vldr.32	s15, [r4]
 1374              	.LVL106:
 1375              	.LBB380:
 1376              	.LBI380:
 1377              		.file 16 "Effects/DSPUtils.h"
   1:Effects/DSPUtils.h **** #pragma once
   2:Effects/DSPUtils.h **** #ifndef INFS_DSPUTILS_H
   3:Effects/DSPUtils.h **** #define INFS_DSPUTILS_H
   4:Effects/DSPUtils.h **** 
   5:Effects/DSPUtils.h **** #include <cmath>
   6:Effects/DSPUtils.h **** #include <Utility/dsp.h>
   7:Effects/DSPUtils.h **** #ifdef __arm__
   8:Effects/DSPUtils.h **** #include <arm_math.h>
   9:Effects/DSPUtils.h **** #endif
  10:Effects/DSPUtils.h **** 
  11:Effects/DSPUtils.h **** namespace infrasonic {
  12:Effects/DSPUtils.h **** 
  13:Effects/DSPUtils.h **** inline float dbfs2lin(float dbfs) {
  14:Effects/DSPUtils.h ****     return daisysp::pow10f(dbfs * 0.05f);
  15:Effects/DSPUtils.h **** }
  16:Effects/DSPUtils.h **** 
  17:Effects/DSPUtils.h **** inline float lin2dbfs(float lin) {
  18:Effects/DSPUtils.h ****     return daisysp::fastlog10f(lin) * 20.0f;
  19:Effects/DSPUtils.h **** }
  20:Effects/DSPUtils.h **** 
  21:Effects/DSPUtils.h **** // Coefficient for one pole smoothing filter based on Tau time constant for `time_s`
  22:Effects/DSPUtils.h **** inline float onepole_coef(float time_s, float sample_rate) {
 1378              		.loc 16 22 14 is_stmt 1 view .LVU293
 1379              	.LBB381:
  23:Effects/DSPUtils.h ****     if (time_s <= 0.0f || sample_rate <= 0.0f) { return 1.0f; }
 1380              		.loc 16 23 5 view .LVU294
ARM GAS  /var/folders/9s/8rp0_f2s1n31qbztm3b5_fdh0000gn/T//ccCzuEKD.s 			page 49


 1381              		.loc 16 23 24 is_stmt 0 view .LVU295
 1382 0086 F5EEC07A 		vcmpe.f32	s15, #0
 1383 008a F1EE10FA 		vmrs	APSR_nzcv, FPSCR
 1384 008e 07D9     		bls	.L36
  24:Effects/DSPUtils.h ****     return daisysp::fmin(1.0f / (time_s * sample_rate), 1.0f);
 1385              		.loc 16 24 5 is_stmt 1 view .LVU296
 1386              	.LVL107:
 1387              	.LBB382:
 1388              	.LBI382:
  51:lib/DaisySP/Source/Utility/dsp.h **** {
 1389              		.loc 15 51 14 view .LVU297
 1390              	.LBB383:
  53:lib/DaisySP/Source/Utility/dsp.h **** #ifdef __arm__
 1391              		.loc 15 53 5 view .LVU298
  55:lib/DaisySP/Source/Utility/dsp.h **** #else
 1392              		.loc 15 55 5 view .LVU299
 1393              	.LBE383:
 1394              	.LBE382:
 1395              		.loc 16 24 41 is_stmt 0 view .LVU300
 1396 0090 9FED0E7A 		vldr.32	s14, .L38+24
 1397 0094 67EE877A 		vmul.f32	s15, s15, s14
 1398              	.LVL108:
 1399              		.loc 16 24 25 view .LVU301
 1400 0098 88EE277A 		vdiv.f32	s14, s16, s15
 1401              	.LVL109:
 1402              	.LBB385:
 1403              	.LBB384:
  55:lib/DaisySP/Source/Utility/dsp.h **** #else
 1404              		.loc 15 55 5 view .LVU302
 1405              		.syntax unified
 1406              	@ 55 "lib/DaisySP/Source/Utility/dsp.h" 1
 1407 009c 87FE488A 		vminnm.f32 s16, s14, s16
 1408              	@ 0 "" 2
 1409              	.LVL110:
  59:lib/DaisySP/Source/Utility/dsp.h **** }
 1410              		.loc 15 59 5 is_stmt 1 view .LVU303
 1411              		.thumb
 1412              		.syntax unified
 1413              	.L36:
  59:lib/DaisySP/Source/Utility/dsp.h **** }
 1414              		.loc 15 59 5 is_stmt 0 view .LVU304
 1415              	.LBE384:
 1416              	.LBE385:
 1417              	.LBE381:
 1418              	.LBE380:
 1419              	.LBE379:
 1420              	.LBE378:
 1421              	.LBB387:
 1422              	.LBB388:
  41:Effects/EchoDelay.h ****         }
  42:Effects/EchoDelay.h **** 
  43:Effects/EchoDelay.h ****         /**
  44:Effects/EchoDelay.h ****          * @brief Set the Delay Time in seconds
  45:Effects/EchoDelay.h ****          *
  46:Effects/EchoDelay.h ****          * @param time_s Delay time in seconds. Will be truncated to MaxLength.
  47:Effects/EchoDelay.h ****          * @param immediately If true, sets delay time immediately with no smoothing.
  48:Effects/EchoDelay.h ****          */
ARM GAS  /var/folders/9s/8rp0_f2s1n31qbztm3b5_fdh0000gn/T//ccCzuEKD.s 			page 50


  49:Effects/EchoDelay.h ****         void SetDelayTime(const float time_s, bool immediately = false)
  50:Effects/EchoDelay.h ****         {
  51:Effects/EchoDelay.h ****             delay_time_target_ = time_s;
 1423              		.loc 9 51 32 view .LVU305
 1424 00a0 0B4B     		ldr	r3, .L38+28
 1425              	.LBE388:
 1426              	.LBE387:
 1427              	.LBB390:
 1428              	.LBB386:
  40:Effects/EchoDelay.h ****         }
 1429              		.loc 9 40 32 view .LVU306
 1430 00a2 84ED038A 		vstr.32	s16, [r4, #12]
 1431              	.LVL111:
  40:Effects/EchoDelay.h ****         }
 1432              		.loc 9 40 32 view .LVU307
 1433              	.LBE386:
 1434              	.LBE390:
  97:Interface.cpp ****     delay.SetDelayTime(0.3f, true); // 300ms delay, set immediately
 1435              		.loc 13 97 5 is_stmt 1 view .LVU308
 1436              	.LBB391:
 1437              	.LBI387:
  49:Effects/EchoDelay.h ****         {
 1438              		.loc 9 49 14 view .LVU309
 1439              	.LBE391:
 1440              	.LBB392:
 1441              	.LBB393:
  52:Effects/EchoDelay.h ****             if (immediately) delay_time_current_ = time_s;
  53:Effects/EchoDelay.h ****         }
  54:Effects/EchoDelay.h **** 
  55:Effects/EchoDelay.h ****         /**
  56:Effects/EchoDelay.h ****          * @brief
  57:Effects/EchoDelay.h ****          * Set the feedback amount (linear multiplier).
  58:Effects/EchoDelay.h ****          * This can be >1 in magnitude for saturated swells, or negative.
  59:Effects/EchoDelay.h ****          *
  60:Effects/EchoDelay.h ****          * NOTE: This is not internally smoothed. Use external smoothing if desired.
  61:Effects/EchoDelay.h ****          *
  62:Effects/EchoDelay.h ****          * @param feedback
  63:Effects/EchoDelay.h ****          */
  64:Effects/EchoDelay.h ****         void SetFeedback(const float feedback)
  65:Effects/EchoDelay.h ****         {
  66:Effects/EchoDelay.h ****             feedback_ = feedback;
 1442              		.loc 9 66 23 is_stmt 0 view .LVU310
 1443 00a6 C4ED048A 		vstr.32	s17, [r4, #16]
 1444              	.LBE393:
 1445              	.LBE392:
 1446              	.LBB394:
 1447              	.LBB389:
  51:Effects/EchoDelay.h ****             if (immediately) delay_time_current_ = time_s;
 1448              		.loc 9 51 32 view .LVU311
 1449 00aa A360     		str	r3, [r4, #8]	@ float
  52:Effects/EchoDelay.h ****             if (immediately) delay_time_current_ = time_s;
 1450              		.loc 9 52 50 view .LVU312
 1451 00ac 6360     		str	r3, [r4, #4]	@ float
 1452              	.LVL112:
  52:Effects/EchoDelay.h ****             if (immediately) delay_time_current_ = time_s;
 1453              		.loc 9 52 50 view .LVU313
 1454              	.LBE389:
ARM GAS  /var/folders/9s/8rp0_f2s1n31qbztm3b5_fdh0000gn/T//ccCzuEKD.s 			page 51


 1455              	.LBE394:
  98:Interface.cpp ****     delay.SetFeedback(0.5f);         // 50% feedback
 1456              		.loc 13 98 5 is_stmt 1 view .LVU314
 1457              	.LBB395:
 1458              	.LBI392:
  64:Effects/EchoDelay.h ****         {
 1459              		.loc 9 64 14 view .LVU315
  64:Effects/EchoDelay.h ****         {
 1460              		.loc 9 64 14 is_stmt 0 view .LVU316
 1461              	.LBE395:
  99:Interface.cpp **** }
 1462              		.loc 13 99 1 view .LVU317
 1463 00ae BDEC028B 		vldm	sp!, {d8}
 1464              		.cfi_restore 80
 1465              		.cfi_restore 81
 1466              		.cfi_def_cfa_offset 24
 1467 00b2 F8BD     		pop	{r3, r4, r5, r6, r7, pc}
 1468              	.L39:
 1469              		.align	2
 1470              	.L38:
 1471 00b4 00000000 		.word	delay
 1472 00b8 00000000 		.word	.LANCHOR1
 1473 00bc 00EE0200 		.word	192000
 1474 00c0 F304353F 		.word	1060439283
 1475 00c4 00004844 		.word	1145569280
 1476 00c8 CDCCCC3D 		.word	1036831949
 1477 00cc 0AD7A33C 		.word	1017370378
 1478 00d0 9A99993E 		.word	1050253722
 1479              		.cfi_endproc
 1480              	.LFE5063:
 1482              		.section	.rodata._Z15InitializeSynthv.str1.1,"aMS",%progbits,1
 1483              	.LC3:
 1484 0000 506F6C79 		.ascii	"Poly (0-3)\000"
 1484      2028302D 
 1484      332900
 1485              	.LC4:
 1486 000b 44796E61 		.ascii	"Dynamic Poly\000"
 1486      6D696320 
 1486      506F6C79 
 1486      00
 1487              	.LC5:
 1488 0018 506C6169 		.ascii	"Plaits Synth Started - Ready for Bootloader CMD\000"
 1488      74732053 
 1488      796E7468 
 1488      20537461 
 1488      72746564 
 1489              	.LC6:
 1490 0048 4D617820 		.ascii	"Max Voices: %d | Block: %d | SR: %d\000"
 1490      566F6963 
 1490      65733A20 
 1490      2564207C 
 1490      20426C6F 
 1491              	.LC7:
 1492 006c 456E6769 		.ascii	"Engine Range: 0-%d\000"
 1492      6E652052 
 1492      616E6765 
 1492      3A20302D 
ARM GAS  /var/folders/9s/8rp0_f2s1n31qbztm3b5_fdh0000gn/T//ccCzuEKD.s 			page 52


 1492      256400
 1493              	.LC8:
 1494 007f 4D6F6465 		.ascii	"Mode: %s\000"
 1494      3A202573 
 1494      00
 1495              	.LC9:
 1496 0088 2D2D2D2D 		.ascii	"----------------\000"
 1496      2D2D2D2D 
 1496      2D2D2D2D 
 1496      2D2D2D2D 
 1496      00
 1497              		.section	.text._Z15InitializeSynthv,"ax",%progbits
 1498              		.align	1
 1499              		.global	_Z15InitializeSynthv
 1500              		.syntax unified
 1501              		.thumb
 1502              		.thumb_func
 1504              	_Z15InitializeSynthv:
 1505              	.LFB5064:
 101:Interface.cpp **** void InitializeSynth() {
 1506              		.loc 13 101 24 is_stmt 1 view -0
 1507              		.cfi_startproc
 1508              		@ args = 0, pretend = 0, frame = 64
 1509              		@ frame_needed = 0, uses_anonymous_args = 0
 102:Interface.cpp ****     InitializeHardware();
 1510              		.loc 13 102 5 view .LVU319
 101:Interface.cpp **** void InitializeSynth() {
 1511              		.loc 13 101 24 is_stmt 0 view .LVU320
 1512 0000 10B5     		push	{r4, lr}
 1513              		.cfi_def_cfa_offset 8
 1514              		.cfi_offset 4, -8
 1515              		.cfi_offset 14, -4
 107:Interface.cpp ****     cpu_meter.Init(sample_rate, BLOCK_SIZE); // Initialize the CPU Load Meter
 1516              		.loc 13 107 19 view .LVU321
 1517 0002 364C     		ldr	r4, .L43
 101:Interface.cpp **** void InitializeSynth() {
 1518              		.loc 13 101 24 view .LVU322
 1519 0004 2DED028B 		vpush.64	{d8}
 1520              		.cfi_def_cfa_offset 16
 1521              		.cfi_offset 80, -16
 1522              		.cfi_offset 81, -12
 1523 0008 92B0     		sub	sp, sp, #72
 1524              		.cfi_def_cfa_offset 88
 102:Interface.cpp ****     InitializeHardware();
 1525              		.loc 13 102 23 view .LVU323
 1526 000a FFF7FEFF 		bl	_Z18InitializeHardwarev
 1527              	.LVL113:
 103:Interface.cpp ****     InitializeVoices(); // Call function from Polyphony.cpp
 1528              		.loc 13 103 5 is_stmt 1 view .LVU324
 103:Interface.cpp ****     InitializeVoices(); // Call function from Polyphony.cpp
 1529              		.loc 13 103 21 is_stmt 0 view .LVU325
 1530 000e FFF7FEFF 		bl	_Z16InitializeVoicesv
 1531              	.LVL114:
 104:Interface.cpp ****     InitializeControls();
 1532              		.loc 13 104 5 is_stmt 1 view .LVU326
 104:Interface.cpp ****     InitializeControls();
 1533              		.loc 13 104 23 is_stmt 0 view .LVU327
ARM GAS  /var/folders/9s/8rp0_f2s1n31qbztm3b5_fdh0000gn/T//ccCzuEKD.s 			page 53


 1534 0012 FFF7FEFF 		bl	_Z18InitializeControlsv
 1535              	.LVL115:
 105:Interface.cpp ****     InitializeTouchSensor();
 1536              		.loc 13 105 5 is_stmt 1 view .LVU328
 105:Interface.cpp ****     InitializeTouchSensor();
 1537              		.loc 13 105 26 is_stmt 0 view .LVU329
 1538 0016 FFF7FEFF 		bl	_Z21InitializeTouchSensorv
 1539              	.LVL116:
 106:Interface.cpp ****     InitializeDelay();
 1540              		.loc 13 106 5 is_stmt 1 view .LVU330
 106:Interface.cpp ****     InitializeDelay();
 1541              		.loc 13 106 20 is_stmt 0 view .LVU331
 1542 001a FFF7FEFF 		bl	_Z15InitializeDelayv
 1543              	.LVL117:
 107:Interface.cpp ****     cpu_meter.Init(sample_rate, BLOCK_SIZE); // Initialize the CPU Load Meter
 1544              		.loc 13 107 5 is_stmt 1 view .LVU332
 107:Interface.cpp ****     cpu_meter.Init(sample_rate, BLOCK_SIZE); // Initialize the CPU Load Meter
 1545              		.loc 13 107 19 is_stmt 0 view .LVU333
 1546 001e 94ED008A 		vldr.32	s16, [r4]
 1547              	.LVL118:
 1548              	.LBB412:
 1549              	.LBI412:
 1550              		.file 17 "lib/libdaisy/src/util/CpuLoadMeter.h"
   1:lib/libdaisy/src/util/CpuLoadMeter.h **** #pragma once
   2:lib/libdaisy/src/util/CpuLoadMeter.h **** 
   3:lib/libdaisy/src/util/CpuLoadMeter.h **** #include "sys/system.h"
   4:lib/libdaisy/src/util/CpuLoadMeter.h **** #include <cmath>
   5:lib/libdaisy/src/util/CpuLoadMeter.h **** 
   6:lib/libdaisy/src/util/CpuLoadMeter.h **** namespace daisy
   7:lib/libdaisy/src/util/CpuLoadMeter.h **** {
   8:lib/libdaisy/src/util/CpuLoadMeter.h **** /** @brief CPU load metering
   9:lib/libdaisy/src/util/CpuLoadMeter.h ****  *  @author jelliesen
  10:lib/libdaisy/src/util/CpuLoadMeter.h ****  *  @addtogroup utility
  11:lib/libdaisy/src/util/CpuLoadMeter.h ****  * 
  12:lib/libdaisy/src/util/CpuLoadMeter.h ****  *  To measure the CPU load of your audio processing, create a CpuLoadMeter
  13:lib/libdaisy/src/util/CpuLoadMeter.h ****  *  and initialize it with your block size and sample rate.
  14:lib/libdaisy/src/util/CpuLoadMeter.h ****  *  Then at the beginning of the audio callback, call `OnBlockStart()`, 
  15:lib/libdaisy/src/util/CpuLoadMeter.h ****  *  and at the end of the audio callback, call `OnBlockEnd()`.
  16:lib/libdaisy/src/util/CpuLoadMeter.h ****  *  You can then read out the minimum, maximum and average CPU load.
  17:lib/libdaisy/src/util/CpuLoadMeter.h ****  */
  18:lib/libdaisy/src/util/CpuLoadMeter.h **** class CpuLoadMeter
  19:lib/libdaisy/src/util/CpuLoadMeter.h **** {
  20:lib/libdaisy/src/util/CpuLoadMeter.h ****   public:
  21:lib/libdaisy/src/util/CpuLoadMeter.h ****     CpuLoadMeter(){};
  22:lib/libdaisy/src/util/CpuLoadMeter.h **** 
  23:lib/libdaisy/src/util/CpuLoadMeter.h ****     /** Initializes the CpuLoadMeter for a particular sample rate and block size.
  24:lib/libdaisy/src/util/CpuLoadMeter.h ****      *  @param sampleRateInHz           The sample rate in Hz
  25:lib/libdaisy/src/util/CpuLoadMeter.h ****      *  @param blockSizeInSamples       The block size in samples
  26:lib/libdaisy/src/util/CpuLoadMeter.h ****      *  @param smoothingFilterCutoffHz  The cutoff frequency of the smoothing filter that's used to
  27:lib/libdaisy/src/util/CpuLoadMeter.h ****      *                                  create the average CPU load reading.
  28:lib/libdaisy/src/util/CpuLoadMeter.h ****      */
  29:lib/libdaisy/src/util/CpuLoadMeter.h ****     void Init(float sampleRateInHz,
 1551              		.loc 17 29 10 is_stmt 1 view .LVU334
 1552              	.LBB413:
  30:lib/libdaisy/src/util/CpuLoadMeter.h ****               int   blockSizeInSamples,
  31:lib/libdaisy/src/util/CpuLoadMeter.h ****               float smoothingFilterCutoffHz = 1.0f)
  32:lib/libdaisy/src/util/CpuLoadMeter.h ****     {
ARM GAS  /var/folders/9s/8rp0_f2s1n31qbztm3b5_fdh0000gn/T//ccCzuEKD.s 			page 54


  33:lib/libdaisy/src/util/CpuLoadMeter.h ****         const auto secPerBlock = float(blockSizeInSamples) / sampleRateInHz;
 1553              		.loc 17 33 9 view .LVU335
  34:lib/libdaisy/src/util/CpuLoadMeter.h ****         const auto ticksPerS   = float(System::GetTickFreq());
 1554              		.loc 17 34 9 view .LVU336
 1555              		.loc 17 34 59 is_stmt 0 view .LVU337
 1556 0022 FFF7FEFF 		bl	_ZN5daisy6System11GetTickFreqEv
 1557              	.LVL119:
  35:lib/libdaisy/src/util/CpuLoadMeter.h ****         ticksPerBlockInv_      = 1.0f / (ticksPerS * secPerBlock);
 1558              		.loc 17 35 9 is_stmt 1 view .LVU338
  33:lib/libdaisy/src/util/CpuLoadMeter.h ****         const auto ticksPerS   = float(System::GetTickFreq());
 1559              		.loc 17 33 20 is_stmt 0 view .LVU339
 1560 0026 B3EE007A 		vmov.f32	s14, #1.6e+1
 1561              		.loc 17 35 32 view .LVU340
 1562 002a 2D4B     		ldr	r3, .L43+4
 1563              	.LBB414:
 1564              	.LBB415:
  36:lib/libdaisy/src/util/CpuLoadMeter.h **** 
  37:lib/libdaisy/src/util/CpuLoadMeter.h ****         // update filter coefficient for smoothing filter (1pole lowpass)
  38:lib/libdaisy/src/util/CpuLoadMeter.h ****         const auto blockRateInHz = sampleRateInHz / float(blockSizeInSamples);
  39:lib/libdaisy/src/util/CpuLoadMeter.h ****         const auto cutoffNormalized
  40:lib/libdaisy/src/util/CpuLoadMeter.h ****             = smoothingFilterCutoffHz * 2.0f * 3.141592653f / blockRateInHz;
  41:lib/libdaisy/src/util/CpuLoadMeter.h ****         // according to
  42:lib/libdaisy/src/util/CpuLoadMeter.h ****         // https://en.wikipedia.org/wiki/Low-pass_filter#Simple_infinite_impulse_response_filter
  43:lib/libdaisy/src/util/CpuLoadMeter.h ****         smoothingConstant_ = cutoffNormalized / (cutoffNormalized + 1.0f);
  44:lib/libdaisy/src/util/CpuLoadMeter.h **** 
  45:lib/libdaisy/src/util/CpuLoadMeter.h ****         Reset();
  46:lib/libdaisy/src/util/CpuLoadMeter.h ****     }
  47:lib/libdaisy/src/util/CpuLoadMeter.h **** 
  48:lib/libdaisy/src/util/CpuLoadMeter.h ****     /** Call this at the beginning of your audio callback */
  49:lib/libdaisy/src/util/CpuLoadMeter.h ****     void OnBlockStart() { currentBlockStartTicks_ = System::GetTick(); }
  50:lib/libdaisy/src/util/CpuLoadMeter.h **** 
  51:lib/libdaisy/src/util/CpuLoadMeter.h ****     /** Call this at the end of your audio callback */
  52:lib/libdaisy/src/util/CpuLoadMeter.h ****     void OnBlockEnd()
  53:lib/libdaisy/src/util/CpuLoadMeter.h ****     {
  54:lib/libdaisy/src/util/CpuLoadMeter.h ****         const auto end         = System::GetTick();
  55:lib/libdaisy/src/util/CpuLoadMeter.h ****         const auto ticksPassed = end - currentBlockStartTicks_;
  56:lib/libdaisy/src/util/CpuLoadMeter.h ****         const auto currentBlockLoad
  57:lib/libdaisy/src/util/CpuLoadMeter.h ****             = float(ticksPassed) * ticksPerBlockInv_; // usPassed / usPerBlock
  58:lib/libdaisy/src/util/CpuLoadMeter.h **** 
  59:lib/libdaisy/src/util/CpuLoadMeter.h ****         if(firstCycle_)
  60:lib/libdaisy/src/util/CpuLoadMeter.h ****         {
  61:lib/libdaisy/src/util/CpuLoadMeter.h ****             max_ = min_ = avg_ = currentBlockLoad;
  62:lib/libdaisy/src/util/CpuLoadMeter.h ****             firstCycle_        = false;
  63:lib/libdaisy/src/util/CpuLoadMeter.h ****         }
  64:lib/libdaisy/src/util/CpuLoadMeter.h ****         else
  65:lib/libdaisy/src/util/CpuLoadMeter.h ****         {
  66:lib/libdaisy/src/util/CpuLoadMeter.h ****             if(currentBlockLoad > max_)
  67:lib/libdaisy/src/util/CpuLoadMeter.h ****                 max_ = currentBlockLoad;
  68:lib/libdaisy/src/util/CpuLoadMeter.h ****             if(currentBlockLoad < min_)
  69:lib/libdaisy/src/util/CpuLoadMeter.h ****                 min_ = currentBlockLoad;
  70:lib/libdaisy/src/util/CpuLoadMeter.h **** 
  71:lib/libdaisy/src/util/CpuLoadMeter.h ****             avg_ = smoothingConstant_ * currentBlockLoad
  72:lib/libdaisy/src/util/CpuLoadMeter.h ****                    + (1.0f - smoothingConstant_) * avg_;
  73:lib/libdaisy/src/util/CpuLoadMeter.h ****         }
  74:lib/libdaisy/src/util/CpuLoadMeter.h ****     }
  75:lib/libdaisy/src/util/CpuLoadMeter.h **** 
  76:lib/libdaisy/src/util/CpuLoadMeter.h ****     /** Returns the smoothed average CPU load in the range 0..1 */
ARM GAS  /var/folders/9s/8rp0_f2s1n31qbztm3b5_fdh0000gn/T//ccCzuEKD.s 			page 55


  77:lib/libdaisy/src/util/CpuLoadMeter.h ****     float GetAvgCpuLoad() const { return avg_; }
  78:lib/libdaisy/src/util/CpuLoadMeter.h ****     /** Returns the minimun CPU load observed since the last call to Reset(). */
  79:lib/libdaisy/src/util/CpuLoadMeter.h ****     float GetMinCpuLoad() const { return min_; }
  80:lib/libdaisy/src/util/CpuLoadMeter.h ****     /** Returns the maximum CPU load observed since the last call to Reset(). */
  81:lib/libdaisy/src/util/CpuLoadMeter.h ****     float GetMaxCpuLoad() const { return max_; }
  82:lib/libdaisy/src/util/CpuLoadMeter.h **** 
  83:lib/libdaisy/src/util/CpuLoadMeter.h ****     /** Resets the minimun, maximum and average load readings. */
  84:lib/libdaisy/src/util/CpuLoadMeter.h ****     void Reset()
  85:lib/libdaisy/src/util/CpuLoadMeter.h ****     {
  86:lib/libdaisy/src/util/CpuLoadMeter.h ****         firstCycle_ = true;
 1565              		.loc 17 86 21 view .LVU341
 1566 002c 0122     		movs	r2, #1
 1567              	.LBE415:
 1568              	.LBE414:
 1569              	.LBE413:
 1570              	.LBE412:
 110:Interface.cpp ****     hw.StartAudio(AudioCallback);
 1571              		.loc 13 110 18 view .LVU342
 1572 002e 2D49     		ldr	r1, .L43+8
 1573              	.LBB426:
 1574              	.LBB424:
  33:lib/libdaisy/src/util/CpuLoadMeter.h ****         const auto ticksPerS   = float(System::GetTickFreq());
 1575              		.loc 17 33 20 view .LVU343
 1576 0030 C7EE087A 		vdiv.f32	s15, s14, s16
 1577              	.LVL120:
  34:lib/libdaisy/src/util/CpuLoadMeter.h ****         ticksPerBlockInv_      = 1.0f / (ticksPerS * secPerBlock);
 1578              		.loc 17 34 61 view .LVU344
 1579 0034 07EE100A 		vmov	s14, r0	@ int
 1580              	.LBB420:
 1581              	.LBB416:
 1582              		.loc 17 86 21 view .LVU345
 1583 0038 1A70     		strb	r2, [r3]
  87:lib/libdaisy/src/util/CpuLoadMeter.h ****         avg_ = max_ = min_ = NAN;
 1584              		.loc 17 87 28 view .LVU346
 1585 003a 2B4A     		ldr	r2, .L43+12
 1586              	.LBE416:
 1587              	.LBE420:
 1588              	.LBE424:
 1589              	.LBE426:
 110:Interface.cpp ****     hw.StartAudio(AudioCallback);
 1590              		.loc 13 110 18 view .LVU347
 1591 003c 2B48     		ldr	r0, .L43+16
 1592              	.LVL121:
 1593              	.LBB427:
 1594              	.LBB425:
 1595              	.LBB421:
 1596              	.LBB417:
 1597              		.loc 17 87 28 view .LVU348
 1598 003e DA60     		str	r2, [r3, #12]	@ float
 1599              	.LBE417:
 1600              	.LBE421:
  34:lib/libdaisy/src/util/CpuLoadMeter.h ****         ticksPerBlockInv_      = 1.0f / (ticksPerS * secPerBlock);
 1601              		.loc 17 34 61 view .LVU349
 1602 0040 B8EE477A 		vcvt.f32.u32	s14, s14
 1603              	.LVL122:
 1604              	.LBB422:
 1605              	.LBB418:
ARM GAS  /var/folders/9s/8rp0_f2s1n31qbztm3b5_fdh0000gn/T//ccCzuEKD.s 			page 56


 1606              		.loc 17 87 21 view .LVU350
 1607 0044 1A61     		str	r2, [r3, #16]	@ float
 1608              		.loc 17 87 14 view .LVU351
 1609 0046 5A61     		str	r2, [r3, #20]	@ float
 1610              	.LBE418:
 1611              	.LBE422:
  35:lib/libdaisy/src/util/CpuLoadMeter.h **** 
 1612              		.loc 17 35 52 view .LVU352
 1613 0048 27EE877A 		vmul.f32	s14, s15, s14
 1614              	.LVL123:
  35:lib/libdaisy/src/util/CpuLoadMeter.h **** 
 1615              		.loc 17 35 39 view .LVU353
 1616 004c F7EE007A 		vmov.f32	s15, #1.0e+0
 1617              	.LVL124:
  35:lib/libdaisy/src/util/CpuLoadMeter.h **** 
 1618              		.loc 17 35 39 view .LVU354
 1619 0050 C7EE876A 		vdiv.f32	s13, s15, s14
  38:lib/libdaisy/src/util/CpuLoadMeter.h ****         const auto cutoffNormalized
 1620              		.loc 17 38 20 view .LVU355
 1621 0054 9FED267A 		vldr.32	s14, .L43+20
 1622 0058 28EE078A 		vmul.f32	s16, s16, s14
 1623              	.LVL125:
  35:lib/libdaisy/src/util/CpuLoadMeter.h **** 
 1624              		.loc 17 35 32 view .LVU356
 1625 005c C3ED016A 		vstr.32	s13, [r3, #4]
  38:lib/libdaisy/src/util/CpuLoadMeter.h ****         const auto cutoffNormalized
 1626              		.loc 17 38 9 is_stmt 1 view .LVU357
  39:lib/libdaisy/src/util/CpuLoadMeter.h ****             = smoothingFilterCutoffHz * 2.0f * 3.141592653f / blockRateInHz;
 1627              		.loc 17 39 9 view .LVU358
  39:lib/libdaisy/src/util/CpuLoadMeter.h ****             = smoothingFilterCutoffHz * 2.0f * 3.141592653f / blockRateInHz;
 1628              		.loc 17 39 20 is_stmt 0 view .LVU359
 1629 0060 DFED246A 		vldr.32	s13, .L43+24
 1630 0064 86EE887A 		vdiv.f32	s14, s13, s16
 1631              	.LVL126:
  43:lib/libdaisy/src/util/CpuLoadMeter.h **** 
 1632              		.loc 17 43 9 is_stmt 1 view .LVU360
  43:lib/libdaisy/src/util/CpuLoadMeter.h **** 
 1633              		.loc 17 43 67 is_stmt 0 view .LVU361
 1634 0068 77EE277A 		vadd.f32	s15, s14, s15
  43:lib/libdaisy/src/util/CpuLoadMeter.h **** 
 1635              		.loc 17 43 47 view .LVU362
 1636 006c C7EE276A 		vdiv.f32	s13, s14, s15
  43:lib/libdaisy/src/util/CpuLoadMeter.h **** 
 1637              		.loc 17 43 28 view .LVU363
 1638 0070 C3ED066A 		vstr.32	s13, [r3, #24]
  45:lib/libdaisy/src/util/CpuLoadMeter.h ****     }
 1639              		.loc 17 45 9 is_stmt 1 view .LVU364
 1640              	.LVL127:
 1641              	.LBB423:
 1642              	.LBI414:
  84:lib/libdaisy/src/util/CpuLoadMeter.h ****     {
 1643              		.loc 17 84 10 view .LVU365
 1644              	.LBB419:
  86:lib/libdaisy/src/util/CpuLoadMeter.h ****         avg_ = max_ = min_ = NAN;
 1645              		.loc 17 86 9 view .LVU366
 1646              		.loc 17 87 9 view .LVU367
 1647              		.loc 17 87 9 is_stmt 0 view .LVU368
ARM GAS  /var/folders/9s/8rp0_f2s1n31qbztm3b5_fdh0000gn/T//ccCzuEKD.s 			page 57


 1648              	.LBE419:
 1649              	.LBE423:
 1650              	.LBE425:
 1651              	.LBE427:
 110:Interface.cpp ****     hw.StartAudio(AudioCallback);
 1652              		.loc 13 110 5 is_stmt 1 view .LVU369
 110:Interface.cpp ****     hw.StartAudio(AudioCallback);
 1653              		.loc 13 110 18 is_stmt 0 view .LVU370
 1654 0074 FFF7FEFF 		bl	_ZN5daisy9DaisySeed10StartAudioEPFvPKfPfjE
 1655              	.LVL128:
 113:Interface.cpp ****     hw.StartLog(false); // Start log immediately (non-blocking)
 1656              		.loc 13 113 5 is_stmt 1 view .LVU371
 1657              	.LBB428:
 1658              	.LBI428:
 122:lib/libdaisy/src/daisy_seed.h ****     }
 123:lib/libdaisy/src/daisy_seed.h **** 
 124:lib/libdaisy/src/daisy_seed.h ****     /** Start the logging session. Optionally wait for terminal connection before proceeding.
 125:lib/libdaisy/src/daisy_seed.h ****     */
 126:lib/libdaisy/src/daisy_seed.h ****     static void StartLog(bool wait_for_pc = false)
 1659              		.loc 3 126 17 view .LVU372
 1660              	.LBB429:
 127:lib/libdaisy/src/daisy_seed.h ****     {
 128:lib/libdaisy/src/daisy_seed.h ****         Log::StartLog(wait_for_pc);
 1661              		.loc 3 128 9 view .LVU373
 1662              		.loc 3 128 22 is_stmt 0 view .LVU374
 1663 0078 0020     		movs	r0, #0
 1664 007a FFF7FEFF 		bl	_ZN5daisy6LoggerILNS_17LoggerDestinationE1EE8StartLogEb
 1665              	.LVL129:
 1666              		.loc 3 128 22 view .LVU375
 1667              	.LBE429:
 1668              	.LBE428:
 115:Interface.cpp ****     hw.PrintLine("Plaits Synth Started - Ready for Bootloader CMD");
 1669              		.loc 13 115 5 is_stmt 1 view .LVU376
 1670              	.LBB430:
 1671              	.LBI430:
 119:lib/libdaisy/src/daisy_seed.h ****     {
 1672              		.loc 3 119 17 view .LVU377
 1673              	.LBB431:
 121:lib/libdaisy/src/daisy_seed.h ****     }
 1674              		.loc 3 121 23 is_stmt 0 view .LVU378
 1675 007e 1E48     		ldr	r0, .L43+28
 1676 0080 FFF7FEFF 		bl	_ZN5daisy6LoggerILNS_17LoggerDestinationE1EE9PrintLineEPKcz
 1677              	.LVL130:
 121:lib/libdaisy/src/daisy_seed.h ****     }
 1678              		.loc 3 121 23 view .LVU379
 1679              	.LBE431:
 1680              	.LBE430:
 116:Interface.cpp ****     char settings[64];
 1681              		.loc 13 116 5 is_stmt 1 view .LVU380
 118:Interface.cpp ****     sprintf(settings, "Max Voices: %d | Block: %d | SR: %d", NUM_VOICES, BLOCK_SIZE, (int)sample_ra
 1682              		.loc 13 118 5 view .LVU381
 118:Interface.cpp ****     sprintf(settings, "Max Voices: %d | Block: %d | SR: %d", NUM_VOICES, BLOCK_SIZE, (int)sample_ra
 1683              		.loc 13 118 12 is_stmt 0 view .LVU382
 1684 0084 D4ED007A 		vldr.32	s15, [r4]
 1685 0088 1023     		movs	r3, #16
 1686 008a 0422     		movs	r2, #4
 1687 008c FDEEE77A 		vcvt.s32.f32	s15, s15
ARM GAS  /var/folders/9s/8rp0_f2s1n31qbztm3b5_fdh0000gn/T//ccCzuEKD.s 			page 58


 1688 0090 1A49     		ldr	r1, .L43+32
 1689 0092 02A8     		add	r0, sp, #8
 1690 0094 CDED007A 		vstr.32	s15, [sp]	@ int
 1691 0098 FFF7FEFF 		bl	sprintf
 1692              	.LVL131:
 119:Interface.cpp ****     hw.PrintLine(settings);
 1693              		.loc 13 119 5 is_stmt 1 view .LVU383
 1694              	.LBB432:
 1695              	.LBI432:
 119:lib/libdaisy/src/daisy_seed.h ****     {
 1696              		.loc 3 119 17 view .LVU384
 1697              	.LBB433:
 121:lib/libdaisy/src/daisy_seed.h ****     }
 1698              		.loc 3 121 23 is_stmt 0 view .LVU385
 1699 009c 02A8     		add	r0, sp, #8
 1700              	.LVL132:
 121:lib/libdaisy/src/daisy_seed.h ****     }
 1701              		.loc 3 121 23 view .LVU386
 1702 009e FFF7FEFF 		bl	_ZN5daisy6LoggerILNS_17LoggerDestinationE1EE9PrintLineEPKcz
 1703              	.LVL133:
 121:lib/libdaisy/src/daisy_seed.h ****     }
 1704              		.loc 3 121 23 view .LVU387
 1705              	.LBE433:
 1706              	.LBE432:
 120:Interface.cpp ****     sprintf(settings, "Engine Range: 0-%d", MAX_ENGINE_INDEX);
 1707              		.loc 13 120 5 is_stmt 1 view .LVU388
 120:Interface.cpp ****     sprintf(settings, "Engine Range: 0-%d", MAX_ENGINE_INDEX);
 1708              		.loc 13 120 12 is_stmt 0 view .LVU389
 1709 00a2 174B     		ldr	r3, .L43+36
 1710 00a4 1749     		ldr	r1, .L43+40
 1711 00a6 02A8     		add	r0, sp, #8
 1712 00a8 1C68     		ldr	r4, [r3]
 1713 00aa 2246     		mov	r2, r4
 1714 00ac FFF7FEFF 		bl	sprintf
 1715              	.LVL134:
 121:Interface.cpp ****     hw.PrintLine(settings);
 1716              		.loc 13 121 5 is_stmt 1 view .LVU390
 1717              	.LBB434:
 1718              	.LBI434:
 119:lib/libdaisy/src/daisy_seed.h ****     {
 1719              		.loc 3 119 17 view .LVU391
 1720              	.LBB435:
 121:lib/libdaisy/src/daisy_seed.h ****     }
 1721              		.loc 3 121 23 is_stmt 0 view .LVU392
 1722 00b0 02A8     		add	r0, sp, #8
 1723              	.LVL135:
 121:lib/libdaisy/src/daisy_seed.h ****     }
 1724              		.loc 3 121 23 view .LVU393
 1725 00b2 FFF7FEFF 		bl	_ZN5daisy6LoggerILNS_17LoggerDestinationE1EE9PrintLineEPKcz
 1726              	.LVL136:
 121:lib/libdaisy/src/daisy_seed.h ****     }
 1727              		.loc 3 121 23 view .LVU394
 1728              	.LBE435:
 1729              	.LBE434:
 122:Interface.cpp ****     sprintf(settings, "Mode: %s", (MAX_ENGINE_INDEX <=3) ? "Poly (0-3)" : "Dynamic Poly"); // Indic
 1730              		.loc 13 122 5 is_stmt 1 view .LVU395
 122:Interface.cpp ****     sprintf(settings, "Mode: %s", (MAX_ENGINE_INDEX <=3) ? "Poly (0-3)" : "Dynamic Poly"); // Indic
ARM GAS  /var/folders/9s/8rp0_f2s1n31qbztm3b5_fdh0000gn/T//ccCzuEKD.s 			page 59


 1731              		.loc 13 122 12 is_stmt 0 view .LVU396
 1732 00b6 144B     		ldr	r3, .L43+44
 1733 00b8 144A     		ldr	r2, .L43+48
 1734 00ba 02A8     		add	r0, sp, #8
 1735 00bc 1449     		ldr	r1, .L43+52
 1736 00be 032C     		cmp	r4, #3
 1737 00c0 C8BF     		it	gt
 1738 00c2 1A46     		movgt	r2, r3
 1739 00c4 FFF7FEFF 		bl	sprintf
 1740              	.LVL137:
 123:Interface.cpp ****     hw.PrintLine(settings);
 1741              		.loc 13 123 5 is_stmt 1 view .LVU397
 1742              	.LBB436:
 1743              	.LBI436:
 119:lib/libdaisy/src/daisy_seed.h ****     {
 1744              		.loc 3 119 17 view .LVU398
 1745              	.LBB437:
 121:lib/libdaisy/src/daisy_seed.h ****     }
 1746              		.loc 3 121 23 is_stmt 0 view .LVU399
 1747 00c8 02A8     		add	r0, sp, #8
 1748              	.LVL138:
 121:lib/libdaisy/src/daisy_seed.h ****     }
 1749              		.loc 3 121 23 view .LVU400
 1750 00ca FFF7FEFF 		bl	_ZN5daisy6LoggerILNS_17LoggerDestinationE1EE9PrintLineEPKcz
 1751              	.LVL139:
 121:lib/libdaisy/src/daisy_seed.h ****     }
 1752              		.loc 3 121 23 view .LVU401
 1753              	.LBE437:
 1754              	.LBE436:
 124:Interface.cpp ****     hw.PrintLine("----------------");
 1755              		.loc 13 124 5 is_stmt 1 view .LVU402
 1756              	.LBB438:
 1757              	.LBI438:
 119:lib/libdaisy/src/daisy_seed.h ****     {
 1758              		.loc 3 119 17 view .LVU403
 1759              	.LBB439:
 121:lib/libdaisy/src/daisy_seed.h ****     }
 1760              		.loc 3 121 23 is_stmt 0 view .LVU404
 1761 00ce 1148     		ldr	r0, .L43+56
 1762 00d0 FFF7FEFF 		bl	_ZN5daisy6LoggerILNS_17LoggerDestinationE1EE9PrintLineEPKcz
 1763              	.LVL140:
 121:lib/libdaisy/src/daisy_seed.h ****     }
 1764              		.loc 3 121 23 view .LVU405
 1765              	.LBE439:
 1766              	.LBE438:
 125:Interface.cpp **** }
 1767              		.loc 13 125 1 view .LVU406
 1768 00d4 12B0     		add	sp, sp, #72
 1769              		.cfi_def_cfa_offset 16
 1770              		@ sp needed
 1771 00d6 BDEC028B 		vldm	sp!, {d8}
 1772              		.cfi_restore 80
 1773              		.cfi_restore 81
 1774              		.cfi_def_cfa_offset 8
 1775 00da 10BD     		pop	{r4, pc}
 1776              	.L44:
 1777              		.align	2
ARM GAS  /var/folders/9s/8rp0_f2s1n31qbztm3b5_fdh0000gn/T//ccCzuEKD.s 			page 60


 1778              	.L43:
 1779 00dc 00000000 		.word	.LANCHOR1
 1780 00e0 00000000 		.word	cpu_meter
 1781 00e4 00000000 		.word	_Z13AudioCallbackPKfPfj
 1782 00e8 0000C07F 		.word	2143289344
 1783 00ec 00000000 		.word	.LANCHOR0
 1784 00f0 0000803D 		.word	1031798784
 1785 00f4 DB0FC940 		.word	1086918619
 1786 00f8 18000000 		.word	.LC5
 1787 00fc 48000000 		.word	.LC6
 1788 0100 00000000 		.word	MAX_ENGINE_INDEX
 1789 0104 6C000000 		.word	.LC7
 1790 0108 0B000000 		.word	.LC4
 1791 010c 00000000 		.word	.LC3
 1792 0110 7F000000 		.word	.LC8
 1793 0114 88000000 		.word	.LC9
 1794              		.cfi_endproc
 1795              	.LFE5064:
 1797              		.section	.text.startup._GLOBAL__sub_I_hw,"ax",%progbits
 1798              		.align	1
 1799              		.syntax unified
 1800              		.thumb
 1801              		.thumb_func
 1803              	_GLOBAL__sub_I_hw:
 1804              	.LFB5822:
 1805              		.loc 13 154 1 is_stmt 1 view -0
 1806              		.cfi_startproc
 1807              		@ args = 0, pretend = 0, frame = 0
 1808              		@ frame_needed = 0, uses_anonymous_args = 0
 1809              	.LBB503:
 1810              	.LBI503:
 1811              		.loc 13 154 1 view .LVU408
 1812              	.LVL141:
 1813              	.LBB504:
 1814              	.LBB505:
 1815              	.LBI505:
  21:lib/libdaisy/src/daisy_seed.h ****     ~DaisySeed() {}
 1816              		.loc 3 21 5 view .LVU409
 1817              	.LBB506:
 1818              	.LBB507:
 1819              	.LBI507:
 1820              		.file 18 "lib/libdaisy/src/per/qspi.h"
   1:lib/libdaisy/src/per/qspi.h **** #ifndef DSY_QSPI
   2:lib/libdaisy/src/per/qspi.h **** #define DSY_QSPI /**< Macro */
   3:lib/libdaisy/src/per/qspi.h **** 
   4:lib/libdaisy/src/per/qspi.h **** #ifndef UNIT_TEST // for unit tests, a dummy implementation
   5:lib/libdaisy/src/per/qspi.h **** 
   6:lib/libdaisy/src/per/qspi.h **** #include <cstdint>
   7:lib/libdaisy/src/per/qspi.h **** #include "daisy_core.h" // Added for dsy_gpio_pin typedef
   8:lib/libdaisy/src/per/qspi.h **** 
   9:lib/libdaisy/src/per/qspi.h **** #define DSY_QSPI_TEXT       \
  10:lib/libdaisy/src/per/qspi.h ****     __attribute__((section( \
  11:lib/libdaisy/src/per/qspi.h ****         ".qspiflash_text"))) /**< used for reading memory in memory_mapped mode. */
  12:lib/libdaisy/src/per/qspi.h **** #define DSY_QSPI_DATA       \
  13:lib/libdaisy/src/per/qspi.h ****     __attribute__((section( \
  14:lib/libdaisy/src/per/qspi.h ****         ".qspiflash_data"))) /**< used for reading memory in memory_mapped mode. */
  15:lib/libdaisy/src/per/qspi.h **** #define DSY_QSPI_BSS        \
ARM GAS  /var/folders/9s/8rp0_f2s1n31qbztm3b5_fdh0000gn/T//ccCzuEKD.s 			page 61


  16:lib/libdaisy/src/per/qspi.h ****     __attribute__((section( \
  17:lib/libdaisy/src/per/qspi.h ****         ".qspiflash_bss"))) /**< used for reading memory in memory_mapped mode. */
  18:lib/libdaisy/src/per/qspi.h **** 
  19:lib/libdaisy/src/per/qspi.h **** namespace daisy
  20:lib/libdaisy/src/per/qspi.h **** {
  21:lib/libdaisy/src/per/qspi.h **** /** @addtogroup serial
  22:lib/libdaisy/src/per/qspi.h **** @{
  23:lib/libdaisy/src/per/qspi.h **** */
  24:lib/libdaisy/src/per/qspi.h **** 
  25:lib/libdaisy/src/per/qspi.h **** /** 
  26:lib/libdaisy/src/per/qspi.h ****  Driver for QSPI peripheral to interface with external flash memory. \n 
  27:lib/libdaisy/src/per/qspi.h ****     Currently supported QSPI Devices: \n 
  28:lib/libdaisy/src/per/qspi.h ****     * IS25LP080D
  29:lib/libdaisy/src/per/qspi.h **** */
  30:lib/libdaisy/src/per/qspi.h **** class QSPIHandle
  31:lib/libdaisy/src/per/qspi.h **** {
  32:lib/libdaisy/src/per/qspi.h ****   public:
  33:lib/libdaisy/src/per/qspi.h ****     enum Result
  34:lib/libdaisy/src/per/qspi.h ****     {
  35:lib/libdaisy/src/per/qspi.h ****         OK = 0,
  36:lib/libdaisy/src/per/qspi.h ****         ERR
  37:lib/libdaisy/src/per/qspi.h ****     };
  38:lib/libdaisy/src/per/qspi.h **** 
  39:lib/libdaisy/src/per/qspi.h ****     /** Indicates the current status of the module. 
  40:lib/libdaisy/src/per/qspi.h ****          *  Warnings are indicated by a leading W.
  41:lib/libdaisy/src/per/qspi.h ****          *  Errors are indicated by a leading E and cause an immediate exit.
  42:lib/libdaisy/src/per/qspi.h ****          * 
  43:lib/libdaisy/src/per/qspi.h ****          *  \param GOOD - No errors have been reported.
  44:lib/libdaisy/src/per/qspi.h ****          *  \param E_HAL_ERROR - HAL code did not return HAL_OK.
  45:lib/libdaisy/src/per/qspi.h ****          *  \param E_SWITCHING_MODES - An error was encountered while switching QSPI peripheral mod
  46:lib/libdaisy/src/per/qspi.h ****          *  \param E_INVALID_MODE - QSPI should not be written to while the program is executing fr
  47:lib/libdaisy/src/per/qspi.h ****          */
  48:lib/libdaisy/src/per/qspi.h ****     enum Status
  49:lib/libdaisy/src/per/qspi.h ****     {
  50:lib/libdaisy/src/per/qspi.h ****         GOOD = 0,
  51:lib/libdaisy/src/per/qspi.h ****         E_HAL_ERROR,
  52:lib/libdaisy/src/per/qspi.h ****         E_SWITCHING_MODES,
  53:lib/libdaisy/src/per/qspi.h ****         E_INVALID_MODE,
  54:lib/libdaisy/src/per/qspi.h ****     };
  55:lib/libdaisy/src/per/qspi.h **** 
  56:lib/libdaisy/src/per/qspi.h ****     /** Configuration structure for interfacing with QSPI Driver */
  57:lib/libdaisy/src/per/qspi.h ****     struct Config
  58:lib/libdaisy/src/per/qspi.h ****     {
  59:lib/libdaisy/src/per/qspi.h ****         /** Flash Devices supported. (Both of these are more-or-less the same, just different sizes
  60:lib/libdaisy/src/per/qspi.h ****         enum Device
  61:lib/libdaisy/src/per/qspi.h ****         {
  62:lib/libdaisy/src/per/qspi.h ****             IS25LP080D,  /**< & */
  63:lib/libdaisy/src/per/qspi.h ****             IS25LP064A,  /**< & */
  64:lib/libdaisy/src/per/qspi.h ****             DEVICE_LAST, /**< & */
  65:lib/libdaisy/src/per/qspi.h ****         };
  66:lib/libdaisy/src/per/qspi.h **** 
  67:lib/libdaisy/src/per/qspi.h ****         /** 
  68:lib/libdaisy/src/per/qspi.h ****         Modes of operation.
  69:lib/libdaisy/src/per/qspi.h ****         Memory Mapped mode: QSPI configured so that the QSPI can be
  70:lib/libdaisy/src/per/qspi.h ****         read from starting address 0x90000000. Writing is not
  71:lib/libdaisy/src/per/qspi.h ****         possible in this mode. \n 
  72:lib/libdaisy/src/per/qspi.h ****         Indirect Polling mode: Device driver enabled. 
ARM GAS  /var/folders/9s/8rp0_f2s1n31qbztm3b5_fdh0000gn/T//ccCzuEKD.s 			page 62


  73:lib/libdaisy/src/per/qspi.h ****         */
  74:lib/libdaisy/src/per/qspi.h ****         enum Mode
  75:lib/libdaisy/src/per/qspi.h ****         {
  76:lib/libdaisy/src/per/qspi.h ****             MEMORY_MAPPED,    /**< & */
  77:lib/libdaisy/src/per/qspi.h ****             INDIRECT_POLLING, /**< & */
  78:lib/libdaisy/src/per/qspi.h ****             MODE_LAST,
  79:lib/libdaisy/src/per/qspi.h ****         };
  80:lib/libdaisy/src/per/qspi.h **** 
  81:lib/libdaisy/src/per/qspi.h ****         //SCK,  CE# (active low)
  82:lib/libdaisy/src/per/qspi.h ****         struct
  83:lib/libdaisy/src/per/qspi.h ****         {
  84:lib/libdaisy/src/per/qspi.h ****             dsy_gpio_pin io0; /**< & */
  85:lib/libdaisy/src/per/qspi.h ****             dsy_gpio_pin io1; /**< & */
  86:lib/libdaisy/src/per/qspi.h ****             dsy_gpio_pin io2; /**< & */
  87:lib/libdaisy/src/per/qspi.h ****             dsy_gpio_pin io3; /**< & */
  88:lib/libdaisy/src/per/qspi.h ****             dsy_gpio_pin clk; /**< & */
  89:lib/libdaisy/src/per/qspi.h ****             dsy_gpio_pin ncs; /**< & */
  90:lib/libdaisy/src/per/qspi.h ****         } pin_config;
  91:lib/libdaisy/src/per/qspi.h **** 
  92:lib/libdaisy/src/per/qspi.h ****         Device device;
  93:lib/libdaisy/src/per/qspi.h ****         Mode   mode;
  94:lib/libdaisy/src/per/qspi.h ****     };
  95:lib/libdaisy/src/per/qspi.h **** 
  96:lib/libdaisy/src/per/qspi.h ****     /** 
  97:lib/libdaisy/src/per/qspi.h ****         Initializes QSPI peripheral, and Resets, and prepares memory for access.
  98:lib/libdaisy/src/per/qspi.h ****         \param config should be populated with the mode, device and pin_config before calling this 
  99:lib/libdaisy/src/per/qspi.h ****         \return Result::OK or Result::ERR
 100:lib/libdaisy/src/per/qspi.h ****         */
 101:lib/libdaisy/src/per/qspi.h ****     Result Init(const Config& config);
 102:lib/libdaisy/src/per/qspi.h **** 
 103:lib/libdaisy/src/per/qspi.h ****     /** Returns the current config. */
 104:lib/libdaisy/src/per/qspi.h ****     const Config& GetConfig() const;
 105:lib/libdaisy/src/per/qspi.h **** 
 106:lib/libdaisy/src/per/qspi.h ****     // Couldn't this just be called before anything else in init? That
 107:lib/libdaisy/src/per/qspi.h ****     // would make manually calling it unnecessary.
 108:lib/libdaisy/src/per/qspi.h ****     /** 
 109:lib/libdaisy/src/per/qspi.h ****         Deinitializes the peripheral
 110:lib/libdaisy/src/per/qspi.h ****         This should be called before reinitializing QSPI in a different mode.
 111:lib/libdaisy/src/per/qspi.h ****         \return Result::OK or Result::ERR
 112:lib/libdaisy/src/per/qspi.h ****         */
 113:lib/libdaisy/src/per/qspi.h ****     Result DeInit();
 114:lib/libdaisy/src/per/qspi.h **** 
 115:lib/libdaisy/src/per/qspi.h ****     /** 
 116:lib/libdaisy/src/per/qspi.h ****         Writes a single page to to the specified address on the QSPI chip.
 117:lib/libdaisy/src/per/qspi.h ****         For IS25LP*, page size is 256 bytes.
 118:lib/libdaisy/src/per/qspi.h ****         \param address Address to write to
 119:lib/libdaisy/src/per/qspi.h ****         \param size Buffer size
 120:lib/libdaisy/src/per/qspi.h ****         \param buffer Buffer to write
 121:lib/libdaisy/src/per/qspi.h ****         \return Result::OK or Result::ERR
 122:lib/libdaisy/src/per/qspi.h ****         */
 123:lib/libdaisy/src/per/qspi.h ****     Result WritePage(uint32_t address, uint32_t size, uint8_t* buffer);
 124:lib/libdaisy/src/per/qspi.h **** 
 125:lib/libdaisy/src/per/qspi.h ****     /** 
 126:lib/libdaisy/src/per/qspi.h ****         Writes data in buffer to to the QSPI. Starting at address to address+size 
 127:lib/libdaisy/src/per/qspi.h ****         \param address Address to write to
 128:lib/libdaisy/src/per/qspi.h ****         \param size Buffer size
 129:lib/libdaisy/src/per/qspi.h ****         \param buffer Buffer to write
ARM GAS  /var/folders/9s/8rp0_f2s1n31qbztm3b5_fdh0000gn/T//ccCzuEKD.s 			page 63


 130:lib/libdaisy/src/per/qspi.h ****         \return Result::OK or Result::ERR
 131:lib/libdaisy/src/per/qspi.h ****         */
 132:lib/libdaisy/src/per/qspi.h ****     Result Write(uint32_t address, uint32_t size, uint8_t* buffer);
 133:lib/libdaisy/src/per/qspi.h **** 
 134:lib/libdaisy/src/per/qspi.h ****     /** 
 135:lib/libdaisy/src/per/qspi.h ****         Erases the area specified on the chip.
 136:lib/libdaisy/src/per/qspi.h ****         Erasures will happen by 4K, 32K or 64K increments.
 137:lib/libdaisy/src/per/qspi.h ****         Smallest erase possible is 4kB at a time. (on IS25LP*)
 138:lib/libdaisy/src/per/qspi.h ****         \param start_addr Address to begin erasing from
 139:lib/libdaisy/src/per/qspi.h ****         \param end_addr  Address to stop erasing at
 140:lib/libdaisy/src/per/qspi.h ****         \return Result::OK or Result::ERR
 141:lib/libdaisy/src/per/qspi.h ****         */
 142:lib/libdaisy/src/per/qspi.h ****     Result Erase(uint32_t start_addr, uint32_t end_addr);
 143:lib/libdaisy/src/per/qspi.h **** 
 144:lib/libdaisy/src/per/qspi.h ****     /**  
 145:lib/libdaisy/src/per/qspi.h ****          Erases a single sector of the chip.  
 146:lib/libdaisy/src/per/qspi.h ****         TODO: Document the size of this function. 
 147:lib/libdaisy/src/per/qspi.h ****         \param addr Address of sector to erase
 148:lib/libdaisy/src/per/qspi.h ****         \return Result::OK or Result::ERR
 149:lib/libdaisy/src/per/qspi.h ****         */
 150:lib/libdaisy/src/per/qspi.h ****     Result EraseSector(uint32_t address);
 151:lib/libdaisy/src/per/qspi.h **** 
 152:lib/libdaisy/src/per/qspi.h ****     /** Returns the current class status. Useful for debugging.
 153:lib/libdaisy/src/per/qspi.h ****      *  \returns Status
 154:lib/libdaisy/src/per/qspi.h ****      */
 155:lib/libdaisy/src/per/qspi.h ****     Status GetStatus();
 156:lib/libdaisy/src/per/qspi.h **** 
 157:lib/libdaisy/src/per/qspi.h ****     /** Returns a pointer to the actual memory used 
 158:lib/libdaisy/src/per/qspi.h ****      *  The memory at this address is read-only
 159:lib/libdaisy/src/per/qspi.h ****      *  to write to it use the Write function.
 160:lib/libdaisy/src/per/qspi.h ****      * 
 161:lib/libdaisy/src/per/qspi.h ****      *  \param offset returns the pointer starting this 
 162:lib/libdaisy/src/per/qspi.h ****      *                many bytes into the memory
 163:lib/libdaisy/src/per/qspi.h ****     */
 164:lib/libdaisy/src/per/qspi.h ****     void* GetData(uint32_t offset = 0);
 165:lib/libdaisy/src/per/qspi.h **** 
 166:lib/libdaisy/src/per/qspi.h ****     QSPIHandle() : pimpl_(nullptr) {}
 1821              		.loc 18 166 5 view .LVU410
 1822              	.LBE507:
 1823              	.LBE506:
 1824              	.LBE505:
 1825              	.LBE504:
 1826              	.LBE503:
 1827              		.loc 13 154 1 is_stmt 0 view .LVU411
 1828 0000 F8B5     		push	{r3, r4, r5, r6, r7, lr}
 1829              		.cfi_def_cfa_offset 24
 1830              		.cfi_offset 3, -24
 1831              		.cfi_offset 4, -20
 1832              		.cfi_offset 5, -16
 1833              		.cfi_offset 6, -12
 1834              		.cfi_offset 7, -8
 1835              		.cfi_offset 14, -4
 1836              	.LBB603:
 1837              	.LBB599:
 1838              	.LBB527:
 1839              	.LBB524:
 1840              	.LBB512:
ARM GAS  /var/folders/9s/8rp0_f2s1n31qbztm3b5_fdh0000gn/T//ccCzuEKD.s 			page 64


 1841              	.LBB508:
 1842              	.LBB509:
 1843              		.loc 18 166 34 view .LVU412
 1844 0002 3848     		ldr	r0, .L46
 1845 0004 0026     		movs	r6, #0
 1846              	.LBE509:
 1847              	.LBE508:
 1848              	.LBE512:
 1849              	.LBE524:
 1850              	.LBE527:
   4:Interface.cpp **** Mpr121 touch_sensor;
 1851              		.loc 13 4 11 view .LVU413
 1852 0006 384C     		ldr	r4, .L46+4
 1853              	.LBB528:
 1854              	.LBB529:
 1855              	.LBB530:
 1856              	.LBB531:
 1857              	.LBB532:
 1858              	.LBB533:
 1859              	.LBB534:
 1860              	.LBB535:
  34:Effects/BiquadFilters.h ****         ~BiquadSection() {}
 1861              		.loc 10 34 25 view .LVU414
 1862 0008 384F     		ldr	r7, .L46+8
 1863              	.LBE535:
 1864              	.LBE534:
 1865              	.LBE533:
 1866              	.LBE532:
 1867              	.LBE531:
 1868              	.LBE530:
 1869              	.LBE529:
 1870              	.LBE528:
   4:Interface.cpp **** Mpr121 touch_sensor;
 1871              		.loc 13 4 11 view .LVU415
 1872 000a 2246     		mov	r2, r4
 1873 000c 3849     		ldr	r1, .L46+12
 1874              	.LBB569:
 1875              	.LBB525:
 1876              	.LBB513:
 1877              	.LBB511:
 1878              	.LBB510:
 1879              		.loc 18 166 34 view .LVU416
 1880 000e 0660     		str	r6, [r0]
 1881              	.LVL142:
 1882              		.loc 18 166 34 view .LVU417
 1883              	.LBE510:
 1884              	.LBE511:
 1885              	.LBE513:
 1886              	.LBB514:
 1887              	.LBI514:
  62:lib/libdaisy/src/hid/audio.h ****     ~AudioHandle() {}
 1888              		.loc 7 62 5 is_stmt 1 view .LVU418
 1889              	.LBE514:
 1890              	.LBE525:
 1891              	.LBE569:
 1892              	.LBB570:
 1893              	.LBB564:
ARM GAS  /var/folders/9s/8rp0_f2s1n31qbztm3b5_fdh0000gn/T//ccCzuEKD.s 			page 65


 1894              	.LBB558:
 1895              	.LBB553:
 1896              	.LBB548:
 1897              	.LBB544:
 1898              	.LBB540:
 1899              	.LBB536:
  34:Effects/BiquadFilters.h ****         ~BiquadSection() {}
 1900              		.loc 10 34 25 is_stmt 0 view .LVU419
 1901 0010 07F53835 		add	r5, r7, #188416
 1902              	.LBE536:
 1903              	.LBE540:
 1904              	.LBE544:
 1905              	.LBE548:
 1906              	.LBE553:
 1907              	.LBE558:
 1908              	.LBE564:
 1909              	.LBE570:
 1910              	.LBB571:
 1911              	.LBB526:
 1912              	.LBB517:
 1913              	.LBB515:
 1914              	.LBB516:
  62:lib/libdaisy/src/hid/audio.h ****     ~AudioHandle() {}
 1915              		.loc 7 62 35 view .LVU420
 1916 0014 4661     		str	r6, [r0, #20]
 1917              	.LVL143:
  62:lib/libdaisy/src/hid/audio.h ****     ~AudioHandle() {}
 1918              		.loc 7 62 35 view .LVU421
 1919              	.LBE516:
 1920              	.LBE515:
 1921              	.LBE517:
 1922              	.LBB518:
 1923              	.LBI518:
  84:lib/libdaisy/src/per/adc.h ****     ~AdcHandle() {}
 1924              		.loc 6 84 5 is_stmt 1 view .LVU422
  84:lib/libdaisy/src/per/adc.h ****     ~AdcHandle() {}
 1925              		.loc 6 84 5 is_stmt 0 view .LVU423
 1926              	.LBE518:
 1927              	.LBB519:
 1928              	.LBI519:
 1929              		.file 19 "lib/libdaisy/src/per/dac.h"
   1:lib/libdaisy/src/per/dac.h **** #pragma once
   2:lib/libdaisy/src/per/dac.h **** #ifndef DSY_DAC_H
   3:lib/libdaisy/src/per/dac.h **** #define DSY_DAC_H
   4:lib/libdaisy/src/per/dac.h **** 
   5:lib/libdaisy/src/per/dac.h **** #include "daisy_core.h"
   6:lib/libdaisy/src/per/dac.h **** 
   7:lib/libdaisy/src/per/dac.h **** namespace daisy
   8:lib/libdaisy/src/per/dac.h **** {
   9:lib/libdaisy/src/per/dac.h **** /** DAC handle for Built-in DAC Peripheral 
  10:lib/libdaisy/src/per/dac.h ****  ** 
  11:lib/libdaisy/src/per/dac.h ****  ** For now only Normal Mode is supported,
  12:lib/libdaisy/src/per/dac.h ****  ** Sample and hold mode provides reduced power consumption, but requires a bit more setup.
  13:lib/libdaisy/src/per/dac.h ****  **
  14:lib/libdaisy/src/per/dac.h ****  ** For now connecting the DAC through other internal periphearls is also not supported.
  15:lib/libdaisy/src/per/dac.h ****  **
  16:lib/libdaisy/src/per/dac.h ****  ** Since the DAC channels have dedicated pins we don't need to pass in a pin config like with
ARM GAS  /var/folders/9s/8rp0_f2s1n31qbztm3b5_fdh0000gn/T//ccCzuEKD.s 			page 66


  17:lib/libdaisy/src/per/dac.h ****  ** other modules. However, it is still important to not try to use the DAC pins for anything else.
  18:lib/libdaisy/src/per/dac.h ****  ** DAC Channel 1 is on PA4, and DAC Channel 2 is on PA5
  19:lib/libdaisy/src/per/dac.h ****  ***/
  20:lib/libdaisy/src/per/dac.h **** class DacHandle
  21:lib/libdaisy/src/per/dac.h **** {
  22:lib/libdaisy/src/per/dac.h ****   public:
  23:lib/libdaisy/src/per/dac.h ****     /** Return Values for the DacHandle class */
  24:lib/libdaisy/src/per/dac.h ****     enum class Result
  25:lib/libdaisy/src/per/dac.h ****     {
  26:lib/libdaisy/src/per/dac.h ****         OK,
  27:lib/libdaisy/src/per/dac.h ****         ERR,
  28:lib/libdaisy/src/per/dac.h ****     };
  29:lib/libdaisy/src/per/dac.h **** 
  30:lib/libdaisy/src/per/dac.h ****     /** Selects which channel(s) will be configured for use. */
  31:lib/libdaisy/src/per/dac.h ****     enum class Channel
  32:lib/libdaisy/src/per/dac.h ****     {
  33:lib/libdaisy/src/per/dac.h ****         ONE,
  34:lib/libdaisy/src/per/dac.h ****         TWO,
  35:lib/libdaisy/src/per/dac.h ****         BOTH,
  36:lib/libdaisy/src/per/dac.h ****     };
  37:lib/libdaisy/src/per/dac.h **** 
  38:lib/libdaisy/src/per/dac.h ****     /** Sets the Mode for the DAC channels.
  39:lib/libdaisy/src/per/dac.h ****      **
  40:lib/libdaisy/src/per/dac.h ****      ** Polling mode uses the blocking mode to transmit a single value at a time.
  41:lib/libdaisy/src/per/dac.h ****      **
  42:lib/libdaisy/src/per/dac.h ****      ** DMA mode uses a buffer, and periodically transmits it triggering a 
  43:lib/libdaisy/src/per/dac.h ****      ** callback to fill the buffer when it is ready for more samples.
  44:lib/libdaisy/src/per/dac.h ****      ***/
  45:lib/libdaisy/src/per/dac.h ****     enum class Mode
  46:lib/libdaisy/src/per/dac.h ****     {
  47:lib/libdaisy/src/per/dac.h ****         POLLING,
  48:lib/libdaisy/src/per/dac.h ****         DMA,
  49:lib/libdaisy/src/per/dac.h ****     };
  50:lib/libdaisy/src/per/dac.h **** 
  51:lib/libdaisy/src/per/dac.h ****     /** Sets the number of bits per sample transmitted out of the DAC.
  52:lib/libdaisy/src/per/dac.h ****      ** The output range will be: 0V - VDDA
  53:lib/libdaisy/src/per/dac.h ****      ** The resolution will be roughly: bitdepth / (VDDA - 0V) 
  54:lib/libdaisy/src/per/dac.h ****      ***/
  55:lib/libdaisy/src/per/dac.h ****     enum class BitDepth
  56:lib/libdaisy/src/per/dac.h ****     {
  57:lib/libdaisy/src/per/dac.h ****         BITS_8,
  58:lib/libdaisy/src/per/dac.h ****         BITS_12
  59:lib/libdaisy/src/per/dac.h ****     };
  60:lib/libdaisy/src/per/dac.h **** 
  61:lib/libdaisy/src/per/dac.h ****     /** Sets whether the DAC output is buffered for higher drive ability. */
  62:lib/libdaisy/src/per/dac.h ****     enum class BufferState
  63:lib/libdaisy/src/per/dac.h ****     {
  64:lib/libdaisy/src/per/dac.h ****         ENABLED,
  65:lib/libdaisy/src/per/dac.h ****         DISABLED,
  66:lib/libdaisy/src/per/dac.h ****     };
  67:lib/libdaisy/src/per/dac.h **** 
  68:lib/libdaisy/src/per/dac.h ****     /** Configuration structure for initializing the DAC structure. */
  69:lib/libdaisy/src/per/dac.h ****     struct Config
  70:lib/libdaisy/src/per/dac.h ****     {
  71:lib/libdaisy/src/per/dac.h ****         /** Target Samplerate in Hz used to configure the internal 
  72:lib/libdaisy/src/per/dac.h ****          ** timebase for DMA mode. Does nothing in POLLING mode.
  73:lib/libdaisy/src/per/dac.h ****          ** If the value is 0 at Init time this will default to 48000Hz 
ARM GAS  /var/folders/9s/8rp0_f2s1n31qbztm3b5_fdh0000gn/T//ccCzuEKD.s 			page 67


  74:lib/libdaisy/src/per/dac.h ****          ** otherwise the driver will attempt meet the target.*/
  75:lib/libdaisy/src/per/dac.h ****         uint32_t target_samplerate;
  76:lib/libdaisy/src/per/dac.h **** 
  77:lib/libdaisy/src/per/dac.h ****         Channel     chn;
  78:lib/libdaisy/src/per/dac.h ****         Mode        mode;
  79:lib/libdaisy/src/per/dac.h ****         BitDepth    bitdepth;
  80:lib/libdaisy/src/per/dac.h ****         BufferState buff_state;
  81:lib/libdaisy/src/per/dac.h ****     };
  82:lib/libdaisy/src/per/dac.h **** 
  83:lib/libdaisy/src/per/dac.h ****     DacHandle() : pimpl_(nullptr) {}
 1930              		.loc 19 83 5 is_stmt 1 view .LVU424
 1931              	.LBB520:
 1932              	.LBB521:
 1933              		.loc 19 83 33 is_stmt 0 view .LVU425
 1934 0016 0662     		str	r6, [r0, #32]
 1935              	.LVL144:
 1936              		.loc 19 83 33 view .LVU426
 1937              	.LBE521:
 1938              	.LBE520:
 1939              	.LBE519:
 1940              	.LBB522:
 1941              	.LBI522:
  40:lib/libdaisy/src/hid/usb.h **** 
 1942              		.loc 5 40 5 is_stmt 1 view .LVU427
  40:lib/libdaisy/src/hid/usb.h **** 
 1943              		.loc 5 40 5 is_stmt 0 view .LVU428
 1944              	.LBE522:
 1945              	.LBB523:
 1946              	.LBI523:
  77:lib/libdaisy/src/sys/system.h ****     ~System() {}
 1947              		.loc 4 77 5 is_stmt 1 view .LVU429
  77:lib/libdaisy/src/sys/system.h ****     ~System() {}
 1948              		.loc 4 77 5 is_stmt 0 view .LVU430
 1949              	.LBE523:
 1950              	.LBE526:
 1951              	.LBE571:
   4:Interface.cpp **** Mpr121 touch_sensor;
 1952              		.loc 13 4 11 view .LVU431
 1953 0018 FFF7FEFF 		bl	__aeabi_atexit
 1954              	.LVL145:
 1955              	.LBB572:
 1956              	.LBI572:
  56:mpr121_daisy.h ****     ~Mpr121() {}
 1957              		.loc 8 56 5 is_stmt 1 view .LVU432
 1958              	.LBB573:
 1959              	.LBB574:
 1960              	.LBI574:
  29:lib/libdaisy/src/per/i2c.h ****     {
  30:lib/libdaisy/src/per/i2c.h ****         /** Specifies whether the interface will operate in master or slave mode. */
  31:lib/libdaisy/src/per/i2c.h ****         enum class Mode
  32:lib/libdaisy/src/per/i2c.h ****         {
  33:lib/libdaisy/src/per/i2c.h ****             I2C_MASTER,
  34:lib/libdaisy/src/per/i2c.h ****             I2C_SLAVE,
  35:lib/libdaisy/src/per/i2c.h ****         };
  36:lib/libdaisy/src/per/i2c.h **** 
  37:lib/libdaisy/src/per/i2c.h ****         /** Specifices the internal peripheral to use (these are mapped to different pins on the ha
  38:lib/libdaisy/src/per/i2c.h ****         enum class Peripheral
ARM GAS  /var/folders/9s/8rp0_f2s1n31qbztm3b5_fdh0000gn/T//ccCzuEKD.s 			page 68


  39:lib/libdaisy/src/per/i2c.h ****         {
  40:lib/libdaisy/src/per/i2c.h ****             I2C_1 = 0, /**< & */
  41:lib/libdaisy/src/per/i2c.h ****             I2C_2,     /**< & */
  42:lib/libdaisy/src/per/i2c.h ****             I2C_3,     /**< & */
  43:lib/libdaisy/src/per/i2c.h ****             I2C_4,     /**< & */
  44:lib/libdaisy/src/per/i2c.h ****         };
  45:lib/libdaisy/src/per/i2c.h **** 
  46:lib/libdaisy/src/per/i2c.h ****         /** Rate at which the clock/data will be sent/received. The device being used will have max
  47:lib/libdaisy/src/per/i2c.h ****          *  1MHZ Mode is currently 886kHz
  48:lib/libdaisy/src/per/i2c.h ****          */
  49:lib/libdaisy/src/per/i2c.h ****         enum class Speed
  50:lib/libdaisy/src/per/i2c.h ****         {
  51:lib/libdaisy/src/per/i2c.h ****             I2C_100KHZ, /**< & */
  52:lib/libdaisy/src/per/i2c.h ****             I2C_400KHZ, /**< & */
  53:lib/libdaisy/src/per/i2c.h ****             I2C_1MHZ,   /**< & */
  54:lib/libdaisy/src/per/i2c.h ****         };
  55:lib/libdaisy/src/per/i2c.h **** 
  56:lib/libdaisy/src/per/i2c.h ****         Peripheral periph; /**< & */
  57:lib/libdaisy/src/per/i2c.h ****         struct
  58:lib/libdaisy/src/per/i2c.h ****         {
  59:lib/libdaisy/src/per/i2c.h ****             dsy_gpio_pin scl; /**< & */
  60:lib/libdaisy/src/per/i2c.h ****             dsy_gpio_pin sda; /**< & */
  61:lib/libdaisy/src/per/i2c.h ****         } pin_config;         /**< & */
  62:lib/libdaisy/src/per/i2c.h **** 
  63:lib/libdaisy/src/per/i2c.h ****         Speed speed; /**< & */
  64:lib/libdaisy/src/per/i2c.h ****         Mode  mode;  /**< & */
  65:lib/libdaisy/src/per/i2c.h ****         // 0x10 is chosen as a default to avoid conflicts with reserved addresses
  66:lib/libdaisy/src/per/i2c.h ****         uint8_t address = 0x10; /**< & */
  67:lib/libdaisy/src/per/i2c.h ****     };
  68:lib/libdaisy/src/per/i2c.h **** 
  69:lib/libdaisy/src/per/i2c.h ****     /** Return values for I2C functions. */
  70:lib/libdaisy/src/per/i2c.h ****     enum class Result
  71:lib/libdaisy/src/per/i2c.h ****     {
  72:lib/libdaisy/src/per/i2c.h ****         OK, /**< & */
  73:lib/libdaisy/src/per/i2c.h ****         ERR /**< & */
  74:lib/libdaisy/src/per/i2c.h ****     };
  75:lib/libdaisy/src/per/i2c.h **** 
  76:lib/libdaisy/src/per/i2c.h ****     enum class Direction
  77:lib/libdaisy/src/per/i2c.h ****     {
  78:lib/libdaisy/src/per/i2c.h ****         TRANSMIT, /**< & */
  79:lib/libdaisy/src/per/i2c.h ****         RECEIVE,  /**< & */
  80:lib/libdaisy/src/per/i2c.h ****     };
  81:lib/libdaisy/src/per/i2c.h **** 
  82:lib/libdaisy/src/per/i2c.h ****     I2CHandle() : pimpl_(nullptr) {}
 1961              		.loc 14 82 5 view .LVU433
 1962              	.LBB575:
 1963              	.LBB576:
 1964              		.loc 14 82 33 is_stmt 0 view .LVU434
 1965 001c 3548     		ldr	r0, .L46+16
 1966              	.LBE576:
 1967              	.LBE575:
 1968              	.LBE574:
 1969              	.LBE573:
 1970              	.LBE572:
   5:Interface.cpp **** EchoDelay<48000> delay;
 1971              		.loc 13 5 8 view .LVU435
 1972 001e 2246     		mov	r2, r4
ARM GAS  /var/folders/9s/8rp0_f2s1n31qbztm3b5_fdh0000gn/T//ccCzuEKD.s 			page 69


 1973 0020 3549     		ldr	r1, .L46+20
 1974              	.LBB581:
 1975              	.LBB580:
 1976              	.LBB579:
 1977              	.LBB578:
 1978              	.LBB577:
 1979              		.loc 14 82 33 view .LVU436
 1980 0022 0660     		str	r6, [r0]
 1981              	.LBE577:
 1982              	.LBE578:
 1983              	.LBE579:
  56:mpr121_daisy.h ****     ~Mpr121() {}
 1984              		.loc 8 56 14 view .LVU437
 1985 0024 8680     		strh	r6, [r0, #4]	@ movhi
 1986              	.LVL146:
  56:mpr121_daisy.h ****     ~Mpr121() {}
 1987              		.loc 8 56 14 view .LVU438
 1988              	.LBE580:
 1989              	.LBE581:
   5:Interface.cpp **** EchoDelay<48000> delay;
 1990              		.loc 13 5 8 view .LVU439
 1991 0026 FFF7FEFF 		bl	__aeabi_atexit
 1992              	.LVL147:
 1993              	.LBB582:
 1994              	.LBI528:
  24:Effects/EchoDelay.h ****         ~EchoDelay() {}
 1995              		.loc 9 24 9 is_stmt 1 view .LVU440
 1996              	.LBB565:
 1997              	.LBB559:
 1998              	.LBI559:
  31:lib/DaisySP/Source/Utility/delayline.h ****     ~DelayLine() {}
 1999              		.loc 12 31 5 view .LVU441
  31:lib/DaisySP/Source/Utility/delayline.h ****     ~DelayLine() {}
 2000              		.loc 12 31 5 is_stmt 0 view .LVU442
 2001              	.LBE559:
 2002              	.LBB560:
 2003              	.LBI530:
  76:Effects/BiquadFilters.h ****         ~BiquadCascade() {}
 2004              		.loc 10 76 9 is_stmt 1 view .LVU443
 2005              	.LBB554:
 2006              	.LBB549:
 2007              	.LBI532:
  94:/Library/DaisyToolchain/0.2.0/arm/arm-none-eabi/include/c++/10.3.1/array ****     {
 2008              		.loc 11 94 12 view .LVU444
 2009              	.LBE549:
 2010              	.LBE554:
 2011              	.LBE560:
 2012              	.LBE565:
 2013              	.LBE582:
 2014              	.LBE599:
 2015              	.LBE603:
  94:/Library/DaisyToolchain/0.2.0/arm/arm-none-eabi/include/c++/10.3.1/array ****     {
 2016              		.loc 11 94 12 view .LVU445
 2017              	.LBB604:
 2018              	.LBB600:
 2019              	.LBB583:
 2020              	.LBB566:
ARM GAS  /var/folders/9s/8rp0_f2s1n31qbztm3b5_fdh0000gn/T//ccCzuEKD.s 			page 70


 2021              	.LBB561:
 2022              	.LBB555:
 2023              	.LBB550:
 2024              	.LBB545:
 2025              	.LBI533:
  34:Effects/BiquadFilters.h ****         ~BiquadSection() {}
 2026              		.loc 10 34 9 view .LVU446
 2027              	.LBB541:
 2028              	.LBB537:
  34:Effects/BiquadFilters.h ****         ~BiquadSection() {}
 2029              		.loc 10 34 25 is_stmt 0 view .LVU447
 2030 002a 3146     		mov	r1, r6
 2031 002c 1422     		movs	r2, #20
 2032 002e 05F62C60 		addw	r0, r5, #3628
 2033 0032 FFF7FEFF 		bl	memset
 2034              	.LVL148:
 2035 0036 0023     		movs	r3, #0
 2036 0038 05F56462 		add	r2, r5, #3648
 2037              	.LBE537:
 2038              	.LBE541:
 2039              	.LBE545:
 2040              	.LBE550:
 2041              	.LBE555:
 2042              	.LBE561:
 2043              	.LBE566:
 2044              	.LBE583:
   6:Interface.cpp **** EchoDelay<48000> delay;
 2045              		.loc 13 6 18 view .LVU448
 2046 003c 2F49     		ldr	r1, .L46+24
 2047 003e 3846     		mov	r0, r7
 2048              	.LBB584:
 2049              	.LBB567:
 2050              	.LBB562:
 2051              	.LBB556:
 2052              	.LBB551:
 2053              	.LBB546:
 2054              	.LBB542:
 2055              	.LBB538:
  34:Effects/BiquadFilters.h ****         ~BiquadSection() {}
 2056              		.loc 10 34 25 view .LVU449
 2057 0040 1360     		str	r3, [r2]	@ float
 2058 0042 05F64462 		addw	r2, r5, #3652
 2059 0046 1360     		str	r3, [r2]	@ float
 2060 0048 05F64862 		addw	r2, r5, #3656
 2061 004c 05F64C65 		addw	r5, r5, #3660
 2062 0050 1360     		str	r3, [r2]	@ float
 2063              	.LBE538:
 2064              	.LBE542:
 2065              	.LBE546:
 2066              	.LBE551:
 2067              	.LBE556:
 2068              	.LBE562:
 2069              	.LBE567:
 2070              	.LBE584:
   6:Interface.cpp **** EchoDelay<48000> delay;
 2071              		.loc 13 6 18 view .LVU450
 2072 0052 2246     		mov	r2, r4
ARM GAS  /var/folders/9s/8rp0_f2s1n31qbztm3b5_fdh0000gn/T//ccCzuEKD.s 			page 71


 2073              	.LBB585:
 2074              	.LBB568:
 2075              	.LBB563:
 2076              	.LBB557:
 2077              	.LBB552:
 2078              	.LBB547:
 2079              	.LBB543:
 2080              	.LBB539:
  34:Effects/BiquadFilters.h ****         ~BiquadSection() {}
 2081              		.loc 10 34 25 view .LVU451
 2082 0054 2B60     		str	r3, [r5]	@ float
 2083              	.LVL149:
  34:Effects/BiquadFilters.h ****         ~BiquadSection() {}
 2084              		.loc 10 34 25 view .LVU452
 2085              	.LBE539:
 2086              	.LBE543:
 2087              	.LBE547:
 2088              	.LBE552:
 2089              	.LBE557:
 2090              	.LBE563:
 2091              	.LBE568:
 2092              	.LBE585:
 2093              	.LBE600:
 2094              	.LBE604:
  94:/Library/DaisyToolchain/0.2.0/arm/arm-none-eabi/include/c++/10.3.1/array ****     {
 2095              		.loc 11 94 12 is_stmt 1 view .LVU453
  94:/Library/DaisyToolchain/0.2.0/arm/arm-none-eabi/include/c++/10.3.1/array ****     {
 2096              		.loc 11 94 12 view .LVU454
 2097              	.LBB605:
 2098              	.LBB601:
  10:Interface.cpp **** AnalogControl delay_time_knob;        // ADC 0 (Pin 15) Delay Time
 2099              		.loc 13 10 15 is_stmt 0 view .LVU455
 2100 0056 2A4D     		ldr	r5, .L46+28
   6:Interface.cpp **** EchoDelay<48000> delay;
 2101              		.loc 13 6 18 view .LVU456
 2102 0058 FFF7FEFF 		bl	__aeabi_atexit
 2103              	.LVL150:
 2104              	.LBB586:
 2105              	.LBI586:
  41:lib/libdaisy/src/hid/switch.h ****     ~Switch() {}
 2106              		.loc 1 41 5 is_stmt 1 view .LVU457
  41:lib/libdaisy/src/hid/switch.h ****     ~Switch() {}
 2107              		.loc 1 41 5 is_stmt 0 view .LVU458
 2108              	.LBE586:
   9:Interface.cpp **** Switch button;
 2109              		.loc 13 9 8 view .LVU459
 2110 005c 2246     		mov	r2, r4
 2111 005e 2949     		ldr	r1, .L46+32
 2112 0060 2948     		ldr	r0, .L46+36
 2113 0062 FFF7FEFF 		bl	__aeabi_atexit
 2114              	.LVL151:
 2115              	.LBB587:
 2116              	.LBI587:
  21:lib/libdaisy/src/hid/ctrl.h ****     /** destructor */
 2117              		.loc 2 21 5 is_stmt 1 view .LVU460
  21:lib/libdaisy/src/hid/ctrl.h ****     /** destructor */
 2118              		.loc 2 21 5 is_stmt 0 view .LVU461
ARM GAS  /var/folders/9s/8rp0_f2s1n31qbztm3b5_fdh0000gn/T//ccCzuEKD.s 			page 72


 2119              	.LBE587:
  10:Interface.cpp **** AnalogControl delay_time_knob;        // ADC 0 (Pin 15) Delay Time
 2120              		.loc 13 10 15 view .LVU462
 2121 0066 2246     		mov	r2, r4
 2122 0068 2946     		mov	r1, r5
 2123 006a 2848     		ldr	r0, .L46+40
 2124 006c FFF7FEFF 		bl	__aeabi_atexit
 2125              	.LVL152:
 2126              	.LBB588:
 2127              	.LBI588:
  21:lib/libdaisy/src/hid/ctrl.h ****     /** destructor */
 2128              		.loc 2 21 5 is_stmt 1 view .LVU463
  21:lib/libdaisy/src/hid/ctrl.h ****     /** destructor */
 2129              		.loc 2 21 5 is_stmt 0 view .LVU464
 2130              	.LBE588:
  11:Interface.cpp **** AnalogControl delay_mix_feedback_knob; // ADC 1 (Pin 16) Delay Mix & Feedback
 2131              		.loc 13 11 15 view .LVU465
 2132 0070 2246     		mov	r2, r4
 2133 0072 2946     		mov	r1, r5
 2134 0074 2648     		ldr	r0, .L46+44
 2135 0076 FFF7FEFF 		bl	__aeabi_atexit
 2136              	.LVL153:
 2137              	.LBB589:
 2138              	.LBI589:
  21:lib/libdaisy/src/hid/ctrl.h ****     /** destructor */
 2139              		.loc 2 21 5 is_stmt 1 view .LVU466
  21:lib/libdaisy/src/hid/ctrl.h ****     /** destructor */
 2140              		.loc 2 21 5 is_stmt 0 view .LVU467
 2141              	.LBE589:
  12:Interface.cpp **** AnalogControl env_release_knob;       // ADC 2 (Pin 17) Envelope Release
 2142              		.loc 13 12 15 view .LVU468
 2143 007a 2246     		mov	r2, r4
 2144 007c 2946     		mov	r1, r5
 2145 007e 2548     		ldr	r0, .L46+48
 2146 0080 FFF7FEFF 		bl	__aeabi_atexit
 2147              	.LVL154:
 2148              	.LBB590:
 2149              	.LBI590:
  21:lib/libdaisy/src/hid/ctrl.h ****     /** destructor */
 2150              		.loc 2 21 5 is_stmt 1 view .LVU469
  21:lib/libdaisy/src/hid/ctrl.h ****     /** destructor */
 2151              		.loc 2 21 5 is_stmt 0 view .LVU470
 2152              	.LBE590:
  13:Interface.cpp **** AnalogControl env_attack_knob;        // ADC 3 (Pin 18) Envelope Attack
 2153              		.loc 13 13 15 view .LVU471
 2154 0084 2246     		mov	r2, r4
 2155 0086 2946     		mov	r1, r5
 2156 0088 2348     		ldr	r0, .L46+52
 2157 008a FFF7FEFF 		bl	__aeabi_atexit
 2158              	.LVL155:
 2159              	.LBB591:
 2160              	.LBI591:
  21:lib/libdaisy/src/hid/ctrl.h ****     /** destructor */
 2161              		.loc 2 21 5 is_stmt 1 view .LVU472
  21:lib/libdaisy/src/hid/ctrl.h ****     /** destructor */
 2162              		.loc 2 21 5 is_stmt 0 view .LVU473
 2163              	.LBE591:
ARM GAS  /var/folders/9s/8rp0_f2s1n31qbztm3b5_fdh0000gn/T//ccCzuEKD.s 			page 73


  14:Interface.cpp **** AnalogControl timbre_knob;            // ADC 4 (Pin 19) Plaits Timbre
 2164              		.loc 13 14 15 view .LVU474
 2165 008e 2246     		mov	r2, r4
 2166 0090 2946     		mov	r1, r5
 2167 0092 2248     		ldr	r0, .L46+56
 2168 0094 FFF7FEFF 		bl	__aeabi_atexit
 2169              	.LVL156:
 2170              	.LBB592:
 2171              	.LBI592:
  21:lib/libdaisy/src/hid/ctrl.h ****     /** destructor */
 2172              		.loc 2 21 5 is_stmt 1 view .LVU475
  21:lib/libdaisy/src/hid/ctrl.h ****     /** destructor */
 2173              		.loc 2 21 5 is_stmt 0 view .LVU476
 2174              	.LBE592:
  15:Interface.cpp **** AnalogControl harmonics_knob;         // ADC 5 (Pin 20) Plaits Harmonics
 2175              		.loc 13 15 15 view .LVU477
 2176 0098 2246     		mov	r2, r4
 2177 009a 2946     		mov	r1, r5
 2178 009c 2048     		ldr	r0, .L46+60
 2179 009e FFF7FEFF 		bl	__aeabi_atexit
 2180              	.LVL157:
 2181              	.LBB593:
 2182              	.LBI593:
  21:lib/libdaisy/src/hid/ctrl.h ****     /** destructor */
 2183              		.loc 2 21 5 is_stmt 1 view .LVU478
  21:lib/libdaisy/src/hid/ctrl.h ****     /** destructor */
 2184              		.loc 2 21 5 is_stmt 0 view .LVU479
 2185              	.LBE593:
  16:Interface.cpp **** AnalogControl morph_knob;             // ADC 6 (Pin 21) Plaits Morph
 2186              		.loc 13 16 15 view .LVU480
 2187 00a2 2246     		mov	r2, r4
 2188 00a4 2946     		mov	r1, r5
 2189 00a6 1F48     		ldr	r0, .L46+64
 2190 00a8 FFF7FEFF 		bl	__aeabi_atexit
 2191              	.LVL158:
 2192              	.LBB594:
 2193              	.LBI594:
  21:lib/libdaisy/src/hid/ctrl.h ****     /** destructor */
 2194              		.loc 2 21 5 is_stmt 1 view .LVU481
  21:lib/libdaisy/src/hid/ctrl.h ****     /** destructor */
 2195              		.loc 2 21 5 is_stmt 0 view .LVU482
 2196              	.LBE594:
  17:Interface.cpp **** AnalogControl pitch_knob;             // ADC 7 (Pin 22) Plaits Pitch
 2197              		.loc 13 17 15 view .LVU483
 2198 00ac 2246     		mov	r2, r4
 2199 00ae 2946     		mov	r1, r5
 2200 00b0 1D48     		ldr	r0, .L46+68
 2201 00b2 FFF7FEFF 		bl	__aeabi_atexit
 2202              	.LVL159:
 2203              	.LBB595:
 2204              	.LBI595:
  21:lib/libdaisy/src/hid/ctrl.h ****     /** destructor */
 2205              		.loc 2 21 5 is_stmt 1 view .LVU484
  21:lib/libdaisy/src/hid/ctrl.h ****     /** destructor */
 2206              		.loc 2 21 5 is_stmt 0 view .LVU485
 2207              	.LBE595:
  18:Interface.cpp **** AnalogControl arp_pad;               // ADC 8 (Pin 23) Arpeggiator Toggle Pad
ARM GAS  /var/folders/9s/8rp0_f2s1n31qbztm3b5_fdh0000gn/T//ccCzuEKD.s 			page 74


 2208              		.loc 13 18 15 view .LVU486
 2209 00b6 2246     		mov	r2, r4
 2210 00b8 2946     		mov	r1, r5
 2211 00ba 1C48     		ldr	r0, .L46+72
 2212 00bc FFF7FEFF 		bl	__aeabi_atexit
 2213              	.LVL160:
 2214              	.LBB596:
 2215              	.LBI596:
  21:lib/libdaisy/src/hid/ctrl.h ****     /** destructor */
 2216              		.loc 2 21 5 is_stmt 1 view .LVU487
  21:lib/libdaisy/src/hid/ctrl.h ****     /** destructor */
 2217              		.loc 2 21 5 is_stmt 0 view .LVU488
 2218              	.LBE596:
  19:Interface.cpp **** AnalogControl model_prev_pad;        // ADC 9 (Pin 24) Model Select Previous Pad
 2219              		.loc 13 19 15 view .LVU489
 2220 00c0 2246     		mov	r2, r4
 2221 00c2 2946     		mov	r1, r5
 2222 00c4 1A48     		ldr	r0, .L46+76
 2223 00c6 FFF7FEFF 		bl	__aeabi_atexit
 2224              	.LVL161:
 2225              	.LBB597:
 2226              	.LBI597:
  21:lib/libdaisy/src/hid/ctrl.h ****     /** destructor */
 2227              		.loc 2 21 5 is_stmt 1 view .LVU490
  21:lib/libdaisy/src/hid/ctrl.h ****     /** destructor */
 2228              		.loc 2 21 5 is_stmt 0 view .LVU491
 2229              	.LBE597:
  20:Interface.cpp **** AnalogControl model_next_pad;        // ADC 10 (Pin 25) Model Select Next Pad
 2230              		.loc 13 20 15 view .LVU492
 2231 00ca 2246     		mov	r2, r4
 2232 00cc 2946     		mov	r1, r5
 2233 00ce 1948     		ldr	r0, .L46+80
 2234 00d0 FFF7FEFF 		bl	__aeabi_atexit
 2235              	.LVL162:
 2236              	.LBB598:
 2237              	.LBI598:
  21:lib/libdaisy/src/hid/ctrl.h ****     /** destructor */
 2238              		.loc 2 21 5 is_stmt 1 view .LVU493
  21:lib/libdaisy/src/hid/ctrl.h ****     /** destructor */
 2239              		.loc 2 21 5 is_stmt 0 view .LVU494
 2240              	.LBE598:
  21:Interface.cpp **** AnalogControl mod_wheel;             // ADC 11 (Pin 28) Mod Wheel Control
 2241              		.loc 13 21 15 view .LVU495
 2242 00d4 2246     		mov	r2, r4
 2243 00d6 2946     		mov	r1, r5
 2244 00d8 1748     		ldr	r0, .L46+84
 2245              	.LBE601:
 2246              	.LBE605:
 2247              		.loc 13 154 1 view .LVU496
 2248 00da BDE8F840 		pop	{r3, r4, r5, r6, r7, lr}
 2249              		.cfi_restore 14
 2250              		.cfi_restore 7
 2251              		.cfi_restore 6
 2252              		.cfi_restore 5
 2253              		.cfi_restore 4
 2254              		.cfi_restore 3
 2255              		.cfi_def_cfa_offset 0
ARM GAS  /var/folders/9s/8rp0_f2s1n31qbztm3b5_fdh0000gn/T//ccCzuEKD.s 			page 75


 2256              	.LBB606:
 2257              	.LBB602:
  21:Interface.cpp **** AnalogControl mod_wheel;             // ADC 11 (Pin 28) Mod Wheel Control
 2258              		.loc 13 21 15 view .LVU497
 2259 00de FFF7FEBF 		b	__aeabi_atexit
 2260              	.LVL163:
 2261              	.L47:
 2262 00e2 00BF     		.align	2
 2263              	.L46:
 2264 00e4 00000000 		.word	.LANCHOR0
 2265 00e8 00000000 		.word	__dso_handle
 2266 00ec 00000000 		.word	delay
 2267 00f0 00000000 		.word	_ZN5daisy9DaisySeedD1Ev
 2268 00f4 00000000 		.word	.LANCHOR16
 2269 00f8 00000000 		.word	_ZN6Mpr121D1Ev
 2270 00fc 00000000 		.word	_ZN10infrasonic9EchoDelayILj48000EED1Ev
 2271 0100 00000000 		.word	_ZN5daisy13AnalogControlD1Ev
 2272 0104 00000000 		.word	_ZN5daisy6SwitchD1Ev
 2273 0108 00000000 		.word	.LANCHOR14
 2274 010c 00000000 		.word	.LANCHOR2
 2275 0110 00000000 		.word	.LANCHOR3
 2276 0114 00000000 		.word	.LANCHOR4
 2277 0118 00000000 		.word	.LANCHOR5
 2278 011c 00000000 		.word	.LANCHOR6
 2279 0120 00000000 		.word	.LANCHOR7
 2280 0124 00000000 		.word	.LANCHOR8
 2281 0128 00000000 		.word	.LANCHOR9
 2282 012c 00000000 		.word	.LANCHOR10
 2283 0130 00000000 		.word	.LANCHOR11
 2284 0134 00000000 		.word	.LANCHOR12
 2285 0138 00000000 		.word	.LANCHOR13
 2286              	.LBE602:
 2287              	.LBE606:
 2288              		.cfi_endproc
 2289              	.LFE5822:
 2291              		.section	.init_array,"aw",%init_array
 2292              		.align	2
 2293 0000 00000000 		.word	_GLOBAL__sub_I_hw(target1)
 2294              		.global	button_was_pressed
 2295              		.global	button_held_start_time
 2296              		.global	BOOTLOADER_HOLD_TIME_MS
 2297              		.global	smoothed_output_level
 2298              		.global	update_display
 2299              		.global	avg_elapsed_us
 2300              		.global	sample_rate
 2301              		.global	mod_wheel
 2302              		.global	model_next_pad
 2303              		.global	model_prev_pad
 2304              		.global	arp_pad
 2305              		.global	pitch_knob
 2306              		.global	morph_knob
 2307              		.global	harmonics_knob
 2308              		.global	timbre_knob
 2309              		.global	env_attack_knob
 2310              		.global	env_release_knob
 2311              		.global	delay_mix_feedback_knob
 2312              		.global	delay_time_knob
ARM GAS  /var/folders/9s/8rp0_f2s1n31qbztm3b5_fdh0000gn/T//ccCzuEKD.s 			page 76


 2313              		.global	button
 2314              		.global	delay
 2315              		.global	touch_sensor
 2316              		.global	hw
 2317              		.section	.rodata
 2318              		.set	.LANCHOR15,. + 0
 2319              	.LC0:
 2320 0000 01       		.byte	1
 2321 0001 08       		.byte	8
 2322              	.LC1:
 2323 0002 01       		.byte	1
 2324 0003 09       		.byte	9
 2325              		.section	.bss.arp_pad,"aw",%nobits
 2326              		.align	2
 2327              		.set	.LANCHOR10,. + 0
 2330              	arp_pad:
 2331 0000 00000000 		.space	32
 2331      00000000 
 2331      00000000 
 2331      00000000 
 2331      00000000 
 2332              		.section	.bss.avg_elapsed_us,"aw",%nobits
 2333              		.align	2
 2336              	avg_elapsed_us:
 2337 0000 00000000 		.space	4
 2338              		.section	.bss.button,"aw",%nobits
 2339              		.align	2
 2340              		.set	.LANCHOR14,. + 0
 2343              	button:
 2344 0000 00000000 		.space	12
 2344      00000000 
 2344      00000000 
 2345              		.section	.bss.button_held_start_time,"aw",%nobits
 2346              		.align	2
 2349              	button_held_start_time:
 2350 0000 00000000 		.space	4
 2351              		.section	.bss.button_was_pressed,"aw",%nobits
 2354              	button_was_pressed:
 2355 0000 00       		.space	1
 2356              		.section	.bss.delay,"aw",%nobits
 2357              		.align	2
 2360              	delay:
 2361 0000 00000000 		.space	192080
 2361      00000000 
 2361      00000000 
 2361      00000000 
 2361      00000000 
 2362              		.section	.bss.delay_mix_feedback_knob,"aw",%nobits
 2363              		.align	2
 2364              		.set	.LANCHOR3,. + 0
 2367              	delay_mix_feedback_knob:
 2368 0000 00000000 		.space	32
 2368      00000000 
 2368      00000000 
 2368      00000000 
 2368      00000000 
 2369              		.section	.bss.delay_time_knob,"aw",%nobits
ARM GAS  /var/folders/9s/8rp0_f2s1n31qbztm3b5_fdh0000gn/T//ccCzuEKD.s 			page 77


 2370              		.align	2
 2371              		.set	.LANCHOR2,. + 0
 2374              	delay_time_knob:
 2375 0000 00000000 		.space	32
 2375      00000000 
 2375      00000000 
 2375      00000000 
 2375      00000000 
 2376              		.section	.bss.env_attack_knob,"aw",%nobits
 2377              		.align	2
 2378              		.set	.LANCHOR5,. + 0
 2381              	env_attack_knob:
 2382 0000 00000000 		.space	32
 2382      00000000 
 2382      00000000 
 2382      00000000 
 2382      00000000 
 2383              		.section	.bss.env_release_knob,"aw",%nobits
 2384              		.align	2
 2385              		.set	.LANCHOR4,. + 0
 2388              	env_release_knob:
 2389 0000 00000000 		.space	32
 2389      00000000 
 2389      00000000 
 2389      00000000 
 2389      00000000 
 2390              		.section	.bss.harmonics_knob,"aw",%nobits
 2391              		.align	2
 2392              		.set	.LANCHOR7,. + 0
 2395              	harmonics_knob:
 2396 0000 00000000 		.space	32
 2396      00000000 
 2396      00000000 
 2396      00000000 
 2396      00000000 
 2397              		.section	.bss.hw,"aw",%nobits
 2398              		.align	2
 2399              		.set	.LANCHOR0,. + 0
 2402              	hw:
 2403 0000 00000000 		.space	60
 2403      00000000 
 2403      00000000 
 2403      00000000 
 2403      00000000 
 2404              		.section	.bss.mod_wheel,"aw",%nobits
 2405              		.align	2
 2406              		.set	.LANCHOR13,. + 0
 2409              	mod_wheel:
 2410 0000 00000000 		.space	32
 2410      00000000 
 2410      00000000 
 2410      00000000 
 2410      00000000 
 2411              		.section	.bss.model_next_pad,"aw",%nobits
 2412              		.align	2
 2413              		.set	.LANCHOR12,. + 0
 2416              	model_next_pad:
ARM GAS  /var/folders/9s/8rp0_f2s1n31qbztm3b5_fdh0000gn/T//ccCzuEKD.s 			page 78


 2417 0000 00000000 		.space	32
 2417      00000000 
 2417      00000000 
 2417      00000000 
 2417      00000000 
 2418              		.section	.bss.model_prev_pad,"aw",%nobits
 2419              		.align	2
 2420              		.set	.LANCHOR11,. + 0
 2423              	model_prev_pad:
 2424 0000 00000000 		.space	32
 2424      00000000 
 2424      00000000 
 2424      00000000 
 2424      00000000 
 2425              		.section	.bss.morph_knob,"aw",%nobits
 2426              		.align	2
 2427              		.set	.LANCHOR8,. + 0
 2430              	morph_knob:
 2431 0000 00000000 		.space	32
 2431      00000000 
 2431      00000000 
 2431      00000000 
 2431      00000000 
 2432              		.section	.bss.pitch_knob,"aw",%nobits
 2433              		.align	2
 2434              		.set	.LANCHOR9,. + 0
 2437              	pitch_knob:
 2438 0000 00000000 		.space	32
 2438      00000000 
 2438      00000000 
 2438      00000000 
 2438      00000000 
 2439              		.section	.bss.smoothed_output_level,"aw",%nobits
 2440              		.align	2
 2443              	smoothed_output_level:
 2444 0000 00000000 		.space	4
 2445              		.section	.bss.timbre_knob,"aw",%nobits
 2446              		.align	2
 2447              		.set	.LANCHOR6,. + 0
 2450              	timbre_knob:
 2451 0000 00000000 		.space	32
 2451      00000000 
 2451      00000000 
 2451      00000000 
 2451      00000000 
 2452              		.section	.bss.touch_sensor,"aw",%nobits
 2453              		.align	2
 2454              		.set	.LANCHOR16,. + 0
 2457              	touch_sensor:
 2458 0000 00000000 		.space	8
 2458      00000000 
 2459              		.section	.bss.update_display,"aw",%nobits
 2462              	update_display:
 2463 0000 00       		.space	1
 2464              		.section	.data.sample_rate,"aw"
 2465              		.align	2
 2466              		.set	.LANCHOR1,. + 0
ARM GAS  /var/folders/9s/8rp0_f2s1n31qbztm3b5_fdh0000gn/T//ccCzuEKD.s 			page 79


 2469              	sample_rate:
 2470 0000 00803B47 		.word	1195081728
 2471              		.section	.rodata.BOOTLOADER_HOLD_TIME_MS,"a"
 2472              		.align	2
 2475              	BOOTLOADER_HOLD_TIME_MS:
 2476 0000 B80B0000 		.word	3000
 2477              		.text
 2478              	.Letext0:
 2479              		.file 20 "/Library/DaisyToolchain/0.2.0/arm/arm-none-eabi/include/machine/_default_types.h"
 2480              		.file 21 "/Library/DaisyToolchain/0.2.0/arm/arm-none-eabi/include/sys/_stdint.h"
 2481              		.file 22 "/Library/DaisyToolchain/0.2.0/arm/arm-none-eabi/include/stdint.h"
 2482              		.file 23 "/Library/DaisyToolchain/0.2.0/arm/lib/gcc/arm-none-eabi/10.3.1/include/stddef.h"
 2483              		.file 24 "/Library/DaisyToolchain/0.2.0/arm/arm-none-eabi/include/c++/10.3.1/cmath"
 2484              		.file 25 "/Library/DaisyToolchain/0.2.0/arm/arm-none-eabi/include/c++/10.3.1/bits/std_abs.h"
 2485              		.file 26 "/Library/DaisyToolchain/0.2.0/arm/arm-none-eabi/include/c++/10.3.1/cstdlib"
 2486              		.file 27 "/Library/DaisyToolchain/0.2.0/arm/arm-none-eabi/include/c++/10.3.1/cstdint"
 2487              		.file 28 "/Library/DaisyToolchain/0.2.0/arm/arm-none-eabi/include/c++/10.3.1/arm-none-eabi/thumb/v
 2488              		.file 29 "/Library/DaisyToolchain/0.2.0/arm/arm-none-eabi/include/c++/10.3.1/type_traits"
 2489              		.file 30 "/Library/DaisyToolchain/0.2.0/arm/arm-none-eabi/include/c++/10.3.1/bits/cpp_type_traits.
 2490              		.file 31 "/Library/DaisyToolchain/0.2.0/arm/arm-none-eabi/include/c++/10.3.1/bits/stl_pair.h"
 2491              		.file 32 "/Library/DaisyToolchain/0.2.0/arm/arm-none-eabi/include/c++/10.3.1/debug/debug.h"
 2492              		.file 33 "/Library/DaisyToolchain/0.2.0/arm/arm-none-eabi/include/c++/10.3.1/bits/algorithmfwd.h"
 2493              		.file 34 "/Library/DaisyToolchain/0.2.0/arm/arm-none-eabi/include/c++/10.3.1/bits/exception_ptr.h"
 2494              		.file 35 "/Library/DaisyToolchain/0.2.0/arm/arm-none-eabi/include/c++/10.3.1/cstdarg"
 2495              		.file 36 "/Library/DaisyToolchain/0.2.0/arm/arm-none-eabi/include/c++/10.3.1/cstdio"
 2496              		.file 37 "/Library/DaisyToolchain/0.2.0/arm/arm-none-eabi/include/c++/10.3.1/cstring"
 2497              		.file 38 "/Library/DaisyToolchain/0.2.0/arm/arm-none-eabi/include/c++/10.3.1/cwchar"
 2498              		.file 39 "/Library/DaisyToolchain/0.2.0/arm/arm-none-eabi/include/c++/10.3.1/clocale"
 2499              		.file 40 "/Library/DaisyToolchain/0.2.0/arm/arm-none-eabi/include/c++/10.3.1/bits/basic_string.h"
 2500              		.file 41 "/Library/DaisyToolchain/0.2.0/arm/arm-none-eabi/include/c++/10.3.1/bits/stl_iterator.h"
 2501              		.file 42 "/Library/DaisyToolchain/0.2.0/arm/arm-none-eabi/include/c++/10.3.1/bits/predefined_ops.h
 2502              		.file 43 "/Library/DaisyToolchain/0.2.0/arm/arm-none-eabi/include/sys/_types.h"
 2503              		.file 44 "/Library/DaisyToolchain/0.2.0/arm/arm-none-eabi/include/sys/reent.h"
 2504              		.file 45 "/Library/DaisyToolchain/0.2.0/arm/arm-none-eabi/include/sys/lock.h"
 2505              		.file 46 "/Library/DaisyToolchain/0.2.0/arm/arm-none-eabi/include/math.h"
 2506              		.file 47 "/Library/DaisyToolchain/0.2.0/arm/arm-none-eabi/include/stdlib.h"
 2507              		.file 48 "/Library/DaisyToolchain/0.2.0/arm/arm-none-eabi/include/c++/10.3.1/math.h"
 2508              		.file 49 "/Library/DaisyToolchain/0.2.0/arm/arm-none-eabi/include/c++/10.3.1/stdlib.h"
 2509              		.file 50 "lib/libdaisy/src/daisy_core.h"
 2510              		.file 51 "lib/libdaisy/src/per/tim.h"
 2511              		.file 52 "lib/libdaisy/src/per/sai.h"
 2512              		.file 53 "lib/libdaisy/src/hid/logger_impl.h"
 2513              		.file 54 "lib/libdaisy/src/util/wav_format.h"
 2514              		.file 55 "lib/libdaisy/src/hid/logger.h"
 2515              		.file 56 "lib/libdaisy/src/per/gpio.h"
 2516              		.file 57 "lib/libdaisy/src/dev/sdram.h"
 2517              		.file 58 "/Library/DaisyToolchain/0.2.0/arm/lib/gcc/arm-none-eabi/10.3.1/include/stdarg.h"
 2518              		.file 59 "/Library/DaisyToolchain/0.2.0/arm/arm-none-eabi/include/stdio.h"
 2519              		.file 60 "/Library/DaisyToolchain/0.2.0/arm/arm-none-eabi/include/string.h"
 2520              		.file 61 "lib/DaisySP/Source/Control/adenv.h"
 2521              		.file 62 "/Library/DaisyToolchain/0.2.0/arm/arm-none-eabi/include/wchar.h"
 2522              		.file 63 "/Library/DaisyToolchain/0.2.0/arm/arm-none-eabi/include/locale.h"
 2523              		.file 64 "eurorack/stmlib/stmlib.h"
 2524              		.file 65 "eurorack/plaits/dsp/dsp.h"
 2525              		.file 66 "eurorack/plaits/dsp/engine/additive_engine.h"
 2526              		.file 67 "eurorack/plaits/dsp/oscillator/oscillator.h"
 2527              		.file 68 "eurorack/plaits/dsp/engine/chord_engine.h"
ARM GAS  /var/folders/9s/8rp0_f2s1n31qbztm3b5_fdh0000gn/T//ccCzuEKD.s 			page 80


 2528              		.file 69 "eurorack/plaits/dsp/physical_modelling/resonator.h"
 2529              		.file 70 "eurorack/plaits/dsp/engine/particle_engine.h"
 2530              		.file 71 "eurorack/plaits/dsp/physical_modelling/string.h"
 2531              		.file 72 "eurorack/plaits/dsp/engine/string_engine.h"
 2532              		.file 73 "eurorack/plaits/dsp/engine/swarm_engine.h"
 2533              		.file 74 "eurorack/plaits/dsp/oscillator/variable_saw_oscillator.h"
 2534              		.file 75 "eurorack/plaits/dsp/voice.h"
 2535              		.file 76 "Thaumazein.h"
 2536              		.file 77 "lib/libdaisy/src/dev/sr_595.h"
 2537              		.file 78 "<built-in>"
ARM GAS  /var/folders/9s/8rp0_f2s1n31qbztm3b5_fdh0000gn/T//ccCzuEKD.s 			page 81


DEFINED SYMBOLS
                            *ABS*:0000000000000000 Interface.cpp
/var/folders/9s/8rp0_f2s1n31qbztm3b5_fdh0000gn/T//ccCzuEKD.s:19     .text._ZN5daisy6SwitchD2Ev:0000000000000000 $t
/var/folders/9s/8rp0_f2s1n31qbztm3b5_fdh0000gn/T//ccCzuEKD.s:25     .text._ZN5daisy6SwitchD2Ev:0000000000000000 _ZN5daisy6SwitchD2Ev
/var/folders/9s/8rp0_f2s1n31qbztm3b5_fdh0000gn/T//ccCzuEKD.s:25     .text._ZN5daisy6SwitchD2Ev:0000000000000000 _ZN5daisy6SwitchD1Ev
/var/folders/9s/8rp0_f2s1n31qbztm3b5_fdh0000gn/T//ccCzuEKD.s:42     .text._ZN5daisy13AnalogControlD2Ev:0000000000000000 $t
/var/folders/9s/8rp0_f2s1n31qbztm3b5_fdh0000gn/T//ccCzuEKD.s:48     .text._ZN5daisy13AnalogControlD2Ev:0000000000000000 _ZN5daisy13AnalogControlD2Ev
/var/folders/9s/8rp0_f2s1n31qbztm3b5_fdh0000gn/T//ccCzuEKD.s:48     .text._ZN5daisy13AnalogControlD2Ev:0000000000000000 _ZN5daisy13AnalogControlD1Ev
/var/folders/9s/8rp0_f2s1n31qbztm3b5_fdh0000gn/T//ccCzuEKD.s:65     .text._ZN5daisy9DaisySeedD2Ev:0000000000000000 $t
/var/folders/9s/8rp0_f2s1n31qbztm3b5_fdh0000gn/T//ccCzuEKD.s:71     .text._ZN5daisy9DaisySeedD2Ev:0000000000000000 _ZN5daisy9DaisySeedD2Ev
/var/folders/9s/8rp0_f2s1n31qbztm3b5_fdh0000gn/T//ccCzuEKD.s:71     .text._ZN5daisy9DaisySeedD2Ev:0000000000000000 _ZN5daisy9DaisySeedD1Ev
/var/folders/9s/8rp0_f2s1n31qbztm3b5_fdh0000gn/T//ccCzuEKD.s:112    .text._ZN6Mpr121D2Ev:0000000000000000 $t
/var/folders/9s/8rp0_f2s1n31qbztm3b5_fdh0000gn/T//ccCzuEKD.s:118    .text._ZN6Mpr121D2Ev:0000000000000000 _ZN6Mpr121D2Ev
/var/folders/9s/8rp0_f2s1n31qbztm3b5_fdh0000gn/T//ccCzuEKD.s:118    .text._ZN6Mpr121D2Ev:0000000000000000 _ZN6Mpr121D1Ev
/var/folders/9s/8rp0_f2s1n31qbztm3b5_fdh0000gn/T//ccCzuEKD.s:135    .text._ZN10infrasonic9EchoDelayILj48000EED2Ev:0000000000000000 $t
/var/folders/9s/8rp0_f2s1n31qbztm3b5_fdh0000gn/T//ccCzuEKD.s:141    .text._ZN10infrasonic9EchoDelayILj48000EED2Ev:0000000000000000 _ZN10infrasonic9EchoDelayILj48000EED2Ev
/var/folders/9s/8rp0_f2s1n31qbztm3b5_fdh0000gn/T//ccCzuEKD.s:141    .text._ZN10infrasonic9EchoDelayILj48000EED2Ev:0000000000000000 _ZN10infrasonic9EchoDelayILj48000EED1Ev
/var/folders/9s/8rp0_f2s1n31qbztm3b5_fdh0000gn/T//ccCzuEKD.s:175    .text._Z18InitializeHardwarev:0000000000000000 $t
/var/folders/9s/8rp0_f2s1n31qbztm3b5_fdh0000gn/T//ccCzuEKD.s:181    .text._Z18InitializeHardwarev:0000000000000000 _Z18InitializeHardwarev
/var/folders/9s/8rp0_f2s1n31qbztm3b5_fdh0000gn/T//ccCzuEKD.s:238    .text._Z18InitializeHardwarev:0000000000000038 $d
/var/folders/9s/8rp0_f2s1n31qbztm3b5_fdh0000gn/T//ccCzuEKD.s:244    .text._Z18InitializeControlsv:0000000000000000 $t
/var/folders/9s/8rp0_f2s1n31qbztm3b5_fdh0000gn/T//ccCzuEKD.s:250    .text._Z18InitializeControlsv:0000000000000000 _Z18InitializeControlsv
/var/folders/9s/8rp0_f2s1n31qbztm3b5_fdh0000gn/T//ccCzuEKD.s:602    .text._Z18InitializeControlsv:0000000000000284 $d
/var/folders/9s/8rp0_f2s1n31qbztm3b5_fdh0000gn/T//ccCzuEKD.s:623    .text._Z21InitializeTouchSensorv:0000000000000000 $t
/var/folders/9s/8rp0_f2s1n31qbztm3b5_fdh0000gn/T//ccCzuEKD.s:629    .text._Z21InitializeTouchSensorv:0000000000000000 _Z21InitializeTouchSensorv
/var/folders/9s/8rp0_f2s1n31qbztm3b5_fdh0000gn/T//ccCzuEKD.s:758    .text._Z21InitializeTouchSensorv:0000000000000060 $d
/var/folders/9s/8rp0_f2s1n31qbztm3b5_fdh0000gn/T//ccCzuEKD.s:768    .text._Z8Bootloadv:0000000000000000 $t
/var/folders/9s/8rp0_f2s1n31qbztm3b5_fdh0000gn/T//ccCzuEKD.s:774    .text._Z8Bootloadv:0000000000000000 _Z8Bootloadv
/var/folders/9s/8rp0_f2s1n31qbztm3b5_fdh0000gn/T//ccCzuEKD.s:893    .text._Z8Bootloadv:0000000000000074 $d
/var/folders/9s/8rp0_f2s1n31qbztm3b5_fdh0000gn/T//ccCzuEKD.s:902    .text._Z9UpdateLEDv:0000000000000000 $t
/var/folders/9s/8rp0_f2s1n31qbztm3b5_fdh0000gn/T//ccCzuEKD.s:908    .text._Z9UpdateLEDv:0000000000000000 _Z9UpdateLEDv
/var/folders/9s/8rp0_f2s1n31qbztm3b5_fdh0000gn/T//ccCzuEKD.s:976    .text._Z9UpdateLEDv:0000000000000038 $d
/var/folders/9s/8rp0_f2s1n31qbztm3b5_fdh0000gn/T//ccCzuEKD.s:982    .text._ZN10infrasonic13BiquadCascadeILj1ELNS_13BiquadSection10FilterTypeE2EE18updateCoefficientsEv:0000000000000000 $t
/var/folders/9s/8rp0_f2s1n31qbztm3b5_fdh0000gn/T//ccCzuEKD.s:988    .text._ZN10infrasonic13BiquadCascadeILj1ELNS_13BiquadSection10FilterTypeE2EE18updateCoefficientsEv:0000000000000000 _ZN10infrasonic13BiquadCascadeILj1ELNS_13BiquadSection10FilterTypeE2EE18updateCoefficientsEv
/var/folders/9s/8rp0_f2s1n31qbztm3b5_fdh0000gn/T//ccCzuEKD.s:1066   .text._Z15InitializeDelayv:0000000000000000 $t
/var/folders/9s/8rp0_f2s1n31qbztm3b5_fdh0000gn/T//ccCzuEKD.s:1072   .text._Z15InitializeDelayv:0000000000000000 _Z15InitializeDelayv
/var/folders/9s/8rp0_f2s1n31qbztm3b5_fdh0000gn/T//ccCzuEKD.s:1471   .text._Z15InitializeDelayv:00000000000000b4 $d
/var/folders/9s/8rp0_f2s1n31qbztm3b5_fdh0000gn/T//ccCzuEKD.s:2360   .bss.delay:0000000000000000 delay
/var/folders/9s/8rp0_f2s1n31qbztm3b5_fdh0000gn/T//ccCzuEKD.s:1498   .text._Z15InitializeSynthv:0000000000000000 $t
/var/folders/9s/8rp0_f2s1n31qbztm3b5_fdh0000gn/T//ccCzuEKD.s:1504   .text._Z15InitializeSynthv:0000000000000000 _Z15InitializeSynthv
/var/folders/9s/8rp0_f2s1n31qbztm3b5_fdh0000gn/T//ccCzuEKD.s:1779   .text._Z15InitializeSynthv:00000000000000dc $d
/var/folders/9s/8rp0_f2s1n31qbztm3b5_fdh0000gn/T//ccCzuEKD.s:1798   .text.startup._GLOBAL__sub_I_hw:0000000000000000 $t
/var/folders/9s/8rp0_f2s1n31qbztm3b5_fdh0000gn/T//ccCzuEKD.s:1803   .text.startup._GLOBAL__sub_I_hw:0000000000000000 _GLOBAL__sub_I_hw
/var/folders/9s/8rp0_f2s1n31qbztm3b5_fdh0000gn/T//ccCzuEKD.s:2264   .text.startup._GLOBAL__sub_I_hw:00000000000000e4 $d
/var/folders/9s/8rp0_f2s1n31qbztm3b5_fdh0000gn/T//ccCzuEKD.s:2292   .init_array:0000000000000000 $d
/var/folders/9s/8rp0_f2s1n31qbztm3b5_fdh0000gn/T//ccCzuEKD.s:2354   .bss.button_was_pressed:0000000000000000 button_was_pressed
/var/folders/9s/8rp0_f2s1n31qbztm3b5_fdh0000gn/T//ccCzuEKD.s:2349   .bss.button_held_start_time:0000000000000000 button_held_start_time
/var/folders/9s/8rp0_f2s1n31qbztm3b5_fdh0000gn/T//ccCzuEKD.s:2475   .rodata.BOOTLOADER_HOLD_TIME_MS:0000000000000000 BOOTLOADER_HOLD_TIME_MS
/var/folders/9s/8rp0_f2s1n31qbztm3b5_fdh0000gn/T//ccCzuEKD.s:2443   .bss.smoothed_output_level:0000000000000000 smoothed_output_level
/var/folders/9s/8rp0_f2s1n31qbztm3b5_fdh0000gn/T//ccCzuEKD.s:2462   .bss.update_display:0000000000000000 update_display
/var/folders/9s/8rp0_f2s1n31qbztm3b5_fdh0000gn/T//ccCzuEKD.s:2336   .bss.avg_elapsed_us:0000000000000000 avg_elapsed_us
/var/folders/9s/8rp0_f2s1n31qbztm3b5_fdh0000gn/T//ccCzuEKD.s:2469   .data.sample_rate:0000000000000000 sample_rate
/var/folders/9s/8rp0_f2s1n31qbztm3b5_fdh0000gn/T//ccCzuEKD.s:2409   .bss.mod_wheel:0000000000000000 mod_wheel
/var/folders/9s/8rp0_f2s1n31qbztm3b5_fdh0000gn/T//ccCzuEKD.s:2416   .bss.model_next_pad:0000000000000000 model_next_pad
/var/folders/9s/8rp0_f2s1n31qbztm3b5_fdh0000gn/T//ccCzuEKD.s:2423   .bss.model_prev_pad:0000000000000000 model_prev_pad
/var/folders/9s/8rp0_f2s1n31qbztm3b5_fdh0000gn/T//ccCzuEKD.s:2330   .bss.arp_pad:0000000000000000 arp_pad
/var/folders/9s/8rp0_f2s1n31qbztm3b5_fdh0000gn/T//ccCzuEKD.s:2437   .bss.pitch_knob:0000000000000000 pitch_knob
ARM GAS  /var/folders/9s/8rp0_f2s1n31qbztm3b5_fdh0000gn/T//ccCzuEKD.s 			page 82


/var/folders/9s/8rp0_f2s1n31qbztm3b5_fdh0000gn/T//ccCzuEKD.s:2430   .bss.morph_knob:0000000000000000 morph_knob
/var/folders/9s/8rp0_f2s1n31qbztm3b5_fdh0000gn/T//ccCzuEKD.s:2395   .bss.harmonics_knob:0000000000000000 harmonics_knob
/var/folders/9s/8rp0_f2s1n31qbztm3b5_fdh0000gn/T//ccCzuEKD.s:2450   .bss.timbre_knob:0000000000000000 timbre_knob
/var/folders/9s/8rp0_f2s1n31qbztm3b5_fdh0000gn/T//ccCzuEKD.s:2381   .bss.env_attack_knob:0000000000000000 env_attack_knob
/var/folders/9s/8rp0_f2s1n31qbztm3b5_fdh0000gn/T//ccCzuEKD.s:2388   .bss.env_release_knob:0000000000000000 env_release_knob
/var/folders/9s/8rp0_f2s1n31qbztm3b5_fdh0000gn/T//ccCzuEKD.s:2367   .bss.delay_mix_feedback_knob:0000000000000000 delay_mix_feedback_knob
/var/folders/9s/8rp0_f2s1n31qbztm3b5_fdh0000gn/T//ccCzuEKD.s:2374   .bss.delay_time_knob:0000000000000000 delay_time_knob
/var/folders/9s/8rp0_f2s1n31qbztm3b5_fdh0000gn/T//ccCzuEKD.s:2343   .bss.button:0000000000000000 button
/var/folders/9s/8rp0_f2s1n31qbztm3b5_fdh0000gn/T//ccCzuEKD.s:2457   .bss.touch_sensor:0000000000000000 touch_sensor
/var/folders/9s/8rp0_f2s1n31qbztm3b5_fdh0000gn/T//ccCzuEKD.s:2402   .bss.hw:0000000000000000 hw
/var/folders/9s/8rp0_f2s1n31qbztm3b5_fdh0000gn/T//ccCzuEKD.s:2326   .bss.arp_pad:0000000000000000 $d
/var/folders/9s/8rp0_f2s1n31qbztm3b5_fdh0000gn/T//ccCzuEKD.s:2333   .bss.avg_elapsed_us:0000000000000000 $d
/var/folders/9s/8rp0_f2s1n31qbztm3b5_fdh0000gn/T//ccCzuEKD.s:2339   .bss.button:0000000000000000 $d
/var/folders/9s/8rp0_f2s1n31qbztm3b5_fdh0000gn/T//ccCzuEKD.s:2346   .bss.button_held_start_time:0000000000000000 $d
/var/folders/9s/8rp0_f2s1n31qbztm3b5_fdh0000gn/T//ccCzuEKD.s:2355   .bss.button_was_pressed:0000000000000000 $d
/var/folders/9s/8rp0_f2s1n31qbztm3b5_fdh0000gn/T//ccCzuEKD.s:2357   .bss.delay:0000000000000000 $d
/var/folders/9s/8rp0_f2s1n31qbztm3b5_fdh0000gn/T//ccCzuEKD.s:2363   .bss.delay_mix_feedback_knob:0000000000000000 $d
/var/folders/9s/8rp0_f2s1n31qbztm3b5_fdh0000gn/T//ccCzuEKD.s:2370   .bss.delay_time_knob:0000000000000000 $d
/var/folders/9s/8rp0_f2s1n31qbztm3b5_fdh0000gn/T//ccCzuEKD.s:2377   .bss.env_attack_knob:0000000000000000 $d
/var/folders/9s/8rp0_f2s1n31qbztm3b5_fdh0000gn/T//ccCzuEKD.s:2384   .bss.env_release_knob:0000000000000000 $d
/var/folders/9s/8rp0_f2s1n31qbztm3b5_fdh0000gn/T//ccCzuEKD.s:2391   .bss.harmonics_knob:0000000000000000 $d
/var/folders/9s/8rp0_f2s1n31qbztm3b5_fdh0000gn/T//ccCzuEKD.s:2398   .bss.hw:0000000000000000 $d
/var/folders/9s/8rp0_f2s1n31qbztm3b5_fdh0000gn/T//ccCzuEKD.s:2405   .bss.mod_wheel:0000000000000000 $d
/var/folders/9s/8rp0_f2s1n31qbztm3b5_fdh0000gn/T//ccCzuEKD.s:2412   .bss.model_next_pad:0000000000000000 $d
/var/folders/9s/8rp0_f2s1n31qbztm3b5_fdh0000gn/T//ccCzuEKD.s:2419   .bss.model_prev_pad:0000000000000000 $d
/var/folders/9s/8rp0_f2s1n31qbztm3b5_fdh0000gn/T//ccCzuEKD.s:2426   .bss.morph_knob:0000000000000000 $d
/var/folders/9s/8rp0_f2s1n31qbztm3b5_fdh0000gn/T//ccCzuEKD.s:2433   .bss.pitch_knob:0000000000000000 $d
/var/folders/9s/8rp0_f2s1n31qbztm3b5_fdh0000gn/T//ccCzuEKD.s:2440   .bss.smoothed_output_level:0000000000000000 $d
/var/folders/9s/8rp0_f2s1n31qbztm3b5_fdh0000gn/T//ccCzuEKD.s:2446   .bss.timbre_knob:0000000000000000 $d
/var/folders/9s/8rp0_f2s1n31qbztm3b5_fdh0000gn/T//ccCzuEKD.s:2453   .bss.touch_sensor:0000000000000000 $d
/var/folders/9s/8rp0_f2s1n31qbztm3b5_fdh0000gn/T//ccCzuEKD.s:2463   .bss.update_display:0000000000000000 $d
/var/folders/9s/8rp0_f2s1n31qbztm3b5_fdh0000gn/T//ccCzuEKD.s:2465   .data.sample_rate:0000000000000000 $d
/var/folders/9s/8rp0_f2s1n31qbztm3b5_fdh0000gn/T//ccCzuEKD.s:2472   .rodata.BOOTLOADER_HOLD_TIME_MS:0000000000000000 $d
                           .group:0000000000000000 _ZN5daisy6SwitchD5Ev
                           .group:0000000000000000 _ZN5daisy13AnalogControlD5Ev
                           .group:0000000000000000 _ZN5daisy9DaisySeedD5Ev
                           .group:0000000000000000 _ZN6Mpr121D5Ev
                           .group:0000000000000000 _ZN10infrasonic9EchoDelayILj48000EED5Ev

UNDEFINED SYMBOLS
_ZN5daisy9DaisySeed9ConfigureEv
_ZN5daisy9DaisySeed4InitEb
_ZN5daisy9DaisySeed17SetAudioBlockSizeEj
_ZN5daisy9DaisySeed15AudioSampleRateEv
_ZN5daisy9DaisySeed18SetAudioSampleRateENS_9SaiHandle6Config10SampleRateE
_ZN5daisy9DaisySeed6GetPinEh
_ZN5daisy16AdcChannelConfig10InitSingleE12dsy_gpio_pin
_ZN5daisy9AdcHandle4InitEPNS_16AdcChannelConfigEjNS0_12OverSamplingE
_ZN5daisy9AdcHandle5StartEv
_ZNK5daisy9AdcHandle6GetPtrEh
_ZN5daisy13AnalogControl4InitEPtfbbf
_ZN5daisy6Switch4InitE12dsy_gpio_pinf
_ZN6Mpr1214InitERKNS_6ConfigE
_ZN5daisy9DaisySeed6SetLedEb
_ZN5daisy6System5DelayEm
_ZN6Mpr12113SetThresholdsEhh
_ZN5daisy6LoggerILNS_17LoggerDestinationE1EE9PrintLineEPKcz
ARM GAS  /var/folders/9s/8rp0_f2s1n31qbztm3b5_fdh0000gn/T//ccCzuEKD.s 			page 83


_ZN5daisy6System17ResetToBootloaderEv
_ZN5daisy6System6GetNowEv
voice_active
_ZN10infrasonic13BiquadSection21CalculateCoefficientsENS0_10FilterTypeEfff
memset
_Z16InitializeVoicesv
_ZN5daisy6System11GetTickFreqEv
_ZN5daisy9DaisySeed10StartAudioEPFvPKfPfjE
_ZN5daisy6LoggerILNS_17LoggerDestinationE1EE8StartLogEb
sprintf
cpu_meter
_Z13AudioCallbackPKfPfj
MAX_ENGINE_INDEX
__aeabi_atexit
__dso_handle
