ARM GAS  /var/folders/9s/8rp0_f2s1n31qbztm3b5_fdh0000gn/T//ccXta1BT.s 			page 1


   1              		.cpu cortex-m7
   2              		.arch armv7e-m
   3              		.fpu fpv5-d16
   4              		.eabi_attribute 28, 1
   5              		.eabi_attribute 20, 1
   6              		.eabi_attribute 21, 1
   7              		.eabi_attribute 23, 3
   8              		.eabi_attribute 24, 1
   9              		.eabi_attribute 25, 1
  10              		.eabi_attribute 26, 1
  11              		.eabi_attribute 30, 4
  12              		.eabi_attribute 34, 1
  13              		.eabi_attribute 18, 4
  14              		.file	"Interface.cpp"
  15              		.text
  16              	.Ltext0:
  17              		.cfi_sections	.debug_frame
  18              		.section	.text._ZN5daisy6SwitchD2Ev,"axG",%progbits,_ZN5daisy6SwitchD5Ev,comdat
  19              		.align	1
  20              		.weak	_ZN5daisy6SwitchD2Ev
  21              		.syntax unified
  22              		.thumb
  23              		.thumb_func
  25              	_ZN5daisy6SwitchD2Ev:
  26              	.LVL0:
  27              	.LFB1567:
  28              		.file 1 "lib/libdaisy/src/hid/switch.h"
   1:lib/libdaisy/src/hid/switch.h **** #pragma once
   2:lib/libdaisy/src/hid/switch.h **** #ifndef DSY_SWITCH_H
   3:lib/libdaisy/src/hid/switch.h **** #define DSY_SWITCH_H
   4:lib/libdaisy/src/hid/switch.h **** #include "daisy_core.h"
   5:lib/libdaisy/src/hid/switch.h **** #include "per/gpio.h"
   6:lib/libdaisy/src/hid/switch.h **** #include "sys/system.h"
   7:lib/libdaisy/src/hid/switch.h **** 
   8:lib/libdaisy/src/hid/switch.h **** namespace daisy
   9:lib/libdaisy/src/hid/switch.h **** {
  10:lib/libdaisy/src/hid/switch.h **** /** 
  11:lib/libdaisy/src/hid/switch.h ****     Generic Class for handling momentary/latching switches \n 
  12:lib/libdaisy/src/hid/switch.h ****     Inspired/influenced by Mutable Instruments (pichenettes) Switch classes
  13:lib/libdaisy/src/hid/switch.h ****     @author Stephen Hensley
  14:lib/libdaisy/src/hid/switch.h ****     @date December 2019
  15:lib/libdaisy/src/hid/switch.h ****     @ingroup controls
  16:lib/libdaisy/src/hid/switch.h **** */
  17:lib/libdaisy/src/hid/switch.h **** class Switch
  18:lib/libdaisy/src/hid/switch.h **** {
  19:lib/libdaisy/src/hid/switch.h ****   public:
  20:lib/libdaisy/src/hid/switch.h ****     /** Specifies the expected behavior of the switch */
  21:lib/libdaisy/src/hid/switch.h ****     enum Type
  22:lib/libdaisy/src/hid/switch.h ****     {
  23:lib/libdaisy/src/hid/switch.h ****         TYPE_TOGGLE,    /**< & */
  24:lib/libdaisy/src/hid/switch.h ****         TYPE_MOMENTARY, /**< & */
  25:lib/libdaisy/src/hid/switch.h ****     };
  26:lib/libdaisy/src/hid/switch.h ****     /** Specifies whether the pressed is HIGH or LOW. */
  27:lib/libdaisy/src/hid/switch.h ****     enum Polarity
  28:lib/libdaisy/src/hid/switch.h ****     {
  29:lib/libdaisy/src/hid/switch.h ****         POLARITY_NORMAL,   /**< & */
  30:lib/libdaisy/src/hid/switch.h ****         POLARITY_INVERTED, /**< & */
ARM GAS  /var/folders/9s/8rp0_f2s1n31qbztm3b5_fdh0000gn/T//ccXta1BT.s 			page 2


  31:lib/libdaisy/src/hid/switch.h ****     };
  32:lib/libdaisy/src/hid/switch.h **** 
  33:lib/libdaisy/src/hid/switch.h ****     /** Specifies whether to use built-in Pull Up/Down resistors to hold button at a given state wh
  34:lib/libdaisy/src/hid/switch.h ****     enum Pull
  35:lib/libdaisy/src/hid/switch.h ****     {
  36:lib/libdaisy/src/hid/switch.h ****         PULL_UP,   /**< & */
  37:lib/libdaisy/src/hid/switch.h ****         PULL_DOWN, /**< & */
  38:lib/libdaisy/src/hid/switch.h ****         PULL_NONE, /**< & */
  39:lib/libdaisy/src/hid/switch.h ****     };
  40:lib/libdaisy/src/hid/switch.h **** 
  41:lib/libdaisy/src/hid/switch.h ****     Switch() {}
  42:lib/libdaisy/src/hid/switch.h ****     ~Switch() {}
  29              		.loc 1 42 5 view -0
  30              		.cfi_startproc
  31              		@ args = 0, pretend = 0, frame = 0
  32              		@ frame_needed = 0, uses_anonymous_args = 0
  33              		@ link register save eliminated.
  34              		.loc 1 42 16 is_stmt 0 view .LVU1
  35 0000 7047     		bx	lr
  36              		.cfi_endproc
  37              	.LFE1567:
  39              		.weak	_ZN5daisy6SwitchD1Ev
  40              		.thumb_set _ZN5daisy6SwitchD1Ev,_ZN5daisy6SwitchD2Ev
  41              		.section	.text._ZN5daisy13AnalogControlD2Ev,"axG",%progbits,_ZN5daisy13AnalogControlD5Ev,comdat
  42              		.align	1
  43              		.weak	_ZN5daisy13AnalogControlD2Ev
  44              		.syntax unified
  45              		.thumb
  46              		.thumb_func
  48              	_ZN5daisy13AnalogControlD2Ev:
  49              	.LVL1:
  50              	.LFB1599:
  51              		.file 2 "lib/libdaisy/src/hid/ctrl.h"
   1:lib/libdaisy/src/hid/ctrl.h **** #pragma once
   2:lib/libdaisy/src/hid/ctrl.h **** #ifndef DSY_KNOB_H
   3:lib/libdaisy/src/hid/ctrl.h **** #define DSY_KNOB_H /**< & */
   4:lib/libdaisy/src/hid/ctrl.h **** #include <stdint.h>
   5:lib/libdaisy/src/hid/ctrl.h **** 
   6:lib/libdaisy/src/hid/ctrl.h **** #ifdef __cplusplus
   7:lib/libdaisy/src/hid/ctrl.h **** namespace daisy
   8:lib/libdaisy/src/hid/ctrl.h **** {
   9:lib/libdaisy/src/hid/ctrl.h **** /**
  10:lib/libdaisy/src/hid/ctrl.h ****     @brief Hardware Interface for control inputs \n 
  11:lib/libdaisy/src/hid/ctrl.h ****     Primarily designed for ADC input controls such as \n 
  12:lib/libdaisy/src/hid/ctrl.h ****     potentiometers, and control voltage. \n 
  13:lib/libdaisy/src/hid/ctrl.h ****     @author Stephen Hensley
  14:lib/libdaisy/src/hid/ctrl.h ****     @date November 2019
  15:lib/libdaisy/src/hid/ctrl.h ****     @ingroup controls
  16:lib/libdaisy/src/hid/ctrl.h **** */
  17:lib/libdaisy/src/hid/ctrl.h **** class AnalogControl
  18:lib/libdaisy/src/hid/ctrl.h **** {
  19:lib/libdaisy/src/hid/ctrl.h ****   public:
  20:lib/libdaisy/src/hid/ctrl.h ****     /** Constructor */
  21:lib/libdaisy/src/hid/ctrl.h ****     AnalogControl() {}
  22:lib/libdaisy/src/hid/ctrl.h ****     /** destructor */
  23:lib/libdaisy/src/hid/ctrl.h ****     ~AnalogControl() {}
  52              		.loc 2 23 5 is_stmt 1 view -0
ARM GAS  /var/folders/9s/8rp0_f2s1n31qbztm3b5_fdh0000gn/T//ccXta1BT.s 			page 3


  53              		.cfi_startproc
  54              		@ args = 0, pretend = 0, frame = 0
  55              		@ frame_needed = 0, uses_anonymous_args = 0
  56              		@ link register save eliminated.
  57              		.loc 2 23 23 is_stmt 0 view .LVU3
  58 0000 7047     		bx	lr
  59              		.cfi_endproc
  60              	.LFE1599:
  62              		.weak	_ZN5daisy13AnalogControlD1Ev
  63              		.thumb_set _ZN5daisy13AnalogControlD1Ev,_ZN5daisy13AnalogControlD2Ev
  64              		.section	.text._ZN5daisy9DaisySeedD2Ev,"axG",%progbits,_ZN5daisy9DaisySeedD5Ev,comdat
  65              		.align	1
  66              		.weak	_ZN5daisy9DaisySeedD2Ev
  67              		.syntax unified
  68              		.thumb
  69              		.thumb_func
  71              	_ZN5daisy9DaisySeedD2Ev:
  72              	.LVL2:
  73              	.LFB2146:
  74              		.file 3 "lib/libdaisy/src/daisy_seed.h"
   1:lib/libdaisy/src/daisy_seed.h **** #pragma once
   2:lib/libdaisy/src/daisy_seed.h **** #ifndef DSY_SEED_H
   3:lib/libdaisy/src/daisy_seed.h **** #define DSY_SEED_H
   4:lib/libdaisy/src/daisy_seed.h **** 
   5:lib/libdaisy/src/daisy_seed.h **** #include "daisy.h"
   6:lib/libdaisy/src/daisy_seed.h **** 
   7:lib/libdaisy/src/daisy_seed.h **** //Uncomment this out if you're still using the rev2 hardware
   8:lib/libdaisy/src/daisy_seed.h **** //#define SEED_REV2
   9:lib/libdaisy/src/daisy_seed.h **** 
  10:lib/libdaisy/src/daisy_seed.h **** namespace daisy
  11:lib/libdaisy/src/daisy_seed.h **** {
  12:lib/libdaisy/src/daisy_seed.h **** /**
  13:lib/libdaisy/src/daisy_seed.h ****    @brief This is the higher-level interface for the Daisy board. \n 
  14:lib/libdaisy/src/daisy_seed.h ****     All basic peripheral configuration/initialization is setup here. \n
  15:lib/libdaisy/src/daisy_seed.h **** 
  16:lib/libdaisy/src/daisy_seed.h ****    @ingroup boards
  17:lib/libdaisy/src/daisy_seed.h **** */
  18:lib/libdaisy/src/daisy_seed.h **** class DaisySeed
  19:lib/libdaisy/src/daisy_seed.h **** {
  20:lib/libdaisy/src/daisy_seed.h ****   public:
  21:lib/libdaisy/src/daisy_seed.h ****     DaisySeed() {}
  22:lib/libdaisy/src/daisy_seed.h ****     ~DaisySeed() {}
  75              		.loc 3 22 5 is_stmt 1 view -0
  76              		.cfi_startproc
  77              		@ args = 0, pretend = 0, frame = 0
  78              		@ frame_needed = 0, uses_anonymous_args = 0
  79              		@ link register save eliminated.
  80              	.LBB356:
  81              	.LBI356:
  82              		.file 4 "lib/libdaisy/src/sys/system.h"
   1:lib/libdaisy/src/sys/system.h **** #ifndef DSY_SYSTEM_H
   2:lib/libdaisy/src/sys/system.h **** #define DSY_SYSTEM_H
   3:lib/libdaisy/src/sys/system.h **** 
   4:lib/libdaisy/src/sys/system.h **** #ifndef UNIT_TEST // for unit tests, a dummy implementation is provided below
   5:lib/libdaisy/src/sys/system.h **** 
   6:lib/libdaisy/src/sys/system.h **** #include <cstdint>
   7:lib/libdaisy/src/sys/system.h **** #include "per/tim.h"
ARM GAS  /var/folders/9s/8rp0_f2s1n31qbztm3b5_fdh0000gn/T//ccXta1BT.s 			page 4


   8:lib/libdaisy/src/sys/system.h **** 
   9:lib/libdaisy/src/sys/system.h **** namespace daisy
  10:lib/libdaisy/src/sys/system.h **** {
  11:lib/libdaisy/src/sys/system.h **** /** A handle for interacting with the Core System. 
  12:lib/libdaisy/src/sys/system.h ****  ** This includes the Clock tree, MPU, global DMA initialization,
  13:lib/libdaisy/src/sys/system.h ****  ** cache handling, and any other necessary global initiailzation
  14:lib/libdaisy/src/sys/system.h ****  **
  15:lib/libdaisy/src/sys/system.h ****  ** @author shensley
  16:lib/libdaisy/src/sys/system.h ****  ** @addtogroup system
  17:lib/libdaisy/src/sys/system.h ****  */
  18:lib/libdaisy/src/sys/system.h **** class System
  19:lib/libdaisy/src/sys/system.h **** {
  20:lib/libdaisy/src/sys/system.h ****   public:
  21:lib/libdaisy/src/sys/system.h ****     /** Contains settings for initializing the System */
  22:lib/libdaisy/src/sys/system.h ****     struct Config
  23:lib/libdaisy/src/sys/system.h ****     {
  24:lib/libdaisy/src/sys/system.h ****         /** Specifies the system clock frequency that feeds APB/AHB clocks, etc. */
  25:lib/libdaisy/src/sys/system.h ****         enum class SysClkFreq
  26:lib/libdaisy/src/sys/system.h ****         {
  27:lib/libdaisy/src/sys/system.h ****             FREQ_400MHZ,
  28:lib/libdaisy/src/sys/system.h ****             FREQ_480MHZ,
  29:lib/libdaisy/src/sys/system.h ****         };
  30:lib/libdaisy/src/sys/system.h **** 
  31:lib/libdaisy/src/sys/system.h ****         /** Method to call on the struct to set to defaults
  32:lib/libdaisy/src/sys/system.h ****          ** CPU Freq set to 400MHz
  33:lib/libdaisy/src/sys/system.h ****          ** Cache Enabled 
  34:lib/libdaisy/src/sys/system.h ****          ** */
  35:lib/libdaisy/src/sys/system.h ****         void Defaults()
  36:lib/libdaisy/src/sys/system.h ****         {
  37:lib/libdaisy/src/sys/system.h ****             cpu_freq    = SysClkFreq::FREQ_400MHZ;
  38:lib/libdaisy/src/sys/system.h ****             use_dcache  = true;
  39:lib/libdaisy/src/sys/system.h ****             use_icache  = true;
  40:lib/libdaisy/src/sys/system.h ****             skip_clocks = false;
  41:lib/libdaisy/src/sys/system.h ****         }
  42:lib/libdaisy/src/sys/system.h **** 
  43:lib/libdaisy/src/sys/system.h ****         /** Method to call on the struct to set to boost mode:
  44:lib/libdaisy/src/sys/system.h ****          ** CPU Freq set to 480MHz
  45:lib/libdaisy/src/sys/system.h ****          ** Cache Enabled 
  46:lib/libdaisy/src/sys/system.h ****          ** */
  47:lib/libdaisy/src/sys/system.h ****         void Boost()
  48:lib/libdaisy/src/sys/system.h ****         {
  49:lib/libdaisy/src/sys/system.h ****             cpu_freq    = SysClkFreq::FREQ_480MHZ;
  50:lib/libdaisy/src/sys/system.h ****             use_dcache  = true;
  51:lib/libdaisy/src/sys/system.h ****             use_icache  = true;
  52:lib/libdaisy/src/sys/system.h ****             skip_clocks = false;
  53:lib/libdaisy/src/sys/system.h ****         }
  54:lib/libdaisy/src/sys/system.h **** 
  55:lib/libdaisy/src/sys/system.h ****         SysClkFreq cpu_freq;
  56:lib/libdaisy/src/sys/system.h ****         bool       use_dcache;
  57:lib/libdaisy/src/sys/system.h ****         bool       use_icache;
  58:lib/libdaisy/src/sys/system.h ****         bool       skip_clocks;
  59:lib/libdaisy/src/sys/system.h ****     };
  60:lib/libdaisy/src/sys/system.h **** 
  61:lib/libdaisy/src/sys/system.h ****     /** Describes the different regions of memory available to the Daisy
  62:lib/libdaisy/src/sys/system.h ****      * 
  63:lib/libdaisy/src/sys/system.h ****      */
  64:lib/libdaisy/src/sys/system.h ****     enum MemoryRegion
ARM GAS  /var/folders/9s/8rp0_f2s1n31qbztm3b5_fdh0000gn/T//ccXta1BT.s 			page 5


  65:lib/libdaisy/src/sys/system.h ****     {
  66:lib/libdaisy/src/sys/system.h ****         INTERNAL_FLASH = 0,
  67:lib/libdaisy/src/sys/system.h ****         ITCMRAM,
  68:lib/libdaisy/src/sys/system.h ****         DTCMRAM,
  69:lib/libdaisy/src/sys/system.h ****         SRAM_D1,
  70:lib/libdaisy/src/sys/system.h ****         SRAM_D2,
  71:lib/libdaisy/src/sys/system.h ****         SRAM_D3,
  72:lib/libdaisy/src/sys/system.h ****         SDRAM,
  73:lib/libdaisy/src/sys/system.h ****         QSPI,
  74:lib/libdaisy/src/sys/system.h ****         INVALID_ADDRESS,
  75:lib/libdaisy/src/sys/system.h ****     };
  76:lib/libdaisy/src/sys/system.h **** 
  77:lib/libdaisy/src/sys/system.h ****     System() {}
  78:lib/libdaisy/src/sys/system.h ****     ~System() {}
  83              		.loc 4 78 5 view .LVU5
  84              		.loc 4 78 5 is_stmt 0 view .LVU6
  85              	.LBE356:
  86              	.LBB357:
  87              	.LBI357:
  88              		.file 5 "lib/libdaisy/src/hid/usb.h"
   1:lib/libdaisy/src/hid/usb.h **** #pragma once
   2:lib/libdaisy/src/hid/usb.h **** #ifndef DSY_HID_USB_H
   3:lib/libdaisy/src/hid/usb.h **** #define DSY_HID_USB_H
   4:lib/libdaisy/src/hid/usb.h **** #include <stdint.h>
   5:lib/libdaisy/src/hid/usb.h **** #include <stdlib.h>
   6:lib/libdaisy/src/hid/usb.h **** 
   7:lib/libdaisy/src/hid/usb.h **** namespace daisy
   8:lib/libdaisy/src/hid/usb.h **** /** @addtogroup externals
   9:lib/libdaisy/src/hid/usb.h ****     @{
  10:lib/libdaisy/src/hid/usb.h **** */
  11:lib/libdaisy/src/hid/usb.h **** 
  12:lib/libdaisy/src/hid/usb.h **** {
  13:lib/libdaisy/src/hid/usb.h **** /** 
  14:lib/libdaisy/src/hid/usb.h ****     @brief Interface for initializing and using the USB Peripherals on the daisy
  15:lib/libdaisy/src/hid/usb.h ****     @author Stephen Hensley
  16:lib/libdaisy/src/hid/usb.h ****     @date December 2019
  17:lib/libdaisy/src/hid/usb.h **** */
  18:lib/libdaisy/src/hid/usb.h **** class UsbHandle
  19:lib/libdaisy/src/hid/usb.h **** {
  20:lib/libdaisy/src/hid/usb.h ****   public:
  21:lib/libdaisy/src/hid/usb.h ****     /** Return values for USBHandle Functions */
  22:lib/libdaisy/src/hid/usb.h ****     enum class Result
  23:lib/libdaisy/src/hid/usb.h ****     {
  24:lib/libdaisy/src/hid/usb.h ****         OK,
  25:lib/libdaisy/src/hid/usb.h ****         ERR,
  26:lib/libdaisy/src/hid/usb.h ****     };
  27:lib/libdaisy/src/hid/usb.h **** 
  28:lib/libdaisy/src/hid/usb.h ****     /** Specified which of the two USB Peripherals to initialize. */
  29:lib/libdaisy/src/hid/usb.h ****     enum UsbPeriph
  30:lib/libdaisy/src/hid/usb.h ****     {
  31:lib/libdaisy/src/hid/usb.h ****         FS_INTERNAL, /**< Internal pin */
  32:lib/libdaisy/src/hid/usb.h ****         FS_EXTERNAL, /**< FS External D+ pin is Pin 38 (GPIO32). FS External D- pin is Pin 37 (GPIO
  33:lib/libdaisy/src/hid/usb.h ****         FS_BOTH,     /**< Both */
  34:lib/libdaisy/src/hid/usb.h ****     };
  35:lib/libdaisy/src/hid/usb.h **** 
  36:lib/libdaisy/src/hid/usb.h **** 
  37:lib/libdaisy/src/hid/usb.h ****     /** Function called upon reception of a buffer */
ARM GAS  /var/folders/9s/8rp0_f2s1n31qbztm3b5_fdh0000gn/T//ccXta1BT.s 			page 6


  38:lib/libdaisy/src/hid/usb.h ****     typedef void (*ReceiveCallback)(uint8_t* buff, uint32_t* len);
  39:lib/libdaisy/src/hid/usb.h **** 
  40:lib/libdaisy/src/hid/usb.h ****     UsbHandle() {}
  41:lib/libdaisy/src/hid/usb.h **** 
  42:lib/libdaisy/src/hid/usb.h ****     ~UsbHandle() {}
  89              		.loc 5 42 5 is_stmt 1 view .LVU7
  90              		.loc 5 42 5 is_stmt 0 view .LVU8
  91              	.LBE357:
  92              	.LBB358:
  93              	.LBI358:
  94              		.file 6 "lib/libdaisy/src/per/adc.h"
   1:lib/libdaisy/src/per/adc.h **** #pragma once
   2:lib/libdaisy/src/per/adc.h **** #ifndef DSY_ADC_H
   3:lib/libdaisy/src/per/adc.h **** #define DSY_ADC_H /**< Macro */
   4:lib/libdaisy/src/per/adc.h **** #include <stdint.h>
   5:lib/libdaisy/src/per/adc.h **** #include <stdlib.h>
   6:lib/libdaisy/src/per/adc.h **** #include "daisy_core.h"
   7:lib/libdaisy/src/per/adc.h **** #include "per/gpio.h"
   8:lib/libdaisy/src/per/adc.h **** 
   9:lib/libdaisy/src/per/adc.h **** #define DSY_ADC_MAX_CHANNELS 16 /**< Maximum number of ADC channels */
  10:lib/libdaisy/src/per/adc.h **** 
  11:lib/libdaisy/src/per/adc.h **** namespace daisy
  12:lib/libdaisy/src/per/adc.h **** {
  13:lib/libdaisy/src/per/adc.h **** /** @addtogroup analog_digital_conversion
  14:lib/libdaisy/src/per/adc.h ****     @{
  15:lib/libdaisy/src/per/adc.h **** */
  16:lib/libdaisy/src/per/adc.h **** 
  17:lib/libdaisy/src/per/adc.h **** /* While there may not be many configuration options here,
  18:lib/libdaisy/src/per/adc.h **** using a struct like this allows us to add more configuration
  19:lib/libdaisy/src/per/adc.h **** later without breaking existing functionality.
  20:lib/libdaisy/src/per/adc.h **** */
  21:lib/libdaisy/src/per/adc.h **** 
  22:lib/libdaisy/src/per/adc.h **** /** Configuration Structure for a given channel */
  23:lib/libdaisy/src/per/adc.h **** struct AdcChannelConfig
  24:lib/libdaisy/src/per/adc.h **** {
  25:lib/libdaisy/src/per/adc.h ****     /** Which pin to use for multiplexing */
  26:lib/libdaisy/src/per/adc.h ****     enum MuxPin
  27:lib/libdaisy/src/per/adc.h ****     {
  28:lib/libdaisy/src/per/adc.h ****         MUX_SEL_0,    /**< & */
  29:lib/libdaisy/src/per/adc.h ****         MUX_SEL_1,    /**< & */
  30:lib/libdaisy/src/per/adc.h ****         MUX_SEL_2,    /**< & */
  31:lib/libdaisy/src/per/adc.h ****         MUX_SEL_LAST, /**< & */
  32:lib/libdaisy/src/per/adc.h ****     };
  33:lib/libdaisy/src/per/adc.h **** 
  34:lib/libdaisy/src/per/adc.h ****     /** Initializes a single ADC pin as an ADC. 
  35:lib/libdaisy/src/per/adc.h ****     \param pin Pin to init.
  36:lib/libdaisy/src/per/adc.h ****      */
  37:lib/libdaisy/src/per/adc.h ****     void InitSingle(dsy_gpio_pin pin);
  38:lib/libdaisy/src/per/adc.h **** 
  39:lib/libdaisy/src/per/adc.h ****     /** 
  40:lib/libdaisy/src/per/adc.h ****     Initializes a single ADC pin as a Multiplexed ADC.
  41:lib/libdaisy/src/per/adc.h ****     Requires a CD405X Multiplexer connected to the pin.
  42:lib/libdaisy/src/per/adc.h ****     You only need to supply the mux pins that are required,
  43:lib/libdaisy/src/per/adc.h ****     e.g. a 4052 mux would only require mux_0 and mux_1.
  44:lib/libdaisy/src/per/adc.h ****     Internal Callbacks handle the pin addressing.
  45:lib/libdaisy/src/per/adc.h ****     \param mux_channels must be 1-8
  46:lib/libdaisy/src/per/adc.h ****     \param mux_0 First mux pin
ARM GAS  /var/folders/9s/8rp0_f2s1n31qbztm3b5_fdh0000gn/T//ccXta1BT.s 			page 7


  47:lib/libdaisy/src/per/adc.h ****     \param mux_1 Second mux pin
  48:lib/libdaisy/src/per/adc.h ****     \param mux_2 Third mux pin
  49:lib/libdaisy/src/per/adc.h ****     \param adc_pin &
  50:lib/libdaisy/src/per/adc.h ****     */
  51:lib/libdaisy/src/per/adc.h ****     void InitMux(dsy_gpio_pin adc_pin,
  52:lib/libdaisy/src/per/adc.h ****                  size_t       mux_channels,
  53:lib/libdaisy/src/per/adc.h ****                  dsy_gpio_pin mux_0,
  54:lib/libdaisy/src/per/adc.h ****                  dsy_gpio_pin mux_1 = {DSY_GPIOX, 0},
  55:lib/libdaisy/src/per/adc.h ****                  dsy_gpio_pin mux_2 = {DSY_GPIOX, 0});
  56:lib/libdaisy/src/per/adc.h **** 
  57:lib/libdaisy/src/per/adc.h ****     dsy_gpio pin_;                   /**< & */
  58:lib/libdaisy/src/per/adc.h ****     dsy_gpio mux_pin_[MUX_SEL_LAST]; /**< & */
  59:lib/libdaisy/src/per/adc.h ****     uint8_t  mux_channels_;          /**< & */
  60:lib/libdaisy/src/per/adc.h **** };
  61:lib/libdaisy/src/per/adc.h **** 
  62:lib/libdaisy/src/per/adc.h **** /**
  63:lib/libdaisy/src/per/adc.h ****    Handler for analog to digital conversion
  64:lib/libdaisy/src/per/adc.h **** */
  65:lib/libdaisy/src/per/adc.h **** class AdcHandle
  66:lib/libdaisy/src/per/adc.h **** {
  67:lib/libdaisy/src/per/adc.h ****   public:
  68:lib/libdaisy/src/per/adc.h ****     /** Supported oversampling amounts */
  69:lib/libdaisy/src/per/adc.h ****     enum OverSampling
  70:lib/libdaisy/src/per/adc.h ****     {
  71:lib/libdaisy/src/per/adc.h ****         OVS_NONE, /**< & */
  72:lib/libdaisy/src/per/adc.h ****         OVS_4,    /**< & */
  73:lib/libdaisy/src/per/adc.h ****         OVS_8,    /**< & */
  74:lib/libdaisy/src/per/adc.h ****         OVS_16,   /**< & */
  75:lib/libdaisy/src/per/adc.h ****         OVS_32,   /**< & */
  76:lib/libdaisy/src/per/adc.h ****         OVS_64,   /**< & */
  77:lib/libdaisy/src/per/adc.h ****         OVS_128,  /**< & */
  78:lib/libdaisy/src/per/adc.h ****         OVS_256,  /**< & */
  79:lib/libdaisy/src/per/adc.h ****         OVS_512,  /**< & */
  80:lib/libdaisy/src/per/adc.h ****         OVS_1024, /**< & */
  81:lib/libdaisy/src/per/adc.h ****         OVS_LAST, /**< & */
  82:lib/libdaisy/src/per/adc.h ****     };
  83:lib/libdaisy/src/per/adc.h **** 
  84:lib/libdaisy/src/per/adc.h ****     AdcHandle() {}
  85:lib/libdaisy/src/per/adc.h ****     ~AdcHandle() {}
  95              		.loc 6 85 5 is_stmt 1 view .LVU9
  96              		.loc 6 85 5 is_stmt 0 view .LVU10
  97              	.LBE358:
  98              	.LBB359:
  99              	.LBI359:
 100              		.file 7 "lib/libdaisy/src/hid/audio.h"
   1:lib/libdaisy/src/hid/audio.h **** #ifndef DSY_AUDIO_H
   2:lib/libdaisy/src/hid/audio.h **** #define DSY_AUDIO_H /**< & */
   3:lib/libdaisy/src/hid/audio.h **** 
   4:lib/libdaisy/src/hid/audio.h **** #include "per/sai.h"
   5:lib/libdaisy/src/hid/audio.h **** 
   6:lib/libdaisy/src/hid/audio.h **** namespace daisy
   7:lib/libdaisy/src/hid/audio.h **** {
   8:lib/libdaisy/src/hid/audio.h **** class AudioHandle
   9:lib/libdaisy/src/hid/audio.h **** {
  10:lib/libdaisy/src/hid/audio.h ****   public:
  11:lib/libdaisy/src/hid/audio.h ****     /** Manually configurable details about the Audio Engine */
  12:lib/libdaisy/src/hid/audio.h ****     /** TODO: Figure out how to get samplerate in here. */
ARM GAS  /var/folders/9s/8rp0_f2s1n31qbztm3b5_fdh0000gn/T//ccXta1BT.s 			page 8


  13:lib/libdaisy/src/hid/audio.h ****     struct Config
  14:lib/libdaisy/src/hid/audio.h ****     {
  15:lib/libdaisy/src/hid/audio.h ****         size_t                        blocksize;
  16:lib/libdaisy/src/hid/audio.h ****         SaiHandle::Config::SampleRate samplerate;
  17:lib/libdaisy/src/hid/audio.h ****         float                         postgain;
  18:lib/libdaisy/src/hid/audio.h ****     };
  19:lib/libdaisy/src/hid/audio.h **** 
  20:lib/libdaisy/src/hid/audio.h ****     enum class Result
  21:lib/libdaisy/src/hid/audio.h ****     {
  22:lib/libdaisy/src/hid/audio.h ****         OK,
  23:lib/libdaisy/src/hid/audio.h ****         ERR,
  24:lib/libdaisy/src/hid/audio.h ****     };
  25:lib/libdaisy/src/hid/audio.h **** 
  26:lib/libdaisy/src/hid/audio.h ****     /** Non-Interleaving input buffer
  27:lib/libdaisy/src/hid/audio.h ****      * Buffer arranged by float[chn][sample] 
  28:lib/libdaisy/src/hid/audio.h ****      * const so that the user can't modify the input
  29:lib/libdaisy/src/hid/audio.h ****     */
  30:lib/libdaisy/src/hid/audio.h ****     typedef const float* const* InputBuffer;
  31:lib/libdaisy/src/hid/audio.h **** 
  32:lib/libdaisy/src/hid/audio.h ****     /** Non-Interleaving output buffer
  33:lib/libdaisy/src/hid/audio.h ****      * Arranged by float[chn][sample] 
  34:lib/libdaisy/src/hid/audio.h ****     */
  35:lib/libdaisy/src/hid/audio.h ****     typedef float** OutputBuffer;
  36:lib/libdaisy/src/hid/audio.h **** 
  37:lib/libdaisy/src/hid/audio.h ****     /** Type for a Non-Interleaving audio callback 
  38:lib/libdaisy/src/hid/audio.h ****    * Non-Interleaving audio callbacks in daisy will be of this type
  39:lib/libdaisy/src/hid/audio.h ****   */
  40:lib/libdaisy/src/hid/audio.h ****     typedef void (*AudioCallback)(InputBuffer  in,
  41:lib/libdaisy/src/hid/audio.h ****                                   OutputBuffer out,
  42:lib/libdaisy/src/hid/audio.h ****                                   size_t       size);
  43:lib/libdaisy/src/hid/audio.h **** 
  44:lib/libdaisy/src/hid/audio.h ****     /** Interleaving Input buffer
  45:lib/libdaisy/src/hid/audio.h ****      ** audio is prepared as { L0, R0, L1, R1, . . . LN, RN }]
  46:lib/libdaisy/src/hid/audio.h ****      ** this is const, as the user shouldn't modify it
  47:lib/libdaisy/src/hid/audio.h ****     */
  48:lib/libdaisy/src/hid/audio.h ****     typedef const float* InterleavingInputBuffer;
  49:lib/libdaisy/src/hid/audio.h **** 
  50:lib/libdaisy/src/hid/audio.h ****     /** Interleaving Output buffer 
  51:lib/libdaisy/src/hid/audio.h ****      ** audio is prepared as { L0, R0, L1, R1, . . . LN, RN }
  52:lib/libdaisy/src/hid/audio.h ****     */
  53:lib/libdaisy/src/hid/audio.h ****     typedef float* InterleavingOutputBuffer;
  54:lib/libdaisy/src/hid/audio.h **** 
  55:lib/libdaisy/src/hid/audio.h ****     /** Interleaving Audio Callback 
  56:lib/libdaisy/src/hid/audio.h ****    * Interleaving audio callbacks in daisy must be of this type
  57:lib/libdaisy/src/hid/audio.h ****   */
  58:lib/libdaisy/src/hid/audio.h ****     typedef void (*InterleavingAudioCallback)(InterleavingInputBuffer  in,
  59:lib/libdaisy/src/hid/audio.h ****                                               InterleavingOutputBuffer out,
  60:lib/libdaisy/src/hid/audio.h ****                                               size_t                   size);
  61:lib/libdaisy/src/hid/audio.h **** 
  62:lib/libdaisy/src/hid/audio.h ****     AudioHandle() : pimpl_(nullptr) {}
  63:lib/libdaisy/src/hid/audio.h ****     ~AudioHandle() {}
 101              		.loc 7 63 5 is_stmt 1 view .LVU11
 102              		.loc 7 63 5 is_stmt 0 view .LVU12
 103              	.LBE359:
 104              		.loc 3 22 19 view .LVU13
 105 0000 7047     		bx	lr
 106              		.cfi_endproc
ARM GAS  /var/folders/9s/8rp0_f2s1n31qbztm3b5_fdh0000gn/T//ccXta1BT.s 			page 9


 107              	.LFE2146:
 109              		.weak	_ZN5daisy9DaisySeedD1Ev
 110              		.thumb_set _ZN5daisy9DaisySeedD1Ev,_ZN5daisy9DaisySeedD2Ev
 111              		.section	.text._ZN6Mpr121D2Ev,"axG",%progbits,_ZN6Mpr121D5Ev,comdat
 112              		.align	1
 113              		.weak	_ZN6Mpr121D2Ev
 114              		.syntax unified
 115              		.thumb
 116              		.thumb_func
 118              	_ZN6Mpr121D2Ev:
 119              	.LVL3:
 120              	.LFB4962:
 121              		.file 8 "mpr121_daisy.h"
   1:mpr121_daisy.h **** #pragma once
   2:mpr121_daisy.h **** #ifndef MPR121_DAISY_H
   3:mpr121_daisy.h **** #define MPR121_DAISY_H
   4:mpr121_daisy.h **** 
   5:mpr121_daisy.h **** #include "daisy_seed.h"
   6:mpr121_daisy.h **** #include "per/i2c.h"
   7:mpr121_daisy.h **** 
   8:mpr121_daisy.h **** using namespace daisy;
   9:mpr121_daisy.h **** 
  10:mpr121_daisy.h **** /// mp
  11:mpr121_daisy.h **** 
  12:mpr121_daisy.h **** // Register map
  13:mpr121_daisy.h **** #define MPR121_TOUCHSTATUS_L 0x00
  14:mpr121_daisy.h **** #define MPR121_TOUCHSTATUS_H 0x01
  15:mpr121_daisy.h **** #define MPR121_FILTDATA_0L 0x04
  16:mpr121_daisy.h **** #define MPR121_FILTDATA_0H 0x05
  17:mpr121_daisy.h **** #define MPR121_BASELINE_0 0x1E
  18:mpr121_daisy.h **** #define MPR121_MHDR 0x2B
  19:mpr121_daisy.h **** #define MPR121_NHDR 0x2C
  20:mpr121_daisy.h **** #define MPR121_NCLR 0x2D
  21:mpr121_daisy.h **** #define MPR121_FDLR 0x2E
  22:mpr121_daisy.h **** #define MPR121_MHDF 0x2F
  23:mpr121_daisy.h **** #define MPR121_NHDF 0x30
  24:mpr121_daisy.h **** #define MPR121_NCLF 0x31
  25:mpr121_daisy.h **** #define MPR121_FDLF 0x32
  26:mpr121_daisy.h **** #define MPR121_NHDT 0x33
  27:mpr121_daisy.h **** #define MPR121_NCLT 0x34
  28:mpr121_daisy.h **** #define MPR121_FDLT 0x35
  29:mpr121_daisy.h **** 
  30:mpr121_daisy.h **** #define MPR121_TOUCHTH_0 0x41
  31:mpr121_daisy.h **** #define MPR121_RELEASETH_0 0x42
  32:mpr121_daisy.h **** #define MPR121_DEBOUNCE 0x5B
  33:mpr121_daisy.h **** #define MPR121_CONFIG1 0x5C
  34:mpr121_daisy.h **** #define MPR121_CONFIG2 0x5D
  35:mpr121_daisy.h **** #define MPR121_CHARGECURR_0 0x5F
  36:mpr121_daisy.h **** #define MPR121_CHARGETIME_1 0x6C
  37:mpr121_daisy.h **** #define MPR121_ECR 0x5E
  38:mpr121_daisy.h **** #define MPR121_AUTOCONFIG0 0x7B
  39:mpr121_daisy.h **** #define MPR121_AUTOCONFIG1 0x7C
  40:mpr121_daisy.h **** #define MPR121_UPLIMIT 0x7D
  41:mpr121_daisy.h **** #define MPR121_LOWLIMIT 0x7E
  42:mpr121_daisy.h **** #define MPR121_TARGETLIMIT 0x7F
  43:mpr121_daisy.h **** 
  44:mpr121_daisy.h **** #define MPR121_GPIODIR 0x76
ARM GAS  /var/folders/9s/8rp0_f2s1n31qbztm3b5_fdh0000gn/T//ccXta1BT.s 			page 10


  45:mpr121_daisy.h **** #define MPR121_GPIOEN 0x77
  46:mpr121_daisy.h **** #define MPR121_GPIOSET 0x78
  47:mpr121_daisy.h **** #define MPR121_GPIOCLR 0x79
  48:mpr121_daisy.h **** #define MPR121_GPIOTOGGLE 0x7A
  49:mpr121_daisy.h **** 
  50:mpr121_daisy.h **** #define MPR121_SOFTRESET 0x80
  51:mpr121_daisy.h **** #define MPR121_I2CADDR_DEFAULT 0x5A
  52:mpr121_daisy.h **** 
  53:mpr121_daisy.h **** class Mpr121
  54:mpr121_daisy.h **** {
  55:mpr121_daisy.h ****   public:
  56:mpr121_daisy.h ****     Mpr121() {}
  57:mpr121_daisy.h ****     ~Mpr121() {}
 122              		.loc 8 57 5 is_stmt 1 view -0
 123              		.cfi_startproc
 124              		@ args = 0, pretend = 0, frame = 0
 125              		@ frame_needed = 0, uses_anonymous_args = 0
 126              		@ link register save eliminated.
 127              		.loc 8 57 16 is_stmt 0 view .LVU15
 128 0000 7047     		bx	lr
 129              		.cfi_endproc
 130              	.LFE4962:
 132              		.weak	_ZN6Mpr121D1Ev
 133              		.thumb_set _ZN6Mpr121D1Ev,_ZN6Mpr121D2Ev
 134              		.section	.text._ZN10infrasonic9EchoDelayILj48000EED2Ev,"axG",%progbits,_ZN10infrasonic9EchoDelayIL
 135              		.align	1
 136              		.weak	_ZN10infrasonic9EchoDelayILj48000EED2Ev
 137              		.syntax unified
 138              		.thumb
 139              		.thumb_func
 141              	_ZN10infrasonic9EchoDelayILj48000EED2Ev:
 142              	.LVL4:
 143              	.LFB6150:
 144              		.file 9 "Effects/EchoDelay.h"
   1:Effects/EchoDelay.h **** #pragma once
   2:Effects/EchoDelay.h **** #ifndef INFS_ECHODELAY_H
   3:Effects/EchoDelay.h **** #define INFS_ECHODELAY_H
   4:Effects/EchoDelay.h **** 
   5:Effects/EchoDelay.h **** #include <daisysp.h>
   6:Effects/EchoDelay.h **** #include "BiquadFilters.h"
   7:Effects/EchoDelay.h **** #include "DSPUtils.h"
   8:Effects/EchoDelay.h **** 
   9:Effects/EchoDelay.h **** namespace infrasonic {
  10:Effects/EchoDelay.h **** 
  11:Effects/EchoDelay.h **** /**
  12:Effects/EchoDelay.h ****  * @brief
  13:Effects/EchoDelay.h ****  * Tape-ish echo delay.
  14:Effects/EchoDelay.h ****  *   - Feedback is unbounded, but signal is soft-clipped
  15:Effects/EchoDelay.h ****  *   - Output is full-wet, should be mixed with dry signal externally
  16:Effects/EchoDelay.h ****  *
  17:Effects/EchoDelay.h ****  * @tparam MaxLength Max length of delay in samples
  18:Effects/EchoDelay.h ****  */
  19:Effects/EchoDelay.h **** template<size_t MaxLength>
  20:Effects/EchoDelay.h **** class EchoDelay {
  21:Effects/EchoDelay.h **** 
  22:Effects/EchoDelay.h ****     public:
  23:Effects/EchoDelay.h **** 
ARM GAS  /var/folders/9s/8rp0_f2s1n31qbztm3b5_fdh0000gn/T//ccXta1BT.s 			page 11


  24:Effects/EchoDelay.h ****         EchoDelay() {}
  25:Effects/EchoDelay.h ****         ~EchoDelay() {}
 145              		.loc 9 25 9 is_stmt 1 view -0
 146              		.cfi_startproc
 147              		@ args = 0, pretend = 0, frame = 0
 148              		@ frame_needed = 0, uses_anonymous_args = 0
 149              		@ link register save eliminated.
 150              	.LBB360:
 151              	.LBI360:
 152              		.file 10 "Effects/BiquadFilters.h"
   1:Effects/BiquadFilters.h **** #pragma once
   2:Effects/BiquadFilters.h **** #ifndef INFS_BIQUADFILTERS_H
   3:Effects/BiquadFilters.h **** #define INFS_BIQUADFILTERS_H
   4:Effects/BiquadFilters.h **** 
   5:Effects/BiquadFilters.h **** #include <cassert>
   6:Effects/BiquadFilters.h **** #include <array>
   7:Effects/BiquadFilters.h **** #include <daisysp.h>
   8:Effects/BiquadFilters.h **** 
   9:Effects/BiquadFilters.h **** namespace infrasonic {
  10:Effects/BiquadFilters.h **** 
  11:Effects/BiquadFilters.h **** /**
  12:Effects/BiquadFilters.h ****  *  Single precision 2nd order biquad filter section with support for stereo processing.
  13:Effects/BiquadFilters.h ****  *  NOTE: There are templated filter definitions at the bottom of this file for convenience. 
  14:Effects/BiquadFilters.h ****  */
  15:Effects/BiquadFilters.h **** class BiquadSection {
  16:Effects/BiquadFilters.h **** 
  17:Effects/BiquadFilters.h ****     public:
  18:Effects/BiquadFilters.h **** 
  19:Effects/BiquadFilters.h ****         enum class FilterType {
  20:Effects/BiquadFilters.h ****             LowPass,
  21:Effects/BiquadFilters.h ****             HighPass,
  22:Effects/BiquadFilters.h ****             BandPass
  23:Effects/BiquadFilters.h ****         };
  24:Effects/BiquadFilters.h **** 
  25:Effects/BiquadFilters.h ****         // Assumes normalized coefficients (a0 == 1)
  26:Effects/BiquadFilters.h ****         // Ordering numerator then denominator: {b0, b1, b2, a1, a2}
  27:Effects/BiquadFilters.h ****         using Coefficients = std::array<float, 5>;
  28:Effects/BiquadFilters.h **** 
  29:Effects/BiquadFilters.h ****         static const Coefficients CalculateCoefficients(const FilterType type, 
  30:Effects/BiquadFilters.h ****                                                         const float sample_rate,
  31:Effects/BiquadFilters.h ****                                                         const float cutoff_hz,
  32:Effects/BiquadFilters.h ****                                                         const float q);
  33:Effects/BiquadFilters.h **** 
  34:Effects/BiquadFilters.h ****         BiquadSection() {}
  35:Effects/BiquadFilters.h ****         ~BiquadSection() {}
  36:Effects/BiquadFilters.h **** 
  37:Effects/BiquadFilters.h ****         void SetCoefficients(const Coefficients coefficients) { coefs_ = coefficients; }
  38:Effects/BiquadFilters.h **** 
  39:Effects/BiquadFilters.h ****         inline float Process(const float in, const int channel)
  40:Effects/BiquadFilters.h ****         {
  41:Effects/BiquadFilters.h ****             assert(channel < 2);
  42:Effects/BiquadFilters.h **** 
  43:Effects/BiquadFilters.h ****             // TODO: arm accelerated version
  44:Effects/BiquadFilters.h **** 
  45:Effects/BiquadFilters.h ****             const float &b0 = coefs_[0];
  46:Effects/BiquadFilters.h ****             const float &b1 = coefs_[1];
  47:Effects/BiquadFilters.h ****             const float &b2 = coefs_[2];
ARM GAS  /var/folders/9s/8rp0_f2s1n31qbztm3b5_fdh0000gn/T//ccXta1BT.s 			page 12


  48:Effects/BiquadFilters.h ****             const float &a1 = coefs_[3];
  49:Effects/BiquadFilters.h ****             const float &a2 = coefs_[4];
  50:Effects/BiquadFilters.h **** 
  51:Effects/BiquadFilters.h ****             // Transposed direct form 2
  52:Effects/BiquadFilters.h ****             float y = b0 * in + s1_[channel];
  53:Effects/BiquadFilters.h ****             s1_[channel] = s2_[channel] + in * b1 - a1 * y;
  54:Effects/BiquadFilters.h ****             s2_[channel] = b2 * in - a2 * y;
  55:Effects/BiquadFilters.h ****             return y;
  56:Effects/BiquadFilters.h ****         }
  57:Effects/BiquadFilters.h **** 
  58:Effects/BiquadFilters.h ****     private:
  59:Effects/BiquadFilters.h ****         // coef
  60:Effects/BiquadFilters.h ****         Coefficients coefs_{0, 0, 0, 0, 0};
  61:Effects/BiquadFilters.h **** 
  62:Effects/BiquadFilters.h ****         // state
  63:Effects/BiquadFilters.h ****         float s1_[2] = {0, 0};
  64:Effects/BiquadFilters.h ****         float s2_[2] = {0, 0};
  65:Effects/BiquadFilters.h **** 
  66:Effects/BiquadFilters.h **** };
  67:Effects/BiquadFilters.h **** 
  68:Effects/BiquadFilters.h **** /// Templated cascaded biquad filter. Filter Order = 2 * NumSections.
  69:Effects/BiquadFilters.h **** /// NOTE: Only supports even-ordered filters.
  70:Effects/BiquadFilters.h **** template<size_t NumSections, BiquadSection::FilterType FilterType>
  71:Effects/BiquadFilters.h **** class BiquadCascade {
  72:Effects/BiquadFilters.h **** 
  73:Effects/BiquadFilters.h ****     static_assert(NumSections > 0, "Must have at least one section");
  74:Effects/BiquadFilters.h **** 
  75:Effects/BiquadFilters.h ****     public:
  76:Effects/BiquadFilters.h ****         BiquadCascade() {}
  77:Effects/BiquadFilters.h ****         ~BiquadCascade() {}
 153              		.loc 10 77 9 view .LVU17
 154              	.LBB361:
 155              	.LBI361:
 156              		.file 11 "/Library/DaisyToolchain/0.2.0/arm/arm-none-eabi/include/c++/10.3.1/array"
   1:/Library/DaisyToolchain/0.2.0/arm/arm-none-eabi/include/c++/10.3.1/array **** // <array> -*- C++ -*-
   2:/Library/DaisyToolchain/0.2.0/arm/arm-none-eabi/include/c++/10.3.1/array **** 
   3:/Library/DaisyToolchain/0.2.0/arm/arm-none-eabi/include/c++/10.3.1/array **** // Copyright (C) 2007-2020 Free Software Foundation, Inc.
   4:/Library/DaisyToolchain/0.2.0/arm/arm-none-eabi/include/c++/10.3.1/array **** //
   5:/Library/DaisyToolchain/0.2.0/arm/arm-none-eabi/include/c++/10.3.1/array **** // This file is part of the GNU ISO C++ Library.  This library is free
   6:/Library/DaisyToolchain/0.2.0/arm/arm-none-eabi/include/c++/10.3.1/array **** // software; you can redistribute it and/or modify it under the
   7:/Library/DaisyToolchain/0.2.0/arm/arm-none-eabi/include/c++/10.3.1/array **** // terms of the GNU General Public License as published by the
   8:/Library/DaisyToolchain/0.2.0/arm/arm-none-eabi/include/c++/10.3.1/array **** // Free Software Foundation; either version 3, or (at your option)
   9:/Library/DaisyToolchain/0.2.0/arm/arm-none-eabi/include/c++/10.3.1/array **** // any later version.
  10:/Library/DaisyToolchain/0.2.0/arm/arm-none-eabi/include/c++/10.3.1/array **** 
  11:/Library/DaisyToolchain/0.2.0/arm/arm-none-eabi/include/c++/10.3.1/array **** // This library is distributed in the hope that it will be useful,
  12:/Library/DaisyToolchain/0.2.0/arm/arm-none-eabi/include/c++/10.3.1/array **** // but WITHOUT ANY WARRANTY; without even the implied warranty of
  13:/Library/DaisyToolchain/0.2.0/arm/arm-none-eabi/include/c++/10.3.1/array **** // MERCHANTABILITY or FITNESS FOR A PARTICULAR PURPOSE.  See the
  14:/Library/DaisyToolchain/0.2.0/arm/arm-none-eabi/include/c++/10.3.1/array **** // GNU General Public License for more details.
  15:/Library/DaisyToolchain/0.2.0/arm/arm-none-eabi/include/c++/10.3.1/array **** 
  16:/Library/DaisyToolchain/0.2.0/arm/arm-none-eabi/include/c++/10.3.1/array **** // Under Section 7 of GPL version 3, you are granted additional
  17:/Library/DaisyToolchain/0.2.0/arm/arm-none-eabi/include/c++/10.3.1/array **** // permissions described in the GCC Runtime Library Exception, version
  18:/Library/DaisyToolchain/0.2.0/arm/arm-none-eabi/include/c++/10.3.1/array **** // 3.1, as published by the Free Software Foundation.
  19:/Library/DaisyToolchain/0.2.0/arm/arm-none-eabi/include/c++/10.3.1/array **** 
  20:/Library/DaisyToolchain/0.2.0/arm/arm-none-eabi/include/c++/10.3.1/array **** // You should have received a copy of the GNU General Public License and
  21:/Library/DaisyToolchain/0.2.0/arm/arm-none-eabi/include/c++/10.3.1/array **** // a copy of the GCC Runtime Library Exception along with this program;
  22:/Library/DaisyToolchain/0.2.0/arm/arm-none-eabi/include/c++/10.3.1/array **** // see the files COPYING3 and COPYING.RUNTIME respectively.  If not, see
  23:/Library/DaisyToolchain/0.2.0/arm/arm-none-eabi/include/c++/10.3.1/array **** // <http://www.gnu.org/licenses/>.
ARM GAS  /var/folders/9s/8rp0_f2s1n31qbztm3b5_fdh0000gn/T//ccXta1BT.s 			page 13


  24:/Library/DaisyToolchain/0.2.0/arm/arm-none-eabi/include/c++/10.3.1/array **** 
  25:/Library/DaisyToolchain/0.2.0/arm/arm-none-eabi/include/c++/10.3.1/array **** /** @file include/array
  26:/Library/DaisyToolchain/0.2.0/arm/arm-none-eabi/include/c++/10.3.1/array ****  *  This is a Standard C++ Library header.
  27:/Library/DaisyToolchain/0.2.0/arm/arm-none-eabi/include/c++/10.3.1/array ****  */
  28:/Library/DaisyToolchain/0.2.0/arm/arm-none-eabi/include/c++/10.3.1/array **** 
  29:/Library/DaisyToolchain/0.2.0/arm/arm-none-eabi/include/c++/10.3.1/array **** #ifndef _GLIBCXX_ARRAY
  30:/Library/DaisyToolchain/0.2.0/arm/arm-none-eabi/include/c++/10.3.1/array **** #define _GLIBCXX_ARRAY 1
  31:/Library/DaisyToolchain/0.2.0/arm/arm-none-eabi/include/c++/10.3.1/array **** 
  32:/Library/DaisyToolchain/0.2.0/arm/arm-none-eabi/include/c++/10.3.1/array **** #pragma GCC system_header
  33:/Library/DaisyToolchain/0.2.0/arm/arm-none-eabi/include/c++/10.3.1/array **** 
  34:/Library/DaisyToolchain/0.2.0/arm/arm-none-eabi/include/c++/10.3.1/array **** #if __cplusplus < 201103L
  35:/Library/DaisyToolchain/0.2.0/arm/arm-none-eabi/include/c++/10.3.1/array **** # include <bits/c++0x_warning.h>
  36:/Library/DaisyToolchain/0.2.0/arm/arm-none-eabi/include/c++/10.3.1/array **** #else
  37:/Library/DaisyToolchain/0.2.0/arm/arm-none-eabi/include/c++/10.3.1/array **** 
  38:/Library/DaisyToolchain/0.2.0/arm/arm-none-eabi/include/c++/10.3.1/array **** #include <utility>
  39:/Library/DaisyToolchain/0.2.0/arm/arm-none-eabi/include/c++/10.3.1/array **** #include <bits/functexcept.h>
  40:/Library/DaisyToolchain/0.2.0/arm/arm-none-eabi/include/c++/10.3.1/array **** #include <bits/stl_algobase.h>
  41:/Library/DaisyToolchain/0.2.0/arm/arm-none-eabi/include/c++/10.3.1/array **** #include <bits/range_access.h>
  42:/Library/DaisyToolchain/0.2.0/arm/arm-none-eabi/include/c++/10.3.1/array **** 
  43:/Library/DaisyToolchain/0.2.0/arm/arm-none-eabi/include/c++/10.3.1/array **** namespace std _GLIBCXX_VISIBILITY(default)
  44:/Library/DaisyToolchain/0.2.0/arm/arm-none-eabi/include/c++/10.3.1/array **** {
  45:/Library/DaisyToolchain/0.2.0/arm/arm-none-eabi/include/c++/10.3.1/array **** _GLIBCXX_BEGIN_NAMESPACE_CONTAINER
  46:/Library/DaisyToolchain/0.2.0/arm/arm-none-eabi/include/c++/10.3.1/array **** 
  47:/Library/DaisyToolchain/0.2.0/arm/arm-none-eabi/include/c++/10.3.1/array ****   template<typename _Tp, std::size_t _Nm>
  48:/Library/DaisyToolchain/0.2.0/arm/arm-none-eabi/include/c++/10.3.1/array ****     struct __array_traits
  49:/Library/DaisyToolchain/0.2.0/arm/arm-none-eabi/include/c++/10.3.1/array ****     {
  50:/Library/DaisyToolchain/0.2.0/arm/arm-none-eabi/include/c++/10.3.1/array ****       typedef _Tp _Type[_Nm];
  51:/Library/DaisyToolchain/0.2.0/arm/arm-none-eabi/include/c++/10.3.1/array ****       typedef __is_swappable<_Tp> _Is_swappable;
  52:/Library/DaisyToolchain/0.2.0/arm/arm-none-eabi/include/c++/10.3.1/array ****       typedef __is_nothrow_swappable<_Tp> _Is_nothrow_swappable;
  53:/Library/DaisyToolchain/0.2.0/arm/arm-none-eabi/include/c++/10.3.1/array **** 
  54:/Library/DaisyToolchain/0.2.0/arm/arm-none-eabi/include/c++/10.3.1/array ****       static constexpr _Tp&
  55:/Library/DaisyToolchain/0.2.0/arm/arm-none-eabi/include/c++/10.3.1/array ****       _S_ref(const _Type& __t, std::size_t __n) noexcept
  56:/Library/DaisyToolchain/0.2.0/arm/arm-none-eabi/include/c++/10.3.1/array ****       { return const_cast<_Tp&>(__t[__n]); }
  57:/Library/DaisyToolchain/0.2.0/arm/arm-none-eabi/include/c++/10.3.1/array **** 
  58:/Library/DaisyToolchain/0.2.0/arm/arm-none-eabi/include/c++/10.3.1/array ****       static constexpr _Tp*
  59:/Library/DaisyToolchain/0.2.0/arm/arm-none-eabi/include/c++/10.3.1/array ****       _S_ptr(const _Type& __t) noexcept
  60:/Library/DaisyToolchain/0.2.0/arm/arm-none-eabi/include/c++/10.3.1/array ****       { return const_cast<_Tp*>(__t); }
  61:/Library/DaisyToolchain/0.2.0/arm/arm-none-eabi/include/c++/10.3.1/array ****     };
  62:/Library/DaisyToolchain/0.2.0/arm/arm-none-eabi/include/c++/10.3.1/array **** 
  63:/Library/DaisyToolchain/0.2.0/arm/arm-none-eabi/include/c++/10.3.1/array ****  template<typename _Tp>
  64:/Library/DaisyToolchain/0.2.0/arm/arm-none-eabi/include/c++/10.3.1/array ****    struct __array_traits<_Tp, 0>
  65:/Library/DaisyToolchain/0.2.0/arm/arm-none-eabi/include/c++/10.3.1/array ****    {
  66:/Library/DaisyToolchain/0.2.0/arm/arm-none-eabi/include/c++/10.3.1/array ****      struct _Type { };
  67:/Library/DaisyToolchain/0.2.0/arm/arm-none-eabi/include/c++/10.3.1/array ****      typedef true_type _Is_swappable;
  68:/Library/DaisyToolchain/0.2.0/arm/arm-none-eabi/include/c++/10.3.1/array ****      typedef true_type _Is_nothrow_swappable;
  69:/Library/DaisyToolchain/0.2.0/arm/arm-none-eabi/include/c++/10.3.1/array **** 
  70:/Library/DaisyToolchain/0.2.0/arm/arm-none-eabi/include/c++/10.3.1/array ****      static constexpr _Tp&
  71:/Library/DaisyToolchain/0.2.0/arm/arm-none-eabi/include/c++/10.3.1/array ****      _S_ref(const _Type&, std::size_t) noexcept
  72:/Library/DaisyToolchain/0.2.0/arm/arm-none-eabi/include/c++/10.3.1/array ****      { return *static_cast<_Tp*>(nullptr); }
  73:/Library/DaisyToolchain/0.2.0/arm/arm-none-eabi/include/c++/10.3.1/array **** 
  74:/Library/DaisyToolchain/0.2.0/arm/arm-none-eabi/include/c++/10.3.1/array ****      static constexpr _Tp*
  75:/Library/DaisyToolchain/0.2.0/arm/arm-none-eabi/include/c++/10.3.1/array ****      _S_ptr(const _Type&) noexcept
  76:/Library/DaisyToolchain/0.2.0/arm/arm-none-eabi/include/c++/10.3.1/array ****      { return nullptr; }
  77:/Library/DaisyToolchain/0.2.0/arm/arm-none-eabi/include/c++/10.3.1/array ****    };
  78:/Library/DaisyToolchain/0.2.0/arm/arm-none-eabi/include/c++/10.3.1/array **** 
  79:/Library/DaisyToolchain/0.2.0/arm/arm-none-eabi/include/c++/10.3.1/array ****   /**
  80:/Library/DaisyToolchain/0.2.0/arm/arm-none-eabi/include/c++/10.3.1/array ****    *  @brief A standard container for storing a fixed size sequence of elements.
ARM GAS  /var/folders/9s/8rp0_f2s1n31qbztm3b5_fdh0000gn/T//ccXta1BT.s 			page 14


  81:/Library/DaisyToolchain/0.2.0/arm/arm-none-eabi/include/c++/10.3.1/array ****    *
  82:/Library/DaisyToolchain/0.2.0/arm/arm-none-eabi/include/c++/10.3.1/array ****    *  @ingroup sequences
  83:/Library/DaisyToolchain/0.2.0/arm/arm-none-eabi/include/c++/10.3.1/array ****    *
  84:/Library/DaisyToolchain/0.2.0/arm/arm-none-eabi/include/c++/10.3.1/array ****    *  Meets the requirements of a <a href="tables.html#65">container</a>, a
  85:/Library/DaisyToolchain/0.2.0/arm/arm-none-eabi/include/c++/10.3.1/array ****    *  <a href="tables.html#66">reversible container</a>, and a
  86:/Library/DaisyToolchain/0.2.0/arm/arm-none-eabi/include/c++/10.3.1/array ****    *  <a href="tables.html#67">sequence</a>.
  87:/Library/DaisyToolchain/0.2.0/arm/arm-none-eabi/include/c++/10.3.1/array ****    *
  88:/Library/DaisyToolchain/0.2.0/arm/arm-none-eabi/include/c++/10.3.1/array ****    *  Sets support random access iterators.
  89:/Library/DaisyToolchain/0.2.0/arm/arm-none-eabi/include/c++/10.3.1/array ****    *
  90:/Library/DaisyToolchain/0.2.0/arm/arm-none-eabi/include/c++/10.3.1/array ****    *  @tparam  Tp  Type of element. Required to be a complete type.
  91:/Library/DaisyToolchain/0.2.0/arm/arm-none-eabi/include/c++/10.3.1/array ****    *  @tparam  Nm  Number of elements.
  92:/Library/DaisyToolchain/0.2.0/arm/arm-none-eabi/include/c++/10.3.1/array ****   */
  93:/Library/DaisyToolchain/0.2.0/arm/arm-none-eabi/include/c++/10.3.1/array ****   template<typename _Tp, std::size_t _Nm>
  94:/Library/DaisyToolchain/0.2.0/arm/arm-none-eabi/include/c++/10.3.1/array ****     struct array
 157              		.loc 11 94 12 view .LVU18
 158              		.loc 11 94 12 is_stmt 0 view .LVU19
 159              	.LBE361:
 160              	.LBE360:
 161              	.LBB362:
 162              	.LBI362:
 163              		.file 12 "lib/DaisySP/Source/Utility/delayline.h"
   1:lib/DaisySP/Source/Utility/delayline.h **** /*
   2:lib/DaisySP/Source/Utility/delayline.h **** Copyright (c) 2020 Electrosmith, Corp
   3:lib/DaisySP/Source/Utility/delayline.h **** 
   4:lib/DaisySP/Source/Utility/delayline.h **** Use of this source code is governed by an MIT-style
   5:lib/DaisySP/Source/Utility/delayline.h **** license that can be found in the LICENSE file or at
   6:lib/DaisySP/Source/Utility/delayline.h **** https://opensource.org/licenses/MIT.
   7:lib/DaisySP/Source/Utility/delayline.h **** */
   8:lib/DaisySP/Source/Utility/delayline.h **** 
   9:lib/DaisySP/Source/Utility/delayline.h **** #pragma once
  10:lib/DaisySP/Source/Utility/delayline.h **** #ifndef DSY_DELAY_H
  11:lib/DaisySP/Source/Utility/delayline.h **** #define DSY_DELAY_H
  12:lib/DaisySP/Source/Utility/delayline.h **** #include <stdlib.h>
  13:lib/DaisySP/Source/Utility/delayline.h **** #include <stdint.h>
  14:lib/DaisySP/Source/Utility/delayline.h **** namespace daisysp
  15:lib/DaisySP/Source/Utility/delayline.h **** {
  16:lib/DaisySP/Source/Utility/delayline.h **** /** Simple Delay line.
  17:lib/DaisySP/Source/Utility/delayline.h **** November 2019
  18:lib/DaisySP/Source/Utility/delayline.h **** 
  19:lib/DaisySP/Source/Utility/delayline.h **** Converted to Template December 2019
  20:lib/DaisySP/Source/Utility/delayline.h **** 
  21:lib/DaisySP/Source/Utility/delayline.h **** declaration example: (1 second of floats)
  22:lib/DaisySP/Source/Utility/delayline.h **** 
  23:lib/DaisySP/Source/Utility/delayline.h **** DelayLine<float, SAMPLE_RATE> del;
  24:lib/DaisySP/Source/Utility/delayline.h **** 
  25:lib/DaisySP/Source/Utility/delayline.h **** By: shensley
  26:lib/DaisySP/Source/Utility/delayline.h **** */
  27:lib/DaisySP/Source/Utility/delayline.h **** template <typename T, size_t max_size>
  28:lib/DaisySP/Source/Utility/delayline.h **** class DelayLine
  29:lib/DaisySP/Source/Utility/delayline.h **** {
  30:lib/DaisySP/Source/Utility/delayline.h ****   public:
  31:lib/DaisySP/Source/Utility/delayline.h ****     DelayLine() {}
  32:lib/DaisySP/Source/Utility/delayline.h ****     ~DelayLine() {}
 164              		.loc 12 32 5 is_stmt 1 view .LVU20
 165              		.loc 12 32 5 is_stmt 0 view .LVU21
 166              	.LBE362:
 167              		.loc 9 25 23 view .LVU22
ARM GAS  /var/folders/9s/8rp0_f2s1n31qbztm3b5_fdh0000gn/T//ccXta1BT.s 			page 15


 168 0000 7047     		bx	lr
 169              		.cfi_endproc
 170              	.LFE6150:
 172              		.weak	_ZN10infrasonic9EchoDelayILj48000EED1Ev
 173              		.thumb_set _ZN10infrasonic9EchoDelayILj48000EED1Ev,_ZN10infrasonic9EchoDelayILj48000EED2Ev
 174              		.section	.text._ZNSt17_Function_handlerIFviEZ15InitializeSynthvEUliE_E10_M_managerERSt9_Any_dataRK
 175              		.align	1
 176              		.syntax unified
 177              		.thumb
 178              		.thumb_func
 180              	_ZNSt17_Function_handlerIFviEZ15InitializeSynthvEUliE_E10_M_managerERSt9_Any_dataRKS3_St18_Manager_
 181              	.LVL5:
 182              	.LFB5963:
 183              		.file 13 "/Library/DaisyToolchain/0.2.0/arm/arm-none-eabi/include/c++/10.3.1/bits/std_function.h"
   1:/Library/DaisyToolchain/0.2.0/arm/arm-none-eabi/include/c++/10.3.1/bits/std_function.h **** // Implementation of std::function -*- C++ -*-
   2:/Library/DaisyToolchain/0.2.0/arm/arm-none-eabi/include/c++/10.3.1/bits/std_function.h **** 
   3:/Library/DaisyToolchain/0.2.0/arm/arm-none-eabi/include/c++/10.3.1/bits/std_function.h **** // Copyright (C) 2004-2020 Free Software Foundation, Inc.
   4:/Library/DaisyToolchain/0.2.0/arm/arm-none-eabi/include/c++/10.3.1/bits/std_function.h **** //
   5:/Library/DaisyToolchain/0.2.0/arm/arm-none-eabi/include/c++/10.3.1/bits/std_function.h **** // This file is part of the GNU ISO C++ Library.  This library is free
   6:/Library/DaisyToolchain/0.2.0/arm/arm-none-eabi/include/c++/10.3.1/bits/std_function.h **** // software; you can redistribute it and/or modify it under the
   7:/Library/DaisyToolchain/0.2.0/arm/arm-none-eabi/include/c++/10.3.1/bits/std_function.h **** // terms of the GNU General Public License as published by the
   8:/Library/DaisyToolchain/0.2.0/arm/arm-none-eabi/include/c++/10.3.1/bits/std_function.h **** // Free Software Foundation; either version 3, or (at your option)
   9:/Library/DaisyToolchain/0.2.0/arm/arm-none-eabi/include/c++/10.3.1/bits/std_function.h **** // any later version.
  10:/Library/DaisyToolchain/0.2.0/arm/arm-none-eabi/include/c++/10.3.1/bits/std_function.h **** 
  11:/Library/DaisyToolchain/0.2.0/arm/arm-none-eabi/include/c++/10.3.1/bits/std_function.h **** // This library is distributed in the hope that it will be useful,
  12:/Library/DaisyToolchain/0.2.0/arm/arm-none-eabi/include/c++/10.3.1/bits/std_function.h **** // but WITHOUT ANY WARRANTY; without even the implied warranty of
  13:/Library/DaisyToolchain/0.2.0/arm/arm-none-eabi/include/c++/10.3.1/bits/std_function.h **** // MERCHANTABILITY or FITNESS FOR A PARTICULAR PURPOSE.  See the
  14:/Library/DaisyToolchain/0.2.0/arm/arm-none-eabi/include/c++/10.3.1/bits/std_function.h **** // GNU General Public License for more details.
  15:/Library/DaisyToolchain/0.2.0/arm/arm-none-eabi/include/c++/10.3.1/bits/std_function.h **** 
  16:/Library/DaisyToolchain/0.2.0/arm/arm-none-eabi/include/c++/10.3.1/bits/std_function.h **** // Under Section 7 of GPL version 3, you are granted additional
  17:/Library/DaisyToolchain/0.2.0/arm/arm-none-eabi/include/c++/10.3.1/bits/std_function.h **** // permissions described in the GCC Runtime Library Exception, version
  18:/Library/DaisyToolchain/0.2.0/arm/arm-none-eabi/include/c++/10.3.1/bits/std_function.h **** // 3.1, as published by the Free Software Foundation.
  19:/Library/DaisyToolchain/0.2.0/arm/arm-none-eabi/include/c++/10.3.1/bits/std_function.h **** 
  20:/Library/DaisyToolchain/0.2.0/arm/arm-none-eabi/include/c++/10.3.1/bits/std_function.h **** // You should have received a copy of the GNU General Public License and
  21:/Library/DaisyToolchain/0.2.0/arm/arm-none-eabi/include/c++/10.3.1/bits/std_function.h **** // a copy of the GCC Runtime Library Exception along with this program;
  22:/Library/DaisyToolchain/0.2.0/arm/arm-none-eabi/include/c++/10.3.1/bits/std_function.h **** // see the files COPYING3 and COPYING.RUNTIME respectively.  If not, see
  23:/Library/DaisyToolchain/0.2.0/arm/arm-none-eabi/include/c++/10.3.1/bits/std_function.h **** // <http://www.gnu.org/licenses/>.
  24:/Library/DaisyToolchain/0.2.0/arm/arm-none-eabi/include/c++/10.3.1/bits/std_function.h **** 
  25:/Library/DaisyToolchain/0.2.0/arm/arm-none-eabi/include/c++/10.3.1/bits/std_function.h **** /** @file include/bits/std_function.h
  26:/Library/DaisyToolchain/0.2.0/arm/arm-none-eabi/include/c++/10.3.1/bits/std_function.h ****  *  This is an internal header file, included by other library headers.
  27:/Library/DaisyToolchain/0.2.0/arm/arm-none-eabi/include/c++/10.3.1/bits/std_function.h ****  *  Do not attempt to use it directly. @headername{functional}
  28:/Library/DaisyToolchain/0.2.0/arm/arm-none-eabi/include/c++/10.3.1/bits/std_function.h ****  */
  29:/Library/DaisyToolchain/0.2.0/arm/arm-none-eabi/include/c++/10.3.1/bits/std_function.h **** 
  30:/Library/DaisyToolchain/0.2.0/arm/arm-none-eabi/include/c++/10.3.1/bits/std_function.h **** #ifndef _GLIBCXX_STD_FUNCTION_H
  31:/Library/DaisyToolchain/0.2.0/arm/arm-none-eabi/include/c++/10.3.1/bits/std_function.h **** #define _GLIBCXX_STD_FUNCTION_H 1
  32:/Library/DaisyToolchain/0.2.0/arm/arm-none-eabi/include/c++/10.3.1/bits/std_function.h **** 
  33:/Library/DaisyToolchain/0.2.0/arm/arm-none-eabi/include/c++/10.3.1/bits/std_function.h **** #pragma GCC system_header
  34:/Library/DaisyToolchain/0.2.0/arm/arm-none-eabi/include/c++/10.3.1/bits/std_function.h **** 
  35:/Library/DaisyToolchain/0.2.0/arm/arm-none-eabi/include/c++/10.3.1/bits/std_function.h **** #if __cplusplus < 201103L
  36:/Library/DaisyToolchain/0.2.0/arm/arm-none-eabi/include/c++/10.3.1/bits/std_function.h **** # include <bits/c++0x_warning.h>
  37:/Library/DaisyToolchain/0.2.0/arm/arm-none-eabi/include/c++/10.3.1/bits/std_function.h **** #else
  38:/Library/DaisyToolchain/0.2.0/arm/arm-none-eabi/include/c++/10.3.1/bits/std_function.h **** 
  39:/Library/DaisyToolchain/0.2.0/arm/arm-none-eabi/include/c++/10.3.1/bits/std_function.h **** #if __cpp_rtti
  40:/Library/DaisyToolchain/0.2.0/arm/arm-none-eabi/include/c++/10.3.1/bits/std_function.h **** # include <typeinfo>
  41:/Library/DaisyToolchain/0.2.0/arm/arm-none-eabi/include/c++/10.3.1/bits/std_function.h **** #endif
  42:/Library/DaisyToolchain/0.2.0/arm/arm-none-eabi/include/c++/10.3.1/bits/std_function.h **** #include <bits/stl_function.h>
  43:/Library/DaisyToolchain/0.2.0/arm/arm-none-eabi/include/c++/10.3.1/bits/std_function.h **** #include <bits/invoke.h>
ARM GAS  /var/folders/9s/8rp0_f2s1n31qbztm3b5_fdh0000gn/T//ccXta1BT.s 			page 16


  44:/Library/DaisyToolchain/0.2.0/arm/arm-none-eabi/include/c++/10.3.1/bits/std_function.h **** #include <bits/refwrap.h>
  45:/Library/DaisyToolchain/0.2.0/arm/arm-none-eabi/include/c++/10.3.1/bits/std_function.h **** #include <bits/functexcept.h>
  46:/Library/DaisyToolchain/0.2.0/arm/arm-none-eabi/include/c++/10.3.1/bits/std_function.h **** 
  47:/Library/DaisyToolchain/0.2.0/arm/arm-none-eabi/include/c++/10.3.1/bits/std_function.h **** namespace std _GLIBCXX_VISIBILITY(default)
  48:/Library/DaisyToolchain/0.2.0/arm/arm-none-eabi/include/c++/10.3.1/bits/std_function.h **** {
  49:/Library/DaisyToolchain/0.2.0/arm/arm-none-eabi/include/c++/10.3.1/bits/std_function.h **** _GLIBCXX_BEGIN_NAMESPACE_VERSION
  50:/Library/DaisyToolchain/0.2.0/arm/arm-none-eabi/include/c++/10.3.1/bits/std_function.h **** 
  51:/Library/DaisyToolchain/0.2.0/arm/arm-none-eabi/include/c++/10.3.1/bits/std_function.h ****   /**
  52:/Library/DaisyToolchain/0.2.0/arm/arm-none-eabi/include/c++/10.3.1/bits/std_function.h ****    *  @brief Exception class thrown when class template function's
  53:/Library/DaisyToolchain/0.2.0/arm/arm-none-eabi/include/c++/10.3.1/bits/std_function.h ****    *  operator() is called with an empty target.
  54:/Library/DaisyToolchain/0.2.0/arm/arm-none-eabi/include/c++/10.3.1/bits/std_function.h ****    *  @ingroup exceptions
  55:/Library/DaisyToolchain/0.2.0/arm/arm-none-eabi/include/c++/10.3.1/bits/std_function.h ****    */
  56:/Library/DaisyToolchain/0.2.0/arm/arm-none-eabi/include/c++/10.3.1/bits/std_function.h ****   class bad_function_call : public std::exception
  57:/Library/DaisyToolchain/0.2.0/arm/arm-none-eabi/include/c++/10.3.1/bits/std_function.h ****   {
  58:/Library/DaisyToolchain/0.2.0/arm/arm-none-eabi/include/c++/10.3.1/bits/std_function.h ****   public:
  59:/Library/DaisyToolchain/0.2.0/arm/arm-none-eabi/include/c++/10.3.1/bits/std_function.h ****     virtual ~bad_function_call() noexcept;
  60:/Library/DaisyToolchain/0.2.0/arm/arm-none-eabi/include/c++/10.3.1/bits/std_function.h **** 
  61:/Library/DaisyToolchain/0.2.0/arm/arm-none-eabi/include/c++/10.3.1/bits/std_function.h ****     const char* what() const noexcept;
  62:/Library/DaisyToolchain/0.2.0/arm/arm-none-eabi/include/c++/10.3.1/bits/std_function.h ****   };
  63:/Library/DaisyToolchain/0.2.0/arm/arm-none-eabi/include/c++/10.3.1/bits/std_function.h **** 
  64:/Library/DaisyToolchain/0.2.0/arm/arm-none-eabi/include/c++/10.3.1/bits/std_function.h ****   /**
  65:/Library/DaisyToolchain/0.2.0/arm/arm-none-eabi/include/c++/10.3.1/bits/std_function.h ****    *  Trait identifying "location-invariant" types, meaning that the
  66:/Library/DaisyToolchain/0.2.0/arm/arm-none-eabi/include/c++/10.3.1/bits/std_function.h ****    *  address of the object (or any of its members) will not escape.
  67:/Library/DaisyToolchain/0.2.0/arm/arm-none-eabi/include/c++/10.3.1/bits/std_function.h ****    *  Trivially copyable types are location-invariant and users can
  68:/Library/DaisyToolchain/0.2.0/arm/arm-none-eabi/include/c++/10.3.1/bits/std_function.h ****    *  specialize this trait for other types.
  69:/Library/DaisyToolchain/0.2.0/arm/arm-none-eabi/include/c++/10.3.1/bits/std_function.h ****    */
  70:/Library/DaisyToolchain/0.2.0/arm/arm-none-eabi/include/c++/10.3.1/bits/std_function.h ****   template<typename _Tp>
  71:/Library/DaisyToolchain/0.2.0/arm/arm-none-eabi/include/c++/10.3.1/bits/std_function.h ****     struct __is_location_invariant
  72:/Library/DaisyToolchain/0.2.0/arm/arm-none-eabi/include/c++/10.3.1/bits/std_function.h ****     : is_trivially_copyable<_Tp>::type
  73:/Library/DaisyToolchain/0.2.0/arm/arm-none-eabi/include/c++/10.3.1/bits/std_function.h ****     { };
  74:/Library/DaisyToolchain/0.2.0/arm/arm-none-eabi/include/c++/10.3.1/bits/std_function.h **** 
  75:/Library/DaisyToolchain/0.2.0/arm/arm-none-eabi/include/c++/10.3.1/bits/std_function.h ****   class _Undefined_class;
  76:/Library/DaisyToolchain/0.2.0/arm/arm-none-eabi/include/c++/10.3.1/bits/std_function.h **** 
  77:/Library/DaisyToolchain/0.2.0/arm/arm-none-eabi/include/c++/10.3.1/bits/std_function.h ****   union _Nocopy_types
  78:/Library/DaisyToolchain/0.2.0/arm/arm-none-eabi/include/c++/10.3.1/bits/std_function.h ****   {
  79:/Library/DaisyToolchain/0.2.0/arm/arm-none-eabi/include/c++/10.3.1/bits/std_function.h ****     void*       _M_object;
  80:/Library/DaisyToolchain/0.2.0/arm/arm-none-eabi/include/c++/10.3.1/bits/std_function.h ****     const void* _M_const_object;
  81:/Library/DaisyToolchain/0.2.0/arm/arm-none-eabi/include/c++/10.3.1/bits/std_function.h ****     void (*_M_function_pointer)();
  82:/Library/DaisyToolchain/0.2.0/arm/arm-none-eabi/include/c++/10.3.1/bits/std_function.h ****     void (_Undefined_class::*_M_member_pointer)();
  83:/Library/DaisyToolchain/0.2.0/arm/arm-none-eabi/include/c++/10.3.1/bits/std_function.h ****   };
  84:/Library/DaisyToolchain/0.2.0/arm/arm-none-eabi/include/c++/10.3.1/bits/std_function.h **** 
  85:/Library/DaisyToolchain/0.2.0/arm/arm-none-eabi/include/c++/10.3.1/bits/std_function.h ****   union [[gnu::may_alias]] _Any_data
  86:/Library/DaisyToolchain/0.2.0/arm/arm-none-eabi/include/c++/10.3.1/bits/std_function.h ****   {
  87:/Library/DaisyToolchain/0.2.0/arm/arm-none-eabi/include/c++/10.3.1/bits/std_function.h ****     void*       _M_access()       { return &_M_pod_data[0]; }
  88:/Library/DaisyToolchain/0.2.0/arm/arm-none-eabi/include/c++/10.3.1/bits/std_function.h ****     const void* _M_access() const { return &_M_pod_data[0]; }
  89:/Library/DaisyToolchain/0.2.0/arm/arm-none-eabi/include/c++/10.3.1/bits/std_function.h **** 
  90:/Library/DaisyToolchain/0.2.0/arm/arm-none-eabi/include/c++/10.3.1/bits/std_function.h ****     template<typename _Tp>
  91:/Library/DaisyToolchain/0.2.0/arm/arm-none-eabi/include/c++/10.3.1/bits/std_function.h ****       _Tp&
  92:/Library/DaisyToolchain/0.2.0/arm/arm-none-eabi/include/c++/10.3.1/bits/std_function.h ****       _M_access()
  93:/Library/DaisyToolchain/0.2.0/arm/arm-none-eabi/include/c++/10.3.1/bits/std_function.h ****       { return *static_cast<_Tp*>(_M_access()); }
  94:/Library/DaisyToolchain/0.2.0/arm/arm-none-eabi/include/c++/10.3.1/bits/std_function.h **** 
  95:/Library/DaisyToolchain/0.2.0/arm/arm-none-eabi/include/c++/10.3.1/bits/std_function.h ****     template<typename _Tp>
  96:/Library/DaisyToolchain/0.2.0/arm/arm-none-eabi/include/c++/10.3.1/bits/std_function.h ****       const _Tp&
  97:/Library/DaisyToolchain/0.2.0/arm/arm-none-eabi/include/c++/10.3.1/bits/std_function.h ****       _M_access() const
  98:/Library/DaisyToolchain/0.2.0/arm/arm-none-eabi/include/c++/10.3.1/bits/std_function.h ****       { return *static_cast<const _Tp*>(_M_access()); }
  99:/Library/DaisyToolchain/0.2.0/arm/arm-none-eabi/include/c++/10.3.1/bits/std_function.h **** 
 100:/Library/DaisyToolchain/0.2.0/arm/arm-none-eabi/include/c++/10.3.1/bits/std_function.h ****     _Nocopy_types _M_unused;
ARM GAS  /var/folders/9s/8rp0_f2s1n31qbztm3b5_fdh0000gn/T//ccXta1BT.s 			page 17


 101:/Library/DaisyToolchain/0.2.0/arm/arm-none-eabi/include/c++/10.3.1/bits/std_function.h ****     char _M_pod_data[sizeof(_Nocopy_types)];
 102:/Library/DaisyToolchain/0.2.0/arm/arm-none-eabi/include/c++/10.3.1/bits/std_function.h ****   };
 103:/Library/DaisyToolchain/0.2.0/arm/arm-none-eabi/include/c++/10.3.1/bits/std_function.h **** 
 104:/Library/DaisyToolchain/0.2.0/arm/arm-none-eabi/include/c++/10.3.1/bits/std_function.h ****   enum _Manager_operation
 105:/Library/DaisyToolchain/0.2.0/arm/arm-none-eabi/include/c++/10.3.1/bits/std_function.h ****   {
 106:/Library/DaisyToolchain/0.2.0/arm/arm-none-eabi/include/c++/10.3.1/bits/std_function.h ****     __get_type_info,
 107:/Library/DaisyToolchain/0.2.0/arm/arm-none-eabi/include/c++/10.3.1/bits/std_function.h ****     __get_functor_ptr,
 108:/Library/DaisyToolchain/0.2.0/arm/arm-none-eabi/include/c++/10.3.1/bits/std_function.h ****     __clone_functor,
 109:/Library/DaisyToolchain/0.2.0/arm/arm-none-eabi/include/c++/10.3.1/bits/std_function.h ****     __destroy_functor
 110:/Library/DaisyToolchain/0.2.0/arm/arm-none-eabi/include/c++/10.3.1/bits/std_function.h ****   };
 111:/Library/DaisyToolchain/0.2.0/arm/arm-none-eabi/include/c++/10.3.1/bits/std_function.h **** 
 112:/Library/DaisyToolchain/0.2.0/arm/arm-none-eabi/include/c++/10.3.1/bits/std_function.h ****   template<typename _Signature>
 113:/Library/DaisyToolchain/0.2.0/arm/arm-none-eabi/include/c++/10.3.1/bits/std_function.h ****     class function;
 114:/Library/DaisyToolchain/0.2.0/arm/arm-none-eabi/include/c++/10.3.1/bits/std_function.h **** 
 115:/Library/DaisyToolchain/0.2.0/arm/arm-none-eabi/include/c++/10.3.1/bits/std_function.h ****   /// Base class of all polymorphic function object wrappers.
 116:/Library/DaisyToolchain/0.2.0/arm/arm-none-eabi/include/c++/10.3.1/bits/std_function.h ****   class _Function_base
 117:/Library/DaisyToolchain/0.2.0/arm/arm-none-eabi/include/c++/10.3.1/bits/std_function.h ****   {
 118:/Library/DaisyToolchain/0.2.0/arm/arm-none-eabi/include/c++/10.3.1/bits/std_function.h ****   public:
 119:/Library/DaisyToolchain/0.2.0/arm/arm-none-eabi/include/c++/10.3.1/bits/std_function.h ****     static const size_t _M_max_size = sizeof(_Nocopy_types);
 120:/Library/DaisyToolchain/0.2.0/arm/arm-none-eabi/include/c++/10.3.1/bits/std_function.h ****     static const size_t _M_max_align = __alignof__(_Nocopy_types);
 121:/Library/DaisyToolchain/0.2.0/arm/arm-none-eabi/include/c++/10.3.1/bits/std_function.h **** 
 122:/Library/DaisyToolchain/0.2.0/arm/arm-none-eabi/include/c++/10.3.1/bits/std_function.h ****     template<typename _Functor>
 123:/Library/DaisyToolchain/0.2.0/arm/arm-none-eabi/include/c++/10.3.1/bits/std_function.h ****       class _Base_manager
 124:/Library/DaisyToolchain/0.2.0/arm/arm-none-eabi/include/c++/10.3.1/bits/std_function.h ****       {
 125:/Library/DaisyToolchain/0.2.0/arm/arm-none-eabi/include/c++/10.3.1/bits/std_function.h ****       protected:
 126:/Library/DaisyToolchain/0.2.0/arm/arm-none-eabi/include/c++/10.3.1/bits/std_function.h **** 	static const bool __stored_locally =
 127:/Library/DaisyToolchain/0.2.0/arm/arm-none-eabi/include/c++/10.3.1/bits/std_function.h **** 	(__is_location_invariant<_Functor>::value
 128:/Library/DaisyToolchain/0.2.0/arm/arm-none-eabi/include/c++/10.3.1/bits/std_function.h **** 	 && sizeof(_Functor) <= _M_max_size
 129:/Library/DaisyToolchain/0.2.0/arm/arm-none-eabi/include/c++/10.3.1/bits/std_function.h **** 	 && __alignof__(_Functor) <= _M_max_align
 130:/Library/DaisyToolchain/0.2.0/arm/arm-none-eabi/include/c++/10.3.1/bits/std_function.h **** 	 && (_M_max_align % __alignof__(_Functor) == 0));
 131:/Library/DaisyToolchain/0.2.0/arm/arm-none-eabi/include/c++/10.3.1/bits/std_function.h **** 
 132:/Library/DaisyToolchain/0.2.0/arm/arm-none-eabi/include/c++/10.3.1/bits/std_function.h **** 	typedef integral_constant<bool, __stored_locally> _Local_storage;
 133:/Library/DaisyToolchain/0.2.0/arm/arm-none-eabi/include/c++/10.3.1/bits/std_function.h **** 
 134:/Library/DaisyToolchain/0.2.0/arm/arm-none-eabi/include/c++/10.3.1/bits/std_function.h **** 	// Retrieve a pointer to the function object
 135:/Library/DaisyToolchain/0.2.0/arm/arm-none-eabi/include/c++/10.3.1/bits/std_function.h **** 	static _Functor*
 136:/Library/DaisyToolchain/0.2.0/arm/arm-none-eabi/include/c++/10.3.1/bits/std_function.h **** 	_M_get_pointer(const _Any_data& __source)
 137:/Library/DaisyToolchain/0.2.0/arm/arm-none-eabi/include/c++/10.3.1/bits/std_function.h **** 	{
 138:/Library/DaisyToolchain/0.2.0/arm/arm-none-eabi/include/c++/10.3.1/bits/std_function.h **** 	  if _GLIBCXX17_CONSTEXPR (__stored_locally)
 139:/Library/DaisyToolchain/0.2.0/arm/arm-none-eabi/include/c++/10.3.1/bits/std_function.h **** 	    {
 140:/Library/DaisyToolchain/0.2.0/arm/arm-none-eabi/include/c++/10.3.1/bits/std_function.h **** 	      const _Functor& __f = __source._M_access<_Functor>();
 141:/Library/DaisyToolchain/0.2.0/arm/arm-none-eabi/include/c++/10.3.1/bits/std_function.h **** 	      return const_cast<_Functor*>(std::__addressof(__f));
 142:/Library/DaisyToolchain/0.2.0/arm/arm-none-eabi/include/c++/10.3.1/bits/std_function.h **** 	    }
 143:/Library/DaisyToolchain/0.2.0/arm/arm-none-eabi/include/c++/10.3.1/bits/std_function.h **** 	  else // have stored a pointer
 144:/Library/DaisyToolchain/0.2.0/arm/arm-none-eabi/include/c++/10.3.1/bits/std_function.h **** 	    return __source._M_access<_Functor*>();
 145:/Library/DaisyToolchain/0.2.0/arm/arm-none-eabi/include/c++/10.3.1/bits/std_function.h **** 	}
 146:/Library/DaisyToolchain/0.2.0/arm/arm-none-eabi/include/c++/10.3.1/bits/std_function.h **** 
 147:/Library/DaisyToolchain/0.2.0/arm/arm-none-eabi/include/c++/10.3.1/bits/std_function.h **** 	// Clone a location-invariant function object that fits within
 148:/Library/DaisyToolchain/0.2.0/arm/arm-none-eabi/include/c++/10.3.1/bits/std_function.h **** 	// an _Any_data structure.
 149:/Library/DaisyToolchain/0.2.0/arm/arm-none-eabi/include/c++/10.3.1/bits/std_function.h **** 	static void
 150:/Library/DaisyToolchain/0.2.0/arm/arm-none-eabi/include/c++/10.3.1/bits/std_function.h **** 	_M_clone(_Any_data& __dest, const _Any_data& __source, true_type)
 151:/Library/DaisyToolchain/0.2.0/arm/arm-none-eabi/include/c++/10.3.1/bits/std_function.h **** 	{
 152:/Library/DaisyToolchain/0.2.0/arm/arm-none-eabi/include/c++/10.3.1/bits/std_function.h **** 	  ::new (__dest._M_access()) _Functor(__source._M_access<_Functor>());
 153:/Library/DaisyToolchain/0.2.0/arm/arm-none-eabi/include/c++/10.3.1/bits/std_function.h **** 	}
 154:/Library/DaisyToolchain/0.2.0/arm/arm-none-eabi/include/c++/10.3.1/bits/std_function.h **** 
 155:/Library/DaisyToolchain/0.2.0/arm/arm-none-eabi/include/c++/10.3.1/bits/std_function.h **** 	// Clone a function object that is not location-invariant or
 156:/Library/DaisyToolchain/0.2.0/arm/arm-none-eabi/include/c++/10.3.1/bits/std_function.h **** 	// that cannot fit into an _Any_data structure.
 157:/Library/DaisyToolchain/0.2.0/arm/arm-none-eabi/include/c++/10.3.1/bits/std_function.h **** 	static void
ARM GAS  /var/folders/9s/8rp0_f2s1n31qbztm3b5_fdh0000gn/T//ccXta1BT.s 			page 18


 158:/Library/DaisyToolchain/0.2.0/arm/arm-none-eabi/include/c++/10.3.1/bits/std_function.h **** 	_M_clone(_Any_data& __dest, const _Any_data& __source, false_type)
 159:/Library/DaisyToolchain/0.2.0/arm/arm-none-eabi/include/c++/10.3.1/bits/std_function.h **** 	{
 160:/Library/DaisyToolchain/0.2.0/arm/arm-none-eabi/include/c++/10.3.1/bits/std_function.h **** 	  __dest._M_access<_Functor*>() =
 161:/Library/DaisyToolchain/0.2.0/arm/arm-none-eabi/include/c++/10.3.1/bits/std_function.h **** 	    new _Functor(*__source._M_access<const _Functor*>());
 162:/Library/DaisyToolchain/0.2.0/arm/arm-none-eabi/include/c++/10.3.1/bits/std_function.h **** 	}
 163:/Library/DaisyToolchain/0.2.0/arm/arm-none-eabi/include/c++/10.3.1/bits/std_function.h **** 
 164:/Library/DaisyToolchain/0.2.0/arm/arm-none-eabi/include/c++/10.3.1/bits/std_function.h **** 	// Destroying a location-invariant object may still require
 165:/Library/DaisyToolchain/0.2.0/arm/arm-none-eabi/include/c++/10.3.1/bits/std_function.h **** 	// destruction.
 166:/Library/DaisyToolchain/0.2.0/arm/arm-none-eabi/include/c++/10.3.1/bits/std_function.h **** 	static void
 167:/Library/DaisyToolchain/0.2.0/arm/arm-none-eabi/include/c++/10.3.1/bits/std_function.h **** 	_M_destroy(_Any_data& __victim, true_type)
 168:/Library/DaisyToolchain/0.2.0/arm/arm-none-eabi/include/c++/10.3.1/bits/std_function.h **** 	{
 169:/Library/DaisyToolchain/0.2.0/arm/arm-none-eabi/include/c++/10.3.1/bits/std_function.h **** 	  __victim._M_access<_Functor>().~_Functor();
 170:/Library/DaisyToolchain/0.2.0/arm/arm-none-eabi/include/c++/10.3.1/bits/std_function.h **** 	}
 171:/Library/DaisyToolchain/0.2.0/arm/arm-none-eabi/include/c++/10.3.1/bits/std_function.h **** 
 172:/Library/DaisyToolchain/0.2.0/arm/arm-none-eabi/include/c++/10.3.1/bits/std_function.h **** 	// Destroying an object located on the heap.
 173:/Library/DaisyToolchain/0.2.0/arm/arm-none-eabi/include/c++/10.3.1/bits/std_function.h **** 	static void
 174:/Library/DaisyToolchain/0.2.0/arm/arm-none-eabi/include/c++/10.3.1/bits/std_function.h **** 	_M_destroy(_Any_data& __victim, false_type)
 175:/Library/DaisyToolchain/0.2.0/arm/arm-none-eabi/include/c++/10.3.1/bits/std_function.h **** 	{
 176:/Library/DaisyToolchain/0.2.0/arm/arm-none-eabi/include/c++/10.3.1/bits/std_function.h **** 	  delete __victim._M_access<_Functor*>();
 177:/Library/DaisyToolchain/0.2.0/arm/arm-none-eabi/include/c++/10.3.1/bits/std_function.h **** 	}
 178:/Library/DaisyToolchain/0.2.0/arm/arm-none-eabi/include/c++/10.3.1/bits/std_function.h **** 
 179:/Library/DaisyToolchain/0.2.0/arm/arm-none-eabi/include/c++/10.3.1/bits/std_function.h ****       public:
 180:/Library/DaisyToolchain/0.2.0/arm/arm-none-eabi/include/c++/10.3.1/bits/std_function.h **** 	static bool
 181:/Library/DaisyToolchain/0.2.0/arm/arm-none-eabi/include/c++/10.3.1/bits/std_function.h **** 	_M_manager(_Any_data& __dest, const _Any_data& __source,
 182:/Library/DaisyToolchain/0.2.0/arm/arm-none-eabi/include/c++/10.3.1/bits/std_function.h **** 		   _Manager_operation __op)
 183:/Library/DaisyToolchain/0.2.0/arm/arm-none-eabi/include/c++/10.3.1/bits/std_function.h **** 	{
 184:/Library/DaisyToolchain/0.2.0/arm/arm-none-eabi/include/c++/10.3.1/bits/std_function.h **** 	  switch (__op)
 185:/Library/DaisyToolchain/0.2.0/arm/arm-none-eabi/include/c++/10.3.1/bits/std_function.h **** 	    {
 186:/Library/DaisyToolchain/0.2.0/arm/arm-none-eabi/include/c++/10.3.1/bits/std_function.h **** #if __cpp_rtti
 187:/Library/DaisyToolchain/0.2.0/arm/arm-none-eabi/include/c++/10.3.1/bits/std_function.h **** 	    case __get_type_info:
 188:/Library/DaisyToolchain/0.2.0/arm/arm-none-eabi/include/c++/10.3.1/bits/std_function.h **** 	      __dest._M_access<const type_info*>() = &typeid(_Functor);
 189:/Library/DaisyToolchain/0.2.0/arm/arm-none-eabi/include/c++/10.3.1/bits/std_function.h **** 	      break;
 190:/Library/DaisyToolchain/0.2.0/arm/arm-none-eabi/include/c++/10.3.1/bits/std_function.h **** #endif
 191:/Library/DaisyToolchain/0.2.0/arm/arm-none-eabi/include/c++/10.3.1/bits/std_function.h **** 	    case __get_functor_ptr:
 192:/Library/DaisyToolchain/0.2.0/arm/arm-none-eabi/include/c++/10.3.1/bits/std_function.h **** 	      __dest._M_access<_Functor*>() = _M_get_pointer(__source);
 193:/Library/DaisyToolchain/0.2.0/arm/arm-none-eabi/include/c++/10.3.1/bits/std_function.h **** 	      break;
 194:/Library/DaisyToolchain/0.2.0/arm/arm-none-eabi/include/c++/10.3.1/bits/std_function.h **** 
 195:/Library/DaisyToolchain/0.2.0/arm/arm-none-eabi/include/c++/10.3.1/bits/std_function.h **** 	    case __clone_functor:
 196:/Library/DaisyToolchain/0.2.0/arm/arm-none-eabi/include/c++/10.3.1/bits/std_function.h **** 	      _M_clone(__dest, __source, _Local_storage());
 197:/Library/DaisyToolchain/0.2.0/arm/arm-none-eabi/include/c++/10.3.1/bits/std_function.h **** 	      break;
 198:/Library/DaisyToolchain/0.2.0/arm/arm-none-eabi/include/c++/10.3.1/bits/std_function.h **** 
 199:/Library/DaisyToolchain/0.2.0/arm/arm-none-eabi/include/c++/10.3.1/bits/std_function.h **** 	    case __destroy_functor:
 200:/Library/DaisyToolchain/0.2.0/arm/arm-none-eabi/include/c++/10.3.1/bits/std_function.h **** 	      _M_destroy(__dest, _Local_storage());
 201:/Library/DaisyToolchain/0.2.0/arm/arm-none-eabi/include/c++/10.3.1/bits/std_function.h **** 	      break;
 202:/Library/DaisyToolchain/0.2.0/arm/arm-none-eabi/include/c++/10.3.1/bits/std_function.h **** 	    }
 203:/Library/DaisyToolchain/0.2.0/arm/arm-none-eabi/include/c++/10.3.1/bits/std_function.h **** 	  return false;
 204:/Library/DaisyToolchain/0.2.0/arm/arm-none-eabi/include/c++/10.3.1/bits/std_function.h **** 	}
 205:/Library/DaisyToolchain/0.2.0/arm/arm-none-eabi/include/c++/10.3.1/bits/std_function.h **** 
 206:/Library/DaisyToolchain/0.2.0/arm/arm-none-eabi/include/c++/10.3.1/bits/std_function.h **** 	static void
 207:/Library/DaisyToolchain/0.2.0/arm/arm-none-eabi/include/c++/10.3.1/bits/std_function.h **** 	_M_init_functor(_Any_data& __functor, _Functor&& __f)
 208:/Library/DaisyToolchain/0.2.0/arm/arm-none-eabi/include/c++/10.3.1/bits/std_function.h **** 	{ _M_init_functor(__functor, std::move(__f), _Local_storage()); }
 209:/Library/DaisyToolchain/0.2.0/arm/arm-none-eabi/include/c++/10.3.1/bits/std_function.h **** 
 210:/Library/DaisyToolchain/0.2.0/arm/arm-none-eabi/include/c++/10.3.1/bits/std_function.h **** 	template<typename _Signature>
 211:/Library/DaisyToolchain/0.2.0/arm/arm-none-eabi/include/c++/10.3.1/bits/std_function.h **** 	  static bool
 212:/Library/DaisyToolchain/0.2.0/arm/arm-none-eabi/include/c++/10.3.1/bits/std_function.h **** 	  _M_not_empty_function(const function<_Signature>& __f)
 213:/Library/DaisyToolchain/0.2.0/arm/arm-none-eabi/include/c++/10.3.1/bits/std_function.h **** 	  { return static_cast<bool>(__f); }
 214:/Library/DaisyToolchain/0.2.0/arm/arm-none-eabi/include/c++/10.3.1/bits/std_function.h **** 
ARM GAS  /var/folders/9s/8rp0_f2s1n31qbztm3b5_fdh0000gn/T//ccXta1BT.s 			page 19


 215:/Library/DaisyToolchain/0.2.0/arm/arm-none-eabi/include/c++/10.3.1/bits/std_function.h **** 	template<typename _Tp>
 216:/Library/DaisyToolchain/0.2.0/arm/arm-none-eabi/include/c++/10.3.1/bits/std_function.h **** 	  static bool
 217:/Library/DaisyToolchain/0.2.0/arm/arm-none-eabi/include/c++/10.3.1/bits/std_function.h **** 	  _M_not_empty_function(_Tp* __fp)
 218:/Library/DaisyToolchain/0.2.0/arm/arm-none-eabi/include/c++/10.3.1/bits/std_function.h **** 	  { return __fp != nullptr; }
 219:/Library/DaisyToolchain/0.2.0/arm/arm-none-eabi/include/c++/10.3.1/bits/std_function.h **** 
 220:/Library/DaisyToolchain/0.2.0/arm/arm-none-eabi/include/c++/10.3.1/bits/std_function.h **** 	template<typename _Class, typename _Tp>
 221:/Library/DaisyToolchain/0.2.0/arm/arm-none-eabi/include/c++/10.3.1/bits/std_function.h **** 	  static bool
 222:/Library/DaisyToolchain/0.2.0/arm/arm-none-eabi/include/c++/10.3.1/bits/std_function.h **** 	  _M_not_empty_function(_Tp _Class::* __mp)
 223:/Library/DaisyToolchain/0.2.0/arm/arm-none-eabi/include/c++/10.3.1/bits/std_function.h **** 	  { return __mp != nullptr; }
 224:/Library/DaisyToolchain/0.2.0/arm/arm-none-eabi/include/c++/10.3.1/bits/std_function.h **** 
 225:/Library/DaisyToolchain/0.2.0/arm/arm-none-eabi/include/c++/10.3.1/bits/std_function.h **** 	template<typename _Tp>
 226:/Library/DaisyToolchain/0.2.0/arm/arm-none-eabi/include/c++/10.3.1/bits/std_function.h **** 	  static bool
 227:/Library/DaisyToolchain/0.2.0/arm/arm-none-eabi/include/c++/10.3.1/bits/std_function.h **** 	  _M_not_empty_function(const _Tp&)
 228:/Library/DaisyToolchain/0.2.0/arm/arm-none-eabi/include/c++/10.3.1/bits/std_function.h **** 	  { return true; }
 229:/Library/DaisyToolchain/0.2.0/arm/arm-none-eabi/include/c++/10.3.1/bits/std_function.h **** 
 230:/Library/DaisyToolchain/0.2.0/arm/arm-none-eabi/include/c++/10.3.1/bits/std_function.h ****       private:
 231:/Library/DaisyToolchain/0.2.0/arm/arm-none-eabi/include/c++/10.3.1/bits/std_function.h **** 	static void
 232:/Library/DaisyToolchain/0.2.0/arm/arm-none-eabi/include/c++/10.3.1/bits/std_function.h **** 	_M_init_functor(_Any_data& __functor, _Functor&& __f, true_type)
 233:/Library/DaisyToolchain/0.2.0/arm/arm-none-eabi/include/c++/10.3.1/bits/std_function.h **** 	{ ::new (__functor._M_access()) _Functor(std::move(__f)); }
 234:/Library/DaisyToolchain/0.2.0/arm/arm-none-eabi/include/c++/10.3.1/bits/std_function.h **** 
 235:/Library/DaisyToolchain/0.2.0/arm/arm-none-eabi/include/c++/10.3.1/bits/std_function.h **** 	static void
 236:/Library/DaisyToolchain/0.2.0/arm/arm-none-eabi/include/c++/10.3.1/bits/std_function.h **** 	_M_init_functor(_Any_data& __functor, _Functor&& __f, false_type)
 237:/Library/DaisyToolchain/0.2.0/arm/arm-none-eabi/include/c++/10.3.1/bits/std_function.h **** 	{ __functor._M_access<_Functor*>() = new _Functor(std::move(__f)); }
 238:/Library/DaisyToolchain/0.2.0/arm/arm-none-eabi/include/c++/10.3.1/bits/std_function.h ****       };
 239:/Library/DaisyToolchain/0.2.0/arm/arm-none-eabi/include/c++/10.3.1/bits/std_function.h **** 
 240:/Library/DaisyToolchain/0.2.0/arm/arm-none-eabi/include/c++/10.3.1/bits/std_function.h ****     _Function_base() : _M_manager(nullptr) { }
 241:/Library/DaisyToolchain/0.2.0/arm/arm-none-eabi/include/c++/10.3.1/bits/std_function.h **** 
 242:/Library/DaisyToolchain/0.2.0/arm/arm-none-eabi/include/c++/10.3.1/bits/std_function.h ****     ~_Function_base()
 243:/Library/DaisyToolchain/0.2.0/arm/arm-none-eabi/include/c++/10.3.1/bits/std_function.h ****     {
 244:/Library/DaisyToolchain/0.2.0/arm/arm-none-eabi/include/c++/10.3.1/bits/std_function.h ****       if (_M_manager)
 245:/Library/DaisyToolchain/0.2.0/arm/arm-none-eabi/include/c++/10.3.1/bits/std_function.h **** 	_M_manager(_M_functor, _M_functor, __destroy_functor);
 246:/Library/DaisyToolchain/0.2.0/arm/arm-none-eabi/include/c++/10.3.1/bits/std_function.h ****     }
 247:/Library/DaisyToolchain/0.2.0/arm/arm-none-eabi/include/c++/10.3.1/bits/std_function.h **** 
 248:/Library/DaisyToolchain/0.2.0/arm/arm-none-eabi/include/c++/10.3.1/bits/std_function.h ****     bool _M_empty() const { return !_M_manager; }
 249:/Library/DaisyToolchain/0.2.0/arm/arm-none-eabi/include/c++/10.3.1/bits/std_function.h **** 
 250:/Library/DaisyToolchain/0.2.0/arm/arm-none-eabi/include/c++/10.3.1/bits/std_function.h ****     typedef bool (*_Manager_type)(_Any_data&, const _Any_data&,
 251:/Library/DaisyToolchain/0.2.0/arm/arm-none-eabi/include/c++/10.3.1/bits/std_function.h **** 				  _Manager_operation);
 252:/Library/DaisyToolchain/0.2.0/arm/arm-none-eabi/include/c++/10.3.1/bits/std_function.h **** 
 253:/Library/DaisyToolchain/0.2.0/arm/arm-none-eabi/include/c++/10.3.1/bits/std_function.h ****     _Any_data     _M_functor;
 254:/Library/DaisyToolchain/0.2.0/arm/arm-none-eabi/include/c++/10.3.1/bits/std_function.h ****     _Manager_type _M_manager;
 255:/Library/DaisyToolchain/0.2.0/arm/arm-none-eabi/include/c++/10.3.1/bits/std_function.h ****   };
 256:/Library/DaisyToolchain/0.2.0/arm/arm-none-eabi/include/c++/10.3.1/bits/std_function.h **** 
 257:/Library/DaisyToolchain/0.2.0/arm/arm-none-eabi/include/c++/10.3.1/bits/std_function.h ****   template<typename _Signature, typename _Functor>
 258:/Library/DaisyToolchain/0.2.0/arm/arm-none-eabi/include/c++/10.3.1/bits/std_function.h ****     class _Function_handler;
 259:/Library/DaisyToolchain/0.2.0/arm/arm-none-eabi/include/c++/10.3.1/bits/std_function.h **** 
 260:/Library/DaisyToolchain/0.2.0/arm/arm-none-eabi/include/c++/10.3.1/bits/std_function.h ****   template<typename _Res, typename _Functor, typename... _ArgTypes>
 261:/Library/DaisyToolchain/0.2.0/arm/arm-none-eabi/include/c++/10.3.1/bits/std_function.h ****     class _Function_handler<_Res(_ArgTypes...), _Functor>
 262:/Library/DaisyToolchain/0.2.0/arm/arm-none-eabi/include/c++/10.3.1/bits/std_function.h ****     : public _Function_base::_Base_manager<_Functor>
 263:/Library/DaisyToolchain/0.2.0/arm/arm-none-eabi/include/c++/10.3.1/bits/std_function.h ****     {
 264:/Library/DaisyToolchain/0.2.0/arm/arm-none-eabi/include/c++/10.3.1/bits/std_function.h ****       typedef _Function_base::_Base_manager<_Functor> _Base;
 265:/Library/DaisyToolchain/0.2.0/arm/arm-none-eabi/include/c++/10.3.1/bits/std_function.h **** 
 266:/Library/DaisyToolchain/0.2.0/arm/arm-none-eabi/include/c++/10.3.1/bits/std_function.h ****     public:
 267:/Library/DaisyToolchain/0.2.0/arm/arm-none-eabi/include/c++/10.3.1/bits/std_function.h ****       static bool
 268:/Library/DaisyToolchain/0.2.0/arm/arm-none-eabi/include/c++/10.3.1/bits/std_function.h ****       _M_manager(_Any_data& __dest, const _Any_data& __source,
 184              		.loc 13 268 7 is_stmt 1 view -0
 185              		.cfi_startproc
 186              		@ args = 0, pretend = 0, frame = 0
ARM GAS  /var/folders/9s/8rp0_f2s1n31qbztm3b5_fdh0000gn/T//ccXta1BT.s 			page 20


 187              		@ frame_needed = 0, uses_anonymous_args = 0
 188              		@ link register save eliminated.
 269:/Library/DaisyToolchain/0.2.0/arm/arm-none-eabi/include/c++/10.3.1/bits/std_function.h **** 		 _Manager_operation __op)
 270:/Library/DaisyToolchain/0.2.0/arm/arm-none-eabi/include/c++/10.3.1/bits/std_function.h ****       {
 271:/Library/DaisyToolchain/0.2.0/arm/arm-none-eabi/include/c++/10.3.1/bits/std_function.h **** 	switch (__op)
 189              		.loc 13 271 2 is_stmt 0 view .LVU24
 190 0000 1AB1     		cbz	r2, .L7
 191 0002 012A     		cmp	r2, #1
 192 0004 04D0     		beq	.L8
 193              	.L9:
 272:/Library/DaisyToolchain/0.2.0/arm/arm-none-eabi/include/c++/10.3.1/bits/std_function.h **** 	  {
 273:/Library/DaisyToolchain/0.2.0/arm/arm-none-eabi/include/c++/10.3.1/bits/std_function.h **** #if __cpp_rtti
 274:/Library/DaisyToolchain/0.2.0/arm/arm-none-eabi/include/c++/10.3.1/bits/std_function.h **** 	  case __get_type_info:
 275:/Library/DaisyToolchain/0.2.0/arm/arm-none-eabi/include/c++/10.3.1/bits/std_function.h **** 	    __dest._M_access<const type_info*>() = &typeid(_Functor);
 276:/Library/DaisyToolchain/0.2.0/arm/arm-none-eabi/include/c++/10.3.1/bits/std_function.h **** 	    break;
 277:/Library/DaisyToolchain/0.2.0/arm/arm-none-eabi/include/c++/10.3.1/bits/std_function.h **** #endif
 278:/Library/DaisyToolchain/0.2.0/arm/arm-none-eabi/include/c++/10.3.1/bits/std_function.h **** 	  case __get_functor_ptr:
 279:/Library/DaisyToolchain/0.2.0/arm/arm-none-eabi/include/c++/10.3.1/bits/std_function.h **** 	    __dest._M_access<_Functor*>() = _Base::_M_get_pointer(__source);
 280:/Library/DaisyToolchain/0.2.0/arm/arm-none-eabi/include/c++/10.3.1/bits/std_function.h **** 	    break;
 281:/Library/DaisyToolchain/0.2.0/arm/arm-none-eabi/include/c++/10.3.1/bits/std_function.h **** 
 282:/Library/DaisyToolchain/0.2.0/arm/arm-none-eabi/include/c++/10.3.1/bits/std_function.h **** 	  default:
 283:/Library/DaisyToolchain/0.2.0/arm/arm-none-eabi/include/c++/10.3.1/bits/std_function.h **** 	    _Base::_M_manager(__dest, __source, __op);
 284:/Library/DaisyToolchain/0.2.0/arm/arm-none-eabi/include/c++/10.3.1/bits/std_function.h **** 	  }
 285:/Library/DaisyToolchain/0.2.0/arm/arm-none-eabi/include/c++/10.3.1/bits/std_function.h **** 	return false;
 286:/Library/DaisyToolchain/0.2.0/arm/arm-none-eabi/include/c++/10.3.1/bits/std_function.h ****       }
 194              		.loc 13 286 7 view .LVU25
 195 0006 0020     		movs	r0, #0
 196              	.LVL6:
 197              		.loc 13 286 7 view .LVU26
 198 0008 7047     		bx	lr
 199              	.LVL7:
 200              	.L7:
  87:/Library/DaisyToolchain/0.2.0/arm/arm-none-eabi/include/c++/10.3.1/bits/std_function.h ****     const void* _M_access() const { return &_M_pod_data[0]; }
 201              		.loc 13 87 37 is_stmt 1 view .LVU27
 275:/Library/DaisyToolchain/0.2.0/arm/arm-none-eabi/include/c++/10.3.1/bits/std_function.h **** 	    break;
 202              		.loc 13 275 43 is_stmt 0 view .LVU28
 203 000a 024B     		ldr	r3, .L10
 204 000c 0360     		str	r3, [r0]
 276:/Library/DaisyToolchain/0.2.0/arm/arm-none-eabi/include/c++/10.3.1/bits/std_function.h **** #endif
 205              		.loc 13 276 6 view .LVU29
 206 000e FAE7     		b	.L9
 207              	.L8:
 208              	.LVL8:
  87:/Library/DaisyToolchain/0.2.0/arm/arm-none-eabi/include/c++/10.3.1/bits/std_function.h ****     const void* _M_access() const { return &_M_pod_data[0]; }
 209              		.loc 13 87 37 is_stmt 1 view .LVU30
 210              	.LBB377:
 211              	.LBI377:
 136:/Library/DaisyToolchain/0.2.0/arm/arm-none-eabi/include/c++/10.3.1/bits/std_function.h **** 	{
 212              		.loc 13 136 2 view .LVU31
 213              	.LBB378:
 214              	.LBB379:
 215              	.LBI379:
  97:/Library/DaisyToolchain/0.2.0/arm/arm-none-eabi/include/c++/10.3.1/bits/std_function.h ****       { return *static_cast<const _Tp*>(_M_access()); }
 216              		.loc 13 97 7 view .LVU32
 217              	.LBB380:
 218              	.LBI380:
  88:/Library/DaisyToolchain/0.2.0/arm/arm-none-eabi/include/c++/10.3.1/bits/std_function.h **** 
ARM GAS  /var/folders/9s/8rp0_f2s1n31qbztm3b5_fdh0000gn/T//ccXta1BT.s 			page 21


 219              		.loc 13 88 17 view .LVU33
 220              	.LBB381:
  88:/Library/DaisyToolchain/0.2.0/arm/arm-none-eabi/include/c++/10.3.1/bits/std_function.h **** 
 221              		.loc 13 88 37 view .LVU34
  88:/Library/DaisyToolchain/0.2.0/arm/arm-none-eabi/include/c++/10.3.1/bits/std_function.h **** 
 222              		.loc 13 88 37 is_stmt 0 view .LVU35
 223              	.LBE381:
 224              	.LBE380:
 225              	.LBE379:
 226              	.LBE378:
 227              	.LBE377:
 279:/Library/DaisyToolchain/0.2.0/arm/arm-none-eabi/include/c++/10.3.1/bits/std_function.h **** 	    break;
 228              		.loc 13 279 36 view .LVU36
 229 0010 0160     		str	r1, [r0]
 280:/Library/DaisyToolchain/0.2.0/arm/arm-none-eabi/include/c++/10.3.1/bits/std_function.h **** 
 230              		.loc 13 280 6 view .LVU37
 231 0012 F8E7     		b	.L9
 232              	.L11:
 233              		.align	2
 234              	.L10:
 235 0014 00000000 		.word	.LANCHOR0
 236              		.cfi_endproc
 237              	.LFE5963:
 239              		.section	.text._ZNSt17_Function_handlerIFviEZ15InitializeSynthvEUliE_E9_M_invokeERKSt9_Any_dataOi,
 240              		.align	1
 241              		.syntax unified
 242              		.thumb
 243              		.thumb_func
 245              	_ZNSt17_Function_handlerIFviEZ15InitializeSynthvEUliE_E9_M_invokeERKSt9_Any_dataOi:
 246              	.LVL9:
 247              	.LFB5961:
 287:/Library/DaisyToolchain/0.2.0/arm/arm-none-eabi/include/c++/10.3.1/bits/std_function.h **** 
 288:/Library/DaisyToolchain/0.2.0/arm/arm-none-eabi/include/c++/10.3.1/bits/std_function.h ****       static _Res
 289:/Library/DaisyToolchain/0.2.0/arm/arm-none-eabi/include/c++/10.3.1/bits/std_function.h ****       _M_invoke(const _Any_data& __functor, _ArgTypes&&... __args)
 248              		.loc 13 289 7 is_stmt 1 view -0
 249              		.cfi_startproc
 250              		@ args = 0, pretend = 0, frame = 0
 251              		@ frame_needed = 0, uses_anonymous_args = 0
 252              		@ link register save eliminated.
  88:/Library/DaisyToolchain/0.2.0/arm/arm-none-eabi/include/c++/10.3.1/bits/std_function.h **** 
 253              		.loc 13 88 37 view .LVU39
 254              	.LBB402:
 255              	.LBB403:
 256              	.LBB404:
 257              	.LBB405:
 258              	.LBB406:
 259              	.LBB407:
 260              	.LBB408:
 261              		.file 14 "VoiceEnvelope.h"
   1:VoiceEnvelope.h **** #pragma once
   2:VoiceEnvelope.h **** #include <algorithm>
   3:VoiceEnvelope.h **** 
   4:VoiceEnvelope.h **** // Simple envelope for each polyphonic voice
   5:VoiceEnvelope.h **** class VoiceEnvelope {
   6:VoiceEnvelope.h **** public:
   7:VoiceEnvelope.h ****     enum EnvState {
   8:VoiceEnvelope.h ****         ENV_IDLE,
ARM GAS  /var/folders/9s/8rp0_f2s1n31qbztm3b5_fdh0000gn/T//ccXta1BT.s 			page 22


   9:VoiceEnvelope.h ****         ENV_ATTACK,
  10:VoiceEnvelope.h ****         ENV_SUSTAIN,
  11:VoiceEnvelope.h ****         ENV_DECAY,
  12:VoiceEnvelope.h ****         ENV_RESET
  13:VoiceEnvelope.h ****     };
  14:VoiceEnvelope.h **** 
  15:VoiceEnvelope.h ****     enum EnvMode {
  16:VoiceEnvelope.h ****         MODE_AR,   // Attack-Release
  17:VoiceEnvelope.h ****         MODE_ASR   // Attack-Sustain-Release
  18:VoiceEnvelope.h ****     };
  19:VoiceEnvelope.h **** 
  20:VoiceEnvelope.h ****     VoiceEnvelope() :
  21:VoiceEnvelope.h ****         current_state(ENV_IDLE),
  22:VoiceEnvelope.h ****         current_value(0.0f),
  23:VoiceEnvelope.h ****         mode(MODE_ASR),
  24:VoiceEnvelope.h ****         attack_curve_coefficient(0.5f),
  25:VoiceEnvelope.h ****         release_curve_coefficient(0.5f),
  26:VoiceEnvelope.h ****         phase(0),
  27:VoiceEnvelope.h ****         decay_start_level(0.0f)
  28:VoiceEnvelope.h ****     {}
  29:VoiceEnvelope.h **** 
  30:VoiceEnvelope.h ****     void Init(float sample_rate) {
  31:VoiceEnvelope.h ****         time_range_2x = 2.0f * 4.0f * sample_rate;  // 4s max time
  32:VoiceEnvelope.h ****         min_attack_time = 0.0002f * sample_rate;    // 0.2ms min attack (much faster for punchiness
  33:VoiceEnvelope.h ****         min_decay_time_a = 0.4f * sample_rate;      // 400ms min decay A
  34:VoiceEnvelope.h ****         min_decay_time_b = 0.01f * sample_rate;     // 10ms min decay B
  35:VoiceEnvelope.h ****         reset_time = 0.008f * sample_rate;          // 8ms reset time
  36:VoiceEnvelope.h ****         reset_coefficient = 1.0f / reset_time;
  37:VoiceEnvelope.h ****         
  38:VoiceEnvelope.h ****         // Default curves
  39:VoiceEnvelope.h ****         SetAttackCurve(0.5f);
  40:VoiceEnvelope.h ****         SetReleaseCurve(0.5f);
  41:VoiceEnvelope.h ****     }
  42:VoiceEnvelope.h **** 
  43:VoiceEnvelope.h ****     void SetMode(EnvMode new_mode) {
  44:VoiceEnvelope.h ****         mode = new_mode;
 262              		.loc 14 44 14 is_stmt 0 view .LVU40
 263 0000 1E4B     		ldr	r3, .L17
 264 0002 0022     		movs	r2, #0
 265 0004 0968     		ldr	r1, [r1]
 266              	.LVL10:
 267              		.loc 14 44 14 view .LVU41
 268              	.LBE408:
 269              	.LBE407:
 270              	.LBE406:
 271              	.LBE405:
 272              	.LBE404:
 273              	.LBE403:
 274              	.LBI402:
 275              		.file 15 "/Library/DaisyToolchain/0.2.0/arm/arm-none-eabi/include/c++/10.3.1/bits/invoke.h"
   1:/Library/DaisyToolchain/0.2.0/arm/arm-none-eabi/include/c++/10.3.1/bits/invoke.h **** // Implementation of INVOKE -*- C++ -*-
   2:/Library/DaisyToolchain/0.2.0/arm/arm-none-eabi/include/c++/10.3.1/bits/invoke.h **** 
   3:/Library/DaisyToolchain/0.2.0/arm/arm-none-eabi/include/c++/10.3.1/bits/invoke.h **** // Copyright (C) 2016-2020 Free Software Foundation, Inc.
   4:/Library/DaisyToolchain/0.2.0/arm/arm-none-eabi/include/c++/10.3.1/bits/invoke.h **** //
   5:/Library/DaisyToolchain/0.2.0/arm/arm-none-eabi/include/c++/10.3.1/bits/invoke.h **** // This file is part of the GNU ISO C++ Library.  This library is free
   6:/Library/DaisyToolchain/0.2.0/arm/arm-none-eabi/include/c++/10.3.1/bits/invoke.h **** // software; you can redistribute it and/or modify it under the
   7:/Library/DaisyToolchain/0.2.0/arm/arm-none-eabi/include/c++/10.3.1/bits/invoke.h **** // terms of the GNU General Public License as published by the
ARM GAS  /var/folders/9s/8rp0_f2s1n31qbztm3b5_fdh0000gn/T//ccXta1BT.s 			page 23


   8:/Library/DaisyToolchain/0.2.0/arm/arm-none-eabi/include/c++/10.3.1/bits/invoke.h **** // Free Software Foundation; either version 3, or (at your option)
   9:/Library/DaisyToolchain/0.2.0/arm/arm-none-eabi/include/c++/10.3.1/bits/invoke.h **** // any later version.
  10:/Library/DaisyToolchain/0.2.0/arm/arm-none-eabi/include/c++/10.3.1/bits/invoke.h **** 
  11:/Library/DaisyToolchain/0.2.0/arm/arm-none-eabi/include/c++/10.3.1/bits/invoke.h **** // This library is distributed in the hope that it will be useful,
  12:/Library/DaisyToolchain/0.2.0/arm/arm-none-eabi/include/c++/10.3.1/bits/invoke.h **** // but WITHOUT ANY WARRANTY; without even the implied warranty of
  13:/Library/DaisyToolchain/0.2.0/arm/arm-none-eabi/include/c++/10.3.1/bits/invoke.h **** // MERCHANTABILITY or FITNESS FOR A PARTICULAR PURPOSE.  See the
  14:/Library/DaisyToolchain/0.2.0/arm/arm-none-eabi/include/c++/10.3.1/bits/invoke.h **** // GNU General Public License for more details.
  15:/Library/DaisyToolchain/0.2.0/arm/arm-none-eabi/include/c++/10.3.1/bits/invoke.h **** 
  16:/Library/DaisyToolchain/0.2.0/arm/arm-none-eabi/include/c++/10.3.1/bits/invoke.h **** // Under Section 7 of GPL version 3, you are granted additional
  17:/Library/DaisyToolchain/0.2.0/arm/arm-none-eabi/include/c++/10.3.1/bits/invoke.h **** // permissions described in the GCC Runtime Library Exception, version
  18:/Library/DaisyToolchain/0.2.0/arm/arm-none-eabi/include/c++/10.3.1/bits/invoke.h **** // 3.1, as published by the Free Software Foundation.
  19:/Library/DaisyToolchain/0.2.0/arm/arm-none-eabi/include/c++/10.3.1/bits/invoke.h **** 
  20:/Library/DaisyToolchain/0.2.0/arm/arm-none-eabi/include/c++/10.3.1/bits/invoke.h **** // You should have received a copy of the GNU General Public License and
  21:/Library/DaisyToolchain/0.2.0/arm/arm-none-eabi/include/c++/10.3.1/bits/invoke.h **** // a copy of the GCC Runtime Library Exception along with this program;
  22:/Library/DaisyToolchain/0.2.0/arm/arm-none-eabi/include/c++/10.3.1/bits/invoke.h **** // see the files COPYING3 and COPYING.RUNTIME respectively.  If not, see
  23:/Library/DaisyToolchain/0.2.0/arm/arm-none-eabi/include/c++/10.3.1/bits/invoke.h **** // <http://www.gnu.org/licenses/>.
  24:/Library/DaisyToolchain/0.2.0/arm/arm-none-eabi/include/c++/10.3.1/bits/invoke.h **** 
  25:/Library/DaisyToolchain/0.2.0/arm/arm-none-eabi/include/c++/10.3.1/bits/invoke.h **** /** @file include/bits/invoke.h
  26:/Library/DaisyToolchain/0.2.0/arm/arm-none-eabi/include/c++/10.3.1/bits/invoke.h ****  *  This is an internal header file, included by other library headers.
  27:/Library/DaisyToolchain/0.2.0/arm/arm-none-eabi/include/c++/10.3.1/bits/invoke.h ****  *  Do not attempt to use it directly. @headername{functional}
  28:/Library/DaisyToolchain/0.2.0/arm/arm-none-eabi/include/c++/10.3.1/bits/invoke.h ****  */
  29:/Library/DaisyToolchain/0.2.0/arm/arm-none-eabi/include/c++/10.3.1/bits/invoke.h **** 
  30:/Library/DaisyToolchain/0.2.0/arm/arm-none-eabi/include/c++/10.3.1/bits/invoke.h **** #ifndef _GLIBCXX_INVOKE_H
  31:/Library/DaisyToolchain/0.2.0/arm/arm-none-eabi/include/c++/10.3.1/bits/invoke.h **** #define _GLIBCXX_INVOKE_H 1
  32:/Library/DaisyToolchain/0.2.0/arm/arm-none-eabi/include/c++/10.3.1/bits/invoke.h **** 
  33:/Library/DaisyToolchain/0.2.0/arm/arm-none-eabi/include/c++/10.3.1/bits/invoke.h **** #pragma GCC system_header
  34:/Library/DaisyToolchain/0.2.0/arm/arm-none-eabi/include/c++/10.3.1/bits/invoke.h **** 
  35:/Library/DaisyToolchain/0.2.0/arm/arm-none-eabi/include/c++/10.3.1/bits/invoke.h **** #if __cplusplus < 201103L
  36:/Library/DaisyToolchain/0.2.0/arm/arm-none-eabi/include/c++/10.3.1/bits/invoke.h **** # include <bits/c++0x_warning.h>
  37:/Library/DaisyToolchain/0.2.0/arm/arm-none-eabi/include/c++/10.3.1/bits/invoke.h **** #else
  38:/Library/DaisyToolchain/0.2.0/arm/arm-none-eabi/include/c++/10.3.1/bits/invoke.h **** 
  39:/Library/DaisyToolchain/0.2.0/arm/arm-none-eabi/include/c++/10.3.1/bits/invoke.h **** #include <type_traits>
  40:/Library/DaisyToolchain/0.2.0/arm/arm-none-eabi/include/c++/10.3.1/bits/invoke.h **** 
  41:/Library/DaisyToolchain/0.2.0/arm/arm-none-eabi/include/c++/10.3.1/bits/invoke.h **** namespace std _GLIBCXX_VISIBILITY(default)
  42:/Library/DaisyToolchain/0.2.0/arm/arm-none-eabi/include/c++/10.3.1/bits/invoke.h **** {
  43:/Library/DaisyToolchain/0.2.0/arm/arm-none-eabi/include/c++/10.3.1/bits/invoke.h **** _GLIBCXX_BEGIN_NAMESPACE_VERSION
  44:/Library/DaisyToolchain/0.2.0/arm/arm-none-eabi/include/c++/10.3.1/bits/invoke.h **** 
  45:/Library/DaisyToolchain/0.2.0/arm/arm-none-eabi/include/c++/10.3.1/bits/invoke.h ****   /**
  46:/Library/DaisyToolchain/0.2.0/arm/arm-none-eabi/include/c++/10.3.1/bits/invoke.h ****    *  @addtogroup utilities
  47:/Library/DaisyToolchain/0.2.0/arm/arm-none-eabi/include/c++/10.3.1/bits/invoke.h ****    *  @{
  48:/Library/DaisyToolchain/0.2.0/arm/arm-none-eabi/include/c++/10.3.1/bits/invoke.h ****    */
  49:/Library/DaisyToolchain/0.2.0/arm/arm-none-eabi/include/c++/10.3.1/bits/invoke.h **** 
  50:/Library/DaisyToolchain/0.2.0/arm/arm-none-eabi/include/c++/10.3.1/bits/invoke.h ****   // Used by __invoke_impl instead of std::forward<_Tp> so that a
  51:/Library/DaisyToolchain/0.2.0/arm/arm-none-eabi/include/c++/10.3.1/bits/invoke.h ****   // reference_wrapper is converted to an lvalue-reference.
  52:/Library/DaisyToolchain/0.2.0/arm/arm-none-eabi/include/c++/10.3.1/bits/invoke.h ****   template<typename _Tp, typename _Up = typename __inv_unwrap<_Tp>::type>
  53:/Library/DaisyToolchain/0.2.0/arm/arm-none-eabi/include/c++/10.3.1/bits/invoke.h ****     constexpr _Up&&
  54:/Library/DaisyToolchain/0.2.0/arm/arm-none-eabi/include/c++/10.3.1/bits/invoke.h ****     __invfwd(typename remove_reference<_Tp>::type& __t) noexcept
  55:/Library/DaisyToolchain/0.2.0/arm/arm-none-eabi/include/c++/10.3.1/bits/invoke.h ****     { return static_cast<_Up&&>(__t); }
  56:/Library/DaisyToolchain/0.2.0/arm/arm-none-eabi/include/c++/10.3.1/bits/invoke.h **** 
  57:/Library/DaisyToolchain/0.2.0/arm/arm-none-eabi/include/c++/10.3.1/bits/invoke.h ****   template<typename _Res, typename _Fn, typename... _Args>
  58:/Library/DaisyToolchain/0.2.0/arm/arm-none-eabi/include/c++/10.3.1/bits/invoke.h ****     constexpr _Res
  59:/Library/DaisyToolchain/0.2.0/arm/arm-none-eabi/include/c++/10.3.1/bits/invoke.h ****     __invoke_impl(__invoke_other, _Fn&& __f, _Args&&... __args)
  60:/Library/DaisyToolchain/0.2.0/arm/arm-none-eabi/include/c++/10.3.1/bits/invoke.h ****     { return std::forward<_Fn>(__f)(std::forward<_Args>(__args)...); }
  61:/Library/DaisyToolchain/0.2.0/arm/arm-none-eabi/include/c++/10.3.1/bits/invoke.h **** 
  62:/Library/DaisyToolchain/0.2.0/arm/arm-none-eabi/include/c++/10.3.1/bits/invoke.h ****   template<typename _Res, typename _MemFun, typename _Tp, typename... _Args>
  63:/Library/DaisyToolchain/0.2.0/arm/arm-none-eabi/include/c++/10.3.1/bits/invoke.h ****     constexpr _Res
  64:/Library/DaisyToolchain/0.2.0/arm/arm-none-eabi/include/c++/10.3.1/bits/invoke.h ****     __invoke_impl(__invoke_memfun_ref, _MemFun&& __f, _Tp&& __t,
ARM GAS  /var/folders/9s/8rp0_f2s1n31qbztm3b5_fdh0000gn/T//ccXta1BT.s 			page 24


  65:/Library/DaisyToolchain/0.2.0/arm/arm-none-eabi/include/c++/10.3.1/bits/invoke.h **** 		  _Args&&... __args)
  66:/Library/DaisyToolchain/0.2.0/arm/arm-none-eabi/include/c++/10.3.1/bits/invoke.h ****     { return (__invfwd<_Tp>(__t).*__f)(std::forward<_Args>(__args)...); }
  67:/Library/DaisyToolchain/0.2.0/arm/arm-none-eabi/include/c++/10.3.1/bits/invoke.h **** 
  68:/Library/DaisyToolchain/0.2.0/arm/arm-none-eabi/include/c++/10.3.1/bits/invoke.h ****   template<typename _Res, typename _MemFun, typename _Tp, typename... _Args>
  69:/Library/DaisyToolchain/0.2.0/arm/arm-none-eabi/include/c++/10.3.1/bits/invoke.h ****     constexpr _Res
  70:/Library/DaisyToolchain/0.2.0/arm/arm-none-eabi/include/c++/10.3.1/bits/invoke.h ****     __invoke_impl(__invoke_memfun_deref, _MemFun&& __f, _Tp&& __t,
  71:/Library/DaisyToolchain/0.2.0/arm/arm-none-eabi/include/c++/10.3.1/bits/invoke.h **** 		  _Args&&... __args)
  72:/Library/DaisyToolchain/0.2.0/arm/arm-none-eabi/include/c++/10.3.1/bits/invoke.h ****     {
  73:/Library/DaisyToolchain/0.2.0/arm/arm-none-eabi/include/c++/10.3.1/bits/invoke.h ****       return ((*std::forward<_Tp>(__t)).*__f)(std::forward<_Args>(__args)...);
  74:/Library/DaisyToolchain/0.2.0/arm/arm-none-eabi/include/c++/10.3.1/bits/invoke.h ****     }
  75:/Library/DaisyToolchain/0.2.0/arm/arm-none-eabi/include/c++/10.3.1/bits/invoke.h **** 
  76:/Library/DaisyToolchain/0.2.0/arm/arm-none-eabi/include/c++/10.3.1/bits/invoke.h ****   template<typename _Res, typename _MemPtr, typename _Tp>
  77:/Library/DaisyToolchain/0.2.0/arm/arm-none-eabi/include/c++/10.3.1/bits/invoke.h ****     constexpr _Res
  78:/Library/DaisyToolchain/0.2.0/arm/arm-none-eabi/include/c++/10.3.1/bits/invoke.h ****     __invoke_impl(__invoke_memobj_ref, _MemPtr&& __f, _Tp&& __t)
  79:/Library/DaisyToolchain/0.2.0/arm/arm-none-eabi/include/c++/10.3.1/bits/invoke.h ****     { return __invfwd<_Tp>(__t).*__f; }
  80:/Library/DaisyToolchain/0.2.0/arm/arm-none-eabi/include/c++/10.3.1/bits/invoke.h **** 
  81:/Library/DaisyToolchain/0.2.0/arm/arm-none-eabi/include/c++/10.3.1/bits/invoke.h ****   template<typename _Res, typename _MemPtr, typename _Tp>
  82:/Library/DaisyToolchain/0.2.0/arm/arm-none-eabi/include/c++/10.3.1/bits/invoke.h ****     constexpr _Res
  83:/Library/DaisyToolchain/0.2.0/arm/arm-none-eabi/include/c++/10.3.1/bits/invoke.h ****     __invoke_impl(__invoke_memobj_deref, _MemPtr&& __f, _Tp&& __t)
  84:/Library/DaisyToolchain/0.2.0/arm/arm-none-eabi/include/c++/10.3.1/bits/invoke.h ****     { return (*std::forward<_Tp>(__t)).*__f; }
  85:/Library/DaisyToolchain/0.2.0/arm/arm-none-eabi/include/c++/10.3.1/bits/invoke.h **** 
  86:/Library/DaisyToolchain/0.2.0/arm/arm-none-eabi/include/c++/10.3.1/bits/invoke.h ****   /// Invoke a callable object.
  87:/Library/DaisyToolchain/0.2.0/arm/arm-none-eabi/include/c++/10.3.1/bits/invoke.h ****   template<typename _Callable, typename... _Args>
  88:/Library/DaisyToolchain/0.2.0/arm/arm-none-eabi/include/c++/10.3.1/bits/invoke.h ****     constexpr typename __invoke_result<_Callable, _Args...>::type
  89:/Library/DaisyToolchain/0.2.0/arm/arm-none-eabi/include/c++/10.3.1/bits/invoke.h ****     __invoke(_Callable&& __fn, _Args&&... __args)
  90:/Library/DaisyToolchain/0.2.0/arm/arm-none-eabi/include/c++/10.3.1/bits/invoke.h ****     noexcept(__is_nothrow_invocable<_Callable, _Args...>::value)
  91:/Library/DaisyToolchain/0.2.0/arm/arm-none-eabi/include/c++/10.3.1/bits/invoke.h ****     {
  92:/Library/DaisyToolchain/0.2.0/arm/arm-none-eabi/include/c++/10.3.1/bits/invoke.h ****       using __result = __invoke_result<_Callable, _Args...>;
  93:/Library/DaisyToolchain/0.2.0/arm/arm-none-eabi/include/c++/10.3.1/bits/invoke.h ****       using __type = typename __result::type;
  94:/Library/DaisyToolchain/0.2.0/arm/arm-none-eabi/include/c++/10.3.1/bits/invoke.h ****       using __tag = typename __result::__invoke_type;
  95:/Library/DaisyToolchain/0.2.0/arm/arm-none-eabi/include/c++/10.3.1/bits/invoke.h ****       return std::__invoke_impl<__type>(__tag{}, std::forward<_Callable>(__fn),
  96:/Library/DaisyToolchain/0.2.0/arm/arm-none-eabi/include/c++/10.3.1/bits/invoke.h **** 					std::forward<_Args>(__args)...);
  97:/Library/DaisyToolchain/0.2.0/arm/arm-none-eabi/include/c++/10.3.1/bits/invoke.h ****     }
  98:/Library/DaisyToolchain/0.2.0/arm/arm-none-eabi/include/c++/10.3.1/bits/invoke.h **** 
  99:/Library/DaisyToolchain/0.2.0/arm/arm-none-eabi/include/c++/10.3.1/bits/invoke.h **** #if __cplusplus >= 201703L
 100:/Library/DaisyToolchain/0.2.0/arm/arm-none-eabi/include/c++/10.3.1/bits/invoke.h ****   // INVOKE<R>: Invoke a callable object and convert the result to R.
 101:/Library/DaisyToolchain/0.2.0/arm/arm-none-eabi/include/c++/10.3.1/bits/invoke.h ****   template<typename _Res, typename _Callable, typename... _Args>
 102:/Library/DaisyToolchain/0.2.0/arm/arm-none-eabi/include/c++/10.3.1/bits/invoke.h ****     constexpr enable_if_t<is_invocable_r_v<_Res, _Callable, _Args...>, _Res>
 103:/Library/DaisyToolchain/0.2.0/arm/arm-none-eabi/include/c++/10.3.1/bits/invoke.h ****     __invoke_r(_Callable&& __fn, _Args&&... __args)
 104:/Library/DaisyToolchain/0.2.0/arm/arm-none-eabi/include/c++/10.3.1/bits/invoke.h ****     noexcept(is_nothrow_invocable_r_v<_Res, _Callable, _Args...>)
 105:/Library/DaisyToolchain/0.2.0/arm/arm-none-eabi/include/c++/10.3.1/bits/invoke.h ****     {
 106:/Library/DaisyToolchain/0.2.0/arm/arm-none-eabi/include/c++/10.3.1/bits/invoke.h ****       using __result = __invoke_result<_Callable, _Args...>;
 107:/Library/DaisyToolchain/0.2.0/arm/arm-none-eabi/include/c++/10.3.1/bits/invoke.h ****       using __type = typename __result::type;
 108:/Library/DaisyToolchain/0.2.0/arm/arm-none-eabi/include/c++/10.3.1/bits/invoke.h ****       using __tag = typename __result::__invoke_type;
 109:/Library/DaisyToolchain/0.2.0/arm/arm-none-eabi/include/c++/10.3.1/bits/invoke.h ****       if constexpr (is_void_v<_Res>)
 110:/Library/DaisyToolchain/0.2.0/arm/arm-none-eabi/include/c++/10.3.1/bits/invoke.h **** 	std::__invoke_impl<__type>(__tag{}, std::forward<_Callable>(__fn),
 111:/Library/DaisyToolchain/0.2.0/arm/arm-none-eabi/include/c++/10.3.1/bits/invoke.h **** 					std::forward<_Args>(__args)...);
 112:/Library/DaisyToolchain/0.2.0/arm/arm-none-eabi/include/c++/10.3.1/bits/invoke.h ****       else
 113:/Library/DaisyToolchain/0.2.0/arm/arm-none-eabi/include/c++/10.3.1/bits/invoke.h **** 	return std::__invoke_impl<__type>(__tag{},
 114:/Library/DaisyToolchain/0.2.0/arm/arm-none-eabi/include/c++/10.3.1/bits/invoke.h **** 					  std::forward<_Callable>(__fn),
 115:/Library/DaisyToolchain/0.2.0/arm/arm-none-eabi/include/c++/10.3.1/bits/invoke.h **** 					  std::forward<_Args>(__args)...);
 116:/Library/DaisyToolchain/0.2.0/arm/arm-none-eabi/include/c++/10.3.1/bits/invoke.h ****     }
 117:/Library/DaisyToolchain/0.2.0/arm/arm-none-eabi/include/c++/10.3.1/bits/invoke.h **** #else // C++11
 118:/Library/DaisyToolchain/0.2.0/arm/arm-none-eabi/include/c++/10.3.1/bits/invoke.h ****   template<typename _Res, typename _Callable, typename... _Args>
 119:/Library/DaisyToolchain/0.2.0/arm/arm-none-eabi/include/c++/10.3.1/bits/invoke.h ****     using __can_invoke_as_void = __enable_if_t<
 120:/Library/DaisyToolchain/0.2.0/arm/arm-none-eabi/include/c++/10.3.1/bits/invoke.h ****       __and_<is_void<_Res>, __is_invocable<_Callable, _Args...>>::value,
 121:/Library/DaisyToolchain/0.2.0/arm/arm-none-eabi/include/c++/10.3.1/bits/invoke.h ****       _Res
ARM GAS  /var/folders/9s/8rp0_f2s1n31qbztm3b5_fdh0000gn/T//ccXta1BT.s 			page 25


 122:/Library/DaisyToolchain/0.2.0/arm/arm-none-eabi/include/c++/10.3.1/bits/invoke.h ****     >;
 123:/Library/DaisyToolchain/0.2.0/arm/arm-none-eabi/include/c++/10.3.1/bits/invoke.h **** 
 124:/Library/DaisyToolchain/0.2.0/arm/arm-none-eabi/include/c++/10.3.1/bits/invoke.h ****   template<typename _Res, typename _Callable, typename... _Args>
 125:/Library/DaisyToolchain/0.2.0/arm/arm-none-eabi/include/c++/10.3.1/bits/invoke.h ****     using __can_invoke_as_nonvoid = __enable_if_t<
 126:/Library/DaisyToolchain/0.2.0/arm/arm-none-eabi/include/c++/10.3.1/bits/invoke.h ****       __and_<__not_<is_void<_Res>>,
 127:/Library/DaisyToolchain/0.2.0/arm/arm-none-eabi/include/c++/10.3.1/bits/invoke.h **** 	     is_convertible<typename __invoke_result<_Callable, _Args...>::type,
 128:/Library/DaisyToolchain/0.2.0/arm/arm-none-eabi/include/c++/10.3.1/bits/invoke.h **** 			    _Res>
 129:/Library/DaisyToolchain/0.2.0/arm/arm-none-eabi/include/c++/10.3.1/bits/invoke.h ****       >::value,
 130:/Library/DaisyToolchain/0.2.0/arm/arm-none-eabi/include/c++/10.3.1/bits/invoke.h ****       _Res
 131:/Library/DaisyToolchain/0.2.0/arm/arm-none-eabi/include/c++/10.3.1/bits/invoke.h ****     >;
 132:/Library/DaisyToolchain/0.2.0/arm/arm-none-eabi/include/c++/10.3.1/bits/invoke.h **** 
 133:/Library/DaisyToolchain/0.2.0/arm/arm-none-eabi/include/c++/10.3.1/bits/invoke.h ****   // INVOKE<R>: Invoke a callable object and convert the result to R.
 134:/Library/DaisyToolchain/0.2.0/arm/arm-none-eabi/include/c++/10.3.1/bits/invoke.h ****   template<typename _Res, typename _Callable, typename... _Args>
 135:/Library/DaisyToolchain/0.2.0/arm/arm-none-eabi/include/c++/10.3.1/bits/invoke.h ****     constexpr __can_invoke_as_nonvoid<_Res, _Callable, _Args...>
 136:/Library/DaisyToolchain/0.2.0/arm/arm-none-eabi/include/c++/10.3.1/bits/invoke.h ****     __invoke_r(_Callable&& __fn, _Args&&... __args)
 137:/Library/DaisyToolchain/0.2.0/arm/arm-none-eabi/include/c++/10.3.1/bits/invoke.h ****     {
 138:/Library/DaisyToolchain/0.2.0/arm/arm-none-eabi/include/c++/10.3.1/bits/invoke.h ****       using __result = __invoke_result<_Callable, _Args...>;
 139:/Library/DaisyToolchain/0.2.0/arm/arm-none-eabi/include/c++/10.3.1/bits/invoke.h ****       using __type = typename __result::type;
 140:/Library/DaisyToolchain/0.2.0/arm/arm-none-eabi/include/c++/10.3.1/bits/invoke.h ****       using __tag = typename __result::__invoke_type;
 141:/Library/DaisyToolchain/0.2.0/arm/arm-none-eabi/include/c++/10.3.1/bits/invoke.h ****       return std::__invoke_impl<__type>(__tag{}, std::forward<_Callable>(__fn),
 142:/Library/DaisyToolchain/0.2.0/arm/arm-none-eabi/include/c++/10.3.1/bits/invoke.h **** 					std::forward<_Args>(__args)...);
 143:/Library/DaisyToolchain/0.2.0/arm/arm-none-eabi/include/c++/10.3.1/bits/invoke.h ****     }
 144:/Library/DaisyToolchain/0.2.0/arm/arm-none-eabi/include/c++/10.3.1/bits/invoke.h **** 
 145:/Library/DaisyToolchain/0.2.0/arm/arm-none-eabi/include/c++/10.3.1/bits/invoke.h ****   // INVOKE<R> when R is cv void
 146:/Library/DaisyToolchain/0.2.0/arm/arm-none-eabi/include/c++/10.3.1/bits/invoke.h ****   template<typename _Res, typename _Callable, typename... _Args>
 147:/Library/DaisyToolchain/0.2.0/arm/arm-none-eabi/include/c++/10.3.1/bits/invoke.h ****     _GLIBCXX14_CONSTEXPR __can_invoke_as_void<_Res, _Callable, _Args...>
 148:/Library/DaisyToolchain/0.2.0/arm/arm-none-eabi/include/c++/10.3.1/bits/invoke.h ****     __invoke_r(_Callable&& __fn, _Args&&... __args)
 276              		.loc 15 148 5 is_stmt 1 view .LVU42
 277              	.LBB429:
 278              	.LBB427:
 279              	.LBI404:
  59:/Library/DaisyToolchain/0.2.0/arm/arm-none-eabi/include/c++/10.3.1/bits/invoke.h ****     { return std::forward<_Fn>(__f)(std::forward<_Args>(__args)...); }
 280              		.loc 15 59 5 view .LVU43
 281              	.LBB425:
 282              	.LBI405:
 283              		.file 16 "Interface.cpp"
   1:Interface.cpp **** #include "Thaumazein.h"
   2:Interface.cpp **** #include "Arpeggiator.h"
   3:Interface.cpp **** 
   4:Interface.cpp **** // --- Global hardware variables ---
   5:Interface.cpp **** DaisySeed hw;
   6:Interface.cpp **** Mpr121 touch_sensor;
   7:Interface.cpp **** EchoDelay<48000> delay;
   8:Interface.cpp **** // Arpeggiator instance
   9:Interface.cpp **** Arpeggiator arp;
  10:Interface.cpp **** 
  11:Interface.cpp **** // Hardware controls - Remapped to use ADCs 0-9
  12:Interface.cpp **** Switch button;
  13:Interface.cpp **** AnalogControl delay_time_knob;        // ADC 0 (Pin 15) Delay Time
  14:Interface.cpp **** AnalogControl delay_mix_feedback_knob; // ADC 1 (Pin 16) Delay Mix & Feedback
  15:Interface.cpp **** AnalogControl env_release_knob;       // ADC 2 (Pin 17) Envelope Release
  16:Interface.cpp **** AnalogControl env_attack_knob;        // ADC 3 (Pin 18) Envelope Attack
  17:Interface.cpp **** AnalogControl timbre_knob;            // ADC 4 (Pin 19) Plaits Timbre
  18:Interface.cpp **** AnalogControl harmonics_knob;         // ADC 5 (Pin 20) Plaits Harmonics
  19:Interface.cpp **** AnalogControl morph_knob;             // ADC 6 (Pin 21) Plaits Morph
  20:Interface.cpp **** AnalogControl pitch_knob;             // ADC 7 (Pin 22) Plaits Pitch
  21:Interface.cpp **** AnalogControl arp_pad;               // ADC 8 (Pin 23) Arpeggiator Toggle Pad
ARM GAS  /var/folders/9s/8rp0_f2s1n31qbztm3b5_fdh0000gn/T//ccXta1BT.s 			page 26


  22:Interface.cpp **** AnalogControl model_prev_pad;        // ADC 9 (Pin 24) Model Select Previous Pad
  23:Interface.cpp **** AnalogControl model_next_pad;        // ADC 10 (Pin 25) Model Select Next Pad
  24:Interface.cpp **** AnalogControl mod_wheel;             // ADC 11 (Pin 28) Mod Wheel Control
  25:Interface.cpp **** 
  26:Interface.cpp **** // CPU usage monitoring
  27:Interface.cpp **** float sample_rate = 48000.0f; 
  28:Interface.cpp **** volatile uint32_t avg_elapsed_us = 0; 
  29:Interface.cpp **** volatile bool update_display = false; 
  30:Interface.cpp **** // Output Level monitoring
  31:Interface.cpp **** volatile float smoothed_output_level = 0.0f; 
  32:Interface.cpp **** 
  33:Interface.cpp **** // Bootloader configuration
  34:Interface.cpp **** const uint32_t BOOTLOADER_HOLD_TIME_MS = 3000; // Hold button for 3 seconds
  35:Interface.cpp **** uint32_t button_held_start_time = 0;
  36:Interface.cpp **** bool button_was_pressed = false;
  37:Interface.cpp **** 
  38:Interface.cpp **** // --- Initialization functions ---
  39:Interface.cpp **** void InitializeHardware() {
  40:Interface.cpp ****     // Initialize Daisy Seed hardware
  41:Interface.cpp ****     hw.Configure();
  42:Interface.cpp ****     hw.Init();
  43:Interface.cpp ****     hw.SetAudioBlockSize(BLOCK_SIZE);
  44:Interface.cpp ****     sample_rate = hw.AudioSampleRate();
  45:Interface.cpp ****     hw.SetAudioSampleRate(SaiHandle::Config::SampleRate::SAI_48KHZ); // Using 48kHz now
  46:Interface.cpp ****     sample_rate = hw.AudioSampleRate(); // Update sample_rate after setting it
  47:Interface.cpp **** }
  48:Interface.cpp **** 
  49:Interface.cpp **** void InitializeControls() {
  50:Interface.cpp ****     // --- Configure ADCs (12 Channels) ---
  51:Interface.cpp ****     AdcChannelConfig adc_config[12];
  52:Interface.cpp ****     adc_config[0].InitSingle(hw.GetPin(15)); // ADC 0: Delay Time
  53:Interface.cpp ****     adc_config[1].InitSingle(hw.GetPin(16)); // ADC 1: Delay Mix & Feedback
  54:Interface.cpp ****     adc_config[2].InitSingle(hw.GetPin(17)); // ADC 2: Envelope Release
  55:Interface.cpp ****     adc_config[3].InitSingle(hw.GetPin(18)); // ADC 3: Envelope Attack
  56:Interface.cpp ****     adc_config[4].InitSingle(hw.GetPin(19)); // ADC 4: Plaits Timbre
  57:Interface.cpp ****     adc_config[5].InitSingle(hw.GetPin(20)); // ADC 5: Plaits Harmonics
  58:Interface.cpp ****     adc_config[6].InitSingle(hw.GetPin(21)); // ADC 6: Plaits Morph
  59:Interface.cpp ****     adc_config[7].InitSingle(hw.GetPin(22)); // ADC 7: Plaits Pitch
  60:Interface.cpp ****     adc_config[8].InitSingle(hw.GetPin(23)); // ADC 8: Arpeggiator Toggle Pad
  61:Interface.cpp ****     adc_config[9].InitSingle(hw.GetPin(24)); // ADC 9: Model Select Previous Pad
  62:Interface.cpp ****     adc_config[10].InitSingle(hw.GetPin(25)); // ADC 10: Model Select Next Pad
  63:Interface.cpp ****     adc_config[11].InitSingle(hw.GetPin(28)); // ADC 11: Mod Wheel Control
  64:Interface.cpp ****     hw.adc.Init(adc_config, 12); // Initialize 12 channels
  65:Interface.cpp ****     hw.adc.Start();
  66:Interface.cpp **** 
  67:Interface.cpp ****     // --- Initialize Controls (Matches new mapping) ---
  68:Interface.cpp ****     delay_time_knob.Init(hw.adc.GetPtr(0), sample_rate);        // ADC 0
  69:Interface.cpp ****     delay_mix_feedback_knob.Init(hw.adc.GetPtr(1), sample_rate); // ADC 1
  70:Interface.cpp ****     env_release_knob.Init(hw.adc.GetPtr(2), sample_rate);       // ADC 2
  71:Interface.cpp ****     env_attack_knob.Init(hw.adc.GetPtr(3), sample_rate);        // ADC 3
  72:Interface.cpp ****     timbre_knob.Init(hw.adc.GetPtr(4), sample_rate);            // ADC 4
  73:Interface.cpp ****     harmonics_knob.Init(hw.adc.GetPtr(5), sample_rate);         // ADC 5
  74:Interface.cpp ****     morph_knob.Init(hw.adc.GetPtr(6), sample_rate);             // ADC 6
  75:Interface.cpp ****     pitch_knob.Init(hw.adc.GetPtr(7), sample_rate);             // ADC 7
  76:Interface.cpp ****     arp_pad.Init(hw.adc.GetPtr(8), sample_rate);               // ADC 8
  77:Interface.cpp ****     model_prev_pad.Init(hw.adc.GetPtr(9), sample_rate);        // ADC 9
  78:Interface.cpp ****     model_next_pad.Init(hw.adc.GetPtr(10), sample_rate);       // ADC 10
ARM GAS  /var/folders/9s/8rp0_f2s1n31qbztm3b5_fdh0000gn/T//ccXta1BT.s 			page 27


  79:Interface.cpp ****     mod_wheel.Init(hw.adc.GetPtr(11), sample_rate);            // ADC 11
  80:Interface.cpp **** 
  81:Interface.cpp ****     // --- Initialize Buttons ---
  82:Interface.cpp ****     button.Init(hw.GetPin(27), sample_rate / 48.0f);
  83:Interface.cpp **** }
  84:Interface.cpp **** 
  85:Interface.cpp **** void InitializeTouchSensor() {
  86:Interface.cpp ****     // --- Initialize MPR121 ---
  87:Interface.cpp ****     Mpr121::Config touch_config;
  88:Interface.cpp ****     touch_config.Defaults();
  89:Interface.cpp ****     if (!touch_sensor.Init(touch_config)) {
  90:Interface.cpp ****         while(1) { hw.SetLed(true); System::Delay(50); hw.SetLed(false); System::Delay(50); }
  91:Interface.cpp ****     }
  92:Interface.cpp ****     // Override default thresholds for more sensitivity
  93:Interface.cpp ****     touch_sensor.SetThresholds(6, 3); 
  94:Interface.cpp **** }
  95:Interface.cpp **** 
  96:Interface.cpp **** void InitializeDelay() {
  97:Interface.cpp ****     // --- Initialize Echo Delay --- 
  98:Interface.cpp ****     delay.Init(sample_rate); 
  99:Interface.cpp ****     delay.SetLagTime(0.02f);         // Short lag for time changes
 100:Interface.cpp ****     delay.SetDelayTime(0.3f, true); // 300ms delay, set immediately
 101:Interface.cpp ****     delay.SetFeedback(0.5f);         // 50% feedback
 102:Interface.cpp **** }
 103:Interface.cpp **** 
 104:Interface.cpp **** void InitializeSynth() {
 105:Interface.cpp ****     InitializeHardware();
 106:Interface.cpp ****     InitializeVoices(); // Call function from Polyphony.cpp
 107:Interface.cpp ****     InitializeControls();
 108:Interface.cpp ****     InitializeTouchSensor();
 109:Interface.cpp ****     InitializeDelay();
 110:Interface.cpp ****     cpu_meter.Init(sample_rate, BLOCK_SIZE); // Initialize the CPU Load Meter
 111:Interface.cpp ****     
 112:Interface.cpp ****     // --- Initialize Arpeggiator ---
 113:Interface.cpp ****     arp.Init(sample_rate);
 114:Interface.cpp ****     // Default arp tempo for audible stepping
 115:Interface.cpp ****     arp.SetMainTempo(8.0f);
 116:Interface.cpp ****     // Route arpeggiator triggers into Plaits voices
 117:Interface.cpp ****     arp.SetNoteTriggerCallback([](int pad_idx) {
 284              		.loc 16 117 32 view .LVU44
 285              	.LBB423:
 118:Interface.cpp ****         // Monophonic ARP: set AR mode and retrigger envelope without full reset
 119:Interface.cpp ****         voice_envelopes[0].SetMode(VoiceEnvelope::MODE_AR);
 286              		.loc 16 119 9 view .LVU45
 287              	.LBB410:
 288              	.LBI407:
  43:VoiceEnvelope.h ****         mode = new_mode;
 289              		.loc 14 43 10 view .LVU46
 290              	.LBB409:
 291              		.loc 14 44 9 view .LVU47
 292              		.loc 14 44 14 is_stmt 0 view .LVU48
 293 0006 5A70     		strb	r2, [r3, #1]
 294              	.LVL11:
 295              		.loc 14 44 14 view .LVU49
 296              	.LBE409:
 297              	.LBE410:
 120:Interface.cpp ****         // Assign the new note to voice 0
ARM GAS  /var/folders/9s/8rp0_f2s1n31qbztm3b5_fdh0000gn/T//ccXta1BT.s 			page 28


 121:Interface.cpp ****         float note = kTouchMidiNotes[pad_idx];
 298              		.loc 16 121 9 is_stmt 1 view .LVU50
 122:Interface.cpp ****         voice_note[0] = note;
 299              		.loc 16 122 9 view .LVU51
 121:Interface.cpp ****         voice_note[0] = note;
 300              		.loc 16 121 15 is_stmt 0 view .LVU52
 301 0008 1D4A     		ldr	r2, .L17+4
 302 000a 02EB8102 		add	r2, r2, r1, lsl #2
 303              	.LVL12:
 304              		.loc 16 122 23 view .LVU53
 305 000e 1168     		ldr	r1, [r2]	@ float
 306              	.LVL13:
 307              		.loc 16 122 23 view .LVU54
 308 0010 1C4A     		ldr	r2, .L17+8
 309              	.LVL14:
 310              		.loc 16 122 23 view .LVU55
 311 0012 1160     		str	r1, [r2]	@ float
 123:Interface.cpp ****         voice_active[0] = true;
 312              		.loc 16 123 9 is_stmt 1 view .LVU56
 313              		.loc 16 123 25 is_stmt 0 view .LVU57
 314 0014 0122     		movs	r2, #1
 315 0016 1C49     		ldr	r1, .L17+12
 316              	.LVL15:
 317              		.loc 16 123 25 view .LVU58
 318 0018 0A70     		strb	r2, [r1]
 124:Interface.cpp ****         // Start the envelope attack; release phase follows based on knob
 125:Interface.cpp ****         voice_envelopes[0].Trigger();
 319              		.loc 16 125 9 is_stmt 1 view .LVU59
 320              	.LVL16:
 321              	.LBB411:
 322              	.LBI411:
  45:VoiceEnvelope.h ****     }
  46:VoiceEnvelope.h **** 
  47:VoiceEnvelope.h ****     // Original combined shape method for backward compatibility
  48:VoiceEnvelope.h ****     void SetShape(float value) {
  49:VoiceEnvelope.h ****         float curve;
  50:VoiceEnvelope.h ****         if (value < 0.5f) {
  51:VoiceEnvelope.h ****             attack_time = min_attack_time;
  52:VoiceEnvelope.h ****             decay_time = static_cast<size_t>(time_range_2x * value * value) + min_decay_time_a;
  53:VoiceEnvelope.h ****             curve = value * 0.15f;
  54:VoiceEnvelope.h ****         } else {
  55:VoiceEnvelope.h ****             float norm_val = 2.0f * value - 1.0f;
  56:VoiceEnvelope.h ****             attack_time = static_cast<size_t>(time_range_2x * norm_val * norm_val) + min_attack_tim
  57:VoiceEnvelope.h ****             decay_time = static_cast<size_t>(time_range_2x * (1.0f - value * value)) + min_decay_ti
  58:VoiceEnvelope.h ****             curve = 0.5f;
  59:VoiceEnvelope.h ****         }
  60:VoiceEnvelope.h ****         attack_coefficient = 1.0f / attack_time;
  61:VoiceEnvelope.h ****         decay_coefficient = 1.0f / decay_time;
  62:VoiceEnvelope.h ****         SetAttackCurve(curve);
  63:VoiceEnvelope.h ****         SetReleaseCurve(curve);
  64:VoiceEnvelope.h ****     }
  65:VoiceEnvelope.h ****     
  66:VoiceEnvelope.h ****     // New methods for separate attack and release control
  67:VoiceEnvelope.h ****     void SetAttackTime(float value) {
  68:VoiceEnvelope.h ****         // Map 0-1 value to attack time (exponential scaling)
  69:VoiceEnvelope.h ****         // value for finer control at shorter settings
  70:VoiceEnvelope.h ****         float value_cubed = value * value * value;
ARM GAS  /var/folders/9s/8rp0_f2s1n31qbztm3b5_fdh0000gn/T//ccXta1BT.s 			page 29


  71:VoiceEnvelope.h ****         
  72:VoiceEnvelope.h ****         // Special handling for super punchy attacks at low values
  73:VoiceEnvelope.h ****         if (value < 0.1f) {
  74:VoiceEnvelope.h ****             // Extra fast attacks at the beginning of the range
  75:VoiceEnvelope.h ****             attack_time = static_cast<size_t>(min_attack_time + 
  76:VoiceEnvelope.h ****                                            (min_attack_time * 9.0f * value / 0.1f));
  77:VoiceEnvelope.h ****         } else {
  78:VoiceEnvelope.h ****             // Normal range from 2ms to 4 seconds
  79:VoiceEnvelope.h ****             attack_time = static_cast<size_t>(0.002f * time_range_2x/8.0f + 
  80:VoiceEnvelope.h ****                                            (time_range_2x * 0.5f * value_cubed));
  81:VoiceEnvelope.h ****         }
  82:VoiceEnvelope.h ****         
  83:VoiceEnvelope.h ****         attack_coefficient = 1.0f / attack_time;
  84:VoiceEnvelope.h ****         
  85:VoiceEnvelope.h ****         // Make curve more exponential for faster attacks
  86:VoiceEnvelope.h ****         if (value < 0.3f) {
  87:VoiceEnvelope.h ****             // More exponential curve for punchy attacks
  88:VoiceEnvelope.h ****             SetAttackCurve(0.7f + (0.3f - value)); // 0.7 to 1.0 range for punchier curve
  89:VoiceEnvelope.h ****         } else {
  90:VoiceEnvelope.h ****             // Normal curve
  91:VoiceEnvelope.h ****             SetAttackCurve(0.5f);
  92:VoiceEnvelope.h ****         }
  93:VoiceEnvelope.h ****     }
  94:VoiceEnvelope.h ****     
  95:VoiceEnvelope.h ****     void SetReleaseTime(float value) {
  96:VoiceEnvelope.h ****         // Map 0-1 value to release time (exponential scaling)
  97:VoiceEnvelope.h ****         // value for finer control at shorter settings
  98:VoiceEnvelope.h ****         float value_cubed = value * value * value;
  99:VoiceEnvelope.h ****         
 100:VoiceEnvelope.h ****         // Release time ranges from min_decay_time_b to 8 seconds
 101:VoiceEnvelope.h ****         decay_time = static_cast<size_t>(min_decay_time_b + 
 102:VoiceEnvelope.h ****                                         (time_range_2x * value_cubed));
 103:VoiceEnvelope.h ****         decay_coefficient = 1.0f / decay_time;
 104:VoiceEnvelope.h ****         
 105:VoiceEnvelope.h ****         // Use consistent release curve regardless of release time
 106:VoiceEnvelope.h ****         SetReleaseCurve(0.5f);
 107:VoiceEnvelope.h ****     }
 108:VoiceEnvelope.h ****     
 109:VoiceEnvelope.h ****     void SetAttackCurve(float value) {
 110:VoiceEnvelope.h ****         float cu = value - 0.5f;
 111:VoiceEnvelope.h ****         attack_curve_coefficient = 128.0f * cu * cu;
 112:VoiceEnvelope.h ****     }
 113:VoiceEnvelope.h ****     
 114:VoiceEnvelope.h ****     void SetReleaseCurve(float value) {
 115:VoiceEnvelope.h ****         float cu = value - 0.5f;
 116:VoiceEnvelope.h ****         release_curve_coefficient = 128.0f * cu * cu;
 117:VoiceEnvelope.h ****     }
 118:VoiceEnvelope.h **** 
 119:VoiceEnvelope.h ****     void Trigger() {
 323              		.loc 14 119 10 view .LVU60
 324              	.LBB412:
 120:VoiceEnvelope.h ****         switch (current_state) {
 325              		.loc 14 120 9 view .LVU61
 326              		.loc 14 120 17 is_stmt 0 view .LVU62
 327 001a 1978     		ldrb	r1, [r3]	@ zero_extendqisi2
 328              		.loc 14 120 9 view .LVU63
 329 001c 69B1     		cbz	r1, .L13
ARM GAS  /var/folders/9s/8rp0_f2s1n31qbztm3b5_fdh0000gn/T//ccXta1BT.s 			page 30


 330 001e 0329     		cmp	r1, #3
 331 0020 0ED0     		beq	.L14
 332              	.L15:
 333              	.LVL17:
 334              		.loc 14 120 9 view .LVU64
 335              	.LBE412:
 336              	.LBE411:
 126:Interface.cpp ****         // Send patched trigger to Plaits engine only for percussive modes
 127:Interface.cpp ****         if (current_engine_index > 7) {
 337              		.loc 16 127 9 is_stmt 1 view .LVU65
 338              		.loc 16 127 34 is_stmt 0 view .LVU66
 339 0022 1A4B     		ldr	r3, .L17+16
 340 0024 1B68     		ldr	r3, [r3]
 341              		.loc 16 127 9 view .LVU67
 342 0026 072B     		cmp	r3, #7
 343 0028 06DD     		ble	.L12
 128:Interface.cpp ****             modulations[0].trigger = 1.0f;
 344              		.loc 16 128 13 is_stmt 1 view .LVU68
 345              		.loc 16 128 36 is_stmt 0 view .LVU69
 346 002a 194B     		ldr	r3, .L17+20
 347 002c 4FF07E52 		mov	r2, #1065353216
 348 0030 9A61     		str	r2, [r3, #24]	@ float
 129:Interface.cpp ****             modulations[0].trigger_patched = true;
 349              		.loc 16 129 13 is_stmt 1 view .LVU70
 350              		.loc 16 129 44 is_stmt 0 view .LVU71
 351 0032 0122     		movs	r2, #1
 352 0034 83F82320 		strb	r2, [r3, #35]
 353              	.LVL18:
 354              	.L12:
 355              		.loc 16 129 44 view .LVU72
 356              	.LBE423:
 357              	.LBE425:
 358              	.LBE427:
 359              	.LBE429:
 360              	.LBE402:
 290:/Library/DaisyToolchain/0.2.0/arm/arm-none-eabi/include/c++/10.3.1/bits/std_function.h ****       {
 291:/Library/DaisyToolchain/0.2.0/arm/arm-none-eabi/include/c++/10.3.1/bits/std_function.h **** 	return std::__invoke_r<_Res>(*_Base::_M_get_pointer(__functor),
 292:/Library/DaisyToolchain/0.2.0/arm/arm-none-eabi/include/c++/10.3.1/bits/std_function.h **** 				     std::forward<_ArgTypes>(__args)...);
 293:/Library/DaisyToolchain/0.2.0/arm/arm-none-eabi/include/c++/10.3.1/bits/std_function.h ****       }
 361              		.loc 13 293 7 view .LVU73
 362 0038 7047     		bx	lr
 363              	.LVL19:
 364              	.L13:
 365              	.LBB431:
 366              	.LBB430:
 367              	.LBB428:
 368              	.LBB426:
 369              	.LBB424:
 370              	.LBB422:
 371              	.LBB421:
 121:VoiceEnvelope.h ****             case ENV_IDLE:
 372              		.loc 14 121 13 is_stmt 1 view .LVU74
 122:VoiceEnvelope.h ****                 current_state = ENV_ATTACK;
 373              		.loc 14 122 17 view .LVU75
 374              		.loc 14 122 31 is_stmt 0 view .LVU76
 375 003a 1A70     		strb	r2, [r3]
 123:VoiceEnvelope.h ****                 phase = 0;
ARM GAS  /var/folders/9s/8rp0_f2s1n31qbztm3b5_fdh0000gn/T//ccXta1BT.s 			page 31


 376              		.loc 14 123 17 is_stmt 1 view .LVU77
 377              		.loc 14 123 23 is_stmt 0 view .LVU78
 378 003c D963     		str	r1, [r3, #60]
 124:VoiceEnvelope.h ****                 break;
 379              		.loc 14 124 17 is_stmt 1 view .LVU79
 380 003e F0E7     		b	.L15
 381              	.L14:
 382              	.LVL20:
 383              	.LBB413:
 384              	.LBI413:
 119:VoiceEnvelope.h ****         switch (current_state) {
 385              		.loc 14 119 10 view .LVU80
 386              	.LBB414:
 125:VoiceEnvelope.h ****             case ENV_DECAY:
 387              		.loc 14 125 13 view .LVU81
 126:VoiceEnvelope.h ****                 current_state = ENV_ATTACK;
 388              		.loc 14 126 17 view .LVU82
 389              	.LBB415:
 390              	.LBB416:
 127:VoiceEnvelope.h ****                 phase = CalculateAttackPhase(current_value);
 128:VoiceEnvelope.h ****                 break;
 129:VoiceEnvelope.h ****             default:
 130:VoiceEnvelope.h ****                 break;
 131:VoiceEnvelope.h ****         }
 132:VoiceEnvelope.h ****     }
 133:VoiceEnvelope.h **** 
 134:VoiceEnvelope.h ****     void Release() {
 135:VoiceEnvelope.h ****         switch (current_state) {
 136:VoiceEnvelope.h ****             case ENV_ATTACK:
 137:VoiceEnvelope.h ****                 // Preserve the attack curve character when transitioning to release
 138:VoiceEnvelope.h ****                 // This decouples release time from affecting attack punchiness
 139:VoiceEnvelope.h ****                 current_value = CalculateAttackAmplitude(static_cast<float>(phase) * attack_coeffic
 140:VoiceEnvelope.h ****                 phase = 0; // Always start release from beginning, preserving the current level
 141:VoiceEnvelope.h ****                 current_state = ENV_DECAY;
 142:VoiceEnvelope.h ****                 break;
 143:VoiceEnvelope.h ****             case ENV_SUSTAIN:
 144:VoiceEnvelope.h ****                 phase = 0;
 145:VoiceEnvelope.h ****                 current_state = ENV_DECAY;
 146:VoiceEnvelope.h ****                 break;
 147:VoiceEnvelope.h ****             default:
 148:VoiceEnvelope.h ****                 break;
 149:VoiceEnvelope.h ****         }
 150:VoiceEnvelope.h ****     }
 151:VoiceEnvelope.h **** 
 152:VoiceEnvelope.h ****     float Process() {
 153:VoiceEnvelope.h ****         float ph;
 154:VoiceEnvelope.h ****         switch (current_state) {
 155:VoiceEnvelope.h ****             case ENV_IDLE:
 156:VoiceEnvelope.h ****                 current_value = 0.0f;
 157:VoiceEnvelope.h ****                 break;
 158:VoiceEnvelope.h **** 
 159:VoiceEnvelope.h ****             case ENV_ATTACK:
 160:VoiceEnvelope.h ****                 ph = static_cast<float>(phase) * attack_coefficient;
 161:VoiceEnvelope.h ****                 current_value = CalculateAttackAmplitude(ph);
 162:VoiceEnvelope.h ****                 if (phase >= attack_time) {
 163:VoiceEnvelope.h ****                     current_state = (mode == MODE_AR) ? ENV_DECAY : ENV_SUSTAIN;
 164:VoiceEnvelope.h ****                     phase = 0;
ARM GAS  /var/folders/9s/8rp0_f2s1n31qbztm3b5_fdh0000gn/T//ccXta1BT.s 			page 32


 165:VoiceEnvelope.h ****                 } else {
 166:VoiceEnvelope.h ****                     phase++;
 167:VoiceEnvelope.h ****                 }
 168:VoiceEnvelope.h ****                 break;
 169:VoiceEnvelope.h **** 
 170:VoiceEnvelope.h ****             case ENV_SUSTAIN:
 171:VoiceEnvelope.h ****                 current_value = 1.0f;
 172:VoiceEnvelope.h ****                 break;
 173:VoiceEnvelope.h **** 
 174:VoiceEnvelope.h ****             case ENV_DECAY:
 175:VoiceEnvelope.h ****                 // Use current_value as starting point for decay
 176:VoiceEnvelope.h ****                 // This preserves the correct level from attack phase
 177:VoiceEnvelope.h ****                 ph = static_cast<float>(phase) * decay_coefficient;
 178:VoiceEnvelope.h ****                 if (phase == 0) {
 179:VoiceEnvelope.h ****                     // On first frame, use current value
 180:VoiceEnvelope.h ****                     decay_start_level = current_value;
 181:VoiceEnvelope.h ****                 }
 182:VoiceEnvelope.h ****                 current_value = decay_start_level * (1.0f - ph) / (1.0f + release_curve_coefficient
 183:VoiceEnvelope.h ****                 
 184:VoiceEnvelope.h ****                 if (phase >= decay_time) {
 185:VoiceEnvelope.h ****                     current_state = ENV_IDLE;
 186:VoiceEnvelope.h ****                     phase = 0;
 187:VoiceEnvelope.h ****                 } else {
 188:VoiceEnvelope.h ****                     phase++;
 189:VoiceEnvelope.h ****                 }
 190:VoiceEnvelope.h ****                 break;
 191:VoiceEnvelope.h **** 
 192:VoiceEnvelope.h ****             case ENV_RESET:
 193:VoiceEnvelope.h ****                 current_value = reset_target - static_cast<float>(phase) * reset_coefficient;
 194:VoiceEnvelope.h ****                 if (phase >= reset_time) {
 195:VoiceEnvelope.h ****                     current_state = ENV_IDLE;
 196:VoiceEnvelope.h ****                     phase = 0;
 197:VoiceEnvelope.h ****                 } else {
 198:VoiceEnvelope.h ****                     phase++;
 199:VoiceEnvelope.h ****                 }
 200:VoiceEnvelope.h ****                 break;
 201:VoiceEnvelope.h ****         }
 202:VoiceEnvelope.h ****         return std::min(std::max(current_value, 0.0f), 1.0f);
 203:VoiceEnvelope.h ****     }
 204:VoiceEnvelope.h **** 
 205:VoiceEnvelope.h ****     void Reset() {
 206:VoiceEnvelope.h ****         if (current_state == ENV_IDLE) return;
 207:VoiceEnvelope.h ****         current_state = ENV_RESET;
 208:VoiceEnvelope.h ****         reset_target = current_value;
 209:VoiceEnvelope.h ****         phase = 0;
 210:VoiceEnvelope.h ****     }
 211:VoiceEnvelope.h **** 
 212:VoiceEnvelope.h ****     bool IsActive() const {
 213:VoiceEnvelope.h ****         return current_state != ENV_IDLE;
 214:VoiceEnvelope.h ****     }
 215:VoiceEnvelope.h **** 
 216:VoiceEnvelope.h **** private:
 217:VoiceEnvelope.h ****     float CalculateAttackAmplitude(float ph) {
 218:VoiceEnvelope.h ****         return ph / (1.0f + attack_curve_coefficient * (1.0f - ph));
 219:VoiceEnvelope.h ****     }
 220:VoiceEnvelope.h **** 
 221:VoiceEnvelope.h ****     float CalculateDecayAmplitude(float ph) {
ARM GAS  /var/folders/9s/8rp0_f2s1n31qbztm3b5_fdh0000gn/T//ccXta1BT.s 			page 33


 222:VoiceEnvelope.h ****         return (1.0f - ph) / (1.0f + release_curve_coefficient * ph);
 223:VoiceEnvelope.h ****     }
 224:VoiceEnvelope.h **** 
 225:VoiceEnvelope.h ****     size_t CalculateAttackPhase(float amp) {
 226:VoiceEnvelope.h ****         return static_cast<size_t>(roundf(attack_time * amp * (1.0f + attack_curve_coefficient) / (
 391              		.loc 14 226 69 is_stmt 0 view .LVU83
 392 0040 B7EE007A 		vmov.f32	s14, #1.0e+0
 393              	.LBE416:
 394              	.LBE415:
 127:VoiceEnvelope.h ****                 phase = CalculateAttackPhase(current_value);
 395              		.loc 14 127 45 view .LVU84
 396 0044 D3ED015A 		vldr.32	s11, [r3, #4]
 397              	.LBB419:
 398              	.LBB417:
 399              		.loc 14 226 71 view .LVU85
 400 0048 93ED026A 		vldr.32	s12, [r3, #8]
 401              		.loc 14 226 55 view .LVU86
 402 004c D3ED0D7A 		vldr.32	s15, [r3, #52]	@ int
 403              		.loc 14 226 69 view .LVU87
 404 0050 76EE076A 		vadd.f32	s13, s12, s14
 405              	.LBE417:
 406              	.LBE419:
 126:VoiceEnvelope.h ****                 current_state = ENV_ATTACK;
 407              		.loc 14 126 31 view .LVU88
 408 0054 1A70     		strb	r2, [r3]
 127:VoiceEnvelope.h ****                 phase = CalculateAttackPhase(current_value);
 409              		.loc 14 127 17 is_stmt 1 view .LVU89
 410              	.LVL21:
 411              	.LBB420:
 412              	.LBI415:
 225:VoiceEnvelope.h ****         return static_cast<size_t>(roundf(attack_time * amp * (1.0f + attack_curve_coefficient) / (
 413              		.loc 14 225 12 view .LVU90
 414              	.LBB418:
 415              		.loc 14 226 9 view .LVU91
 416              		.loc 14 226 105 is_stmt 0 view .LVU92
 417 0056 A5EE867A 		vfma.f32	s14, s11, s12
 418              		.loc 14 226 55 view .LVU93
 419 005a F8EE677A 		vcvt.f32.u32	s15, s15
 420 005e 67EEA57A 		vmul.f32	s15, s15, s11
 421              		.loc 14 226 61 view .LVU94
 422 0062 67EEA67A 		vmul.f32	s15, s15, s13
 423              		.loc 14 226 105 view .LVU95
 424 0066 F0EE476A 		vmov.f32	s13, s14
 425              		.loc 14 226 42 view .LVU96
 426 006a 87EEA67A 		vdiv.f32	s14, s15, s13
 427 006e F8FE477A 		vrinta.f32	s15, s14
 428              	.LVL22:
 429              		.loc 14 226 139 view .LVU97
 430 0072 FCEEE77A 		vcvt.u32.f32	s15, s15
 431 0076 C3ED0F7A 		vstr.32	s15, [r3, #60]	@ int
 432              	.LBE418:
 433              	.LBE420:
 128:VoiceEnvelope.h ****             default:
 434              		.loc 14 128 17 is_stmt 1 view .LVU98
 435 007a D2E7     		b	.L15
 436              	.L18:
 437              		.align	2
ARM GAS  /var/folders/9s/8rp0_f2s1n31qbztm3b5_fdh0000gn/T//ccXta1BT.s 			page 34


 438              	.L17:
 439 007c 00000000 		.word	voice_envelopes
 440 0080 00000000 		.word	kTouchMidiNotes
 441 0084 00000000 		.word	voice_note
 442 0088 00000000 		.word	voice_active
 443 008c 00000000 		.word	current_engine_index
 444 0090 00000000 		.word	modulations
 445              	.LBE414:
 446              	.LBE413:
 447              	.LBE421:
 448              	.LBE422:
 449              	.LBE424:
 450              	.LBE426:
 451              	.LBE428:
 452              	.LBE430:
 453              	.LBE431:
 454              		.cfi_endproc
 455              	.LFE5961:
 457              		.section	.text._ZNSt14_Function_baseD2Ev,"axG",%progbits,_ZNSt14_Function_baseD5Ev,comdat
 458              		.align	1
 459              		.weak	_ZNSt14_Function_baseD2Ev
 460              		.syntax unified
 461              		.thumb
 462              		.thumb_func
 464              	_ZNSt14_Function_baseD2Ev:
 465              	.LVL23:
 466              	.LFB5276:
 242:/Library/DaisyToolchain/0.2.0/arm/arm-none-eabi/include/c++/10.3.1/bits/std_function.h ****     {
 467              		.loc 13 242 5 view -0
 468              		.cfi_startproc
 469              		@ args = 0, pretend = 0, frame = 0
 470              		@ frame_needed = 0, uses_anonymous_args = 0
 471              	.LBB432:
 244:/Library/DaisyToolchain/0.2.0/arm/arm-none-eabi/include/c++/10.3.1/bits/std_function.h **** 	_M_manager(_M_functor, _M_functor, __destroy_functor);
 472              		.loc 13 244 7 view .LVU100
 244:/Library/DaisyToolchain/0.2.0/arm/arm-none-eabi/include/c++/10.3.1/bits/std_function.h **** 	_M_manager(_M_functor, _M_functor, __destroy_functor);
 473              		.loc 13 244 11 is_stmt 0 view .LVU101
 474 0000 8368     		ldr	r3, [r0, #8]
 475              	.LBE432:
 242:/Library/DaisyToolchain/0.2.0/arm/arm-none-eabi/include/c++/10.3.1/bits/std_function.h ****     {
 476              		.loc 13 242 5 view .LVU102
 477 0002 10B5     		push	{r4, lr}
 478              		.cfi_def_cfa_offset 8
 479              		.cfi_offset 4, -8
 480              		.cfi_offset 14, -4
 242:/Library/DaisyToolchain/0.2.0/arm/arm-none-eabi/include/c++/10.3.1/bits/std_function.h ****     {
 481              		.loc 13 242 5 view .LVU103
 482 0004 0446     		mov	r4, r0
 483              	.LBB433:
 244:/Library/DaisyToolchain/0.2.0/arm/arm-none-eabi/include/c++/10.3.1/bits/std_function.h **** 	_M_manager(_M_functor, _M_functor, __destroy_functor);
 484              		.loc 13 244 7 view .LVU104
 485 0006 13B1     		cbz	r3, .L20
 245:/Library/DaisyToolchain/0.2.0/arm/arm-none-eabi/include/c++/10.3.1/bits/std_function.h ****     }
 486              		.loc 13 245 2 is_stmt 1 view .LVU105
 245:/Library/DaisyToolchain/0.2.0/arm/arm-none-eabi/include/c++/10.3.1/bits/std_function.h ****     }
 487              		.loc 13 245 12 is_stmt 0 view .LVU106
 488 0008 0322     		movs	r2, #3
ARM GAS  /var/folders/9s/8rp0_f2s1n31qbztm3b5_fdh0000gn/T//ccXta1BT.s 			page 35


 489 000a 0146     		mov	r1, r0
 490 000c 9847     		blx	r3
 491              	.LVL24:
 492              	.L20:
 245:/Library/DaisyToolchain/0.2.0/arm/arm-none-eabi/include/c++/10.3.1/bits/std_function.h ****     }
 493              		.loc 13 245 12 view .LVU107
 494              	.LBE433:
 246:/Library/DaisyToolchain/0.2.0/arm/arm-none-eabi/include/c++/10.3.1/bits/std_function.h **** 
 495              		.loc 13 246 5 view .LVU108
 496 000e 2046     		mov	r0, r4
 497 0010 10BD     		pop	{r4, pc}
 246:/Library/DaisyToolchain/0.2.0/arm/arm-none-eabi/include/c++/10.3.1/bits/std_function.h **** 
 498              		.loc 13 246 5 view .LVU109
 499              		.cfi_endproc
 500              	.LFE5276:
 502              		.weak	_ZNSt14_Function_baseD1Ev
 503              		.thumb_set _ZNSt14_Function_baseD1Ev,_ZNSt14_Function_baseD2Ev
 504              		.section	.text._ZN11ArpeggiatorD2Ev,"axG",%progbits,_ZN11ArpeggiatorD5Ev,comdat
 505              		.align	1
 506              		.weak	_ZN11ArpeggiatorD2Ev
 507              		.syntax unified
 508              		.thumb
 509              		.thumb_func
 511              	_ZN11ArpeggiatorD2Ev:
 512              	.LVL25:
 513              	.LFB6147:
 514              		.file 17 "Arpeggiator.h"
   1:Arpeggiator.h **** #ifndef ARPEGGIATOR_H
   2:Arpeggiator.h **** #define ARPEGGIATOR_H
   3:Arpeggiator.h **** 
   4:Arpeggiator.h **** #include "daisy_seed.h"
   5:Arpeggiator.h **** #include "daisysp.h"
   6:Arpeggiator.h **** #include <functional>
   7:Arpeggiator.h **** 
   8:Arpeggiator.h **** using namespace daisy;
   9:Arpeggiator.h **** using namespace daisysp;
  10:Arpeggiator.h **** 
  11:Arpeggiator.h **** class Arpeggiator {
 515              		.loc 17 11 7 is_stmt 1 view -0
 516              		.cfi_startproc
 517              		@ args = 0, pretend = 0, frame = 0
 518              		@ frame_needed = 0, uses_anonymous_args = 0
 519              	.LBB434:
 520              	.LBI434:
 294:/Library/DaisyToolchain/0.2.0/arm/arm-none-eabi/include/c++/10.3.1/bits/std_function.h ****     };
 295:/Library/DaisyToolchain/0.2.0/arm/arm-none-eabi/include/c++/10.3.1/bits/std_function.h **** 
 296:/Library/DaisyToolchain/0.2.0/arm/arm-none-eabi/include/c++/10.3.1/bits/std_function.h ****   /**
 297:/Library/DaisyToolchain/0.2.0/arm/arm-none-eabi/include/c++/10.3.1/bits/std_function.h ****    *  @brief Primary class template for std::function.
 298:/Library/DaisyToolchain/0.2.0/arm/arm-none-eabi/include/c++/10.3.1/bits/std_function.h ****    *  @ingroup functors
 299:/Library/DaisyToolchain/0.2.0/arm/arm-none-eabi/include/c++/10.3.1/bits/std_function.h ****    *
 300:/Library/DaisyToolchain/0.2.0/arm/arm-none-eabi/include/c++/10.3.1/bits/std_function.h ****    *  Polymorphic function wrapper.
 301:/Library/DaisyToolchain/0.2.0/arm/arm-none-eabi/include/c++/10.3.1/bits/std_function.h ****    */
 302:/Library/DaisyToolchain/0.2.0/arm/arm-none-eabi/include/c++/10.3.1/bits/std_function.h ****   template<typename _Res, typename... _ArgTypes>
 303:/Library/DaisyToolchain/0.2.0/arm/arm-none-eabi/include/c++/10.3.1/bits/std_function.h ****     class function<_Res(_ArgTypes...)>
 521              		.loc 13 303 11 view .LVU111
 522              	.LBE434:
 523              		.loc 17 11 7 is_stmt 0 view .LVU112
ARM GAS  /var/folders/9s/8rp0_f2s1n31qbztm3b5_fdh0000gn/T//ccXta1BT.s 			page 36


 524 0000 10B5     		push	{r4, lr}
 525              		.cfi_def_cfa_offset 8
 526              		.cfi_offset 4, -8
 527              		.cfi_offset 14, -4
 528              		.loc 17 11 7 view .LVU113
 529 0002 0446     		mov	r4, r0
 530              	.LBB436:
 531              	.LBB435:
 532              		.loc 13 303 11 view .LVU114
 533 0004 2830     		adds	r0, r0, #40
 534              	.LVL26:
 535              		.loc 13 303 11 view .LVU115
 536 0006 FFF7FEFF 		bl	_ZNSt14_Function_baseD2Ev
 537              	.LVL27:
 538              		.loc 13 303 11 view .LVU116
 539              	.LBE435:
 540              	.LBE436:
 541              	.LBB437:
 542              	.LBI437:
 543              		.file 18 "lib/DaisySP/Source/Utility/metro.h"
   1:lib/DaisySP/Source/Utility/metro.h **** /*
   2:lib/DaisySP/Source/Utility/metro.h **** Copyright (c) 2020 Electrosmith, Corp
   3:lib/DaisySP/Source/Utility/metro.h **** 
   4:lib/DaisySP/Source/Utility/metro.h **** Use of this source code is governed by an MIT-style
   5:lib/DaisySP/Source/Utility/metro.h **** license that can be found in the LICENSE file or at
   6:lib/DaisySP/Source/Utility/metro.h **** https://opensource.org/licenses/MIT.
   7:lib/DaisySP/Source/Utility/metro.h **** */
   8:lib/DaisySP/Source/Utility/metro.h **** 
   9:lib/DaisySP/Source/Utility/metro.h **** #pragma once
  10:lib/DaisySP/Source/Utility/metro.h **** #ifndef DSY_METRO_H
  11:lib/DaisySP/Source/Utility/metro.h **** #define DSY_METRO_H
  12:lib/DaisySP/Source/Utility/metro.h **** #include <stdint.h>
  13:lib/DaisySP/Source/Utility/metro.h **** #ifdef __cplusplus
  14:lib/DaisySP/Source/Utility/metro.h **** 
  15:lib/DaisySP/Source/Utility/metro.h **** namespace daisysp
  16:lib/DaisySP/Source/Utility/metro.h **** {
  17:lib/DaisySP/Source/Utility/metro.h **** /** Creates a clock signal at a specific frequency.
  18:lib/DaisySP/Source/Utility/metro.h **** */
  19:lib/DaisySP/Source/Utility/metro.h **** class Metro
  20:lib/DaisySP/Source/Utility/metro.h **** {
  21:lib/DaisySP/Source/Utility/metro.h ****   public:
  22:lib/DaisySP/Source/Utility/metro.h ****     Metro() {}
  23:lib/DaisySP/Source/Utility/metro.h ****     ~Metro() {}
 544              		.loc 18 23 5 is_stmt 1 view .LVU117
 545              		.loc 18 23 5 is_stmt 0 view .LVU118
 546              	.LBE437:
 547              		.loc 17 11 7 view .LVU119
 548 000a 2046     		mov	r0, r4
 549 000c 10BD     		pop	{r4, pc}
 550              		.loc 17 11 7 view .LVU120
 551              		.cfi_endproc
 552              	.LFE6147:
 554              		.weak	_ZN11ArpeggiatorD1Ev
 555              		.thumb_set _ZN11ArpeggiatorD1Ev,_ZN11ArpeggiatorD2Ev
 556              		.section	.text._Z18InitializeHardwarev,"ax",%progbits
 557              		.align	1
 558              		.global	_Z18InitializeHardwarev
ARM GAS  /var/folders/9s/8rp0_f2s1n31qbztm3b5_fdh0000gn/T//ccXta1BT.s 			page 37


 559              		.syntax unified
 560              		.thumb
 561              		.thumb_func
 563              	_Z18InitializeHardwarev:
 564              	.LFB5343:
  39:Interface.cpp ****     // Initialize Daisy Seed hardware
 565              		.loc 16 39 27 is_stmt 1 view -0
 566              		.cfi_startproc
 567              		@ args = 0, pretend = 0, frame = 0
 568              		@ frame_needed = 0, uses_anonymous_args = 0
  41:Interface.cpp ****     hw.Init();
 569              		.loc 16 41 5 view .LVU122
  39:Interface.cpp ****     // Initialize Daisy Seed hardware
 570              		.loc 16 39 27 is_stmt 0 view .LVU123
 571 0000 10B5     		push	{r4, lr}
 572              		.cfi_def_cfa_offset 8
 573              		.cfi_offset 4, -8
 574              		.cfi_offset 14, -4
  41:Interface.cpp ****     hw.Init();
 575              		.loc 16 41 17 view .LVU124
 576 0002 0D48     		ldr	r0, .L26
 577 0004 FFF7FEFF 		bl	_ZN5daisy9DaisySeed9ConfigureEv
 578              	.LVL28:
  42:Interface.cpp ****     hw.SetAudioBlockSize(BLOCK_SIZE);
 579              		.loc 16 42 5 is_stmt 1 view .LVU125
  42:Interface.cpp ****     hw.SetAudioBlockSize(BLOCK_SIZE);
 580              		.loc 16 42 12 is_stmt 0 view .LVU126
 581 0008 0021     		movs	r1, #0
 582 000a 0B48     		ldr	r0, .L26
 583 000c FFF7FEFF 		bl	_ZN5daisy9DaisySeed4InitEb
 584              	.LVL29:
  43:Interface.cpp ****     sample_rate = hw.AudioSampleRate();
 585              		.loc 16 43 5 is_stmt 1 view .LVU127
  43:Interface.cpp ****     sample_rate = hw.AudioSampleRate();
 586              		.loc 16 43 25 is_stmt 0 view .LVU128
 587 0010 1021     		movs	r1, #16
 588 0012 0948     		ldr	r0, .L26
 589 0014 FFF7FEFF 		bl	_ZN5daisy9DaisySeed17SetAudioBlockSizeEj
 590              	.LVL30:
  44:Interface.cpp ****     hw.SetAudioSampleRate(SaiHandle::Config::SampleRate::SAI_48KHZ); // Using 48kHz now
 591              		.loc 16 44 5 is_stmt 1 view .LVU129
  44:Interface.cpp ****     hw.SetAudioSampleRate(SaiHandle::Config::SampleRate::SAI_48KHZ); // Using 48kHz now
 592              		.loc 16 44 17 is_stmt 0 view .LVU130
 593 0018 084C     		ldr	r4, .L26+4
  44:Interface.cpp ****     hw.SetAudioSampleRate(SaiHandle::Config::SampleRate::SAI_48KHZ); // Using 48kHz now
 594              		.loc 16 44 37 view .LVU131
 595 001a 0748     		ldr	r0, .L26
 596 001c FFF7FEFF 		bl	_ZN5daisy9DaisySeed15AudioSampleRateEv
 597              	.LVL31:
  45:Interface.cpp ****     sample_rate = hw.AudioSampleRate(); // Update sample_rate after setting it
 598              		.loc 16 45 26 view .LVU132
 599 0020 0321     		movs	r1, #3
 600 0022 0548     		ldr	r0, .L26
  44:Interface.cpp ****     hw.SetAudioSampleRate(SaiHandle::Config::SampleRate::SAI_48KHZ); // Using 48kHz now
 601              		.loc 16 44 17 view .LVU133
 602 0024 84ED000A 		vstr.32	s0, [r4]
  45:Interface.cpp ****     sample_rate = hw.AudioSampleRate(); // Update sample_rate after setting it
ARM GAS  /var/folders/9s/8rp0_f2s1n31qbztm3b5_fdh0000gn/T//ccXta1BT.s 			page 38


 603              		.loc 16 45 5 is_stmt 1 view .LVU134
  45:Interface.cpp ****     sample_rate = hw.AudioSampleRate(); // Update sample_rate after setting it
 604              		.loc 16 45 26 is_stmt 0 view .LVU135
 605 0028 FFF7FEFF 		bl	_ZN5daisy9DaisySeed18SetAudioSampleRateENS_9SaiHandle6Config10SampleRateE
 606              	.LVL32:
  46:Interface.cpp **** }
 607              		.loc 16 46 5 is_stmt 1 view .LVU136
  46:Interface.cpp **** }
 608              		.loc 16 46 37 is_stmt 0 view .LVU137
 609 002c 0248     		ldr	r0, .L26
 610 002e FFF7FEFF 		bl	_ZN5daisy9DaisySeed15AudioSampleRateEv
 611              	.LVL33:
  46:Interface.cpp **** }
 612              		.loc 16 46 17 view .LVU138
 613 0032 84ED000A 		vstr.32	s0, [r4]
  47:Interface.cpp **** 
 614              		.loc 16 47 1 view .LVU139
 615 0036 10BD     		pop	{r4, pc}
 616              	.L27:
 617              		.align	2
 618              	.L26:
 619 0038 00000000 		.word	.LANCHOR1
 620 003c 00000000 		.word	.LANCHOR2
 621              		.cfi_endproc
 622              	.LFE5343:
 624              		.section	.text._Z18InitializeControlsv,"ax",%progbits
 625              		.align	1
 626              		.global	_Z18InitializeControlsv
 627              		.syntax unified
 628              		.thumb
 629              		.thumb_func
 631              	_Z18InitializeControlsv:
 632              	.LFB5344:
  49:Interface.cpp ****     // --- Configure ADCs (12 Channels) ---
 633              		.loc 16 49 27 is_stmt 1 view -0
 634              		.cfi_startproc
 635              		@ args = 0, pretend = 0, frame = 256
 636              		@ frame_needed = 0, uses_anonymous_args = 0
  51:Interface.cpp ****     adc_config[0].InitSingle(hw.GetPin(15)); // ADC 0: Delay Time
 637              		.loc 16 51 5 view .LVU141
  52:Interface.cpp ****     adc_config[1].InitSingle(hw.GetPin(16)); // ADC 1: Delay Mix & Feedback
 638              		.loc 16 52 5 view .LVU142
  49:Interface.cpp ****     // --- Configure ADCs (12 Channels) ---
 639              		.loc 16 49 27 is_stmt 0 view .LVU143
 640 0000 30B5     		push	{r4, r5, lr}
 641              		.cfi_def_cfa_offset 12
 642              		.cfi_offset 4, -12
 643              		.cfi_offset 5, -8
 644              		.cfi_offset 14, -4
 645 0002 2DED028B 		vpush.64	{d8}
 646              		.cfi_def_cfa_offset 20
 647              		.cfi_offset 80, -20
 648              		.cfi_offset 81, -16
 649 0006 C1B0     		sub	sp, sp, #260
 650              		.cfi_def_cfa_offset 280
  52:Interface.cpp ****     adc_config[1].InitSingle(hw.GetPin(16)); // ADC 1: Delay Mix & Feedback
 651              		.loc 16 52 29 view .LVU144
ARM GAS  /var/folders/9s/8rp0_f2s1n31qbztm3b5_fdh0000gn/T//ccXta1BT.s 			page 39


 652 0008 0F20     		movs	r0, #15
 653 000a FFF7FEFF 		bl	_ZN5daisy9DaisySeed6GetPinEh
 654              	.LVL34:
  64:Interface.cpp ****     hw.adc.Start();
 655              		.loc 16 64 16 view .LVU145
 656 000e 9D4C     		ldr	r4, .L29
  52:Interface.cpp ****     adc_config[1].InitSingle(hw.GetPin(16)); // ADC 1: Delay Mix & Feedback
 657              		.loc 16 52 29 view .LVU146
 658 0010 ADF80000 		strh	r0, [sp]	@ movhi
 659 0014 0DA8     		add	r0, sp, #52
 660 0016 0099     		ldr	r1, [sp]
 661 0018 FFF7FEFF 		bl	_ZN5daisy16AdcChannelConfig10InitSingleE12dsy_gpio_pin
 662              	.LVL35:
  53:Interface.cpp ****     adc_config[2].InitSingle(hw.GetPin(17)); // ADC 2: Envelope Release
 663              		.loc 16 53 5 is_stmt 1 view .LVU147
  53:Interface.cpp ****     adc_config[2].InitSingle(hw.GetPin(17)); // ADC 2: Envelope Release
 664              		.loc 16 53 29 is_stmt 0 view .LVU148
 665 001c 1020     		movs	r0, #16
 666 001e FFF7FEFF 		bl	_ZN5daisy9DaisySeed6GetPinEh
 667              	.LVL36:
 668 0022 ADF80400 		strh	r0, [sp, #4]	@ movhi
 669 0026 0199     		ldr	r1, [sp, #4]
 670 0028 0DF14500 		add	r0, sp, #69
 671 002c FFF7FEFF 		bl	_ZN5daisy16AdcChannelConfig10InitSingleE12dsy_gpio_pin
 672              	.LVL37:
  54:Interface.cpp ****     adc_config[3].InitSingle(hw.GetPin(18)); // ADC 3: Envelope Attack
 673              		.loc 16 54 5 is_stmt 1 view .LVU149
  54:Interface.cpp ****     adc_config[3].InitSingle(hw.GetPin(18)); // ADC 3: Envelope Attack
 674              		.loc 16 54 29 is_stmt 0 view .LVU150
 675 0030 1120     		movs	r0, #17
 676 0032 FFF7FEFF 		bl	_ZN5daisy9DaisySeed6GetPinEh
 677              	.LVL38:
 678 0036 ADF80800 		strh	r0, [sp, #8]	@ movhi
 679 003a 0299     		ldr	r1, [sp, #8]
 680 003c 0DF15600 		add	r0, sp, #86
 681 0040 FFF7FEFF 		bl	_ZN5daisy16AdcChannelConfig10InitSingleE12dsy_gpio_pin
 682              	.LVL39:
  55:Interface.cpp ****     adc_config[4].InitSingle(hw.GetPin(19)); // ADC 4: Plaits Timbre
 683              		.loc 16 55 5 is_stmt 1 view .LVU151
  55:Interface.cpp ****     adc_config[4].InitSingle(hw.GetPin(19)); // ADC 4: Plaits Timbre
 684              		.loc 16 55 29 is_stmt 0 view .LVU152
 685 0044 1220     		movs	r0, #18
 686 0046 FFF7FEFF 		bl	_ZN5daisy9DaisySeed6GetPinEh
 687              	.LVL40:
 688 004a ADF80C00 		strh	r0, [sp, #12]	@ movhi
 689 004e 0399     		ldr	r1, [sp, #12]
 690 0050 0DF16700 		add	r0, sp, #103
 691 0054 FFF7FEFF 		bl	_ZN5daisy16AdcChannelConfig10InitSingleE12dsy_gpio_pin
 692              	.LVL41:
  56:Interface.cpp ****     adc_config[5].InitSingle(hw.GetPin(20)); // ADC 5: Plaits Harmonics
 693              		.loc 16 56 5 is_stmt 1 view .LVU153
  56:Interface.cpp ****     adc_config[5].InitSingle(hw.GetPin(20)); // ADC 5: Plaits Harmonics
 694              		.loc 16 56 29 is_stmt 0 view .LVU154
 695 0058 1320     		movs	r0, #19
 696 005a FFF7FEFF 		bl	_ZN5daisy9DaisySeed6GetPinEh
 697              	.LVL42:
 698 005e ADF81000 		strh	r0, [sp, #16]	@ movhi
ARM GAS  /var/folders/9s/8rp0_f2s1n31qbztm3b5_fdh0000gn/T//ccXta1BT.s 			page 40


 699 0062 0499     		ldr	r1, [sp, #16]
 700 0064 1EA8     		add	r0, sp, #120
 701 0066 FFF7FEFF 		bl	_ZN5daisy16AdcChannelConfig10InitSingleE12dsy_gpio_pin
 702              	.LVL43:
  57:Interface.cpp ****     adc_config[6].InitSingle(hw.GetPin(21)); // ADC 6: Plaits Morph
 703              		.loc 16 57 5 is_stmt 1 view .LVU155
  57:Interface.cpp ****     adc_config[6].InitSingle(hw.GetPin(21)); // ADC 6: Plaits Morph
 704              		.loc 16 57 29 is_stmt 0 view .LVU156
 705 006a 1420     		movs	r0, #20
 706 006c FFF7FEFF 		bl	_ZN5daisy9DaisySeed6GetPinEh
 707              	.LVL44:
 708 0070 ADF81400 		strh	r0, [sp, #20]	@ movhi
 709 0074 0599     		ldr	r1, [sp, #20]
 710 0076 0DF18900 		add	r0, sp, #137
 711 007a FFF7FEFF 		bl	_ZN5daisy16AdcChannelConfig10InitSingleE12dsy_gpio_pin
 712              	.LVL45:
  58:Interface.cpp ****     adc_config[7].InitSingle(hw.GetPin(22)); // ADC 7: Plaits Pitch
 713              		.loc 16 58 5 is_stmt 1 view .LVU157
  58:Interface.cpp ****     adc_config[7].InitSingle(hw.GetPin(22)); // ADC 7: Plaits Pitch
 714              		.loc 16 58 29 is_stmt 0 view .LVU158
 715 007e 1520     		movs	r0, #21
 716 0080 FFF7FEFF 		bl	_ZN5daisy9DaisySeed6GetPinEh
 717              	.LVL46:
 718 0084 ADF81800 		strh	r0, [sp, #24]	@ movhi
 719 0088 0699     		ldr	r1, [sp, #24]
 720 008a 0DF19A00 		add	r0, sp, #154
 721 008e FFF7FEFF 		bl	_ZN5daisy16AdcChannelConfig10InitSingleE12dsy_gpio_pin
 722              	.LVL47:
  59:Interface.cpp ****     adc_config[8].InitSingle(hw.GetPin(23)); // ADC 8: Arpeggiator Toggle Pad
 723              		.loc 16 59 5 is_stmt 1 view .LVU159
  59:Interface.cpp ****     adc_config[8].InitSingle(hw.GetPin(23)); // ADC 8: Arpeggiator Toggle Pad
 724              		.loc 16 59 29 is_stmt 0 view .LVU160
 725 0092 1620     		movs	r0, #22
 726 0094 FFF7FEFF 		bl	_ZN5daisy9DaisySeed6GetPinEh
 727              	.LVL48:
 728 0098 ADF81C00 		strh	r0, [sp, #28]	@ movhi
 729 009c 0799     		ldr	r1, [sp, #28]
 730 009e 0DF1AB00 		add	r0, sp, #171
 731 00a2 FFF7FEFF 		bl	_ZN5daisy16AdcChannelConfig10InitSingleE12dsy_gpio_pin
 732              	.LVL49:
  60:Interface.cpp ****     adc_config[9].InitSingle(hw.GetPin(24)); // ADC 9: Model Select Previous Pad
 733              		.loc 16 60 5 is_stmt 1 view .LVU161
  60:Interface.cpp ****     adc_config[9].InitSingle(hw.GetPin(24)); // ADC 9: Model Select Previous Pad
 734              		.loc 16 60 29 is_stmt 0 view .LVU162
 735 00a6 1720     		movs	r0, #23
 736 00a8 FFF7FEFF 		bl	_ZN5daisy9DaisySeed6GetPinEh
 737              	.LVL50:
 738 00ac ADF82000 		strh	r0, [sp, #32]	@ movhi
 739 00b0 0899     		ldr	r1, [sp, #32]
 740 00b2 2FA8     		add	r0, sp, #188
 741 00b4 FFF7FEFF 		bl	_ZN5daisy16AdcChannelConfig10InitSingleE12dsy_gpio_pin
 742              	.LVL51:
  61:Interface.cpp ****     adc_config[10].InitSingle(hw.GetPin(25)); // ADC 10: Model Select Next Pad
 743              		.loc 16 61 5 is_stmt 1 view .LVU163
  61:Interface.cpp ****     adc_config[10].InitSingle(hw.GetPin(25)); // ADC 10: Model Select Next Pad
 744              		.loc 16 61 29 is_stmt 0 view .LVU164
 745 00b8 1820     		movs	r0, #24
ARM GAS  /var/folders/9s/8rp0_f2s1n31qbztm3b5_fdh0000gn/T//ccXta1BT.s 			page 41


 746 00ba FFF7FEFF 		bl	_ZN5daisy9DaisySeed6GetPinEh
 747              	.LVL52:
 748 00be ADF82400 		strh	r0, [sp, #36]	@ movhi
 749 00c2 0999     		ldr	r1, [sp, #36]
 750 00c4 0DF1CD00 		add	r0, sp, #205
 751 00c8 FFF7FEFF 		bl	_ZN5daisy16AdcChannelConfig10InitSingleE12dsy_gpio_pin
 752              	.LVL53:
  62:Interface.cpp ****     adc_config[11].InitSingle(hw.GetPin(28)); // ADC 11: Mod Wheel Control
 753              		.loc 16 62 5 is_stmt 1 view .LVU165
  62:Interface.cpp ****     adc_config[11].InitSingle(hw.GetPin(28)); // ADC 11: Mod Wheel Control
 754              		.loc 16 62 30 is_stmt 0 view .LVU166
 755 00cc 1920     		movs	r0, #25
 756 00ce FFF7FEFF 		bl	_ZN5daisy9DaisySeed6GetPinEh
 757              	.LVL54:
 758 00d2 ADF82800 		strh	r0, [sp, #40]	@ movhi
 759 00d6 0A99     		ldr	r1, [sp, #40]
 760 00d8 0DF1DE00 		add	r0, sp, #222
 761 00dc FFF7FEFF 		bl	_ZN5daisy16AdcChannelConfig10InitSingleE12dsy_gpio_pin
 762              	.LVL55:
  63:Interface.cpp ****     hw.adc.Init(adc_config, 12); // Initialize 12 channels
 763              		.loc 16 63 5 is_stmt 1 view .LVU167
  63:Interface.cpp ****     hw.adc.Init(adc_config, 12); // Initialize 12 channels
 764              		.loc 16 63 30 is_stmt 0 view .LVU168
 765 00e0 1C20     		movs	r0, #28
 766 00e2 FFF7FEFF 		bl	_ZN5daisy9DaisySeed6GetPinEh
 767              	.LVL56:
 768 00e6 ADF82C00 		strh	r0, [sp, #44]	@ movhi
 769 00ea 0B99     		ldr	r1, [sp, #44]
 770 00ec 0DF1EF00 		add	r0, sp, #239
 771 00f0 FFF7FEFF 		bl	_ZN5daisy16AdcChannelConfig10InitSingleE12dsy_gpio_pin
 772              	.LVL57:
  64:Interface.cpp ****     hw.adc.Start();
 773              		.loc 16 64 5 is_stmt 1 view .LVU169
  64:Interface.cpp ****     hw.adc.Start();
 774              		.loc 16 64 16 is_stmt 0 view .LVU170
 775 00f4 0423     		movs	r3, #4
 776 00f6 0C22     		movs	r2, #12
 777 00f8 0DA9     		add	r1, sp, #52
 778 00fa 2046     		mov	r0, r4
  68:Interface.cpp ****     delay_mix_feedback_knob.Init(hw.adc.GetPtr(1), sample_rate); // ADC 1
 779              		.loc 16 68 25 view .LVU171
 780 00fc 624D     		ldr	r5, .L29+4
  64:Interface.cpp ****     hw.adc.Start();
 781              		.loc 16 64 16 view .LVU172
 782 00fe FFF7FEFF 		bl	_ZN5daisy9AdcHandle4InitEPNS_16AdcChannelConfigEjNS0_12OverSamplingE
 783              	.LVL58:
  65:Interface.cpp **** 
 784              		.loc 16 65 5 is_stmt 1 view .LVU173
  65:Interface.cpp **** 
 785              		.loc 16 65 17 is_stmt 0 view .LVU174
 786 0102 2046     		mov	r0, r4
 787 0104 FFF7FEFF 		bl	_ZN5daisy9AdcHandle5StartEv
 788              	.LVL59:
  68:Interface.cpp ****     delay_mix_feedback_knob.Init(hw.adc.GetPtr(1), sample_rate); // ADC 1
 789              		.loc 16 68 5 is_stmt 1 view .LVU175
  68:Interface.cpp ****     delay_mix_feedback_knob.Init(hw.adc.GetPtr(1), sample_rate); // ADC 1
 790              		.loc 16 68 25 is_stmt 0 view .LVU176
ARM GAS  /var/folders/9s/8rp0_f2s1n31qbztm3b5_fdh0000gn/T//ccXta1BT.s 			page 42


 791 0108 0021     		movs	r1, #0
 792 010a 2046     		mov	r0, r4
 793 010c 9FED5F8A 		vldr.32	s16, .L29+8
 794 0110 FFF7FEFF 		bl	_ZNK5daisy9AdcHandle6GetPtrEh
 795              	.LVL60:
 796 0114 0023     		movs	r3, #0
 797 0116 F0EE480A 		vmov.f32	s1, s16
 798 011a 95ED000A 		vldr.32	s0, [r5]
 799 011e 1A46     		mov	r2, r3
 800 0120 0146     		mov	r1, r0
 801 0122 5B48     		ldr	r0, .L29+12
 802 0124 FFF7FEFF 		bl	_ZN5daisy13AnalogControl4InitEPtfbbf
 803              	.LVL61:
  69:Interface.cpp ****     env_release_knob.Init(hw.adc.GetPtr(2), sample_rate);       // ADC 2
 804              		.loc 16 69 5 is_stmt 1 view .LVU177
  69:Interface.cpp ****     env_release_knob.Init(hw.adc.GetPtr(2), sample_rate);       // ADC 2
 805              		.loc 16 69 33 is_stmt 0 view .LVU178
 806 0128 0121     		movs	r1, #1
 807 012a 2046     		mov	r0, r4
 808 012c FFF7FEFF 		bl	_ZNK5daisy9AdcHandle6GetPtrEh
 809              	.LVL62:
 810 0130 0023     		movs	r3, #0
 811 0132 F0EE480A 		vmov.f32	s1, s16
 812 0136 95ED000A 		vldr.32	s0, [r5]
 813 013a 1A46     		mov	r2, r3
 814 013c 0146     		mov	r1, r0
 815 013e 5548     		ldr	r0, .L29+16
 816 0140 FFF7FEFF 		bl	_ZN5daisy13AnalogControl4InitEPtfbbf
 817              	.LVL63:
  70:Interface.cpp ****     env_attack_knob.Init(hw.adc.GetPtr(3), sample_rate);        // ADC 3
 818              		.loc 16 70 5 is_stmt 1 view .LVU179
  70:Interface.cpp ****     env_attack_knob.Init(hw.adc.GetPtr(3), sample_rate);        // ADC 3
 819              		.loc 16 70 26 is_stmt 0 view .LVU180
 820 0144 0221     		movs	r1, #2
 821 0146 2046     		mov	r0, r4
 822 0148 FFF7FEFF 		bl	_ZNK5daisy9AdcHandle6GetPtrEh
 823              	.LVL64:
 824 014c 0023     		movs	r3, #0
 825 014e F0EE480A 		vmov.f32	s1, s16
 826 0152 95ED000A 		vldr.32	s0, [r5]
 827 0156 1A46     		mov	r2, r3
 828 0158 0146     		mov	r1, r0
 829 015a 4F48     		ldr	r0, .L29+20
 830 015c FFF7FEFF 		bl	_ZN5daisy13AnalogControl4InitEPtfbbf
 831              	.LVL65:
  71:Interface.cpp ****     timbre_knob.Init(hw.adc.GetPtr(4), sample_rate);            // ADC 4
 832              		.loc 16 71 5 is_stmt 1 view .LVU181
  71:Interface.cpp ****     timbre_knob.Init(hw.adc.GetPtr(4), sample_rate);            // ADC 4
 833              		.loc 16 71 25 is_stmt 0 view .LVU182
 834 0160 0321     		movs	r1, #3
 835 0162 2046     		mov	r0, r4
 836 0164 FFF7FEFF 		bl	_ZNK5daisy9AdcHandle6GetPtrEh
 837              	.LVL66:
 838 0168 0023     		movs	r3, #0
 839 016a F0EE480A 		vmov.f32	s1, s16
 840 016e 95ED000A 		vldr.32	s0, [r5]
 841 0172 1A46     		mov	r2, r3
ARM GAS  /var/folders/9s/8rp0_f2s1n31qbztm3b5_fdh0000gn/T//ccXta1BT.s 			page 43


 842 0174 0146     		mov	r1, r0
 843 0176 4948     		ldr	r0, .L29+24
 844 0178 FFF7FEFF 		bl	_ZN5daisy13AnalogControl4InitEPtfbbf
 845              	.LVL67:
  72:Interface.cpp ****     harmonics_knob.Init(hw.adc.GetPtr(5), sample_rate);         // ADC 5
 846              		.loc 16 72 5 is_stmt 1 view .LVU183
  72:Interface.cpp ****     harmonics_knob.Init(hw.adc.GetPtr(5), sample_rate);         // ADC 5
 847              		.loc 16 72 21 is_stmt 0 view .LVU184
 848 017c 0421     		movs	r1, #4
 849 017e 2046     		mov	r0, r4
 850 0180 FFF7FEFF 		bl	_ZNK5daisy9AdcHandle6GetPtrEh
 851              	.LVL68:
 852 0184 0023     		movs	r3, #0
 853 0186 F0EE480A 		vmov.f32	s1, s16
 854 018a 95ED000A 		vldr.32	s0, [r5]
 855 018e 1A46     		mov	r2, r3
 856 0190 0146     		mov	r1, r0
 857 0192 4348     		ldr	r0, .L29+28
 858 0194 FFF7FEFF 		bl	_ZN5daisy13AnalogControl4InitEPtfbbf
 859              	.LVL69:
  73:Interface.cpp ****     morph_knob.Init(hw.adc.GetPtr(6), sample_rate);             // ADC 6
 860              		.loc 16 73 5 is_stmt 1 view .LVU185
  73:Interface.cpp ****     morph_knob.Init(hw.adc.GetPtr(6), sample_rate);             // ADC 6
 861              		.loc 16 73 24 is_stmt 0 view .LVU186
 862 0198 0521     		movs	r1, #5
 863 019a 2046     		mov	r0, r4
 864 019c FFF7FEFF 		bl	_ZNK5daisy9AdcHandle6GetPtrEh
 865              	.LVL70:
 866 01a0 0023     		movs	r3, #0
 867 01a2 F0EE480A 		vmov.f32	s1, s16
 868 01a6 95ED000A 		vldr.32	s0, [r5]
 869 01aa 1A46     		mov	r2, r3
 870 01ac 0146     		mov	r1, r0
 871 01ae 3D48     		ldr	r0, .L29+32
 872 01b0 FFF7FEFF 		bl	_ZN5daisy13AnalogControl4InitEPtfbbf
 873              	.LVL71:
  74:Interface.cpp ****     pitch_knob.Init(hw.adc.GetPtr(7), sample_rate);             // ADC 7
 874              		.loc 16 74 5 is_stmt 1 view .LVU187
  74:Interface.cpp ****     pitch_knob.Init(hw.adc.GetPtr(7), sample_rate);             // ADC 7
 875              		.loc 16 74 20 is_stmt 0 view .LVU188
 876 01b4 0621     		movs	r1, #6
 877 01b6 2046     		mov	r0, r4
 878 01b8 FFF7FEFF 		bl	_ZNK5daisy9AdcHandle6GetPtrEh
 879              	.LVL72:
 880 01bc 0023     		movs	r3, #0
 881 01be F0EE480A 		vmov.f32	s1, s16
 882 01c2 95ED000A 		vldr.32	s0, [r5]
 883 01c6 1A46     		mov	r2, r3
 884 01c8 0146     		mov	r1, r0
 885 01ca 3748     		ldr	r0, .L29+36
 886 01cc FFF7FEFF 		bl	_ZN5daisy13AnalogControl4InitEPtfbbf
 887              	.LVL73:
  75:Interface.cpp ****     arp_pad.Init(hw.adc.GetPtr(8), sample_rate);               // ADC 8
 888              		.loc 16 75 5 is_stmt 1 view .LVU189
  75:Interface.cpp ****     arp_pad.Init(hw.adc.GetPtr(8), sample_rate);               // ADC 8
 889              		.loc 16 75 20 is_stmt 0 view .LVU190
 890 01d0 0721     		movs	r1, #7
ARM GAS  /var/folders/9s/8rp0_f2s1n31qbztm3b5_fdh0000gn/T//ccXta1BT.s 			page 44


 891 01d2 2046     		mov	r0, r4
 892 01d4 FFF7FEFF 		bl	_ZNK5daisy9AdcHandle6GetPtrEh
 893              	.LVL74:
 894 01d8 0023     		movs	r3, #0
 895 01da F0EE480A 		vmov.f32	s1, s16
 896 01de 95ED000A 		vldr.32	s0, [r5]
 897 01e2 1A46     		mov	r2, r3
 898 01e4 0146     		mov	r1, r0
 899 01e6 3148     		ldr	r0, .L29+40
 900 01e8 FFF7FEFF 		bl	_ZN5daisy13AnalogControl4InitEPtfbbf
 901              	.LVL75:
  76:Interface.cpp ****     model_prev_pad.Init(hw.adc.GetPtr(9), sample_rate);        // ADC 9
 902              		.loc 16 76 5 is_stmt 1 view .LVU191
  76:Interface.cpp ****     model_prev_pad.Init(hw.adc.GetPtr(9), sample_rate);        // ADC 9
 903              		.loc 16 76 17 is_stmt 0 view .LVU192
 904 01ec 0821     		movs	r1, #8
 905 01ee 2046     		mov	r0, r4
 906 01f0 FFF7FEFF 		bl	_ZNK5daisy9AdcHandle6GetPtrEh
 907              	.LVL76:
 908 01f4 0023     		movs	r3, #0
 909 01f6 F0EE480A 		vmov.f32	s1, s16
 910 01fa 95ED000A 		vldr.32	s0, [r5]
 911 01fe 1A46     		mov	r2, r3
 912 0200 0146     		mov	r1, r0
 913 0202 2B48     		ldr	r0, .L29+44
 914 0204 FFF7FEFF 		bl	_ZN5daisy13AnalogControl4InitEPtfbbf
 915              	.LVL77:
  77:Interface.cpp ****     model_next_pad.Init(hw.adc.GetPtr(10), sample_rate);       // ADC 10
 916              		.loc 16 77 5 is_stmt 1 view .LVU193
  77:Interface.cpp ****     model_next_pad.Init(hw.adc.GetPtr(10), sample_rate);       // ADC 10
 917              		.loc 16 77 24 is_stmt 0 view .LVU194
 918 0208 0921     		movs	r1, #9
 919 020a 2046     		mov	r0, r4
 920 020c FFF7FEFF 		bl	_ZNK5daisy9AdcHandle6GetPtrEh
 921              	.LVL78:
 922 0210 0023     		movs	r3, #0
 923 0212 F0EE480A 		vmov.f32	s1, s16
 924 0216 95ED000A 		vldr.32	s0, [r5]
 925 021a 1A46     		mov	r2, r3
 926 021c 0146     		mov	r1, r0
 927 021e 2548     		ldr	r0, .L29+48
 928 0220 FFF7FEFF 		bl	_ZN5daisy13AnalogControl4InitEPtfbbf
 929              	.LVL79:
  78:Interface.cpp ****     mod_wheel.Init(hw.adc.GetPtr(11), sample_rate);            // ADC 11
 930              		.loc 16 78 5 is_stmt 1 view .LVU195
  78:Interface.cpp ****     mod_wheel.Init(hw.adc.GetPtr(11), sample_rate);            // ADC 11
 931              		.loc 16 78 24 is_stmt 0 view .LVU196
 932 0224 0A21     		movs	r1, #10
 933 0226 2046     		mov	r0, r4
 934 0228 FFF7FEFF 		bl	_ZNK5daisy9AdcHandle6GetPtrEh
 935              	.LVL80:
 936 022c 0023     		movs	r3, #0
 937 022e F0EE480A 		vmov.f32	s1, s16
 938 0232 95ED000A 		vldr.32	s0, [r5]
 939 0236 1A46     		mov	r2, r3
 940 0238 0146     		mov	r1, r0
 941 023a 1F48     		ldr	r0, .L29+52
ARM GAS  /var/folders/9s/8rp0_f2s1n31qbztm3b5_fdh0000gn/T//ccXta1BT.s 			page 45


 942 023c FFF7FEFF 		bl	_ZN5daisy13AnalogControl4InitEPtfbbf
 943              	.LVL81:
  79:Interface.cpp **** 
 944              		.loc 16 79 5 is_stmt 1 view .LVU197
  79:Interface.cpp **** 
 945              		.loc 16 79 19 is_stmt 0 view .LVU198
 946 0240 0B21     		movs	r1, #11
 947 0242 2046     		mov	r0, r4
 948 0244 FFF7FEFF 		bl	_ZNK5daisy9AdcHandle6GetPtrEh
 949              	.LVL82:
 950 0248 0023     		movs	r3, #0
 951 024a F0EE480A 		vmov.f32	s1, s16
 952 024e 0146     		mov	r1, r0
 953 0250 1A46     		mov	r2, r3
 954 0252 95ED000A 		vldr.32	s0, [r5]
 955 0256 1948     		ldr	r0, .L29+56
 956 0258 FFF7FEFF 		bl	_ZN5daisy13AnalogControl4InitEPtfbbf
 957              	.LVL83:
  82:Interface.cpp **** }
 958              		.loc 16 82 5 is_stmt 1 view .LVU199
  82:Interface.cpp **** }
 959              		.loc 16 82 16 is_stmt 0 view .LVU200
 960 025c 1B20     		movs	r0, #27
 961 025e FFF7FEFF 		bl	_ZN5daisy9DaisySeed6GetPinEh
 962              	.LVL84:
 963 0262 95ED000A 		vldr.32	s0, [r5]
 964 0266 DFED167A 		vldr.32	s15, .L29+60
 965 026a ADF83000 		strh	r0, [sp, #48]	@ movhi
 966 026e 80EE270A 		vdiv.f32	s0, s0, s15
 967 0272 0C99     		ldr	r1, [sp, #48]
 968 0274 1348     		ldr	r0, .L29+64
 969 0276 FFF7FEFF 		bl	_ZN5daisy6Switch4InitE12dsy_gpio_pinf
 970              	.LVL85:
  83:Interface.cpp **** 
 971              		.loc 16 83 1 view .LVU201
 972 027a 41B0     		add	sp, sp, #260
 973              		.cfi_def_cfa_offset 20
 974              		@ sp needed
 975 027c BDEC028B 		vldm	sp!, {d8}
 976              		.cfi_restore 80
 977              		.cfi_restore 81
 978              		.cfi_def_cfa_offset 12
 979 0280 30BD     		pop	{r4, r5, pc}
 980              	.L30:
 981 0282 00BF     		.align	2
 982              	.L29:
 983 0284 18000000 		.word	.LANCHOR1+24
 984 0288 00000000 		.word	.LANCHOR2
 985 028c 6F12033B 		.word	990057071
 986 0290 00000000 		.word	.LANCHOR3
 987 0294 00000000 		.word	.LANCHOR4
 988 0298 00000000 		.word	.LANCHOR5
 989 029c 00000000 		.word	.LANCHOR6
 990 02a0 00000000 		.word	.LANCHOR7
 991 02a4 00000000 		.word	.LANCHOR8
 992 02a8 00000000 		.word	.LANCHOR9
 993 02ac 00000000 		.word	.LANCHOR10
ARM GAS  /var/folders/9s/8rp0_f2s1n31qbztm3b5_fdh0000gn/T//ccXta1BT.s 			page 46


 994 02b0 00000000 		.word	.LANCHOR11
 995 02b4 00000000 		.word	.LANCHOR12
 996 02b8 00000000 		.word	.LANCHOR13
 997 02bc 00000000 		.word	.LANCHOR14
 998 02c0 00004042 		.word	1111490560
 999 02c4 00000000 		.word	.LANCHOR15
 1000              		.cfi_endproc
 1001              	.LFE5344:
 1003              		.section	.text._Z21InitializeTouchSensorv,"ax",%progbits
 1004              		.align	1
 1005              		.global	_Z21InitializeTouchSensorv
 1006              		.syntax unified
 1007              		.thumb
 1008              		.thumb_func
 1010              	_Z21InitializeTouchSensorv:
 1011              	.LFB5345:
  85:Interface.cpp ****     // --- Initialize MPR121 ---
 1012              		.loc 16 85 30 is_stmt 1 view -0
 1013              		.cfi_startproc
 1014              		@ args = 0, pretend = 0, frame = 24
 1015              		@ frame_needed = 0, uses_anonymous_args = 0
  87:Interface.cpp ****     touch_config.Defaults();
 1016              		.loc 16 87 5 view .LVU203
  85:Interface.cpp ****     // --- Initialize MPR121 ---
 1017              		.loc 16 85 30 is_stmt 0 view .LVU204
 1018 0000 7FB5     		push	{r0, r1, r2, r3, r4, r5, r6, lr}
 1019              		.cfi_def_cfa_offset 32
 1020              		.cfi_offset 14, -4
 1021              	.LVL86:
 1022              	.LBB448:
 1023              	.LBI448:
  58:mpr121_daisy.h **** 
  59:mpr121_daisy.h ****     struct Config
 1024              		.loc 8 59 12 is_stmt 1 view .LVU205
 1025              	.LBB449:
 1026              	.LBI449:
 1027              		.file 19 "lib/libdaisy/src/per/i2c.h"
   1:lib/libdaisy/src/per/i2c.h **** #pragma once
   2:lib/libdaisy/src/per/i2c.h **** #include "daisy_core.h"
   3:lib/libdaisy/src/per/i2c.h **** 
   4:lib/libdaisy/src/per/i2c.h **** namespace daisy
   5:lib/libdaisy/src/per/i2c.h **** {
   6:lib/libdaisy/src/per/i2c.h **** /** A handle for interacting with an I2C peripheral. This is a dumb
   7:lib/libdaisy/src/per/i2c.h ****  *  gateway that internally points to one of the four I2C peripherals
   8:lib/libdaisy/src/per/i2c.h ****  *  after it was initialised. It can then be copied and passed around.
   9:lib/libdaisy/src/per/i2c.h ****  *  Use an I2CHandle like this:
  10:lib/libdaisy/src/per/i2c.h ****  *  
  11:lib/libdaisy/src/per/i2c.h ****  *      // setup the configuration
  12:lib/libdaisy/src/per/i2c.h ****  *      I2CHandle::Config i2c_conf;
  13:lib/libdaisy/src/per/i2c.h ****  *      i2c_conf.periph = I2CHandle::Config::Peripheral::I2C_1;
  14:lib/libdaisy/src/per/i2c.h ****  *      i2c_conf.speed  = I2CHandle::Config::Speed::I2C_400KHZ;
  15:lib/libdaisy/src/per/i2c.h ****  *      i2c_conf.mode   = I2CHandle::Config::Mode::Master;
  16:lib/libdaisy/src/per/i2c.h ****  *      i2c_conf.pin_config.scl  = {DSY_GPIOB, 8};
  17:lib/libdaisy/src/per/i2c.h ****  *      i2c_conf.pin_config.sda  = {DSY_GPIOB, 9};
  18:lib/libdaisy/src/per/i2c.h ****  *      // initialise the peripheral
  19:lib/libdaisy/src/per/i2c.h ****  *      I2CHandle i2c;
  20:lib/libdaisy/src/per/i2c.h ****  *      i2c.Init(i2c_conf);
ARM GAS  /var/folders/9s/8rp0_f2s1n31qbztm3b5_fdh0000gn/T//ccXta1BT.s 			page 47


  21:lib/libdaisy/src/per/i2c.h ****  *      // now i2c points to the corresponding peripheral and can be used.
  22:lib/libdaisy/src/per/i2c.h ****  *      i2c.TransmitBlocking( ... );
  23:lib/libdaisy/src/per/i2c.h ****  */
  24:lib/libdaisy/src/per/i2c.h **** class I2CHandle
  25:lib/libdaisy/src/per/i2c.h **** {
  26:lib/libdaisy/src/per/i2c.h ****   public:
  27:lib/libdaisy/src/per/i2c.h ****     /** Contains settings for initialising an I2C interface. */
  28:lib/libdaisy/src/per/i2c.h ****     struct Config
 1028              		.loc 19 28 12 view .LVU206
 1029              	.LBB450:
 1030 0002 1023     		movs	r3, #16
 1031              	.LBE450:
 1032              	.LBE449:
 1033              	.LBE448:
 1034              	.LBB453:
 1035              	.LBB454:
  60:mpr121_daisy.h ****     {
  61:mpr121_daisy.h ****         I2CHandle::Config i2c_config;
  62:mpr121_daisy.h ****         uint8_t          i2c_address;
  63:mpr121_daisy.h **** 
  64:mpr121_daisy.h ****         void Defaults()
  65:mpr121_daisy.h ****         {
  66:mpr121_daisy.h ****             i2c_config.periph = I2CHandle::Config::Peripheral::I2C_1;
  67:mpr121_daisy.h ****             i2c_config.speed  = I2CHandle::Config::Speed::I2C_400KHZ;
 1036              		.loc 8 67 31 is_stmt 0 view .LVU207
 1037 0004 0122     		movs	r2, #1
 1038              	.LBE454:
 1039              	.LBE453:
  89:Interface.cpp ****         while(1) { hw.SetLed(true); System::Delay(50); hw.SetLed(false); System::Delay(50); }
 1040              		.loc 16 89 27 view .LVU208
 1041 0006 6946     		mov	r1, sp
 1042 0008 1548     		ldr	r0, .L34
 1043              	.LBB456:
 1044              	.LBB452:
 1045              	.LBB451:
 1046              		.loc 19 28 12 view .LVU209
 1047 000a 8DF81030 		strb	r3, [sp, #16]
 1048              	.LVL87:
 1049              		.loc 19 28 12 view .LVU210
 1050              	.LBE451:
 1051              	.LBE452:
 1052              	.LBE456:
  88:Interface.cpp ****     if (!touch_sensor.Init(touch_config)) {
 1053              		.loc 16 88 5 is_stmt 1 view .LVU211
 1054              	.LBB457:
 1055              	.LBI453:
  64:mpr121_daisy.h ****         {
 1056              		.loc 8 64 14 view .LVU212
 1057              	.LBB455:
  66:mpr121_daisy.h ****             i2c_config.speed  = I2CHandle::Config::Speed::I2C_400KHZ;
 1058              		.loc 8 66 13 view .LVU213
  66:mpr121_daisy.h ****             i2c_config.speed  = I2CHandle::Config::Speed::I2C_400KHZ;
 1059              		.loc 8 66 31 is_stmt 0 view .LVU214
 1060 000e 0023     		movs	r3, #0
  68:mpr121_daisy.h ****             i2c_config.mode   = I2CHandle::Config::Mode::I2C_MASTER;
 1061              		.loc 8 68 31 view .LVU215
 1062 0010 CDE90223 		strd	r2, r3, [sp, #8]
ARM GAS  /var/folders/9s/8rp0_f2s1n31qbztm3b5_fdh0000gn/T//ccXta1BT.s 			page 48


  66:mpr121_daisy.h ****             i2c_config.speed  = I2CHandle::Config::Speed::I2C_400KHZ;
 1063              		.loc 8 66 31 view .LVU216
 1064 0014 0093     		str	r3, [sp]
  67:mpr121_daisy.h ****             i2c_config.mode   = I2CHandle::Config::Mode::I2C_MASTER;
 1065              		.loc 8 67 13 is_stmt 1 view .LVU217
  69:mpr121_daisy.h ****             i2c_config.pin_config.scl = {DSY_GPIOB, 8};
 1066              		.loc 8 69 13 view .LVU218
 1067              		.loc 8 69 39 is_stmt 0 view .LVU219
 1068 0016 134B     		ldr	r3, .L34+4
 1069 0018 1A88     		ldrh	r2, [r3]	@ unaligned
  70:mpr121_daisy.h ****             i2c_config.pin_config.sda = {DSY_GPIOB, 9};
 1070              		.loc 8 70 39 view .LVU220
 1071 001a 5B88     		ldrh	r3, [r3, #2]	@ unaligned
  69:mpr121_daisy.h ****             i2c_config.pin_config.scl = {DSY_GPIOB, 8};
 1072              		.loc 8 69 39 view .LVU221
 1073 001c ADF80420 		strh	r2, [sp, #4]	@ unaligned
 1074              		.loc 8 70 13 is_stmt 1 view .LVU222
 1075              		.loc 8 70 39 is_stmt 0 view .LVU223
 1076 0020 ADF80630 		strh	r3, [sp, #6]	@ unaligned
  71:mpr121_daisy.h ****             i2c_address               = MPR121_I2CADDR_DEFAULT;
 1077              		.loc 8 71 13 is_stmt 1 view .LVU224
 1078              		.loc 8 71 39 is_stmt 0 view .LVU225
 1079 0024 5A23     		movs	r3, #90
 1080 0026 8DF81430 		strb	r3, [sp, #20]
 1081              	.LVL88:
 1082              		.loc 8 71 39 view .LVU226
 1083              	.LBE455:
 1084              	.LBE457:
  89:Interface.cpp ****         while(1) { hw.SetLed(true); System::Delay(50); hw.SetLed(false); System::Delay(50); }
 1085              		.loc 16 89 5 is_stmt 1 view .LVU227
  89:Interface.cpp ****         while(1) { hw.SetLed(true); System::Delay(50); hw.SetLed(false); System::Delay(50); }
 1086              		.loc 16 89 27 is_stmt 0 view .LVU228
 1087 002a FFF7FEFF 		bl	_ZN6Mpr1214InitERKNS_6ConfigE
 1088              	.LVL89:
  89:Interface.cpp ****         while(1) { hw.SetLed(true); System::Delay(50); hw.SetLed(false); System::Delay(50); }
 1089              		.loc 16 89 5 view .LVU229
 1090 002e 70B9     		cbnz	r0, .L32
 1091              	.L33:
  90:Interface.cpp ****     }
 1092              		.loc 16 90 9 is_stmt 1 discriminator 1 view .LVU230
  90:Interface.cpp ****     }
 1093              		.loc 16 90 20 discriminator 1 view .LVU231
  90:Interface.cpp ****     }
 1094              		.loc 16 90 29 is_stmt 0 discriminator 1 view .LVU232
 1095 0030 0121     		movs	r1, #1
 1096 0032 0D48     		ldr	r0, .L34+8
 1097 0034 FFF7FEFF 		bl	_ZN5daisy9DaisySeed6SetLedEb
 1098              	.LVL90:
  90:Interface.cpp ****     }
 1099              		.loc 16 90 37 is_stmt 1 discriminator 1 view .LVU233
  90:Interface.cpp ****     }
 1100              		.loc 16 90 50 is_stmt 0 discriminator 1 view .LVU234
 1101 0038 3220     		movs	r0, #50
 1102 003a FFF7FEFF 		bl	_ZN5daisy6System5DelayEm
 1103              	.LVL91:
  90:Interface.cpp ****     }
 1104              		.loc 16 90 56 is_stmt 1 discriminator 1 view .LVU235
ARM GAS  /var/folders/9s/8rp0_f2s1n31qbztm3b5_fdh0000gn/T//ccXta1BT.s 			page 49


  90:Interface.cpp ****     }
 1105              		.loc 16 90 65 is_stmt 0 discriminator 1 view .LVU236
 1106 003e 0021     		movs	r1, #0
 1107 0040 0948     		ldr	r0, .L34+8
 1108 0042 FFF7FEFF 		bl	_ZN5daisy9DaisySeed6SetLedEb
 1109              	.LVL92:
  90:Interface.cpp ****     }
 1110              		.loc 16 90 74 is_stmt 1 discriminator 1 view .LVU237
  90:Interface.cpp ****     }
 1111              		.loc 16 90 87 is_stmt 0 discriminator 1 view .LVU238
 1112 0046 3220     		movs	r0, #50
 1113 0048 FFF7FEFF 		bl	_ZN5daisy6System5DelayEm
 1114              	.LVL93:
  90:Interface.cpp ****     }
 1115              		.loc 16 90 9 is_stmt 1 discriminator 1 view .LVU239
 1116 004c F0E7     		b	.L33
 1117              	.L32:
 1118              	.LBB458:
 1119              	.LBI458:
  85:Interface.cpp ****     // --- Initialize MPR121 ---
 1120              		.loc 16 85 6 view .LVU240
 1121              	.LBB459:
  93:Interface.cpp **** }
 1122              		.loc 16 93 5 view .LVU241
  93:Interface.cpp **** }
 1123              		.loc 16 93 31 is_stmt 0 view .LVU242
 1124 004e 0322     		movs	r2, #3
 1125 0050 0621     		movs	r1, #6
 1126 0052 0348     		ldr	r0, .L34
 1127 0054 FFF7FEFF 		bl	_ZN6Mpr12113SetThresholdsEhh
 1128              	.LVL94:
 1129              	.LBE459:
 1130              	.LBE458:
  94:Interface.cpp **** 
 1131              		.loc 16 94 1 view .LVU243
 1132 0058 07B0     		add	sp, sp, #28
 1133              		.cfi_def_cfa_offset 4
 1134              		@ sp needed
 1135 005a 5DF804FB 		ldr	pc, [sp], #4
 1136              	.L35:
 1137 005e 00BF     		.align	2
 1138              	.L34:
 1139 0060 00000000 		.word	.LANCHOR17
 1140 0064 00000000 		.word	.LANCHOR16
 1141 0068 00000000 		.word	.LANCHOR1
 1142              		.cfi_endproc
 1143              	.LFE5345:
 1145              		.section	.rodata._Z8Bootloadv.str1.1,"aMS",%progbits,1
 1146              	.LC2:
 1147 0000 456E7465 		.ascii	"Entering bootloader (ADC combo)...\000"
 1147      72696E67 
 1147      20626F6F 
 1147      746C6F61 
 1147      64657220 
 1148              		.section	.text._Z8Bootloadv,"ax",%progbits
 1149              		.align	1
 1150              		.global	_Z8Bootloadv
ARM GAS  /var/folders/9s/8rp0_f2s1n31qbztm3b5_fdh0000gn/T//ccXta1BT.s 			page 50


 1151              		.syntax unified
 1152              		.thumb
 1153              		.thumb_func
 1155              	_Z8Bootloadv:
 1156              	.LFB5357:
 130:Interface.cpp ****         }
 131:Interface.cpp ****     });
 132:Interface.cpp ****     
 133:Interface.cpp ****     // --- Start Audio ---
 134:Interface.cpp ****     hw.StartAudio(AudioCallback);
 135:Interface.cpp ****     
 136:Interface.cpp ****     // --- Serial Log (Needs to be started for USB reading) ---
 137:Interface.cpp ****     hw.StartLog(false); // Start log immediately (non-blocking)
 138:Interface.cpp ****     
 139:Interface.cpp ****     hw.PrintLine("Plaits Synth Started - Ready for Bootloader CMD");
 140:Interface.cpp ****     char settings[64];
 141:Interface.cpp ****     // Print Max Voices (compile time)
 142:Interface.cpp ****     sprintf(settings, "Max Voices: %d | Block: %d | SR: %d", NUM_VOICES, BLOCK_SIZE, (int)sample_ra
 143:Interface.cpp ****     hw.PrintLine(settings);
 144:Interface.cpp ****     sprintf(settings, "Engine Range: 0-%d", MAX_ENGINE_INDEX);
 145:Interface.cpp ****     hw.PrintLine(settings);
 146:Interface.cpp ****     sprintf(settings, "Mode: %s", (MAX_ENGINE_INDEX <=3) ? "Poly (0-3)" : "Dynamic Poly"); // Indic
 147:Interface.cpp ****     hw.PrintLine(settings);
 148:Interface.cpp ****     hw.PrintLine("----------------");
 149:Interface.cpp **** }
 150:Interface.cpp **** 
 151:Interface.cpp **** // --- User Interface Functions ---
 152:Interface.cpp **** void Bootload() {
 1157              		.loc 16 152 17 is_stmt 1 view -0
 1158              		.cfi_startproc
 1159              		@ args = 0, pretend = 0, frame = 0
 1160              		@ frame_needed = 0, uses_anonymous_args = 0
 153:Interface.cpp ****     // Bootloader via ADC: pads on ADC 8, 9, and 10 pressed simultaneously at any time
 154:Interface.cpp ****     if (arp_pad.GetRawFloat() > 0.5f &&
 1161              		.loc 16 154 5 view .LVU245
 1162              	.LBB468:
 1163              	.LBI468:
  24:lib/libdaisy/src/hid/ctrl.h **** 
  25:lib/libdaisy/src/hid/ctrl.h ****     /** 
  26:lib/libdaisy/src/hid/ctrl.h ****     Initializes the control
  27:lib/libdaisy/src/hid/ctrl.h ****     \param *adcptr is a pointer to the raw adc read value -- This can be acquired with dsy_adc_get_
  28:lib/libdaisy/src/hid/ctrl.h ****     \param sr is the samplerate in Hz that the Process function will be called at.
  29:lib/libdaisy/src/hid/ctrl.h ****     \param flip determines whether the input is flipped (i.e. 1.f - input) or not before being proc
  30:lib/libdaisy/src/hid/ctrl.h ****     \param invert determines whether the input is inverted (i.e. -1.f * input) or note before being
  31:lib/libdaisy/src/hid/ctrl.h ****     \param slew_seconds is the slew time in seconds that it takes for the control to change to a ne
  32:lib/libdaisy/src/hid/ctrl.h ****     */
  33:lib/libdaisy/src/hid/ctrl.h ****     void Init(uint16_t *adcptr,
  34:lib/libdaisy/src/hid/ctrl.h ****               float     sr,
  35:lib/libdaisy/src/hid/ctrl.h ****               bool      flip         = false,
  36:lib/libdaisy/src/hid/ctrl.h ****               bool      invert       = false,
  37:lib/libdaisy/src/hid/ctrl.h ****               float     slew_seconds = 0.002f);
  38:lib/libdaisy/src/hid/ctrl.h **** 
  39:lib/libdaisy/src/hid/ctrl.h ****     /** 
  40:lib/libdaisy/src/hid/ctrl.h ****     This Initializes the AnalogControl for a -5V to 5V inverted input
  41:lib/libdaisy/src/hid/ctrl.h ****     All of the Init details are the same otherwise
  42:lib/libdaisy/src/hid/ctrl.h ****     \param *adcptr Pointer to analog digital converter
  43:lib/libdaisy/src/hid/ctrl.h ****     \param sr Audio engine sample rate
ARM GAS  /var/folders/9s/8rp0_f2s1n31qbztm3b5_fdh0000gn/T//ccXta1BT.s 			page 51


  44:lib/libdaisy/src/hid/ctrl.h ****     */
  45:lib/libdaisy/src/hid/ctrl.h ****     void InitBipolarCv(uint16_t *adcptr, float sr);
  46:lib/libdaisy/src/hid/ctrl.h **** 
  47:lib/libdaisy/src/hid/ctrl.h ****     /** 
  48:lib/libdaisy/src/hid/ctrl.h ****     Filters, and transforms a raw ADC read into a normalized range.
  49:lib/libdaisy/src/hid/ctrl.h ****     this should be called at the rate of specified by samplerate at Init time.   
  50:lib/libdaisy/src/hid/ctrl.h ****     Default Initializations will return 0.0 -> 1.0
  51:lib/libdaisy/src/hid/ctrl.h ****     Bi-polar CV inputs will return -1.0 -> 1.0
  52:lib/libdaisy/src/hid/ctrl.h ****     */
  53:lib/libdaisy/src/hid/ctrl.h ****     float Process();
  54:lib/libdaisy/src/hid/ctrl.h **** 
  55:lib/libdaisy/src/hid/ctrl.h ****     /** Returns the current stored value, without reprocessing */
  56:lib/libdaisy/src/hid/ctrl.h ****     inline float Value() const { return val_; }
  57:lib/libdaisy/src/hid/ctrl.h **** 
  58:lib/libdaisy/src/hid/ctrl.h ****     /** Directly set the Coefficient of the one pole smoothing filter. 
  59:lib/libdaisy/src/hid/ctrl.h ****      ***/
  60:lib/libdaisy/src/hid/ctrl.h ****     inline void SetCoeff(float val) { coeff_ = val; }
  61:lib/libdaisy/src/hid/ctrl.h **** 
  62:lib/libdaisy/src/hid/ctrl.h ****     /** Returns the raw unsigned 16-bit value from the ADC */
  63:lib/libdaisy/src/hid/ctrl.h ****     inline uint16_t GetRawValue() { return *raw_; }
  64:lib/libdaisy/src/hid/ctrl.h **** 
  65:lib/libdaisy/src/hid/ctrl.h ****     /** Returns a normalized float value representing the current ADC value. */
  66:lib/libdaisy/src/hid/ctrl.h ****     inline float GetRawFloat() { return (float)(*raw_) / 65535.f; }
 1164              		.loc 2 66 18 view .LVU246
 1165              	.LVL95:
 1166              	.LBB469:
 1167              		.loc 2 66 34 view .LVU247
 1168              		.loc 2 66 34 is_stmt 0 view .LVU248
 1169              	.LBE469:
 1170              	.LBE468:
 152:Interface.cpp ****     // Bootloader via ADC: pads on ADC 8, 9, and 10 pressed simultaneously at any time
 1171              		.loc 16 152 17 view .LVU249
 1172 0000 08B5     		push	{r3, lr}
 1173              		.cfi_def_cfa_offset 8
 1174              		.cfi_offset 3, -8
 1175              		.cfi_offset 14, -4
 1176              	.LBB471:
 1177              	.LBB470:
 1178              		.loc 2 66 49 view .LVU250
 1179 0002 1C4B     		ldr	r3, .L44
 1180              		.loc 2 66 58 view .LVU251
 1181 0004 9FED1C7A 		vldr.32	s14, .L44+4
 1182              		.loc 2 66 49 view .LVU252
 1183 0008 1B68     		ldr	r3, [r3]
 1184              		.loc 2 66 41 view .LVU253
 1185 000a 1B88     		ldrh	r3, [r3]
 1186 000c 07EE903A 		vmov	s15, r3	@ int
 1187 0010 F8EE677A 		vcvt.f32.u32	s15, s15
 1188              		.loc 2 66 58 view .LVU254
 1189 0014 C7EE876A 		vdiv.f32	s13, s15, s14
 1190              	.LBE470:
 1191              	.LBE471:
 155:Interface.cpp ****         model_prev_pad.GetRawFloat() > 0.5f &&
 1192              		.loc 16 155 45 view .LVU255
 1193 0018 F6EE007A 		vmov.f32	s15, #5.0e-1
 1194 001c F4EEE76A 		vcmpe.f32	s13, s15
 1195 0020 F1EE10FA 		vmrs	APSR_nzcv, FPSCR
ARM GAS  /var/folders/9s/8rp0_f2s1n31qbztm3b5_fdh0000gn/T//ccXta1BT.s 			page 52


 1196 0024 25DD     		ble	.L36
 1197              	.LBB472:
 1198              	.LBI472:
 1199              		.loc 2 66 18 is_stmt 1 discriminator 1 view .LVU256
 1200              	.LVL96:
 1201              	.LBB473:
 1202              		.loc 2 66 34 discriminator 1 view .LVU257
 1203              		.loc 2 66 49 is_stmt 0 discriminator 1 view .LVU258
 1204 0026 154B     		ldr	r3, .L44+8
 1205 0028 1B68     		ldr	r3, [r3]
 1206              		.loc 2 66 41 discriminator 1 view .LVU259
 1207 002a 1B88     		ldrh	r3, [r3]
 1208 002c 06EE903A 		vmov	s13, r3	@ int
 1209 0030 F8EE666A 		vcvt.f32.u32	s13, s13
 1210              		.loc 2 66 58 discriminator 1 view .LVU260
 1211 0034 86EE876A 		vdiv.f32	s12, s13, s14
 1212              	.LBE473:
 1213              	.LBE472:
 154:Interface.cpp ****         model_prev_pad.GetRawFloat() > 0.5f &&
 1214              		.loc 16 154 38 discriminator 1 view .LVU261
 1215 0038 B4EEE76A 		vcmpe.f32	s12, s15
 1216 003c F1EE10FA 		vmrs	APSR_nzcv, FPSCR
 1217 0040 17DD     		ble	.L36
 1218              	.LBB474:
 1219              	.LBI474:
 1220              		.loc 2 66 18 is_stmt 1 discriminator 4 view .LVU262
 1221              	.LVL97:
 1222              	.LBB475:
 1223              		.loc 2 66 34 discriminator 4 view .LVU263
 1224              		.loc 2 66 49 is_stmt 0 discriminator 4 view .LVU264
 1225 0042 0F4B     		ldr	r3, .L44+12
 1226 0044 1B68     		ldr	r3, [r3]
 1227              		.loc 2 66 41 discriminator 4 view .LVU265
 1228 0046 1B88     		ldrh	r3, [r3]
 1229 0048 06EE903A 		vmov	s13, r3	@ int
 1230 004c F8EE666A 		vcvt.f32.u32	s13, s13
 1231              		.loc 2 66 58 discriminator 4 view .LVU266
 1232 0050 86EE876A 		vdiv.f32	s12, s13, s14
 1233              	.LBE475:
 1234              	.LBE474:
 1235              		.loc 16 155 45 discriminator 4 view .LVU267
 1236 0054 B4EEE76A 		vcmpe.f32	s12, s15
 1237 0058 F1EE10FA 		vmrs	APSR_nzcv, FPSCR
 1238 005c 09DD     		ble	.L36
 156:Interface.cpp ****         model_next_pad.GetRawFloat() > 0.5f) {
 157:Interface.cpp ****         hw.PrintLine("Entering bootloader (ADC combo)...");
 1239              		.loc 16 157 9 is_stmt 1 view .LVU268
 1240              	.LVL98:
 1241              	.LBB476:
 1242              	.LBI476:
  23:lib/libdaisy/src/daisy_seed.h **** 
  24:lib/libdaisy/src/daisy_seed.h ****     /** This function used to provide a pre-initialization configuraiton 
  25:lib/libdaisy/src/daisy_seed.h ****      *  it has since been deprecated, and does nothing.
  26:lib/libdaisy/src/daisy_seed.h ****      */
  27:lib/libdaisy/src/daisy_seed.h ****     void Configure();
  28:lib/libdaisy/src/daisy_seed.h **** 
  29:lib/libdaisy/src/daisy_seed.h ****     /** 
ARM GAS  /var/folders/9s/8rp0_f2s1n31qbztm3b5_fdh0000gn/T//ccXta1BT.s 			page 53


  30:lib/libdaisy/src/daisy_seed.h ****     Initializes the Daisy Seed and the following peripherals:
  31:lib/libdaisy/src/daisy_seed.h ****     SDRAM, QSPI, 24-bit 48kHz Audio via AK4556, Internal USB,
  32:lib/libdaisy/src/daisy_seed.h ****     as well as the built-in LED and Testpoint.
  33:lib/libdaisy/src/daisy_seed.h **** 
  34:lib/libdaisy/src/daisy_seed.h ****     ADCs, DACs, and other special peripherals (such as I2C, SPI, etc.)
  35:lib/libdaisy/src/daisy_seed.h ****     can be initialized using their specific initializers within libdaisy
  36:lib/libdaisy/src/daisy_seed.h ****     for a specific application.
  37:lib/libdaisy/src/daisy_seed.h ****     */
  38:lib/libdaisy/src/daisy_seed.h ****     void Init(bool boost = false);
  39:lib/libdaisy/src/daisy_seed.h **** 
  40:lib/libdaisy/src/daisy_seed.h ****     /** 
  41:lib/libdaisy/src/daisy_seed.h ****     Deinitializes all peripherals automatically handled by `Init`.
  42:lib/libdaisy/src/daisy_seed.h ****     */
  43:lib/libdaisy/src/daisy_seed.h ****     void DeInit();
  44:lib/libdaisy/src/daisy_seed.h **** 
  45:lib/libdaisy/src/daisy_seed.h ****     /** 
  46:lib/libdaisy/src/daisy_seed.h ****     Wait some ms before going on.
  47:lib/libdaisy/src/daisy_seed.h ****     \param del Delay time in ms.
  48:lib/libdaisy/src/daisy_seed.h ****     */
  49:lib/libdaisy/src/daisy_seed.h ****     void DelayMs(size_t del);
  50:lib/libdaisy/src/daisy_seed.h **** 
  51:lib/libdaisy/src/daisy_seed.h ****     /** 
  52:lib/libdaisy/src/daisy_seed.h ****     Returns the gpio_pin corresponding to the index 0-31.
  53:lib/libdaisy/src/daisy_seed.h ****     For the given GPIO on the Daisy Seed (labeled 1-32 in docs).
  54:lib/libdaisy/src/daisy_seed.h ****     */
  55:lib/libdaisy/src/daisy_seed.h ****     static dsy_gpio_pin GetPin(uint8_t pin_idx);
  56:lib/libdaisy/src/daisy_seed.h **** 
  57:lib/libdaisy/src/daisy_seed.h ****     /** Begins the audio for the seeds builtin audio.
  58:lib/libdaisy/src/daisy_seed.h ****     the specified callback will get called whenever
  59:lib/libdaisy/src/daisy_seed.h ****     new data is ready to be prepared.
  60:lib/libdaisy/src/daisy_seed.h ****     */
  61:lib/libdaisy/src/daisy_seed.h ****     void StartAudio(AudioHandle::InterleavingAudioCallback cb);
  62:lib/libdaisy/src/daisy_seed.h **** 
  63:lib/libdaisy/src/daisy_seed.h ****     /** Begins the audio for the seeds builtin audio.
  64:lib/libdaisy/src/daisy_seed.h ****     the specified callback will get called whenever
  65:lib/libdaisy/src/daisy_seed.h ****     new data is ready to be prepared.
  66:lib/libdaisy/src/daisy_seed.h ****     This will use the newer non-interleaved callback.
  67:lib/libdaisy/src/daisy_seed.h ****     */
  68:lib/libdaisy/src/daisy_seed.h ****     void StartAudio(AudioHandle::AudioCallback cb);
  69:lib/libdaisy/src/daisy_seed.h **** 
  70:lib/libdaisy/src/daisy_seed.h ****     /** Changes to a new interleaved callback
  71:lib/libdaisy/src/daisy_seed.h ****      */
  72:lib/libdaisy/src/daisy_seed.h ****     void ChangeAudioCallback(AudioHandle::InterleavingAudioCallback cb);
  73:lib/libdaisy/src/daisy_seed.h **** 
  74:lib/libdaisy/src/daisy_seed.h ****     /** Changes to a new multichannel callback
  75:lib/libdaisy/src/daisy_seed.h ****      */
  76:lib/libdaisy/src/daisy_seed.h ****     void ChangeAudioCallback(AudioHandle::AudioCallback cb);
  77:lib/libdaisy/src/daisy_seed.h **** 
  78:lib/libdaisy/src/daisy_seed.h ****     /** Stops the audio if it is running. */
  79:lib/libdaisy/src/daisy_seed.h ****     void StopAudio();
  80:lib/libdaisy/src/daisy_seed.h **** 
  81:lib/libdaisy/src/daisy_seed.h ****     /** Updates the Audio Sample Rate, and reinitializes.
  82:lib/libdaisy/src/daisy_seed.h ****      ** Audio must be stopped for this to work.
  83:lib/libdaisy/src/daisy_seed.h ****      */
  84:lib/libdaisy/src/daisy_seed.h ****     void SetAudioSampleRate(SaiHandle::Config::SampleRate samplerate);
  85:lib/libdaisy/src/daisy_seed.h **** 
  86:lib/libdaisy/src/daisy_seed.h ****     /** Returns the audio sample rate in Hz as a floating point number.
ARM GAS  /var/folders/9s/8rp0_f2s1n31qbztm3b5_fdh0000gn/T//ccXta1BT.s 			page 54


  87:lib/libdaisy/src/daisy_seed.h ****      */
  88:lib/libdaisy/src/daisy_seed.h ****     float AudioSampleRate();
  89:lib/libdaisy/src/daisy_seed.h **** 
  90:lib/libdaisy/src/daisy_seed.h ****     /** Sets the number of samples processed per channel by the audio callback.
  91:lib/libdaisy/src/daisy_seed.h ****      */
  92:lib/libdaisy/src/daisy_seed.h ****     void SetAudioBlockSize(size_t blocksize);
  93:lib/libdaisy/src/daisy_seed.h **** 
  94:lib/libdaisy/src/daisy_seed.h ****     /** Returns the number of samples per channel in a block of audio. */
  95:lib/libdaisy/src/daisy_seed.h ****     size_t AudioBlockSize();
  96:lib/libdaisy/src/daisy_seed.h **** 
  97:lib/libdaisy/src/daisy_seed.h ****     /** Returns the rate in Hz that the Audio callback is called */
  98:lib/libdaisy/src/daisy_seed.h ****     float AudioCallbackRate() const;
  99:lib/libdaisy/src/daisy_seed.h **** 
 100:lib/libdaisy/src/daisy_seed.h ****     /** Sets the state of the built in LED
 101:lib/libdaisy/src/daisy_seed.h ****      */
 102:lib/libdaisy/src/daisy_seed.h ****     void SetLed(bool state);
 103:lib/libdaisy/src/daisy_seed.h **** 
 104:lib/libdaisy/src/daisy_seed.h ****     /** Sets the state of the test point near pin 10
 105:lib/libdaisy/src/daisy_seed.h ****      */
 106:lib/libdaisy/src/daisy_seed.h ****     void SetTestPoint(bool state);
 107:lib/libdaisy/src/daisy_seed.h **** 
 108:lib/libdaisy/src/daisy_seed.h ****     /** Print formatted debug log message
 109:lib/libdaisy/src/daisy_seed.h ****      */
 110:lib/libdaisy/src/daisy_seed.h ****     template <typename... VA>
 111:lib/libdaisy/src/daisy_seed.h ****     static void Print(const char* format, VA... va)
 112:lib/libdaisy/src/daisy_seed.h ****     {
 113:lib/libdaisy/src/daisy_seed.h ****         Log::Print(format, va...);
 114:lib/libdaisy/src/daisy_seed.h ****     }
 115:lib/libdaisy/src/daisy_seed.h **** 
 116:lib/libdaisy/src/daisy_seed.h ****     /** Print formatted debug log message with automatic line termination
 117:lib/libdaisy/src/daisy_seed.h ****     */
 118:lib/libdaisy/src/daisy_seed.h ****     template <typename... VA>
 119:lib/libdaisy/src/daisy_seed.h ****     static void PrintLine(const char* format, VA... va)
 1243              		.loc 3 119 17 view .LVU269
 1244              	.LBB477:
 120:lib/libdaisy/src/daisy_seed.h ****     {
 121:lib/libdaisy/src/daisy_seed.h ****         Log::PrintLine(format, va...);
 1245              		.loc 3 121 23 is_stmt 0 view .LVU270
 1246 005e 0948     		ldr	r0, .L44+16
 1247 0060 FFF7FEFF 		bl	_ZN5daisy6LoggerILNS_17LoggerDestinationE1EE9PrintLineEPKcz
 1248              	.LVL99:
 1249              		.loc 3 121 23 view .LVU271
 1250              	.LBE477:
 1251              	.LBE476:
 158:Interface.cpp ****         System::Delay(100);
 1252              		.loc 16 158 9 is_stmt 1 view .LVU272
 1253              		.loc 16 158 22 is_stmt 0 view .LVU273
 1254 0064 6420     		movs	r0, #100
 1255 0066 FFF7FEFF 		bl	_ZN5daisy6System5DelayEm
 1256              	.LVL100:
 159:Interface.cpp ****         System::ResetToBootloader();
 1257              		.loc 16 159 9 is_stmt 1 view .LVU274
 160:Interface.cpp ****     }
 161:Interface.cpp **** }
 1258              		.loc 16 161 1 is_stmt 0 view .LVU275
 1259 006a BDE80840 		pop	{r3, lr}
 1260              		.cfi_remember_state
ARM GAS  /var/folders/9s/8rp0_f2s1n31qbztm3b5_fdh0000gn/T//ccXta1BT.s 			page 55


 1261              		.cfi_restore 14
 1262              		.cfi_restore 3
 1263              		.cfi_def_cfa_offset 0
 159:Interface.cpp ****         System::ResetToBootloader();
 1264              		.loc 16 159 34 view .LVU276
 1265 006e FFF7FEBF 		b	_ZN5daisy6System17ResetToBootloaderEv
 1266              	.LVL101:
 1267              	.L36:
 1268              		.cfi_restore_state
 1269              		.loc 16 161 1 view .LVU277
 1270 0072 08BD     		pop	{r3, pc}
 1271              	.L45:
 1272              		.align	2
 1273              	.L44:
 1274 0074 00000000 		.word	.LANCHOR11
 1275 0078 00FF7F47 		.word	1199570688
 1276 007c 00000000 		.word	.LANCHOR12
 1277 0080 00000000 		.word	.LANCHOR13
 1278 0084 00000000 		.word	.LC2
 1279              		.cfi_endproc
 1280              	.LFE5357:
 1282              		.section	.text._Z9UpdateLEDv,"ax",%progbits
 1283              		.align	1
 1284              		.global	_Z9UpdateLEDv
 1285              		.syntax unified
 1286              		.thumb
 1287              		.thumb_func
 1289              	_Z9UpdateLEDv:
 1290              	.LFB5358:
 162:Interface.cpp **** 
 163:Interface.cpp **** void UpdateLED() {
 1291              		.loc 16 163 18 is_stmt 1 view -0
 1292              		.cfi_startproc
 1293              		@ args = 0, pretend = 0, frame = 0
 1294              		@ frame_needed = 0, uses_anonymous_args = 0
 164:Interface.cpp ****     // LED based on voice activity (any voice active)
 165:Interface.cpp ****     bool any_voice_active = false;
 1295              		.loc 16 165 5 view .LVU279
 1296              	.LVL102:
 166:Interface.cpp ****     for(int v=0; v<NUM_VOICES; ++v) { 
 1297              		.loc 16 166 5 view .LVU280
 1298              	.LBB478:
 1299              		.loc 16 166 19 view .LVU281
 1300              	.LBE478:
 163:Interface.cpp ****     // LED based on voice activity (any voice active)
 1301              		.loc 16 163 18 is_stmt 0 view .LVU282
 1302 0000 08B5     		push	{r3, lr}
 1303              		.cfi_def_cfa_offset 8
 1304              		.cfi_offset 3, -8
 1305              		.cfi_offset 14, -4
 1306 0002 0D4A     		ldr	r2, .L51
 1307              	.LBB479:
 1308              		.loc 16 166 13 view .LVU283
 1309 0004 0023     		movs	r3, #0
 1310              	.LVL103:
 1311              	.L49:
 167:Interface.cpp ****         if(voice_active[v]) { 
ARM GAS  /var/folders/9s/8rp0_f2s1n31qbztm3b5_fdh0000gn/T//ccXta1BT.s 			page 56


 1312              		.loc 16 167 9 is_stmt 1 view .LVU284
 1313              		.loc 16 167 26 is_stmt 0 view .LVU285
 1314 0006 12F8011B 		ldrb	r1, [r2], #1	@ zero_extendqisi2
 1315              		.loc 16 167 9 view .LVU286
 1316 000a 79B9     		cbnz	r1, .L47
 166:Interface.cpp ****     for(int v=0; v<NUM_VOICES; ++v) { 
 1317              		.loc 16 166 5 is_stmt 1 discriminator 2 view .LVU287
 1318 000c 0133     		adds	r3, r3, #1
 1319              	.LVL104:
 166:Interface.cpp ****     for(int v=0; v<NUM_VOICES; ++v) { 
 1320              		.loc 16 166 19 discriminator 2 view .LVU288
 1321 000e 042B     		cmp	r3, #4
 1322 0010 F9D1     		bne	.L49
 166:Interface.cpp ****     for(int v=0; v<NUM_VOICES; ++v) { 
 1323              		.loc 16 166 19 is_stmt 0 discriminator 2 view .LVU289
 1324              	.LBE479:
 168:Interface.cpp ****             any_voice_active = true; 
 169:Interface.cpp ****             break; 
 170:Interface.cpp ****         } 
 171:Interface.cpp ****     }
 172:Interface.cpp ****     
 173:Interface.cpp ****     bool led_on = any_voice_active;
 1325              		.loc 16 173 5 is_stmt 1 view .LVU290
 1326              	.LVL105:
 174:Interface.cpp ****     if (!any_voice_active && (System::GetNow() % 1000) < 500) { // Blink if inactive
 1327              		.loc 16 174 5 view .LVU291
 1328              		.loc 16 174 45 is_stmt 0 view .LVU292
 1329 0012 FFF7FEFF 		bl	_ZN5daisy6System6GetNowEv
 1330              	.LVL106:
 1331              		.loc 16 174 48 view .LVU293
 1332 0016 4FF47A71 		mov	r1, #1000
 1333 001a B0FBF1F3 		udiv	r3, r0, r1
 1334 001e 03FB1101 		mls	r1, r3, r1, r0
 1335              		.loc 16 174 27 view .LVU294
 1336 0022 B1F5FA7F 		cmp	r1, #500
 1337 0026 2CBF     		ite	cs
 1338 0028 0021     		movcs	r1, #0
 1339 002a 0121     		movcc	r1, #1
 1340              	.LVL107:
 1341              	.L47:
 175:Interface.cpp ****         led_on = true;
 176:Interface.cpp ****     }
 177:Interface.cpp ****     hw.SetLed(led_on);
 1342              		.loc 16 177 5 is_stmt 1 view .LVU295
 1343              		.loc 16 177 14 is_stmt 0 view .LVU296
 1344 002c 0348     		ldr	r0, .L51+4
 178:Interface.cpp **** } ...
 1345              		.loc 16 178 1 view .LVU297
 1346 002e BDE80840 		pop	{r3, lr}
 1347              		.cfi_restore 14
 1348              		.cfi_restore 3
 1349              		.cfi_def_cfa_offset 0
 177:Interface.cpp ****     hw.SetLed(led_on);
 1350              		.loc 16 177 14 view .LVU298
 1351 0032 FFF7FEBF 		b	_ZN5daisy9DaisySeed6SetLedEb
 1352              	.LVL108:
 1353              	.L52:
ARM GAS  /var/folders/9s/8rp0_f2s1n31qbztm3b5_fdh0000gn/T//ccXta1BT.s 			page 57


 177:Interface.cpp ****     hw.SetLed(led_on);
 1354              		.loc 16 177 14 view .LVU299
 1355 0036 00BF     		.align	2
 1356              	.L51:
 1357 0038 00000000 		.word	voice_active
 1358 003c 00000000 		.word	.LANCHOR1
 1359              		.cfi_endproc
 1360              	.LFE5358:
 1362              		.section	.text._ZN10infrasonic13BiquadCascadeILj1ELNS_13BiquadSection10FilterTypeE2EE18updateCoeff
 1363              		.align	1
 1364              		.weak	_ZN10infrasonic13BiquadCascadeILj1ELNS_13BiquadSection10FilterTypeE2EE18updateCoefficientsEv
 1365              		.syntax unified
 1366              		.thumb
 1367              		.thumb_func
 1369              	_ZN10infrasonic13BiquadCascadeILj1ELNS_13BiquadSection10FilterTypeE2EE18updateCoefficientsEv:
 1370              	.LVL109:
 1371              	.LFB6024:
  78:Effects/BiquadFilters.h **** 
  79:Effects/BiquadFilters.h ****         // Individual param update methods recalculate coefficients
  80:Effects/BiquadFilters.h ****         // every time one of them is called. To update everything at once,
  81:Effects/BiquadFilters.h ****         // use SetParams()
  82:Effects/BiquadFilters.h **** 
  83:Effects/BiquadFilters.h ****         void Init(const float sample_rate) {
  84:Effects/BiquadFilters.h ****             sample_rate_ = sample_rate;
  85:Effects/BiquadFilters.h ****             cutoff_hz_ = sample_rate * 0.25f;
  86:Effects/BiquadFilters.h ****             SetFlatResponse();
  87:Effects/BiquadFilters.h ****         }
  88:Effects/BiquadFilters.h **** 
  89:Effects/BiquadFilters.h ****         inline void SetCutoff(const float cutoff_hz)
  90:Effects/BiquadFilters.h ****         {
  91:Effects/BiquadFilters.h ****             cutoff_hz_ = daisysp::fclamp(cutoff_hz, 1.f, sample_rate_ * 0.5f);
  92:Effects/BiquadFilters.h ****             updateCoefficients();
  93:Effects/BiquadFilters.h ****         }
  94:Effects/BiquadFilters.h **** 
  95:Effects/BiquadFilters.h ****         inline void SetQ(const float q)
  96:Effects/BiquadFilters.h ****         {
  97:Effects/BiquadFilters.h ****             for (size_t i=0; i<NumSections; i++) {
  98:Effects/BiquadFilters.h ****                 q_[i] = daisysp::fmax(q, 0.1f);
  99:Effects/BiquadFilters.h ****             }
 100:Effects/BiquadFilters.h ****             updateCoefficients();
 101:Effects/BiquadFilters.h ****         }
 102:Effects/BiquadFilters.h **** 
 103:Effects/BiquadFilters.h ****         /// Update params simultaneously, recalculating coefficients only once 
 104:Effects/BiquadFilters.h ****         inline void SetParams(const float cutoff_hz, const float q)
 105:Effects/BiquadFilters.h ****         {
 106:Effects/BiquadFilters.h ****             cutoff_hz_ = daisysp::fclamp(cutoff_hz, 1.f, sample_rate_ * 0.5f);
 107:Effects/BiquadFilters.h ****             for (size_t i=0; i<NumSections; i++) {
 108:Effects/BiquadFilters.h ****                 q_[i] = daisysp::fmax(q, 0.1f);
 109:Effects/BiquadFilters.h ****             }
 110:Effects/BiquadFilters.h ****             updateCoefficients();
 111:Effects/BiquadFilters.h ****         }
 112:Effects/BiquadFilters.h **** 
 113:Effects/BiquadFilters.h ****         /// Sets Q values in each section for a truly "flat" (-3dB cutoff point) response
 114:Effects/BiquadFilters.h ****         /// NOTE: per limitations of this class this only works for even-order filters
 115:Effects/BiquadFilters.h ****         inline void SetFlatResponse()
 116:Effects/BiquadFilters.h ****         {
 117:Effects/BiquadFilters.h ****             const float angleIncrement = 1.f / (4.f * static_cast<float>(NumSections));
ARM GAS  /var/folders/9s/8rp0_f2s1n31qbztm3b5_fdh0000gn/T//ccXta1BT.s 			page 58


 118:Effects/BiquadFilters.h ****             for (size_t i=0; i<NumSections; i++) {
 119:Effects/BiquadFilters.h ****                 q_[i] = 1.f / (2.f * cosf(PI_F * (angleIncrement * (i * 2 + 1))));
 120:Effects/BiquadFilters.h ****             }
 121:Effects/BiquadFilters.h ****             updateCoefficients();
 122:Effects/BiquadFilters.h ****         }
 123:Effects/BiquadFilters.h **** 
 124:Effects/BiquadFilters.h ****         inline float Process(const float in)
 125:Effects/BiquadFilters.h ****         {
 126:Effects/BiquadFilters.h ****             float out = in;
 127:Effects/BiquadFilters.h ****             for (auto &biquad : biquads_) {
 128:Effects/BiquadFilters.h ****                 out = biquad.Process(out, 0);
 129:Effects/BiquadFilters.h ****             }
 130:Effects/BiquadFilters.h ****             return out;
 131:Effects/BiquadFilters.h ****         }
 132:Effects/BiquadFilters.h **** 
 133:Effects/BiquadFilters.h ****         /// In-place stereo processing
 134:Effects/BiquadFilters.h ****         inline void ProcessStereo(float &sampL, float &sampR)
 135:Effects/BiquadFilters.h ****         {
 136:Effects/BiquadFilters.h ****             for (auto &biquad : biquads_) {
 137:Effects/BiquadFilters.h ****                 sampL = biquad.Process(sampL, 0);
 138:Effects/BiquadFilters.h ****                 sampR = biquad.Process(sampR, 1);
 139:Effects/BiquadFilters.h ****             }
 140:Effects/BiquadFilters.h ****         }
 141:Effects/BiquadFilters.h **** 
 142:Effects/BiquadFilters.h ****     private:
 143:Effects/BiquadFilters.h **** 
 144:Effects/BiquadFilters.h ****         float sample_rate_;
 145:Effects/BiquadFilters.h ****         float cutoff_hz_, q_[NumSections];
 146:Effects/BiquadFilters.h **** 
 147:Effects/BiquadFilters.h ****         std::array<BiquadSection, NumSections> biquads_;
 148:Effects/BiquadFilters.h **** 
 149:Effects/BiquadFilters.h ****         inline void updateCoefficients() {
 1372              		.loc 10 149 21 is_stmt 1 view -0
 1373              		.cfi_startproc
 1374              		@ args = 0, pretend = 0, frame = 40
 1375              		@ frame_needed = 0, uses_anonymous_args = 0
 1376              	.LBB480:
 150:Effects/BiquadFilters.h ****             for (size_t i=0; i<NumSections; i++) {
 1377              		.loc 10 150 31 view .LVU301
 1378              	.LBB481:
 1379              	.LBI481:
  95:/Library/DaisyToolchain/0.2.0/arm/arm-none-eabi/include/c++/10.3.1/array ****     {
  96:/Library/DaisyToolchain/0.2.0/arm/arm-none-eabi/include/c++/10.3.1/array ****       typedef _Tp 	    			      value_type;
  97:/Library/DaisyToolchain/0.2.0/arm/arm-none-eabi/include/c++/10.3.1/array ****       typedef value_type*			      pointer;
  98:/Library/DaisyToolchain/0.2.0/arm/arm-none-eabi/include/c++/10.3.1/array ****       typedef const value_type*                       const_pointer;
  99:/Library/DaisyToolchain/0.2.0/arm/arm-none-eabi/include/c++/10.3.1/array ****       typedef value_type&                   	      reference;
 100:/Library/DaisyToolchain/0.2.0/arm/arm-none-eabi/include/c++/10.3.1/array ****       typedef const value_type&             	      const_reference;
 101:/Library/DaisyToolchain/0.2.0/arm/arm-none-eabi/include/c++/10.3.1/array ****       typedef value_type*          		      iterator;
 102:/Library/DaisyToolchain/0.2.0/arm/arm-none-eabi/include/c++/10.3.1/array ****       typedef const value_type*			      const_iterator;
 103:/Library/DaisyToolchain/0.2.0/arm/arm-none-eabi/include/c++/10.3.1/array ****       typedef std::size_t                    	      size_type;
 104:/Library/DaisyToolchain/0.2.0/arm/arm-none-eabi/include/c++/10.3.1/array ****       typedef std::ptrdiff_t                   	      difference_type;
 105:/Library/DaisyToolchain/0.2.0/arm/arm-none-eabi/include/c++/10.3.1/array ****       typedef std::reverse_iterator<iterator>	      reverse_iterator;
 106:/Library/DaisyToolchain/0.2.0/arm/arm-none-eabi/include/c++/10.3.1/array ****       typedef std::reverse_iterator<const_iterator>   const_reverse_iterator;
 107:/Library/DaisyToolchain/0.2.0/arm/arm-none-eabi/include/c++/10.3.1/array **** 
 108:/Library/DaisyToolchain/0.2.0/arm/arm-none-eabi/include/c++/10.3.1/array ****       // Support for zero-sized arrays mandatory.
 109:/Library/DaisyToolchain/0.2.0/arm/arm-none-eabi/include/c++/10.3.1/array ****       typedef _GLIBCXX_STD_C::__array_traits<_Tp, _Nm> _AT_Type;
 110:/Library/DaisyToolchain/0.2.0/arm/arm-none-eabi/include/c++/10.3.1/array ****       typename _AT_Type::_Type                         _M_elems;
ARM GAS  /var/folders/9s/8rp0_f2s1n31qbztm3b5_fdh0000gn/T//ccXta1BT.s 			page 59


 111:/Library/DaisyToolchain/0.2.0/arm/arm-none-eabi/include/c++/10.3.1/array **** 
 112:/Library/DaisyToolchain/0.2.0/arm/arm-none-eabi/include/c++/10.3.1/array ****       // No explicit construct/copy/destroy for aggregate type.
 113:/Library/DaisyToolchain/0.2.0/arm/arm-none-eabi/include/c++/10.3.1/array **** 
 114:/Library/DaisyToolchain/0.2.0/arm/arm-none-eabi/include/c++/10.3.1/array ****       // DR 776.
 115:/Library/DaisyToolchain/0.2.0/arm/arm-none-eabi/include/c++/10.3.1/array ****       _GLIBCXX20_CONSTEXPR void
 116:/Library/DaisyToolchain/0.2.0/arm/arm-none-eabi/include/c++/10.3.1/array ****       fill(const value_type& __u)
 117:/Library/DaisyToolchain/0.2.0/arm/arm-none-eabi/include/c++/10.3.1/array ****       { std::fill_n(begin(), size(), __u); }
 118:/Library/DaisyToolchain/0.2.0/arm/arm-none-eabi/include/c++/10.3.1/array **** 
 119:/Library/DaisyToolchain/0.2.0/arm/arm-none-eabi/include/c++/10.3.1/array ****       _GLIBCXX20_CONSTEXPR void
 120:/Library/DaisyToolchain/0.2.0/arm/arm-none-eabi/include/c++/10.3.1/array ****       swap(array& __other)
 121:/Library/DaisyToolchain/0.2.0/arm/arm-none-eabi/include/c++/10.3.1/array ****       noexcept(_AT_Type::_Is_nothrow_swappable::value)
 122:/Library/DaisyToolchain/0.2.0/arm/arm-none-eabi/include/c++/10.3.1/array ****       { std::swap_ranges(begin(), end(), __other.begin()); }
 123:/Library/DaisyToolchain/0.2.0/arm/arm-none-eabi/include/c++/10.3.1/array **** 
 124:/Library/DaisyToolchain/0.2.0/arm/arm-none-eabi/include/c++/10.3.1/array ****       // Iterators.
 125:/Library/DaisyToolchain/0.2.0/arm/arm-none-eabi/include/c++/10.3.1/array ****       _GLIBCXX17_CONSTEXPR iterator
 126:/Library/DaisyToolchain/0.2.0/arm/arm-none-eabi/include/c++/10.3.1/array ****       begin() noexcept
 127:/Library/DaisyToolchain/0.2.0/arm/arm-none-eabi/include/c++/10.3.1/array ****       { return iterator(data()); }
 128:/Library/DaisyToolchain/0.2.0/arm/arm-none-eabi/include/c++/10.3.1/array **** 
 129:/Library/DaisyToolchain/0.2.0/arm/arm-none-eabi/include/c++/10.3.1/array ****       _GLIBCXX17_CONSTEXPR const_iterator
 130:/Library/DaisyToolchain/0.2.0/arm/arm-none-eabi/include/c++/10.3.1/array ****       begin() const noexcept
 131:/Library/DaisyToolchain/0.2.0/arm/arm-none-eabi/include/c++/10.3.1/array ****       { return const_iterator(data()); }
 132:/Library/DaisyToolchain/0.2.0/arm/arm-none-eabi/include/c++/10.3.1/array **** 
 133:/Library/DaisyToolchain/0.2.0/arm/arm-none-eabi/include/c++/10.3.1/array ****       _GLIBCXX17_CONSTEXPR iterator
 134:/Library/DaisyToolchain/0.2.0/arm/arm-none-eabi/include/c++/10.3.1/array ****       end() noexcept
 135:/Library/DaisyToolchain/0.2.0/arm/arm-none-eabi/include/c++/10.3.1/array ****       { return iterator(data() + _Nm); }
 136:/Library/DaisyToolchain/0.2.0/arm/arm-none-eabi/include/c++/10.3.1/array **** 
 137:/Library/DaisyToolchain/0.2.0/arm/arm-none-eabi/include/c++/10.3.1/array ****       _GLIBCXX17_CONSTEXPR const_iterator
 138:/Library/DaisyToolchain/0.2.0/arm/arm-none-eabi/include/c++/10.3.1/array ****       end() const noexcept
 139:/Library/DaisyToolchain/0.2.0/arm/arm-none-eabi/include/c++/10.3.1/array ****       { return const_iterator(data() + _Nm); }
 140:/Library/DaisyToolchain/0.2.0/arm/arm-none-eabi/include/c++/10.3.1/array **** 
 141:/Library/DaisyToolchain/0.2.0/arm/arm-none-eabi/include/c++/10.3.1/array ****       _GLIBCXX17_CONSTEXPR reverse_iterator
 142:/Library/DaisyToolchain/0.2.0/arm/arm-none-eabi/include/c++/10.3.1/array ****       rbegin() noexcept
 143:/Library/DaisyToolchain/0.2.0/arm/arm-none-eabi/include/c++/10.3.1/array ****       { return reverse_iterator(end()); }
 144:/Library/DaisyToolchain/0.2.0/arm/arm-none-eabi/include/c++/10.3.1/array **** 
 145:/Library/DaisyToolchain/0.2.0/arm/arm-none-eabi/include/c++/10.3.1/array ****       _GLIBCXX17_CONSTEXPR const_reverse_iterator
 146:/Library/DaisyToolchain/0.2.0/arm/arm-none-eabi/include/c++/10.3.1/array ****       rbegin() const noexcept
 147:/Library/DaisyToolchain/0.2.0/arm/arm-none-eabi/include/c++/10.3.1/array ****       { return const_reverse_iterator(end()); }
 148:/Library/DaisyToolchain/0.2.0/arm/arm-none-eabi/include/c++/10.3.1/array **** 
 149:/Library/DaisyToolchain/0.2.0/arm/arm-none-eabi/include/c++/10.3.1/array ****       _GLIBCXX17_CONSTEXPR reverse_iterator
 150:/Library/DaisyToolchain/0.2.0/arm/arm-none-eabi/include/c++/10.3.1/array ****       rend() noexcept
 151:/Library/DaisyToolchain/0.2.0/arm/arm-none-eabi/include/c++/10.3.1/array ****       { return reverse_iterator(begin()); }
 152:/Library/DaisyToolchain/0.2.0/arm/arm-none-eabi/include/c++/10.3.1/array **** 
 153:/Library/DaisyToolchain/0.2.0/arm/arm-none-eabi/include/c++/10.3.1/array ****       _GLIBCXX17_CONSTEXPR const_reverse_iterator
 154:/Library/DaisyToolchain/0.2.0/arm/arm-none-eabi/include/c++/10.3.1/array ****       rend() const noexcept
 155:/Library/DaisyToolchain/0.2.0/arm/arm-none-eabi/include/c++/10.3.1/array ****       { return const_reverse_iterator(begin()); }
 156:/Library/DaisyToolchain/0.2.0/arm/arm-none-eabi/include/c++/10.3.1/array **** 
 157:/Library/DaisyToolchain/0.2.0/arm/arm-none-eabi/include/c++/10.3.1/array ****       _GLIBCXX17_CONSTEXPR const_iterator
 158:/Library/DaisyToolchain/0.2.0/arm/arm-none-eabi/include/c++/10.3.1/array ****       cbegin() const noexcept
 159:/Library/DaisyToolchain/0.2.0/arm/arm-none-eabi/include/c++/10.3.1/array ****       { return const_iterator(data()); }
 160:/Library/DaisyToolchain/0.2.0/arm/arm-none-eabi/include/c++/10.3.1/array **** 
 161:/Library/DaisyToolchain/0.2.0/arm/arm-none-eabi/include/c++/10.3.1/array ****       _GLIBCXX17_CONSTEXPR const_iterator
 162:/Library/DaisyToolchain/0.2.0/arm/arm-none-eabi/include/c++/10.3.1/array ****       cend() const noexcept
 163:/Library/DaisyToolchain/0.2.0/arm/arm-none-eabi/include/c++/10.3.1/array ****       { return const_iterator(data() + _Nm); }
 164:/Library/DaisyToolchain/0.2.0/arm/arm-none-eabi/include/c++/10.3.1/array **** 
 165:/Library/DaisyToolchain/0.2.0/arm/arm-none-eabi/include/c++/10.3.1/array ****       _GLIBCXX17_CONSTEXPR const_reverse_iterator
 166:/Library/DaisyToolchain/0.2.0/arm/arm-none-eabi/include/c++/10.3.1/array ****       crbegin() const noexcept
 167:/Library/DaisyToolchain/0.2.0/arm/arm-none-eabi/include/c++/10.3.1/array ****       { return const_reverse_iterator(end()); }
ARM GAS  /var/folders/9s/8rp0_f2s1n31qbztm3b5_fdh0000gn/T//ccXta1BT.s 			page 60


 168:/Library/DaisyToolchain/0.2.0/arm/arm-none-eabi/include/c++/10.3.1/array **** 
 169:/Library/DaisyToolchain/0.2.0/arm/arm-none-eabi/include/c++/10.3.1/array ****       _GLIBCXX17_CONSTEXPR const_reverse_iterator
 170:/Library/DaisyToolchain/0.2.0/arm/arm-none-eabi/include/c++/10.3.1/array ****       crend() const noexcept
 171:/Library/DaisyToolchain/0.2.0/arm/arm-none-eabi/include/c++/10.3.1/array ****       { return const_reverse_iterator(begin()); }
 172:/Library/DaisyToolchain/0.2.0/arm/arm-none-eabi/include/c++/10.3.1/array **** 
 173:/Library/DaisyToolchain/0.2.0/arm/arm-none-eabi/include/c++/10.3.1/array ****       // Capacity.
 174:/Library/DaisyToolchain/0.2.0/arm/arm-none-eabi/include/c++/10.3.1/array ****       constexpr size_type
 175:/Library/DaisyToolchain/0.2.0/arm/arm-none-eabi/include/c++/10.3.1/array ****       size() const noexcept { return _Nm; }
 176:/Library/DaisyToolchain/0.2.0/arm/arm-none-eabi/include/c++/10.3.1/array **** 
 177:/Library/DaisyToolchain/0.2.0/arm/arm-none-eabi/include/c++/10.3.1/array ****       constexpr size_type
 178:/Library/DaisyToolchain/0.2.0/arm/arm-none-eabi/include/c++/10.3.1/array ****       max_size() const noexcept { return _Nm; }
 179:/Library/DaisyToolchain/0.2.0/arm/arm-none-eabi/include/c++/10.3.1/array **** 
 180:/Library/DaisyToolchain/0.2.0/arm/arm-none-eabi/include/c++/10.3.1/array ****       _GLIBCXX_NODISCARD constexpr bool
 181:/Library/DaisyToolchain/0.2.0/arm/arm-none-eabi/include/c++/10.3.1/array ****       empty() const noexcept { return size() == 0; }
 182:/Library/DaisyToolchain/0.2.0/arm/arm-none-eabi/include/c++/10.3.1/array **** 
 183:/Library/DaisyToolchain/0.2.0/arm/arm-none-eabi/include/c++/10.3.1/array ****       // Element access.
 184:/Library/DaisyToolchain/0.2.0/arm/arm-none-eabi/include/c++/10.3.1/array ****       _GLIBCXX17_CONSTEXPR reference
 185:/Library/DaisyToolchain/0.2.0/arm/arm-none-eabi/include/c++/10.3.1/array ****       operator[](size_type __n) noexcept
 1380              		.loc 11 185 7 view .LVU302
 1381              	.LBB482:
 1382              	.LBI482:
  55:/Library/DaisyToolchain/0.2.0/arm/arm-none-eabi/include/c++/10.3.1/array ****       { return const_cast<_Tp&>(__t[__n]); }
 1383              		.loc 11 55 7 view .LVU303
  55:/Library/DaisyToolchain/0.2.0/arm/arm-none-eabi/include/c++/10.3.1/array ****       { return const_cast<_Tp&>(__t[__n]); }
 1384              		.loc 11 55 7 is_stmt 0 view .LVU304
 1385              	.LBE482:
 1386              	.LBE481:
 1387              	.LBE480:
 149:Effects/BiquadFilters.h ****             for (size_t i=0; i<NumSections; i++) {
 1388              		.loc 10 149 21 view .LVU305
 1389 0000 70B5     		push	{r4, r5, r6, lr}
 1390              		.cfi_def_cfa_offset 16
 1391              		.cfi_offset 4, -16
 1392              		.cfi_offset 5, -12
 1393              		.cfi_offset 6, -8
 1394              		.cfi_offset 14, -4
 1395 0002 8AB0     		sub	sp, sp, #40
 1396              		.cfi_def_cfa_offset 56
 1397              	.LBB485:
 151:Effects/BiquadFilters.h ****                 biquads_[i].SetCoefficients(BiquadSection::CalculateCoefficients(FilterType, sample
 1398              		.loc 10 151 44 view .LVU306
 1399 0004 90ED021A 		vldr.32	s2, [r0, #8]
 1400 0008 D0ED010A 		vldr.32	s1, [r0, #4]
 1401 000c 0446     		mov	r4, r0
 1402 000e 6D46     		mov	r5, sp
 1403 0010 90ED000A 		vldr.32	s0, [r0]
 1404 0014 0221     		movs	r1, #2
 1405 0016 6846     		mov	r0, sp
 1406              	.LVL110:
 1407              		.loc 10 151 44 view .LVU307
 1408 0018 FFF7FEFF 		bl	_ZN10infrasonic13BiquadSection21CalculateCoefficientsENS0_10FilterTypeEfff
 1409              	.LVL111:
 1410              		.loc 10 151 44 view .LVU308
 1411 001c 05AE     		add	r6, sp, #20
 1412 001e 0C34     		adds	r4, r4, #12
 1413              	.LVL112:
 1414              		.loc 10 151 44 view .LVU309
ARM GAS  /var/folders/9s/8rp0_f2s1n31qbztm3b5_fdh0000gn/T//ccXta1BT.s 			page 61


 1415 0020 0FCD     		ldmia	r5!, {r0, r1, r2, r3}
 1416 0022 0FC6     		stmia	r6!, {r0, r1, r2, r3}
 1417 0024 2E68     		ldr	r6, [r5]
 1418              	.LBB483:
 1419              	.LBI483:
  37:Effects/BiquadFilters.h **** 
 1420              		.loc 10 37 14 is_stmt 1 view .LVU310
 1421              	.LBB484:
  37:Effects/BiquadFilters.h **** 
 1422              		.loc 10 37 65 view .LVU311
  37:Effects/BiquadFilters.h **** 
 1423              		.loc 10 37 72 is_stmt 0 view .LVU312
 1424 0026 05AD     		add	r5, sp, #20
 1425 0028 0FCD     		ldmia	r5!, {r0, r1, r2, r3}
 1426 002a 0FC4     		stmia	r4!, {r0, r1, r2, r3}
 1427              	.LVL113:
  37:Effects/BiquadFilters.h **** 
 1428              		.loc 10 37 72 view .LVU313
 1429 002c 2660     		str	r6, [r4]
 1430              	.LVL114:
  37:Effects/BiquadFilters.h **** 
 1431              		.loc 10 37 72 view .LVU314
 1432              	.LBE484:
 1433              	.LBE483:
 150:Effects/BiquadFilters.h ****                 biquads_[i].SetCoefficients(BiquadSection::CalculateCoefficients(FilterType, sample
 1434              		.loc 10 150 13 is_stmt 1 view .LVU315
 150:Effects/BiquadFilters.h ****                 biquads_[i].SetCoefficients(BiquadSection::CalculateCoefficients(FilterType, sample
 1435              		.loc 10 150 31 view .LVU316
 1436              	.LBE485:
 152:Effects/BiquadFilters.h ****             }
 153:Effects/BiquadFilters.h ****         }
 1437              		.loc 10 153 9 is_stmt 0 view .LVU317
 1438 002e 0AB0     		add	sp, sp, #40
 1439              		.cfi_def_cfa_offset 16
 1440              		@ sp needed
 1441 0030 70BD     		pop	{r4, r5, r6, pc}
 1442              		.loc 10 153 9 view .LVU318
 1443              		.cfi_endproc
 1444              	.LFE6024:
 1446              		.section	.text._Z15InitializeDelayv,"ax",%progbits
 1447              		.align	1
 1448              		.global	_Z15InitializeDelayv
 1449              		.syntax unified
 1450              		.thumb
 1451              		.thumb_func
 1453              	_Z15InitializeDelayv:
 1454              	.LFB5349:
  96:Interface.cpp **** void InitializeDelay() {
 1455              		.loc 16 96 24 is_stmt 1 view -0
 1456              		.cfi_startproc
 1457              		@ args = 0, pretend = 0, frame = 0
 1458              		@ frame_needed = 0, uses_anonymous_args = 0
  98:Interface.cpp ****     delay.Init(sample_rate); 
 1459              		.loc 16 98 5 view .LVU320
  96:Interface.cpp **** void InitializeDelay() {
 1460              		.loc 16 96 24 is_stmt 0 view .LVU321
 1461 0000 F8B5     		push	{r3, r4, r5, r6, r7, lr}
ARM GAS  /var/folders/9s/8rp0_f2s1n31qbztm3b5_fdh0000gn/T//ccXta1BT.s 			page 62


 1462              		.cfi_def_cfa_offset 24
 1463              		.cfi_offset 3, -24
 1464              		.cfi_offset 4, -20
 1465              		.cfi_offset 5, -16
 1466              		.cfi_offset 6, -12
 1467              		.cfi_offset 7, -8
 1468              		.cfi_offset 14, -4
 1469              	.LBB518:
 1470              	.LBB519:
  26:Effects/EchoDelay.h **** 
  27:Effects/EchoDelay.h ****         void Init(float sample_rate)
  28:Effects/EchoDelay.h ****         {
  29:Effects/EchoDelay.h ****             sample_rate_ = sample_rate;
 1471              		.loc 9 29 26 view .LVU322
 1472 0002 2C4C     		ldr	r4, .L57
 1473              	.LBB520:
 1474              	.LBB521:
 1475              	.LBB522:
 1476              	.LBB523:
  33:lib/DaisySP/Source/Utility/delayline.h ****     /** initializes the delay line by clearing the values within, and setting delay to 1 sample.
  34:lib/DaisySP/Source/Utility/delayline.h ****     */
  35:lib/DaisySP/Source/Utility/delayline.h ****     void Init() { Reset(); }
  36:lib/DaisySP/Source/Utility/delayline.h ****     /** clears buffer, sets write ptr to 0, and delay to 1 sample.
  37:lib/DaisySP/Source/Utility/delayline.h ****     */
  38:lib/DaisySP/Source/Utility/delayline.h ****     void Reset()
  39:lib/DaisySP/Source/Utility/delayline.h ****     {
  40:lib/DaisySP/Source/Utility/delayline.h ****         for(size_t i = 0; i < max_size; i++)
  41:lib/DaisySP/Source/Utility/delayline.h ****         {
  42:lib/DaisySP/Source/Utility/delayline.h ****             line_[i] = T(0);
 1477              		.loc 12 42 22 view .LVU323
 1478 0004 0021     		movs	r1, #0
 1479              	.LBE523:
 1480              	.LBE522:
 1481              	.LBE521:
 1482              	.LBE520:
 1483              	.LBE519:
 1484              	.LBE518:
  98:Interface.cpp ****     delay.Init(sample_rate); 
 1485              		.loc 16 98 15 view .LVU324
 1486 0006 2C4B     		ldr	r3, .L57+4
 1487              	.LBB581:
 1488              	.LBB578:
 1489              		.loc 9 29 26 view .LVU325
 1490 0008 2046     		mov	r0, r4
 1491              	.LBB532:
 1492              	.LBB529:
 1493              	.LBB526:
 1494              	.LBB524:
 1495              		.loc 12 42 22 view .LVU326
 1496 000a 2C4A     		ldr	r2, .L57+8
 1497              	.LBE524:
 1498              	.LBE526:
 1499              	.LBE529:
 1500              	.LBE532:
 1501              	.LBE578:
 1502              	.LBE581:
  96:Interface.cpp **** void InitializeDelay() {
ARM GAS  /var/folders/9s/8rp0_f2s1n31qbztm3b5_fdh0000gn/T//ccXta1BT.s 			page 63


 1503              		.loc 16 96 24 view .LVU327
 1504 000c 2DED028B 		vpush.64	{d8}
 1505              		.cfi_def_cfa_offset 32
 1506              		.cfi_offset 80, -32
 1507              		.cfi_offset 81, -28
  98:Interface.cpp ****     delay.Init(sample_rate); 
 1508              		.loc 16 98 15 view .LVU328
 1509 0010 93ED008A 		vldr.32	s16, [r3]
 1510              	.LVL115:
 1511              	.LBB582:
 1512              	.LBI518:
  27:Effects/EchoDelay.h ****         {
 1513              		.loc 9 27 14 is_stmt 1 view .LVU329
 1514              	.LBB579:
 1515              		.loc 9 29 26 is_stmt 0 view .LVU330
 1516 0014 2030     		adds	r0, r0, #32
 1517              	.LBB533:
 1518              	.LBB534:
 106:Effects/BiquadFilters.h ****             for (size_t i=0; i<NumSections; i++) {
 1519              		.loc 10 106 41 view .LVU331
 1520 0016 F6EE008A 		vmov.f32	s17, #5.0e-1
 1521              	.LBE534:
 1522              	.LBE533:
 1523              		.loc 9 29 26 view .LVU332
 1524 001a 84ED008A 		vstr.32	s16, [r4]
 1525              	.LVL116:
 1526              	.LBB556:
 1527              	.LBI520:
  35:lib/DaisySP/Source/Utility/delayline.h ****     /** clears buffer, sets write ptr to 0, and delay to 1 sample.
 1528              		.loc 12 35 10 is_stmt 1 view .LVU333
 1529              	.LBB530:
 1530              	.LBI521:
  38:lib/DaisySP/Source/Utility/delayline.h ****     {
 1531              		.loc 12 38 10 view .LVU334
 1532              	.LBB527:
 1533              	.LBB525:
  40:lib/DaisySP/Source/Utility/delayline.h ****         {
 1534              		.loc 12 40 29 view .LVU335
 1535              		.loc 12 42 22 is_stmt 0 view .LVU336
 1536 001e FFF7FEFF 		bl	memset
 1537              	.LVL117:
 1538              		.loc 12 42 22 view .LVU337
 1539              	.LBE525:
  43:lib/DaisySP/Source/Utility/delayline.h ****         }
  44:lib/DaisySP/Source/Utility/delayline.h ****         write_ptr_ = 0;
  45:lib/DaisySP/Source/Utility/delayline.h ****         delay_     = 1;
 1540              		.loc 12 45 20 view .LVU338
 1541 0022 0022     		movs	r2, #0
 1542 0024 0123     		movs	r3, #1
 1543              	.LBE527:
 1544              	.LBE530:
 1545              	.LBE556:
 1546              	.LBB557:
 1547              	.LBB558:
  85:Effects/BiquadFilters.h ****             SetFlatResponse();
 1548              		.loc 10 85 38 view .LVU339
 1549 0026 F5EE007A 		vmov.f32	s15, #2.5e-1
ARM GAS  /var/folders/9s/8rp0_f2s1n31qbztm3b5_fdh0000gn/T//ccXta1BT.s 			page 64


 1550              	.LBE558:
 1551              	.LBE557:
 1552              	.LBB572:
 1553              	.LBB531:
 1554              	.LBB528:
 1555              		.loc 12 45 20 view .LVU340
 1556 002a C4E90623 		strd	r2, r3, [r4, #24]
 1557              	.LVL118:
 1558              		.loc 12 45 20 view .LVU341
 1559              	.LBE528:
 1560              	.LBE531:
 1561              	.LBE572:
 1562              	.LBB573:
 1563              	.LBI557:
  83:Effects/BiquadFilters.h ****             sample_rate_ = sample_rate;
 1564              		.loc 10 83 14 is_stmt 1 view .LVU342
 1565              	.LBB570:
  84:Effects/BiquadFilters.h ****             cutoff_hz_ = sample_rate * 0.25f;
 1566              		.loc 10 84 26 is_stmt 0 view .LVU343
 1567 002e 04F53833 		add	r3, r4, #188416
 1568 0032 03F56267 		add	r7, r3, #3616
  85:Effects/BiquadFilters.h ****             SetFlatResponse();
 1569              		.loc 10 85 24 view .LVU344
 1570 0036 03F62466 		addw	r6, r3, #3620
 1571              	.LBB559:
 1572              	.LBB560:
 1573              	.LBB561:
 119:Effects/BiquadFilters.h ****             }
 1574              		.loc 10 119 23 view .LVU345
 1575 003a 03F62865 		addw	r5, r3, #3624
 1576 003e 204B     		ldr	r3, .L57+12
 1577              	.LBE561:
 1578              	.LBE560:
 1579              	.LBE559:
  84:Effects/BiquadFilters.h ****             cutoff_hz_ = sample_rate * 0.25f;
 1580              		.loc 10 84 26 view .LVU346
 1581 0040 87ED008A 		vstr.32	s16, [r7]
  85:Effects/BiquadFilters.h ****             SetFlatResponse();
 1582              		.loc 10 85 38 view .LVU347
 1583 0044 28EE278A 		vmul.f32	s16, s16, s15
 1584              	.LVL119:
 1585              	.LBB567:
 1586              	.LBB564:
 121:Effects/BiquadFilters.h ****         }
 1587              		.loc 10 121 31 view .LVU348
 1588 0048 3846     		mov	r0, r7
 1589              	.LBB562:
 119:Effects/BiquadFilters.h ****             }
 1590              		.loc 10 119 23 view .LVU349
 1591 004a 2B60     		str	r3, [r5]	@ float
 1592              	.LBE562:
 1593              	.LBE564:
 1594              	.LBE567:
  85:Effects/BiquadFilters.h ****             SetFlatResponse();
 1595              		.loc 10 85 24 view .LVU350
 1596 004c 86ED008A 		vstr.32	s16, [r6]
 1597              	.LVL120:
ARM GAS  /var/folders/9s/8rp0_f2s1n31qbztm3b5_fdh0000gn/T//ccXta1BT.s 			page 65


 1598              	.LBB568:
 1599              	.LBI559:
 115:Effects/BiquadFilters.h ****         {
 1600              		.loc 10 115 21 is_stmt 1 view .LVU351
 1601              	.LBB565:
 1602              	.LBB563:
 118:Effects/BiquadFilters.h ****                 q_[i] = 1.f / (2.f * cosf(PI_F * (angleIncrement * (i * 2 + 1))));
 1603              		.loc 10 118 31 view .LVU352
 118:Effects/BiquadFilters.h ****                 q_[i] = 1.f / (2.f * cosf(PI_F * (angleIncrement * (i * 2 + 1))));
 1604              		.loc 10 118 13 view .LVU353
 118:Effects/BiquadFilters.h ****                 q_[i] = 1.f / (2.f * cosf(PI_F * (angleIncrement * (i * 2 + 1))));
 1605              		.loc 10 118 31 view .LVU354
 1606              	.LBE563:
 1607              	.LBE565:
 1608              	.LBE568:
 1609              	.LBE570:
 1610              	.LBE573:
 1611              	.LBB574:
 1612              	.LBB553:
 1613              	.LBB535:
 1614              	.LBB536:
 1615              	.LBB537:
 1616              		.file 20 "lib/DaisySP/Source/Utility/dsp.h"
   1:lib/DaisySP/Source/Utility/dsp.h **** /*
   2:lib/DaisySP/Source/Utility/dsp.h **** Copyright (c) 2020 Electrosmith, Corp, Emilie Gillet
   3:lib/DaisySP/Source/Utility/dsp.h **** 
   4:lib/DaisySP/Source/Utility/dsp.h **** Use of this source code is governed by an MIT-style
   5:lib/DaisySP/Source/Utility/dsp.h **** license that can be found in the LICENSE file or at
   6:lib/DaisySP/Source/Utility/dsp.h **** https://opensource.org/licenses/MIT.
   7:lib/DaisySP/Source/Utility/dsp.h **** */
   8:lib/DaisySP/Source/Utility/dsp.h **** 
   9:lib/DaisySP/Source/Utility/dsp.h **** /** Helpful defines, functions, and other utilities for use in/with daisysp modules.
  10:lib/DaisySP/Source/Utility/dsp.h **** */
  11:lib/DaisySP/Source/Utility/dsp.h **** #pragma once
  12:lib/DaisySP/Source/Utility/dsp.h **** #ifndef DSY_CORE_DSP
  13:lib/DaisySP/Source/Utility/dsp.h **** #define DSY_CORE_DSP
  14:lib/DaisySP/Source/Utility/dsp.h **** #include <cassert>
  15:lib/DaisySP/Source/Utility/dsp.h **** #include <cstdint>
  16:lib/DaisySP/Source/Utility/dsp.h **** #include <random>
  17:lib/DaisySP/Source/Utility/dsp.h **** #include <cmath>
  18:lib/DaisySP/Source/Utility/dsp.h **** 
  19:lib/DaisySP/Source/Utility/dsp.h **** /** PIs
  20:lib/DaisySP/Source/Utility/dsp.h **** */
  21:lib/DaisySP/Source/Utility/dsp.h **** #define PI_F 3.1415927410125732421875f
  22:lib/DaisySP/Source/Utility/dsp.h **** #define TWOPI_F (2.0f * PI_F)
  23:lib/DaisySP/Source/Utility/dsp.h **** #define HALFPI_F (PI_F * 0.5f)
  24:lib/DaisySP/Source/Utility/dsp.h **** #define DSY_MIN(in, mn) (in < mn ? in : mn)
  25:lib/DaisySP/Source/Utility/dsp.h **** #define DSY_MAX(in, mx) (in > mx ? in : mx)
  26:lib/DaisySP/Source/Utility/dsp.h **** #define DSY_CLAMP(in, mn, mx) (DSY_MIN(DSY_MAX(in, mn), mx))
  27:lib/DaisySP/Source/Utility/dsp.h **** #define DSY_COUNTOF(_arr) (sizeof(_arr) / sizeof(_arr[0]))
  28:lib/DaisySP/Source/Utility/dsp.h **** 
  29:lib/DaisySP/Source/Utility/dsp.h **** namespace daisysp
  30:lib/DaisySP/Source/Utility/dsp.h **** {
  31:lib/DaisySP/Source/Utility/dsp.h **** //Avoids division for random floats. e.g. rand() * kRandFrac
  32:lib/DaisySP/Source/Utility/dsp.h **** static constexpr float kRandFrac = 1.f / (float)RAND_MAX;
  33:lib/DaisySP/Source/Utility/dsp.h **** 
  34:lib/DaisySP/Source/Utility/dsp.h **** //Convert from semitones to other units. e.g. 2 ^ (kOneTwelfth * x)
ARM GAS  /var/folders/9s/8rp0_f2s1n31qbztm3b5_fdh0000gn/T//ccXta1BT.s 			page 66


  35:lib/DaisySP/Source/Utility/dsp.h **** static constexpr float kOneTwelfth = 1.f / 12.f;
  36:lib/DaisySP/Source/Utility/dsp.h **** 
  37:lib/DaisySP/Source/Utility/dsp.h **** /** efficient floating point min/max
  38:lib/DaisySP/Source/Utility/dsp.h **** c/o stephen mccaul
  39:lib/DaisySP/Source/Utility/dsp.h **** */
  40:lib/DaisySP/Source/Utility/dsp.h **** inline float fmax(float a, float b)
  41:lib/DaisySP/Source/Utility/dsp.h **** {
  42:lib/DaisySP/Source/Utility/dsp.h ****     float r;
  43:lib/DaisySP/Source/Utility/dsp.h **** #ifdef __arm__
  44:lib/DaisySP/Source/Utility/dsp.h ****     asm("vmaxnm.f32 %[d], %[n], %[m]" : [d] "=t"(r) : [n] "t"(a), [m] "t"(b) :);
 1617              		.loc 20 44 5 is_stmt 0 view .LVU355
 1618 0050 B7EE008A 		vmov.f32	s16, #1.0e+0
 1619              	.LBE537:
 1620              	.LBE536:
 1621              	.LBE535:
 1622              	.LBE553:
 1623              	.LBE574:
 1624              	.LBB575:
 1625              	.LBB571:
 1626              	.LBB569:
 1627              	.LBB566:
 121:Effects/BiquadFilters.h ****         }
 1628              		.loc 10 121 31 view .LVU356
 1629 0054 FFF7FEFF 		bl	_ZN10infrasonic13BiquadCascadeILj1ELNS_13BiquadSection10FilterTypeE2EE18updateCoefficientsEv
 1630              	.LVL121:
 121:Effects/BiquadFilters.h ****         }
 1631              		.loc 10 121 31 view .LVU357
 1632              	.LBE566:
 1633              	.LBE569:
 1634              	.LBE571:
 1635              	.LBE575:
 1636              	.LBB576:
 1637              	.LBI533:
 104:Effects/BiquadFilters.h ****         {
 1638              		.loc 10 104 21 is_stmt 1 view .LVU358
 1639              	.LBB554:
 1640              	.LBB546:
 1641              	.LBI535:
  45:lib/DaisySP/Source/Utility/dsp.h **** #else
  46:lib/DaisySP/Source/Utility/dsp.h ****     r = (a > b) ? a : b;
  47:lib/DaisySP/Source/Utility/dsp.h **** #endif // __arm__
  48:lib/DaisySP/Source/Utility/dsp.h ****     return r;
  49:lib/DaisySP/Source/Utility/dsp.h **** }
  50:lib/DaisySP/Source/Utility/dsp.h **** 
  51:lib/DaisySP/Source/Utility/dsp.h **** inline float fmin(float a, float b)
  52:lib/DaisySP/Source/Utility/dsp.h **** {
  53:lib/DaisySP/Source/Utility/dsp.h ****     float r;
  54:lib/DaisySP/Source/Utility/dsp.h **** #ifdef __arm__
  55:lib/DaisySP/Source/Utility/dsp.h ****     asm("vminnm.f32 %[d], %[n], %[m]" : [d] "=t"(r) : [n] "t"(a), [m] "t"(b) :);
  56:lib/DaisySP/Source/Utility/dsp.h **** #else
  57:lib/DaisySP/Source/Utility/dsp.h ****     r = (a < b) ? a : b;
  58:lib/DaisySP/Source/Utility/dsp.h **** #endif // __arm__
  59:lib/DaisySP/Source/Utility/dsp.h ****     return r;
  60:lib/DaisySP/Source/Utility/dsp.h **** }
  61:lib/DaisySP/Source/Utility/dsp.h **** 
  62:lib/DaisySP/Source/Utility/dsp.h **** /** quick fp clamp
  63:lib/DaisySP/Source/Utility/dsp.h **** */
ARM GAS  /var/folders/9s/8rp0_f2s1n31qbztm3b5_fdh0000gn/T//ccXta1BT.s 			page 67


  64:lib/DaisySP/Source/Utility/dsp.h **** inline float fclamp(float in, float min, float max)
 1642              		.loc 20 64 14 view .LVU359
 1643              	.LBE546:
 1644              	.LBE554:
 1645              	.LBE576:
 1646              	.LBE579:
 1647              	.LBE582:
  65:lib/DaisySP/Source/Utility/dsp.h **** {
  66:lib/DaisySP/Source/Utility/dsp.h ****     return fmin(fmax(in, min), max);
 1648              		.loc 20 66 5 view .LVU360
 1649              	.LBB583:
 1650              	.LBB580:
 1651              	.LBB577:
 1652              	.LBB555:
 1653              	.LBB547:
 1654              	.LBB541:
 1655              	.LBI536:
  40:lib/DaisySP/Source/Utility/dsp.h **** {
 1656              		.loc 20 40 14 view .LVU361
 1657              	.LBB538:
  42:lib/DaisySP/Source/Utility/dsp.h **** #ifdef __arm__
 1658              		.loc 20 42 5 view .LVU362
  44:lib/DaisySP/Source/Utility/dsp.h **** #else
 1659              		.loc 20 44 5 view .LVU363
 1660              	.LBE538:
 1661              	.LBE541:
 1662              	.LBE547:
 106:Effects/BiquadFilters.h ****             for (size_t i=0; i<NumSections; i++) {
 1663              		.loc 10 106 41 is_stmt 0 view .LVU364
 1664 0058 97ED007A 		vldr.32	s14, [r7]
 1665              	.LBB548:
 1666              	.LBB542:
 1667              	.LBB539:
  44:lib/DaisySP/Source/Utility/dsp.h **** #else
 1668              		.loc 20 44 5 view .LVU365
 1669 005c DFED197A 		vldr.32	s15, .L57+16
 1670              	.LBE539:
 1671              	.LBE542:
 1672              	.LBE548:
 110:Effects/BiquadFilters.h ****         }
 1673              		.loc 10 110 31 view .LVU366
 1674 0060 3846     		mov	r0, r7
 106:Effects/BiquadFilters.h ****             for (size_t i=0; i<NumSections; i++) {
 1675              		.loc 10 106 41 view .LVU367
 1676 0062 27EE287A 		vmul.f32	s14, s14, s17
 1677              	.LVL122:
 1678              	.LBB549:
 1679              	.LBB543:
 1680              	.LBB540:
  44:lib/DaisySP/Source/Utility/dsp.h **** #else
 1681              		.loc 20 44 5 view .LVU368
 1682              		.syntax unified
 1683              	@ 44 "lib/DaisySP/Source/Utility/dsp.h" 1
 1684 0066 C7FE887A 		vmaxnm.f32 s15, s15, s16
 1685              	@ 0 "" 2
 1686              	.LVL123:
  48:lib/DaisySP/Source/Utility/dsp.h **** }
ARM GAS  /var/folders/9s/8rp0_f2s1n31qbztm3b5_fdh0000gn/T//ccXta1BT.s 			page 68


 1687              		.loc 20 48 5 is_stmt 1 view .LVU369
  48:lib/DaisySP/Source/Utility/dsp.h **** }
 1688              		.loc 20 48 5 is_stmt 0 view .LVU370
 1689              		.thumb
 1690              		.syntax unified
 1691              	.LBE540:
 1692              	.LBE543:
 1693              	.LBB544:
 1694              	.LBI544:
  51:lib/DaisySP/Source/Utility/dsp.h **** {
 1695              		.loc 20 51 14 is_stmt 1 view .LVU371
 1696              	.LBB545:
  53:lib/DaisySP/Source/Utility/dsp.h **** #ifdef __arm__
 1697              		.loc 20 53 5 view .LVU372
  55:lib/DaisySP/Source/Utility/dsp.h **** #else
 1698              		.loc 20 55 5 view .LVU373
 1699              		.syntax unified
 1700              	@ 55 "lib/DaisySP/Source/Utility/dsp.h" 1
 1701 006a C7FEC77A 		vminnm.f32 s15, s15, s14
 1702              	@ 0 "" 2
 1703              	.LVL124:
  59:lib/DaisySP/Source/Utility/dsp.h **** }
 1704              		.loc 20 59 5 view .LVU374
  59:lib/DaisySP/Source/Utility/dsp.h **** }
 1705              		.loc 20 59 5 is_stmt 0 view .LVU375
 1706              		.thumb
 1707              		.syntax unified
 1708              	.LBE545:
 1709              	.LBE544:
 1710              	.LBE549:
 106:Effects/BiquadFilters.h ****             for (size_t i=0; i<NumSections; i++) {
 1711              		.loc 10 106 24 view .LVU376
 1712 006e C6ED007A 		vstr.32	s15, [r6]
 1713              	.LVL125:
 1714              	.LBB550:
 107:Effects/BiquadFilters.h ****                 q_[i] = daisysp::fmax(q, 0.1f);
 1715              		.loc 10 107 31 is_stmt 1 view .LVU377
 1716              	.LBB551:
 1717              	.LBI551:
  40:lib/DaisySP/Source/Utility/dsp.h **** {
 1718              		.loc 20 40 14 view .LVU378
 1719              	.LBB552:
  42:lib/DaisySP/Source/Utility/dsp.h **** #ifdef __arm__
 1720              		.loc 20 42 5 view .LVU379
  44:lib/DaisySP/Source/Utility/dsp.h **** #else
 1721              		.loc 20 44 5 view .LVU380
 1722 0072 DFED157A 		vldr.32	s15, .L57+20
 1723              		.syntax unified
 1724              	@ 44 "lib/DaisySP/Source/Utility/dsp.h" 1
 1725 0076 C8FE277A 		vmaxnm.f32 s15, s16, s15
 1726              	@ 0 "" 2
 1727              	.LVL126:
  48:lib/DaisySP/Source/Utility/dsp.h **** }
 1728              		.loc 20 48 5 view .LVU381
  48:lib/DaisySP/Source/Utility/dsp.h **** }
 1729              		.loc 20 48 5 is_stmt 0 view .LVU382
 1730              		.thumb
ARM GAS  /var/folders/9s/8rp0_f2s1n31qbztm3b5_fdh0000gn/T//ccXta1BT.s 			page 69


 1731              		.syntax unified
 1732              	.LBE552:
 1733              	.LBE551:
 108:Effects/BiquadFilters.h ****             }
 1734              		.loc 10 108 23 view .LVU383
 1735 007a C5ED007A 		vstr.32	s15, [r5]
 107:Effects/BiquadFilters.h ****                 q_[i] = daisysp::fmax(q, 0.1f);
 1736              		.loc 10 107 13 is_stmt 1 view .LVU384
 1737              	.LVL127:
 107:Effects/BiquadFilters.h ****                 q_[i] = daisysp::fmax(q, 0.1f);
 1738              		.loc 10 107 31 view .LVU385
 1739              	.LBE550:
 110:Effects/BiquadFilters.h ****         }
 1740              		.loc 10 110 31 is_stmt 0 view .LVU386
 1741 007e FFF7FEFF 		bl	_ZN10infrasonic13BiquadCascadeILj1ELNS_13BiquadSection10FilterTypeE2EE18updateCoefficientsEv
 1742              	.LVL128:
 110:Effects/BiquadFilters.h ****         }
 1743              		.loc 10 110 31 view .LVU387
 1744              	.LBE555:
 1745              	.LBE577:
 1746              	.LBE580:
 1747              	.LBE583:
  99:Interface.cpp ****     delay.SetLagTime(0.02f);         // Short lag for time changes
 1748              		.loc 16 99 5 is_stmt 1 view .LVU388
 1749              	.LBB584:
 1750              	.LBI584:
  30:Effects/EchoDelay.h ****             delayLine_.Init();
  31:Effects/EchoDelay.h ****             bpf_.Init(sample_rate);
  32:Effects/EchoDelay.h ****             bpf_.SetParams(800.0f, 1.0f);
  33:Effects/EchoDelay.h ****         }
  34:Effects/EchoDelay.h **** 
  35:Effects/EchoDelay.h ****         /**
  36:Effects/EchoDelay.h ****          * @brief Set the approximate lag time (smoothing) for delay time changes, in seconds
  37:Effects/EchoDelay.h ****          */
  38:Effects/EchoDelay.h ****         void SetLagTime(const float time_s)
 1751              		.loc 9 38 14 view .LVU389
 1752              	.LBB585:
  39:Effects/EchoDelay.h ****         {
  40:Effects/EchoDelay.h ****             delay_smooth_coef_ = onepole_coef(time_s, sample_rate_);
 1753              		.loc 9 40 46 is_stmt 0 view .LVU390
 1754 0082 D4ED007A 		vldr.32	s15, [r4]
 1755              	.LVL129:
 1756              	.LBB586:
 1757              	.LBI586:
 1758              		.file 21 "Effects/DSPUtils.h"
   1:Effects/DSPUtils.h **** #pragma once
   2:Effects/DSPUtils.h **** #ifndef INFS_DSPUTILS_H
   3:Effects/DSPUtils.h **** #define INFS_DSPUTILS_H
   4:Effects/DSPUtils.h **** 
   5:Effects/DSPUtils.h **** #include <cmath>
   6:Effects/DSPUtils.h **** #include <Utility/dsp.h>
   7:Effects/DSPUtils.h **** #ifdef __arm__
   8:Effects/DSPUtils.h **** #include <arm_math.h>
   9:Effects/DSPUtils.h **** #endif
  10:Effects/DSPUtils.h **** 
  11:Effects/DSPUtils.h **** namespace infrasonic {
  12:Effects/DSPUtils.h **** 
ARM GAS  /var/folders/9s/8rp0_f2s1n31qbztm3b5_fdh0000gn/T//ccXta1BT.s 			page 70


  13:Effects/DSPUtils.h **** inline float dbfs2lin(float dbfs) {
  14:Effects/DSPUtils.h ****     return daisysp::pow10f(dbfs * 0.05f);
  15:Effects/DSPUtils.h **** }
  16:Effects/DSPUtils.h **** 
  17:Effects/DSPUtils.h **** inline float lin2dbfs(float lin) {
  18:Effects/DSPUtils.h ****     return daisysp::fastlog10f(lin) * 20.0f;
  19:Effects/DSPUtils.h **** }
  20:Effects/DSPUtils.h **** 
  21:Effects/DSPUtils.h **** // Coefficient for one pole smoothing filter based on Tau time constant for `time_s`
  22:Effects/DSPUtils.h **** inline float onepole_coef(float time_s, float sample_rate) {
 1759              		.loc 21 22 14 is_stmt 1 view .LVU391
 1760              	.LBB587:
  23:Effects/DSPUtils.h ****     if (time_s <= 0.0f || sample_rate <= 0.0f) { return 1.0f; }
 1761              		.loc 21 23 5 view .LVU392
 1762              		.loc 21 23 24 is_stmt 0 view .LVU393
 1763 0086 F5EEC07A 		vcmpe.f32	s15, #0
 1764 008a F1EE10FA 		vmrs	APSR_nzcv, FPSCR
 1765 008e 07D9     		bls	.L55
  24:Effects/DSPUtils.h ****     return daisysp::fmin(1.0f / (time_s * sample_rate), 1.0f);
 1766              		.loc 21 24 5 is_stmt 1 view .LVU394
 1767              	.LVL130:
 1768              	.LBB588:
 1769              	.LBI588:
  51:lib/DaisySP/Source/Utility/dsp.h **** {
 1770              		.loc 20 51 14 view .LVU395
 1771              	.LBB589:
  53:lib/DaisySP/Source/Utility/dsp.h **** #ifdef __arm__
 1772              		.loc 20 53 5 view .LVU396
  55:lib/DaisySP/Source/Utility/dsp.h **** #else
 1773              		.loc 20 55 5 view .LVU397
 1774              	.LBE589:
 1775              	.LBE588:
 1776              		.loc 21 24 41 is_stmt 0 view .LVU398
 1777 0090 9FED0E7A 		vldr.32	s14, .L57+24
 1778 0094 67EE877A 		vmul.f32	s15, s15, s14
 1779              	.LVL131:
 1780              		.loc 21 24 25 view .LVU399
 1781 0098 88EE277A 		vdiv.f32	s14, s16, s15
 1782              	.LVL132:
 1783              	.LBB591:
 1784              	.LBB590:
  55:lib/DaisySP/Source/Utility/dsp.h **** #else
 1785              		.loc 20 55 5 view .LVU400
 1786              		.syntax unified
 1787              	@ 55 "lib/DaisySP/Source/Utility/dsp.h" 1
 1788 009c 87FE488A 		vminnm.f32 s16, s14, s16
 1789              	@ 0 "" 2
 1790              	.LVL133:
  59:lib/DaisySP/Source/Utility/dsp.h **** }
 1791              		.loc 20 59 5 is_stmt 1 view .LVU401
 1792              		.thumb
 1793              		.syntax unified
 1794              	.L55:
  59:lib/DaisySP/Source/Utility/dsp.h **** }
 1795              		.loc 20 59 5 is_stmt 0 view .LVU402
 1796              	.LBE590:
 1797              	.LBE591:
ARM GAS  /var/folders/9s/8rp0_f2s1n31qbztm3b5_fdh0000gn/T//ccXta1BT.s 			page 71


 1798              	.LBE587:
 1799              	.LBE586:
 1800              	.LBE585:
 1801              	.LBE584:
 1802              	.LBB593:
 1803              	.LBB594:
  41:Effects/EchoDelay.h ****         }
  42:Effects/EchoDelay.h **** 
  43:Effects/EchoDelay.h ****         /**
  44:Effects/EchoDelay.h ****          * @brief Set the Delay Time in seconds
  45:Effects/EchoDelay.h ****          *
  46:Effects/EchoDelay.h ****          * @param time_s Delay time in seconds. Will be truncated to MaxLength.
  47:Effects/EchoDelay.h ****          * @param immediately If true, sets delay time immediately with no smoothing.
  48:Effects/EchoDelay.h ****          */
  49:Effects/EchoDelay.h ****         void SetDelayTime(const float time_s, bool immediately = false)
  50:Effects/EchoDelay.h ****         {
  51:Effects/EchoDelay.h ****             delay_time_target_ = time_s;
 1804              		.loc 9 51 32 view .LVU403
 1805 00a0 0B4B     		ldr	r3, .L57+28
 1806              	.LBE594:
 1807              	.LBE593:
 1808              	.LBB596:
 1809              	.LBB592:
  40:Effects/EchoDelay.h ****         }
 1810              		.loc 9 40 32 view .LVU404
 1811 00a2 84ED038A 		vstr.32	s16, [r4, #12]
 1812              	.LVL134:
  40:Effects/EchoDelay.h ****         }
 1813              		.loc 9 40 32 view .LVU405
 1814              	.LBE592:
 1815              	.LBE596:
 100:Interface.cpp ****     delay.SetDelayTime(0.3f, true); // 300ms delay, set immediately
 1816              		.loc 16 100 5 is_stmt 1 view .LVU406
 1817              	.LBB597:
 1818              	.LBI593:
  49:Effects/EchoDelay.h ****         {
 1819              		.loc 9 49 14 view .LVU407
 1820              	.LBE597:
 1821              	.LBB598:
 1822              	.LBB599:
  52:Effects/EchoDelay.h ****             if (immediately) delay_time_current_ = time_s;
  53:Effects/EchoDelay.h ****         }
  54:Effects/EchoDelay.h **** 
  55:Effects/EchoDelay.h ****         /**
  56:Effects/EchoDelay.h ****          * @brief
  57:Effects/EchoDelay.h ****          * Set the feedback amount (linear multiplier).
  58:Effects/EchoDelay.h ****          * This can be >1 in magnitude for saturated swells, or negative.
  59:Effects/EchoDelay.h ****          *
  60:Effects/EchoDelay.h ****          * NOTE: This is not internally smoothed. Use external smoothing if desired.
  61:Effects/EchoDelay.h ****          *
  62:Effects/EchoDelay.h ****          * @param feedback
  63:Effects/EchoDelay.h ****          */
  64:Effects/EchoDelay.h ****         void SetFeedback(const float feedback)
  65:Effects/EchoDelay.h ****         {
  66:Effects/EchoDelay.h ****             feedback_ = feedback;
 1823              		.loc 9 66 23 is_stmt 0 view .LVU408
 1824 00a6 C4ED048A 		vstr.32	s17, [r4, #16]
ARM GAS  /var/folders/9s/8rp0_f2s1n31qbztm3b5_fdh0000gn/T//ccXta1BT.s 			page 72


 1825              	.LBE599:
 1826              	.LBE598:
 1827              	.LBB600:
 1828              	.LBB595:
  51:Effects/EchoDelay.h ****             if (immediately) delay_time_current_ = time_s;
 1829              		.loc 9 51 32 view .LVU409
 1830 00aa A360     		str	r3, [r4, #8]	@ float
  52:Effects/EchoDelay.h ****             if (immediately) delay_time_current_ = time_s;
 1831              		.loc 9 52 50 view .LVU410
 1832 00ac 6360     		str	r3, [r4, #4]	@ float
 1833              	.LVL135:
  52:Effects/EchoDelay.h ****             if (immediately) delay_time_current_ = time_s;
 1834              		.loc 9 52 50 view .LVU411
 1835              	.LBE595:
 1836              	.LBE600:
 101:Interface.cpp ****     delay.SetFeedback(0.5f);         // 50% feedback
 1837              		.loc 16 101 5 is_stmt 1 view .LVU412
 1838              	.LBB601:
 1839              	.LBI598:
  64:Effects/EchoDelay.h ****         {
 1840              		.loc 9 64 14 view .LVU413
  64:Effects/EchoDelay.h ****         {
 1841              		.loc 9 64 14 is_stmt 0 view .LVU414
 1842              	.LBE601:
 102:Interface.cpp **** }
 1843              		.loc 16 102 1 view .LVU415
 1844 00ae BDEC028B 		vldm	sp!, {d8}
 1845              		.cfi_restore 80
 1846              		.cfi_restore 81
 1847              		.cfi_def_cfa_offset 24
 1848 00b2 F8BD     		pop	{r3, r4, r5, r6, r7, pc}
 1849              	.L58:
 1850              		.align	2
 1851              	.L57:
 1852 00b4 00000000 		.word	delay
 1853 00b8 00000000 		.word	.LANCHOR2
 1854 00bc 00EE0200 		.word	192000
 1855 00c0 F304353F 		.word	1060439283
 1856 00c4 00004844 		.word	1145569280
 1857 00c8 CDCCCC3D 		.word	1036831949
 1858 00cc 0AD7A33C 		.word	1017370378
 1859 00d0 9A99993E 		.word	1050253722
 1860              		.cfi_endproc
 1861              	.LFE5349:
 1863              		.section	.rodata._Z15InitializeSynthv.str1.1,"aMS",%progbits,1
 1864              	.LC3:
 1865 0000 506F6C79 		.ascii	"Poly (0-3)\000"
 1865      2028302D 
 1865      332900
 1866              	.LC4:
 1867 000b 44796E61 		.ascii	"Dynamic Poly\000"
 1867      6D696320 
 1867      506F6C79 
 1867      00
 1868              	.LC5:
 1869 0018 506C6169 		.ascii	"Plaits Synth Started - Ready for Bootloader CMD\000"
 1869      74732053 
ARM GAS  /var/folders/9s/8rp0_f2s1n31qbztm3b5_fdh0000gn/T//ccXta1BT.s 			page 73


 1869      796E7468 
 1869      20537461 
 1869      72746564 
 1870              	.LC6:
 1871 0048 4D617820 		.ascii	"Max Voices: %d | Block: %d | SR: %d\000"
 1871      566F6963 
 1871      65733A20 
 1871      2564207C 
 1871      20426C6F 
 1872              	.LC7:
 1873 006c 456E6769 		.ascii	"Engine Range: 0-%d\000"
 1873      6E652052 
 1873      616E6765 
 1873      3A20302D 
 1873      256400
 1874              	.LC8:
 1875 007f 4D6F6465 		.ascii	"Mode: %s\000"
 1875      3A202573 
 1875      00
 1876              	.LC9:
 1877 0088 2D2D2D2D 		.ascii	"----------------\000"
 1877      2D2D2D2D 
 1877      2D2D2D2D 
 1877      2D2D2D2D 
 1877      00
 1878              		.section	.text._Z15InitializeSynthv,"ax",%progbits
 1879              		.align	1
 1880              		.global	_Z15InitializeSynthv
 1881              		.syntax unified
 1882              		.thumb
 1883              		.thumb_func
 1885              	_Z15InitializeSynthv:
 1886              	.LFB5350:
 104:Interface.cpp **** void InitializeSynth() {
 1887              		.loc 16 104 24 is_stmt 1 view -0
 1888              		.cfi_startproc
 1889              		@ args = 0, pretend = 0, frame = 64
 1890              		@ frame_needed = 0, uses_anonymous_args = 0
 105:Interface.cpp ****     InitializeHardware();
 1891              		.loc 16 105 5 view .LVU417
 104:Interface.cpp **** void InitializeSynth() {
 1892              		.loc 16 104 24 is_stmt 0 view .LVU418
 1893 0000 10B5     		push	{r4, lr}
 1894              		.cfi_def_cfa_offset 8
 1895              		.cfi_offset 4, -8
 1896              		.cfi_offset 14, -4
 110:Interface.cpp ****     cpu_meter.Init(sample_rate, BLOCK_SIZE); // Initialize the CPU Load Meter
 1897              		.loc 16 110 19 view .LVU419
 1898 0002 414C     		ldr	r4, .L62
 104:Interface.cpp **** void InitializeSynth() {
 1899              		.loc 16 104 24 view .LVU420
 1900 0004 2DED028B 		vpush.64	{d8}
 1901              		.cfi_def_cfa_offset 16
 1902              		.cfi_offset 80, -16
 1903              		.cfi_offset 81, -12
 1904 0008 92B0     		sub	sp, sp, #72
 1905              		.cfi_def_cfa_offset 88
ARM GAS  /var/folders/9s/8rp0_f2s1n31qbztm3b5_fdh0000gn/T//ccXta1BT.s 			page 74


 105:Interface.cpp ****     InitializeHardware();
 1906              		.loc 16 105 23 view .LVU421
 1907 000a FFF7FEFF 		bl	_Z18InitializeHardwarev
 1908              	.LVL136:
 106:Interface.cpp ****     InitializeVoices(); // Call function from Polyphony.cpp
 1909              		.loc 16 106 5 is_stmt 1 view .LVU422
 106:Interface.cpp ****     InitializeVoices(); // Call function from Polyphony.cpp
 1910              		.loc 16 106 21 is_stmt 0 view .LVU423
 1911 000e FFF7FEFF 		bl	_Z16InitializeVoicesv
 1912              	.LVL137:
 107:Interface.cpp ****     InitializeControls();
 1913              		.loc 16 107 5 is_stmt 1 view .LVU424
 107:Interface.cpp ****     InitializeControls();
 1914              		.loc 16 107 23 is_stmt 0 view .LVU425
 1915 0012 FFF7FEFF 		bl	_Z18InitializeControlsv
 1916              	.LVL138:
 108:Interface.cpp ****     InitializeTouchSensor();
 1917              		.loc 16 108 5 is_stmt 1 view .LVU426
 108:Interface.cpp ****     InitializeTouchSensor();
 1918              		.loc 16 108 26 is_stmt 0 view .LVU427
 1919 0016 FFF7FEFF 		bl	_Z21InitializeTouchSensorv
 1920              	.LVL139:
 109:Interface.cpp ****     InitializeDelay();
 1921              		.loc 16 109 5 is_stmt 1 view .LVU428
 109:Interface.cpp ****     InitializeDelay();
 1922              		.loc 16 109 20 is_stmt 0 view .LVU429
 1923 001a FFF7FEFF 		bl	_Z15InitializeDelayv
 1924              	.LVL140:
 110:Interface.cpp ****     cpu_meter.Init(sample_rate, BLOCK_SIZE); // Initialize the CPU Load Meter
 1925              		.loc 16 110 5 is_stmt 1 view .LVU430
 110:Interface.cpp ****     cpu_meter.Init(sample_rate, BLOCK_SIZE); // Initialize the CPU Load Meter
 1926              		.loc 16 110 19 is_stmt 0 view .LVU431
 1927 001e 94ED008A 		vldr.32	s16, [r4]
 1928              	.LVL141:
 1929              	.LBB628:
 1930              	.LBI628:
 1931              		.file 22 "lib/libdaisy/src/util/CpuLoadMeter.h"
   1:lib/libdaisy/src/util/CpuLoadMeter.h **** #pragma once
   2:lib/libdaisy/src/util/CpuLoadMeter.h **** 
   3:lib/libdaisy/src/util/CpuLoadMeter.h **** #include "sys/system.h"
   4:lib/libdaisy/src/util/CpuLoadMeter.h **** #include <cmath>
   5:lib/libdaisy/src/util/CpuLoadMeter.h **** 
   6:lib/libdaisy/src/util/CpuLoadMeter.h **** namespace daisy
   7:lib/libdaisy/src/util/CpuLoadMeter.h **** {
   8:lib/libdaisy/src/util/CpuLoadMeter.h **** /** @brief CPU load metering
   9:lib/libdaisy/src/util/CpuLoadMeter.h ****  *  @author jelliesen
  10:lib/libdaisy/src/util/CpuLoadMeter.h ****  *  @addtogroup utility
  11:lib/libdaisy/src/util/CpuLoadMeter.h ****  * 
  12:lib/libdaisy/src/util/CpuLoadMeter.h ****  *  To measure the CPU load of your audio processing, create a CpuLoadMeter
  13:lib/libdaisy/src/util/CpuLoadMeter.h ****  *  and initialize it with your block size and sample rate.
  14:lib/libdaisy/src/util/CpuLoadMeter.h ****  *  Then at the beginning of the audio callback, call `OnBlockStart()`, 
  15:lib/libdaisy/src/util/CpuLoadMeter.h ****  *  and at the end of the audio callback, call `OnBlockEnd()`.
  16:lib/libdaisy/src/util/CpuLoadMeter.h ****  *  You can then read out the minimum, maximum and average CPU load.
  17:lib/libdaisy/src/util/CpuLoadMeter.h ****  */
  18:lib/libdaisy/src/util/CpuLoadMeter.h **** class CpuLoadMeter
  19:lib/libdaisy/src/util/CpuLoadMeter.h **** {
  20:lib/libdaisy/src/util/CpuLoadMeter.h ****   public:
ARM GAS  /var/folders/9s/8rp0_f2s1n31qbztm3b5_fdh0000gn/T//ccXta1BT.s 			page 75


  21:lib/libdaisy/src/util/CpuLoadMeter.h ****     CpuLoadMeter(){};
  22:lib/libdaisy/src/util/CpuLoadMeter.h **** 
  23:lib/libdaisy/src/util/CpuLoadMeter.h ****     /** Initializes the CpuLoadMeter for a particular sample rate and block size.
  24:lib/libdaisy/src/util/CpuLoadMeter.h ****      *  @param sampleRateInHz           The sample rate in Hz
  25:lib/libdaisy/src/util/CpuLoadMeter.h ****      *  @param blockSizeInSamples       The block size in samples
  26:lib/libdaisy/src/util/CpuLoadMeter.h ****      *  @param smoothingFilterCutoffHz  The cutoff frequency of the smoothing filter that's used to
  27:lib/libdaisy/src/util/CpuLoadMeter.h ****      *                                  create the average CPU load reading.
  28:lib/libdaisy/src/util/CpuLoadMeter.h ****      */
  29:lib/libdaisy/src/util/CpuLoadMeter.h ****     void Init(float sampleRateInHz,
 1932              		.loc 22 29 10 is_stmt 1 view .LVU432
 1933              	.LBB629:
  30:lib/libdaisy/src/util/CpuLoadMeter.h ****               int   blockSizeInSamples,
  31:lib/libdaisy/src/util/CpuLoadMeter.h ****               float smoothingFilterCutoffHz = 1.0f)
  32:lib/libdaisy/src/util/CpuLoadMeter.h ****     {
  33:lib/libdaisy/src/util/CpuLoadMeter.h ****         const auto secPerBlock = float(blockSizeInSamples) / sampleRateInHz;
 1934              		.loc 22 33 9 view .LVU433
  34:lib/libdaisy/src/util/CpuLoadMeter.h ****         const auto ticksPerS   = float(System::GetTickFreq());
 1935              		.loc 22 34 9 view .LVU434
 1936              		.loc 22 34 59 is_stmt 0 view .LVU435
 1937 0022 FFF7FEFF 		bl	_ZN5daisy6System11GetTickFreqEv
 1938              	.LVL142:
  35:lib/libdaisy/src/util/CpuLoadMeter.h ****         ticksPerBlockInv_      = 1.0f / (ticksPerS * secPerBlock);
 1939              		.loc 22 35 9 is_stmt 1 view .LVU436
  33:lib/libdaisy/src/util/CpuLoadMeter.h ****         const auto ticksPerS   = float(System::GetTickFreq());
 1940              		.loc 22 33 20 is_stmt 0 view .LVU437
 1941 0026 B3EE007A 		vmov.f32	s14, #1.6e+1
 1942              		.loc 22 35 32 view .LVU438
 1943 002a 384B     		ldr	r3, .L62+4
 1944              	.LBB630:
 1945              	.LBB631:
  36:lib/libdaisy/src/util/CpuLoadMeter.h **** 
  37:lib/libdaisy/src/util/CpuLoadMeter.h ****         // update filter coefficient for smoothing filter (1pole lowpass)
  38:lib/libdaisy/src/util/CpuLoadMeter.h ****         const auto blockRateInHz = sampleRateInHz / float(blockSizeInSamples);
  39:lib/libdaisy/src/util/CpuLoadMeter.h ****         const auto cutoffNormalized
  40:lib/libdaisy/src/util/CpuLoadMeter.h ****             = smoothingFilterCutoffHz * 2.0f * 3.141592653f / blockRateInHz;
  41:lib/libdaisy/src/util/CpuLoadMeter.h ****         // according to
  42:lib/libdaisy/src/util/CpuLoadMeter.h ****         // https://en.wikipedia.org/wiki/Low-pass_filter#Simple_infinite_impulse_response_filter
  43:lib/libdaisy/src/util/CpuLoadMeter.h ****         smoothingConstant_ = cutoffNormalized / (cutoffNormalized + 1.0f);
  44:lib/libdaisy/src/util/CpuLoadMeter.h **** 
  45:lib/libdaisy/src/util/CpuLoadMeter.h ****         Reset();
  46:lib/libdaisy/src/util/CpuLoadMeter.h ****     }
  47:lib/libdaisy/src/util/CpuLoadMeter.h **** 
  48:lib/libdaisy/src/util/CpuLoadMeter.h ****     /** Call this at the beginning of your audio callback */
  49:lib/libdaisy/src/util/CpuLoadMeter.h ****     void OnBlockStart() { currentBlockStartTicks_ = System::GetTick(); }
  50:lib/libdaisy/src/util/CpuLoadMeter.h **** 
  51:lib/libdaisy/src/util/CpuLoadMeter.h ****     /** Call this at the end of your audio callback */
  52:lib/libdaisy/src/util/CpuLoadMeter.h ****     void OnBlockEnd()
  53:lib/libdaisy/src/util/CpuLoadMeter.h ****     {
  54:lib/libdaisy/src/util/CpuLoadMeter.h ****         const auto end         = System::GetTick();
  55:lib/libdaisy/src/util/CpuLoadMeter.h ****         const auto ticksPassed = end - currentBlockStartTicks_;
  56:lib/libdaisy/src/util/CpuLoadMeter.h ****         const auto currentBlockLoad
  57:lib/libdaisy/src/util/CpuLoadMeter.h ****             = float(ticksPassed) * ticksPerBlockInv_; // usPassed / usPerBlock
  58:lib/libdaisy/src/util/CpuLoadMeter.h **** 
  59:lib/libdaisy/src/util/CpuLoadMeter.h ****         if(firstCycle_)
  60:lib/libdaisy/src/util/CpuLoadMeter.h ****         {
  61:lib/libdaisy/src/util/CpuLoadMeter.h ****             max_ = min_ = avg_ = currentBlockLoad;
  62:lib/libdaisy/src/util/CpuLoadMeter.h ****             firstCycle_        = false;
ARM GAS  /var/folders/9s/8rp0_f2s1n31qbztm3b5_fdh0000gn/T//ccXta1BT.s 			page 76


  63:lib/libdaisy/src/util/CpuLoadMeter.h ****         }
  64:lib/libdaisy/src/util/CpuLoadMeter.h ****         else
  65:lib/libdaisy/src/util/CpuLoadMeter.h ****         {
  66:lib/libdaisy/src/util/CpuLoadMeter.h ****             if(currentBlockLoad > max_)
  67:lib/libdaisy/src/util/CpuLoadMeter.h ****                 max_ = currentBlockLoad;
  68:lib/libdaisy/src/util/CpuLoadMeter.h ****             if(currentBlockLoad < min_)
  69:lib/libdaisy/src/util/CpuLoadMeter.h ****                 min_ = currentBlockLoad;
  70:lib/libdaisy/src/util/CpuLoadMeter.h **** 
  71:lib/libdaisy/src/util/CpuLoadMeter.h ****             avg_ = smoothingConstant_ * currentBlockLoad
  72:lib/libdaisy/src/util/CpuLoadMeter.h ****                    + (1.0f - smoothingConstant_) * avg_;
  73:lib/libdaisy/src/util/CpuLoadMeter.h ****         }
  74:lib/libdaisy/src/util/CpuLoadMeter.h ****     }
  75:lib/libdaisy/src/util/CpuLoadMeter.h **** 
  76:lib/libdaisy/src/util/CpuLoadMeter.h ****     /** Returns the smoothed average CPU load in the range 0..1 */
  77:lib/libdaisy/src/util/CpuLoadMeter.h ****     float GetAvgCpuLoad() const { return avg_; }
  78:lib/libdaisy/src/util/CpuLoadMeter.h ****     /** Returns the minimun CPU load observed since the last call to Reset(). */
  79:lib/libdaisy/src/util/CpuLoadMeter.h ****     float GetMinCpuLoad() const { return min_; }
  80:lib/libdaisy/src/util/CpuLoadMeter.h ****     /** Returns the maximum CPU load observed since the last call to Reset(). */
  81:lib/libdaisy/src/util/CpuLoadMeter.h ****     float GetMaxCpuLoad() const { return max_; }
  82:lib/libdaisy/src/util/CpuLoadMeter.h **** 
  83:lib/libdaisy/src/util/CpuLoadMeter.h ****     /** Resets the minimun, maximum and average load readings. */
  84:lib/libdaisy/src/util/CpuLoadMeter.h ****     void Reset()
  85:lib/libdaisy/src/util/CpuLoadMeter.h ****     {
  86:lib/libdaisy/src/util/CpuLoadMeter.h ****         firstCycle_ = true;
 1946              		.loc 22 86 21 view .LVU439
 1947 002c 0122     		movs	r2, #1
 1948              	.LBE631:
 1949              	.LBE630:
 1950              	.LBE629:
 1951              	.LBE628:
 113:Interface.cpp ****     arp.Init(sample_rate);
 1952              		.loc 16 113 13 view .LVU440
 1953 002e 94ED000A 		vldr.32	s0, [r4]
 1954              	.LBB642:
 1955              	.LBB640:
  33:lib/libdaisy/src/util/CpuLoadMeter.h ****         const auto ticksPerS   = float(System::GetTickFreq());
 1956              		.loc 22 33 20 view .LVU441
 1957 0032 C7EE087A 		vdiv.f32	s15, s14, s16
 1958              	.LVL143:
  34:lib/libdaisy/src/util/CpuLoadMeter.h ****         ticksPerBlockInv_      = 1.0f / (ticksPerS * secPerBlock);
 1959              		.loc 22 34 61 view .LVU442
 1960 0036 07EE100A 		vmov	s14, r0	@ int
 1961              	.LBB636:
 1962              	.LBB632:
 1963              		.loc 22 86 21 view .LVU443
 1964 003a 1A70     		strb	r2, [r3]
  87:lib/libdaisy/src/util/CpuLoadMeter.h ****         avg_ = max_ = min_ = NAN;
 1965              		.loc 22 87 28 view .LVU444
 1966 003c 344A     		ldr	r2, .L62+8
 1967              	.LBE632:
 1968              	.LBE636:
 1969              	.LBE640:
 1970              	.LBE642:
 113:Interface.cpp ****     arp.Init(sample_rate);
 1971              		.loc 16 113 13 view .LVU445
 1972 003e 3548     		ldr	r0, .L62+12
 1973              	.LVL144:
ARM GAS  /var/folders/9s/8rp0_f2s1n31qbztm3b5_fdh0000gn/T//ccXta1BT.s 			page 77


 1974              	.LBB643:
 1975              	.LBB641:
 1976              	.LBB637:
 1977              	.LBB633:
 1978              		.loc 22 87 28 view .LVU446
 1979 0040 DA60     		str	r2, [r3, #12]	@ float
 1980              	.LBE633:
 1981              	.LBE637:
  34:lib/libdaisy/src/util/CpuLoadMeter.h ****         ticksPerBlockInv_      = 1.0f / (ticksPerS * secPerBlock);
 1982              		.loc 22 34 61 view .LVU447
 1983 0042 B8EE477A 		vcvt.f32.u32	s14, s14
 1984              	.LVL145:
 1985              	.LBB638:
 1986              	.LBB634:
 1987              		.loc 22 87 21 view .LVU448
 1988 0046 1A61     		str	r2, [r3, #16]	@ float
 1989              		.loc 22 87 14 view .LVU449
 1990 0048 5A61     		str	r2, [r3, #20]	@ float
 1991              	.LBE634:
 1992              	.LBE638:
  35:lib/libdaisy/src/util/CpuLoadMeter.h **** 
 1993              		.loc 22 35 52 view .LVU450
 1994 004a 27EE877A 		vmul.f32	s14, s15, s14
 1995              	.LVL146:
  35:lib/libdaisy/src/util/CpuLoadMeter.h **** 
 1996              		.loc 22 35 39 view .LVU451
 1997 004e F7EE007A 		vmov.f32	s15, #1.0e+0
 1998              	.LVL147:
  35:lib/libdaisy/src/util/CpuLoadMeter.h **** 
 1999              		.loc 22 35 39 view .LVU452
 2000 0052 C7EE876A 		vdiv.f32	s13, s15, s14
  38:lib/libdaisy/src/util/CpuLoadMeter.h ****         const auto cutoffNormalized
 2001              		.loc 22 38 20 view .LVU453
 2002 0056 9FED307A 		vldr.32	s14, .L62+16
 2003 005a 28EE078A 		vmul.f32	s16, s16, s14
 2004              	.LVL148:
  35:lib/libdaisy/src/util/CpuLoadMeter.h **** 
 2005              		.loc 22 35 32 view .LVU454
 2006 005e C3ED016A 		vstr.32	s13, [r3, #4]
  38:lib/libdaisy/src/util/CpuLoadMeter.h ****         const auto cutoffNormalized
 2007              		.loc 22 38 9 is_stmt 1 view .LVU455
  39:lib/libdaisy/src/util/CpuLoadMeter.h ****             = smoothingFilterCutoffHz * 2.0f * 3.141592653f / blockRateInHz;
 2008              		.loc 22 39 9 view .LVU456
  39:lib/libdaisy/src/util/CpuLoadMeter.h ****             = smoothingFilterCutoffHz * 2.0f * 3.141592653f / blockRateInHz;
 2009              		.loc 22 39 20 is_stmt 0 view .LVU457
 2010 0062 DFED2E6A 		vldr.32	s13, .L62+20
 2011 0066 86EE887A 		vdiv.f32	s14, s13, s16
 2012              	.LVL149:
  43:lib/libdaisy/src/util/CpuLoadMeter.h **** 
 2013              		.loc 22 43 9 is_stmt 1 view .LVU458
  43:lib/libdaisy/src/util/CpuLoadMeter.h **** 
 2014              		.loc 22 43 67 is_stmt 0 view .LVU459
 2015 006a 77EE277A 		vadd.f32	s15, s14, s15
  43:lib/libdaisy/src/util/CpuLoadMeter.h **** 
 2016              		.loc 22 43 47 view .LVU460
 2017 006e C7EE276A 		vdiv.f32	s13, s14, s15
  43:lib/libdaisy/src/util/CpuLoadMeter.h **** 
ARM GAS  /var/folders/9s/8rp0_f2s1n31qbztm3b5_fdh0000gn/T//ccXta1BT.s 			page 78


 2018              		.loc 22 43 28 view .LVU461
 2019 0072 C3ED066A 		vstr.32	s13, [r3, #24]
  45:lib/libdaisy/src/util/CpuLoadMeter.h ****     }
 2020              		.loc 22 45 9 is_stmt 1 view .LVU462
 2021              	.LVL150:
 2022              	.LBB639:
 2023              	.LBI630:
  84:lib/libdaisy/src/util/CpuLoadMeter.h ****     {
 2024              		.loc 22 84 10 view .LVU463
 2025              	.LBB635:
  86:lib/libdaisy/src/util/CpuLoadMeter.h ****         avg_ = max_ = min_ = NAN;
 2026              		.loc 22 86 9 view .LVU464
 2027              		.loc 22 87 9 view .LVU465
 2028              		.loc 22 87 9 is_stmt 0 view .LVU466
 2029              	.LBE635:
 2030              	.LBE639:
 2031              	.LBE641:
 2032              	.LBE643:
 113:Interface.cpp ****     arp.Init(sample_rate);
 2033              		.loc 16 113 5 is_stmt 1 view .LVU467
 113:Interface.cpp ****     arp.Init(sample_rate);
 2034              		.loc 16 113 13 is_stmt 0 view .LVU468
 2035 0076 FFF7FEFF 		bl	_ZN11Arpeggiator4InitEf
 2036              	.LVL151:
 115:Interface.cpp ****     arp.SetMainTempo(8.0f);
 2037              		.loc 16 115 5 is_stmt 1 view .LVU469
 115:Interface.cpp ****     arp.SetMainTempo(8.0f);
 2038              		.loc 16 115 21 is_stmt 0 view .LVU470
 2039 007a B2EE000A 		vmov.f32	s0, #8.0e+0
 2040 007e 2548     		ldr	r0, .L62+12
 2041 0080 FFF7FEFF 		bl	_ZN11Arpeggiator12SetMainTempoEf
 2042              	.LVL152:
 117:Interface.cpp ****     arp.SetNoteTriggerCallback([](int pad_idx) {
 2043              		.loc 16 117 5 is_stmt 1 view .LVU471
 2044              	.LBB644:
 2045              	.LBI644:
 304:/Library/DaisyToolchain/0.2.0/arm/arm-none-eabi/include/c++/10.3.1/bits/std_function.h ****     : public _Maybe_unary_or_binary_function<_Res, _ArgTypes...>,
 305:/Library/DaisyToolchain/0.2.0/arm/arm-none-eabi/include/c++/10.3.1/bits/std_function.h ****       private _Function_base
 306:/Library/DaisyToolchain/0.2.0/arm/arm-none-eabi/include/c++/10.3.1/bits/std_function.h ****     {
 307:/Library/DaisyToolchain/0.2.0/arm/arm-none-eabi/include/c++/10.3.1/bits/std_function.h ****       template<typename _Func,
 308:/Library/DaisyToolchain/0.2.0/arm/arm-none-eabi/include/c++/10.3.1/bits/std_function.h **** 	       typename _Res2 = __invoke_result<_Func&, _ArgTypes...>>
 309:/Library/DaisyToolchain/0.2.0/arm/arm-none-eabi/include/c++/10.3.1/bits/std_function.h **** 	struct _Callable
 310:/Library/DaisyToolchain/0.2.0/arm/arm-none-eabi/include/c++/10.3.1/bits/std_function.h **** 	: __is_invocable_impl<_Res2, _Res>::type
 311:/Library/DaisyToolchain/0.2.0/arm/arm-none-eabi/include/c++/10.3.1/bits/std_function.h **** 	{ };
 312:/Library/DaisyToolchain/0.2.0/arm/arm-none-eabi/include/c++/10.3.1/bits/std_function.h **** 
 313:/Library/DaisyToolchain/0.2.0/arm/arm-none-eabi/include/c++/10.3.1/bits/std_function.h ****       // Used so the return type convertibility checks aren't done when
 314:/Library/DaisyToolchain/0.2.0/arm/arm-none-eabi/include/c++/10.3.1/bits/std_function.h ****       // performing overload resolution for copy construction/assignment.
 315:/Library/DaisyToolchain/0.2.0/arm/arm-none-eabi/include/c++/10.3.1/bits/std_function.h ****       template<typename _Tp>
 316:/Library/DaisyToolchain/0.2.0/arm/arm-none-eabi/include/c++/10.3.1/bits/std_function.h **** 	struct _Callable<function, _Tp> : false_type { };
 317:/Library/DaisyToolchain/0.2.0/arm/arm-none-eabi/include/c++/10.3.1/bits/std_function.h **** 
 318:/Library/DaisyToolchain/0.2.0/arm/arm-none-eabi/include/c++/10.3.1/bits/std_function.h ****       template<typename _Cond, typename _Tp>
 319:/Library/DaisyToolchain/0.2.0/arm/arm-none-eabi/include/c++/10.3.1/bits/std_function.h **** 	using _Requires = typename enable_if<_Cond::value, _Tp>::type;
 320:/Library/DaisyToolchain/0.2.0/arm/arm-none-eabi/include/c++/10.3.1/bits/std_function.h **** 
 321:/Library/DaisyToolchain/0.2.0/arm/arm-none-eabi/include/c++/10.3.1/bits/std_function.h ****     public:
 322:/Library/DaisyToolchain/0.2.0/arm/arm-none-eabi/include/c++/10.3.1/bits/std_function.h ****       typedef _Res result_type;
 323:/Library/DaisyToolchain/0.2.0/arm/arm-none-eabi/include/c++/10.3.1/bits/std_function.h **** 
 324:/Library/DaisyToolchain/0.2.0/arm/arm-none-eabi/include/c++/10.3.1/bits/std_function.h ****       // [3.7.2.1] construct/copy/destroy
ARM GAS  /var/folders/9s/8rp0_f2s1n31qbztm3b5_fdh0000gn/T//ccXta1BT.s 			page 79


 325:/Library/DaisyToolchain/0.2.0/arm/arm-none-eabi/include/c++/10.3.1/bits/std_function.h **** 
 326:/Library/DaisyToolchain/0.2.0/arm/arm-none-eabi/include/c++/10.3.1/bits/std_function.h ****       /**
 327:/Library/DaisyToolchain/0.2.0/arm/arm-none-eabi/include/c++/10.3.1/bits/std_function.h ****        *  @brief Default construct creates an empty function call wrapper.
 328:/Library/DaisyToolchain/0.2.0/arm/arm-none-eabi/include/c++/10.3.1/bits/std_function.h ****        *  @post @c !(bool)*this
 329:/Library/DaisyToolchain/0.2.0/arm/arm-none-eabi/include/c++/10.3.1/bits/std_function.h ****        */
 330:/Library/DaisyToolchain/0.2.0/arm/arm-none-eabi/include/c++/10.3.1/bits/std_function.h ****       function() noexcept
 331:/Library/DaisyToolchain/0.2.0/arm/arm-none-eabi/include/c++/10.3.1/bits/std_function.h ****       : _Function_base() { }
 332:/Library/DaisyToolchain/0.2.0/arm/arm-none-eabi/include/c++/10.3.1/bits/std_function.h **** 
 333:/Library/DaisyToolchain/0.2.0/arm/arm-none-eabi/include/c++/10.3.1/bits/std_function.h ****       /**
 334:/Library/DaisyToolchain/0.2.0/arm/arm-none-eabi/include/c++/10.3.1/bits/std_function.h ****        *  @brief Creates an empty function call wrapper.
 335:/Library/DaisyToolchain/0.2.0/arm/arm-none-eabi/include/c++/10.3.1/bits/std_function.h ****        *  @post @c !(bool)*this
 336:/Library/DaisyToolchain/0.2.0/arm/arm-none-eabi/include/c++/10.3.1/bits/std_function.h ****        */
 337:/Library/DaisyToolchain/0.2.0/arm/arm-none-eabi/include/c++/10.3.1/bits/std_function.h ****       function(nullptr_t) noexcept
 338:/Library/DaisyToolchain/0.2.0/arm/arm-none-eabi/include/c++/10.3.1/bits/std_function.h ****       : _Function_base() { }
 339:/Library/DaisyToolchain/0.2.0/arm/arm-none-eabi/include/c++/10.3.1/bits/std_function.h **** 
 340:/Library/DaisyToolchain/0.2.0/arm/arm-none-eabi/include/c++/10.3.1/bits/std_function.h ****       /**
 341:/Library/DaisyToolchain/0.2.0/arm/arm-none-eabi/include/c++/10.3.1/bits/std_function.h ****        *  @brief %Function copy constructor.
 342:/Library/DaisyToolchain/0.2.0/arm/arm-none-eabi/include/c++/10.3.1/bits/std_function.h ****        *  @param __x A %function object with identical call signature.
 343:/Library/DaisyToolchain/0.2.0/arm/arm-none-eabi/include/c++/10.3.1/bits/std_function.h ****        *  @post @c bool(*this) == bool(__x)
 344:/Library/DaisyToolchain/0.2.0/arm/arm-none-eabi/include/c++/10.3.1/bits/std_function.h ****        *
 345:/Library/DaisyToolchain/0.2.0/arm/arm-none-eabi/include/c++/10.3.1/bits/std_function.h ****        *  The newly-created %function contains a copy of the target of @a
 346:/Library/DaisyToolchain/0.2.0/arm/arm-none-eabi/include/c++/10.3.1/bits/std_function.h ****        *  __x (if it has one).
 347:/Library/DaisyToolchain/0.2.0/arm/arm-none-eabi/include/c++/10.3.1/bits/std_function.h ****        */
 348:/Library/DaisyToolchain/0.2.0/arm/arm-none-eabi/include/c++/10.3.1/bits/std_function.h ****       function(const function& __x);
 349:/Library/DaisyToolchain/0.2.0/arm/arm-none-eabi/include/c++/10.3.1/bits/std_function.h **** 
 350:/Library/DaisyToolchain/0.2.0/arm/arm-none-eabi/include/c++/10.3.1/bits/std_function.h ****       /**
 351:/Library/DaisyToolchain/0.2.0/arm/arm-none-eabi/include/c++/10.3.1/bits/std_function.h ****        *  @brief %Function move constructor.
 352:/Library/DaisyToolchain/0.2.0/arm/arm-none-eabi/include/c++/10.3.1/bits/std_function.h ****        *  @param __x A %function object rvalue with identical call signature.
 353:/Library/DaisyToolchain/0.2.0/arm/arm-none-eabi/include/c++/10.3.1/bits/std_function.h ****        *
 354:/Library/DaisyToolchain/0.2.0/arm/arm-none-eabi/include/c++/10.3.1/bits/std_function.h ****        *  The newly-created %function contains the target of @a __x
 355:/Library/DaisyToolchain/0.2.0/arm/arm-none-eabi/include/c++/10.3.1/bits/std_function.h ****        *  (if it has one).
 356:/Library/DaisyToolchain/0.2.0/arm/arm-none-eabi/include/c++/10.3.1/bits/std_function.h ****        */
 357:/Library/DaisyToolchain/0.2.0/arm/arm-none-eabi/include/c++/10.3.1/bits/std_function.h ****       function(function&& __x) noexcept : _Function_base()
 358:/Library/DaisyToolchain/0.2.0/arm/arm-none-eabi/include/c++/10.3.1/bits/std_function.h ****       {
 359:/Library/DaisyToolchain/0.2.0/arm/arm-none-eabi/include/c++/10.3.1/bits/std_function.h **** 	__x.swap(*this);
 360:/Library/DaisyToolchain/0.2.0/arm/arm-none-eabi/include/c++/10.3.1/bits/std_function.h ****       }
 361:/Library/DaisyToolchain/0.2.0/arm/arm-none-eabi/include/c++/10.3.1/bits/std_function.h **** 
 362:/Library/DaisyToolchain/0.2.0/arm/arm-none-eabi/include/c++/10.3.1/bits/std_function.h ****       /**
 363:/Library/DaisyToolchain/0.2.0/arm/arm-none-eabi/include/c++/10.3.1/bits/std_function.h ****        *  @brief Builds a %function that targets a copy of the incoming
 364:/Library/DaisyToolchain/0.2.0/arm/arm-none-eabi/include/c++/10.3.1/bits/std_function.h ****        *  function object.
 365:/Library/DaisyToolchain/0.2.0/arm/arm-none-eabi/include/c++/10.3.1/bits/std_function.h ****        *  @param __f A %function object that is callable with parameters of
 366:/Library/DaisyToolchain/0.2.0/arm/arm-none-eabi/include/c++/10.3.1/bits/std_function.h ****        *  type @c T1, @c T2, ..., @c TN and returns a value convertible
 367:/Library/DaisyToolchain/0.2.0/arm/arm-none-eabi/include/c++/10.3.1/bits/std_function.h ****        *  to @c Res.
 368:/Library/DaisyToolchain/0.2.0/arm/arm-none-eabi/include/c++/10.3.1/bits/std_function.h ****        *
 369:/Library/DaisyToolchain/0.2.0/arm/arm-none-eabi/include/c++/10.3.1/bits/std_function.h ****        *  The newly-created %function object will target a copy of
 370:/Library/DaisyToolchain/0.2.0/arm/arm-none-eabi/include/c++/10.3.1/bits/std_function.h ****        *  @a __f. If @a __f is @c reference_wrapper<F>, then this function
 371:/Library/DaisyToolchain/0.2.0/arm/arm-none-eabi/include/c++/10.3.1/bits/std_function.h ****        *  object will contain a reference to the function object @c
 372:/Library/DaisyToolchain/0.2.0/arm/arm-none-eabi/include/c++/10.3.1/bits/std_function.h ****        *  __f.get(). If @a __f is a NULL function pointer or NULL
 373:/Library/DaisyToolchain/0.2.0/arm/arm-none-eabi/include/c++/10.3.1/bits/std_function.h ****        *  pointer-to-member, the newly-created object will be empty.
 374:/Library/DaisyToolchain/0.2.0/arm/arm-none-eabi/include/c++/10.3.1/bits/std_function.h ****        *
 375:/Library/DaisyToolchain/0.2.0/arm/arm-none-eabi/include/c++/10.3.1/bits/std_function.h ****        *  If @a __f is a non-NULL function pointer or an object of type @c
 376:/Library/DaisyToolchain/0.2.0/arm/arm-none-eabi/include/c++/10.3.1/bits/std_function.h ****        *  reference_wrapper<F>, this function will not throw.
 377:/Library/DaisyToolchain/0.2.0/arm/arm-none-eabi/include/c++/10.3.1/bits/std_function.h ****        */
 378:/Library/DaisyToolchain/0.2.0/arm/arm-none-eabi/include/c++/10.3.1/bits/std_function.h ****       template<typename _Functor,
 379:/Library/DaisyToolchain/0.2.0/arm/arm-none-eabi/include/c++/10.3.1/bits/std_function.h **** 	       typename = _Requires<__not_<is_same<_Functor, function>>, void>,
 380:/Library/DaisyToolchain/0.2.0/arm/arm-none-eabi/include/c++/10.3.1/bits/std_function.h **** 	       typename = _Requires<_Callable<_Functor>, void>>
 381:/Library/DaisyToolchain/0.2.0/arm/arm-none-eabi/include/c++/10.3.1/bits/std_function.h **** 	function(_Functor);
ARM GAS  /var/folders/9s/8rp0_f2s1n31qbztm3b5_fdh0000gn/T//ccXta1BT.s 			page 80


 382:/Library/DaisyToolchain/0.2.0/arm/arm-none-eabi/include/c++/10.3.1/bits/std_function.h **** 
 383:/Library/DaisyToolchain/0.2.0/arm/arm-none-eabi/include/c++/10.3.1/bits/std_function.h ****       /**
 384:/Library/DaisyToolchain/0.2.0/arm/arm-none-eabi/include/c++/10.3.1/bits/std_function.h ****        *  @brief %Function assignment operator.
 385:/Library/DaisyToolchain/0.2.0/arm/arm-none-eabi/include/c++/10.3.1/bits/std_function.h ****        *  @param __x A %function with identical call signature.
 386:/Library/DaisyToolchain/0.2.0/arm/arm-none-eabi/include/c++/10.3.1/bits/std_function.h ****        *  @post @c (bool)*this == (bool)x
 387:/Library/DaisyToolchain/0.2.0/arm/arm-none-eabi/include/c++/10.3.1/bits/std_function.h ****        *  @returns @c *this
 388:/Library/DaisyToolchain/0.2.0/arm/arm-none-eabi/include/c++/10.3.1/bits/std_function.h ****        *
 389:/Library/DaisyToolchain/0.2.0/arm/arm-none-eabi/include/c++/10.3.1/bits/std_function.h ****        *  The target of @a __x is copied to @c *this. If @a __x has no
 390:/Library/DaisyToolchain/0.2.0/arm/arm-none-eabi/include/c++/10.3.1/bits/std_function.h ****        *  target, then @c *this will be empty.
 391:/Library/DaisyToolchain/0.2.0/arm/arm-none-eabi/include/c++/10.3.1/bits/std_function.h ****        *
 392:/Library/DaisyToolchain/0.2.0/arm/arm-none-eabi/include/c++/10.3.1/bits/std_function.h ****        *  If @a __x targets a function pointer or a reference to a function
 393:/Library/DaisyToolchain/0.2.0/arm/arm-none-eabi/include/c++/10.3.1/bits/std_function.h ****        *  object, then this operation will not throw an %exception.
 394:/Library/DaisyToolchain/0.2.0/arm/arm-none-eabi/include/c++/10.3.1/bits/std_function.h ****        */
 395:/Library/DaisyToolchain/0.2.0/arm/arm-none-eabi/include/c++/10.3.1/bits/std_function.h ****       function&
 396:/Library/DaisyToolchain/0.2.0/arm/arm-none-eabi/include/c++/10.3.1/bits/std_function.h ****       operator=(const function& __x)
 397:/Library/DaisyToolchain/0.2.0/arm/arm-none-eabi/include/c++/10.3.1/bits/std_function.h ****       {
 398:/Library/DaisyToolchain/0.2.0/arm/arm-none-eabi/include/c++/10.3.1/bits/std_function.h **** 	function(__x).swap(*this);
 399:/Library/DaisyToolchain/0.2.0/arm/arm-none-eabi/include/c++/10.3.1/bits/std_function.h **** 	return *this;
 400:/Library/DaisyToolchain/0.2.0/arm/arm-none-eabi/include/c++/10.3.1/bits/std_function.h ****       }
 401:/Library/DaisyToolchain/0.2.0/arm/arm-none-eabi/include/c++/10.3.1/bits/std_function.h **** 
 402:/Library/DaisyToolchain/0.2.0/arm/arm-none-eabi/include/c++/10.3.1/bits/std_function.h ****       /**
 403:/Library/DaisyToolchain/0.2.0/arm/arm-none-eabi/include/c++/10.3.1/bits/std_function.h ****        *  @brief %Function move-assignment operator.
 404:/Library/DaisyToolchain/0.2.0/arm/arm-none-eabi/include/c++/10.3.1/bits/std_function.h ****        *  @param __x A %function rvalue with identical call signature.
 405:/Library/DaisyToolchain/0.2.0/arm/arm-none-eabi/include/c++/10.3.1/bits/std_function.h ****        *  @returns @c *this
 406:/Library/DaisyToolchain/0.2.0/arm/arm-none-eabi/include/c++/10.3.1/bits/std_function.h ****        *
 407:/Library/DaisyToolchain/0.2.0/arm/arm-none-eabi/include/c++/10.3.1/bits/std_function.h ****        *  The target of @a __x is moved to @c *this. If @a __x has no
 408:/Library/DaisyToolchain/0.2.0/arm/arm-none-eabi/include/c++/10.3.1/bits/std_function.h ****        *  target, then @c *this will be empty.
 409:/Library/DaisyToolchain/0.2.0/arm/arm-none-eabi/include/c++/10.3.1/bits/std_function.h ****        *
 410:/Library/DaisyToolchain/0.2.0/arm/arm-none-eabi/include/c++/10.3.1/bits/std_function.h ****        *  If @a __x targets a function pointer or a reference to a function
 411:/Library/DaisyToolchain/0.2.0/arm/arm-none-eabi/include/c++/10.3.1/bits/std_function.h ****        *  object, then this operation will not throw an %exception.
 412:/Library/DaisyToolchain/0.2.0/arm/arm-none-eabi/include/c++/10.3.1/bits/std_function.h ****        */
 413:/Library/DaisyToolchain/0.2.0/arm/arm-none-eabi/include/c++/10.3.1/bits/std_function.h ****       function&
 414:/Library/DaisyToolchain/0.2.0/arm/arm-none-eabi/include/c++/10.3.1/bits/std_function.h ****       operator=(function&& __x) noexcept
 415:/Library/DaisyToolchain/0.2.0/arm/arm-none-eabi/include/c++/10.3.1/bits/std_function.h ****       {
 416:/Library/DaisyToolchain/0.2.0/arm/arm-none-eabi/include/c++/10.3.1/bits/std_function.h **** 	function(std::move(__x)).swap(*this);
 417:/Library/DaisyToolchain/0.2.0/arm/arm-none-eabi/include/c++/10.3.1/bits/std_function.h **** 	return *this;
 418:/Library/DaisyToolchain/0.2.0/arm/arm-none-eabi/include/c++/10.3.1/bits/std_function.h ****       }
 419:/Library/DaisyToolchain/0.2.0/arm/arm-none-eabi/include/c++/10.3.1/bits/std_function.h **** 
 420:/Library/DaisyToolchain/0.2.0/arm/arm-none-eabi/include/c++/10.3.1/bits/std_function.h ****       /**
 421:/Library/DaisyToolchain/0.2.0/arm/arm-none-eabi/include/c++/10.3.1/bits/std_function.h ****        *  @brief %Function assignment to zero.
 422:/Library/DaisyToolchain/0.2.0/arm/arm-none-eabi/include/c++/10.3.1/bits/std_function.h ****        *  @post @c !(bool)*this
 423:/Library/DaisyToolchain/0.2.0/arm/arm-none-eabi/include/c++/10.3.1/bits/std_function.h ****        *  @returns @c *this
 424:/Library/DaisyToolchain/0.2.0/arm/arm-none-eabi/include/c++/10.3.1/bits/std_function.h ****        *
 425:/Library/DaisyToolchain/0.2.0/arm/arm-none-eabi/include/c++/10.3.1/bits/std_function.h ****        *  The target of @c *this is deallocated, leaving it empty.
 426:/Library/DaisyToolchain/0.2.0/arm/arm-none-eabi/include/c++/10.3.1/bits/std_function.h ****        */
 427:/Library/DaisyToolchain/0.2.0/arm/arm-none-eabi/include/c++/10.3.1/bits/std_function.h ****       function&
 428:/Library/DaisyToolchain/0.2.0/arm/arm-none-eabi/include/c++/10.3.1/bits/std_function.h ****       operator=(nullptr_t) noexcept
 429:/Library/DaisyToolchain/0.2.0/arm/arm-none-eabi/include/c++/10.3.1/bits/std_function.h ****       {
 430:/Library/DaisyToolchain/0.2.0/arm/arm-none-eabi/include/c++/10.3.1/bits/std_function.h **** 	if (_M_manager)
 431:/Library/DaisyToolchain/0.2.0/arm/arm-none-eabi/include/c++/10.3.1/bits/std_function.h **** 	  {
 432:/Library/DaisyToolchain/0.2.0/arm/arm-none-eabi/include/c++/10.3.1/bits/std_function.h **** 	    _M_manager(_M_functor, _M_functor, __destroy_functor);
 433:/Library/DaisyToolchain/0.2.0/arm/arm-none-eabi/include/c++/10.3.1/bits/std_function.h **** 	    _M_manager = nullptr;
 434:/Library/DaisyToolchain/0.2.0/arm/arm-none-eabi/include/c++/10.3.1/bits/std_function.h **** 	    _M_invoker = nullptr;
 435:/Library/DaisyToolchain/0.2.0/arm/arm-none-eabi/include/c++/10.3.1/bits/std_function.h **** 	  }
 436:/Library/DaisyToolchain/0.2.0/arm/arm-none-eabi/include/c++/10.3.1/bits/std_function.h **** 	return *this;
 437:/Library/DaisyToolchain/0.2.0/arm/arm-none-eabi/include/c++/10.3.1/bits/std_function.h ****       }
 438:/Library/DaisyToolchain/0.2.0/arm/arm-none-eabi/include/c++/10.3.1/bits/std_function.h **** 
ARM GAS  /var/folders/9s/8rp0_f2s1n31qbztm3b5_fdh0000gn/T//ccXta1BT.s 			page 81


 439:/Library/DaisyToolchain/0.2.0/arm/arm-none-eabi/include/c++/10.3.1/bits/std_function.h ****       /**
 440:/Library/DaisyToolchain/0.2.0/arm/arm-none-eabi/include/c++/10.3.1/bits/std_function.h ****        *  @brief %Function assignment to a new target.
 441:/Library/DaisyToolchain/0.2.0/arm/arm-none-eabi/include/c++/10.3.1/bits/std_function.h ****        *  @param __f A %function object that is callable with parameters of
 442:/Library/DaisyToolchain/0.2.0/arm/arm-none-eabi/include/c++/10.3.1/bits/std_function.h ****        *  type @c T1, @c T2, ..., @c TN and returns a value convertible
 443:/Library/DaisyToolchain/0.2.0/arm/arm-none-eabi/include/c++/10.3.1/bits/std_function.h ****        *  to @c Res.
 444:/Library/DaisyToolchain/0.2.0/arm/arm-none-eabi/include/c++/10.3.1/bits/std_function.h ****        *  @return @c *this
 445:/Library/DaisyToolchain/0.2.0/arm/arm-none-eabi/include/c++/10.3.1/bits/std_function.h ****        *
 446:/Library/DaisyToolchain/0.2.0/arm/arm-none-eabi/include/c++/10.3.1/bits/std_function.h ****        *  This  %function object wrapper will target a copy of @a
 447:/Library/DaisyToolchain/0.2.0/arm/arm-none-eabi/include/c++/10.3.1/bits/std_function.h ****        *  __f. If @a __f is @c reference_wrapper<F>, then this function
 448:/Library/DaisyToolchain/0.2.0/arm/arm-none-eabi/include/c++/10.3.1/bits/std_function.h ****        *  object will contain a reference to the function object @c
 449:/Library/DaisyToolchain/0.2.0/arm/arm-none-eabi/include/c++/10.3.1/bits/std_function.h ****        *  __f.get(). If @a __f is a NULL function pointer or NULL
 450:/Library/DaisyToolchain/0.2.0/arm/arm-none-eabi/include/c++/10.3.1/bits/std_function.h ****        *  pointer-to-member, @c this object will be empty.
 451:/Library/DaisyToolchain/0.2.0/arm/arm-none-eabi/include/c++/10.3.1/bits/std_function.h ****        *
 452:/Library/DaisyToolchain/0.2.0/arm/arm-none-eabi/include/c++/10.3.1/bits/std_function.h ****        *  If @a __f is a non-NULL function pointer or an object of type @c
 453:/Library/DaisyToolchain/0.2.0/arm/arm-none-eabi/include/c++/10.3.1/bits/std_function.h ****        *  reference_wrapper<F>, this function will not throw.
 454:/Library/DaisyToolchain/0.2.0/arm/arm-none-eabi/include/c++/10.3.1/bits/std_function.h ****        */
 455:/Library/DaisyToolchain/0.2.0/arm/arm-none-eabi/include/c++/10.3.1/bits/std_function.h ****       template<typename _Functor>
 456:/Library/DaisyToolchain/0.2.0/arm/arm-none-eabi/include/c++/10.3.1/bits/std_function.h **** 	_Requires<_Callable<typename decay<_Functor>::type>, function&>
 457:/Library/DaisyToolchain/0.2.0/arm/arm-none-eabi/include/c++/10.3.1/bits/std_function.h **** 	operator=(_Functor&& __f)
 458:/Library/DaisyToolchain/0.2.0/arm/arm-none-eabi/include/c++/10.3.1/bits/std_function.h **** 	{
 459:/Library/DaisyToolchain/0.2.0/arm/arm-none-eabi/include/c++/10.3.1/bits/std_function.h **** 	  function(std::forward<_Functor>(__f)).swap(*this);
 460:/Library/DaisyToolchain/0.2.0/arm/arm-none-eabi/include/c++/10.3.1/bits/std_function.h **** 	  return *this;
 461:/Library/DaisyToolchain/0.2.0/arm/arm-none-eabi/include/c++/10.3.1/bits/std_function.h **** 	}
 462:/Library/DaisyToolchain/0.2.0/arm/arm-none-eabi/include/c++/10.3.1/bits/std_function.h **** 
 463:/Library/DaisyToolchain/0.2.0/arm/arm-none-eabi/include/c++/10.3.1/bits/std_function.h ****       /// @overload
 464:/Library/DaisyToolchain/0.2.0/arm/arm-none-eabi/include/c++/10.3.1/bits/std_function.h ****       template<typename _Functor>
 465:/Library/DaisyToolchain/0.2.0/arm/arm-none-eabi/include/c++/10.3.1/bits/std_function.h **** 	function&
 466:/Library/DaisyToolchain/0.2.0/arm/arm-none-eabi/include/c++/10.3.1/bits/std_function.h **** 	operator=(reference_wrapper<_Functor> __f) noexcept
 467:/Library/DaisyToolchain/0.2.0/arm/arm-none-eabi/include/c++/10.3.1/bits/std_function.h **** 	{
 468:/Library/DaisyToolchain/0.2.0/arm/arm-none-eabi/include/c++/10.3.1/bits/std_function.h **** 	  function(__f).swap(*this);
 469:/Library/DaisyToolchain/0.2.0/arm/arm-none-eabi/include/c++/10.3.1/bits/std_function.h **** 	  return *this;
 470:/Library/DaisyToolchain/0.2.0/arm/arm-none-eabi/include/c++/10.3.1/bits/std_function.h **** 	}
 471:/Library/DaisyToolchain/0.2.0/arm/arm-none-eabi/include/c++/10.3.1/bits/std_function.h **** 
 472:/Library/DaisyToolchain/0.2.0/arm/arm-none-eabi/include/c++/10.3.1/bits/std_function.h ****       // [3.7.2.2] function modifiers
 473:/Library/DaisyToolchain/0.2.0/arm/arm-none-eabi/include/c++/10.3.1/bits/std_function.h **** 
 474:/Library/DaisyToolchain/0.2.0/arm/arm-none-eabi/include/c++/10.3.1/bits/std_function.h ****       /**
 475:/Library/DaisyToolchain/0.2.0/arm/arm-none-eabi/include/c++/10.3.1/bits/std_function.h ****        *  @brief Swap the targets of two %function objects.
 476:/Library/DaisyToolchain/0.2.0/arm/arm-none-eabi/include/c++/10.3.1/bits/std_function.h ****        *  @param __x A %function with identical call signature.
 477:/Library/DaisyToolchain/0.2.0/arm/arm-none-eabi/include/c++/10.3.1/bits/std_function.h ****        *
 478:/Library/DaisyToolchain/0.2.0/arm/arm-none-eabi/include/c++/10.3.1/bits/std_function.h ****        *  Swap the targets of @c this function object and @a __f. This
 479:/Library/DaisyToolchain/0.2.0/arm/arm-none-eabi/include/c++/10.3.1/bits/std_function.h ****        *  function will not throw an %exception.
 480:/Library/DaisyToolchain/0.2.0/arm/arm-none-eabi/include/c++/10.3.1/bits/std_function.h ****        */
 481:/Library/DaisyToolchain/0.2.0/arm/arm-none-eabi/include/c++/10.3.1/bits/std_function.h ****       void swap(function& __x) noexcept
 482:/Library/DaisyToolchain/0.2.0/arm/arm-none-eabi/include/c++/10.3.1/bits/std_function.h ****       {
 483:/Library/DaisyToolchain/0.2.0/arm/arm-none-eabi/include/c++/10.3.1/bits/std_function.h **** 	std::swap(_M_functor, __x._M_functor);
 484:/Library/DaisyToolchain/0.2.0/arm/arm-none-eabi/include/c++/10.3.1/bits/std_function.h **** 	std::swap(_M_manager, __x._M_manager);
 485:/Library/DaisyToolchain/0.2.0/arm/arm-none-eabi/include/c++/10.3.1/bits/std_function.h **** 	std::swap(_M_invoker, __x._M_invoker);
 486:/Library/DaisyToolchain/0.2.0/arm/arm-none-eabi/include/c++/10.3.1/bits/std_function.h ****       }
 487:/Library/DaisyToolchain/0.2.0/arm/arm-none-eabi/include/c++/10.3.1/bits/std_function.h **** 
 488:/Library/DaisyToolchain/0.2.0/arm/arm-none-eabi/include/c++/10.3.1/bits/std_function.h ****       // [3.7.2.3] function capacity
 489:/Library/DaisyToolchain/0.2.0/arm/arm-none-eabi/include/c++/10.3.1/bits/std_function.h **** 
 490:/Library/DaisyToolchain/0.2.0/arm/arm-none-eabi/include/c++/10.3.1/bits/std_function.h ****       /**
 491:/Library/DaisyToolchain/0.2.0/arm/arm-none-eabi/include/c++/10.3.1/bits/std_function.h ****        *  @brief Determine if the %function wrapper has a target.
 492:/Library/DaisyToolchain/0.2.0/arm/arm-none-eabi/include/c++/10.3.1/bits/std_function.h ****        *
 493:/Library/DaisyToolchain/0.2.0/arm/arm-none-eabi/include/c++/10.3.1/bits/std_function.h ****        *  @return @c true when this %function object contains a target,
 494:/Library/DaisyToolchain/0.2.0/arm/arm-none-eabi/include/c++/10.3.1/bits/std_function.h ****        *  or @c false when it is empty.
 495:/Library/DaisyToolchain/0.2.0/arm/arm-none-eabi/include/c++/10.3.1/bits/std_function.h ****        *
ARM GAS  /var/folders/9s/8rp0_f2s1n31qbztm3b5_fdh0000gn/T//ccXta1BT.s 			page 82


 496:/Library/DaisyToolchain/0.2.0/arm/arm-none-eabi/include/c++/10.3.1/bits/std_function.h ****        *  This function will not throw an %exception.
 497:/Library/DaisyToolchain/0.2.0/arm/arm-none-eabi/include/c++/10.3.1/bits/std_function.h ****        */
 498:/Library/DaisyToolchain/0.2.0/arm/arm-none-eabi/include/c++/10.3.1/bits/std_function.h ****       explicit operator bool() const noexcept
 499:/Library/DaisyToolchain/0.2.0/arm/arm-none-eabi/include/c++/10.3.1/bits/std_function.h ****       { return !_M_empty(); }
 500:/Library/DaisyToolchain/0.2.0/arm/arm-none-eabi/include/c++/10.3.1/bits/std_function.h **** 
 501:/Library/DaisyToolchain/0.2.0/arm/arm-none-eabi/include/c++/10.3.1/bits/std_function.h ****       // [3.7.2.4] function invocation
 502:/Library/DaisyToolchain/0.2.0/arm/arm-none-eabi/include/c++/10.3.1/bits/std_function.h **** 
 503:/Library/DaisyToolchain/0.2.0/arm/arm-none-eabi/include/c++/10.3.1/bits/std_function.h ****       /**
 504:/Library/DaisyToolchain/0.2.0/arm/arm-none-eabi/include/c++/10.3.1/bits/std_function.h ****        *  @brief Invokes the function targeted by @c *this.
 505:/Library/DaisyToolchain/0.2.0/arm/arm-none-eabi/include/c++/10.3.1/bits/std_function.h ****        *  @returns the result of the target.
 506:/Library/DaisyToolchain/0.2.0/arm/arm-none-eabi/include/c++/10.3.1/bits/std_function.h ****        *  @throws bad_function_call when @c !(bool)*this
 507:/Library/DaisyToolchain/0.2.0/arm/arm-none-eabi/include/c++/10.3.1/bits/std_function.h ****        *
 508:/Library/DaisyToolchain/0.2.0/arm/arm-none-eabi/include/c++/10.3.1/bits/std_function.h ****        *  The function call operator invokes the target function object
 509:/Library/DaisyToolchain/0.2.0/arm/arm-none-eabi/include/c++/10.3.1/bits/std_function.h ****        *  stored by @c this.
 510:/Library/DaisyToolchain/0.2.0/arm/arm-none-eabi/include/c++/10.3.1/bits/std_function.h ****        */
 511:/Library/DaisyToolchain/0.2.0/arm/arm-none-eabi/include/c++/10.3.1/bits/std_function.h ****       _Res operator()(_ArgTypes... __args) const;
 512:/Library/DaisyToolchain/0.2.0/arm/arm-none-eabi/include/c++/10.3.1/bits/std_function.h **** 
 513:/Library/DaisyToolchain/0.2.0/arm/arm-none-eabi/include/c++/10.3.1/bits/std_function.h **** #if __cpp_rtti
 514:/Library/DaisyToolchain/0.2.0/arm/arm-none-eabi/include/c++/10.3.1/bits/std_function.h ****       // [3.7.2.5] function target access
 515:/Library/DaisyToolchain/0.2.0/arm/arm-none-eabi/include/c++/10.3.1/bits/std_function.h ****       /**
 516:/Library/DaisyToolchain/0.2.0/arm/arm-none-eabi/include/c++/10.3.1/bits/std_function.h ****        *  @brief Determine the type of the target of this function object
 517:/Library/DaisyToolchain/0.2.0/arm/arm-none-eabi/include/c++/10.3.1/bits/std_function.h ****        *  wrapper.
 518:/Library/DaisyToolchain/0.2.0/arm/arm-none-eabi/include/c++/10.3.1/bits/std_function.h ****        *
 519:/Library/DaisyToolchain/0.2.0/arm/arm-none-eabi/include/c++/10.3.1/bits/std_function.h ****        *  @returns the type identifier of the target function object, or
 520:/Library/DaisyToolchain/0.2.0/arm/arm-none-eabi/include/c++/10.3.1/bits/std_function.h ****        *  @c typeid(void) if @c !(bool)*this.
 521:/Library/DaisyToolchain/0.2.0/arm/arm-none-eabi/include/c++/10.3.1/bits/std_function.h ****        *
 522:/Library/DaisyToolchain/0.2.0/arm/arm-none-eabi/include/c++/10.3.1/bits/std_function.h ****        *  This function will not throw an %exception.
 523:/Library/DaisyToolchain/0.2.0/arm/arm-none-eabi/include/c++/10.3.1/bits/std_function.h ****        */
 524:/Library/DaisyToolchain/0.2.0/arm/arm-none-eabi/include/c++/10.3.1/bits/std_function.h ****       const type_info& target_type() const noexcept;
 525:/Library/DaisyToolchain/0.2.0/arm/arm-none-eabi/include/c++/10.3.1/bits/std_function.h **** 
 526:/Library/DaisyToolchain/0.2.0/arm/arm-none-eabi/include/c++/10.3.1/bits/std_function.h ****       /**
 527:/Library/DaisyToolchain/0.2.0/arm/arm-none-eabi/include/c++/10.3.1/bits/std_function.h ****        *  @brief Access the stored target function object.
 528:/Library/DaisyToolchain/0.2.0/arm/arm-none-eabi/include/c++/10.3.1/bits/std_function.h ****        *
 529:/Library/DaisyToolchain/0.2.0/arm/arm-none-eabi/include/c++/10.3.1/bits/std_function.h ****        *  @return Returns a pointer to the stored target function object,
 530:/Library/DaisyToolchain/0.2.0/arm/arm-none-eabi/include/c++/10.3.1/bits/std_function.h ****        *  if @c typeid(_Functor).equals(target_type()); otherwise, a NULL
 531:/Library/DaisyToolchain/0.2.0/arm/arm-none-eabi/include/c++/10.3.1/bits/std_function.h ****        *  pointer.
 532:/Library/DaisyToolchain/0.2.0/arm/arm-none-eabi/include/c++/10.3.1/bits/std_function.h ****        *
 533:/Library/DaisyToolchain/0.2.0/arm/arm-none-eabi/include/c++/10.3.1/bits/std_function.h ****        * This function does not throw exceptions.
 534:/Library/DaisyToolchain/0.2.0/arm/arm-none-eabi/include/c++/10.3.1/bits/std_function.h ****        *
 535:/Library/DaisyToolchain/0.2.0/arm/arm-none-eabi/include/c++/10.3.1/bits/std_function.h ****        * @{
 536:/Library/DaisyToolchain/0.2.0/arm/arm-none-eabi/include/c++/10.3.1/bits/std_function.h ****        */
 537:/Library/DaisyToolchain/0.2.0/arm/arm-none-eabi/include/c++/10.3.1/bits/std_function.h ****       template<typename _Functor>       _Functor* target() noexcept;
 538:/Library/DaisyToolchain/0.2.0/arm/arm-none-eabi/include/c++/10.3.1/bits/std_function.h **** 
 539:/Library/DaisyToolchain/0.2.0/arm/arm-none-eabi/include/c++/10.3.1/bits/std_function.h ****       template<typename _Functor> const _Functor* target() const noexcept;
 540:/Library/DaisyToolchain/0.2.0/arm/arm-none-eabi/include/c++/10.3.1/bits/std_function.h ****       /// @}
 541:/Library/DaisyToolchain/0.2.0/arm/arm-none-eabi/include/c++/10.3.1/bits/std_function.h **** #endif
 542:/Library/DaisyToolchain/0.2.0/arm/arm-none-eabi/include/c++/10.3.1/bits/std_function.h **** 
 543:/Library/DaisyToolchain/0.2.0/arm/arm-none-eabi/include/c++/10.3.1/bits/std_function.h ****     private:
 544:/Library/DaisyToolchain/0.2.0/arm/arm-none-eabi/include/c++/10.3.1/bits/std_function.h ****       using _Invoker_type = _Res (*)(const _Any_data&, _ArgTypes&&...);
 545:/Library/DaisyToolchain/0.2.0/arm/arm-none-eabi/include/c++/10.3.1/bits/std_function.h ****       _Invoker_type _M_invoker;
 546:/Library/DaisyToolchain/0.2.0/arm/arm-none-eabi/include/c++/10.3.1/bits/std_function.h ****   };
 547:/Library/DaisyToolchain/0.2.0/arm/arm-none-eabi/include/c++/10.3.1/bits/std_function.h **** 
 548:/Library/DaisyToolchain/0.2.0/arm/arm-none-eabi/include/c++/10.3.1/bits/std_function.h **** #if __cpp_deduction_guides >= 201606
 549:/Library/DaisyToolchain/0.2.0/arm/arm-none-eabi/include/c++/10.3.1/bits/std_function.h ****   template<typename>
 550:/Library/DaisyToolchain/0.2.0/arm/arm-none-eabi/include/c++/10.3.1/bits/std_function.h ****     struct __function_guide_helper
 551:/Library/DaisyToolchain/0.2.0/arm/arm-none-eabi/include/c++/10.3.1/bits/std_function.h ****     { };
 552:/Library/DaisyToolchain/0.2.0/arm/arm-none-eabi/include/c++/10.3.1/bits/std_function.h **** 
ARM GAS  /var/folders/9s/8rp0_f2s1n31qbztm3b5_fdh0000gn/T//ccXta1BT.s 			page 83


 553:/Library/DaisyToolchain/0.2.0/arm/arm-none-eabi/include/c++/10.3.1/bits/std_function.h ****   template<typename _Res, typename _Tp, bool _Nx, typename... _Args>
 554:/Library/DaisyToolchain/0.2.0/arm/arm-none-eabi/include/c++/10.3.1/bits/std_function.h ****     struct __function_guide_helper<
 555:/Library/DaisyToolchain/0.2.0/arm/arm-none-eabi/include/c++/10.3.1/bits/std_function.h ****       _Res (_Tp::*) (_Args...) noexcept(_Nx)
 556:/Library/DaisyToolchain/0.2.0/arm/arm-none-eabi/include/c++/10.3.1/bits/std_function.h ****     >
 557:/Library/DaisyToolchain/0.2.0/arm/arm-none-eabi/include/c++/10.3.1/bits/std_function.h ****     { using type = _Res(_Args...); };
 558:/Library/DaisyToolchain/0.2.0/arm/arm-none-eabi/include/c++/10.3.1/bits/std_function.h **** 
 559:/Library/DaisyToolchain/0.2.0/arm/arm-none-eabi/include/c++/10.3.1/bits/std_function.h ****   template<typename _Res, typename _Tp, bool _Nx, typename... _Args>
 560:/Library/DaisyToolchain/0.2.0/arm/arm-none-eabi/include/c++/10.3.1/bits/std_function.h ****     struct __function_guide_helper<
 561:/Library/DaisyToolchain/0.2.0/arm/arm-none-eabi/include/c++/10.3.1/bits/std_function.h ****       _Res (_Tp::*) (_Args...) & noexcept(_Nx)
 562:/Library/DaisyToolchain/0.2.0/arm/arm-none-eabi/include/c++/10.3.1/bits/std_function.h ****     >
 563:/Library/DaisyToolchain/0.2.0/arm/arm-none-eabi/include/c++/10.3.1/bits/std_function.h ****     { using type = _Res(_Args...); };
 564:/Library/DaisyToolchain/0.2.0/arm/arm-none-eabi/include/c++/10.3.1/bits/std_function.h **** 
 565:/Library/DaisyToolchain/0.2.0/arm/arm-none-eabi/include/c++/10.3.1/bits/std_function.h ****   template<typename _Res, typename _Tp, bool _Nx, typename... _Args>
 566:/Library/DaisyToolchain/0.2.0/arm/arm-none-eabi/include/c++/10.3.1/bits/std_function.h ****     struct __function_guide_helper<
 567:/Library/DaisyToolchain/0.2.0/arm/arm-none-eabi/include/c++/10.3.1/bits/std_function.h ****       _Res (_Tp::*) (_Args...) const noexcept(_Nx)
 568:/Library/DaisyToolchain/0.2.0/arm/arm-none-eabi/include/c++/10.3.1/bits/std_function.h ****     >
 569:/Library/DaisyToolchain/0.2.0/arm/arm-none-eabi/include/c++/10.3.1/bits/std_function.h ****     { using type = _Res(_Args...); };
 570:/Library/DaisyToolchain/0.2.0/arm/arm-none-eabi/include/c++/10.3.1/bits/std_function.h **** 
 571:/Library/DaisyToolchain/0.2.0/arm/arm-none-eabi/include/c++/10.3.1/bits/std_function.h ****   template<typename _Res, typename _Tp, bool _Nx, typename... _Args>
 572:/Library/DaisyToolchain/0.2.0/arm/arm-none-eabi/include/c++/10.3.1/bits/std_function.h ****     struct __function_guide_helper<
 573:/Library/DaisyToolchain/0.2.0/arm/arm-none-eabi/include/c++/10.3.1/bits/std_function.h ****       _Res (_Tp::*) (_Args...) const & noexcept(_Nx)
 574:/Library/DaisyToolchain/0.2.0/arm/arm-none-eabi/include/c++/10.3.1/bits/std_function.h ****     >
 575:/Library/DaisyToolchain/0.2.0/arm/arm-none-eabi/include/c++/10.3.1/bits/std_function.h ****     { using type = _Res(_Args...); };
 576:/Library/DaisyToolchain/0.2.0/arm/arm-none-eabi/include/c++/10.3.1/bits/std_function.h **** 
 577:/Library/DaisyToolchain/0.2.0/arm/arm-none-eabi/include/c++/10.3.1/bits/std_function.h ****   template<typename _Res, typename... _ArgTypes>
 578:/Library/DaisyToolchain/0.2.0/arm/arm-none-eabi/include/c++/10.3.1/bits/std_function.h ****     function(_Res(*)(_ArgTypes...)) -> function<_Res(_ArgTypes...)>;
 579:/Library/DaisyToolchain/0.2.0/arm/arm-none-eabi/include/c++/10.3.1/bits/std_function.h **** 
 580:/Library/DaisyToolchain/0.2.0/arm/arm-none-eabi/include/c++/10.3.1/bits/std_function.h ****   template<typename _Functor, typename _Signature = typename
 581:/Library/DaisyToolchain/0.2.0/arm/arm-none-eabi/include/c++/10.3.1/bits/std_function.h **** 	   __function_guide_helper<decltype(&_Functor::operator())>::type>
 582:/Library/DaisyToolchain/0.2.0/arm/arm-none-eabi/include/c++/10.3.1/bits/std_function.h ****     function(_Functor) -> function<_Signature>;
 583:/Library/DaisyToolchain/0.2.0/arm/arm-none-eabi/include/c++/10.3.1/bits/std_function.h **** #endif
 584:/Library/DaisyToolchain/0.2.0/arm/arm-none-eabi/include/c++/10.3.1/bits/std_function.h **** 
 585:/Library/DaisyToolchain/0.2.0/arm/arm-none-eabi/include/c++/10.3.1/bits/std_function.h ****   // Out-of-line member definitions.
 586:/Library/DaisyToolchain/0.2.0/arm/arm-none-eabi/include/c++/10.3.1/bits/std_function.h ****   template<typename _Res, typename... _ArgTypes>
 587:/Library/DaisyToolchain/0.2.0/arm/arm-none-eabi/include/c++/10.3.1/bits/std_function.h ****     function<_Res(_ArgTypes...)>::
 588:/Library/DaisyToolchain/0.2.0/arm/arm-none-eabi/include/c++/10.3.1/bits/std_function.h ****     function(const function& __x)
 589:/Library/DaisyToolchain/0.2.0/arm/arm-none-eabi/include/c++/10.3.1/bits/std_function.h ****     : _Function_base()
 590:/Library/DaisyToolchain/0.2.0/arm/arm-none-eabi/include/c++/10.3.1/bits/std_function.h ****     {
 591:/Library/DaisyToolchain/0.2.0/arm/arm-none-eabi/include/c++/10.3.1/bits/std_function.h ****       if (static_cast<bool>(__x))
 592:/Library/DaisyToolchain/0.2.0/arm/arm-none-eabi/include/c++/10.3.1/bits/std_function.h **** 	{
 593:/Library/DaisyToolchain/0.2.0/arm/arm-none-eabi/include/c++/10.3.1/bits/std_function.h **** 	  __x._M_manager(_M_functor, __x._M_functor, __clone_functor);
 594:/Library/DaisyToolchain/0.2.0/arm/arm-none-eabi/include/c++/10.3.1/bits/std_function.h **** 	  _M_invoker = __x._M_invoker;
 595:/Library/DaisyToolchain/0.2.0/arm/arm-none-eabi/include/c++/10.3.1/bits/std_function.h **** 	  _M_manager = __x._M_manager;
 596:/Library/DaisyToolchain/0.2.0/arm/arm-none-eabi/include/c++/10.3.1/bits/std_function.h **** 	}
 597:/Library/DaisyToolchain/0.2.0/arm/arm-none-eabi/include/c++/10.3.1/bits/std_function.h ****     }
 598:/Library/DaisyToolchain/0.2.0/arm/arm-none-eabi/include/c++/10.3.1/bits/std_function.h **** 
 599:/Library/DaisyToolchain/0.2.0/arm/arm-none-eabi/include/c++/10.3.1/bits/std_function.h ****   template<typename _Res, typename... _ArgTypes>
 600:/Library/DaisyToolchain/0.2.0/arm/arm-none-eabi/include/c++/10.3.1/bits/std_function.h ****     template<typename _Functor, typename, typename>
 601:/Library/DaisyToolchain/0.2.0/arm/arm-none-eabi/include/c++/10.3.1/bits/std_function.h ****       function<_Res(_ArgTypes...)>::
 2046              		.loc 13 601 7 view .LVU472
 2047              	.LBB645:
 2048              	.LBB646:
 2049              	.LBI646:
 240:/Library/DaisyToolchain/0.2.0/arm/arm-none-eabi/include/c++/10.3.1/bits/std_function.h **** 
 2050              		.loc 13 240 5 view .LVU473
 240:/Library/DaisyToolchain/0.2.0/arm/arm-none-eabi/include/c++/10.3.1/bits/std_function.h **** 
 2051              		.loc 13 240 5 is_stmt 0 view .LVU474
ARM GAS  /var/folders/9s/8rp0_f2s1n31qbztm3b5_fdh0000gn/T//ccXta1BT.s 			page 84


 2052              	.LBE646:
 2053              	.LBB647:
 2054              	.LBB648:
 2055              	.LBI648:
 227:/Library/DaisyToolchain/0.2.0/arm/arm-none-eabi/include/c++/10.3.1/bits/std_function.h **** 	  { return true; }
 2056              		.loc 13 227 4 is_stmt 1 view .LVU475
 227:/Library/DaisyToolchain/0.2.0/arm/arm-none-eabi/include/c++/10.3.1/bits/std_function.h **** 	  { return true; }
 2057              		.loc 13 227 4 is_stmt 0 view .LVU476
 2058              	.LBE648:
 2059              	.LBB649:
 2060              	.LBI649:
 2061              		.file 23 "/Library/DaisyToolchain/0.2.0/arm/arm-none-eabi/include/c++/10.3.1/bits/move.h"
   1:/Library/DaisyToolchain/0.2.0/arm/arm-none-eabi/include/c++/10.3.1/bits/move.h **** // Move, forward and identity for C++11 + swap -*- C++ -*-
   2:/Library/DaisyToolchain/0.2.0/arm/arm-none-eabi/include/c++/10.3.1/bits/move.h **** 
   3:/Library/DaisyToolchain/0.2.0/arm/arm-none-eabi/include/c++/10.3.1/bits/move.h **** // Copyright (C) 2007-2020 Free Software Foundation, Inc.
   4:/Library/DaisyToolchain/0.2.0/arm/arm-none-eabi/include/c++/10.3.1/bits/move.h **** //
   5:/Library/DaisyToolchain/0.2.0/arm/arm-none-eabi/include/c++/10.3.1/bits/move.h **** // This file is part of the GNU ISO C++ Library.  This library is free
   6:/Library/DaisyToolchain/0.2.0/arm/arm-none-eabi/include/c++/10.3.1/bits/move.h **** // software; you can redistribute it and/or modify it under the
   7:/Library/DaisyToolchain/0.2.0/arm/arm-none-eabi/include/c++/10.3.1/bits/move.h **** // terms of the GNU General Public License as published by the
   8:/Library/DaisyToolchain/0.2.0/arm/arm-none-eabi/include/c++/10.3.1/bits/move.h **** // Free Software Foundation; either version 3, or (at your option)
   9:/Library/DaisyToolchain/0.2.0/arm/arm-none-eabi/include/c++/10.3.1/bits/move.h **** // any later version.
  10:/Library/DaisyToolchain/0.2.0/arm/arm-none-eabi/include/c++/10.3.1/bits/move.h **** 
  11:/Library/DaisyToolchain/0.2.0/arm/arm-none-eabi/include/c++/10.3.1/bits/move.h **** // This library is distributed in the hope that it will be useful,
  12:/Library/DaisyToolchain/0.2.0/arm/arm-none-eabi/include/c++/10.3.1/bits/move.h **** // but WITHOUT ANY WARRANTY; without even the implied warranty of
  13:/Library/DaisyToolchain/0.2.0/arm/arm-none-eabi/include/c++/10.3.1/bits/move.h **** // MERCHANTABILITY or FITNESS FOR A PARTICULAR PURPOSE.  See the
  14:/Library/DaisyToolchain/0.2.0/arm/arm-none-eabi/include/c++/10.3.1/bits/move.h **** // GNU General Public License for more details.
  15:/Library/DaisyToolchain/0.2.0/arm/arm-none-eabi/include/c++/10.3.1/bits/move.h **** 
  16:/Library/DaisyToolchain/0.2.0/arm/arm-none-eabi/include/c++/10.3.1/bits/move.h **** // Under Section 7 of GPL version 3, you are granted additional
  17:/Library/DaisyToolchain/0.2.0/arm/arm-none-eabi/include/c++/10.3.1/bits/move.h **** // permissions described in the GCC Runtime Library Exception, version
  18:/Library/DaisyToolchain/0.2.0/arm/arm-none-eabi/include/c++/10.3.1/bits/move.h **** // 3.1, as published by the Free Software Foundation.
  19:/Library/DaisyToolchain/0.2.0/arm/arm-none-eabi/include/c++/10.3.1/bits/move.h **** 
  20:/Library/DaisyToolchain/0.2.0/arm/arm-none-eabi/include/c++/10.3.1/bits/move.h **** // You should have received a copy of the GNU General Public License and
  21:/Library/DaisyToolchain/0.2.0/arm/arm-none-eabi/include/c++/10.3.1/bits/move.h **** // a copy of the GCC Runtime Library Exception along with this program;
  22:/Library/DaisyToolchain/0.2.0/arm/arm-none-eabi/include/c++/10.3.1/bits/move.h **** // see the files COPYING3 and COPYING.RUNTIME respectively.  If not, see
  23:/Library/DaisyToolchain/0.2.0/arm/arm-none-eabi/include/c++/10.3.1/bits/move.h **** // <http://www.gnu.org/licenses/>.
  24:/Library/DaisyToolchain/0.2.0/arm/arm-none-eabi/include/c++/10.3.1/bits/move.h **** 
  25:/Library/DaisyToolchain/0.2.0/arm/arm-none-eabi/include/c++/10.3.1/bits/move.h **** /** @file bits/move.h
  26:/Library/DaisyToolchain/0.2.0/arm/arm-none-eabi/include/c++/10.3.1/bits/move.h ****  *  This is an internal header file, included by other library headers.
  27:/Library/DaisyToolchain/0.2.0/arm/arm-none-eabi/include/c++/10.3.1/bits/move.h ****  *  Do not attempt to use it directly. @headername{utility}
  28:/Library/DaisyToolchain/0.2.0/arm/arm-none-eabi/include/c++/10.3.1/bits/move.h ****  */
  29:/Library/DaisyToolchain/0.2.0/arm/arm-none-eabi/include/c++/10.3.1/bits/move.h **** 
  30:/Library/DaisyToolchain/0.2.0/arm/arm-none-eabi/include/c++/10.3.1/bits/move.h **** #ifndef _MOVE_H
  31:/Library/DaisyToolchain/0.2.0/arm/arm-none-eabi/include/c++/10.3.1/bits/move.h **** #define _MOVE_H 1
  32:/Library/DaisyToolchain/0.2.0/arm/arm-none-eabi/include/c++/10.3.1/bits/move.h **** 
  33:/Library/DaisyToolchain/0.2.0/arm/arm-none-eabi/include/c++/10.3.1/bits/move.h **** #include <bits/c++config.h>
  34:/Library/DaisyToolchain/0.2.0/arm/arm-none-eabi/include/c++/10.3.1/bits/move.h **** #if __cplusplus < 201103L
  35:/Library/DaisyToolchain/0.2.0/arm/arm-none-eabi/include/c++/10.3.1/bits/move.h **** # include <bits/concept_check.h>
  36:/Library/DaisyToolchain/0.2.0/arm/arm-none-eabi/include/c++/10.3.1/bits/move.h **** #endif
  37:/Library/DaisyToolchain/0.2.0/arm/arm-none-eabi/include/c++/10.3.1/bits/move.h **** 
  38:/Library/DaisyToolchain/0.2.0/arm/arm-none-eabi/include/c++/10.3.1/bits/move.h **** namespace std _GLIBCXX_VISIBILITY(default)
  39:/Library/DaisyToolchain/0.2.0/arm/arm-none-eabi/include/c++/10.3.1/bits/move.h **** {
  40:/Library/DaisyToolchain/0.2.0/arm/arm-none-eabi/include/c++/10.3.1/bits/move.h **** _GLIBCXX_BEGIN_NAMESPACE_VERSION
  41:/Library/DaisyToolchain/0.2.0/arm/arm-none-eabi/include/c++/10.3.1/bits/move.h **** 
  42:/Library/DaisyToolchain/0.2.0/arm/arm-none-eabi/include/c++/10.3.1/bits/move.h ****   // Used, in C++03 mode too, by allocators, etc.
  43:/Library/DaisyToolchain/0.2.0/arm/arm-none-eabi/include/c++/10.3.1/bits/move.h ****   /**
  44:/Library/DaisyToolchain/0.2.0/arm/arm-none-eabi/include/c++/10.3.1/bits/move.h ****    *  @brief Same as C++11 std::addressof
  45:/Library/DaisyToolchain/0.2.0/arm/arm-none-eabi/include/c++/10.3.1/bits/move.h ****    *  @ingroup utilities
ARM GAS  /var/folders/9s/8rp0_f2s1n31qbztm3b5_fdh0000gn/T//ccXta1BT.s 			page 85


  46:/Library/DaisyToolchain/0.2.0/arm/arm-none-eabi/include/c++/10.3.1/bits/move.h ****    */
  47:/Library/DaisyToolchain/0.2.0/arm/arm-none-eabi/include/c++/10.3.1/bits/move.h ****   template<typename _Tp>
  48:/Library/DaisyToolchain/0.2.0/arm/arm-none-eabi/include/c++/10.3.1/bits/move.h ****     inline _GLIBCXX_CONSTEXPR _Tp*
  49:/Library/DaisyToolchain/0.2.0/arm/arm-none-eabi/include/c++/10.3.1/bits/move.h ****     __addressof(_Tp& __r) _GLIBCXX_NOEXCEPT
  50:/Library/DaisyToolchain/0.2.0/arm/arm-none-eabi/include/c++/10.3.1/bits/move.h ****     { return __builtin_addressof(__r); }
  51:/Library/DaisyToolchain/0.2.0/arm/arm-none-eabi/include/c++/10.3.1/bits/move.h **** 
  52:/Library/DaisyToolchain/0.2.0/arm/arm-none-eabi/include/c++/10.3.1/bits/move.h **** #if __cplusplus >= 201103L
  53:/Library/DaisyToolchain/0.2.0/arm/arm-none-eabi/include/c++/10.3.1/bits/move.h **** 
  54:/Library/DaisyToolchain/0.2.0/arm/arm-none-eabi/include/c++/10.3.1/bits/move.h **** _GLIBCXX_END_NAMESPACE_VERSION
  55:/Library/DaisyToolchain/0.2.0/arm/arm-none-eabi/include/c++/10.3.1/bits/move.h **** } // namespace
  56:/Library/DaisyToolchain/0.2.0/arm/arm-none-eabi/include/c++/10.3.1/bits/move.h **** 
  57:/Library/DaisyToolchain/0.2.0/arm/arm-none-eabi/include/c++/10.3.1/bits/move.h **** #include <type_traits> // Brings in std::declval too.
  58:/Library/DaisyToolchain/0.2.0/arm/arm-none-eabi/include/c++/10.3.1/bits/move.h **** 
  59:/Library/DaisyToolchain/0.2.0/arm/arm-none-eabi/include/c++/10.3.1/bits/move.h **** namespace std _GLIBCXX_VISIBILITY(default)
  60:/Library/DaisyToolchain/0.2.0/arm/arm-none-eabi/include/c++/10.3.1/bits/move.h **** {
  61:/Library/DaisyToolchain/0.2.0/arm/arm-none-eabi/include/c++/10.3.1/bits/move.h **** _GLIBCXX_BEGIN_NAMESPACE_VERSION
  62:/Library/DaisyToolchain/0.2.0/arm/arm-none-eabi/include/c++/10.3.1/bits/move.h **** 
  63:/Library/DaisyToolchain/0.2.0/arm/arm-none-eabi/include/c++/10.3.1/bits/move.h ****   /**
  64:/Library/DaisyToolchain/0.2.0/arm/arm-none-eabi/include/c++/10.3.1/bits/move.h ****    *  @addtogroup utilities
  65:/Library/DaisyToolchain/0.2.0/arm/arm-none-eabi/include/c++/10.3.1/bits/move.h ****    *  @{
  66:/Library/DaisyToolchain/0.2.0/arm/arm-none-eabi/include/c++/10.3.1/bits/move.h ****    */
  67:/Library/DaisyToolchain/0.2.0/arm/arm-none-eabi/include/c++/10.3.1/bits/move.h **** 
  68:/Library/DaisyToolchain/0.2.0/arm/arm-none-eabi/include/c++/10.3.1/bits/move.h ****   /**
  69:/Library/DaisyToolchain/0.2.0/arm/arm-none-eabi/include/c++/10.3.1/bits/move.h ****    *  @brief  Forward an lvalue.
  70:/Library/DaisyToolchain/0.2.0/arm/arm-none-eabi/include/c++/10.3.1/bits/move.h ****    *  @return The parameter cast to the specified type.
  71:/Library/DaisyToolchain/0.2.0/arm/arm-none-eabi/include/c++/10.3.1/bits/move.h ****    *
  72:/Library/DaisyToolchain/0.2.0/arm/arm-none-eabi/include/c++/10.3.1/bits/move.h ****    *  This function is used to implement "perfect forwarding".
  73:/Library/DaisyToolchain/0.2.0/arm/arm-none-eabi/include/c++/10.3.1/bits/move.h ****    */
  74:/Library/DaisyToolchain/0.2.0/arm/arm-none-eabi/include/c++/10.3.1/bits/move.h ****   template<typename _Tp>
  75:/Library/DaisyToolchain/0.2.0/arm/arm-none-eabi/include/c++/10.3.1/bits/move.h ****     constexpr _Tp&&
  76:/Library/DaisyToolchain/0.2.0/arm/arm-none-eabi/include/c++/10.3.1/bits/move.h ****     forward(typename std::remove_reference<_Tp>::type& __t) noexcept
  77:/Library/DaisyToolchain/0.2.0/arm/arm-none-eabi/include/c++/10.3.1/bits/move.h ****     { return static_cast<_Tp&&>(__t); }
  78:/Library/DaisyToolchain/0.2.0/arm/arm-none-eabi/include/c++/10.3.1/bits/move.h **** 
  79:/Library/DaisyToolchain/0.2.0/arm/arm-none-eabi/include/c++/10.3.1/bits/move.h ****   /**
  80:/Library/DaisyToolchain/0.2.0/arm/arm-none-eabi/include/c++/10.3.1/bits/move.h ****    *  @brief  Forward an rvalue.
  81:/Library/DaisyToolchain/0.2.0/arm/arm-none-eabi/include/c++/10.3.1/bits/move.h ****    *  @return The parameter cast to the specified type.
  82:/Library/DaisyToolchain/0.2.0/arm/arm-none-eabi/include/c++/10.3.1/bits/move.h ****    *
  83:/Library/DaisyToolchain/0.2.0/arm/arm-none-eabi/include/c++/10.3.1/bits/move.h ****    *  This function is used to implement "perfect forwarding".
  84:/Library/DaisyToolchain/0.2.0/arm/arm-none-eabi/include/c++/10.3.1/bits/move.h ****    */
  85:/Library/DaisyToolchain/0.2.0/arm/arm-none-eabi/include/c++/10.3.1/bits/move.h ****   template<typename _Tp>
  86:/Library/DaisyToolchain/0.2.0/arm/arm-none-eabi/include/c++/10.3.1/bits/move.h ****     constexpr _Tp&&
  87:/Library/DaisyToolchain/0.2.0/arm/arm-none-eabi/include/c++/10.3.1/bits/move.h ****     forward(typename std::remove_reference<_Tp>::type&& __t) noexcept
  88:/Library/DaisyToolchain/0.2.0/arm/arm-none-eabi/include/c++/10.3.1/bits/move.h ****     {
  89:/Library/DaisyToolchain/0.2.0/arm/arm-none-eabi/include/c++/10.3.1/bits/move.h ****       static_assert(!std::is_lvalue_reference<_Tp>::value, "template argument"
  90:/Library/DaisyToolchain/0.2.0/arm/arm-none-eabi/include/c++/10.3.1/bits/move.h **** 		    " substituting _Tp is an lvalue reference type");
  91:/Library/DaisyToolchain/0.2.0/arm/arm-none-eabi/include/c++/10.3.1/bits/move.h ****       return static_cast<_Tp&&>(__t);
  92:/Library/DaisyToolchain/0.2.0/arm/arm-none-eabi/include/c++/10.3.1/bits/move.h ****     }
  93:/Library/DaisyToolchain/0.2.0/arm/arm-none-eabi/include/c++/10.3.1/bits/move.h **** 
  94:/Library/DaisyToolchain/0.2.0/arm/arm-none-eabi/include/c++/10.3.1/bits/move.h ****   /**
  95:/Library/DaisyToolchain/0.2.0/arm/arm-none-eabi/include/c++/10.3.1/bits/move.h ****    *  @brief  Convert a value to an rvalue.
  96:/Library/DaisyToolchain/0.2.0/arm/arm-none-eabi/include/c++/10.3.1/bits/move.h ****    *  @param  __t  A thing of arbitrary type.
  97:/Library/DaisyToolchain/0.2.0/arm/arm-none-eabi/include/c++/10.3.1/bits/move.h ****    *  @return The parameter cast to an rvalue-reference to allow moving it.
  98:/Library/DaisyToolchain/0.2.0/arm/arm-none-eabi/include/c++/10.3.1/bits/move.h ****   */
  99:/Library/DaisyToolchain/0.2.0/arm/arm-none-eabi/include/c++/10.3.1/bits/move.h ****   template<typename _Tp>
 100:/Library/DaisyToolchain/0.2.0/arm/arm-none-eabi/include/c++/10.3.1/bits/move.h ****     constexpr typename std::remove_reference<_Tp>::type&&
 101:/Library/DaisyToolchain/0.2.0/arm/arm-none-eabi/include/c++/10.3.1/bits/move.h ****     move(_Tp&& __t) noexcept
 2062              		.loc 23 101 5 is_stmt 1 view .LVU477
ARM GAS  /var/folders/9s/8rp0_f2s1n31qbztm3b5_fdh0000gn/T//ccXta1BT.s 			page 86


 2063              		.loc 23 101 5 is_stmt 0 view .LVU478
 2064              	.LBE649:
 2065              	.LBB650:
 2066              	.LBI650:
 207:/Library/DaisyToolchain/0.2.0/arm/arm-none-eabi/include/c++/10.3.1/bits/std_function.h **** 	{ _M_init_functor(__functor, std::move(__f), _Local_storage()); }
 2067              		.loc 13 207 2 is_stmt 1 view .LVU479
 207:/Library/DaisyToolchain/0.2.0/arm/arm-none-eabi/include/c++/10.3.1/bits/std_function.h **** 	{ _M_init_functor(__functor, std::move(__f), _Local_storage()); }
 2068              		.loc 13 207 2 is_stmt 0 view .LVU480
 2069              	.LBE650:
 2070              	.LBE647:
 2071              	.LBE645:
 2072              	.LBE644:
  87:/Library/DaisyToolchain/0.2.0/arm/arm-none-eabi/include/c++/10.3.1/bits/std_function.h ****     const void* _M_access() const { return &_M_pod_data[0]; }
 2073              		.loc 13 87 37 is_stmt 1 view .LVU481
 2074              		.file 24 "/Library/DaisyToolchain/0.2.0/arm/arm-none-eabi/include/c++/10.3.1/new"
   1:/Library/DaisyToolchain/0.2.0/arm/arm-none-eabi/include/c++/10.3.1/new **** // The -*- C++ -*- dynamic memory management header.
   2:/Library/DaisyToolchain/0.2.0/arm/arm-none-eabi/include/c++/10.3.1/new **** 
   3:/Library/DaisyToolchain/0.2.0/arm/arm-none-eabi/include/c++/10.3.1/new **** // Copyright (C) 1994-2020 Free Software Foundation, Inc.
   4:/Library/DaisyToolchain/0.2.0/arm/arm-none-eabi/include/c++/10.3.1/new **** 
   5:/Library/DaisyToolchain/0.2.0/arm/arm-none-eabi/include/c++/10.3.1/new **** // This file is part of GCC.
   6:/Library/DaisyToolchain/0.2.0/arm/arm-none-eabi/include/c++/10.3.1/new **** //
   7:/Library/DaisyToolchain/0.2.0/arm/arm-none-eabi/include/c++/10.3.1/new **** // GCC is free software; you can redistribute it and/or modify
   8:/Library/DaisyToolchain/0.2.0/arm/arm-none-eabi/include/c++/10.3.1/new **** // it under the terms of the GNU General Public License as published by
   9:/Library/DaisyToolchain/0.2.0/arm/arm-none-eabi/include/c++/10.3.1/new **** // the Free Software Foundation; either version 3, or (at your option)
  10:/Library/DaisyToolchain/0.2.0/arm/arm-none-eabi/include/c++/10.3.1/new **** // any later version.
  11:/Library/DaisyToolchain/0.2.0/arm/arm-none-eabi/include/c++/10.3.1/new **** // 
  12:/Library/DaisyToolchain/0.2.0/arm/arm-none-eabi/include/c++/10.3.1/new **** // GCC is distributed in the hope that it will be useful,
  13:/Library/DaisyToolchain/0.2.0/arm/arm-none-eabi/include/c++/10.3.1/new **** // but WITHOUT ANY WARRANTY; without even the implied warranty of
  14:/Library/DaisyToolchain/0.2.0/arm/arm-none-eabi/include/c++/10.3.1/new **** // MERCHANTABILITY or FITNESS FOR A PARTICULAR PURPOSE.  See the
  15:/Library/DaisyToolchain/0.2.0/arm/arm-none-eabi/include/c++/10.3.1/new **** // GNU General Public License for more details.
  16:/Library/DaisyToolchain/0.2.0/arm/arm-none-eabi/include/c++/10.3.1/new **** // 
  17:/Library/DaisyToolchain/0.2.0/arm/arm-none-eabi/include/c++/10.3.1/new **** // Under Section 7 of GPL version 3, you are granted additional
  18:/Library/DaisyToolchain/0.2.0/arm/arm-none-eabi/include/c++/10.3.1/new **** // permissions described in the GCC Runtime Library Exception, version
  19:/Library/DaisyToolchain/0.2.0/arm/arm-none-eabi/include/c++/10.3.1/new **** // 3.1, as published by the Free Software Foundation.
  20:/Library/DaisyToolchain/0.2.0/arm/arm-none-eabi/include/c++/10.3.1/new **** 
  21:/Library/DaisyToolchain/0.2.0/arm/arm-none-eabi/include/c++/10.3.1/new **** // You should have received a copy of the GNU General Public License and
  22:/Library/DaisyToolchain/0.2.0/arm/arm-none-eabi/include/c++/10.3.1/new **** // a copy of the GCC Runtime Library Exception along with this program;
  23:/Library/DaisyToolchain/0.2.0/arm/arm-none-eabi/include/c++/10.3.1/new **** // see the files COPYING3 and COPYING.RUNTIME respectively.  If not, see
  24:/Library/DaisyToolchain/0.2.0/arm/arm-none-eabi/include/c++/10.3.1/new **** // <http://www.gnu.org/licenses/>.
  25:/Library/DaisyToolchain/0.2.0/arm/arm-none-eabi/include/c++/10.3.1/new **** 
  26:/Library/DaisyToolchain/0.2.0/arm/arm-none-eabi/include/c++/10.3.1/new **** /** @file new
  27:/Library/DaisyToolchain/0.2.0/arm/arm-none-eabi/include/c++/10.3.1/new ****  *  This is a Standard C++ Library header.
  28:/Library/DaisyToolchain/0.2.0/arm/arm-none-eabi/include/c++/10.3.1/new ****  *
  29:/Library/DaisyToolchain/0.2.0/arm/arm-none-eabi/include/c++/10.3.1/new ****  *  The header @c new defines several functions to manage dynamic memory and
  30:/Library/DaisyToolchain/0.2.0/arm/arm-none-eabi/include/c++/10.3.1/new ****  *  handling memory allocation errors; see
  31:/Library/DaisyToolchain/0.2.0/arm/arm-none-eabi/include/c++/10.3.1/new ****  *  https://gcc.gnu.org/onlinedocs/libstdc++/manual/dynamic_memory.html
  32:/Library/DaisyToolchain/0.2.0/arm/arm-none-eabi/include/c++/10.3.1/new ****  *  for more.
  33:/Library/DaisyToolchain/0.2.0/arm/arm-none-eabi/include/c++/10.3.1/new ****  */
  34:/Library/DaisyToolchain/0.2.0/arm/arm-none-eabi/include/c++/10.3.1/new **** 
  35:/Library/DaisyToolchain/0.2.0/arm/arm-none-eabi/include/c++/10.3.1/new **** #ifndef _NEW
  36:/Library/DaisyToolchain/0.2.0/arm/arm-none-eabi/include/c++/10.3.1/new **** #define _NEW
  37:/Library/DaisyToolchain/0.2.0/arm/arm-none-eabi/include/c++/10.3.1/new **** 
  38:/Library/DaisyToolchain/0.2.0/arm/arm-none-eabi/include/c++/10.3.1/new **** #pragma GCC system_header
  39:/Library/DaisyToolchain/0.2.0/arm/arm-none-eabi/include/c++/10.3.1/new **** 
  40:/Library/DaisyToolchain/0.2.0/arm/arm-none-eabi/include/c++/10.3.1/new **** #include <bits/c++config.h>
  41:/Library/DaisyToolchain/0.2.0/arm/arm-none-eabi/include/c++/10.3.1/new **** #include <exception>
  42:/Library/DaisyToolchain/0.2.0/arm/arm-none-eabi/include/c++/10.3.1/new **** 
ARM GAS  /var/folders/9s/8rp0_f2s1n31qbztm3b5_fdh0000gn/T//ccXta1BT.s 			page 87


  43:/Library/DaisyToolchain/0.2.0/arm/arm-none-eabi/include/c++/10.3.1/new **** #pragma GCC visibility push(default)
  44:/Library/DaisyToolchain/0.2.0/arm/arm-none-eabi/include/c++/10.3.1/new **** 
  45:/Library/DaisyToolchain/0.2.0/arm/arm-none-eabi/include/c++/10.3.1/new **** extern "C++" {
  46:/Library/DaisyToolchain/0.2.0/arm/arm-none-eabi/include/c++/10.3.1/new **** 
  47:/Library/DaisyToolchain/0.2.0/arm/arm-none-eabi/include/c++/10.3.1/new **** namespace std 
  48:/Library/DaisyToolchain/0.2.0/arm/arm-none-eabi/include/c++/10.3.1/new **** {
  49:/Library/DaisyToolchain/0.2.0/arm/arm-none-eabi/include/c++/10.3.1/new ****   /**
  50:/Library/DaisyToolchain/0.2.0/arm/arm-none-eabi/include/c++/10.3.1/new ****    *  @brief  Exception possibly thrown by @c new.
  51:/Library/DaisyToolchain/0.2.0/arm/arm-none-eabi/include/c++/10.3.1/new ****    *  @ingroup exceptions
  52:/Library/DaisyToolchain/0.2.0/arm/arm-none-eabi/include/c++/10.3.1/new ****    *
  53:/Library/DaisyToolchain/0.2.0/arm/arm-none-eabi/include/c++/10.3.1/new ****    *  @c bad_alloc (or classes derived from it) is used to report allocation
  54:/Library/DaisyToolchain/0.2.0/arm/arm-none-eabi/include/c++/10.3.1/new ****    *  errors from the throwing forms of @c new.  */
  55:/Library/DaisyToolchain/0.2.0/arm/arm-none-eabi/include/c++/10.3.1/new ****   class bad_alloc : public exception 
  56:/Library/DaisyToolchain/0.2.0/arm/arm-none-eabi/include/c++/10.3.1/new ****   {
  57:/Library/DaisyToolchain/0.2.0/arm/arm-none-eabi/include/c++/10.3.1/new ****   public:
  58:/Library/DaisyToolchain/0.2.0/arm/arm-none-eabi/include/c++/10.3.1/new ****     bad_alloc() throw() { }
  59:/Library/DaisyToolchain/0.2.0/arm/arm-none-eabi/include/c++/10.3.1/new **** 
  60:/Library/DaisyToolchain/0.2.0/arm/arm-none-eabi/include/c++/10.3.1/new **** #if __cplusplus >= 201103L
  61:/Library/DaisyToolchain/0.2.0/arm/arm-none-eabi/include/c++/10.3.1/new ****     bad_alloc(const bad_alloc&) = default;
  62:/Library/DaisyToolchain/0.2.0/arm/arm-none-eabi/include/c++/10.3.1/new ****     bad_alloc& operator=(const bad_alloc&) = default;
  63:/Library/DaisyToolchain/0.2.0/arm/arm-none-eabi/include/c++/10.3.1/new **** #endif
  64:/Library/DaisyToolchain/0.2.0/arm/arm-none-eabi/include/c++/10.3.1/new **** 
  65:/Library/DaisyToolchain/0.2.0/arm/arm-none-eabi/include/c++/10.3.1/new ****     // This declaration is not useless:
  66:/Library/DaisyToolchain/0.2.0/arm/arm-none-eabi/include/c++/10.3.1/new ****     // http://gcc.gnu.org/onlinedocs/gcc-3.0.2/gcc_6.html#SEC118
  67:/Library/DaisyToolchain/0.2.0/arm/arm-none-eabi/include/c++/10.3.1/new ****     virtual ~bad_alloc() throw();
  68:/Library/DaisyToolchain/0.2.0/arm/arm-none-eabi/include/c++/10.3.1/new **** 
  69:/Library/DaisyToolchain/0.2.0/arm/arm-none-eabi/include/c++/10.3.1/new ****     // See comment in eh_exception.cc.
  70:/Library/DaisyToolchain/0.2.0/arm/arm-none-eabi/include/c++/10.3.1/new ****     virtual const char* what() const throw();
  71:/Library/DaisyToolchain/0.2.0/arm/arm-none-eabi/include/c++/10.3.1/new ****   };
  72:/Library/DaisyToolchain/0.2.0/arm/arm-none-eabi/include/c++/10.3.1/new **** 
  73:/Library/DaisyToolchain/0.2.0/arm/arm-none-eabi/include/c++/10.3.1/new **** #if __cplusplus >= 201103L
  74:/Library/DaisyToolchain/0.2.0/arm/arm-none-eabi/include/c++/10.3.1/new ****   class bad_array_new_length : public bad_alloc
  75:/Library/DaisyToolchain/0.2.0/arm/arm-none-eabi/include/c++/10.3.1/new ****   {
  76:/Library/DaisyToolchain/0.2.0/arm/arm-none-eabi/include/c++/10.3.1/new ****   public:
  77:/Library/DaisyToolchain/0.2.0/arm/arm-none-eabi/include/c++/10.3.1/new ****     bad_array_new_length() throw() { }
  78:/Library/DaisyToolchain/0.2.0/arm/arm-none-eabi/include/c++/10.3.1/new **** 
  79:/Library/DaisyToolchain/0.2.0/arm/arm-none-eabi/include/c++/10.3.1/new ****     // This declaration is not useless:
  80:/Library/DaisyToolchain/0.2.0/arm/arm-none-eabi/include/c++/10.3.1/new ****     // http://gcc.gnu.org/onlinedocs/gcc-3.0.2/gcc_6.html#SEC118
  81:/Library/DaisyToolchain/0.2.0/arm/arm-none-eabi/include/c++/10.3.1/new ****     virtual ~bad_array_new_length() throw();
  82:/Library/DaisyToolchain/0.2.0/arm/arm-none-eabi/include/c++/10.3.1/new **** 
  83:/Library/DaisyToolchain/0.2.0/arm/arm-none-eabi/include/c++/10.3.1/new ****     // See comment in eh_exception.cc.
  84:/Library/DaisyToolchain/0.2.0/arm/arm-none-eabi/include/c++/10.3.1/new ****     virtual const char* what() const throw();
  85:/Library/DaisyToolchain/0.2.0/arm/arm-none-eabi/include/c++/10.3.1/new ****   };
  86:/Library/DaisyToolchain/0.2.0/arm/arm-none-eabi/include/c++/10.3.1/new **** #endif
  87:/Library/DaisyToolchain/0.2.0/arm/arm-none-eabi/include/c++/10.3.1/new **** 
  88:/Library/DaisyToolchain/0.2.0/arm/arm-none-eabi/include/c++/10.3.1/new **** #if __cpp_aligned_new
  89:/Library/DaisyToolchain/0.2.0/arm/arm-none-eabi/include/c++/10.3.1/new ****   enum class align_val_t: size_t {};
  90:/Library/DaisyToolchain/0.2.0/arm/arm-none-eabi/include/c++/10.3.1/new **** #endif
  91:/Library/DaisyToolchain/0.2.0/arm/arm-none-eabi/include/c++/10.3.1/new **** 
  92:/Library/DaisyToolchain/0.2.0/arm/arm-none-eabi/include/c++/10.3.1/new ****   struct nothrow_t
  93:/Library/DaisyToolchain/0.2.0/arm/arm-none-eabi/include/c++/10.3.1/new ****   {
  94:/Library/DaisyToolchain/0.2.0/arm/arm-none-eabi/include/c++/10.3.1/new **** #if __cplusplus >= 201103L
  95:/Library/DaisyToolchain/0.2.0/arm/arm-none-eabi/include/c++/10.3.1/new ****     explicit nothrow_t() = default;
  96:/Library/DaisyToolchain/0.2.0/arm/arm-none-eabi/include/c++/10.3.1/new **** #endif
  97:/Library/DaisyToolchain/0.2.0/arm/arm-none-eabi/include/c++/10.3.1/new ****   };
  98:/Library/DaisyToolchain/0.2.0/arm/arm-none-eabi/include/c++/10.3.1/new **** 
  99:/Library/DaisyToolchain/0.2.0/arm/arm-none-eabi/include/c++/10.3.1/new ****   extern const nothrow_t nothrow;
ARM GAS  /var/folders/9s/8rp0_f2s1n31qbztm3b5_fdh0000gn/T//ccXta1BT.s 			page 88


 100:/Library/DaisyToolchain/0.2.0/arm/arm-none-eabi/include/c++/10.3.1/new **** 
 101:/Library/DaisyToolchain/0.2.0/arm/arm-none-eabi/include/c++/10.3.1/new ****   /** If you write your own error handler to be called by @c new, it must
 102:/Library/DaisyToolchain/0.2.0/arm/arm-none-eabi/include/c++/10.3.1/new ****    *  be of this type.  */
 103:/Library/DaisyToolchain/0.2.0/arm/arm-none-eabi/include/c++/10.3.1/new ****   typedef void (*new_handler)();
 104:/Library/DaisyToolchain/0.2.0/arm/arm-none-eabi/include/c++/10.3.1/new **** 
 105:/Library/DaisyToolchain/0.2.0/arm/arm-none-eabi/include/c++/10.3.1/new ****   /// Takes a replacement handler as the argument, returns the
 106:/Library/DaisyToolchain/0.2.0/arm/arm-none-eabi/include/c++/10.3.1/new ****   /// previous handler.
 107:/Library/DaisyToolchain/0.2.0/arm/arm-none-eabi/include/c++/10.3.1/new ****   new_handler set_new_handler(new_handler) throw();
 108:/Library/DaisyToolchain/0.2.0/arm/arm-none-eabi/include/c++/10.3.1/new **** 
 109:/Library/DaisyToolchain/0.2.0/arm/arm-none-eabi/include/c++/10.3.1/new **** #if __cplusplus >= 201103L
 110:/Library/DaisyToolchain/0.2.0/arm/arm-none-eabi/include/c++/10.3.1/new ****   /// Return the current new handler.
 111:/Library/DaisyToolchain/0.2.0/arm/arm-none-eabi/include/c++/10.3.1/new ****   new_handler get_new_handler() noexcept;
 112:/Library/DaisyToolchain/0.2.0/arm/arm-none-eabi/include/c++/10.3.1/new **** #endif
 113:/Library/DaisyToolchain/0.2.0/arm/arm-none-eabi/include/c++/10.3.1/new **** } // namespace std
 114:/Library/DaisyToolchain/0.2.0/arm/arm-none-eabi/include/c++/10.3.1/new **** 
 115:/Library/DaisyToolchain/0.2.0/arm/arm-none-eabi/include/c++/10.3.1/new **** //@{
 116:/Library/DaisyToolchain/0.2.0/arm/arm-none-eabi/include/c++/10.3.1/new **** /** These are replaceable signatures:
 117:/Library/DaisyToolchain/0.2.0/arm/arm-none-eabi/include/c++/10.3.1/new ****  *  - normal single new and delete (no arguments, throw @c bad_alloc on error)
 118:/Library/DaisyToolchain/0.2.0/arm/arm-none-eabi/include/c++/10.3.1/new ****  *  - normal array new and delete (same)
 119:/Library/DaisyToolchain/0.2.0/arm/arm-none-eabi/include/c++/10.3.1/new ****  *  - @c nothrow single new and delete (take a @c nothrow argument, return
 120:/Library/DaisyToolchain/0.2.0/arm/arm-none-eabi/include/c++/10.3.1/new ****  *    @c NULL on error)
 121:/Library/DaisyToolchain/0.2.0/arm/arm-none-eabi/include/c++/10.3.1/new ****  *  - @c nothrow array new and delete (same)
 122:/Library/DaisyToolchain/0.2.0/arm/arm-none-eabi/include/c++/10.3.1/new ****  *
 123:/Library/DaisyToolchain/0.2.0/arm/arm-none-eabi/include/c++/10.3.1/new ****  *  Placement new and delete signatures (take a memory address argument,
 124:/Library/DaisyToolchain/0.2.0/arm/arm-none-eabi/include/c++/10.3.1/new ****  *  does nothing) may not be replaced by a user's program.
 125:/Library/DaisyToolchain/0.2.0/arm/arm-none-eabi/include/c++/10.3.1/new **** */
 126:/Library/DaisyToolchain/0.2.0/arm/arm-none-eabi/include/c++/10.3.1/new **** _GLIBCXX_NODISCARD void* operator new(std::size_t) _GLIBCXX_THROW (std::bad_alloc)
 127:/Library/DaisyToolchain/0.2.0/arm/arm-none-eabi/include/c++/10.3.1/new ****   __attribute__((__externally_visible__));
 128:/Library/DaisyToolchain/0.2.0/arm/arm-none-eabi/include/c++/10.3.1/new **** _GLIBCXX_NODISCARD void* operator new[](std::size_t) _GLIBCXX_THROW (std::bad_alloc)
 129:/Library/DaisyToolchain/0.2.0/arm/arm-none-eabi/include/c++/10.3.1/new ****   __attribute__((__externally_visible__));
 130:/Library/DaisyToolchain/0.2.0/arm/arm-none-eabi/include/c++/10.3.1/new **** void operator delete(void*) _GLIBCXX_USE_NOEXCEPT
 131:/Library/DaisyToolchain/0.2.0/arm/arm-none-eabi/include/c++/10.3.1/new ****   __attribute__((__externally_visible__));
 132:/Library/DaisyToolchain/0.2.0/arm/arm-none-eabi/include/c++/10.3.1/new **** void operator delete[](void*) _GLIBCXX_USE_NOEXCEPT
 133:/Library/DaisyToolchain/0.2.0/arm/arm-none-eabi/include/c++/10.3.1/new ****   __attribute__((__externally_visible__));
 134:/Library/DaisyToolchain/0.2.0/arm/arm-none-eabi/include/c++/10.3.1/new **** #if __cpp_sized_deallocation
 135:/Library/DaisyToolchain/0.2.0/arm/arm-none-eabi/include/c++/10.3.1/new **** void operator delete(void*, std::size_t) _GLIBCXX_USE_NOEXCEPT
 136:/Library/DaisyToolchain/0.2.0/arm/arm-none-eabi/include/c++/10.3.1/new ****   __attribute__((__externally_visible__));
 137:/Library/DaisyToolchain/0.2.0/arm/arm-none-eabi/include/c++/10.3.1/new **** void operator delete[](void*, std::size_t) _GLIBCXX_USE_NOEXCEPT
 138:/Library/DaisyToolchain/0.2.0/arm/arm-none-eabi/include/c++/10.3.1/new ****   __attribute__((__externally_visible__));
 139:/Library/DaisyToolchain/0.2.0/arm/arm-none-eabi/include/c++/10.3.1/new **** #endif
 140:/Library/DaisyToolchain/0.2.0/arm/arm-none-eabi/include/c++/10.3.1/new **** _GLIBCXX_NODISCARD void* operator new(std::size_t, const std::nothrow_t&) _GLIBCXX_USE_NOEXCEPT
 141:/Library/DaisyToolchain/0.2.0/arm/arm-none-eabi/include/c++/10.3.1/new ****   __attribute__((__externally_visible__, __malloc__));
 142:/Library/DaisyToolchain/0.2.0/arm/arm-none-eabi/include/c++/10.3.1/new **** _GLIBCXX_NODISCARD void* operator new[](std::size_t, const std::nothrow_t&) _GLIBCXX_USE_NOEXCEPT
 143:/Library/DaisyToolchain/0.2.0/arm/arm-none-eabi/include/c++/10.3.1/new ****   __attribute__((__externally_visible__, __malloc__));
 144:/Library/DaisyToolchain/0.2.0/arm/arm-none-eabi/include/c++/10.3.1/new **** void operator delete(void*, const std::nothrow_t&) _GLIBCXX_USE_NOEXCEPT
 145:/Library/DaisyToolchain/0.2.0/arm/arm-none-eabi/include/c++/10.3.1/new ****   __attribute__((__externally_visible__));
 146:/Library/DaisyToolchain/0.2.0/arm/arm-none-eabi/include/c++/10.3.1/new **** void operator delete[](void*, const std::nothrow_t&) _GLIBCXX_USE_NOEXCEPT
 147:/Library/DaisyToolchain/0.2.0/arm/arm-none-eabi/include/c++/10.3.1/new ****   __attribute__((__externally_visible__));
 148:/Library/DaisyToolchain/0.2.0/arm/arm-none-eabi/include/c++/10.3.1/new **** #if __cpp_aligned_new
 149:/Library/DaisyToolchain/0.2.0/arm/arm-none-eabi/include/c++/10.3.1/new **** _GLIBCXX_NODISCARD void* operator new(std::size_t, std::align_val_t)
 150:/Library/DaisyToolchain/0.2.0/arm/arm-none-eabi/include/c++/10.3.1/new ****   __attribute__((__externally_visible__));
 151:/Library/DaisyToolchain/0.2.0/arm/arm-none-eabi/include/c++/10.3.1/new **** _GLIBCXX_NODISCARD void* operator new(std::size_t, std::align_val_t, const std::nothrow_t&)
 152:/Library/DaisyToolchain/0.2.0/arm/arm-none-eabi/include/c++/10.3.1/new ****   _GLIBCXX_USE_NOEXCEPT __attribute__((__externally_visible__, __malloc__));
 153:/Library/DaisyToolchain/0.2.0/arm/arm-none-eabi/include/c++/10.3.1/new **** void operator delete(void*, std::align_val_t)
 154:/Library/DaisyToolchain/0.2.0/arm/arm-none-eabi/include/c++/10.3.1/new ****   _GLIBCXX_USE_NOEXCEPT __attribute__((__externally_visible__));
 155:/Library/DaisyToolchain/0.2.0/arm/arm-none-eabi/include/c++/10.3.1/new **** void operator delete(void*, std::align_val_t, const std::nothrow_t&)
 156:/Library/DaisyToolchain/0.2.0/arm/arm-none-eabi/include/c++/10.3.1/new ****   _GLIBCXX_USE_NOEXCEPT __attribute__((__externally_visible__));
ARM GAS  /var/folders/9s/8rp0_f2s1n31qbztm3b5_fdh0000gn/T//ccXta1BT.s 			page 89


 157:/Library/DaisyToolchain/0.2.0/arm/arm-none-eabi/include/c++/10.3.1/new **** _GLIBCXX_NODISCARD void* operator new[](std::size_t, std::align_val_t)
 158:/Library/DaisyToolchain/0.2.0/arm/arm-none-eabi/include/c++/10.3.1/new ****   __attribute__((__externally_visible__));
 159:/Library/DaisyToolchain/0.2.0/arm/arm-none-eabi/include/c++/10.3.1/new **** _GLIBCXX_NODISCARD void* operator new[](std::size_t, std::align_val_t, const std::nothrow_t&)
 160:/Library/DaisyToolchain/0.2.0/arm/arm-none-eabi/include/c++/10.3.1/new ****   _GLIBCXX_USE_NOEXCEPT __attribute__((__externally_visible__, __malloc__));
 161:/Library/DaisyToolchain/0.2.0/arm/arm-none-eabi/include/c++/10.3.1/new **** void operator delete[](void*, std::align_val_t)
 162:/Library/DaisyToolchain/0.2.0/arm/arm-none-eabi/include/c++/10.3.1/new ****   _GLIBCXX_USE_NOEXCEPT __attribute__((__externally_visible__));
 163:/Library/DaisyToolchain/0.2.0/arm/arm-none-eabi/include/c++/10.3.1/new **** void operator delete[](void*, std::align_val_t, const std::nothrow_t&)
 164:/Library/DaisyToolchain/0.2.0/arm/arm-none-eabi/include/c++/10.3.1/new ****   _GLIBCXX_USE_NOEXCEPT __attribute__((__externally_visible__));
 165:/Library/DaisyToolchain/0.2.0/arm/arm-none-eabi/include/c++/10.3.1/new **** #if __cpp_sized_deallocation
 166:/Library/DaisyToolchain/0.2.0/arm/arm-none-eabi/include/c++/10.3.1/new **** void operator delete(void*, std::size_t, std::align_val_t)
 167:/Library/DaisyToolchain/0.2.0/arm/arm-none-eabi/include/c++/10.3.1/new ****   _GLIBCXX_USE_NOEXCEPT __attribute__((__externally_visible__));
 168:/Library/DaisyToolchain/0.2.0/arm/arm-none-eabi/include/c++/10.3.1/new **** void operator delete[](void*, std::size_t, std::align_val_t)
 169:/Library/DaisyToolchain/0.2.0/arm/arm-none-eabi/include/c++/10.3.1/new ****   _GLIBCXX_USE_NOEXCEPT __attribute__((__externally_visible__));
 170:/Library/DaisyToolchain/0.2.0/arm/arm-none-eabi/include/c++/10.3.1/new **** #endif // __cpp_sized_deallocation
 171:/Library/DaisyToolchain/0.2.0/arm/arm-none-eabi/include/c++/10.3.1/new **** #endif // __cpp_aligned_new
 172:/Library/DaisyToolchain/0.2.0/arm/arm-none-eabi/include/c++/10.3.1/new **** 
 173:/Library/DaisyToolchain/0.2.0/arm/arm-none-eabi/include/c++/10.3.1/new **** // Default placement versions of operator new.
 174:/Library/DaisyToolchain/0.2.0/arm/arm-none-eabi/include/c++/10.3.1/new **** _GLIBCXX_NODISCARD inline void* operator new(std::size_t, void* __p) _GLIBCXX_USE_NOEXCEPT
 175:/Library/DaisyToolchain/0.2.0/arm/arm-none-eabi/include/c++/10.3.1/new **** { return __p; }
 2075              		.loc 24 175 3 view .LVU482
 2076              	.LBB655:
 2077              	.LBB653:
 2078              	.LBB651:
 602:/Library/DaisyToolchain/0.2.0/arm/arm-none-eabi/include/c++/10.3.1/bits/std_function.h ****       function(_Functor __f)
 603:/Library/DaisyToolchain/0.2.0/arm/arm-none-eabi/include/c++/10.3.1/bits/std_function.h ****       : _Function_base()
 604:/Library/DaisyToolchain/0.2.0/arm/arm-none-eabi/include/c++/10.3.1/bits/std_function.h ****       {
 605:/Library/DaisyToolchain/0.2.0/arm/arm-none-eabi/include/c++/10.3.1/bits/std_function.h **** 	typedef _Function_handler<_Res(_ArgTypes...), _Functor> _My_handler;
 606:/Library/DaisyToolchain/0.2.0/arm/arm-none-eabi/include/c++/10.3.1/bits/std_function.h **** 
 607:/Library/DaisyToolchain/0.2.0/arm/arm-none-eabi/include/c++/10.3.1/bits/std_function.h **** 	if (_My_handler::_M_not_empty_function(__f))
 608:/Library/DaisyToolchain/0.2.0/arm/arm-none-eabi/include/c++/10.3.1/bits/std_function.h **** 	  {
 609:/Library/DaisyToolchain/0.2.0/arm/arm-none-eabi/include/c++/10.3.1/bits/std_function.h **** 	    _My_handler::_M_init_functor(_M_functor, std::move(__f));
 610:/Library/DaisyToolchain/0.2.0/arm/arm-none-eabi/include/c++/10.3.1/bits/std_function.h **** 	    _M_invoker = &_My_handler::_M_invoke;
 2079              		.loc 13 610 17 is_stmt 0 view .LVU483
 2080 0084 264B     		ldr	r3, .L62+24
 2081              	.LBE651:
 2082              	.LBE653:
 2083              	.LBE655:
 117:Interface.cpp ****     arp.SetNoteTriggerCallback([](int pad_idx) {
 2084              		.loc 16 117 31 view .LVU484
 2085 0086 02A9     		add	r1, sp, #8
 2086              	.LVL153:
 117:Interface.cpp ****     arp.SetNoteTriggerCallback([](int pad_idx) {
 2087              		.loc 16 117 31 view .LVU485
 2088 0088 2248     		ldr	r0, .L62+12
 2089              	.LBB656:
 2090              	.LBB654:
 2091              	.LBB652:
 2092              		.loc 13 610 17 view .LVU486
 2093 008a 0593     		str	r3, [sp, #20]
 611:/Library/DaisyToolchain/0.2.0/arm/arm-none-eabi/include/c++/10.3.1/bits/std_function.h **** 	    _M_manager = &_My_handler::_M_manager;
 2094              		.loc 13 611 17 view .LVU487
 2095 008c 254B     		ldr	r3, .L62+28
 2096 008e 0493     		str	r3, [sp, #16]
 2097              	.LVL154:
 2098              		.loc 13 611 17 view .LVU488
 2099              	.LBE652:
 2100              	.LBE654:
ARM GAS  /var/folders/9s/8rp0_f2s1n31qbztm3b5_fdh0000gn/T//ccXta1BT.s 			page 90


 2101              	.LBE656:
 117:Interface.cpp ****     arp.SetNoteTriggerCallback([](int pad_idx) {
 2102              		.loc 16 117 31 view .LVU489
 2103 0090 FFF7FEFF 		bl	_ZN11Arpeggiator22SetNoteTriggerCallbackESt8functionIFviEE
 2104              	.LVL155:
 2105              	.LBB657:
 2106              	.LBI657:
 303:/Library/DaisyToolchain/0.2.0/arm/arm-none-eabi/include/c++/10.3.1/bits/std_function.h ****     : public _Maybe_unary_or_binary_function<_Res, _ArgTypes...>,
 2107              		.loc 13 303 11 is_stmt 1 view .LVU490
 2108              	.LBB658:
 2109 0094 02A8     		add	r0, sp, #8
 2110              	.LVL156:
 303:/Library/DaisyToolchain/0.2.0/arm/arm-none-eabi/include/c++/10.3.1/bits/std_function.h ****     : public _Maybe_unary_or_binary_function<_Res, _ArgTypes...>,
 2111              		.loc 13 303 11 is_stmt 0 view .LVU491
 2112 0096 FFF7FEFF 		bl	_ZNSt14_Function_baseD2Ev
 2113              	.LVL157:
 303:/Library/DaisyToolchain/0.2.0/arm/arm-none-eabi/include/c++/10.3.1/bits/std_function.h ****     : public _Maybe_unary_or_binary_function<_Res, _ArgTypes...>,
 2114              		.loc 13 303 11 view .LVU492
 2115              	.LBE658:
 2116              	.LBE657:
 134:Interface.cpp ****     hw.StartAudio(AudioCallback);
 2117              		.loc 16 134 5 is_stmt 1 view .LVU493
 134:Interface.cpp ****     hw.StartAudio(AudioCallback);
 2118              		.loc 16 134 18 is_stmt 0 view .LVU494
 2119 009a 2349     		ldr	r1, .L62+32
 2120 009c 2348     		ldr	r0, .L62+36
 2121 009e FFF7FEFF 		bl	_ZN5daisy9DaisySeed10StartAudioEPFvPKfPfjE
 2122              	.LVL158:
 137:Interface.cpp ****     hw.StartLog(false); // Start log immediately (non-blocking)
 2123              		.loc 16 137 5 is_stmt 1 view .LVU495
 2124              	.LBB659:
 2125              	.LBI659:
 122:lib/libdaisy/src/daisy_seed.h ****     }
 123:lib/libdaisy/src/daisy_seed.h **** 
 124:lib/libdaisy/src/daisy_seed.h ****     /** Start the logging session. Optionally wait for terminal connection before proceeding.
 125:lib/libdaisy/src/daisy_seed.h ****     */
 126:lib/libdaisy/src/daisy_seed.h ****     static void StartLog(bool wait_for_pc = false)
 2126              		.loc 3 126 17 view .LVU496
 2127              	.LBB660:
 127:lib/libdaisy/src/daisy_seed.h ****     {
 128:lib/libdaisy/src/daisy_seed.h ****         Log::StartLog(wait_for_pc);
 2128              		.loc 3 128 9 view .LVU497
 2129              		.loc 3 128 22 is_stmt 0 view .LVU498
 2130 00a2 0020     		movs	r0, #0
 2131 00a4 FFF7FEFF 		bl	_ZN5daisy6LoggerILNS_17LoggerDestinationE1EE8StartLogEb
 2132              	.LVL159:
 2133              		.loc 3 128 22 view .LVU499
 2134              	.LBE660:
 2135              	.LBE659:
 139:Interface.cpp ****     hw.PrintLine("Plaits Synth Started - Ready for Bootloader CMD");
 2136              		.loc 16 139 5 is_stmt 1 view .LVU500
 2137              	.LBB661:
 2138              	.LBI661:
 119:lib/libdaisy/src/daisy_seed.h ****     {
 2139              		.loc 3 119 17 view .LVU501
 2140              	.LBB662:
 121:lib/libdaisy/src/daisy_seed.h ****     }
ARM GAS  /var/folders/9s/8rp0_f2s1n31qbztm3b5_fdh0000gn/T//ccXta1BT.s 			page 91


 2141              		.loc 3 121 23 is_stmt 0 view .LVU502
 2142 00a8 2148     		ldr	r0, .L62+40
 2143 00aa FFF7FEFF 		bl	_ZN5daisy6LoggerILNS_17LoggerDestinationE1EE9PrintLineEPKcz
 2144              	.LVL160:
 121:lib/libdaisy/src/daisy_seed.h ****     }
 2145              		.loc 3 121 23 view .LVU503
 2146              	.LBE662:
 2147              	.LBE661:
 140:Interface.cpp ****     char settings[64];
 2148              		.loc 16 140 5 is_stmt 1 view .LVU504
 142:Interface.cpp ****     sprintf(settings, "Max Voices: %d | Block: %d | SR: %d", NUM_VOICES, BLOCK_SIZE, (int)sample_ra
 2149              		.loc 16 142 5 view .LVU505
 142:Interface.cpp ****     sprintf(settings, "Max Voices: %d | Block: %d | SR: %d", NUM_VOICES, BLOCK_SIZE, (int)sample_ra
 2150              		.loc 16 142 12 is_stmt 0 view .LVU506
 2151 00ae D4ED007A 		vldr.32	s15, [r4]
 2152 00b2 1023     		movs	r3, #16
 2153 00b4 0422     		movs	r2, #4
 2154 00b6 FDEEE77A 		vcvt.s32.f32	s15, s15
 2155 00ba 1E49     		ldr	r1, .L62+44
 2156 00bc 02A8     		add	r0, sp, #8
 2157 00be CDED007A 		vstr.32	s15, [sp]	@ int
 2158 00c2 FFF7FEFF 		bl	sprintf
 2159              	.LVL161:
 143:Interface.cpp ****     hw.PrintLine(settings);
 2160              		.loc 16 143 5 is_stmt 1 view .LVU507
 2161              	.LBB663:
 2162              	.LBI663:
 119:lib/libdaisy/src/daisy_seed.h ****     {
 2163              		.loc 3 119 17 view .LVU508
 2164              	.LBB664:
 121:lib/libdaisy/src/daisy_seed.h ****     }
 2165              		.loc 3 121 23 is_stmt 0 view .LVU509
 2166 00c6 02A8     		add	r0, sp, #8
 2167              	.LVL162:
 121:lib/libdaisy/src/daisy_seed.h ****     }
 2168              		.loc 3 121 23 view .LVU510
 2169 00c8 FFF7FEFF 		bl	_ZN5daisy6LoggerILNS_17LoggerDestinationE1EE9PrintLineEPKcz
 2170              	.LVL163:
 121:lib/libdaisy/src/daisy_seed.h ****     }
 2171              		.loc 3 121 23 view .LVU511
 2172              	.LBE664:
 2173              	.LBE663:
 144:Interface.cpp ****     sprintf(settings, "Engine Range: 0-%d", MAX_ENGINE_INDEX);
 2174              		.loc 16 144 5 is_stmt 1 view .LVU512
 144:Interface.cpp ****     sprintf(settings, "Engine Range: 0-%d", MAX_ENGINE_INDEX);
 2175              		.loc 16 144 12 is_stmt 0 view .LVU513
 2176 00cc 1A4B     		ldr	r3, .L62+48
 2177 00ce 1B49     		ldr	r1, .L62+52
 2178 00d0 02A8     		add	r0, sp, #8
 2179 00d2 1C68     		ldr	r4, [r3]
 2180 00d4 2246     		mov	r2, r4
 2181 00d6 FFF7FEFF 		bl	sprintf
 2182              	.LVL164:
 145:Interface.cpp ****     hw.PrintLine(settings);
 2183              		.loc 16 145 5 is_stmt 1 view .LVU514
 2184              	.LBB665:
 2185              	.LBI665:
ARM GAS  /var/folders/9s/8rp0_f2s1n31qbztm3b5_fdh0000gn/T//ccXta1BT.s 			page 92


 119:lib/libdaisy/src/daisy_seed.h ****     {
 2186              		.loc 3 119 17 view .LVU515
 2187              	.LBB666:
 121:lib/libdaisy/src/daisy_seed.h ****     }
 2188              		.loc 3 121 23 is_stmt 0 view .LVU516
 2189 00da 02A8     		add	r0, sp, #8
 2190              	.LVL165:
 121:lib/libdaisy/src/daisy_seed.h ****     }
 2191              		.loc 3 121 23 view .LVU517
 2192 00dc FFF7FEFF 		bl	_ZN5daisy6LoggerILNS_17LoggerDestinationE1EE9PrintLineEPKcz
 2193              	.LVL166:
 121:lib/libdaisy/src/daisy_seed.h ****     }
 2194              		.loc 3 121 23 view .LVU518
 2195              	.LBE666:
 2196              	.LBE665:
 146:Interface.cpp ****     sprintf(settings, "Mode: %s", (MAX_ENGINE_INDEX <=3) ? "Poly (0-3)" : "Dynamic Poly"); // Indic
 2197              		.loc 16 146 5 is_stmt 1 view .LVU519
 146:Interface.cpp ****     sprintf(settings, "Mode: %s", (MAX_ENGINE_INDEX <=3) ? "Poly (0-3)" : "Dynamic Poly"); // Indic
 2198              		.loc 16 146 12 is_stmt 0 view .LVU520
 2199 00e0 174B     		ldr	r3, .L62+56
 2200 00e2 184A     		ldr	r2, .L62+60
 2201 00e4 02A8     		add	r0, sp, #8
 2202 00e6 1849     		ldr	r1, .L62+64
 2203 00e8 032C     		cmp	r4, #3
 2204 00ea C8BF     		it	gt
 2205 00ec 1A46     		movgt	r2, r3
 2206 00ee FFF7FEFF 		bl	sprintf
 2207              	.LVL167:
 147:Interface.cpp ****     hw.PrintLine(settings);
 2208              		.loc 16 147 5 is_stmt 1 view .LVU521
 2209              	.LBB667:
 2210              	.LBI667:
 119:lib/libdaisy/src/daisy_seed.h ****     {
 2211              		.loc 3 119 17 view .LVU522
 2212              	.LBB668:
 121:lib/libdaisy/src/daisy_seed.h ****     }
 2213              		.loc 3 121 23 is_stmt 0 view .LVU523
 2214 00f2 02A8     		add	r0, sp, #8
 2215              	.LVL168:
 121:lib/libdaisy/src/daisy_seed.h ****     }
 2216              		.loc 3 121 23 view .LVU524
 2217 00f4 FFF7FEFF 		bl	_ZN5daisy6LoggerILNS_17LoggerDestinationE1EE9PrintLineEPKcz
 2218              	.LVL169:
 121:lib/libdaisy/src/daisy_seed.h ****     }
 2219              		.loc 3 121 23 view .LVU525
 2220              	.LBE668:
 2221              	.LBE667:
 148:Interface.cpp ****     hw.PrintLine("----------------");
 2222              		.loc 16 148 5 is_stmt 1 view .LVU526
 2223              	.LBB669:
 2224              	.LBI669:
 119:lib/libdaisy/src/daisy_seed.h ****     {
 2225              		.loc 3 119 17 view .LVU527
 2226              	.LBB670:
 121:lib/libdaisy/src/daisy_seed.h ****     }
 2227              		.loc 3 121 23 is_stmt 0 view .LVU528
 2228 00f8 1448     		ldr	r0, .L62+68
ARM GAS  /var/folders/9s/8rp0_f2s1n31qbztm3b5_fdh0000gn/T//ccXta1BT.s 			page 93


 2229 00fa FFF7FEFF 		bl	_ZN5daisy6LoggerILNS_17LoggerDestinationE1EE9PrintLineEPKcz
 2230              	.LVL170:
 121:lib/libdaisy/src/daisy_seed.h ****     }
 2231              		.loc 3 121 23 view .LVU529
 2232              	.LBE670:
 2233              	.LBE669:
 149:Interface.cpp **** }
 2234              		.loc 16 149 1 view .LVU530
 2235 00fe 12B0     		add	sp, sp, #72
 2236              		.cfi_def_cfa_offset 16
 2237              		@ sp needed
 2238 0100 BDEC028B 		vldm	sp!, {d8}
 2239              		.cfi_restore 80
 2240              		.cfi_restore 81
 2241              		.cfi_def_cfa_offset 8
 2242 0104 10BD     		pop	{r4, pc}
 2243              	.L63:
 2244 0106 00BF     		.align	2
 2245              	.L62:
 2246 0108 00000000 		.word	.LANCHOR2
 2247 010c 00000000 		.word	cpu_meter
 2248 0110 0000C07F 		.word	2143289344
 2249 0114 00000000 		.word	.LANCHOR18
 2250 0118 0000803D 		.word	1031798784
 2251 011c DB0FC940 		.word	1086918619
 2252 0120 00000000 		.word	_ZNSt17_Function_handlerIFviEZ15InitializeSynthvEUliE_E9_M_invokeERKSt9_Any_dataOi
 2253 0124 00000000 		.word	_ZNSt17_Function_handlerIFviEZ15InitializeSynthvEUliE_E10_M_managerERSt9_Any_dataRKS3_St18_M
 2254 0128 00000000 		.word	_Z13AudioCallbackPKfPfj
 2255 012c 00000000 		.word	.LANCHOR1
 2256 0130 18000000 		.word	.LC5
 2257 0134 48000000 		.word	.LC6
 2258 0138 00000000 		.word	MAX_ENGINE_INDEX
 2259 013c 6C000000 		.word	.LC7
 2260 0140 0B000000 		.word	.LC4
 2261 0144 00000000 		.word	.LC3
 2262 0148 7F000000 		.word	.LC8
 2263 014c 88000000 		.word	.LC9
 2264              		.cfi_endproc
 2265              	.LFE5350:
 2267              		.section	.text.startup._GLOBAL__sub_I_hw,"ax",%progbits
 2268              		.align	1
 2269              		.syntax unified
 2270              		.thumb
 2271              		.thumb_func
 2273              	_GLOBAL__sub_I_hw:
 2274              	.LFB6152:
 2275              		.loc 16 178 1 is_stmt 1 view -0
 2276              		.cfi_startproc
 2277              		@ args = 0, pretend = 0, frame = 0
 2278              		@ frame_needed = 0, uses_anonymous_args = 0
 2279              	.LBB734:
 2280              	.LBI734:
 2281              		.loc 16 178 1 view .LVU532
 2282              	.LVL171:
 2283              	.LBB735:
 2284              	.LBB736:
 2285              	.LBI736:
ARM GAS  /var/folders/9s/8rp0_f2s1n31qbztm3b5_fdh0000gn/T//ccXta1BT.s 			page 94


  21:lib/libdaisy/src/daisy_seed.h ****     ~DaisySeed() {}
 2286              		.loc 3 21 5 view .LVU533
 2287              	.LBB737:
 2288              	.LBB738:
 2289              	.LBI738:
 2290              		.file 25 "lib/libdaisy/src/per/qspi.h"
   1:lib/libdaisy/src/per/qspi.h **** #ifndef DSY_QSPI
   2:lib/libdaisy/src/per/qspi.h **** #define DSY_QSPI /**< Macro */
   3:lib/libdaisy/src/per/qspi.h **** 
   4:lib/libdaisy/src/per/qspi.h **** #ifndef UNIT_TEST // for unit tests, a dummy implementation
   5:lib/libdaisy/src/per/qspi.h **** 
   6:lib/libdaisy/src/per/qspi.h **** #include <cstdint>
   7:lib/libdaisy/src/per/qspi.h **** #include "daisy_core.h" // Added for dsy_gpio_pin typedef
   8:lib/libdaisy/src/per/qspi.h **** 
   9:lib/libdaisy/src/per/qspi.h **** #define DSY_QSPI_TEXT       \
  10:lib/libdaisy/src/per/qspi.h ****     __attribute__((section( \
  11:lib/libdaisy/src/per/qspi.h ****         ".qspiflash_text"))) /**< used for reading memory in memory_mapped mode. */
  12:lib/libdaisy/src/per/qspi.h **** #define DSY_QSPI_DATA       \
  13:lib/libdaisy/src/per/qspi.h ****     __attribute__((section( \
  14:lib/libdaisy/src/per/qspi.h ****         ".qspiflash_data"))) /**< used for reading memory in memory_mapped mode. */
  15:lib/libdaisy/src/per/qspi.h **** #define DSY_QSPI_BSS        \
  16:lib/libdaisy/src/per/qspi.h ****     __attribute__((section( \
  17:lib/libdaisy/src/per/qspi.h ****         ".qspiflash_bss"))) /**< used for reading memory in memory_mapped mode. */
  18:lib/libdaisy/src/per/qspi.h **** 
  19:lib/libdaisy/src/per/qspi.h **** namespace daisy
  20:lib/libdaisy/src/per/qspi.h **** {
  21:lib/libdaisy/src/per/qspi.h **** /** @addtogroup serial
  22:lib/libdaisy/src/per/qspi.h **** @{
  23:lib/libdaisy/src/per/qspi.h **** */
  24:lib/libdaisy/src/per/qspi.h **** 
  25:lib/libdaisy/src/per/qspi.h **** /** 
  26:lib/libdaisy/src/per/qspi.h ****  Driver for QSPI peripheral to interface with external flash memory. \n 
  27:lib/libdaisy/src/per/qspi.h ****     Currently supported QSPI Devices: \n 
  28:lib/libdaisy/src/per/qspi.h ****     * IS25LP080D
  29:lib/libdaisy/src/per/qspi.h **** */
  30:lib/libdaisy/src/per/qspi.h **** class QSPIHandle
  31:lib/libdaisy/src/per/qspi.h **** {
  32:lib/libdaisy/src/per/qspi.h ****   public:
  33:lib/libdaisy/src/per/qspi.h ****     enum Result
  34:lib/libdaisy/src/per/qspi.h ****     {
  35:lib/libdaisy/src/per/qspi.h ****         OK = 0,
  36:lib/libdaisy/src/per/qspi.h ****         ERR
  37:lib/libdaisy/src/per/qspi.h ****     };
  38:lib/libdaisy/src/per/qspi.h **** 
  39:lib/libdaisy/src/per/qspi.h ****     /** Indicates the current status of the module. 
  40:lib/libdaisy/src/per/qspi.h ****          *  Warnings are indicated by a leading W.
  41:lib/libdaisy/src/per/qspi.h ****          *  Errors are indicated by a leading E and cause an immediate exit.
  42:lib/libdaisy/src/per/qspi.h ****          * 
  43:lib/libdaisy/src/per/qspi.h ****          *  \param GOOD - No errors have been reported.
  44:lib/libdaisy/src/per/qspi.h ****          *  \param E_HAL_ERROR - HAL code did not return HAL_OK.
  45:lib/libdaisy/src/per/qspi.h ****          *  \param E_SWITCHING_MODES - An error was encountered while switching QSPI peripheral mod
  46:lib/libdaisy/src/per/qspi.h ****          *  \param E_INVALID_MODE - QSPI should not be written to while the program is executing fr
  47:lib/libdaisy/src/per/qspi.h ****          */
  48:lib/libdaisy/src/per/qspi.h ****     enum Status
  49:lib/libdaisy/src/per/qspi.h ****     {
  50:lib/libdaisy/src/per/qspi.h ****         GOOD = 0,
  51:lib/libdaisy/src/per/qspi.h ****         E_HAL_ERROR,
ARM GAS  /var/folders/9s/8rp0_f2s1n31qbztm3b5_fdh0000gn/T//ccXta1BT.s 			page 95


  52:lib/libdaisy/src/per/qspi.h ****         E_SWITCHING_MODES,
  53:lib/libdaisy/src/per/qspi.h ****         E_INVALID_MODE,
  54:lib/libdaisy/src/per/qspi.h ****     };
  55:lib/libdaisy/src/per/qspi.h **** 
  56:lib/libdaisy/src/per/qspi.h ****     /** Configuration structure for interfacing with QSPI Driver */
  57:lib/libdaisy/src/per/qspi.h ****     struct Config
  58:lib/libdaisy/src/per/qspi.h ****     {
  59:lib/libdaisy/src/per/qspi.h ****         /** Flash Devices supported. (Both of these are more-or-less the same, just different sizes
  60:lib/libdaisy/src/per/qspi.h ****         enum Device
  61:lib/libdaisy/src/per/qspi.h ****         {
  62:lib/libdaisy/src/per/qspi.h ****             IS25LP080D,  /**< & */
  63:lib/libdaisy/src/per/qspi.h ****             IS25LP064A,  /**< & */
  64:lib/libdaisy/src/per/qspi.h ****             DEVICE_LAST, /**< & */
  65:lib/libdaisy/src/per/qspi.h ****         };
  66:lib/libdaisy/src/per/qspi.h **** 
  67:lib/libdaisy/src/per/qspi.h ****         /** 
  68:lib/libdaisy/src/per/qspi.h ****         Modes of operation.
  69:lib/libdaisy/src/per/qspi.h ****         Memory Mapped mode: QSPI configured so that the QSPI can be
  70:lib/libdaisy/src/per/qspi.h ****         read from starting address 0x90000000. Writing is not
  71:lib/libdaisy/src/per/qspi.h ****         possible in this mode. \n 
  72:lib/libdaisy/src/per/qspi.h ****         Indirect Polling mode: Device driver enabled. 
  73:lib/libdaisy/src/per/qspi.h ****         */
  74:lib/libdaisy/src/per/qspi.h ****         enum Mode
  75:lib/libdaisy/src/per/qspi.h ****         {
  76:lib/libdaisy/src/per/qspi.h ****             MEMORY_MAPPED,    /**< & */
  77:lib/libdaisy/src/per/qspi.h ****             INDIRECT_POLLING, /**< & */
  78:lib/libdaisy/src/per/qspi.h ****             MODE_LAST,
  79:lib/libdaisy/src/per/qspi.h ****         };
  80:lib/libdaisy/src/per/qspi.h **** 
  81:lib/libdaisy/src/per/qspi.h ****         //SCK,  CE# (active low)
  82:lib/libdaisy/src/per/qspi.h ****         struct
  83:lib/libdaisy/src/per/qspi.h ****         {
  84:lib/libdaisy/src/per/qspi.h ****             dsy_gpio_pin io0; /**< & */
  85:lib/libdaisy/src/per/qspi.h ****             dsy_gpio_pin io1; /**< & */
  86:lib/libdaisy/src/per/qspi.h ****             dsy_gpio_pin io2; /**< & */
  87:lib/libdaisy/src/per/qspi.h ****             dsy_gpio_pin io3; /**< & */
  88:lib/libdaisy/src/per/qspi.h ****             dsy_gpio_pin clk; /**< & */
  89:lib/libdaisy/src/per/qspi.h ****             dsy_gpio_pin ncs; /**< & */
  90:lib/libdaisy/src/per/qspi.h ****         } pin_config;
  91:lib/libdaisy/src/per/qspi.h **** 
  92:lib/libdaisy/src/per/qspi.h ****         Device device;
  93:lib/libdaisy/src/per/qspi.h ****         Mode   mode;
  94:lib/libdaisy/src/per/qspi.h ****     };
  95:lib/libdaisy/src/per/qspi.h **** 
  96:lib/libdaisy/src/per/qspi.h ****     /** 
  97:lib/libdaisy/src/per/qspi.h ****         Initializes QSPI peripheral, and Resets, and prepares memory for access.
  98:lib/libdaisy/src/per/qspi.h ****         \param config should be populated with the mode, device and pin_config before calling this 
  99:lib/libdaisy/src/per/qspi.h ****         \return Result::OK or Result::ERR
 100:lib/libdaisy/src/per/qspi.h ****         */
 101:lib/libdaisy/src/per/qspi.h ****     Result Init(const Config& config);
 102:lib/libdaisy/src/per/qspi.h **** 
 103:lib/libdaisy/src/per/qspi.h ****     /** Returns the current config. */
 104:lib/libdaisy/src/per/qspi.h ****     const Config& GetConfig() const;
 105:lib/libdaisy/src/per/qspi.h **** 
 106:lib/libdaisy/src/per/qspi.h ****     // Couldn't this just be called before anything else in init? That
 107:lib/libdaisy/src/per/qspi.h ****     // would make manually calling it unnecessary.
 108:lib/libdaisy/src/per/qspi.h ****     /** 
ARM GAS  /var/folders/9s/8rp0_f2s1n31qbztm3b5_fdh0000gn/T//ccXta1BT.s 			page 96


 109:lib/libdaisy/src/per/qspi.h ****         Deinitializes the peripheral
 110:lib/libdaisy/src/per/qspi.h ****         This should be called before reinitializing QSPI in a different mode.
 111:lib/libdaisy/src/per/qspi.h ****         \return Result::OK or Result::ERR
 112:lib/libdaisy/src/per/qspi.h ****         */
 113:lib/libdaisy/src/per/qspi.h ****     Result DeInit();
 114:lib/libdaisy/src/per/qspi.h **** 
 115:lib/libdaisy/src/per/qspi.h ****     /** 
 116:lib/libdaisy/src/per/qspi.h ****         Writes a single page to to the specified address on the QSPI chip.
 117:lib/libdaisy/src/per/qspi.h ****         For IS25LP*, page size is 256 bytes.
 118:lib/libdaisy/src/per/qspi.h ****         \param address Address to write to
 119:lib/libdaisy/src/per/qspi.h ****         \param size Buffer size
 120:lib/libdaisy/src/per/qspi.h ****         \param buffer Buffer to write
 121:lib/libdaisy/src/per/qspi.h ****         \return Result::OK or Result::ERR
 122:lib/libdaisy/src/per/qspi.h ****         */
 123:lib/libdaisy/src/per/qspi.h ****     Result WritePage(uint32_t address, uint32_t size, uint8_t* buffer);
 124:lib/libdaisy/src/per/qspi.h **** 
 125:lib/libdaisy/src/per/qspi.h ****     /** 
 126:lib/libdaisy/src/per/qspi.h ****         Writes data in buffer to to the QSPI. Starting at address to address+size 
 127:lib/libdaisy/src/per/qspi.h ****         \param address Address to write to
 128:lib/libdaisy/src/per/qspi.h ****         \param size Buffer size
 129:lib/libdaisy/src/per/qspi.h ****         \param buffer Buffer to write
 130:lib/libdaisy/src/per/qspi.h ****         \return Result::OK or Result::ERR
 131:lib/libdaisy/src/per/qspi.h ****         */
 132:lib/libdaisy/src/per/qspi.h ****     Result Write(uint32_t address, uint32_t size, uint8_t* buffer);
 133:lib/libdaisy/src/per/qspi.h **** 
 134:lib/libdaisy/src/per/qspi.h ****     /** 
 135:lib/libdaisy/src/per/qspi.h ****         Erases the area specified on the chip.
 136:lib/libdaisy/src/per/qspi.h ****         Erasures will happen by 4K, 32K or 64K increments.
 137:lib/libdaisy/src/per/qspi.h ****         Smallest erase possible is 4kB at a time. (on IS25LP*)
 138:lib/libdaisy/src/per/qspi.h ****         \param start_addr Address to begin erasing from
 139:lib/libdaisy/src/per/qspi.h ****         \param end_addr  Address to stop erasing at
 140:lib/libdaisy/src/per/qspi.h ****         \return Result::OK or Result::ERR
 141:lib/libdaisy/src/per/qspi.h ****         */
 142:lib/libdaisy/src/per/qspi.h ****     Result Erase(uint32_t start_addr, uint32_t end_addr);
 143:lib/libdaisy/src/per/qspi.h **** 
 144:lib/libdaisy/src/per/qspi.h ****     /**  
 145:lib/libdaisy/src/per/qspi.h ****          Erases a single sector of the chip.  
 146:lib/libdaisy/src/per/qspi.h ****         TODO: Document the size of this function. 
 147:lib/libdaisy/src/per/qspi.h ****         \param addr Address of sector to erase
 148:lib/libdaisy/src/per/qspi.h ****         \return Result::OK or Result::ERR
 149:lib/libdaisy/src/per/qspi.h ****         */
 150:lib/libdaisy/src/per/qspi.h ****     Result EraseSector(uint32_t address);
 151:lib/libdaisy/src/per/qspi.h **** 
 152:lib/libdaisy/src/per/qspi.h ****     /** Returns the current class status. Useful for debugging.
 153:lib/libdaisy/src/per/qspi.h ****      *  \returns Status
 154:lib/libdaisy/src/per/qspi.h ****      */
 155:lib/libdaisy/src/per/qspi.h ****     Status GetStatus();
 156:lib/libdaisy/src/per/qspi.h **** 
 157:lib/libdaisy/src/per/qspi.h ****     /** Returns a pointer to the actual memory used 
 158:lib/libdaisy/src/per/qspi.h ****      *  The memory at this address is read-only
 159:lib/libdaisy/src/per/qspi.h ****      *  to write to it use the Write function.
 160:lib/libdaisy/src/per/qspi.h ****      * 
 161:lib/libdaisy/src/per/qspi.h ****      *  \param offset returns the pointer starting this 
 162:lib/libdaisy/src/per/qspi.h ****      *                many bytes into the memory
 163:lib/libdaisy/src/per/qspi.h ****     */
 164:lib/libdaisy/src/per/qspi.h ****     void* GetData(uint32_t offset = 0);
 165:lib/libdaisy/src/per/qspi.h **** 
ARM GAS  /var/folders/9s/8rp0_f2s1n31qbztm3b5_fdh0000gn/T//ccXta1BT.s 			page 97


 166:lib/libdaisy/src/per/qspi.h ****     QSPIHandle() : pimpl_(nullptr) {}
 2291              		.loc 25 166 5 view .LVU534
 2292              	.LBE738:
 2293              	.LBE737:
 2294              	.LBE736:
 2295              	.LBE735:
 2296              	.LBE734:
 2297              		.loc 16 178 1 is_stmt 0 view .LVU535
 2298 0000 F8B5     		push	{r3, r4, r5, r6, r7, lr}
 2299              		.cfi_def_cfa_offset 24
 2300              		.cfi_offset 3, -24
 2301              		.cfi_offset 4, -20
 2302              		.cfi_offset 5, -16
 2303              		.cfi_offset 6, -12
 2304              		.cfi_offset 7, -8
 2305              		.cfi_offset 14, -4
 2306              	.LBB834:
 2307              	.LBB830:
 2308              	.LBB758:
 2309              	.LBB755:
 2310              	.LBB743:
 2311              	.LBB739:
 2312              	.LBB740:
 2313              		.loc 25 166 34 view .LVU536
 2314 0002 3C48     		ldr	r0, .L65
 2315 0004 0026     		movs	r6, #0
 2316              	.LBE740:
 2317              	.LBE739:
 2318              	.LBE743:
 2319              	.LBE755:
 2320              	.LBE758:
   5:Interface.cpp **** DaisySeed hw;
 2321              		.loc 16 5 11 view .LVU537
 2322 0006 3C4C     		ldr	r4, .L65+4
 2323              	.LBB759:
 2324              	.LBB760:
 2325              	.LBB761:
 2326              	.LBB762:
 2327              	.LBB763:
 2328              	.LBB764:
 2329              	.LBB765:
 2330              	.LBB766:
  34:Effects/BiquadFilters.h ****         ~BiquadSection() {}
 2331              		.loc 10 34 25 view .LVU538
 2332 0008 3C4F     		ldr	r7, .L65+8
 2333              	.LBE766:
 2334              	.LBE765:
 2335              	.LBE764:
 2336              	.LBE763:
 2337              	.LBE762:
 2338              	.LBE761:
 2339              	.LBE760:
 2340              	.LBE759:
   5:Interface.cpp **** DaisySeed hw;
 2341              		.loc 16 5 11 view .LVU539
 2342 000a 2246     		mov	r2, r4
 2343 000c 3C49     		ldr	r1, .L65+12
ARM GAS  /var/folders/9s/8rp0_f2s1n31qbztm3b5_fdh0000gn/T//ccXta1BT.s 			page 98


 2344              	.LBB800:
 2345              	.LBB756:
 2346              	.LBB744:
 2347              	.LBB742:
 2348              	.LBB741:
 2349              		.loc 25 166 34 view .LVU540
 2350 000e 0660     		str	r6, [r0]
 2351              	.LVL172:
 2352              		.loc 25 166 34 view .LVU541
 2353              	.LBE741:
 2354              	.LBE742:
 2355              	.LBE744:
 2356              	.LBB745:
 2357              	.LBI745:
  62:lib/libdaisy/src/hid/audio.h ****     ~AudioHandle() {}
 2358              		.loc 7 62 5 is_stmt 1 view .LVU542
 2359              	.LBE745:
 2360              	.LBE756:
 2361              	.LBE800:
 2362              	.LBB801:
 2363              	.LBB795:
 2364              	.LBB789:
 2365              	.LBB784:
 2366              	.LBB779:
 2367              	.LBB775:
 2368              	.LBB771:
 2369              	.LBB767:
  34:Effects/BiquadFilters.h ****         ~BiquadSection() {}
 2370              		.loc 10 34 25 is_stmt 0 view .LVU543
 2371 0010 07F53835 		add	r5, r7, #188416
 2372              	.LBE767:
 2373              	.LBE771:
 2374              	.LBE775:
 2375              	.LBE779:
 2376              	.LBE784:
 2377              	.LBE789:
 2378              	.LBE795:
 2379              	.LBE801:
 2380              	.LBB802:
 2381              	.LBB757:
 2382              	.LBB748:
 2383              	.LBB746:
 2384              	.LBB747:
  62:lib/libdaisy/src/hid/audio.h ****     ~AudioHandle() {}
 2385              		.loc 7 62 35 view .LVU544
 2386 0014 4661     		str	r6, [r0, #20]
 2387              	.LVL173:
  62:lib/libdaisy/src/hid/audio.h ****     ~AudioHandle() {}
 2388              		.loc 7 62 35 view .LVU545
 2389              	.LBE747:
 2390              	.LBE746:
 2391              	.LBE748:
 2392              	.LBB749:
 2393              	.LBI749:
  84:lib/libdaisy/src/per/adc.h ****     ~AdcHandle() {}
 2394              		.loc 6 84 5 is_stmt 1 view .LVU546
  84:lib/libdaisy/src/per/adc.h ****     ~AdcHandle() {}
ARM GAS  /var/folders/9s/8rp0_f2s1n31qbztm3b5_fdh0000gn/T//ccXta1BT.s 			page 99


 2395              		.loc 6 84 5 is_stmt 0 view .LVU547
 2396              	.LBE749:
 2397              	.LBB750:
 2398              	.LBI750:
 2399              		.file 26 "lib/libdaisy/src/per/dac.h"
   1:lib/libdaisy/src/per/dac.h **** #pragma once
   2:lib/libdaisy/src/per/dac.h **** #ifndef DSY_DAC_H
   3:lib/libdaisy/src/per/dac.h **** #define DSY_DAC_H
   4:lib/libdaisy/src/per/dac.h **** 
   5:lib/libdaisy/src/per/dac.h **** #include "daisy_core.h"
   6:lib/libdaisy/src/per/dac.h **** 
   7:lib/libdaisy/src/per/dac.h **** namespace daisy
   8:lib/libdaisy/src/per/dac.h **** {
   9:lib/libdaisy/src/per/dac.h **** /** DAC handle for Built-in DAC Peripheral 
  10:lib/libdaisy/src/per/dac.h ****  ** 
  11:lib/libdaisy/src/per/dac.h ****  ** For now only Normal Mode is supported,
  12:lib/libdaisy/src/per/dac.h ****  ** Sample and hold mode provides reduced power consumption, but requires a bit more setup.
  13:lib/libdaisy/src/per/dac.h ****  **
  14:lib/libdaisy/src/per/dac.h ****  ** For now connecting the DAC through other internal periphearls is also not supported.
  15:lib/libdaisy/src/per/dac.h ****  **
  16:lib/libdaisy/src/per/dac.h ****  ** Since the DAC channels have dedicated pins we don't need to pass in a pin config like with
  17:lib/libdaisy/src/per/dac.h ****  ** other modules. However, it is still important to not try to use the DAC pins for anything else.
  18:lib/libdaisy/src/per/dac.h ****  ** DAC Channel 1 is on PA4, and DAC Channel 2 is on PA5
  19:lib/libdaisy/src/per/dac.h ****  ***/
  20:lib/libdaisy/src/per/dac.h **** class DacHandle
  21:lib/libdaisy/src/per/dac.h **** {
  22:lib/libdaisy/src/per/dac.h ****   public:
  23:lib/libdaisy/src/per/dac.h ****     /** Return Values for the DacHandle class */
  24:lib/libdaisy/src/per/dac.h ****     enum class Result
  25:lib/libdaisy/src/per/dac.h ****     {
  26:lib/libdaisy/src/per/dac.h ****         OK,
  27:lib/libdaisy/src/per/dac.h ****         ERR,
  28:lib/libdaisy/src/per/dac.h ****     };
  29:lib/libdaisy/src/per/dac.h **** 
  30:lib/libdaisy/src/per/dac.h ****     /** Selects which channel(s) will be configured for use. */
  31:lib/libdaisy/src/per/dac.h ****     enum class Channel
  32:lib/libdaisy/src/per/dac.h ****     {
  33:lib/libdaisy/src/per/dac.h ****         ONE,
  34:lib/libdaisy/src/per/dac.h ****         TWO,
  35:lib/libdaisy/src/per/dac.h ****         BOTH,
  36:lib/libdaisy/src/per/dac.h ****     };
  37:lib/libdaisy/src/per/dac.h **** 
  38:lib/libdaisy/src/per/dac.h ****     /** Sets the Mode for the DAC channels.
  39:lib/libdaisy/src/per/dac.h ****      **
  40:lib/libdaisy/src/per/dac.h ****      ** Polling mode uses the blocking mode to transmit a single value at a time.
  41:lib/libdaisy/src/per/dac.h ****      **
  42:lib/libdaisy/src/per/dac.h ****      ** DMA mode uses a buffer, and periodically transmits it triggering a 
  43:lib/libdaisy/src/per/dac.h ****      ** callback to fill the buffer when it is ready for more samples.
  44:lib/libdaisy/src/per/dac.h ****      ***/
  45:lib/libdaisy/src/per/dac.h ****     enum class Mode
  46:lib/libdaisy/src/per/dac.h ****     {
  47:lib/libdaisy/src/per/dac.h ****         POLLING,
  48:lib/libdaisy/src/per/dac.h ****         DMA,
  49:lib/libdaisy/src/per/dac.h ****     };
  50:lib/libdaisy/src/per/dac.h **** 
  51:lib/libdaisy/src/per/dac.h ****     /** Sets the number of bits per sample transmitted out of the DAC.
  52:lib/libdaisy/src/per/dac.h ****      ** The output range will be: 0V - VDDA
ARM GAS  /var/folders/9s/8rp0_f2s1n31qbztm3b5_fdh0000gn/T//ccXta1BT.s 			page 100


  53:lib/libdaisy/src/per/dac.h ****      ** The resolution will be roughly: bitdepth / (VDDA - 0V) 
  54:lib/libdaisy/src/per/dac.h ****      ***/
  55:lib/libdaisy/src/per/dac.h ****     enum class BitDepth
  56:lib/libdaisy/src/per/dac.h ****     {
  57:lib/libdaisy/src/per/dac.h ****         BITS_8,
  58:lib/libdaisy/src/per/dac.h ****         BITS_12
  59:lib/libdaisy/src/per/dac.h ****     };
  60:lib/libdaisy/src/per/dac.h **** 
  61:lib/libdaisy/src/per/dac.h ****     /** Sets whether the DAC output is buffered for higher drive ability. */
  62:lib/libdaisy/src/per/dac.h ****     enum class BufferState
  63:lib/libdaisy/src/per/dac.h ****     {
  64:lib/libdaisy/src/per/dac.h ****         ENABLED,
  65:lib/libdaisy/src/per/dac.h ****         DISABLED,
  66:lib/libdaisy/src/per/dac.h ****     };
  67:lib/libdaisy/src/per/dac.h **** 
  68:lib/libdaisy/src/per/dac.h ****     /** Configuration structure for initializing the DAC structure. */
  69:lib/libdaisy/src/per/dac.h ****     struct Config
  70:lib/libdaisy/src/per/dac.h ****     {
  71:lib/libdaisy/src/per/dac.h ****         /** Target Samplerate in Hz used to configure the internal 
  72:lib/libdaisy/src/per/dac.h ****          ** timebase for DMA mode. Does nothing in POLLING mode.
  73:lib/libdaisy/src/per/dac.h ****          ** If the value is 0 at Init time this will default to 48000Hz 
  74:lib/libdaisy/src/per/dac.h ****          ** otherwise the driver will attempt meet the target.*/
  75:lib/libdaisy/src/per/dac.h ****         uint32_t target_samplerate;
  76:lib/libdaisy/src/per/dac.h **** 
  77:lib/libdaisy/src/per/dac.h ****         Channel     chn;
  78:lib/libdaisy/src/per/dac.h ****         Mode        mode;
  79:lib/libdaisy/src/per/dac.h ****         BitDepth    bitdepth;
  80:lib/libdaisy/src/per/dac.h ****         BufferState buff_state;
  81:lib/libdaisy/src/per/dac.h ****     };
  82:lib/libdaisy/src/per/dac.h **** 
  83:lib/libdaisy/src/per/dac.h ****     DacHandle() : pimpl_(nullptr) {}
 2400              		.loc 26 83 5 is_stmt 1 view .LVU548
 2401              	.LBB751:
 2402              	.LBB752:
 2403              		.loc 26 83 33 is_stmt 0 view .LVU549
 2404 0016 0662     		str	r6, [r0, #32]
 2405              	.LVL174:
 2406              		.loc 26 83 33 view .LVU550
 2407              	.LBE752:
 2408              	.LBE751:
 2409              	.LBE750:
 2410              	.LBB753:
 2411              	.LBI753:
  40:lib/libdaisy/src/hid/usb.h **** 
 2412              		.loc 5 40 5 is_stmt 1 view .LVU551
  40:lib/libdaisy/src/hid/usb.h **** 
 2413              		.loc 5 40 5 is_stmt 0 view .LVU552
 2414              	.LBE753:
 2415              	.LBB754:
 2416              	.LBI754:
  77:lib/libdaisy/src/sys/system.h ****     ~System() {}
 2417              		.loc 4 77 5 is_stmt 1 view .LVU553
  77:lib/libdaisy/src/sys/system.h ****     ~System() {}
 2418              		.loc 4 77 5 is_stmt 0 view .LVU554
 2419              	.LBE754:
 2420              	.LBE757:
 2421              	.LBE802:
ARM GAS  /var/folders/9s/8rp0_f2s1n31qbztm3b5_fdh0000gn/T//ccXta1BT.s 			page 101


   5:Interface.cpp **** DaisySeed hw;
 2422              		.loc 16 5 11 view .LVU555
 2423 0018 FFF7FEFF 		bl	__aeabi_atexit
 2424              	.LVL175:
 2425              	.LBB803:
 2426              	.LBI803:
  56:mpr121_daisy.h ****     ~Mpr121() {}
 2427              		.loc 8 56 5 is_stmt 1 view .LVU556
 2428              	.LBB804:
 2429              	.LBB805:
 2430              	.LBI805:
  29:lib/libdaisy/src/per/i2c.h ****     {
  30:lib/libdaisy/src/per/i2c.h ****         /** Specifies whether the interface will operate in master or slave mode. */
  31:lib/libdaisy/src/per/i2c.h ****         enum class Mode
  32:lib/libdaisy/src/per/i2c.h ****         {
  33:lib/libdaisy/src/per/i2c.h ****             I2C_MASTER,
  34:lib/libdaisy/src/per/i2c.h ****             I2C_SLAVE,
  35:lib/libdaisy/src/per/i2c.h ****         };
  36:lib/libdaisy/src/per/i2c.h **** 
  37:lib/libdaisy/src/per/i2c.h ****         /** Specifices the internal peripheral to use (these are mapped to different pins on the ha
  38:lib/libdaisy/src/per/i2c.h ****         enum class Peripheral
  39:lib/libdaisy/src/per/i2c.h ****         {
  40:lib/libdaisy/src/per/i2c.h ****             I2C_1 = 0, /**< & */
  41:lib/libdaisy/src/per/i2c.h ****             I2C_2,     /**< & */
  42:lib/libdaisy/src/per/i2c.h ****             I2C_3,     /**< & */
  43:lib/libdaisy/src/per/i2c.h ****             I2C_4,     /**< & */
  44:lib/libdaisy/src/per/i2c.h ****         };
  45:lib/libdaisy/src/per/i2c.h **** 
  46:lib/libdaisy/src/per/i2c.h ****         /** Rate at which the clock/data will be sent/received. The device being used will have max
  47:lib/libdaisy/src/per/i2c.h ****          *  1MHZ Mode is currently 886kHz
  48:lib/libdaisy/src/per/i2c.h ****          */
  49:lib/libdaisy/src/per/i2c.h ****         enum class Speed
  50:lib/libdaisy/src/per/i2c.h ****         {
  51:lib/libdaisy/src/per/i2c.h ****             I2C_100KHZ, /**< & */
  52:lib/libdaisy/src/per/i2c.h ****             I2C_400KHZ, /**< & */
  53:lib/libdaisy/src/per/i2c.h ****             I2C_1MHZ,   /**< & */
  54:lib/libdaisy/src/per/i2c.h ****         };
  55:lib/libdaisy/src/per/i2c.h **** 
  56:lib/libdaisy/src/per/i2c.h ****         Peripheral periph; /**< & */
  57:lib/libdaisy/src/per/i2c.h ****         struct
  58:lib/libdaisy/src/per/i2c.h ****         {
  59:lib/libdaisy/src/per/i2c.h ****             dsy_gpio_pin scl; /**< & */
  60:lib/libdaisy/src/per/i2c.h ****             dsy_gpio_pin sda; /**< & */
  61:lib/libdaisy/src/per/i2c.h ****         } pin_config;         /**< & */
  62:lib/libdaisy/src/per/i2c.h **** 
  63:lib/libdaisy/src/per/i2c.h ****         Speed speed; /**< & */
  64:lib/libdaisy/src/per/i2c.h ****         Mode  mode;  /**< & */
  65:lib/libdaisy/src/per/i2c.h ****         // 0x10 is chosen as a default to avoid conflicts with reserved addresses
  66:lib/libdaisy/src/per/i2c.h ****         uint8_t address = 0x10; /**< & */
  67:lib/libdaisy/src/per/i2c.h ****     };
  68:lib/libdaisy/src/per/i2c.h **** 
  69:lib/libdaisy/src/per/i2c.h ****     /** Return values for I2C functions. */
  70:lib/libdaisy/src/per/i2c.h ****     enum class Result
  71:lib/libdaisy/src/per/i2c.h ****     {
  72:lib/libdaisy/src/per/i2c.h ****         OK, /**< & */
  73:lib/libdaisy/src/per/i2c.h ****         ERR /**< & */
  74:lib/libdaisy/src/per/i2c.h ****     };
ARM GAS  /var/folders/9s/8rp0_f2s1n31qbztm3b5_fdh0000gn/T//ccXta1BT.s 			page 102


  75:lib/libdaisy/src/per/i2c.h **** 
  76:lib/libdaisy/src/per/i2c.h ****     enum class Direction
  77:lib/libdaisy/src/per/i2c.h ****     {
  78:lib/libdaisy/src/per/i2c.h ****         TRANSMIT, /**< & */
  79:lib/libdaisy/src/per/i2c.h ****         RECEIVE,  /**< & */
  80:lib/libdaisy/src/per/i2c.h ****     };
  81:lib/libdaisy/src/per/i2c.h **** 
  82:lib/libdaisy/src/per/i2c.h ****     I2CHandle() : pimpl_(nullptr) {}
 2431              		.loc 19 82 5 view .LVU557
 2432              	.LBB806:
 2433              	.LBB807:
 2434              		.loc 19 82 33 is_stmt 0 view .LVU558
 2435 001c 3948     		ldr	r0, .L65+16
 2436              	.LBE807:
 2437              	.LBE806:
 2438              	.LBE805:
 2439              	.LBE804:
 2440              	.LBE803:
   6:Interface.cpp **** Mpr121 touch_sensor;
 2441              		.loc 16 6 8 view .LVU559
 2442 001e 2246     		mov	r2, r4
 2443 0020 3949     		ldr	r1, .L65+20
 2444              	.LBB812:
 2445              	.LBB811:
 2446              	.LBB810:
 2447              	.LBB809:
 2448              	.LBB808:
 2449              		.loc 19 82 33 view .LVU560
 2450 0022 0660     		str	r6, [r0]
 2451              	.LBE808:
 2452              	.LBE809:
 2453              	.LBE810:
  56:mpr121_daisy.h ****     ~Mpr121() {}
 2454              		.loc 8 56 14 view .LVU561
 2455 0024 8680     		strh	r6, [r0, #4]	@ movhi
 2456              	.LVL176:
  56:mpr121_daisy.h ****     ~Mpr121() {}
 2457              		.loc 8 56 14 view .LVU562
 2458              	.LBE811:
 2459              	.LBE812:
   6:Interface.cpp **** Mpr121 touch_sensor;
 2460              		.loc 16 6 8 view .LVU563
 2461 0026 FFF7FEFF 		bl	__aeabi_atexit
 2462              	.LVL177:
 2463              	.LBB813:
 2464              	.LBI759:
  24:Effects/EchoDelay.h ****         ~EchoDelay() {}
 2465              		.loc 9 24 9 is_stmt 1 view .LVU564
 2466              	.LBB796:
 2467              	.LBB790:
 2468              	.LBI790:
  31:lib/DaisySP/Source/Utility/delayline.h ****     ~DelayLine() {}
 2469              		.loc 12 31 5 view .LVU565
  31:lib/DaisySP/Source/Utility/delayline.h ****     ~DelayLine() {}
 2470              		.loc 12 31 5 is_stmt 0 view .LVU566
 2471              	.LBE790:
 2472              	.LBB791:
ARM GAS  /var/folders/9s/8rp0_f2s1n31qbztm3b5_fdh0000gn/T//ccXta1BT.s 			page 103


 2473              	.LBI761:
  76:Effects/BiquadFilters.h ****         ~BiquadCascade() {}
 2474              		.loc 10 76 9 is_stmt 1 view .LVU567
 2475              	.LBB785:
 2476              	.LBB780:
 2477              	.LBI763:
  94:/Library/DaisyToolchain/0.2.0/arm/arm-none-eabi/include/c++/10.3.1/array ****     {
 2478              		.loc 11 94 12 view .LVU568
 2479              	.LBE780:
 2480              	.LBE785:
 2481              	.LBE791:
 2482              	.LBE796:
 2483              	.LBE813:
 2484              	.LBE830:
 2485              	.LBE834:
  94:/Library/DaisyToolchain/0.2.0/arm/arm-none-eabi/include/c++/10.3.1/array ****     {
 2486              		.loc 11 94 12 view .LVU569
 2487              	.LBB835:
 2488              	.LBB831:
 2489              	.LBB814:
 2490              	.LBB797:
 2491              	.LBB792:
 2492              	.LBB786:
 2493              	.LBB781:
 2494              	.LBB776:
 2495              	.LBI764:
  34:Effects/BiquadFilters.h ****         ~BiquadSection() {}
 2496              		.loc 10 34 9 view .LVU570
 2497              	.LBB772:
 2498              	.LBB768:
  34:Effects/BiquadFilters.h ****         ~BiquadSection() {}
 2499              		.loc 10 34 25 is_stmt 0 view .LVU571
 2500 002a 3146     		mov	r1, r6
 2501 002c 1422     		movs	r2, #20
 2502 002e 05F62C60 		addw	r0, r5, #3628
 2503 0032 FFF7FEFF 		bl	memset
 2504              	.LVL178:
 2505 0036 0023     		movs	r3, #0
 2506 0038 05F56462 		add	r2, r5, #3648
 2507              	.LBE768:
 2508              	.LBE772:
 2509              	.LBE776:
 2510              	.LBE781:
 2511              	.LBE786:
 2512              	.LBE792:
 2513              	.LBE797:
 2514              	.LBE814:
   7:Interface.cpp **** EchoDelay<48000> delay;
 2515              		.loc 16 7 18 view .LVU572
 2516 003c 3349     		ldr	r1, .L65+24
 2517 003e 3846     		mov	r0, r7
 2518              	.LBB815:
 2519              	.LBB798:
 2520              	.LBB793:
 2521              	.LBB787:
 2522              	.LBB782:
 2523              	.LBB777:
ARM GAS  /var/folders/9s/8rp0_f2s1n31qbztm3b5_fdh0000gn/T//ccXta1BT.s 			page 104


 2524              	.LBB773:
 2525              	.LBB769:
  34:Effects/BiquadFilters.h ****         ~BiquadSection() {}
 2526              		.loc 10 34 25 view .LVU573
 2527 0040 1360     		str	r3, [r2]	@ float
 2528 0042 05F64462 		addw	r2, r5, #3652
 2529 0046 1360     		str	r3, [r2]	@ float
 2530 0048 05F64862 		addw	r2, r5, #3656
 2531 004c 05F64C65 		addw	r5, r5, #3660
 2532 0050 1360     		str	r3, [r2]	@ float
 2533              	.LBE769:
 2534              	.LBE773:
 2535              	.LBE777:
 2536              	.LBE782:
 2537              	.LBE787:
 2538              	.LBE793:
 2539              	.LBE798:
 2540              	.LBE815:
   7:Interface.cpp **** EchoDelay<48000> delay;
 2541              		.loc 16 7 18 view .LVU574
 2542 0052 2246     		mov	r2, r4
 2543              	.LBB816:
 2544              	.LBB799:
 2545              	.LBB794:
 2546              	.LBB788:
 2547              	.LBB783:
 2548              	.LBB778:
 2549              	.LBB774:
 2550              	.LBB770:
  34:Effects/BiquadFilters.h ****         ~BiquadSection() {}
 2551              		.loc 10 34 25 view .LVU575
 2552 0054 2B60     		str	r3, [r5]	@ float
 2553              	.LVL179:
  34:Effects/BiquadFilters.h ****         ~BiquadSection() {}
 2554              		.loc 10 34 25 view .LVU576
 2555              	.LBE770:
 2556              	.LBE774:
 2557              	.LBE778:
 2558              	.LBE783:
 2559              	.LBE788:
 2560              	.LBE794:
 2561              	.LBE799:
 2562              	.LBE816:
 2563              	.LBE831:
 2564              	.LBE835:
  94:/Library/DaisyToolchain/0.2.0/arm/arm-none-eabi/include/c++/10.3.1/array ****     {
 2565              		.loc 11 94 12 is_stmt 1 view .LVU577
  94:/Library/DaisyToolchain/0.2.0/arm/arm-none-eabi/include/c++/10.3.1/array ****     {
 2566              		.loc 11 94 12 view .LVU578
 2567              	.LBB836:
 2568              	.LBB832:
   9:Interface.cpp **** Arpeggiator arp;
 2569              		.loc 16 9 13 is_stmt 0 view .LVU579
 2570 0056 2E4D     		ldr	r5, .L65+28
   7:Interface.cpp **** EchoDelay<48000> delay;
 2571              		.loc 16 7 18 view .LVU580
 2572 0058 FFF7FEFF 		bl	__aeabi_atexit
ARM GAS  /var/folders/9s/8rp0_f2s1n31qbztm3b5_fdh0000gn/T//ccXta1BT.s 			page 105


 2573              	.LVL180:
   9:Interface.cpp **** Arpeggiator arp;
 2574              		.loc 16 9 13 view .LVU581
 2575 005c 2846     		mov	r0, r5
 2576 005e FFF7FEFF 		bl	_ZN11ArpeggiatorC1Ev
 2577              	.LVL181:
 2578 0062 2246     		mov	r2, r4
 2579 0064 2B49     		ldr	r1, .L65+32
 2580 0066 2846     		mov	r0, r5
  13:Interface.cpp **** AnalogControl delay_time_knob;        // ADC 0 (Pin 15) Delay Time
 2581              		.loc 16 13 15 view .LVU582
 2582 0068 2B4D     		ldr	r5, .L65+36
   9:Interface.cpp **** Arpeggiator arp;
 2583              		.loc 16 9 13 view .LVU583
 2584 006a FFF7FEFF 		bl	__aeabi_atexit
 2585              	.LVL182:
 2586              	.LBB817:
 2587              	.LBI817:
  41:lib/libdaisy/src/hid/switch.h ****     ~Switch() {}
 2588              		.loc 1 41 5 is_stmt 1 view .LVU584
  41:lib/libdaisy/src/hid/switch.h ****     ~Switch() {}
 2589              		.loc 1 41 5 is_stmt 0 view .LVU585
 2590              	.LBE817:
  12:Interface.cpp **** Switch button;
 2591              		.loc 16 12 8 view .LVU586
 2592 006e 2246     		mov	r2, r4
 2593 0070 2A49     		ldr	r1, .L65+40
 2594 0072 2B48     		ldr	r0, .L65+44
 2595 0074 FFF7FEFF 		bl	__aeabi_atexit
 2596              	.LVL183:
 2597              	.LBB818:
 2598              	.LBI818:
  21:lib/libdaisy/src/hid/ctrl.h ****     /** destructor */
 2599              		.loc 2 21 5 is_stmt 1 view .LVU587
  21:lib/libdaisy/src/hid/ctrl.h ****     /** destructor */
 2600              		.loc 2 21 5 is_stmt 0 view .LVU588
 2601              	.LBE818:
  13:Interface.cpp **** AnalogControl delay_time_knob;        // ADC 0 (Pin 15) Delay Time
 2602              		.loc 16 13 15 view .LVU589
 2603 0078 2246     		mov	r2, r4
 2604 007a 2946     		mov	r1, r5
 2605 007c 2948     		ldr	r0, .L65+48
 2606 007e FFF7FEFF 		bl	__aeabi_atexit
 2607              	.LVL184:
 2608              	.LBB819:
 2609              	.LBI819:
  21:lib/libdaisy/src/hid/ctrl.h ****     /** destructor */
 2610              		.loc 2 21 5 is_stmt 1 view .LVU590
  21:lib/libdaisy/src/hid/ctrl.h ****     /** destructor */
 2611              		.loc 2 21 5 is_stmt 0 view .LVU591
 2612              	.LBE819:
  14:Interface.cpp **** AnalogControl delay_mix_feedback_knob; // ADC 1 (Pin 16) Delay Mix & Feedback
 2613              		.loc 16 14 15 view .LVU592
 2614 0082 2246     		mov	r2, r4
 2615 0084 2946     		mov	r1, r5
 2616 0086 2848     		ldr	r0, .L65+52
 2617 0088 FFF7FEFF 		bl	__aeabi_atexit
ARM GAS  /var/folders/9s/8rp0_f2s1n31qbztm3b5_fdh0000gn/T//ccXta1BT.s 			page 106


 2618              	.LVL185:
 2619              	.LBB820:
 2620              	.LBI820:
  21:lib/libdaisy/src/hid/ctrl.h ****     /** destructor */
 2621              		.loc 2 21 5 is_stmt 1 view .LVU593
  21:lib/libdaisy/src/hid/ctrl.h ****     /** destructor */
 2622              		.loc 2 21 5 is_stmt 0 view .LVU594
 2623              	.LBE820:
  15:Interface.cpp **** AnalogControl env_release_knob;       // ADC 2 (Pin 17) Envelope Release
 2624              		.loc 16 15 15 view .LVU595
 2625 008c 2246     		mov	r2, r4
 2626 008e 2946     		mov	r1, r5
 2627 0090 2648     		ldr	r0, .L65+56
 2628 0092 FFF7FEFF 		bl	__aeabi_atexit
 2629              	.LVL186:
 2630              	.LBB821:
 2631              	.LBI821:
  21:lib/libdaisy/src/hid/ctrl.h ****     /** destructor */
 2632              		.loc 2 21 5 is_stmt 1 view .LVU596
  21:lib/libdaisy/src/hid/ctrl.h ****     /** destructor */
 2633              		.loc 2 21 5 is_stmt 0 view .LVU597
 2634              	.LBE821:
  16:Interface.cpp **** AnalogControl env_attack_knob;        // ADC 3 (Pin 18) Envelope Attack
 2635              		.loc 16 16 15 view .LVU598
 2636 0096 2246     		mov	r2, r4
 2637 0098 2946     		mov	r1, r5
 2638 009a 2548     		ldr	r0, .L65+60
 2639 009c FFF7FEFF 		bl	__aeabi_atexit
 2640              	.LVL187:
 2641              	.LBB822:
 2642              	.LBI822:
  21:lib/libdaisy/src/hid/ctrl.h ****     /** destructor */
 2643              		.loc 2 21 5 is_stmt 1 view .LVU599
  21:lib/libdaisy/src/hid/ctrl.h ****     /** destructor */
 2644              		.loc 2 21 5 is_stmt 0 view .LVU600
 2645              	.LBE822:
  17:Interface.cpp **** AnalogControl timbre_knob;            // ADC 4 (Pin 19) Plaits Timbre
 2646              		.loc 16 17 15 view .LVU601
 2647 00a0 2246     		mov	r2, r4
 2648 00a2 2946     		mov	r1, r5
 2649 00a4 2348     		ldr	r0, .L65+64
 2650 00a6 FFF7FEFF 		bl	__aeabi_atexit
 2651              	.LVL188:
 2652              	.LBB823:
 2653              	.LBI823:
  21:lib/libdaisy/src/hid/ctrl.h ****     /** destructor */
 2654              		.loc 2 21 5 is_stmt 1 view .LVU602
  21:lib/libdaisy/src/hid/ctrl.h ****     /** destructor */
 2655              		.loc 2 21 5 is_stmt 0 view .LVU603
 2656              	.LBE823:
  18:Interface.cpp **** AnalogControl harmonics_knob;         // ADC 5 (Pin 20) Plaits Harmonics
 2657              		.loc 16 18 15 view .LVU604
 2658 00aa 2246     		mov	r2, r4
 2659 00ac 2946     		mov	r1, r5
 2660 00ae 2248     		ldr	r0, .L65+68
 2661 00b0 FFF7FEFF 		bl	__aeabi_atexit
 2662              	.LVL189:
ARM GAS  /var/folders/9s/8rp0_f2s1n31qbztm3b5_fdh0000gn/T//ccXta1BT.s 			page 107


 2663              	.LBB824:
 2664              	.LBI824:
  21:lib/libdaisy/src/hid/ctrl.h ****     /** destructor */
 2665              		.loc 2 21 5 is_stmt 1 view .LVU605
  21:lib/libdaisy/src/hid/ctrl.h ****     /** destructor */
 2666              		.loc 2 21 5 is_stmt 0 view .LVU606
 2667              	.LBE824:
  19:Interface.cpp **** AnalogControl morph_knob;             // ADC 6 (Pin 21) Plaits Morph
 2668              		.loc 16 19 15 view .LVU607
 2669 00b4 2246     		mov	r2, r4
 2670 00b6 2946     		mov	r1, r5
 2671 00b8 2048     		ldr	r0, .L65+72
 2672 00ba FFF7FEFF 		bl	__aeabi_atexit
 2673              	.LVL190:
 2674              	.LBB825:
 2675              	.LBI825:
  21:lib/libdaisy/src/hid/ctrl.h ****     /** destructor */
 2676              		.loc 2 21 5 is_stmt 1 view .LVU608
  21:lib/libdaisy/src/hid/ctrl.h ****     /** destructor */
 2677              		.loc 2 21 5 is_stmt 0 view .LVU609
 2678              	.LBE825:
  20:Interface.cpp **** AnalogControl pitch_knob;             // ADC 7 (Pin 22) Plaits Pitch
 2679              		.loc 16 20 15 view .LVU610
 2680 00be 2246     		mov	r2, r4
 2681 00c0 2946     		mov	r1, r5
 2682 00c2 1F48     		ldr	r0, .L65+76
 2683 00c4 FFF7FEFF 		bl	__aeabi_atexit
 2684              	.LVL191:
 2685              	.LBB826:
 2686              	.LBI826:
  21:lib/libdaisy/src/hid/ctrl.h ****     /** destructor */
 2687              		.loc 2 21 5 is_stmt 1 view .LVU611
  21:lib/libdaisy/src/hid/ctrl.h ****     /** destructor */
 2688              		.loc 2 21 5 is_stmt 0 view .LVU612
 2689              	.LBE826:
  21:Interface.cpp **** AnalogControl arp_pad;               // ADC 8 (Pin 23) Arpeggiator Toggle Pad
 2690              		.loc 16 21 15 view .LVU613
 2691 00c8 2246     		mov	r2, r4
 2692 00ca 2946     		mov	r1, r5
 2693 00cc 1D48     		ldr	r0, .L65+80
 2694 00ce FFF7FEFF 		bl	__aeabi_atexit
 2695              	.LVL192:
 2696              	.LBB827:
 2697              	.LBI827:
  21:lib/libdaisy/src/hid/ctrl.h ****     /** destructor */
 2698              		.loc 2 21 5 is_stmt 1 view .LVU614
  21:lib/libdaisy/src/hid/ctrl.h ****     /** destructor */
 2699              		.loc 2 21 5 is_stmt 0 view .LVU615
 2700              	.LBE827:
  22:Interface.cpp **** AnalogControl model_prev_pad;        // ADC 9 (Pin 24) Model Select Previous Pad
 2701              		.loc 16 22 15 view .LVU616
 2702 00d2 2246     		mov	r2, r4
 2703 00d4 2946     		mov	r1, r5
 2704 00d6 1C48     		ldr	r0, .L65+84
 2705 00d8 FFF7FEFF 		bl	__aeabi_atexit
 2706              	.LVL193:
 2707              	.LBB828:
ARM GAS  /var/folders/9s/8rp0_f2s1n31qbztm3b5_fdh0000gn/T//ccXta1BT.s 			page 108


 2708              	.LBI828:
  21:lib/libdaisy/src/hid/ctrl.h ****     /** destructor */
 2709              		.loc 2 21 5 is_stmt 1 view .LVU617
  21:lib/libdaisy/src/hid/ctrl.h ****     /** destructor */
 2710              		.loc 2 21 5 is_stmt 0 view .LVU618
 2711              	.LBE828:
  23:Interface.cpp **** AnalogControl model_next_pad;        // ADC 10 (Pin 25) Model Select Next Pad
 2712              		.loc 16 23 15 view .LVU619
 2713 00dc 2246     		mov	r2, r4
 2714 00de 2946     		mov	r1, r5
 2715 00e0 1A48     		ldr	r0, .L65+88
 2716 00e2 FFF7FEFF 		bl	__aeabi_atexit
 2717              	.LVL194:
 2718              	.LBB829:
 2719              	.LBI829:
  21:lib/libdaisy/src/hid/ctrl.h ****     /** destructor */
 2720              		.loc 2 21 5 is_stmt 1 view .LVU620
  21:lib/libdaisy/src/hid/ctrl.h ****     /** destructor */
 2721              		.loc 2 21 5 is_stmt 0 view .LVU621
 2722              	.LBE829:
  24:Interface.cpp **** AnalogControl mod_wheel;             // ADC 11 (Pin 28) Mod Wheel Control
 2723              		.loc 16 24 15 view .LVU622
 2724 00e6 2246     		mov	r2, r4
 2725 00e8 2946     		mov	r1, r5
 2726 00ea 1948     		ldr	r0, .L65+92
 2727              	.LBE832:
 2728              	.LBE836:
 2729              		.loc 16 178 1 view .LVU623
 2730 00ec BDE8F840 		pop	{r3, r4, r5, r6, r7, lr}
 2731              		.cfi_restore 14
 2732              		.cfi_restore 7
 2733              		.cfi_restore 6
 2734              		.cfi_restore 5
 2735              		.cfi_restore 4
 2736              		.cfi_restore 3
 2737              		.cfi_def_cfa_offset 0
 2738              	.LBB837:
 2739              	.LBB833:
  24:Interface.cpp **** AnalogControl mod_wheel;             // ADC 11 (Pin 28) Mod Wheel Control
 2740              		.loc 16 24 15 view .LVU624
 2741 00f0 FFF7FEBF 		b	__aeabi_atexit
 2742              	.LVL195:
 2743              	.L66:
 2744              		.align	2
 2745              	.L65:
 2746 00f4 00000000 		.word	.LANCHOR1
 2747 00f8 00000000 		.word	__dso_handle
 2748 00fc 00000000 		.word	delay
 2749 0100 00000000 		.word	_ZN5daisy9DaisySeedD1Ev
 2750 0104 00000000 		.word	.LANCHOR17
 2751 0108 00000000 		.word	_ZN6Mpr121D1Ev
 2752 010c 00000000 		.word	_ZN10infrasonic9EchoDelayILj48000EED1Ev
 2753 0110 00000000 		.word	.LANCHOR18
 2754 0114 00000000 		.word	_ZN11ArpeggiatorD1Ev
 2755 0118 00000000 		.word	_ZN5daisy13AnalogControlD1Ev
 2756 011c 00000000 		.word	_ZN5daisy6SwitchD1Ev
 2757 0120 00000000 		.word	.LANCHOR15
ARM GAS  /var/folders/9s/8rp0_f2s1n31qbztm3b5_fdh0000gn/T//ccXta1BT.s 			page 109


 2758 0124 00000000 		.word	.LANCHOR3
 2759 0128 00000000 		.word	.LANCHOR4
 2760 012c 00000000 		.word	.LANCHOR5
 2761 0130 00000000 		.word	.LANCHOR6
 2762 0134 00000000 		.word	.LANCHOR7
 2763 0138 00000000 		.word	.LANCHOR8
 2764 013c 00000000 		.word	.LANCHOR9
 2765 0140 00000000 		.word	.LANCHOR10
 2766 0144 00000000 		.word	.LANCHOR11
 2767 0148 00000000 		.word	.LANCHOR12
 2768 014c 00000000 		.word	.LANCHOR13
 2769 0150 00000000 		.word	.LANCHOR14
 2770              	.LBE833:
 2771              	.LBE837:
 2772              		.cfi_endproc
 2773              	.LFE6152:
 2775              		.section	.init_array,"aw",%init_array
 2776              		.align	2
 2777 0000 00000000 		.word	_GLOBAL__sub_I_hw(target1)
 2778              		.global	button_was_pressed
 2779              		.global	button_held_start_time
 2780              		.global	BOOTLOADER_HOLD_TIME_MS
 2781              		.global	smoothed_output_level
 2782              		.global	update_display
 2783              		.global	avg_elapsed_us
 2784              		.global	sample_rate
 2785              		.global	mod_wheel
 2786              		.global	model_next_pad
 2787              		.global	model_prev_pad
 2788              		.global	arp_pad
 2789              		.global	pitch_knob
 2790              		.global	morph_knob
 2791              		.global	harmonics_knob
 2792              		.global	timbre_knob
 2793              		.global	env_attack_knob
 2794              		.global	env_release_knob
 2795              		.global	delay_mix_feedback_knob
 2796              		.global	delay_time_knob
 2797              		.global	button
 2798              		.global	arp
 2799              		.global	delay
 2800              		.global	touch_sensor
 2801              		.global	hw
 2802              		.section	.rodata
 2803              		.set	.LANCHOR16,. + 0
 2804              	.LC0:
 2805 0000 01       		.byte	1
 2806 0001 08       		.byte	8
 2807              	.LC1:
 2808 0002 01       		.byte	1
 2809 0003 09       		.byte	9
 2810              		.section	.bss.arp,"aw",%nobits
 2811              		.align	2
 2812              		.set	.LANCHOR18,. + 0
 2815              	arp:
 2816 0000 00000000 		.space	84
 2816      00000000 
ARM GAS  /var/folders/9s/8rp0_f2s1n31qbztm3b5_fdh0000gn/T//ccXta1BT.s 			page 110


 2816      00000000 
 2816      00000000 
 2816      00000000 
 2817              		.section	.bss.arp_pad,"aw",%nobits
 2818              		.align	2
 2819              		.set	.LANCHOR11,. + 0
 2822              	arp_pad:
 2823 0000 00000000 		.space	32
 2823      00000000 
 2823      00000000 
 2823      00000000 
 2823      00000000 
 2824              		.section	.bss.avg_elapsed_us,"aw",%nobits
 2825              		.align	2
 2828              	avg_elapsed_us:
 2829 0000 00000000 		.space	4
 2830              		.section	.bss.button,"aw",%nobits
 2831              		.align	2
 2832              		.set	.LANCHOR15,. + 0
 2835              	button:
 2836 0000 00000000 		.space	12
 2836      00000000 
 2836      00000000 
 2837              		.section	.bss.button_held_start_time,"aw",%nobits
 2838              		.align	2
 2841              	button_held_start_time:
 2842 0000 00000000 		.space	4
 2843              		.section	.bss.button_was_pressed,"aw",%nobits
 2846              	button_was_pressed:
 2847 0000 00       		.space	1
 2848              		.section	.bss.delay,"aw",%nobits
 2849              		.align	2
 2852              	delay:
 2853 0000 00000000 		.space	192080
 2853      00000000 
 2853      00000000 
 2853      00000000 
 2853      00000000 
 2854              		.section	.bss.delay_mix_feedback_knob,"aw",%nobits
 2855              		.align	2
 2856              		.set	.LANCHOR4,. + 0
 2859              	delay_mix_feedback_knob:
 2860 0000 00000000 		.space	32
 2860      00000000 
 2860      00000000 
 2860      00000000 
 2860      00000000 
 2861              		.section	.bss.delay_time_knob,"aw",%nobits
 2862              		.align	2
 2863              		.set	.LANCHOR3,. + 0
 2866              	delay_time_knob:
 2867 0000 00000000 		.space	32
 2867      00000000 
 2867      00000000 
 2867      00000000 
 2867      00000000 
 2868              		.section	.bss.env_attack_knob,"aw",%nobits
ARM GAS  /var/folders/9s/8rp0_f2s1n31qbztm3b5_fdh0000gn/T//ccXta1BT.s 			page 111


 2869              		.align	2
 2870              		.set	.LANCHOR6,. + 0
 2873              	env_attack_knob:
 2874 0000 00000000 		.space	32
 2874      00000000 
 2874      00000000 
 2874      00000000 
 2874      00000000 
 2875              		.section	.bss.env_release_knob,"aw",%nobits
 2876              		.align	2
 2877              		.set	.LANCHOR5,. + 0
 2880              	env_release_knob:
 2881 0000 00000000 		.space	32
 2881      00000000 
 2881      00000000 
 2881      00000000 
 2881      00000000 
 2882              		.section	.bss.harmonics_knob,"aw",%nobits
 2883              		.align	2
 2884              		.set	.LANCHOR8,. + 0
 2887              	harmonics_knob:
 2888 0000 00000000 		.space	32
 2888      00000000 
 2888      00000000 
 2888      00000000 
 2888      00000000 
 2889              		.section	.bss.hw,"aw",%nobits
 2890              		.align	2
 2891              		.set	.LANCHOR1,. + 0
 2894              	hw:
 2895 0000 00000000 		.space	60
 2895      00000000 
 2895      00000000 
 2895      00000000 
 2895      00000000 
 2896              		.section	.bss.mod_wheel,"aw",%nobits
 2897              		.align	2
 2898              		.set	.LANCHOR14,. + 0
 2901              	mod_wheel:
 2902 0000 00000000 		.space	32
 2902      00000000 
 2902      00000000 
 2902      00000000 
 2902      00000000 
 2903              		.section	.bss.model_next_pad,"aw",%nobits
 2904              		.align	2
 2905              		.set	.LANCHOR13,. + 0
 2908              	model_next_pad:
 2909 0000 00000000 		.space	32
 2909      00000000 
 2909      00000000 
 2909      00000000 
 2909      00000000 
 2910              		.section	.bss.model_prev_pad,"aw",%nobits
 2911              		.align	2
 2912              		.set	.LANCHOR12,. + 0
 2915              	model_prev_pad:
ARM GAS  /var/folders/9s/8rp0_f2s1n31qbztm3b5_fdh0000gn/T//ccXta1BT.s 			page 112


 2916 0000 00000000 		.space	32
 2916      00000000 
 2916      00000000 
 2916      00000000 
 2916      00000000 
 2917              		.section	.bss.morph_knob,"aw",%nobits
 2918              		.align	2
 2919              		.set	.LANCHOR9,. + 0
 2922              	morph_knob:
 2923 0000 00000000 		.space	32
 2923      00000000 
 2923      00000000 
 2923      00000000 
 2923      00000000 
 2924              		.section	.bss.pitch_knob,"aw",%nobits
 2925              		.align	2
 2926              		.set	.LANCHOR10,. + 0
 2929              	pitch_knob:
 2930 0000 00000000 		.space	32
 2930      00000000 
 2930      00000000 
 2930      00000000 
 2930      00000000 
 2931              		.section	.bss.smoothed_output_level,"aw",%nobits
 2932              		.align	2
 2935              	smoothed_output_level:
 2936 0000 00000000 		.space	4
 2937              		.section	.bss.timbre_knob,"aw",%nobits
 2938              		.align	2
 2939              		.set	.LANCHOR7,. + 0
 2942              	timbre_knob:
 2943 0000 00000000 		.space	32
 2943      00000000 
 2943      00000000 
 2943      00000000 
 2943      00000000 
 2944              		.section	.bss.touch_sensor,"aw",%nobits
 2945              		.align	2
 2946              		.set	.LANCHOR17,. + 0
 2949              	touch_sensor:
 2950 0000 00000000 		.space	8
 2950      00000000 
 2951              		.section	.bss.update_display,"aw",%nobits
 2954              	update_display:
 2955 0000 00       		.space	1
 2956              		.section	.data.sample_rate,"aw"
 2957              		.align	2
 2958              		.set	.LANCHOR2,. + 0
 2961              	sample_rate:
 2962 0000 00803B47 		.word	1195081728
 2963              		.section	.rodata.BOOTLOADER_HOLD_TIME_MS,"a"
 2964              		.align	2
 2967              	BOOTLOADER_HOLD_TIME_MS:
 2968 0000 B80B0000 		.word	3000
 2969              		.section	.rodata._ZTIZ15InitializeSynthvEUliE_,"a"
 2970              		.align	2
 2971              		.set	.LANCHOR0,. + 0
ARM GAS  /var/folders/9s/8rp0_f2s1n31qbztm3b5_fdh0000gn/T//ccXta1BT.s 			page 113


 2974              	_ZTIZ15InitializeSynthvEUliE_:
 2975 0000 08000000 		.word	_ZTVN10__cxxabiv117__class_type_infoE+8
 2976 0004 00000000 		.word	_ZTSZ15InitializeSynthvEUliE_
 2977              		.section	.rodata._ZTSZ15InitializeSynthvEUliE_,"a"
 2980              	_ZTSZ15InitializeSynthvEUliE_:
 2981 0000 2A5A3135 		.ascii	"*Z15InitializeSynthvEUliE_\000"
 2981      496E6974 
 2981      69616C69 
 2981      7A655379 
 2981      6E746876 
 2982              		.text
 2983              	.Letext0:
 2984              		.file 27 "/Library/DaisyToolchain/0.2.0/arm/arm-none-eabi/include/machine/_default_types.h"
 2985              		.file 28 "/Library/DaisyToolchain/0.2.0/arm/arm-none-eabi/include/sys/_stdint.h"
 2986              		.file 29 "/Library/DaisyToolchain/0.2.0/arm/arm-none-eabi/include/stdint.h"
 2987              		.file 30 "/Library/DaisyToolchain/0.2.0/arm/lib/gcc/arm-none-eabi/10.3.1/include/stddef.h"
 2988              		.file 31 "/Library/DaisyToolchain/0.2.0/arm/arm-none-eabi/include/c++/10.3.1/bits/cpp_type_traits.
 2989              		.file 32 "/Library/DaisyToolchain/0.2.0/arm/arm-none-eabi/include/c++/10.3.1/cmath"
 2990              		.file 33 "/Library/DaisyToolchain/0.2.0/arm/arm-none-eabi/include/c++/10.3.1/bits/std_abs.h"
 2991              		.file 34 "/Library/DaisyToolchain/0.2.0/arm/arm-none-eabi/include/c++/10.3.1/cstdlib"
 2992              		.file 35 "/Library/DaisyToolchain/0.2.0/arm/arm-none-eabi/include/c++/10.3.1/cstdint"
 2993              		.file 36 "/Library/DaisyToolchain/0.2.0/arm/arm-none-eabi/include/c++/10.3.1/type_traits"
 2994              		.file 37 "/Library/DaisyToolchain/0.2.0/arm/arm-none-eabi/include/c++/10.3.1/arm-none-eabi/thumb/v
 2995              		.file 38 "/Library/DaisyToolchain/0.2.0/arm/arm-none-eabi/include/c++/10.3.1/bits/stl_pair.h"
 2996              		.file 39 "/Library/DaisyToolchain/0.2.0/arm/arm-none-eabi/include/c++/10.3.1/debug/debug.h"
 2997              		.file 40 "/Library/DaisyToolchain/0.2.0/arm/arm-none-eabi/include/c++/10.3.1/bits/algorithmfwd.h"
 2998              		.file 41 "/Library/DaisyToolchain/0.2.0/arm/arm-none-eabi/include/c++/10.3.1/bits/exception_ptr.h"
 2999              		.file 42 "/Library/DaisyToolchain/0.2.0/arm/arm-none-eabi/include/c++/10.3.1/cstdarg"
 3000              		.file 43 "/Library/DaisyToolchain/0.2.0/arm/arm-none-eabi/include/c++/10.3.1/cstdio"
 3001              		.file 44 "/Library/DaisyToolchain/0.2.0/arm/arm-none-eabi/include/c++/10.3.1/cstring"
 3002              		.file 45 "/Library/DaisyToolchain/0.2.0/arm/arm-none-eabi/include/c++/10.3.1/cwchar"
 3003              		.file 46 "/Library/DaisyToolchain/0.2.0/arm/arm-none-eabi/include/c++/10.3.1/clocale"
 3004              		.file 47 "/Library/DaisyToolchain/0.2.0/arm/arm-none-eabi/include/c++/10.3.1/bits/basic_string.h"
 3005              		.file 48 "/Library/DaisyToolchain/0.2.0/arm/arm-none-eabi/include/c++/10.3.1/bits/stl_iterator.h"
 3006              		.file 49 "/Library/DaisyToolchain/0.2.0/arm/arm-none-eabi/include/c++/10.3.1/bits/uses_allocator.h
 3007              		.file 50 "/Library/DaisyToolchain/0.2.0/arm/arm-none-eabi/include/c++/10.3.1/tuple"
 3008              		.file 51 "/Library/DaisyToolchain/0.2.0/arm/arm-none-eabi/include/c++/10.3.1/functional"
 3009              		.file 52 "/Library/DaisyToolchain/0.2.0/arm/arm-none-eabi/include/c++/10.3.1/bits/stl_function.h"
 3010              		.file 53 "/Library/DaisyToolchain/0.2.0/arm/arm-none-eabi/include/c++/10.3.1/bits/refwrap.h"
 3011              		.file 54 "/Library/DaisyToolchain/0.2.0/arm/arm-none-eabi/include/c++/10.3.1/bits/predefined_ops.h
 3012              		.file 55 "/Library/DaisyToolchain/0.2.0/arm/arm-none-eabi/include/sys/_types.h"
 3013              		.file 56 "/Library/DaisyToolchain/0.2.0/arm/arm-none-eabi/include/sys/reent.h"
 3014              		.file 57 "/Library/DaisyToolchain/0.2.0/arm/arm-none-eabi/include/sys/lock.h"
 3015              		.file 58 "/Library/DaisyToolchain/0.2.0/arm/arm-none-eabi/include/math.h"
 3016              		.file 59 "/Library/DaisyToolchain/0.2.0/arm/arm-none-eabi/include/stdlib.h"
 3017              		.file 60 "/Library/DaisyToolchain/0.2.0/arm/arm-none-eabi/include/c++/10.3.1/math.h"
 3018              		.file 61 "/Library/DaisyToolchain/0.2.0/arm/arm-none-eabi/include/c++/10.3.1/stdlib.h"
 3019              		.file 62 "lib/libdaisy/src/daisy_core.h"
 3020              		.file 63 "lib/libdaisy/src/per/tim.h"
 3021              		.file 64 "lib/libdaisy/src/per/sai.h"
 3022              		.file 65 "lib/libdaisy/src/hid/logger_impl.h"
 3023              		.file 66 "lib/libdaisy/src/util/wav_format.h"
 3024              		.file 67 "lib/libdaisy/src/hid/logger.h"
 3025              		.file 68 "lib/libdaisy/src/per/gpio.h"
 3026              		.file 69 "lib/libdaisy/src/dev/sdram.h"
 3027              		.file 70 "/Library/DaisyToolchain/0.2.0/arm/lib/gcc/arm-none-eabi/10.3.1/include/stdarg.h"
 3028              		.file 71 "/Library/DaisyToolchain/0.2.0/arm/arm-none-eabi/include/stdio.h"
ARM GAS  /var/folders/9s/8rp0_f2s1n31qbztm3b5_fdh0000gn/T//ccXta1BT.s 			page 114


 3029              		.file 72 "/Library/DaisyToolchain/0.2.0/arm/arm-none-eabi/include/string.h"
 3030              		.file 73 "lib/DaisySP/Source/Control/adenv.h"
 3031              		.file 74 "/Library/DaisyToolchain/0.2.0/arm/arm-none-eabi/include/wchar.h"
 3032              		.file 75 "/Library/DaisyToolchain/0.2.0/arm/arm-none-eabi/include/locale.h"
 3033              		.file 76 "eurorack/stmlib/stmlib.h"
 3034              		.file 77 "eurorack/plaits/dsp/dsp.h"
 3035              		.file 78 "eurorack/plaits/dsp/engine/additive_engine.h"
 3036              		.file 79 "eurorack/plaits/dsp/oscillator/oscillator.h"
 3037              		.file 80 "eurorack/plaits/dsp/engine/chord_engine.h"
 3038              		.file 81 "eurorack/plaits/dsp/physical_modelling/resonator.h"
 3039              		.file 82 "eurorack/plaits/dsp/engine/particle_engine.h"
 3040              		.file 83 "eurorack/plaits/dsp/physical_modelling/string.h"
 3041              		.file 84 "eurorack/plaits/dsp/engine/string_engine.h"
 3042              		.file 85 "eurorack/plaits/dsp/engine/swarm_engine.h"
 3043              		.file 86 "eurorack/plaits/dsp/oscillator/variable_saw_oscillator.h"
 3044              		.file 87 "eurorack/plaits/dsp/voice.h"
 3045              		.file 88 "<built-in>"
 3046              		.file 89 "Thaumazein.h"
 3047              		.file 90 "lib/libdaisy/src/dev/sr_595.h"
ARM GAS  /var/folders/9s/8rp0_f2s1n31qbztm3b5_fdh0000gn/T//ccXta1BT.s 			page 115


DEFINED SYMBOLS
                            *ABS*:0000000000000000 Interface.cpp
/var/folders/9s/8rp0_f2s1n31qbztm3b5_fdh0000gn/T//ccXta1BT.s:19     .text._ZN5daisy6SwitchD2Ev:0000000000000000 $t
/var/folders/9s/8rp0_f2s1n31qbztm3b5_fdh0000gn/T//ccXta1BT.s:25     .text._ZN5daisy6SwitchD2Ev:0000000000000000 _ZN5daisy6SwitchD2Ev
/var/folders/9s/8rp0_f2s1n31qbztm3b5_fdh0000gn/T//ccXta1BT.s:25     .text._ZN5daisy6SwitchD2Ev:0000000000000000 _ZN5daisy6SwitchD1Ev
/var/folders/9s/8rp0_f2s1n31qbztm3b5_fdh0000gn/T//ccXta1BT.s:42     .text._ZN5daisy13AnalogControlD2Ev:0000000000000000 $t
/var/folders/9s/8rp0_f2s1n31qbztm3b5_fdh0000gn/T//ccXta1BT.s:48     .text._ZN5daisy13AnalogControlD2Ev:0000000000000000 _ZN5daisy13AnalogControlD2Ev
/var/folders/9s/8rp0_f2s1n31qbztm3b5_fdh0000gn/T//ccXta1BT.s:48     .text._ZN5daisy13AnalogControlD2Ev:0000000000000000 _ZN5daisy13AnalogControlD1Ev
/var/folders/9s/8rp0_f2s1n31qbztm3b5_fdh0000gn/T//ccXta1BT.s:65     .text._ZN5daisy9DaisySeedD2Ev:0000000000000000 $t
/var/folders/9s/8rp0_f2s1n31qbztm3b5_fdh0000gn/T//ccXta1BT.s:71     .text._ZN5daisy9DaisySeedD2Ev:0000000000000000 _ZN5daisy9DaisySeedD2Ev
/var/folders/9s/8rp0_f2s1n31qbztm3b5_fdh0000gn/T//ccXta1BT.s:71     .text._ZN5daisy9DaisySeedD2Ev:0000000000000000 _ZN5daisy9DaisySeedD1Ev
/var/folders/9s/8rp0_f2s1n31qbztm3b5_fdh0000gn/T//ccXta1BT.s:112    .text._ZN6Mpr121D2Ev:0000000000000000 $t
/var/folders/9s/8rp0_f2s1n31qbztm3b5_fdh0000gn/T//ccXta1BT.s:118    .text._ZN6Mpr121D2Ev:0000000000000000 _ZN6Mpr121D2Ev
/var/folders/9s/8rp0_f2s1n31qbztm3b5_fdh0000gn/T//ccXta1BT.s:118    .text._ZN6Mpr121D2Ev:0000000000000000 _ZN6Mpr121D1Ev
/var/folders/9s/8rp0_f2s1n31qbztm3b5_fdh0000gn/T//ccXta1BT.s:135    .text._ZN10infrasonic9EchoDelayILj48000EED2Ev:0000000000000000 $t
/var/folders/9s/8rp0_f2s1n31qbztm3b5_fdh0000gn/T//ccXta1BT.s:141    .text._ZN10infrasonic9EchoDelayILj48000EED2Ev:0000000000000000 _ZN10infrasonic9EchoDelayILj48000EED2Ev
/var/folders/9s/8rp0_f2s1n31qbztm3b5_fdh0000gn/T//ccXta1BT.s:141    .text._ZN10infrasonic9EchoDelayILj48000EED2Ev:0000000000000000 _ZN10infrasonic9EchoDelayILj48000EED1Ev
/var/folders/9s/8rp0_f2s1n31qbztm3b5_fdh0000gn/T//ccXta1BT.s:175    .text._ZNSt17_Function_handlerIFviEZ15InitializeSynthvEUliE_E10_M_managerERSt9_Any_dataRKS3_St18_Manager_operation:0000000000000000 $t
/var/folders/9s/8rp0_f2s1n31qbztm3b5_fdh0000gn/T//ccXta1BT.s:180    .text._ZNSt17_Function_handlerIFviEZ15InitializeSynthvEUliE_E10_M_managerERSt9_Any_dataRKS3_St18_Manager_operation:0000000000000000 _ZNSt17_Function_handlerIFviEZ15InitializeSynthvEUliE_E10_M_managerERSt9_Any_dataRKS3_St18_Manager_operation
/var/folders/9s/8rp0_f2s1n31qbztm3b5_fdh0000gn/T//ccXta1BT.s:235    .text._ZNSt17_Function_handlerIFviEZ15InitializeSynthvEUliE_E10_M_managerERSt9_Any_dataRKS3_St18_Manager_operation:0000000000000014 $d
/var/folders/9s/8rp0_f2s1n31qbztm3b5_fdh0000gn/T//ccXta1BT.s:240    .text._ZNSt17_Function_handlerIFviEZ15InitializeSynthvEUliE_E9_M_invokeERKSt9_Any_dataOi:0000000000000000 $t
/var/folders/9s/8rp0_f2s1n31qbztm3b5_fdh0000gn/T//ccXta1BT.s:245    .text._ZNSt17_Function_handlerIFviEZ15InitializeSynthvEUliE_E9_M_invokeERKSt9_Any_dataOi:0000000000000000 _ZNSt17_Function_handlerIFviEZ15InitializeSynthvEUliE_E9_M_invokeERKSt9_Any_dataOi
/var/folders/9s/8rp0_f2s1n31qbztm3b5_fdh0000gn/T//ccXta1BT.s:439    .text._ZNSt17_Function_handlerIFviEZ15InitializeSynthvEUliE_E9_M_invokeERKSt9_Any_dataOi:000000000000007c $d
/var/folders/9s/8rp0_f2s1n31qbztm3b5_fdh0000gn/T//ccXta1BT.s:458    .text._ZNSt14_Function_baseD2Ev:0000000000000000 $t
/var/folders/9s/8rp0_f2s1n31qbztm3b5_fdh0000gn/T//ccXta1BT.s:464    .text._ZNSt14_Function_baseD2Ev:0000000000000000 _ZNSt14_Function_baseD2Ev
/var/folders/9s/8rp0_f2s1n31qbztm3b5_fdh0000gn/T//ccXta1BT.s:464    .text._ZNSt14_Function_baseD2Ev:0000000000000000 _ZNSt14_Function_baseD1Ev
/var/folders/9s/8rp0_f2s1n31qbztm3b5_fdh0000gn/T//ccXta1BT.s:505    .text._ZN11ArpeggiatorD2Ev:0000000000000000 $t
/var/folders/9s/8rp0_f2s1n31qbztm3b5_fdh0000gn/T//ccXta1BT.s:511    .text._ZN11ArpeggiatorD2Ev:0000000000000000 _ZN11ArpeggiatorD2Ev
/var/folders/9s/8rp0_f2s1n31qbztm3b5_fdh0000gn/T//ccXta1BT.s:511    .text._ZN11ArpeggiatorD2Ev:0000000000000000 _ZN11ArpeggiatorD1Ev
/var/folders/9s/8rp0_f2s1n31qbztm3b5_fdh0000gn/T//ccXta1BT.s:557    .text._Z18InitializeHardwarev:0000000000000000 $t
/var/folders/9s/8rp0_f2s1n31qbztm3b5_fdh0000gn/T//ccXta1BT.s:563    .text._Z18InitializeHardwarev:0000000000000000 _Z18InitializeHardwarev
/var/folders/9s/8rp0_f2s1n31qbztm3b5_fdh0000gn/T//ccXta1BT.s:619    .text._Z18InitializeHardwarev:0000000000000038 $d
/var/folders/9s/8rp0_f2s1n31qbztm3b5_fdh0000gn/T//ccXta1BT.s:625    .text._Z18InitializeControlsv:0000000000000000 $t
/var/folders/9s/8rp0_f2s1n31qbztm3b5_fdh0000gn/T//ccXta1BT.s:631    .text._Z18InitializeControlsv:0000000000000000 _Z18InitializeControlsv
/var/folders/9s/8rp0_f2s1n31qbztm3b5_fdh0000gn/T//ccXta1BT.s:983    .text._Z18InitializeControlsv:0000000000000284 $d
/var/folders/9s/8rp0_f2s1n31qbztm3b5_fdh0000gn/T//ccXta1BT.s:1004   .text._Z21InitializeTouchSensorv:0000000000000000 $t
/var/folders/9s/8rp0_f2s1n31qbztm3b5_fdh0000gn/T//ccXta1BT.s:1010   .text._Z21InitializeTouchSensorv:0000000000000000 _Z21InitializeTouchSensorv
/var/folders/9s/8rp0_f2s1n31qbztm3b5_fdh0000gn/T//ccXta1BT.s:1139   .text._Z21InitializeTouchSensorv:0000000000000060 $d
/var/folders/9s/8rp0_f2s1n31qbztm3b5_fdh0000gn/T//ccXta1BT.s:1149   .text._Z8Bootloadv:0000000000000000 $t
/var/folders/9s/8rp0_f2s1n31qbztm3b5_fdh0000gn/T//ccXta1BT.s:1155   .text._Z8Bootloadv:0000000000000000 _Z8Bootloadv
/var/folders/9s/8rp0_f2s1n31qbztm3b5_fdh0000gn/T//ccXta1BT.s:1274   .text._Z8Bootloadv:0000000000000074 $d
/var/folders/9s/8rp0_f2s1n31qbztm3b5_fdh0000gn/T//ccXta1BT.s:1283   .text._Z9UpdateLEDv:0000000000000000 $t
/var/folders/9s/8rp0_f2s1n31qbztm3b5_fdh0000gn/T//ccXta1BT.s:1289   .text._Z9UpdateLEDv:0000000000000000 _Z9UpdateLEDv
/var/folders/9s/8rp0_f2s1n31qbztm3b5_fdh0000gn/T//ccXta1BT.s:1357   .text._Z9UpdateLEDv:0000000000000038 $d
/var/folders/9s/8rp0_f2s1n31qbztm3b5_fdh0000gn/T//ccXta1BT.s:1363   .text._ZN10infrasonic13BiquadCascadeILj1ELNS_13BiquadSection10FilterTypeE2EE18updateCoefficientsEv:0000000000000000 $t
/var/folders/9s/8rp0_f2s1n31qbztm3b5_fdh0000gn/T//ccXta1BT.s:1369   .text._ZN10infrasonic13BiquadCascadeILj1ELNS_13BiquadSection10FilterTypeE2EE18updateCoefficientsEv:0000000000000000 _ZN10infrasonic13BiquadCascadeILj1ELNS_13BiquadSection10FilterTypeE2EE18updateCoefficientsEv
/var/folders/9s/8rp0_f2s1n31qbztm3b5_fdh0000gn/T//ccXta1BT.s:1447   .text._Z15InitializeDelayv:0000000000000000 $t
/var/folders/9s/8rp0_f2s1n31qbztm3b5_fdh0000gn/T//ccXta1BT.s:1453   .text._Z15InitializeDelayv:0000000000000000 _Z15InitializeDelayv
/var/folders/9s/8rp0_f2s1n31qbztm3b5_fdh0000gn/T//ccXta1BT.s:1852   .text._Z15InitializeDelayv:00000000000000b4 $d
/var/folders/9s/8rp0_f2s1n31qbztm3b5_fdh0000gn/T//ccXta1BT.s:2852   .bss.delay:0000000000000000 delay
/var/folders/9s/8rp0_f2s1n31qbztm3b5_fdh0000gn/T//ccXta1BT.s:1879   .text._Z15InitializeSynthv:0000000000000000 $t
/var/folders/9s/8rp0_f2s1n31qbztm3b5_fdh0000gn/T//ccXta1BT.s:1885   .text._Z15InitializeSynthv:0000000000000000 _Z15InitializeSynthv
/var/folders/9s/8rp0_f2s1n31qbztm3b5_fdh0000gn/T//ccXta1BT.s:2246   .text._Z15InitializeSynthv:0000000000000108 $d
/var/folders/9s/8rp0_f2s1n31qbztm3b5_fdh0000gn/T//ccXta1BT.s:2268   .text.startup._GLOBAL__sub_I_hw:0000000000000000 $t
/var/folders/9s/8rp0_f2s1n31qbztm3b5_fdh0000gn/T//ccXta1BT.s:2273   .text.startup._GLOBAL__sub_I_hw:0000000000000000 _GLOBAL__sub_I_hw
/var/folders/9s/8rp0_f2s1n31qbztm3b5_fdh0000gn/T//ccXta1BT.s:2746   .text.startup._GLOBAL__sub_I_hw:00000000000000f4 $d
/var/folders/9s/8rp0_f2s1n31qbztm3b5_fdh0000gn/T//ccXta1BT.s:2776   .init_array:0000000000000000 $d
ARM GAS  /var/folders/9s/8rp0_f2s1n31qbztm3b5_fdh0000gn/T//ccXta1BT.s 			page 116


/var/folders/9s/8rp0_f2s1n31qbztm3b5_fdh0000gn/T//ccXta1BT.s:2846   .bss.button_was_pressed:0000000000000000 button_was_pressed
/var/folders/9s/8rp0_f2s1n31qbztm3b5_fdh0000gn/T//ccXta1BT.s:2841   .bss.button_held_start_time:0000000000000000 button_held_start_time
/var/folders/9s/8rp0_f2s1n31qbztm3b5_fdh0000gn/T//ccXta1BT.s:2967   .rodata.BOOTLOADER_HOLD_TIME_MS:0000000000000000 BOOTLOADER_HOLD_TIME_MS
/var/folders/9s/8rp0_f2s1n31qbztm3b5_fdh0000gn/T//ccXta1BT.s:2935   .bss.smoothed_output_level:0000000000000000 smoothed_output_level
/var/folders/9s/8rp0_f2s1n31qbztm3b5_fdh0000gn/T//ccXta1BT.s:2954   .bss.update_display:0000000000000000 update_display
/var/folders/9s/8rp0_f2s1n31qbztm3b5_fdh0000gn/T//ccXta1BT.s:2828   .bss.avg_elapsed_us:0000000000000000 avg_elapsed_us
/var/folders/9s/8rp0_f2s1n31qbztm3b5_fdh0000gn/T//ccXta1BT.s:2961   .data.sample_rate:0000000000000000 sample_rate
/var/folders/9s/8rp0_f2s1n31qbztm3b5_fdh0000gn/T//ccXta1BT.s:2901   .bss.mod_wheel:0000000000000000 mod_wheel
/var/folders/9s/8rp0_f2s1n31qbztm3b5_fdh0000gn/T//ccXta1BT.s:2908   .bss.model_next_pad:0000000000000000 model_next_pad
/var/folders/9s/8rp0_f2s1n31qbztm3b5_fdh0000gn/T//ccXta1BT.s:2915   .bss.model_prev_pad:0000000000000000 model_prev_pad
/var/folders/9s/8rp0_f2s1n31qbztm3b5_fdh0000gn/T//ccXta1BT.s:2822   .bss.arp_pad:0000000000000000 arp_pad
/var/folders/9s/8rp0_f2s1n31qbztm3b5_fdh0000gn/T//ccXta1BT.s:2929   .bss.pitch_knob:0000000000000000 pitch_knob
/var/folders/9s/8rp0_f2s1n31qbztm3b5_fdh0000gn/T//ccXta1BT.s:2922   .bss.morph_knob:0000000000000000 morph_knob
/var/folders/9s/8rp0_f2s1n31qbztm3b5_fdh0000gn/T//ccXta1BT.s:2887   .bss.harmonics_knob:0000000000000000 harmonics_knob
/var/folders/9s/8rp0_f2s1n31qbztm3b5_fdh0000gn/T//ccXta1BT.s:2942   .bss.timbre_knob:0000000000000000 timbre_knob
/var/folders/9s/8rp0_f2s1n31qbztm3b5_fdh0000gn/T//ccXta1BT.s:2873   .bss.env_attack_knob:0000000000000000 env_attack_knob
/var/folders/9s/8rp0_f2s1n31qbztm3b5_fdh0000gn/T//ccXta1BT.s:2880   .bss.env_release_knob:0000000000000000 env_release_knob
/var/folders/9s/8rp0_f2s1n31qbztm3b5_fdh0000gn/T//ccXta1BT.s:2859   .bss.delay_mix_feedback_knob:0000000000000000 delay_mix_feedback_knob
/var/folders/9s/8rp0_f2s1n31qbztm3b5_fdh0000gn/T//ccXta1BT.s:2866   .bss.delay_time_knob:0000000000000000 delay_time_knob
/var/folders/9s/8rp0_f2s1n31qbztm3b5_fdh0000gn/T//ccXta1BT.s:2835   .bss.button:0000000000000000 button
/var/folders/9s/8rp0_f2s1n31qbztm3b5_fdh0000gn/T//ccXta1BT.s:2815   .bss.arp:0000000000000000 arp
/var/folders/9s/8rp0_f2s1n31qbztm3b5_fdh0000gn/T//ccXta1BT.s:2949   .bss.touch_sensor:0000000000000000 touch_sensor
/var/folders/9s/8rp0_f2s1n31qbztm3b5_fdh0000gn/T//ccXta1BT.s:2894   .bss.hw:0000000000000000 hw
/var/folders/9s/8rp0_f2s1n31qbztm3b5_fdh0000gn/T//ccXta1BT.s:2811   .bss.arp:0000000000000000 $d
/var/folders/9s/8rp0_f2s1n31qbztm3b5_fdh0000gn/T//ccXta1BT.s:2818   .bss.arp_pad:0000000000000000 $d
/var/folders/9s/8rp0_f2s1n31qbztm3b5_fdh0000gn/T//ccXta1BT.s:2825   .bss.avg_elapsed_us:0000000000000000 $d
/var/folders/9s/8rp0_f2s1n31qbztm3b5_fdh0000gn/T//ccXta1BT.s:2831   .bss.button:0000000000000000 $d
/var/folders/9s/8rp0_f2s1n31qbztm3b5_fdh0000gn/T//ccXta1BT.s:2838   .bss.button_held_start_time:0000000000000000 $d
/var/folders/9s/8rp0_f2s1n31qbztm3b5_fdh0000gn/T//ccXta1BT.s:2847   .bss.button_was_pressed:0000000000000000 $d
/var/folders/9s/8rp0_f2s1n31qbztm3b5_fdh0000gn/T//ccXta1BT.s:2849   .bss.delay:0000000000000000 $d
/var/folders/9s/8rp0_f2s1n31qbztm3b5_fdh0000gn/T//ccXta1BT.s:2855   .bss.delay_mix_feedback_knob:0000000000000000 $d
/var/folders/9s/8rp0_f2s1n31qbztm3b5_fdh0000gn/T//ccXta1BT.s:2862   .bss.delay_time_knob:0000000000000000 $d
/var/folders/9s/8rp0_f2s1n31qbztm3b5_fdh0000gn/T//ccXta1BT.s:2869   .bss.env_attack_knob:0000000000000000 $d
/var/folders/9s/8rp0_f2s1n31qbztm3b5_fdh0000gn/T//ccXta1BT.s:2876   .bss.env_release_knob:0000000000000000 $d
/var/folders/9s/8rp0_f2s1n31qbztm3b5_fdh0000gn/T//ccXta1BT.s:2883   .bss.harmonics_knob:0000000000000000 $d
/var/folders/9s/8rp0_f2s1n31qbztm3b5_fdh0000gn/T//ccXta1BT.s:2890   .bss.hw:0000000000000000 $d
/var/folders/9s/8rp0_f2s1n31qbztm3b5_fdh0000gn/T//ccXta1BT.s:2897   .bss.mod_wheel:0000000000000000 $d
/var/folders/9s/8rp0_f2s1n31qbztm3b5_fdh0000gn/T//ccXta1BT.s:2904   .bss.model_next_pad:0000000000000000 $d
/var/folders/9s/8rp0_f2s1n31qbztm3b5_fdh0000gn/T//ccXta1BT.s:2911   .bss.model_prev_pad:0000000000000000 $d
/var/folders/9s/8rp0_f2s1n31qbztm3b5_fdh0000gn/T//ccXta1BT.s:2918   .bss.morph_knob:0000000000000000 $d
/var/folders/9s/8rp0_f2s1n31qbztm3b5_fdh0000gn/T//ccXta1BT.s:2925   .bss.pitch_knob:0000000000000000 $d
/var/folders/9s/8rp0_f2s1n31qbztm3b5_fdh0000gn/T//ccXta1BT.s:2932   .bss.smoothed_output_level:0000000000000000 $d
/var/folders/9s/8rp0_f2s1n31qbztm3b5_fdh0000gn/T//ccXta1BT.s:2938   .bss.timbre_knob:0000000000000000 $d
/var/folders/9s/8rp0_f2s1n31qbztm3b5_fdh0000gn/T//ccXta1BT.s:2945   .bss.touch_sensor:0000000000000000 $d
/var/folders/9s/8rp0_f2s1n31qbztm3b5_fdh0000gn/T//ccXta1BT.s:2955   .bss.update_display:0000000000000000 $d
/var/folders/9s/8rp0_f2s1n31qbztm3b5_fdh0000gn/T//ccXta1BT.s:2957   .data.sample_rate:0000000000000000 $d
/var/folders/9s/8rp0_f2s1n31qbztm3b5_fdh0000gn/T//ccXta1BT.s:2964   .rodata.BOOTLOADER_HOLD_TIME_MS:0000000000000000 $d
/var/folders/9s/8rp0_f2s1n31qbztm3b5_fdh0000gn/T//ccXta1BT.s:2970   .rodata._ZTIZ15InitializeSynthvEUliE_:0000000000000000 $d
/var/folders/9s/8rp0_f2s1n31qbztm3b5_fdh0000gn/T//ccXta1BT.s:2974   .rodata._ZTIZ15InitializeSynthvEUliE_:0000000000000000 _ZTIZ15InitializeSynthvEUliE_
/var/folders/9s/8rp0_f2s1n31qbztm3b5_fdh0000gn/T//ccXta1BT.s:2980   .rodata._ZTSZ15InitializeSynthvEUliE_:0000000000000000 _ZTSZ15InitializeSynthvEUliE_
                           .group:0000000000000000 _ZN5daisy6SwitchD5Ev
                           .group:0000000000000000 _ZN5daisy13AnalogControlD5Ev
                           .group:0000000000000000 _ZN5daisy9DaisySeedD5Ev
                           .group:0000000000000000 _ZN6Mpr121D5Ev
                           .group:0000000000000000 _ZN10infrasonic9EchoDelayILj48000EED5Ev
                           .group:0000000000000000 _ZNSt14_Function_baseD5Ev
                           .group:0000000000000000 _ZN11ArpeggiatorD5Ev
ARM GAS  /var/folders/9s/8rp0_f2s1n31qbztm3b5_fdh0000gn/T//ccXta1BT.s 			page 117



UNDEFINED SYMBOLS
voice_envelopes
kTouchMidiNotes
voice_note
voice_active
current_engine_index
modulations
_ZN5daisy9DaisySeed9ConfigureEv
_ZN5daisy9DaisySeed4InitEb
_ZN5daisy9DaisySeed17SetAudioBlockSizeEj
_ZN5daisy9DaisySeed15AudioSampleRateEv
_ZN5daisy9DaisySeed18SetAudioSampleRateENS_9SaiHandle6Config10SampleRateE
_ZN5daisy9DaisySeed6GetPinEh
_ZN5daisy16AdcChannelConfig10InitSingleE12dsy_gpio_pin
_ZN5daisy9AdcHandle4InitEPNS_16AdcChannelConfigEjNS0_12OverSamplingE
_ZN5daisy9AdcHandle5StartEv
_ZNK5daisy9AdcHandle6GetPtrEh
_ZN5daisy13AnalogControl4InitEPtfbbf
_ZN5daisy6Switch4InitE12dsy_gpio_pinf
_ZN6Mpr1214InitERKNS_6ConfigE
_ZN5daisy9DaisySeed6SetLedEb
_ZN5daisy6System5DelayEm
_ZN6Mpr12113SetThresholdsEhh
_ZN5daisy6LoggerILNS_17LoggerDestinationE1EE9PrintLineEPKcz
_ZN5daisy6System17ResetToBootloaderEv
_ZN5daisy6System6GetNowEv
_ZN10infrasonic13BiquadSection21CalculateCoefficientsENS0_10FilterTypeEfff
memset
_Z16InitializeVoicesv
_ZN5daisy6System11GetTickFreqEv
_ZN11Arpeggiator4InitEf
_ZN11Arpeggiator12SetMainTempoEf
_ZN11Arpeggiator22SetNoteTriggerCallbackESt8functionIFviEE
_ZN5daisy9DaisySeed10StartAudioEPFvPKfPfjE
_ZN5daisy6LoggerILNS_17LoggerDestinationE1EE8StartLogEb
sprintf
cpu_meter
_Z13AudioCallbackPKfPfj
MAX_ENGINE_INDEX
__aeabi_atexit
_ZN11ArpeggiatorC1Ev
__dso_handle
_ZTVN10__cxxabiv117__class_type_infoE
