ARM GAS  /var/folders/9s/8rp0_f2s1n31qbztm3b5_fdh0000gn/T//ccUlKUex.s 			page 1


   1              		.cpu cortex-m7
   2              		.arch armv7e-m
   3              		.fpu fpv5-d16
   4              		.eabi_attribute 28, 1
   5              		.eabi_attribute 20, 1
   6              		.eabi_attribute 21, 1
   7              		.eabi_attribute 23, 3
   8              		.eabi_attribute 24, 1
   9              		.eabi_attribute 25, 1
  10              		.eabi_attribute 26, 1
  11              		.eabi_attribute 30, 4
  12              		.eabi_attribute 34, 1
  13              		.eabi_attribute 18, 4
  14              		.file	"Interface.cpp"
  15              		.text
  16              	.Ltext0:
  17              		.cfi_sections	.debug_frame
  18              		.section	.text._ZN5daisy13AnalogControlD2Ev,"axG",%progbits,_ZN5daisy13AnalogControlD5Ev,comdat
  19              		.align	1
  20              		.weak	_ZN5daisy13AnalogControlD2Ev
  21              		.syntax unified
  22              		.thumb
  23              		.thumb_func
  25              	_ZN5daisy13AnalogControlD2Ev:
  26              	.LVL0:
  27              	.LFB1695:
  28              		.file 1 "lib/libdaisy/src/hid/ctrl.h"
   1:lib/libdaisy/src/hid/ctrl.h **** #pragma once
   2:lib/libdaisy/src/hid/ctrl.h **** #ifndef DSY_KNOB_H
   3:lib/libdaisy/src/hid/ctrl.h **** #define DSY_KNOB_H /**< & */
   4:lib/libdaisy/src/hid/ctrl.h **** #include <stdint.h>
   5:lib/libdaisy/src/hid/ctrl.h **** 
   6:lib/libdaisy/src/hid/ctrl.h **** #ifdef __cplusplus
   7:lib/libdaisy/src/hid/ctrl.h **** namespace daisy
   8:lib/libdaisy/src/hid/ctrl.h **** {
   9:lib/libdaisy/src/hid/ctrl.h **** /**
  10:lib/libdaisy/src/hid/ctrl.h ****     @brief Hardware Interface for control inputs \n
  11:lib/libdaisy/src/hid/ctrl.h ****     Primarily designed for ADC input controls such as \n
  12:lib/libdaisy/src/hid/ctrl.h ****     potentiometers, and control voltage. \n
  13:lib/libdaisy/src/hid/ctrl.h ****     @author Stephen Hensley
  14:lib/libdaisy/src/hid/ctrl.h ****     @date November 2019
  15:lib/libdaisy/src/hid/ctrl.h ****     @ingroup controls
  16:lib/libdaisy/src/hid/ctrl.h **** */
  17:lib/libdaisy/src/hid/ctrl.h **** class AnalogControl
  18:lib/libdaisy/src/hid/ctrl.h **** {
  19:lib/libdaisy/src/hid/ctrl.h ****   public:
  20:lib/libdaisy/src/hid/ctrl.h ****     /** Constructor */
  21:lib/libdaisy/src/hid/ctrl.h ****     AnalogControl() {}
  22:lib/libdaisy/src/hid/ctrl.h ****     /** destructor */
  23:lib/libdaisy/src/hid/ctrl.h ****     ~AnalogControl() {}
  29              		.loc 1 23 5 view -0
  30              		.cfi_startproc
  31              		@ args = 0, pretend = 0, frame = 0
  32              		@ frame_needed = 0, uses_anonymous_args = 0
  33              		@ link register save eliminated.
  34              		.loc 1 23 23 is_stmt 0 view .LVU1
  35 0000 7047     		bx	lr
ARM GAS  /var/folders/9s/8rp0_f2s1n31qbztm3b5_fdh0000gn/T//ccUlKUex.s 			page 2


  36              		.cfi_endproc
  37              	.LFE1695:
  39              		.weak	_ZN5daisy13AnalogControlD1Ev
  40              		.thumb_set _ZN5daisy13AnalogControlD1Ev,_ZN5daisy13AnalogControlD2Ev
  41              		.section	.text._ZN5daisy9DaisySeedD2Ev,"axG",%progbits,_ZN5daisy9DaisySeedD5Ev,comdat
  42              		.align	1
  43              		.weak	_ZN5daisy9DaisySeedD2Ev
  44              		.syntax unified
  45              		.thumb
  46              		.thumb_func
  48              	_ZN5daisy9DaisySeedD2Ev:
  49              	.LVL1:
  50              	.LFB2646:
  51              		.file 2 "lib/libdaisy/src/daisy_seed.h"
   1:lib/libdaisy/src/daisy_seed.h **** #pragma once
   2:lib/libdaisy/src/daisy_seed.h **** #ifndef DSY_SEED_H
   3:lib/libdaisy/src/daisy_seed.h **** #define DSY_SEED_H
   4:lib/libdaisy/src/daisy_seed.h **** 
   5:lib/libdaisy/src/daisy_seed.h **** #include "daisy.h"
   6:lib/libdaisy/src/daisy_seed.h **** 
   7:lib/libdaisy/src/daisy_seed.h **** //Uncomment this out if you're still using the rev2 hardware
   8:lib/libdaisy/src/daisy_seed.h **** //#define SEED_REV2
   9:lib/libdaisy/src/daisy_seed.h **** 
  10:lib/libdaisy/src/daisy_seed.h **** namespace daisy
  11:lib/libdaisy/src/daisy_seed.h **** {
  12:lib/libdaisy/src/daisy_seed.h **** /**
  13:lib/libdaisy/src/daisy_seed.h ****    @brief This is the higher-level interface for the Daisy board. \n 
  14:lib/libdaisy/src/daisy_seed.h ****     All basic peripheral configuration/initialization is setup here. \n
  15:lib/libdaisy/src/daisy_seed.h **** 
  16:lib/libdaisy/src/daisy_seed.h ****    @ingroup boards
  17:lib/libdaisy/src/daisy_seed.h **** */
  18:lib/libdaisy/src/daisy_seed.h **** class DaisySeed
  19:lib/libdaisy/src/daisy_seed.h **** {
  20:lib/libdaisy/src/daisy_seed.h ****   public:
  21:lib/libdaisy/src/daisy_seed.h ****     DaisySeed() {}
  22:lib/libdaisy/src/daisy_seed.h ****     ~DaisySeed() {}
  52              		.loc 2 22 5 is_stmt 1 view -0
  53              		.cfi_startproc
  54              		@ args = 0, pretend = 0, frame = 0
  55              		@ frame_needed = 0, uses_anonymous_args = 0
  56              		@ link register save eliminated.
  57              	.LBB582:
  58              	.LBI582:
  59              		.file 3 "lib/libdaisy/src/dev/codec_ak4556.h"
   1:lib/libdaisy/src/dev/codec_ak4556.h **** #pragma once
   2:lib/libdaisy/src/dev/codec_ak4556.h **** #ifndef DSY_CODEC_AK4556_H
   3:lib/libdaisy/src/dev/codec_ak4556.h **** #define DSY_CODEC_AK4556_H
   4:lib/libdaisy/src/dev/codec_ak4556.h **** 
   5:lib/libdaisy/src/dev/codec_ak4556.h **** #include "daisy_core.h"
   6:lib/libdaisy/src/dev/codec_ak4556.h **** #include "per/gpio.h"
   7:lib/libdaisy/src/dev/codec_ak4556.h **** 
   8:lib/libdaisy/src/dev/codec_ak4556.h **** namespace daisy
   9:lib/libdaisy/src/dev/codec_ak4556.h **** {
  10:lib/libdaisy/src/dev/codec_ak4556.h **** /** @brief Ak4556 Codec support 
  11:lib/libdaisy/src/dev/codec_ak4556.h ****  ** @author shensley
  12:lib/libdaisy/src/dev/codec_ak4556.h ****  ** @addtogroup codec
  13:lib/libdaisy/src/dev/codec_ak4556.h ****  ** 
ARM GAS  /var/folders/9s/8rp0_f2s1n31qbztm3b5_fdh0000gn/T//ccUlKUex.s 			page 3


  14:lib/libdaisy/src/dev/codec_ak4556.h ****  ** I don't see any real reason to have this be more than a function, but in case we want
  15:lib/libdaisy/src/dev/codec_ak4556.h ****  ** to add other functions down the road I wrapped the function in a class.
  16:lib/libdaisy/src/dev/codec_ak4556.h ****  ***/
  17:lib/libdaisy/src/dev/codec_ak4556.h **** class Ak4556
  18:lib/libdaisy/src/dev/codec_ak4556.h **** {
  19:lib/libdaisy/src/dev/codec_ak4556.h ****   public:
  20:lib/libdaisy/src/dev/codec_ak4556.h ****     Ak4556() {}
  21:lib/libdaisy/src/dev/codec_ak4556.h ****     ~Ak4556() {}
  60              		.loc 3 21 5 view .LVU3
  61              		.loc 3 21 5 is_stmt 0 view .LVU4
  62              	.LBE582:
  63              	.LBB583:
  64              	.LBI583:
  65              		.file 4 "lib/libdaisy/src/sys/system.h"
   1:lib/libdaisy/src/sys/system.h **** #ifndef DSY_SYSTEM_H
   2:lib/libdaisy/src/sys/system.h **** #define DSY_SYSTEM_H
   3:lib/libdaisy/src/sys/system.h **** 
   4:lib/libdaisy/src/sys/system.h **** #ifndef UNIT_TEST // for unit tests, a dummy implementation is provided below
   5:lib/libdaisy/src/sys/system.h **** 
   6:lib/libdaisy/src/sys/system.h **** #include <cstdint>
   7:lib/libdaisy/src/sys/system.h **** #include "per/tim.h"
   8:lib/libdaisy/src/sys/system.h **** 
   9:lib/libdaisy/src/sys/system.h **** namespace daisy
  10:lib/libdaisy/src/sys/system.h **** {
  11:lib/libdaisy/src/sys/system.h **** /** A handle for interacting with the Core System.
  12:lib/libdaisy/src/sys/system.h ****  ** This includes the Clock tree, MPU, global DMA initialization,
  13:lib/libdaisy/src/sys/system.h ****  ** cache handling, and any other necessary global initiailzation
  14:lib/libdaisy/src/sys/system.h ****  **
  15:lib/libdaisy/src/sys/system.h ****  ** @author shensley
  16:lib/libdaisy/src/sys/system.h ****  ** @ingroup system
  17:lib/libdaisy/src/sys/system.h ****  */
  18:lib/libdaisy/src/sys/system.h **** class System
  19:lib/libdaisy/src/sys/system.h **** {
  20:lib/libdaisy/src/sys/system.h ****   public:
  21:lib/libdaisy/src/sys/system.h ****     /** Contains settings for initializing the System */
  22:lib/libdaisy/src/sys/system.h ****     struct Config
  23:lib/libdaisy/src/sys/system.h ****     {
  24:lib/libdaisy/src/sys/system.h ****         /** Specifies the system clock frequency that feeds APB/AHB clocks, etc. */
  25:lib/libdaisy/src/sys/system.h ****         enum class SysClkFreq
  26:lib/libdaisy/src/sys/system.h ****         {
  27:lib/libdaisy/src/sys/system.h ****             FREQ_400MHZ,
  28:lib/libdaisy/src/sys/system.h ****             FREQ_480MHZ,
  29:lib/libdaisy/src/sys/system.h ****         };
  30:lib/libdaisy/src/sys/system.h **** 
  31:lib/libdaisy/src/sys/system.h ****         /** Method to call on the struct to set to defaults
  32:lib/libdaisy/src/sys/system.h ****          ** CPU Freq set to 400MHz
  33:lib/libdaisy/src/sys/system.h ****          ** Cache Enabled
  34:lib/libdaisy/src/sys/system.h ****          ** */
  35:lib/libdaisy/src/sys/system.h ****         void Defaults()
  36:lib/libdaisy/src/sys/system.h ****         {
  37:lib/libdaisy/src/sys/system.h ****             cpu_freq    = SysClkFreq::FREQ_400MHZ;
  38:lib/libdaisy/src/sys/system.h ****             use_dcache  = true;
  39:lib/libdaisy/src/sys/system.h ****             use_icache  = true;
  40:lib/libdaisy/src/sys/system.h ****             skip_clocks = false;
  41:lib/libdaisy/src/sys/system.h ****         }
  42:lib/libdaisy/src/sys/system.h **** 
  43:lib/libdaisy/src/sys/system.h ****         /** Method to call on the struct to set to boost mode:
ARM GAS  /var/folders/9s/8rp0_f2s1n31qbztm3b5_fdh0000gn/T//ccUlKUex.s 			page 4


  44:lib/libdaisy/src/sys/system.h ****          ** CPU Freq set to 480MHz
  45:lib/libdaisy/src/sys/system.h ****          ** Cache Enabled
  46:lib/libdaisy/src/sys/system.h ****          ** */
  47:lib/libdaisy/src/sys/system.h ****         void Boost()
  48:lib/libdaisy/src/sys/system.h ****         {
  49:lib/libdaisy/src/sys/system.h ****             cpu_freq    = SysClkFreq::FREQ_480MHZ;
  50:lib/libdaisy/src/sys/system.h ****             use_dcache  = true;
  51:lib/libdaisy/src/sys/system.h ****             use_icache  = true;
  52:lib/libdaisy/src/sys/system.h ****             skip_clocks = false;
  53:lib/libdaisy/src/sys/system.h ****         }
  54:lib/libdaisy/src/sys/system.h **** 
  55:lib/libdaisy/src/sys/system.h ****         SysClkFreq cpu_freq;
  56:lib/libdaisy/src/sys/system.h ****         bool       use_dcache;
  57:lib/libdaisy/src/sys/system.h ****         bool       use_icache;
  58:lib/libdaisy/src/sys/system.h ****         bool       skip_clocks;
  59:lib/libdaisy/src/sys/system.h ****     };
  60:lib/libdaisy/src/sys/system.h **** 
  61:lib/libdaisy/src/sys/system.h ****     /** Describes the different regions of memory available to the Daisy */
  62:lib/libdaisy/src/sys/system.h ****     enum MemoryRegion
  63:lib/libdaisy/src/sys/system.h ****     {
  64:lib/libdaisy/src/sys/system.h ****         INTERNAL_FLASH = 0,
  65:lib/libdaisy/src/sys/system.h ****         ITCMRAM,
  66:lib/libdaisy/src/sys/system.h ****         DTCMRAM,
  67:lib/libdaisy/src/sys/system.h ****         SRAM_D1,
  68:lib/libdaisy/src/sys/system.h ****         SRAM_D2,
  69:lib/libdaisy/src/sys/system.h ****         SRAM_D3,
  70:lib/libdaisy/src/sys/system.h ****         SDRAM,
  71:lib/libdaisy/src/sys/system.h ****         QSPI,
  72:lib/libdaisy/src/sys/system.h ****         INVALID_ADDRESS,
  73:lib/libdaisy/src/sys/system.h ****     };
  74:lib/libdaisy/src/sys/system.h **** 
  75:lib/libdaisy/src/sys/system.h ****     /** Bootloader struct for controlling bootloading parameters */
  76:lib/libdaisy/src/sys/system.h ****     struct BootInfo
  77:lib/libdaisy/src/sys/system.h ****     {
  78:lib/libdaisy/src/sys/system.h ****         enum class Type : uint32_t
  79:lib/libdaisy/src/sys/system.h ****         {
  80:lib/libdaisy/src/sys/system.h ****             INVALID      = 0x00000000,
  81:lib/libdaisy/src/sys/system.h ****             JUMP         = 0xDEADBEEF,
  82:lib/libdaisy/src/sys/system.h ****             SKIP_TIMEOUT = 0x5AFEB007,
  83:lib/libdaisy/src/sys/system.h ****             INF_TIMEOUT  = 0xB0074EFA,
  84:lib/libdaisy/src/sys/system.h ****         } status;
  85:lib/libdaisy/src/sys/system.h ****         uint32_t data;
  86:lib/libdaisy/src/sys/system.h ****         enum class Version : uint32_t
  87:lib/libdaisy/src/sys/system.h ****         {
  88:lib/libdaisy/src/sys/system.h ****             LT_v6_0 = 0, // Less than v6.0
  89:lib/libdaisy/src/sys/system.h ****             NONE,        // No bootloader present
  90:lib/libdaisy/src/sys/system.h ****             v6_0,        // v6.0
  91:lib/libdaisy/src/sys/system.h ****             v6_1,        // v6.1 or greater
  92:lib/libdaisy/src/sys/system.h ****             LAST
  93:lib/libdaisy/src/sys/system.h ****         } version;
  94:lib/libdaisy/src/sys/system.h ****     };
  95:lib/libdaisy/src/sys/system.h **** 
  96:lib/libdaisy/src/sys/system.h ****     System() {}
  97:lib/libdaisy/src/sys/system.h ****     ~System() {}
  66              		.loc 4 97 5 is_stmt 1 view .LVU5
  67              		.loc 4 97 5 is_stmt 0 view .LVU6
  68              	.LBE583:
ARM GAS  /var/folders/9s/8rp0_f2s1n31qbztm3b5_fdh0000gn/T//ccUlKUex.s 			page 5


  69              	.LBB584:
  70              	.LBI584:
  71              		.file 5 "lib/libdaisy/src/hid/usb.h"
   1:lib/libdaisy/src/hid/usb.h **** #pragma once
   2:lib/libdaisy/src/hid/usb.h **** #ifndef DSY_HID_USB_H
   3:lib/libdaisy/src/hid/usb.h **** #define DSY_HID_USB_H
   4:lib/libdaisy/src/hid/usb.h **** #include <stdint.h>
   5:lib/libdaisy/src/hid/usb.h **** #include <stdlib.h>
   6:lib/libdaisy/src/hid/usb.h **** 
   7:lib/libdaisy/src/hid/usb.h **** namespace daisy
   8:lib/libdaisy/src/hid/usb.h **** /** @addtogroup human_interface
   9:lib/libdaisy/src/hid/usb.h ****     @{
  10:lib/libdaisy/src/hid/usb.h **** */
  11:lib/libdaisy/src/hid/usb.h **** 
  12:lib/libdaisy/src/hid/usb.h **** {
  13:lib/libdaisy/src/hid/usb.h **** /** 
  14:lib/libdaisy/src/hid/usb.h ****     @brief Interface for initializing and using the USB Peripherals on the daisy
  15:lib/libdaisy/src/hid/usb.h ****     @author Stephen Hensley
  16:lib/libdaisy/src/hid/usb.h ****     @date December 2019
  17:lib/libdaisy/src/hid/usb.h **** */
  18:lib/libdaisy/src/hid/usb.h **** class UsbHandle
  19:lib/libdaisy/src/hid/usb.h **** {
  20:lib/libdaisy/src/hid/usb.h ****   public:
  21:lib/libdaisy/src/hid/usb.h ****     /** Return values for USBHandle Functions */
  22:lib/libdaisy/src/hid/usb.h ****     enum class Result
  23:lib/libdaisy/src/hid/usb.h ****     {
  24:lib/libdaisy/src/hid/usb.h ****         OK,
  25:lib/libdaisy/src/hid/usb.h ****         ERR,
  26:lib/libdaisy/src/hid/usb.h ****     };
  27:lib/libdaisy/src/hid/usb.h **** 
  28:lib/libdaisy/src/hid/usb.h ****     /** Specified which of the two USB Peripherals to initialize. */
  29:lib/libdaisy/src/hid/usb.h ****     enum UsbPeriph
  30:lib/libdaisy/src/hid/usb.h ****     {
  31:lib/libdaisy/src/hid/usb.h ****         FS_INTERNAL, /**< Internal pin */
  32:lib/libdaisy/src/hid/usb.h ****         FS_EXTERNAL, /**< FS External D+ pin is Pin 38 (GPIO32). FS External D- pin is Pin 37 (GPIO
  33:lib/libdaisy/src/hid/usb.h ****         FS_BOTH,     /**< Both */
  34:lib/libdaisy/src/hid/usb.h ****     };
  35:lib/libdaisy/src/hid/usb.h **** 
  36:lib/libdaisy/src/hid/usb.h **** 
  37:lib/libdaisy/src/hid/usb.h ****     /** Function called upon reception of a buffer */
  38:lib/libdaisy/src/hid/usb.h ****     typedef void (*ReceiveCallback)(uint8_t* buff, uint32_t* len);
  39:lib/libdaisy/src/hid/usb.h **** 
  40:lib/libdaisy/src/hid/usb.h ****     UsbHandle() {}
  41:lib/libdaisy/src/hid/usb.h **** 
  42:lib/libdaisy/src/hid/usb.h ****     ~UsbHandle() {}
  72              		.loc 5 42 5 is_stmt 1 view .LVU7
  73              		.loc 5 42 5 is_stmt 0 view .LVU8
  74              	.LBE584:
  75              	.LBB585:
  76              	.LBI585:
  77              		.file 6 "lib/libdaisy/src/per/adc.h"
   1:lib/libdaisy/src/per/adc.h **** #pragma once
   2:lib/libdaisy/src/per/adc.h **** #ifndef DSY_ADC_H
   3:lib/libdaisy/src/per/adc.h **** #define DSY_ADC_H /**< Macro */
   4:lib/libdaisy/src/per/adc.h **** #include <stdint.h>
   5:lib/libdaisy/src/per/adc.h **** #include <stdlib.h>
   6:lib/libdaisy/src/per/adc.h **** #include "daisy_core.h"
ARM GAS  /var/folders/9s/8rp0_f2s1n31qbztm3b5_fdh0000gn/T//ccUlKUex.s 			page 6


   7:lib/libdaisy/src/per/adc.h **** #include "per/gpio.h"
   8:lib/libdaisy/src/per/adc.h **** 
   9:lib/libdaisy/src/per/adc.h **** #define DSY_ADC_MAX_CHANNELS 16 /**< Maximum number of ADC channels */
  10:lib/libdaisy/src/per/adc.h **** 
  11:lib/libdaisy/src/per/adc.h **** namespace daisy
  12:lib/libdaisy/src/per/adc.h **** {
  13:lib/libdaisy/src/per/adc.h **** /** @addtogroup per_analog
  14:lib/libdaisy/src/per/adc.h ****     @{
  15:lib/libdaisy/src/per/adc.h **** */
  16:lib/libdaisy/src/per/adc.h **** 
  17:lib/libdaisy/src/per/adc.h **** /* While there may not be many configuration options here,
  18:lib/libdaisy/src/per/adc.h **** using a struct like this allows us to add more configuration
  19:lib/libdaisy/src/per/adc.h **** later without breaking existing functionality.
  20:lib/libdaisy/src/per/adc.h **** */
  21:lib/libdaisy/src/per/adc.h **** 
  22:lib/libdaisy/src/per/adc.h **** /** @brief   Configuration Structure for an ADC Channel 
  23:lib/libdaisy/src/per/adc.h ****  *  @details This can be used to configure a a single input, 
  24:lib/libdaisy/src/per/adc.h ****  *           or a multiplexed input, allowing up to 8 inputs on 
  25:lib/libdaisy/src/per/adc.h ****  *           one channel.
  26:lib/libdaisy/src/per/adc.h ****  *  @note    Sharing data lines to multiple muxes _is_ possible, but
  27:lib/libdaisy/src/per/adc.h ****  *           each channel sharing data lines must be set to the maximum
  28:lib/libdaisy/src/per/adc.h ****  *           number of channels, even if some multiplexers have fewer
  29:lib/libdaisy/src/per/adc.h ****  *           inputs connected.
  30:lib/libdaisy/src/per/adc.h **** */
  31:lib/libdaisy/src/per/adc.h **** struct AdcChannelConfig
  32:lib/libdaisy/src/per/adc.h **** {
  33:lib/libdaisy/src/per/adc.h ****     /** Which pin to use for multiplexing */
  34:lib/libdaisy/src/per/adc.h ****     enum MuxPin
  35:lib/libdaisy/src/per/adc.h ****     {
  36:lib/libdaisy/src/per/adc.h ****         MUX_SEL_0,    /**< & */
  37:lib/libdaisy/src/per/adc.h ****         MUX_SEL_1,    /**< & */
  38:lib/libdaisy/src/per/adc.h ****         MUX_SEL_2,    /**< & */
  39:lib/libdaisy/src/per/adc.h ****         MUX_SEL_LAST, /**< & */
  40:lib/libdaisy/src/per/adc.h ****     };
  41:lib/libdaisy/src/per/adc.h **** 
  42:lib/libdaisy/src/per/adc.h ****     /** \brief per channel conversion speed added to fixed time based on bitdepth, etc. */
  43:lib/libdaisy/src/per/adc.h ****     enum ConversionSpeed
  44:lib/libdaisy/src/per/adc.h ****     {
  45:lib/libdaisy/src/per/adc.h ****         SPEED_1CYCLES_5,
  46:lib/libdaisy/src/per/adc.h ****         SPEED_2CYCLES_5,
  47:lib/libdaisy/src/per/adc.h ****         SPEED_8CYCLES_5,
  48:lib/libdaisy/src/per/adc.h ****         SPEED_16CYCLES_5,
  49:lib/libdaisy/src/per/adc.h ****         SPEED_32CYCLES_5,
  50:lib/libdaisy/src/per/adc.h ****         SPEED_64CYCLES_5,
  51:lib/libdaisy/src/per/adc.h ****         SPEED_387CYCLES_5,
  52:lib/libdaisy/src/per/adc.h ****         SPEED_810CYCLES_5,
  53:lib/libdaisy/src/per/adc.h ****     };
  54:lib/libdaisy/src/per/adc.h **** 
  55:lib/libdaisy/src/per/adc.h ****     /** Initializes a single ADC pin as an ADC. 
  56:lib/libdaisy/src/per/adc.h ****     \param pin Pin to init.
  57:lib/libdaisy/src/per/adc.h ****     \param speed conversion speed for this pin defaults to 8.5 cycles
  58:lib/libdaisy/src/per/adc.h ****      */
  59:lib/libdaisy/src/per/adc.h ****     void InitSingle(Pin pin, ConversionSpeed speed = SPEED_8CYCLES_5);
  60:lib/libdaisy/src/per/adc.h **** 
  61:lib/libdaisy/src/per/adc.h ****     /** 
  62:lib/libdaisy/src/per/adc.h ****     Initializes a single ADC pin as a Multiplexed ADC.
  63:lib/libdaisy/src/per/adc.h ****     Requires a CD405X Multiplexer connected to the pin.
ARM GAS  /var/folders/9s/8rp0_f2s1n31qbztm3b5_fdh0000gn/T//ccUlKUex.s 			page 7


  64:lib/libdaisy/src/per/adc.h ****     You only need to supply the mux pins that are required,
  65:lib/libdaisy/src/per/adc.h ****     e.g. a 4052 mux would only require mux_0 and mux_1.
  66:lib/libdaisy/src/per/adc.h ****     Internal Callbacks handle the pin addressing.
  67:lib/libdaisy/src/per/adc.h ****     \param adc_pin &
  68:lib/libdaisy/src/per/adc.h ****     \param mux_channels must be 1-8
  69:lib/libdaisy/src/per/adc.h ****     \param mux_0 First mux pin
  70:lib/libdaisy/src/per/adc.h ****     \param mux_1 Second mux pin
  71:lib/libdaisy/src/per/adc.h ****     \param mux_2 Third mux pin
  72:lib/libdaisy/src/per/adc.h ****     \param speed conversion speed for this pin defaults to 8.5 cycles
  73:lib/libdaisy/src/per/adc.h ****     */
  74:lib/libdaisy/src/per/adc.h ****     void InitMux(Pin             adc_pin,
  75:lib/libdaisy/src/per/adc.h ****                  size_t          mux_channels,
  76:lib/libdaisy/src/per/adc.h ****                  Pin             mux_0,
  77:lib/libdaisy/src/per/adc.h ****                  Pin             mux_1 = Pin(PORTX, 0),
  78:lib/libdaisy/src/per/adc.h ****                  Pin             mux_2 = Pin(PORTX, 0),
  79:lib/libdaisy/src/per/adc.h ****                  ConversionSpeed speed = SPEED_8CYCLES_5);
  80:lib/libdaisy/src/per/adc.h **** 
  81:lib/libdaisy/src/per/adc.h ****     GPIO            pin_;                   /**< & */
  82:lib/libdaisy/src/per/adc.h ****     GPIO            mux_pin_[MUX_SEL_LAST]; /**< & */
  83:lib/libdaisy/src/per/adc.h ****     uint8_t         mux_channels_;          /**< & */
  84:lib/libdaisy/src/per/adc.h ****     ConversionSpeed speed_;
  85:lib/libdaisy/src/per/adc.h **** };
  86:lib/libdaisy/src/per/adc.h **** 
  87:lib/libdaisy/src/per/adc.h **** /**
  88:lib/libdaisy/src/per/adc.h ****    @brief Handler for analog to digital conversion
  89:lib/libdaisy/src/per/adc.h **** */
  90:lib/libdaisy/src/per/adc.h **** class AdcHandle
  91:lib/libdaisy/src/per/adc.h **** {
  92:lib/libdaisy/src/per/adc.h ****   public:
  93:lib/libdaisy/src/per/adc.h ****     /** Supported oversampling amounts */
  94:lib/libdaisy/src/per/adc.h ****     enum OverSampling
  95:lib/libdaisy/src/per/adc.h ****     {
  96:lib/libdaisy/src/per/adc.h ****         OVS_NONE, /**< & */
  97:lib/libdaisy/src/per/adc.h ****         OVS_4,    /**< & */
  98:lib/libdaisy/src/per/adc.h ****         OVS_8,    /**< & */
  99:lib/libdaisy/src/per/adc.h ****         OVS_16,   /**< & */
 100:lib/libdaisy/src/per/adc.h ****         OVS_32,   /**< & */
 101:lib/libdaisy/src/per/adc.h ****         OVS_64,   /**< & */
 102:lib/libdaisy/src/per/adc.h ****         OVS_128,  /**< & */
 103:lib/libdaisy/src/per/adc.h ****         OVS_256,  /**< & */
 104:lib/libdaisy/src/per/adc.h ****         OVS_512,  /**< & */
 105:lib/libdaisy/src/per/adc.h ****         OVS_1024, /**< & */
 106:lib/libdaisy/src/per/adc.h ****         OVS_LAST, /**< & */
 107:lib/libdaisy/src/per/adc.h ****     };
 108:lib/libdaisy/src/per/adc.h **** 
 109:lib/libdaisy/src/per/adc.h ****     AdcHandle() {}
 110:lib/libdaisy/src/per/adc.h ****     ~AdcHandle() {}
  78              		.loc 6 110 5 is_stmt 1 view .LVU9
  79              		.loc 6 110 5 is_stmt 0 view .LVU10
  80              	.LBE585:
  81              	.LBB586:
  82              	.LBI586:
  83              		.file 7 "lib/libdaisy/src/hid/audio.h"
   1:lib/libdaisy/src/hid/audio.h **** #ifndef DSY_AUDIO_H
   2:lib/libdaisy/src/hid/audio.h **** #define DSY_AUDIO_H /**< & */
   3:lib/libdaisy/src/hid/audio.h **** 
   4:lib/libdaisy/src/hid/audio.h **** #include "per/sai.h"
ARM GAS  /var/folders/9s/8rp0_f2s1n31qbztm3b5_fdh0000gn/T//ccUlKUex.s 			page 8


   5:lib/libdaisy/src/hid/audio.h **** 
   6:lib/libdaisy/src/hid/audio.h **** namespace daisy
   7:lib/libdaisy/src/hid/audio.h **** {
   8:lib/libdaisy/src/hid/audio.h **** /** @brief Audio Engine Handle
   9:lib/libdaisy/src/hid/audio.h ****  *  @ingroup audio 
  10:lib/libdaisy/src/hid/audio.h ****  *  @details This class allows for higher level access to an audio engine.
  11:lib/libdaisy/src/hid/audio.h ****  *           If you're using a SOM like the DaisySeed or DaisyPatchSM (or any 
  12:lib/libdaisy/src/hid/audio.h ****  *            board that includes one of those objects) then the intialization
  13:lib/libdaisy/src/hid/audio.h ****  *            is already taken  care of.
  14:lib/libdaisy/src/hid/audio.h ****  *           If you're setting up your own custom hardware, or need to make changes
  15:lib/libdaisy/src/hid/audio.h ****  *           you will have to take the following steps:
  16:lib/libdaisy/src/hid/audio.h ****  *             1. Create and Initialize an SaiHandle or two depending on your requirements
  17:lib/libdaisy/src/hid/audio.h ****  *             2. Initialize the Audio Handle with the desired settings and the Initialized SaiHand
  18:lib/libdaisy/src/hid/audio.h ****  *             3. If the connected codec requires special configuration or initialization, do so
  19:lib/libdaisy/src/hid/audio.h ****  *             4. Write a callback method using either the AudioCallback or the InterleavingAudioCa
  20:lib/libdaisy/src/hid/audio.h ****  *             5. Start the Audio using one of the StartAudio function
  21:lib/libdaisy/src/hid/audio.h ****  */
  22:lib/libdaisy/src/hid/audio.h **** class AudioHandle
  23:lib/libdaisy/src/hid/audio.h **** {
  24:lib/libdaisy/src/hid/audio.h ****   public:
  25:lib/libdaisy/src/hid/audio.h ****     /** Manually configurable details about the Audio Engine */
  26:lib/libdaisy/src/hid/audio.h ****     /** TODO: Figure out how to get samplerate in here. */
  27:lib/libdaisy/src/hid/audio.h ****     struct Config
  28:lib/libdaisy/src/hid/audio.h ****     {
  29:lib/libdaisy/src/hid/audio.h ****         /** number of samples to process per callback */
  30:lib/libdaisy/src/hid/audio.h ****         size_t blocksize = 48;
  31:lib/libdaisy/src/hid/audio.h **** 
  32:lib/libdaisy/src/hid/audio.h ****         /**< Sample rate of audio */
  33:lib/libdaisy/src/hid/audio.h ****         SaiHandle::Config::SampleRate samplerate
  34:lib/libdaisy/src/hid/audio.h ****             = SaiHandle::Config::SampleRate::SAI_48KHZ;
  35:lib/libdaisy/src/hid/audio.h **** 
  36:lib/libdaisy/src/hid/audio.h ****         /** factor for adjustment before and after callback for hardware that may have extra headro
  37:lib/libdaisy/src/hid/audio.h ****         float postgain = 1.f;
  38:lib/libdaisy/src/hid/audio.h **** 
  39:lib/libdaisy/src/hid/audio.h ****         /** factor for additional one-sided compensation to audio path for hardware that may
  40:lib/libdaisy/src/hid/audio.h ****          *  have unequal input/output ranges
  41:lib/libdaisy/src/hid/audio.h ****          */
  42:lib/libdaisy/src/hid/audio.h ****         float output_compensation = 1.f;
  43:lib/libdaisy/src/hid/audio.h ****     };
  44:lib/libdaisy/src/hid/audio.h **** 
  45:lib/libdaisy/src/hid/audio.h ****     enum class Result
  46:lib/libdaisy/src/hid/audio.h ****     {
  47:lib/libdaisy/src/hid/audio.h ****         OK,
  48:lib/libdaisy/src/hid/audio.h ****         ERR,
  49:lib/libdaisy/src/hid/audio.h ****     };
  50:lib/libdaisy/src/hid/audio.h **** 
  51:lib/libdaisy/src/hid/audio.h ****     /** Non-Interleaving input buffer
  52:lib/libdaisy/src/hid/audio.h ****      * Buffer arranged by float[chn][sample] 
  53:lib/libdaisy/src/hid/audio.h ****      * const so that the user can't modify the input
  54:lib/libdaisy/src/hid/audio.h ****      */
  55:lib/libdaisy/src/hid/audio.h ****     typedef const float* const* InputBuffer;
  56:lib/libdaisy/src/hid/audio.h **** 
  57:lib/libdaisy/src/hid/audio.h ****     /** Non-Interleaving output buffer
  58:lib/libdaisy/src/hid/audio.h ****      * Arranged by float[chn][sample] 
  59:lib/libdaisy/src/hid/audio.h ****      */
  60:lib/libdaisy/src/hid/audio.h ****     typedef float** OutputBuffer;
  61:lib/libdaisy/src/hid/audio.h **** 
ARM GAS  /var/folders/9s/8rp0_f2s1n31qbztm3b5_fdh0000gn/T//ccUlKUex.s 			page 9


  62:lib/libdaisy/src/hid/audio.h ****     /** Type for a Non-Interleaving audio callback 
  63:lib/libdaisy/src/hid/audio.h ****      * Non-Interleaving audio callbacks in daisy will be of this type
  64:lib/libdaisy/src/hid/audio.h ****      */
  65:lib/libdaisy/src/hid/audio.h ****     typedef void (*AudioCallback)(InputBuffer  in,
  66:lib/libdaisy/src/hid/audio.h ****                                   OutputBuffer out,
  67:lib/libdaisy/src/hid/audio.h ****                                   size_t       size);
  68:lib/libdaisy/src/hid/audio.h **** 
  69:lib/libdaisy/src/hid/audio.h ****     /** Interleaving Input buffer
  70:lib/libdaisy/src/hid/audio.h ****      ** audio is prepared as { L0, R0, L1, R1, . . . LN, RN }]
  71:lib/libdaisy/src/hid/audio.h ****      ** this is const, as the user shouldn't modify it
  72:lib/libdaisy/src/hid/audio.h ****     */
  73:lib/libdaisy/src/hid/audio.h ****     typedef const float* InterleavingInputBuffer;
  74:lib/libdaisy/src/hid/audio.h **** 
  75:lib/libdaisy/src/hid/audio.h ****     /** Interleaving Output buffer 
  76:lib/libdaisy/src/hid/audio.h ****      ** audio is prepared as { L0, R0, L1, R1, . . . LN, RN }
  77:lib/libdaisy/src/hid/audio.h ****     */
  78:lib/libdaisy/src/hid/audio.h ****     typedef float* InterleavingOutputBuffer;
  79:lib/libdaisy/src/hid/audio.h **** 
  80:lib/libdaisy/src/hid/audio.h ****     /** Interleaving Audio Callback 
  81:lib/libdaisy/src/hid/audio.h ****      * Interleaving audio callbacks in daisy must be of this type
  82:lib/libdaisy/src/hid/audio.h ****      */
  83:lib/libdaisy/src/hid/audio.h ****     typedef void (*InterleavingAudioCallback)(InterleavingInputBuffer  in,
  84:lib/libdaisy/src/hid/audio.h ****                                               InterleavingOutputBuffer out,
  85:lib/libdaisy/src/hid/audio.h ****                                               size_t                   size);
  86:lib/libdaisy/src/hid/audio.h **** 
  87:lib/libdaisy/src/hid/audio.h ****     AudioHandle() : pimpl_(nullptr) {}
  88:lib/libdaisy/src/hid/audio.h ****     ~AudioHandle() {}
  84              		.loc 7 88 5 is_stmt 1 view .LVU11
  85              		.loc 7 88 5 is_stmt 0 view .LVU12
  86              	.LBE586:
  87              		.loc 2 22 19 view .LVU13
  88 0000 7047     		bx	lr
  89              		.cfi_endproc
  90              	.LFE2646:
  92              		.weak	_ZN5daisy9DaisySeedD1Ev
  93              		.thumb_set _ZN5daisy9DaisySeedD1Ev,_ZN5daisy9DaisySeedD2Ev
  94              		.section	.text._ZN14thaumazein_hal6Mpr121D2Ev,"axG",%progbits,_ZN14thaumazein_hal6Mpr121D5Ev,comda
  95              		.align	1
  96              		.weak	_ZN14thaumazein_hal6Mpr121D2Ev
  97              		.syntax unified
  98              		.thumb
  99              		.thumb_func
 101              	_ZN14thaumazein_hal6Mpr121D2Ev:
 102              	.LVL2:
 103              	.LFB5462:
 104              		.file 8 "mpr121_daisy.h"
   1:mpr121_daisy.h **** #pragma once
   2:mpr121_daisy.h **** #ifndef MPR121_DAISY_H
   3:mpr121_daisy.h **** #define MPR121_DAISY_H
   4:mpr121_daisy.h **** 
   5:mpr121_daisy.h **** #include "daisy_seed.h"
   6:mpr121_daisy.h **** #include "per/i2c.h"
   7:mpr121_daisy.h **** 
   8:mpr121_daisy.h **** // Add a namespace to avoid collision with daisy::Mpr121
   9:mpr121_daisy.h **** namespace thaumazein_hal {
  10:mpr121_daisy.h **** 
  11:mpr121_daisy.h **** using namespace daisy; // Keep daisy namespace accessible within thaumazein_hal for convenience
ARM GAS  /var/folders/9s/8rp0_f2s1n31qbztm3b5_fdh0000gn/T//ccUlKUex.s 			page 10


  12:mpr121_daisy.h **** 
  13:mpr121_daisy.h **** /// mp
  14:mpr121_daisy.h **** 
  15:mpr121_daisy.h **** // Register map
  16:mpr121_daisy.h **** #define MPR121_TOUCHSTATUS_L 0x00
  17:mpr121_daisy.h **** #define MPR121_TOUCHSTATUS_H 0x01
  18:mpr121_daisy.h **** #define MPR121_FILTDATA_0L 0x04
  19:mpr121_daisy.h **** #define MPR121_FILTDATA_0H 0x05
  20:mpr121_daisy.h **** #define MPR121_BASELINE_0 0x1E
  21:mpr121_daisy.h **** #define MPR121_MHDR 0x2B
  22:mpr121_daisy.h **** #define MPR121_NHDR 0x2C
  23:mpr121_daisy.h **** #define MPR121_NCLR 0x2D
  24:mpr121_daisy.h **** #define MPR121_FDLR 0x2E
  25:mpr121_daisy.h **** #define MPR121_MHDF 0x2F
  26:mpr121_daisy.h **** #define MPR121_NHDF 0x30
  27:mpr121_daisy.h **** #define MPR121_NCLF 0x31
  28:mpr121_daisy.h **** #define MPR121_FDLF 0x32
  29:mpr121_daisy.h **** #define MPR121_NHDT 0x33
  30:mpr121_daisy.h **** #define MPR121_NCLT 0x34
  31:mpr121_daisy.h **** #define MPR121_FDLT 0x35
  32:mpr121_daisy.h **** 
  33:mpr121_daisy.h **** #define MPR121_TOUCHTH_0 0x41
  34:mpr121_daisy.h **** #define MPR121_RELEASETH_0 0x42
  35:mpr121_daisy.h **** #define MPR121_DEBOUNCE 0x5B
  36:mpr121_daisy.h **** #define MPR121_CONFIG1 0x5C
  37:mpr121_daisy.h **** #define MPR121_CONFIG2 0x5D
  38:mpr121_daisy.h **** #define MPR121_CHARGECURR_0 0x5F
  39:mpr121_daisy.h **** #define MPR121_CHARGETIME_1 0x6C
  40:mpr121_daisy.h **** #define MPR121_ECR 0x5E
  41:mpr121_daisy.h **** #define MPR121_AUTOCONFIG0 0x7B
  42:mpr121_daisy.h **** #define MPR121_AUTOCONFIG1 0x7C
  43:mpr121_daisy.h **** #define MPR121_UPLIMIT 0x7D
  44:mpr121_daisy.h **** #define MPR121_LOWLIMIT 0x7E
  45:mpr121_daisy.h **** #define MPR121_TARGETLIMIT 0x7F
  46:mpr121_daisy.h **** 
  47:mpr121_daisy.h **** #define MPR121_GPIODIR 0x76
  48:mpr121_daisy.h **** #define MPR121_GPIOEN 0x77
  49:mpr121_daisy.h **** #define MPR121_GPIOSET 0x78
  50:mpr121_daisy.h **** #define MPR121_GPIOCLR 0x79
  51:mpr121_daisy.h **** #define MPR121_GPIOTOGGLE 0x7A
  52:mpr121_daisy.h **** 
  53:mpr121_daisy.h **** #define MPR121_SOFTRESET 0x80
  54:mpr121_daisy.h **** #define MPR121_I2CADDR_DEFAULT 0x5A
  55:mpr121_daisy.h **** 
  56:mpr121_daisy.h **** class Mpr121
  57:mpr121_daisy.h **** {
  58:mpr121_daisy.h ****   public:
  59:mpr121_daisy.h ****     Mpr121() {}
  60:mpr121_daisy.h ****     ~Mpr121() {}
 105              		.loc 8 60 5 is_stmt 1 view -0
 106              		.cfi_startproc
 107              		@ args = 0, pretend = 0, frame = 0
 108              		@ frame_needed = 0, uses_anonymous_args = 0
 109              		@ link register save eliminated.
 110              		.loc 8 60 16 is_stmt 0 view .LVU15
 111 0000 7047     		bx	lr
 112              		.cfi_endproc
ARM GAS  /var/folders/9s/8rp0_f2s1n31qbztm3b5_fdh0000gn/T//ccUlKUex.s 			page 11


 113              	.LFE5462:
 115              		.weak	_ZN14thaumazein_hal6Mpr121D1Ev
 116              		.thumb_set _ZN14thaumazein_hal6Mpr121D1Ev,_ZN14thaumazein_hal6Mpr121D2Ev
 117              		.section	.text._ZN10infrasonic9EchoDelayILj48000EED2Ev,"axG",%progbits,_ZN10infrasonic9EchoDelayIL
 118              		.align	1
 119              		.weak	_ZN10infrasonic9EchoDelayILj48000EED2Ev
 120              		.syntax unified
 121              		.thumb
 122              		.thumb_func
 124              	_ZN10infrasonic9EchoDelayILj48000EED2Ev:
 125              	.LVL3:
 126              	.LFB6683:
 127              		.file 9 "Effects/EchoDelay.h"
   1:Effects/EchoDelay.h **** #pragma once
   2:Effects/EchoDelay.h **** #ifndef INFS_ECHODELAY_H
   3:Effects/EchoDelay.h **** #define INFS_ECHODELAY_H
   4:Effects/EchoDelay.h **** 
   5:Effects/EchoDelay.h **** #include <daisysp.h>
   6:Effects/EchoDelay.h **** #include "BiquadFilters.h"
   7:Effects/EchoDelay.h **** #include "DSPUtils.h"
   8:Effects/EchoDelay.h **** 
   9:Effects/EchoDelay.h **** namespace infrasonic {
  10:Effects/EchoDelay.h **** 
  11:Effects/EchoDelay.h **** /**
  12:Effects/EchoDelay.h ****  * @brief
  13:Effects/EchoDelay.h ****  * Tape-ish echo delay.
  14:Effects/EchoDelay.h ****  *   - Feedback is unbounded, but signal is soft-clipped
  15:Effects/EchoDelay.h ****  *   - Output is full-wet, should be mixed with dry signal externally
  16:Effects/EchoDelay.h ****  *
  17:Effects/EchoDelay.h ****  * @tparam MaxLength Max length of delay in samples
  18:Effects/EchoDelay.h ****  */
  19:Effects/EchoDelay.h **** template<size_t MaxLength>
  20:Effects/EchoDelay.h **** class EchoDelay {
  21:Effects/EchoDelay.h **** 
  22:Effects/EchoDelay.h ****     public:
  23:Effects/EchoDelay.h **** 
  24:Effects/EchoDelay.h ****         EchoDelay() {}
  25:Effects/EchoDelay.h ****         ~EchoDelay() {}
 128              		.loc 9 25 9 is_stmt 1 view -0
 129              		.cfi_startproc
 130              		@ args = 0, pretend = 0, frame = 0
 131              		@ frame_needed = 0, uses_anonymous_args = 0
 132              		@ link register save eliminated.
 133              	.LBB587:
 134              	.LBI587:
 135              		.file 10 "Effects/BiquadFilters.h"
   1:Effects/BiquadFilters.h **** #pragma once
   2:Effects/BiquadFilters.h **** #ifndef INFS_BIQUADFILTERS_H
   3:Effects/BiquadFilters.h **** #define INFS_BIQUADFILTERS_H
   4:Effects/BiquadFilters.h **** 
   5:Effects/BiquadFilters.h **** #include <cassert>
   6:Effects/BiquadFilters.h **** #include <array>
   7:Effects/BiquadFilters.h **** #include <daisysp.h>
   8:Effects/BiquadFilters.h **** 
   9:Effects/BiquadFilters.h **** namespace infrasonic {
  10:Effects/BiquadFilters.h **** 
  11:Effects/BiquadFilters.h **** /**
ARM GAS  /var/folders/9s/8rp0_f2s1n31qbztm3b5_fdh0000gn/T//ccUlKUex.s 			page 12


  12:Effects/BiquadFilters.h ****  *  Single precision 2nd order biquad filter section with support for stereo processing.
  13:Effects/BiquadFilters.h ****  *  NOTE: There are templated filter definitions at the bottom of this file for convenience. 
  14:Effects/BiquadFilters.h ****  */
  15:Effects/BiquadFilters.h **** class BiquadSection {
  16:Effects/BiquadFilters.h **** 
  17:Effects/BiquadFilters.h ****     public:
  18:Effects/BiquadFilters.h **** 
  19:Effects/BiquadFilters.h ****         enum class FilterType {
  20:Effects/BiquadFilters.h ****             LowPass,
  21:Effects/BiquadFilters.h ****             HighPass,
  22:Effects/BiquadFilters.h ****             BandPass
  23:Effects/BiquadFilters.h ****         };
  24:Effects/BiquadFilters.h **** 
  25:Effects/BiquadFilters.h ****         // Assumes normalized coefficients (a0 == 1)
  26:Effects/BiquadFilters.h ****         // Ordering numerator then denominator: {b0, b1, b2, a1, a2}
  27:Effects/BiquadFilters.h ****         using Coefficients = std::array<float, 5>;
  28:Effects/BiquadFilters.h **** 
  29:Effects/BiquadFilters.h ****         static const Coefficients CalculateCoefficients(const FilterType type, 
  30:Effects/BiquadFilters.h ****                                                         const float sample_rate,
  31:Effects/BiquadFilters.h ****                                                         const float cutoff_hz,
  32:Effects/BiquadFilters.h ****                                                         const float q);
  33:Effects/BiquadFilters.h **** 
  34:Effects/BiquadFilters.h ****         BiquadSection() {}
  35:Effects/BiquadFilters.h ****         ~BiquadSection() {}
  36:Effects/BiquadFilters.h **** 
  37:Effects/BiquadFilters.h ****         void SetCoefficients(const Coefficients coefficients) { coefs_ = coefficients; }
  38:Effects/BiquadFilters.h **** 
  39:Effects/BiquadFilters.h ****         inline float Process(const float in, const int channel)
  40:Effects/BiquadFilters.h ****         {
  41:Effects/BiquadFilters.h ****             assert(channel < 2);
  42:Effects/BiquadFilters.h **** 
  43:Effects/BiquadFilters.h ****             // TODO: arm accelerated version
  44:Effects/BiquadFilters.h **** 
  45:Effects/BiquadFilters.h ****             const float &b0 = coefs_[0];
  46:Effects/BiquadFilters.h ****             const float &b1 = coefs_[1];
  47:Effects/BiquadFilters.h ****             const float &b2 = coefs_[2];
  48:Effects/BiquadFilters.h ****             const float &a1 = coefs_[3];
  49:Effects/BiquadFilters.h ****             const float &a2 = coefs_[4];
  50:Effects/BiquadFilters.h **** 
  51:Effects/BiquadFilters.h ****             // Transposed direct form 2
  52:Effects/BiquadFilters.h ****             float y = b0 * in + s1_[channel];
  53:Effects/BiquadFilters.h ****             s1_[channel] = s2_[channel] + in * b1 - a1 * y;
  54:Effects/BiquadFilters.h ****             s2_[channel] = b2 * in - a2 * y;
  55:Effects/BiquadFilters.h ****             return y;
  56:Effects/BiquadFilters.h ****         }
  57:Effects/BiquadFilters.h **** 
  58:Effects/BiquadFilters.h ****     private:
  59:Effects/BiquadFilters.h ****         // coef
  60:Effects/BiquadFilters.h ****         Coefficients coefs_{0, 0, 0, 0, 0};
  61:Effects/BiquadFilters.h **** 
  62:Effects/BiquadFilters.h ****         // state
  63:Effects/BiquadFilters.h ****         float s1_[2] = {0, 0};
  64:Effects/BiquadFilters.h ****         float s2_[2] = {0, 0};
  65:Effects/BiquadFilters.h **** 
  66:Effects/BiquadFilters.h **** };
  67:Effects/BiquadFilters.h **** 
  68:Effects/BiquadFilters.h **** /// Templated cascaded biquad filter. Filter Order = 2 * NumSections.
ARM GAS  /var/folders/9s/8rp0_f2s1n31qbztm3b5_fdh0000gn/T//ccUlKUex.s 			page 13


  69:Effects/BiquadFilters.h **** /// NOTE: Only supports even-ordered filters.
  70:Effects/BiquadFilters.h **** template<size_t NumSections, BiquadSection::FilterType FilterType>
  71:Effects/BiquadFilters.h **** class BiquadCascade {
  72:Effects/BiquadFilters.h **** 
  73:Effects/BiquadFilters.h ****     static_assert(NumSections > 0, "Must have at least one section");
  74:Effects/BiquadFilters.h **** 
  75:Effects/BiquadFilters.h ****     public:
  76:Effects/BiquadFilters.h ****         BiquadCascade() {}
  77:Effects/BiquadFilters.h ****         ~BiquadCascade() {}
 136              		.loc 10 77 9 view .LVU17
 137              	.LBB588:
 138              	.LBI588:
 139              		.file 11 "/Library/DaisyToolchain/0.2.0/arm/arm-none-eabi/include/c++/10.3.1/array"
   1:/Library/DaisyToolchain/0.2.0/arm/arm-none-eabi/include/c++/10.3.1/array **** // <array> -*- C++ -*-
   2:/Library/DaisyToolchain/0.2.0/arm/arm-none-eabi/include/c++/10.3.1/array **** 
   3:/Library/DaisyToolchain/0.2.0/arm/arm-none-eabi/include/c++/10.3.1/array **** // Copyright (C) 2007-2020 Free Software Foundation, Inc.
   4:/Library/DaisyToolchain/0.2.0/arm/arm-none-eabi/include/c++/10.3.1/array **** //
   5:/Library/DaisyToolchain/0.2.0/arm/arm-none-eabi/include/c++/10.3.1/array **** // This file is part of the GNU ISO C++ Library.  This library is free
   6:/Library/DaisyToolchain/0.2.0/arm/arm-none-eabi/include/c++/10.3.1/array **** // software; you can redistribute it and/or modify it under the
   7:/Library/DaisyToolchain/0.2.0/arm/arm-none-eabi/include/c++/10.3.1/array **** // terms of the GNU General Public License as published by the
   8:/Library/DaisyToolchain/0.2.0/arm/arm-none-eabi/include/c++/10.3.1/array **** // Free Software Foundation; either version 3, or (at your option)
   9:/Library/DaisyToolchain/0.2.0/arm/arm-none-eabi/include/c++/10.3.1/array **** // any later version.
  10:/Library/DaisyToolchain/0.2.0/arm/arm-none-eabi/include/c++/10.3.1/array **** 
  11:/Library/DaisyToolchain/0.2.0/arm/arm-none-eabi/include/c++/10.3.1/array **** // This library is distributed in the hope that it will be useful,
  12:/Library/DaisyToolchain/0.2.0/arm/arm-none-eabi/include/c++/10.3.1/array **** // but WITHOUT ANY WARRANTY; without even the implied warranty of
  13:/Library/DaisyToolchain/0.2.0/arm/arm-none-eabi/include/c++/10.3.1/array **** // MERCHANTABILITY or FITNESS FOR A PARTICULAR PURPOSE.  See the
  14:/Library/DaisyToolchain/0.2.0/arm/arm-none-eabi/include/c++/10.3.1/array **** // GNU General Public License for more details.
  15:/Library/DaisyToolchain/0.2.0/arm/arm-none-eabi/include/c++/10.3.1/array **** 
  16:/Library/DaisyToolchain/0.2.0/arm/arm-none-eabi/include/c++/10.3.1/array **** // Under Section 7 of GPL version 3, you are granted additional
  17:/Library/DaisyToolchain/0.2.0/arm/arm-none-eabi/include/c++/10.3.1/array **** // permissions described in the GCC Runtime Library Exception, version
  18:/Library/DaisyToolchain/0.2.0/arm/arm-none-eabi/include/c++/10.3.1/array **** // 3.1, as published by the Free Software Foundation.
  19:/Library/DaisyToolchain/0.2.0/arm/arm-none-eabi/include/c++/10.3.1/array **** 
  20:/Library/DaisyToolchain/0.2.0/arm/arm-none-eabi/include/c++/10.3.1/array **** // You should have received a copy of the GNU General Public License and
  21:/Library/DaisyToolchain/0.2.0/arm/arm-none-eabi/include/c++/10.3.1/array **** // a copy of the GCC Runtime Library Exception along with this program;
  22:/Library/DaisyToolchain/0.2.0/arm/arm-none-eabi/include/c++/10.3.1/array **** // see the files COPYING3 and COPYING.RUNTIME respectively.  If not, see
  23:/Library/DaisyToolchain/0.2.0/arm/arm-none-eabi/include/c++/10.3.1/array **** // <http://www.gnu.org/licenses/>.
  24:/Library/DaisyToolchain/0.2.0/arm/arm-none-eabi/include/c++/10.3.1/array **** 
  25:/Library/DaisyToolchain/0.2.0/arm/arm-none-eabi/include/c++/10.3.1/array **** /** @file include/array
  26:/Library/DaisyToolchain/0.2.0/arm/arm-none-eabi/include/c++/10.3.1/array ****  *  This is a Standard C++ Library header.
  27:/Library/DaisyToolchain/0.2.0/arm/arm-none-eabi/include/c++/10.3.1/array ****  */
  28:/Library/DaisyToolchain/0.2.0/arm/arm-none-eabi/include/c++/10.3.1/array **** 
  29:/Library/DaisyToolchain/0.2.0/arm/arm-none-eabi/include/c++/10.3.1/array **** #ifndef _GLIBCXX_ARRAY
  30:/Library/DaisyToolchain/0.2.0/arm/arm-none-eabi/include/c++/10.3.1/array **** #define _GLIBCXX_ARRAY 1
  31:/Library/DaisyToolchain/0.2.0/arm/arm-none-eabi/include/c++/10.3.1/array **** 
  32:/Library/DaisyToolchain/0.2.0/arm/arm-none-eabi/include/c++/10.3.1/array **** #pragma GCC system_header
  33:/Library/DaisyToolchain/0.2.0/arm/arm-none-eabi/include/c++/10.3.1/array **** 
  34:/Library/DaisyToolchain/0.2.0/arm/arm-none-eabi/include/c++/10.3.1/array **** #if __cplusplus < 201103L
  35:/Library/DaisyToolchain/0.2.0/arm/arm-none-eabi/include/c++/10.3.1/array **** # include <bits/c++0x_warning.h>
  36:/Library/DaisyToolchain/0.2.0/arm/arm-none-eabi/include/c++/10.3.1/array **** #else
  37:/Library/DaisyToolchain/0.2.0/arm/arm-none-eabi/include/c++/10.3.1/array **** 
  38:/Library/DaisyToolchain/0.2.0/arm/arm-none-eabi/include/c++/10.3.1/array **** #include <utility>
  39:/Library/DaisyToolchain/0.2.0/arm/arm-none-eabi/include/c++/10.3.1/array **** #include <bits/functexcept.h>
  40:/Library/DaisyToolchain/0.2.0/arm/arm-none-eabi/include/c++/10.3.1/array **** #include <bits/stl_algobase.h>
  41:/Library/DaisyToolchain/0.2.0/arm/arm-none-eabi/include/c++/10.3.1/array **** #include <bits/range_access.h>
  42:/Library/DaisyToolchain/0.2.0/arm/arm-none-eabi/include/c++/10.3.1/array **** 
  43:/Library/DaisyToolchain/0.2.0/arm/arm-none-eabi/include/c++/10.3.1/array **** namespace std _GLIBCXX_VISIBILITY(default)
  44:/Library/DaisyToolchain/0.2.0/arm/arm-none-eabi/include/c++/10.3.1/array **** {
ARM GAS  /var/folders/9s/8rp0_f2s1n31qbztm3b5_fdh0000gn/T//ccUlKUex.s 			page 14


  45:/Library/DaisyToolchain/0.2.0/arm/arm-none-eabi/include/c++/10.3.1/array **** _GLIBCXX_BEGIN_NAMESPACE_CONTAINER
  46:/Library/DaisyToolchain/0.2.0/arm/arm-none-eabi/include/c++/10.3.1/array **** 
  47:/Library/DaisyToolchain/0.2.0/arm/arm-none-eabi/include/c++/10.3.1/array ****   template<typename _Tp, std::size_t _Nm>
  48:/Library/DaisyToolchain/0.2.0/arm/arm-none-eabi/include/c++/10.3.1/array ****     struct __array_traits
  49:/Library/DaisyToolchain/0.2.0/arm/arm-none-eabi/include/c++/10.3.1/array ****     {
  50:/Library/DaisyToolchain/0.2.0/arm/arm-none-eabi/include/c++/10.3.1/array ****       typedef _Tp _Type[_Nm];
  51:/Library/DaisyToolchain/0.2.0/arm/arm-none-eabi/include/c++/10.3.1/array ****       typedef __is_swappable<_Tp> _Is_swappable;
  52:/Library/DaisyToolchain/0.2.0/arm/arm-none-eabi/include/c++/10.3.1/array ****       typedef __is_nothrow_swappable<_Tp> _Is_nothrow_swappable;
  53:/Library/DaisyToolchain/0.2.0/arm/arm-none-eabi/include/c++/10.3.1/array **** 
  54:/Library/DaisyToolchain/0.2.0/arm/arm-none-eabi/include/c++/10.3.1/array ****       static constexpr _Tp&
  55:/Library/DaisyToolchain/0.2.0/arm/arm-none-eabi/include/c++/10.3.1/array ****       _S_ref(const _Type& __t, std::size_t __n) noexcept
  56:/Library/DaisyToolchain/0.2.0/arm/arm-none-eabi/include/c++/10.3.1/array ****       { return const_cast<_Tp&>(__t[__n]); }
  57:/Library/DaisyToolchain/0.2.0/arm/arm-none-eabi/include/c++/10.3.1/array **** 
  58:/Library/DaisyToolchain/0.2.0/arm/arm-none-eabi/include/c++/10.3.1/array ****       static constexpr _Tp*
  59:/Library/DaisyToolchain/0.2.0/arm/arm-none-eabi/include/c++/10.3.1/array ****       _S_ptr(const _Type& __t) noexcept
  60:/Library/DaisyToolchain/0.2.0/arm/arm-none-eabi/include/c++/10.3.1/array ****       { return const_cast<_Tp*>(__t); }
  61:/Library/DaisyToolchain/0.2.0/arm/arm-none-eabi/include/c++/10.3.1/array ****     };
  62:/Library/DaisyToolchain/0.2.0/arm/arm-none-eabi/include/c++/10.3.1/array **** 
  63:/Library/DaisyToolchain/0.2.0/arm/arm-none-eabi/include/c++/10.3.1/array ****  template<typename _Tp>
  64:/Library/DaisyToolchain/0.2.0/arm/arm-none-eabi/include/c++/10.3.1/array ****    struct __array_traits<_Tp, 0>
  65:/Library/DaisyToolchain/0.2.0/arm/arm-none-eabi/include/c++/10.3.1/array ****    {
  66:/Library/DaisyToolchain/0.2.0/arm/arm-none-eabi/include/c++/10.3.1/array ****      struct _Type { };
  67:/Library/DaisyToolchain/0.2.0/arm/arm-none-eabi/include/c++/10.3.1/array ****      typedef true_type _Is_swappable;
  68:/Library/DaisyToolchain/0.2.0/arm/arm-none-eabi/include/c++/10.3.1/array ****      typedef true_type _Is_nothrow_swappable;
  69:/Library/DaisyToolchain/0.2.0/arm/arm-none-eabi/include/c++/10.3.1/array **** 
  70:/Library/DaisyToolchain/0.2.0/arm/arm-none-eabi/include/c++/10.3.1/array ****      static constexpr _Tp&
  71:/Library/DaisyToolchain/0.2.0/arm/arm-none-eabi/include/c++/10.3.1/array ****      _S_ref(const _Type&, std::size_t) noexcept
  72:/Library/DaisyToolchain/0.2.0/arm/arm-none-eabi/include/c++/10.3.1/array ****      { return *static_cast<_Tp*>(nullptr); }
  73:/Library/DaisyToolchain/0.2.0/arm/arm-none-eabi/include/c++/10.3.1/array **** 
  74:/Library/DaisyToolchain/0.2.0/arm/arm-none-eabi/include/c++/10.3.1/array ****      static constexpr _Tp*
  75:/Library/DaisyToolchain/0.2.0/arm/arm-none-eabi/include/c++/10.3.1/array ****      _S_ptr(const _Type&) noexcept
  76:/Library/DaisyToolchain/0.2.0/arm/arm-none-eabi/include/c++/10.3.1/array ****      { return nullptr; }
  77:/Library/DaisyToolchain/0.2.0/arm/arm-none-eabi/include/c++/10.3.1/array ****    };
  78:/Library/DaisyToolchain/0.2.0/arm/arm-none-eabi/include/c++/10.3.1/array **** 
  79:/Library/DaisyToolchain/0.2.0/arm/arm-none-eabi/include/c++/10.3.1/array ****   /**
  80:/Library/DaisyToolchain/0.2.0/arm/arm-none-eabi/include/c++/10.3.1/array ****    *  @brief A standard container for storing a fixed size sequence of elements.
  81:/Library/DaisyToolchain/0.2.0/arm/arm-none-eabi/include/c++/10.3.1/array ****    *
  82:/Library/DaisyToolchain/0.2.0/arm/arm-none-eabi/include/c++/10.3.1/array ****    *  @ingroup sequences
  83:/Library/DaisyToolchain/0.2.0/arm/arm-none-eabi/include/c++/10.3.1/array ****    *
  84:/Library/DaisyToolchain/0.2.0/arm/arm-none-eabi/include/c++/10.3.1/array ****    *  Meets the requirements of a <a href="tables.html#65">container</a>, a
  85:/Library/DaisyToolchain/0.2.0/arm/arm-none-eabi/include/c++/10.3.1/array ****    *  <a href="tables.html#66">reversible container</a>, and a
  86:/Library/DaisyToolchain/0.2.0/arm/arm-none-eabi/include/c++/10.3.1/array ****    *  <a href="tables.html#67">sequence</a>.
  87:/Library/DaisyToolchain/0.2.0/arm/arm-none-eabi/include/c++/10.3.1/array ****    *
  88:/Library/DaisyToolchain/0.2.0/arm/arm-none-eabi/include/c++/10.3.1/array ****    *  Sets support random access iterators.
  89:/Library/DaisyToolchain/0.2.0/arm/arm-none-eabi/include/c++/10.3.1/array ****    *
  90:/Library/DaisyToolchain/0.2.0/arm/arm-none-eabi/include/c++/10.3.1/array ****    *  @tparam  Tp  Type of element. Required to be a complete type.
  91:/Library/DaisyToolchain/0.2.0/arm/arm-none-eabi/include/c++/10.3.1/array ****    *  @tparam  Nm  Number of elements.
  92:/Library/DaisyToolchain/0.2.0/arm/arm-none-eabi/include/c++/10.3.1/array ****   */
  93:/Library/DaisyToolchain/0.2.0/arm/arm-none-eabi/include/c++/10.3.1/array ****   template<typename _Tp, std::size_t _Nm>
  94:/Library/DaisyToolchain/0.2.0/arm/arm-none-eabi/include/c++/10.3.1/array ****     struct array
 140              		.loc 11 94 12 view .LVU18
 141              		.loc 11 94 12 is_stmt 0 view .LVU19
 142              	.LBE588:
 143              	.LBE587:
 144              	.LBB589:
 145              	.LBI589:
 146              		.file 12 "lib/DaisySP/Source/Utility/delayline.h"
ARM GAS  /var/folders/9s/8rp0_f2s1n31qbztm3b5_fdh0000gn/T//ccUlKUex.s 			page 15


   1:lib/DaisySP/Source/Utility/delayline.h **** /*
   2:lib/DaisySP/Source/Utility/delayline.h **** Copyright (c) 2020 Electrosmith, Corp
   3:lib/DaisySP/Source/Utility/delayline.h **** 
   4:lib/DaisySP/Source/Utility/delayline.h **** Use of this source code is governed by an MIT-style
   5:lib/DaisySP/Source/Utility/delayline.h **** license that can be found in the LICENSE file or at
   6:lib/DaisySP/Source/Utility/delayline.h **** https://opensource.org/licenses/MIT.
   7:lib/DaisySP/Source/Utility/delayline.h **** */
   8:lib/DaisySP/Source/Utility/delayline.h **** 
   9:lib/DaisySP/Source/Utility/delayline.h **** #pragma once
  10:lib/DaisySP/Source/Utility/delayline.h **** #ifndef DSY_DELAY_H
  11:lib/DaisySP/Source/Utility/delayline.h **** #define DSY_DELAY_H
  12:lib/DaisySP/Source/Utility/delayline.h **** #include <stdlib.h>
  13:lib/DaisySP/Source/Utility/delayline.h **** #include <stdint.h>
  14:lib/DaisySP/Source/Utility/delayline.h **** namespace daisysp
  15:lib/DaisySP/Source/Utility/delayline.h **** {
  16:lib/DaisySP/Source/Utility/delayline.h **** /** Simple Delay line.
  17:lib/DaisySP/Source/Utility/delayline.h **** November 2019
  18:lib/DaisySP/Source/Utility/delayline.h **** 
  19:lib/DaisySP/Source/Utility/delayline.h **** Converted to Template December 2019
  20:lib/DaisySP/Source/Utility/delayline.h **** 
  21:lib/DaisySP/Source/Utility/delayline.h **** declaration example: (1 second of floats)
  22:lib/DaisySP/Source/Utility/delayline.h **** 
  23:lib/DaisySP/Source/Utility/delayline.h **** DelayLine<float, SAMPLE_RATE> del;
  24:lib/DaisySP/Source/Utility/delayline.h **** 
  25:lib/DaisySP/Source/Utility/delayline.h **** By: shensley
  26:lib/DaisySP/Source/Utility/delayline.h **** */
  27:lib/DaisySP/Source/Utility/delayline.h **** template <typename T, size_t max_size>
  28:lib/DaisySP/Source/Utility/delayline.h **** class DelayLine
  29:lib/DaisySP/Source/Utility/delayline.h **** {
  30:lib/DaisySP/Source/Utility/delayline.h ****   public:
  31:lib/DaisySP/Source/Utility/delayline.h ****     DelayLine() {}
  32:lib/DaisySP/Source/Utility/delayline.h ****     ~DelayLine() {}
 147              		.loc 12 32 5 is_stmt 1 view .LVU20
 148              		.loc 12 32 5 is_stmt 0 view .LVU21
 149              	.LBE589:
 150              		.loc 9 25 23 view .LVU22
 151 0000 7047     		bx	lr
 152              		.cfi_endproc
 153              	.LFE6683:
 155              		.weak	_ZN10infrasonic9EchoDelayILj48000EED1Ev
 156              		.thumb_set _ZN10infrasonic9EchoDelayILj48000EED1Ev,_ZN10infrasonic9EchoDelayILj48000EED2Ev
 157              		.section	.text._ZL10DebugBlinki,"ax",%progbits
 158              		.align	1
 159              		.syntax unified
 160              		.thumb
 161              		.thumb_func
 163              	_ZL10DebugBlinki:
 164              	.LVL4:
 165              	.LFB5842:
 166              		.file 13 "Interface.cpp"
   1:Interface.cpp **** #include "Thaumazein.h"
   2:Interface.cpp **** #include "Arpeggiator.h"
   3:Interface.cpp **** #include "Polyphony.h"
   4:Interface.cpp **** #include "SynthStateStorage.h"
   5:Interface.cpp **** #include <algorithm>
   6:Interface.cpp **** 
   7:Interface.cpp **** // --- Global hardware variables ---
ARM GAS  /var/folders/9s/8rp0_f2s1n31qbztm3b5_fdh0000gn/T//ccUlKUex.s 			page 16


   8:Interface.cpp **** DaisySeed hw;
   9:Interface.cpp **** CpuLoadMeter cpu_meter;
  10:Interface.cpp **** 
  11:Interface.cpp **** // Global definition for the touch sensor driver
  12:Interface.cpp **** thaumazein_hal::Mpr121 touch_sensor;
  13:Interface.cpp **** 
  14:Interface.cpp **** // Global definition for the delay effect
  15:Interface.cpp **** EchoDelay<48000> delay;
  16:Interface.cpp **** 
  17:Interface.cpp **** // Arpeggiator instance
  18:Interface.cpp **** Arpeggiator arp;
  19:Interface.cpp **** GPIO touch_leds[12];
  20:Interface.cpp **** // Timestamp for each LED when an ARP note triggers (ms)
  21:Interface.cpp **** volatile uint32_t arp_led_timestamps[12] = {0};
  22:Interface.cpp **** // Duration in milliseconds for each LED blink on ARP trigger
  23:Interface.cpp **** const uint32_t ARP_LED_DURATION_MS = 100;
  24:Interface.cpp **** 
  25:Interface.cpp **** // ADDED: Global flag for arpeggiator state, managed by Interface.cpp
  26:Interface.cpp **** volatile bool arp_enabled = false;
  27:Interface.cpp **** 
  28:Interface.cpp **** // Add: flag indicating if the MPR121 touch sensor was successfully initialised
  29:Interface.cpp **** bool touch_sensor_present = true;
  30:Interface.cpp **** 
  31:Interface.cpp **** // Hardware controls - Remapped to use ADCs 0-9
  32:Interface.cpp **** AnalogControl delay_time_knob;        // ADC 0 (Pin 15) Delay Time
  33:Interface.cpp **** AnalogControl delay_mix_feedback_knob; // ADC 1 (Pin 16) Delay Mix & Feedback
  34:Interface.cpp **** AnalogControl env_release_knob;       // ADC 2 (Pin 17) Envelope Release
  35:Interface.cpp **** AnalogControl env_attack_knob;        // ADC 3 (Pin 18) Envelope Attack
  36:Interface.cpp **** AnalogControl timbre_knob;            // ADC 4 (Pin 19) Plaits Timbre
  37:Interface.cpp **** AnalogControl harmonics_knob;         // ADC 5 (Pin 20) Plaits Harmonics
  38:Interface.cpp **** AnalogControl morph_knob;             // ADC 6 (Pin 21) Plaits Morph
  39:Interface.cpp **** AnalogControl pitch_knob;             // ADC 7 (Pin 22) Plaits Pitch
  40:Interface.cpp **** AnalogControl arp_pad;               // ADC 8 (Pin 23) Arpeggiator Toggle Pad
  41:Interface.cpp **** AnalogControl model_prev_pad;        // ADC 9 (Pin 24) Model Select Previous Pad
  42:Interface.cpp **** AnalogControl model_next_pad;        // ADC 10 (Pin 25) Model Select Next Pad
  43:Interface.cpp **** AnalogControl mod_wheel;             // ADC 11 (Pin 28) Mod Wheel Control
  44:Interface.cpp **** 
  45:Interface.cpp **** // CPU usage monitoring
  46:Interface.cpp **** float sample_rate = 48000.0f; 
  47:Interface.cpp **** volatile uint32_t avg_elapsed_us = 0; 
  48:Interface.cpp **** volatile bool update_display = false; 
  49:Interface.cpp **** // Output Level monitoring
  50:Interface.cpp **** volatile float smoothed_output_level = 0.0f; 
  51:Interface.cpp **** 
  52:Interface.cpp **** // Definition for adc_raw_values moved from AudioProcessor.cpp
  53:Interface.cpp **** volatile float adc_raw_values[12] = {0.0f};
  54:Interface.cpp **** 
  55:Interface.cpp **** // Global knob values, moved from AudioProcessor.cpp
  56:Interface.cpp **** float pitch_val, harm_knob_val, timbre_knob_val, morph_knob_val;
  57:Interface.cpp **** float delay_time_val, delay_mix_feedback_val, delay_mix_val, delay_feedback_val;
  58:Interface.cpp **** float env_attack_val, env_release_val;
  59:Interface.cpp **** 
  60:Interface.cpp **** // Simple diagnostic blink: flashes the Daisy user LED 'count' times rapidly.
  61:Interface.cpp **** static void DebugBlink(int count)
  62:Interface.cpp **** {
 167              		.loc 13 62 1 is_stmt 1 view -0
 168              		.cfi_startproc
ARM GAS  /var/folders/9s/8rp0_f2s1n31qbztm3b5_fdh0000gn/T//ccUlKUex.s 			page 17


 169              		@ args = 0, pretend = 0, frame = 0
 170              		@ frame_needed = 0, uses_anonymous_args = 0
  63:Interface.cpp ****     for(int i = 0; i < count; ++i)
 171              		.loc 13 63 5 view .LVU24
 172              	.LBB590:
 173              		.loc 13 63 22 view .LVU25
 174              	.LBE590:
  62:Interface.cpp ****     for(int i = 0; i < count; ++i)
 175              		.loc 13 62 1 is_stmt 0 view .LVU26
 176 0000 38B5     		push	{r3, r4, r5, lr}
 177              		.cfi_def_cfa_offset 16
 178              		.cfi_offset 3, -16
 179              		.cfi_offset 4, -12
 180              		.cfi_offset 5, -8
 181              		.cfi_offset 14, -4
  62:Interface.cpp ****     for(int i = 0; i < count; ++i)
 182              		.loc 13 62 1 view .LVU27
 183 0002 0546     		mov	r5, r0
 184              	.LBB591:
 185              		.loc 13 63 13 view .LVU28
 186 0004 0024     		movs	r4, #0
 187              	.LVL5:
 188              	.L6:
  64:Interface.cpp ****     {
  65:Interface.cpp ****         hw.SetLed(true);
 189              		.loc 13 65 9 is_stmt 1 discriminator 2 view .LVU29
 190              		.loc 13 65 18 is_stmt 0 discriminator 2 view .LVU30
 191 0006 0121     		movs	r1, #1
 192 0008 0848     		ldr	r0, .L8
 193 000a FFF7FEFF 		bl	_ZN5daisy9DaisySeed6SetLedEb
 194              	.LVL6:
  66:Interface.cpp ****         System::Delay(60);
 195              		.loc 13 66 9 is_stmt 1 discriminator 2 view .LVU31
 196              		.loc 13 66 22 is_stmt 0 discriminator 2 view .LVU32
 197 000e 3C20     		movs	r0, #60
 198 0010 FFF7FEFF 		bl	_ZN5daisy6System5DelayEm
 199              	.LVL7:
  67:Interface.cpp ****         hw.SetLed(false);
 200              		.loc 13 67 9 is_stmt 1 discriminator 2 view .LVU33
  63:Interface.cpp ****     {
 201              		.loc 13 63 5 is_stmt 0 discriminator 2 view .LVU34
 202 0014 0134     		adds	r4, r4, #1
 203              	.LVL8:
 204              		.loc 13 67 18 discriminator 2 view .LVU35
 205 0016 0021     		movs	r1, #0
 206 0018 0448     		ldr	r0, .L8
 207 001a FFF7FEFF 		bl	_ZN5daisy9DaisySeed6SetLedEb
 208              	.LVL9:
  68:Interface.cpp ****         System::Delay(60);
 209              		.loc 13 68 9 is_stmt 1 discriminator 2 view .LVU36
 210              		.loc 13 68 22 is_stmt 0 discriminator 2 view .LVU37
 211 001e 3C20     		movs	r0, #60
 212 0020 FFF7FEFF 		bl	_ZN5daisy6System5DelayEm
 213              	.LVL10:
  63:Interface.cpp ****     {
 214              		.loc 13 63 5 is_stmt 1 discriminator 2 view .LVU38
  63:Interface.cpp ****     {
ARM GAS  /var/folders/9s/8rp0_f2s1n31qbztm3b5_fdh0000gn/T//ccUlKUex.s 			page 18


 215              		.loc 13 63 22 discriminator 2 view .LVU39
 216 0024 A542     		cmp	r5, r4
 217 0026 EED1     		bne	.L6
 218              	.LBE591:
  69:Interface.cpp ****     }
  70:Interface.cpp **** }
 219              		.loc 13 70 1 is_stmt 0 view .LVU40
 220 0028 38BD     		pop	{r3, r4, r5, pc}
 221              	.LVL11:
 222              	.L9:
 223              		.loc 13 70 1 view .LVU41
 224 002a 00BF     		.align	2
 225              	.L8:
 226 002c 00000000 		.word	.LANCHOR0
 227              		.cfi_endproc
 228              	.LFE5842:
 230              		.section	.text._ZZ15InitializeSynthvENKUliE_clEi.constprop.0,"ax",%progbits
 231              		.align	1
 232              		.syntax unified
 233              		.thumb
 234              		.thumb_func
 236              	_ZZ15InitializeSynthvENKUliE_clEi.constprop.0:
 237              	.LVL12:
 238              	.LFB6717:
  71:Interface.cpp **** 
  72:Interface.cpp **** // --- Initialization functions ---
  73:Interface.cpp **** void InitializeHardware() {
  74:Interface.cpp ****     // Initialize Daisy Seed hardware
  75:Interface.cpp ****     hw.Configure();
  76:Interface.cpp ****     hw.Init(); // This calls SystemInit(), which sets VTOR to 0x08000000 by default
  77:Interface.cpp ****     SynthStateStorage::InitMemoryMapped(); // QSPI is configured for memory-mapped mode here
  78:Interface.cpp **** 
  79:Interface.cpp ****     // Relocate the vector table to the QSPI flash base address
  80:Interface.cpp ****     // This address (0x90040000) must match the QSPIFLASH ORIGIN in the linker script
  81:Interface.cpp ****     // and where the .isr_vector section is actually placed.
  82:Interface.cpp ****     #if defined(__STM32H750xx_H) || defined(STM32H750xx) || defined(STM32H7XX)
  83:Interface.cpp ****         // Ensure SCB is usable (usually through stm32h7xx.h or similar, included by DaisySeed.h)
  84:Interface.cpp ****         SCB->VTOR = 0x90040000UL;
  85:Interface.cpp ****     #endif
  86:Interface.cpp **** 
  87:Interface.cpp ****     hw.SetAudioBlockSize(BLOCK_SIZE);
  88:Interface.cpp ****     sample_rate = hw.AudioSampleRate();
  89:Interface.cpp ****     // hw.SetAudioSampleRate(SaiHandle::Config::SampleRate::SAI_48KHZ); // debug: stick with defaul
  90:Interface.cpp ****     // sample_rate = hw.AudioSampleRate(); // Update sample_rate after setting it
  91:Interface.cpp **** }
  92:Interface.cpp **** 
  93:Interface.cpp **** void InitializeControls() {
  94:Interface.cpp ****     // --- Configure ADCs (12 Channels) ---
  95:Interface.cpp ****     AdcChannelConfig adc_config[12];
  96:Interface.cpp ****     adc_config[0].InitSingle(hw.GetPin(15)); // ADC 0: Delay Time
  97:Interface.cpp ****     adc_config[1].InitSingle(hw.GetPin(16)); // ADC 1: Delay Mix & Feedback
  98:Interface.cpp ****     adc_config[2].InitSingle(hw.GetPin(17)); // ADC 2: Envelope Release
  99:Interface.cpp ****     adc_config[3].InitSingle(hw.GetPin(18)); // ADC 3: Envelope Attack
 100:Interface.cpp ****     adc_config[4].InitSingle(hw.GetPin(19)); // ADC 4: Plaits Timbre
 101:Interface.cpp ****     adc_config[5].InitSingle(hw.GetPin(20)); // ADC 5: Plaits Harmonics
 102:Interface.cpp ****     adc_config[6].InitSingle(hw.GetPin(21)); // ADC 6: Plaits Morph
 103:Interface.cpp ****     adc_config[7].InitSingle(hw.GetPin(22)); // ADC 7: Plaits Pitch
ARM GAS  /var/folders/9s/8rp0_f2s1n31qbztm3b5_fdh0000gn/T//ccUlKUex.s 			page 19


 104:Interface.cpp ****     adc_config[8].InitSingle(hw.GetPin(23)); // ADC 8: Arpeggiator Toggle Pad
 105:Interface.cpp ****     adc_config[9].InitSingle(hw.GetPin(24)); // ADC 9: Model Select Previous Pad
 106:Interface.cpp ****     adc_config[10].InitSingle(hw.GetPin(25)); // ADC 10: Model Select Next Pad
 107:Interface.cpp ****     adc_config[11].InitSingle(hw.GetPin(28)); // ADC 11: Mod Wheel Control
 108:Interface.cpp ****     hw.adc.Init(adc_config, 12); // Initialize 12 channels
 109:Interface.cpp ****     hw.adc.Start();
 110:Interface.cpp **** 
 111:Interface.cpp ****     // --- Initialize Controls (Matches new mapping) ---
 112:Interface.cpp ****     delay_time_knob.Init(hw.adc.GetPtr(0), sample_rate);        // ADC 0
 113:Interface.cpp ****     delay_mix_feedback_knob.Init(hw.adc.GetPtr(1), sample_rate); // ADC 1
 114:Interface.cpp ****     env_release_knob.Init(hw.adc.GetPtr(2), sample_rate);       // ADC 2
 115:Interface.cpp ****     env_attack_knob.Init(hw.adc.GetPtr(3), sample_rate);        // ADC 3
 116:Interface.cpp ****     timbre_knob.Init(hw.adc.GetPtr(4), sample_rate);            // ADC 4
 117:Interface.cpp ****     harmonics_knob.Init(hw.adc.GetPtr(5), sample_rate);         // ADC 5
 118:Interface.cpp ****     morph_knob.Init(hw.adc.GetPtr(6), sample_rate);             // ADC 6
 119:Interface.cpp ****     pitch_knob.Init(hw.adc.GetPtr(7), sample_rate);             // ADC 7
 120:Interface.cpp ****     arp_pad.Init(hw.adc.GetPtr(8), sample_rate);               // ADC 8
 121:Interface.cpp ****     model_prev_pad.Init(hw.adc.GetPtr(9), sample_rate);        // ADC 9
 122:Interface.cpp ****     model_next_pad.Init(hw.adc.GetPtr(10), sample_rate);       // ADC 10
 123:Interface.cpp ****     mod_wheel.Init(hw.adc.GetPtr(11), sample_rate);            // ADC 11
 124:Interface.cpp **** }
 125:Interface.cpp **** 
 126:Interface.cpp **** void InitializeTouchSensor() {
 127:Interface.cpp ****     // Attempt to initialize the MPR121 touch sensor
 128:Interface.cpp ****     thaumazein_hal::Mpr121::Config touch_config;
 129:Interface.cpp ****     touch_config.Defaults(); 
 130:Interface.cpp ****     if (!touch_sensor.Init(touch_config)) {
 131:Interface.cpp ****         // Touch sensor failed to initialise  continue without it
 132:Interface.cpp ****         touch_sensor_present = false;
 133:Interface.cpp ****         hw.PrintLine("[WARN] MPR121 init failed  continuing without touch sensor");
 134:Interface.cpp ****         return; // Skip further configuration
 135:Interface.cpp ****     }
 136:Interface.cpp ****     // Override default thresholds for more sensitivity
 137:Interface.cpp ****     touch_sensor.SetThresholds(6, 3); 
 138:Interface.cpp **** }
 139:Interface.cpp **** 
 140:Interface.cpp **** void InitializeDelay() {
 141:Interface.cpp ****     // --- Initialize Echo Delay --- 
 142:Interface.cpp ****     delay.Init(sample_rate); 
 143:Interface.cpp ****     delay.SetLagTime(0.02f);         // Short lag for time changes
 144:Interface.cpp ****     delay.SetDelayTime(0.3f, true); // 300ms delay, set immediately
 145:Interface.cpp ****     delay.SetFeedback(0.5f);         // 50% feedback
 146:Interface.cpp **** }
 147:Interface.cpp **** 
 148:Interface.cpp **** // Initialize GPIO and light up all touch pad LEDs
 149:Interface.cpp **** void InitializeTouchLEDs() {
 150:Interface.cpp ****     GPIO::Config led_cfg;
 151:Interface.cpp ****     led_cfg.mode  = GPIO::Mode::OUTPUT;
 152:Interface.cpp ****     led_cfg.pull  = GPIO::Pull::NOPULL;
 153:Interface.cpp ****     led_cfg.speed = GPIO::Speed::LOW;
 154:Interface.cpp **** 
 155:Interface.cpp ****     Pin led_pins[12] = {
 156:Interface.cpp ****         seed::D14, seed::D13, seed::D10, seed::D9,
 157:Interface.cpp ****         seed::D8,  seed::D7,  seed::D6,  seed::D5,
 158:Interface.cpp ****         seed::D4,  seed::D3,  seed::D2,  seed::D1
 159:Interface.cpp ****     };
 160:Interface.cpp **** 
ARM GAS  /var/folders/9s/8rp0_f2s1n31qbztm3b5_fdh0000gn/T//ccUlKUex.s 			page 20


 161:Interface.cpp ****     for(int i = 0; i < 12; ++i) {
 162:Interface.cpp ****         led_cfg.pin = led_pins[i];
 163:Interface.cpp ****         touch_leds[i].Init(led_cfg);
 164:Interface.cpp ****         touch_leds[i].Write(true);
 165:Interface.cpp ****     }
 166:Interface.cpp **** }
 167:Interface.cpp **** 
 168:Interface.cpp **** void InitializeSynth() {
 169:Interface.cpp ****     InitializeHardware();
 170:Interface.cpp ****     DebugBlink(1);
 171:Interface.cpp **** 
 172:Interface.cpp ****     poly_engine.Init(&hw);
 173:Interface.cpp ****     DebugBlink(2);
 174:Interface.cpp **** 
 175:Interface.cpp ****     InitializeControls();
 176:Interface.cpp ****     DebugBlink(3);
 177:Interface.cpp **** 
 178:Interface.cpp ****     InitializeTouchSensor();
 179:Interface.cpp ****     DebugBlink(4);
 180:Interface.cpp **** 
 181:Interface.cpp ****     InitializeDelay();
 182:Interface.cpp ****     DebugBlink(5);
 183:Interface.cpp **** 
 184:Interface.cpp ****     InitializeTouchLEDs();
 185:Interface.cpp ****     DebugBlink(6);
 186:Interface.cpp **** 
 187:Interface.cpp ****     cpu_meter.Init(sample_rate, BLOCK_SIZE); // Initialize CPU Load Meter
 188:Interface.cpp ****     DebugBlink(7);
 189:Interface.cpp **** 
 190:Interface.cpp ****     // --- Initialize Arpeggiator ---
 191:Interface.cpp ****     arp.Init(sample_rate);
 192:Interface.cpp ****     DebugBlink(8);
 193:Interface.cpp **** 
 194:Interface.cpp ****     // Note trigger callback
 195:Interface.cpp ****     arp.SetNoteTriggerCallback([&](int pad_idx){ 
 239              		.loc 13 195 32 is_stmt 1 view -0
 240              		.cfi_startproc
 241              		@ args = 0, pretend = 0, frame = 0
 242              		@ frame_needed = 0, uses_anonymous_args = 0
 196:Interface.cpp ****         poly_engine.TriggerArpVoice(pad_idx, current_engine_index); 
 243              		.loc 13 196 9 view .LVU43
 244              		.loc 13 196 36 is_stmt 0 view .LVU44
 245 0000 074B     		ldr	r3, .L11
 246 0002 0146     		mov	r1, r0
 195:Interface.cpp ****         poly_engine.TriggerArpVoice(pad_idx, current_engine_index); 
 247              		.loc 13 195 32 view .LVU45
 248 0004 10B5     		push	{r4, lr}
 249              		.cfi_def_cfa_offset 8
 250              		.cfi_offset 4, -8
 251              		.cfi_offset 14, -4
 195:Interface.cpp ****         poly_engine.TriggerArpVoice(pad_idx, current_engine_index); 
 252              		.loc 13 195 32 view .LVU46
 253 0006 0446     		mov	r4, r0
 254              		.loc 13 196 36 view .LVU47
 255 0008 1A68     		ldr	r2, [r3]
 256 000a 0648     		ldr	r0, .L11+4
 257              	.LVL13:
ARM GAS  /var/folders/9s/8rp0_f2s1n31qbztm3b5_fdh0000gn/T//ccUlKUex.s 			page 21


 258              		.loc 13 196 36 view .LVU48
 259 000c FFF7FEFF 		bl	_ZN15PolyphonyEngine15TriggerArpVoiceEii
 260              	.LVL14:
 197:Interface.cpp ****         arp_led_timestamps[11 - pad_idx] = hw.system.GetNow();
 261              		.loc 13 197 9 is_stmt 1 view .LVU49
 262              		.loc 13 197 31 is_stmt 0 view .LVU50
 263 0010 C4F10B04 		rsb	r4, r4, #11
 264              	.LVL15:
 265              		.loc 13 197 60 view .LVU51
 266 0014 FFF7FEFF 		bl	_ZN5daisy6System6GetNowEv
 267              	.LVL16:
 268              		.loc 13 197 42 view .LVU52
 269 0018 034B     		ldr	r3, .L11+8
 270 001a 43F82400 		str	r0, [r3, r4, lsl #2]
 198:Interface.cpp ****     });
 271              		.loc 13 198 5 view .LVU53
 272 001e 10BD     		pop	{r4, pc}
 273              	.L12:
 274              		.align	2
 275              	.L11:
 276 0020 00000000 		.word	current_engine_index
 277 0024 00000000 		.word	poly_engine
 278 0028 00000000 		.word	.LANCHOR1
 279              		.cfi_endproc
 280              	.LFE6717:
 282              		.section	.text._ZNSt17_Function_handlerIFviEZ23UpdateArpeggiatorTogglevEUliE_E10_M_managerERSt9_An
 283              		.align	1
 284              		.syntax unified
 285              		.thumb
 286              		.thumb_func
 288              	_ZNSt17_Function_handlerIFviEZ23UpdateArpeggiatorTogglevEUliE_E10_M_managerERSt9_Any_dataRKS3_St18_
 289              	.LVL17:
 290              	.LFB6485:
 291              		.file 14 "/Library/DaisyToolchain/0.2.0/arm/arm-none-eabi/include/c++/10.3.1/bits/std_function.h"
   1:/Library/DaisyToolchain/0.2.0/arm/arm-none-eabi/include/c++/10.3.1/bits/std_function.h **** // Implementation of std::function -*- C++ -*-
   2:/Library/DaisyToolchain/0.2.0/arm/arm-none-eabi/include/c++/10.3.1/bits/std_function.h **** 
   3:/Library/DaisyToolchain/0.2.0/arm/arm-none-eabi/include/c++/10.3.1/bits/std_function.h **** // Copyright (C) 2004-2020 Free Software Foundation, Inc.
   4:/Library/DaisyToolchain/0.2.0/arm/arm-none-eabi/include/c++/10.3.1/bits/std_function.h **** //
   5:/Library/DaisyToolchain/0.2.0/arm/arm-none-eabi/include/c++/10.3.1/bits/std_function.h **** // This file is part of the GNU ISO C++ Library.  This library is free
   6:/Library/DaisyToolchain/0.2.0/arm/arm-none-eabi/include/c++/10.3.1/bits/std_function.h **** // software; you can redistribute it and/or modify it under the
   7:/Library/DaisyToolchain/0.2.0/arm/arm-none-eabi/include/c++/10.3.1/bits/std_function.h **** // terms of the GNU General Public License as published by the
   8:/Library/DaisyToolchain/0.2.0/arm/arm-none-eabi/include/c++/10.3.1/bits/std_function.h **** // Free Software Foundation; either version 3, or (at your option)
   9:/Library/DaisyToolchain/0.2.0/arm/arm-none-eabi/include/c++/10.3.1/bits/std_function.h **** // any later version.
  10:/Library/DaisyToolchain/0.2.0/arm/arm-none-eabi/include/c++/10.3.1/bits/std_function.h **** 
  11:/Library/DaisyToolchain/0.2.0/arm/arm-none-eabi/include/c++/10.3.1/bits/std_function.h **** // This library is distributed in the hope that it will be useful,
  12:/Library/DaisyToolchain/0.2.0/arm/arm-none-eabi/include/c++/10.3.1/bits/std_function.h **** // but WITHOUT ANY WARRANTY; without even the implied warranty of
  13:/Library/DaisyToolchain/0.2.0/arm/arm-none-eabi/include/c++/10.3.1/bits/std_function.h **** // MERCHANTABILITY or FITNESS FOR A PARTICULAR PURPOSE.  See the
  14:/Library/DaisyToolchain/0.2.0/arm/arm-none-eabi/include/c++/10.3.1/bits/std_function.h **** // GNU General Public License for more details.
  15:/Library/DaisyToolchain/0.2.0/arm/arm-none-eabi/include/c++/10.3.1/bits/std_function.h **** 
  16:/Library/DaisyToolchain/0.2.0/arm/arm-none-eabi/include/c++/10.3.1/bits/std_function.h **** // Under Section 7 of GPL version 3, you are granted additional
  17:/Library/DaisyToolchain/0.2.0/arm/arm-none-eabi/include/c++/10.3.1/bits/std_function.h **** // permissions described in the GCC Runtime Library Exception, version
  18:/Library/DaisyToolchain/0.2.0/arm/arm-none-eabi/include/c++/10.3.1/bits/std_function.h **** // 3.1, as published by the Free Software Foundation.
  19:/Library/DaisyToolchain/0.2.0/arm/arm-none-eabi/include/c++/10.3.1/bits/std_function.h **** 
  20:/Library/DaisyToolchain/0.2.0/arm/arm-none-eabi/include/c++/10.3.1/bits/std_function.h **** // You should have received a copy of the GNU General Public License and
  21:/Library/DaisyToolchain/0.2.0/arm/arm-none-eabi/include/c++/10.3.1/bits/std_function.h **** // a copy of the GCC Runtime Library Exception along with this program;
  22:/Library/DaisyToolchain/0.2.0/arm/arm-none-eabi/include/c++/10.3.1/bits/std_function.h **** // see the files COPYING3 and COPYING.RUNTIME respectively.  If not, see
  23:/Library/DaisyToolchain/0.2.0/arm/arm-none-eabi/include/c++/10.3.1/bits/std_function.h **** // <http://www.gnu.org/licenses/>.
ARM GAS  /var/folders/9s/8rp0_f2s1n31qbztm3b5_fdh0000gn/T//ccUlKUex.s 			page 22


  24:/Library/DaisyToolchain/0.2.0/arm/arm-none-eabi/include/c++/10.3.1/bits/std_function.h **** 
  25:/Library/DaisyToolchain/0.2.0/arm/arm-none-eabi/include/c++/10.3.1/bits/std_function.h **** /** @file include/bits/std_function.h
  26:/Library/DaisyToolchain/0.2.0/arm/arm-none-eabi/include/c++/10.3.1/bits/std_function.h ****  *  This is an internal header file, included by other library headers.
  27:/Library/DaisyToolchain/0.2.0/arm/arm-none-eabi/include/c++/10.3.1/bits/std_function.h ****  *  Do not attempt to use it directly. @headername{functional}
  28:/Library/DaisyToolchain/0.2.0/arm/arm-none-eabi/include/c++/10.3.1/bits/std_function.h ****  */
  29:/Library/DaisyToolchain/0.2.0/arm/arm-none-eabi/include/c++/10.3.1/bits/std_function.h **** 
  30:/Library/DaisyToolchain/0.2.0/arm/arm-none-eabi/include/c++/10.3.1/bits/std_function.h **** #ifndef _GLIBCXX_STD_FUNCTION_H
  31:/Library/DaisyToolchain/0.2.0/arm/arm-none-eabi/include/c++/10.3.1/bits/std_function.h **** #define _GLIBCXX_STD_FUNCTION_H 1
  32:/Library/DaisyToolchain/0.2.0/arm/arm-none-eabi/include/c++/10.3.1/bits/std_function.h **** 
  33:/Library/DaisyToolchain/0.2.0/arm/arm-none-eabi/include/c++/10.3.1/bits/std_function.h **** #pragma GCC system_header
  34:/Library/DaisyToolchain/0.2.0/arm/arm-none-eabi/include/c++/10.3.1/bits/std_function.h **** 
  35:/Library/DaisyToolchain/0.2.0/arm/arm-none-eabi/include/c++/10.3.1/bits/std_function.h **** #if __cplusplus < 201103L
  36:/Library/DaisyToolchain/0.2.0/arm/arm-none-eabi/include/c++/10.3.1/bits/std_function.h **** # include <bits/c++0x_warning.h>
  37:/Library/DaisyToolchain/0.2.0/arm/arm-none-eabi/include/c++/10.3.1/bits/std_function.h **** #else
  38:/Library/DaisyToolchain/0.2.0/arm/arm-none-eabi/include/c++/10.3.1/bits/std_function.h **** 
  39:/Library/DaisyToolchain/0.2.0/arm/arm-none-eabi/include/c++/10.3.1/bits/std_function.h **** #if __cpp_rtti
  40:/Library/DaisyToolchain/0.2.0/arm/arm-none-eabi/include/c++/10.3.1/bits/std_function.h **** # include <typeinfo>
  41:/Library/DaisyToolchain/0.2.0/arm/arm-none-eabi/include/c++/10.3.1/bits/std_function.h **** #endif
  42:/Library/DaisyToolchain/0.2.0/arm/arm-none-eabi/include/c++/10.3.1/bits/std_function.h **** #include <bits/stl_function.h>
  43:/Library/DaisyToolchain/0.2.0/arm/arm-none-eabi/include/c++/10.3.1/bits/std_function.h **** #include <bits/invoke.h>
  44:/Library/DaisyToolchain/0.2.0/arm/arm-none-eabi/include/c++/10.3.1/bits/std_function.h **** #include <bits/refwrap.h>
  45:/Library/DaisyToolchain/0.2.0/arm/arm-none-eabi/include/c++/10.3.1/bits/std_function.h **** #include <bits/functexcept.h>
  46:/Library/DaisyToolchain/0.2.0/arm/arm-none-eabi/include/c++/10.3.1/bits/std_function.h **** 
  47:/Library/DaisyToolchain/0.2.0/arm/arm-none-eabi/include/c++/10.3.1/bits/std_function.h **** namespace std _GLIBCXX_VISIBILITY(default)
  48:/Library/DaisyToolchain/0.2.0/arm/arm-none-eabi/include/c++/10.3.1/bits/std_function.h **** {
  49:/Library/DaisyToolchain/0.2.0/arm/arm-none-eabi/include/c++/10.3.1/bits/std_function.h **** _GLIBCXX_BEGIN_NAMESPACE_VERSION
  50:/Library/DaisyToolchain/0.2.0/arm/arm-none-eabi/include/c++/10.3.1/bits/std_function.h **** 
  51:/Library/DaisyToolchain/0.2.0/arm/arm-none-eabi/include/c++/10.3.1/bits/std_function.h ****   /**
  52:/Library/DaisyToolchain/0.2.0/arm/arm-none-eabi/include/c++/10.3.1/bits/std_function.h ****    *  @brief Exception class thrown when class template function's
  53:/Library/DaisyToolchain/0.2.0/arm/arm-none-eabi/include/c++/10.3.1/bits/std_function.h ****    *  operator() is called with an empty target.
  54:/Library/DaisyToolchain/0.2.0/arm/arm-none-eabi/include/c++/10.3.1/bits/std_function.h ****    *  @ingroup exceptions
  55:/Library/DaisyToolchain/0.2.0/arm/arm-none-eabi/include/c++/10.3.1/bits/std_function.h ****    */
  56:/Library/DaisyToolchain/0.2.0/arm/arm-none-eabi/include/c++/10.3.1/bits/std_function.h ****   class bad_function_call : public std::exception
  57:/Library/DaisyToolchain/0.2.0/arm/arm-none-eabi/include/c++/10.3.1/bits/std_function.h ****   {
  58:/Library/DaisyToolchain/0.2.0/arm/arm-none-eabi/include/c++/10.3.1/bits/std_function.h ****   public:
  59:/Library/DaisyToolchain/0.2.0/arm/arm-none-eabi/include/c++/10.3.1/bits/std_function.h ****     virtual ~bad_function_call() noexcept;
  60:/Library/DaisyToolchain/0.2.0/arm/arm-none-eabi/include/c++/10.3.1/bits/std_function.h **** 
  61:/Library/DaisyToolchain/0.2.0/arm/arm-none-eabi/include/c++/10.3.1/bits/std_function.h ****     const char* what() const noexcept;
  62:/Library/DaisyToolchain/0.2.0/arm/arm-none-eabi/include/c++/10.3.1/bits/std_function.h ****   };
  63:/Library/DaisyToolchain/0.2.0/arm/arm-none-eabi/include/c++/10.3.1/bits/std_function.h **** 
  64:/Library/DaisyToolchain/0.2.0/arm/arm-none-eabi/include/c++/10.3.1/bits/std_function.h ****   /**
  65:/Library/DaisyToolchain/0.2.0/arm/arm-none-eabi/include/c++/10.3.1/bits/std_function.h ****    *  Trait identifying "location-invariant" types, meaning that the
  66:/Library/DaisyToolchain/0.2.0/arm/arm-none-eabi/include/c++/10.3.1/bits/std_function.h ****    *  address of the object (or any of its members) will not escape.
  67:/Library/DaisyToolchain/0.2.0/arm/arm-none-eabi/include/c++/10.3.1/bits/std_function.h ****    *  Trivially copyable types are location-invariant and users can
  68:/Library/DaisyToolchain/0.2.0/arm/arm-none-eabi/include/c++/10.3.1/bits/std_function.h ****    *  specialize this trait for other types.
  69:/Library/DaisyToolchain/0.2.0/arm/arm-none-eabi/include/c++/10.3.1/bits/std_function.h ****    */
  70:/Library/DaisyToolchain/0.2.0/arm/arm-none-eabi/include/c++/10.3.1/bits/std_function.h ****   template<typename _Tp>
  71:/Library/DaisyToolchain/0.2.0/arm/arm-none-eabi/include/c++/10.3.1/bits/std_function.h ****     struct __is_location_invariant
  72:/Library/DaisyToolchain/0.2.0/arm/arm-none-eabi/include/c++/10.3.1/bits/std_function.h ****     : is_trivially_copyable<_Tp>::type
  73:/Library/DaisyToolchain/0.2.0/arm/arm-none-eabi/include/c++/10.3.1/bits/std_function.h ****     { };
  74:/Library/DaisyToolchain/0.2.0/arm/arm-none-eabi/include/c++/10.3.1/bits/std_function.h **** 
  75:/Library/DaisyToolchain/0.2.0/arm/arm-none-eabi/include/c++/10.3.1/bits/std_function.h ****   class _Undefined_class;
  76:/Library/DaisyToolchain/0.2.0/arm/arm-none-eabi/include/c++/10.3.1/bits/std_function.h **** 
  77:/Library/DaisyToolchain/0.2.0/arm/arm-none-eabi/include/c++/10.3.1/bits/std_function.h ****   union _Nocopy_types
  78:/Library/DaisyToolchain/0.2.0/arm/arm-none-eabi/include/c++/10.3.1/bits/std_function.h ****   {
  79:/Library/DaisyToolchain/0.2.0/arm/arm-none-eabi/include/c++/10.3.1/bits/std_function.h ****     void*       _M_object;
  80:/Library/DaisyToolchain/0.2.0/arm/arm-none-eabi/include/c++/10.3.1/bits/std_function.h ****     const void* _M_const_object;
ARM GAS  /var/folders/9s/8rp0_f2s1n31qbztm3b5_fdh0000gn/T//ccUlKUex.s 			page 23


  81:/Library/DaisyToolchain/0.2.0/arm/arm-none-eabi/include/c++/10.3.1/bits/std_function.h ****     void (*_M_function_pointer)();
  82:/Library/DaisyToolchain/0.2.0/arm/arm-none-eabi/include/c++/10.3.1/bits/std_function.h ****     void (_Undefined_class::*_M_member_pointer)();
  83:/Library/DaisyToolchain/0.2.0/arm/arm-none-eabi/include/c++/10.3.1/bits/std_function.h ****   };
  84:/Library/DaisyToolchain/0.2.0/arm/arm-none-eabi/include/c++/10.3.1/bits/std_function.h **** 
  85:/Library/DaisyToolchain/0.2.0/arm/arm-none-eabi/include/c++/10.3.1/bits/std_function.h ****   union [[gnu::may_alias]] _Any_data
  86:/Library/DaisyToolchain/0.2.0/arm/arm-none-eabi/include/c++/10.3.1/bits/std_function.h ****   {
  87:/Library/DaisyToolchain/0.2.0/arm/arm-none-eabi/include/c++/10.3.1/bits/std_function.h ****     void*       _M_access()       { return &_M_pod_data[0]; }
  88:/Library/DaisyToolchain/0.2.0/arm/arm-none-eabi/include/c++/10.3.1/bits/std_function.h ****     const void* _M_access() const { return &_M_pod_data[0]; }
  89:/Library/DaisyToolchain/0.2.0/arm/arm-none-eabi/include/c++/10.3.1/bits/std_function.h **** 
  90:/Library/DaisyToolchain/0.2.0/arm/arm-none-eabi/include/c++/10.3.1/bits/std_function.h ****     template<typename _Tp>
  91:/Library/DaisyToolchain/0.2.0/arm/arm-none-eabi/include/c++/10.3.1/bits/std_function.h ****       _Tp&
  92:/Library/DaisyToolchain/0.2.0/arm/arm-none-eabi/include/c++/10.3.1/bits/std_function.h ****       _M_access()
  93:/Library/DaisyToolchain/0.2.0/arm/arm-none-eabi/include/c++/10.3.1/bits/std_function.h ****       { return *static_cast<_Tp*>(_M_access()); }
  94:/Library/DaisyToolchain/0.2.0/arm/arm-none-eabi/include/c++/10.3.1/bits/std_function.h **** 
  95:/Library/DaisyToolchain/0.2.0/arm/arm-none-eabi/include/c++/10.3.1/bits/std_function.h ****     template<typename _Tp>
  96:/Library/DaisyToolchain/0.2.0/arm/arm-none-eabi/include/c++/10.3.1/bits/std_function.h ****       const _Tp&
  97:/Library/DaisyToolchain/0.2.0/arm/arm-none-eabi/include/c++/10.3.1/bits/std_function.h ****       _M_access() const
  98:/Library/DaisyToolchain/0.2.0/arm/arm-none-eabi/include/c++/10.3.1/bits/std_function.h ****       { return *static_cast<const _Tp*>(_M_access()); }
  99:/Library/DaisyToolchain/0.2.0/arm/arm-none-eabi/include/c++/10.3.1/bits/std_function.h **** 
 100:/Library/DaisyToolchain/0.2.0/arm/arm-none-eabi/include/c++/10.3.1/bits/std_function.h ****     _Nocopy_types _M_unused;
 101:/Library/DaisyToolchain/0.2.0/arm/arm-none-eabi/include/c++/10.3.1/bits/std_function.h ****     char _M_pod_data[sizeof(_Nocopy_types)];
 102:/Library/DaisyToolchain/0.2.0/arm/arm-none-eabi/include/c++/10.3.1/bits/std_function.h ****   };
 103:/Library/DaisyToolchain/0.2.0/arm/arm-none-eabi/include/c++/10.3.1/bits/std_function.h **** 
 104:/Library/DaisyToolchain/0.2.0/arm/arm-none-eabi/include/c++/10.3.1/bits/std_function.h ****   enum _Manager_operation
 105:/Library/DaisyToolchain/0.2.0/arm/arm-none-eabi/include/c++/10.3.1/bits/std_function.h ****   {
 106:/Library/DaisyToolchain/0.2.0/arm/arm-none-eabi/include/c++/10.3.1/bits/std_function.h ****     __get_type_info,
 107:/Library/DaisyToolchain/0.2.0/arm/arm-none-eabi/include/c++/10.3.1/bits/std_function.h ****     __get_functor_ptr,
 108:/Library/DaisyToolchain/0.2.0/arm/arm-none-eabi/include/c++/10.3.1/bits/std_function.h ****     __clone_functor,
 109:/Library/DaisyToolchain/0.2.0/arm/arm-none-eabi/include/c++/10.3.1/bits/std_function.h ****     __destroy_functor
 110:/Library/DaisyToolchain/0.2.0/arm/arm-none-eabi/include/c++/10.3.1/bits/std_function.h ****   };
 111:/Library/DaisyToolchain/0.2.0/arm/arm-none-eabi/include/c++/10.3.1/bits/std_function.h **** 
 112:/Library/DaisyToolchain/0.2.0/arm/arm-none-eabi/include/c++/10.3.1/bits/std_function.h ****   template<typename _Signature>
 113:/Library/DaisyToolchain/0.2.0/arm/arm-none-eabi/include/c++/10.3.1/bits/std_function.h ****     class function;
 114:/Library/DaisyToolchain/0.2.0/arm/arm-none-eabi/include/c++/10.3.1/bits/std_function.h **** 
 115:/Library/DaisyToolchain/0.2.0/arm/arm-none-eabi/include/c++/10.3.1/bits/std_function.h ****   /// Base class of all polymorphic function object wrappers.
 116:/Library/DaisyToolchain/0.2.0/arm/arm-none-eabi/include/c++/10.3.1/bits/std_function.h ****   class _Function_base
 117:/Library/DaisyToolchain/0.2.0/arm/arm-none-eabi/include/c++/10.3.1/bits/std_function.h ****   {
 118:/Library/DaisyToolchain/0.2.0/arm/arm-none-eabi/include/c++/10.3.1/bits/std_function.h ****   public:
 119:/Library/DaisyToolchain/0.2.0/arm/arm-none-eabi/include/c++/10.3.1/bits/std_function.h ****     static const size_t _M_max_size = sizeof(_Nocopy_types);
 120:/Library/DaisyToolchain/0.2.0/arm/arm-none-eabi/include/c++/10.3.1/bits/std_function.h ****     static const size_t _M_max_align = __alignof__(_Nocopy_types);
 121:/Library/DaisyToolchain/0.2.0/arm/arm-none-eabi/include/c++/10.3.1/bits/std_function.h **** 
 122:/Library/DaisyToolchain/0.2.0/arm/arm-none-eabi/include/c++/10.3.1/bits/std_function.h ****     template<typename _Functor>
 123:/Library/DaisyToolchain/0.2.0/arm/arm-none-eabi/include/c++/10.3.1/bits/std_function.h ****       class _Base_manager
 124:/Library/DaisyToolchain/0.2.0/arm/arm-none-eabi/include/c++/10.3.1/bits/std_function.h ****       {
 125:/Library/DaisyToolchain/0.2.0/arm/arm-none-eabi/include/c++/10.3.1/bits/std_function.h ****       protected:
 126:/Library/DaisyToolchain/0.2.0/arm/arm-none-eabi/include/c++/10.3.1/bits/std_function.h **** 	static const bool __stored_locally =
 127:/Library/DaisyToolchain/0.2.0/arm/arm-none-eabi/include/c++/10.3.1/bits/std_function.h **** 	(__is_location_invariant<_Functor>::value
 128:/Library/DaisyToolchain/0.2.0/arm/arm-none-eabi/include/c++/10.3.1/bits/std_function.h **** 	 && sizeof(_Functor) <= _M_max_size
 129:/Library/DaisyToolchain/0.2.0/arm/arm-none-eabi/include/c++/10.3.1/bits/std_function.h **** 	 && __alignof__(_Functor) <= _M_max_align
 130:/Library/DaisyToolchain/0.2.0/arm/arm-none-eabi/include/c++/10.3.1/bits/std_function.h **** 	 && (_M_max_align % __alignof__(_Functor) == 0));
 131:/Library/DaisyToolchain/0.2.0/arm/arm-none-eabi/include/c++/10.3.1/bits/std_function.h **** 
 132:/Library/DaisyToolchain/0.2.0/arm/arm-none-eabi/include/c++/10.3.1/bits/std_function.h **** 	typedef integral_constant<bool, __stored_locally> _Local_storage;
 133:/Library/DaisyToolchain/0.2.0/arm/arm-none-eabi/include/c++/10.3.1/bits/std_function.h **** 
 134:/Library/DaisyToolchain/0.2.0/arm/arm-none-eabi/include/c++/10.3.1/bits/std_function.h **** 	// Retrieve a pointer to the function object
 135:/Library/DaisyToolchain/0.2.0/arm/arm-none-eabi/include/c++/10.3.1/bits/std_function.h **** 	static _Functor*
 136:/Library/DaisyToolchain/0.2.0/arm/arm-none-eabi/include/c++/10.3.1/bits/std_function.h **** 	_M_get_pointer(const _Any_data& __source)
 137:/Library/DaisyToolchain/0.2.0/arm/arm-none-eabi/include/c++/10.3.1/bits/std_function.h **** 	{
ARM GAS  /var/folders/9s/8rp0_f2s1n31qbztm3b5_fdh0000gn/T//ccUlKUex.s 			page 24


 138:/Library/DaisyToolchain/0.2.0/arm/arm-none-eabi/include/c++/10.3.1/bits/std_function.h **** 	  if _GLIBCXX17_CONSTEXPR (__stored_locally)
 139:/Library/DaisyToolchain/0.2.0/arm/arm-none-eabi/include/c++/10.3.1/bits/std_function.h **** 	    {
 140:/Library/DaisyToolchain/0.2.0/arm/arm-none-eabi/include/c++/10.3.1/bits/std_function.h **** 	      const _Functor& __f = __source._M_access<_Functor>();
 141:/Library/DaisyToolchain/0.2.0/arm/arm-none-eabi/include/c++/10.3.1/bits/std_function.h **** 	      return const_cast<_Functor*>(std::__addressof(__f));
 142:/Library/DaisyToolchain/0.2.0/arm/arm-none-eabi/include/c++/10.3.1/bits/std_function.h **** 	    }
 143:/Library/DaisyToolchain/0.2.0/arm/arm-none-eabi/include/c++/10.3.1/bits/std_function.h **** 	  else // have stored a pointer
 144:/Library/DaisyToolchain/0.2.0/arm/arm-none-eabi/include/c++/10.3.1/bits/std_function.h **** 	    return __source._M_access<_Functor*>();
 145:/Library/DaisyToolchain/0.2.0/arm/arm-none-eabi/include/c++/10.3.1/bits/std_function.h **** 	}
 146:/Library/DaisyToolchain/0.2.0/arm/arm-none-eabi/include/c++/10.3.1/bits/std_function.h **** 
 147:/Library/DaisyToolchain/0.2.0/arm/arm-none-eabi/include/c++/10.3.1/bits/std_function.h **** 	// Clone a location-invariant function object that fits within
 148:/Library/DaisyToolchain/0.2.0/arm/arm-none-eabi/include/c++/10.3.1/bits/std_function.h **** 	// an _Any_data structure.
 149:/Library/DaisyToolchain/0.2.0/arm/arm-none-eabi/include/c++/10.3.1/bits/std_function.h **** 	static void
 150:/Library/DaisyToolchain/0.2.0/arm/arm-none-eabi/include/c++/10.3.1/bits/std_function.h **** 	_M_clone(_Any_data& __dest, const _Any_data& __source, true_type)
 151:/Library/DaisyToolchain/0.2.0/arm/arm-none-eabi/include/c++/10.3.1/bits/std_function.h **** 	{
 152:/Library/DaisyToolchain/0.2.0/arm/arm-none-eabi/include/c++/10.3.1/bits/std_function.h **** 	  ::new (__dest._M_access()) _Functor(__source._M_access<_Functor>());
 153:/Library/DaisyToolchain/0.2.0/arm/arm-none-eabi/include/c++/10.3.1/bits/std_function.h **** 	}
 154:/Library/DaisyToolchain/0.2.0/arm/arm-none-eabi/include/c++/10.3.1/bits/std_function.h **** 
 155:/Library/DaisyToolchain/0.2.0/arm/arm-none-eabi/include/c++/10.3.1/bits/std_function.h **** 	// Clone a function object that is not location-invariant or
 156:/Library/DaisyToolchain/0.2.0/arm/arm-none-eabi/include/c++/10.3.1/bits/std_function.h **** 	// that cannot fit into an _Any_data structure.
 157:/Library/DaisyToolchain/0.2.0/arm/arm-none-eabi/include/c++/10.3.1/bits/std_function.h **** 	static void
 158:/Library/DaisyToolchain/0.2.0/arm/arm-none-eabi/include/c++/10.3.1/bits/std_function.h **** 	_M_clone(_Any_data& __dest, const _Any_data& __source, false_type)
 159:/Library/DaisyToolchain/0.2.0/arm/arm-none-eabi/include/c++/10.3.1/bits/std_function.h **** 	{
 160:/Library/DaisyToolchain/0.2.0/arm/arm-none-eabi/include/c++/10.3.1/bits/std_function.h **** 	  __dest._M_access<_Functor*>() =
 161:/Library/DaisyToolchain/0.2.0/arm/arm-none-eabi/include/c++/10.3.1/bits/std_function.h **** 	    new _Functor(*__source._M_access<const _Functor*>());
 162:/Library/DaisyToolchain/0.2.0/arm/arm-none-eabi/include/c++/10.3.1/bits/std_function.h **** 	}
 163:/Library/DaisyToolchain/0.2.0/arm/arm-none-eabi/include/c++/10.3.1/bits/std_function.h **** 
 164:/Library/DaisyToolchain/0.2.0/arm/arm-none-eabi/include/c++/10.3.1/bits/std_function.h **** 	// Destroying a location-invariant object may still require
 165:/Library/DaisyToolchain/0.2.0/arm/arm-none-eabi/include/c++/10.3.1/bits/std_function.h **** 	// destruction.
 166:/Library/DaisyToolchain/0.2.0/arm/arm-none-eabi/include/c++/10.3.1/bits/std_function.h **** 	static void
 167:/Library/DaisyToolchain/0.2.0/arm/arm-none-eabi/include/c++/10.3.1/bits/std_function.h **** 	_M_destroy(_Any_data& __victim, true_type)
 168:/Library/DaisyToolchain/0.2.0/arm/arm-none-eabi/include/c++/10.3.1/bits/std_function.h **** 	{
 169:/Library/DaisyToolchain/0.2.0/arm/arm-none-eabi/include/c++/10.3.1/bits/std_function.h **** 	  __victim._M_access<_Functor>().~_Functor();
 170:/Library/DaisyToolchain/0.2.0/arm/arm-none-eabi/include/c++/10.3.1/bits/std_function.h **** 	}
 171:/Library/DaisyToolchain/0.2.0/arm/arm-none-eabi/include/c++/10.3.1/bits/std_function.h **** 
 172:/Library/DaisyToolchain/0.2.0/arm/arm-none-eabi/include/c++/10.3.1/bits/std_function.h **** 	// Destroying an object located on the heap.
 173:/Library/DaisyToolchain/0.2.0/arm/arm-none-eabi/include/c++/10.3.1/bits/std_function.h **** 	static void
 174:/Library/DaisyToolchain/0.2.0/arm/arm-none-eabi/include/c++/10.3.1/bits/std_function.h **** 	_M_destroy(_Any_data& __victim, false_type)
 175:/Library/DaisyToolchain/0.2.0/arm/arm-none-eabi/include/c++/10.3.1/bits/std_function.h **** 	{
 176:/Library/DaisyToolchain/0.2.0/arm/arm-none-eabi/include/c++/10.3.1/bits/std_function.h **** 	  delete __victim._M_access<_Functor*>();
 177:/Library/DaisyToolchain/0.2.0/arm/arm-none-eabi/include/c++/10.3.1/bits/std_function.h **** 	}
 178:/Library/DaisyToolchain/0.2.0/arm/arm-none-eabi/include/c++/10.3.1/bits/std_function.h **** 
 179:/Library/DaisyToolchain/0.2.0/arm/arm-none-eabi/include/c++/10.3.1/bits/std_function.h ****       public:
 180:/Library/DaisyToolchain/0.2.0/arm/arm-none-eabi/include/c++/10.3.1/bits/std_function.h **** 	static bool
 181:/Library/DaisyToolchain/0.2.0/arm/arm-none-eabi/include/c++/10.3.1/bits/std_function.h **** 	_M_manager(_Any_data& __dest, const _Any_data& __source,
 182:/Library/DaisyToolchain/0.2.0/arm/arm-none-eabi/include/c++/10.3.1/bits/std_function.h **** 		   _Manager_operation __op)
 183:/Library/DaisyToolchain/0.2.0/arm/arm-none-eabi/include/c++/10.3.1/bits/std_function.h **** 	{
 184:/Library/DaisyToolchain/0.2.0/arm/arm-none-eabi/include/c++/10.3.1/bits/std_function.h **** 	  switch (__op)
 185:/Library/DaisyToolchain/0.2.0/arm/arm-none-eabi/include/c++/10.3.1/bits/std_function.h **** 	    {
 186:/Library/DaisyToolchain/0.2.0/arm/arm-none-eabi/include/c++/10.3.1/bits/std_function.h **** #if __cpp_rtti
 187:/Library/DaisyToolchain/0.2.0/arm/arm-none-eabi/include/c++/10.3.1/bits/std_function.h **** 	    case __get_type_info:
 188:/Library/DaisyToolchain/0.2.0/arm/arm-none-eabi/include/c++/10.3.1/bits/std_function.h **** 	      __dest._M_access<const type_info*>() = &typeid(_Functor);
 189:/Library/DaisyToolchain/0.2.0/arm/arm-none-eabi/include/c++/10.3.1/bits/std_function.h **** 	      break;
 190:/Library/DaisyToolchain/0.2.0/arm/arm-none-eabi/include/c++/10.3.1/bits/std_function.h **** #endif
 191:/Library/DaisyToolchain/0.2.0/arm/arm-none-eabi/include/c++/10.3.1/bits/std_function.h **** 	    case __get_functor_ptr:
 192:/Library/DaisyToolchain/0.2.0/arm/arm-none-eabi/include/c++/10.3.1/bits/std_function.h **** 	      __dest._M_access<_Functor*>() = _M_get_pointer(__source);
 193:/Library/DaisyToolchain/0.2.0/arm/arm-none-eabi/include/c++/10.3.1/bits/std_function.h **** 	      break;
 194:/Library/DaisyToolchain/0.2.0/arm/arm-none-eabi/include/c++/10.3.1/bits/std_function.h **** 
ARM GAS  /var/folders/9s/8rp0_f2s1n31qbztm3b5_fdh0000gn/T//ccUlKUex.s 			page 25


 195:/Library/DaisyToolchain/0.2.0/arm/arm-none-eabi/include/c++/10.3.1/bits/std_function.h **** 	    case __clone_functor:
 196:/Library/DaisyToolchain/0.2.0/arm/arm-none-eabi/include/c++/10.3.1/bits/std_function.h **** 	      _M_clone(__dest, __source, _Local_storage());
 197:/Library/DaisyToolchain/0.2.0/arm/arm-none-eabi/include/c++/10.3.1/bits/std_function.h **** 	      break;
 198:/Library/DaisyToolchain/0.2.0/arm/arm-none-eabi/include/c++/10.3.1/bits/std_function.h **** 
 199:/Library/DaisyToolchain/0.2.0/arm/arm-none-eabi/include/c++/10.3.1/bits/std_function.h **** 	    case __destroy_functor:
 200:/Library/DaisyToolchain/0.2.0/arm/arm-none-eabi/include/c++/10.3.1/bits/std_function.h **** 	      _M_destroy(__dest, _Local_storage());
 201:/Library/DaisyToolchain/0.2.0/arm/arm-none-eabi/include/c++/10.3.1/bits/std_function.h **** 	      break;
 202:/Library/DaisyToolchain/0.2.0/arm/arm-none-eabi/include/c++/10.3.1/bits/std_function.h **** 	    }
 203:/Library/DaisyToolchain/0.2.0/arm/arm-none-eabi/include/c++/10.3.1/bits/std_function.h **** 	  return false;
 204:/Library/DaisyToolchain/0.2.0/arm/arm-none-eabi/include/c++/10.3.1/bits/std_function.h **** 	}
 205:/Library/DaisyToolchain/0.2.0/arm/arm-none-eabi/include/c++/10.3.1/bits/std_function.h **** 
 206:/Library/DaisyToolchain/0.2.0/arm/arm-none-eabi/include/c++/10.3.1/bits/std_function.h **** 	static void
 207:/Library/DaisyToolchain/0.2.0/arm/arm-none-eabi/include/c++/10.3.1/bits/std_function.h **** 	_M_init_functor(_Any_data& __functor, _Functor&& __f)
 208:/Library/DaisyToolchain/0.2.0/arm/arm-none-eabi/include/c++/10.3.1/bits/std_function.h **** 	{ _M_init_functor(__functor, std::move(__f), _Local_storage()); }
 209:/Library/DaisyToolchain/0.2.0/arm/arm-none-eabi/include/c++/10.3.1/bits/std_function.h **** 
 210:/Library/DaisyToolchain/0.2.0/arm/arm-none-eabi/include/c++/10.3.1/bits/std_function.h **** 	template<typename _Signature>
 211:/Library/DaisyToolchain/0.2.0/arm/arm-none-eabi/include/c++/10.3.1/bits/std_function.h **** 	  static bool
 212:/Library/DaisyToolchain/0.2.0/arm/arm-none-eabi/include/c++/10.3.1/bits/std_function.h **** 	  _M_not_empty_function(const function<_Signature>& __f)
 213:/Library/DaisyToolchain/0.2.0/arm/arm-none-eabi/include/c++/10.3.1/bits/std_function.h **** 	  { return static_cast<bool>(__f); }
 214:/Library/DaisyToolchain/0.2.0/arm/arm-none-eabi/include/c++/10.3.1/bits/std_function.h **** 
 215:/Library/DaisyToolchain/0.2.0/arm/arm-none-eabi/include/c++/10.3.1/bits/std_function.h **** 	template<typename _Tp>
 216:/Library/DaisyToolchain/0.2.0/arm/arm-none-eabi/include/c++/10.3.1/bits/std_function.h **** 	  static bool
 217:/Library/DaisyToolchain/0.2.0/arm/arm-none-eabi/include/c++/10.3.1/bits/std_function.h **** 	  _M_not_empty_function(_Tp* __fp)
 218:/Library/DaisyToolchain/0.2.0/arm/arm-none-eabi/include/c++/10.3.1/bits/std_function.h **** 	  { return __fp != nullptr; }
 219:/Library/DaisyToolchain/0.2.0/arm/arm-none-eabi/include/c++/10.3.1/bits/std_function.h **** 
 220:/Library/DaisyToolchain/0.2.0/arm/arm-none-eabi/include/c++/10.3.1/bits/std_function.h **** 	template<typename _Class, typename _Tp>
 221:/Library/DaisyToolchain/0.2.0/arm/arm-none-eabi/include/c++/10.3.1/bits/std_function.h **** 	  static bool
 222:/Library/DaisyToolchain/0.2.0/arm/arm-none-eabi/include/c++/10.3.1/bits/std_function.h **** 	  _M_not_empty_function(_Tp _Class::* __mp)
 223:/Library/DaisyToolchain/0.2.0/arm/arm-none-eabi/include/c++/10.3.1/bits/std_function.h **** 	  { return __mp != nullptr; }
 224:/Library/DaisyToolchain/0.2.0/arm/arm-none-eabi/include/c++/10.3.1/bits/std_function.h **** 
 225:/Library/DaisyToolchain/0.2.0/arm/arm-none-eabi/include/c++/10.3.1/bits/std_function.h **** 	template<typename _Tp>
 226:/Library/DaisyToolchain/0.2.0/arm/arm-none-eabi/include/c++/10.3.1/bits/std_function.h **** 	  static bool
 227:/Library/DaisyToolchain/0.2.0/arm/arm-none-eabi/include/c++/10.3.1/bits/std_function.h **** 	  _M_not_empty_function(const _Tp&)
 228:/Library/DaisyToolchain/0.2.0/arm/arm-none-eabi/include/c++/10.3.1/bits/std_function.h **** 	  { return true; }
 229:/Library/DaisyToolchain/0.2.0/arm/arm-none-eabi/include/c++/10.3.1/bits/std_function.h **** 
 230:/Library/DaisyToolchain/0.2.0/arm/arm-none-eabi/include/c++/10.3.1/bits/std_function.h ****       private:
 231:/Library/DaisyToolchain/0.2.0/arm/arm-none-eabi/include/c++/10.3.1/bits/std_function.h **** 	static void
 232:/Library/DaisyToolchain/0.2.0/arm/arm-none-eabi/include/c++/10.3.1/bits/std_function.h **** 	_M_init_functor(_Any_data& __functor, _Functor&& __f, true_type)
 233:/Library/DaisyToolchain/0.2.0/arm/arm-none-eabi/include/c++/10.3.1/bits/std_function.h **** 	{ ::new (__functor._M_access()) _Functor(std::move(__f)); }
 234:/Library/DaisyToolchain/0.2.0/arm/arm-none-eabi/include/c++/10.3.1/bits/std_function.h **** 
 235:/Library/DaisyToolchain/0.2.0/arm/arm-none-eabi/include/c++/10.3.1/bits/std_function.h **** 	static void
 236:/Library/DaisyToolchain/0.2.0/arm/arm-none-eabi/include/c++/10.3.1/bits/std_function.h **** 	_M_init_functor(_Any_data& __functor, _Functor&& __f, false_type)
 237:/Library/DaisyToolchain/0.2.0/arm/arm-none-eabi/include/c++/10.3.1/bits/std_function.h **** 	{ __functor._M_access<_Functor*>() = new _Functor(std::move(__f)); }
 238:/Library/DaisyToolchain/0.2.0/arm/arm-none-eabi/include/c++/10.3.1/bits/std_function.h ****       };
 239:/Library/DaisyToolchain/0.2.0/arm/arm-none-eabi/include/c++/10.3.1/bits/std_function.h **** 
 240:/Library/DaisyToolchain/0.2.0/arm/arm-none-eabi/include/c++/10.3.1/bits/std_function.h ****     _Function_base() : _M_manager(nullptr) { }
 241:/Library/DaisyToolchain/0.2.0/arm/arm-none-eabi/include/c++/10.3.1/bits/std_function.h **** 
 242:/Library/DaisyToolchain/0.2.0/arm/arm-none-eabi/include/c++/10.3.1/bits/std_function.h ****     ~_Function_base()
 243:/Library/DaisyToolchain/0.2.0/arm/arm-none-eabi/include/c++/10.3.1/bits/std_function.h ****     {
 244:/Library/DaisyToolchain/0.2.0/arm/arm-none-eabi/include/c++/10.3.1/bits/std_function.h ****       if (_M_manager)
 245:/Library/DaisyToolchain/0.2.0/arm/arm-none-eabi/include/c++/10.3.1/bits/std_function.h **** 	_M_manager(_M_functor, _M_functor, __destroy_functor);
 246:/Library/DaisyToolchain/0.2.0/arm/arm-none-eabi/include/c++/10.3.1/bits/std_function.h ****     }
 247:/Library/DaisyToolchain/0.2.0/arm/arm-none-eabi/include/c++/10.3.1/bits/std_function.h **** 
 248:/Library/DaisyToolchain/0.2.0/arm/arm-none-eabi/include/c++/10.3.1/bits/std_function.h ****     bool _M_empty() const { return !_M_manager; }
 249:/Library/DaisyToolchain/0.2.0/arm/arm-none-eabi/include/c++/10.3.1/bits/std_function.h **** 
 250:/Library/DaisyToolchain/0.2.0/arm/arm-none-eabi/include/c++/10.3.1/bits/std_function.h ****     typedef bool (*_Manager_type)(_Any_data&, const _Any_data&,
 251:/Library/DaisyToolchain/0.2.0/arm/arm-none-eabi/include/c++/10.3.1/bits/std_function.h **** 				  _Manager_operation);
ARM GAS  /var/folders/9s/8rp0_f2s1n31qbztm3b5_fdh0000gn/T//ccUlKUex.s 			page 26


 252:/Library/DaisyToolchain/0.2.0/arm/arm-none-eabi/include/c++/10.3.1/bits/std_function.h **** 
 253:/Library/DaisyToolchain/0.2.0/arm/arm-none-eabi/include/c++/10.3.1/bits/std_function.h ****     _Any_data     _M_functor;
 254:/Library/DaisyToolchain/0.2.0/arm/arm-none-eabi/include/c++/10.3.1/bits/std_function.h ****     _Manager_type _M_manager;
 255:/Library/DaisyToolchain/0.2.0/arm/arm-none-eabi/include/c++/10.3.1/bits/std_function.h ****   };
 256:/Library/DaisyToolchain/0.2.0/arm/arm-none-eabi/include/c++/10.3.1/bits/std_function.h **** 
 257:/Library/DaisyToolchain/0.2.0/arm/arm-none-eabi/include/c++/10.3.1/bits/std_function.h ****   template<typename _Signature, typename _Functor>
 258:/Library/DaisyToolchain/0.2.0/arm/arm-none-eabi/include/c++/10.3.1/bits/std_function.h ****     class _Function_handler;
 259:/Library/DaisyToolchain/0.2.0/arm/arm-none-eabi/include/c++/10.3.1/bits/std_function.h **** 
 260:/Library/DaisyToolchain/0.2.0/arm/arm-none-eabi/include/c++/10.3.1/bits/std_function.h ****   template<typename _Res, typename _Functor, typename... _ArgTypes>
 261:/Library/DaisyToolchain/0.2.0/arm/arm-none-eabi/include/c++/10.3.1/bits/std_function.h ****     class _Function_handler<_Res(_ArgTypes...), _Functor>
 262:/Library/DaisyToolchain/0.2.0/arm/arm-none-eabi/include/c++/10.3.1/bits/std_function.h ****     : public _Function_base::_Base_manager<_Functor>
 263:/Library/DaisyToolchain/0.2.0/arm/arm-none-eabi/include/c++/10.3.1/bits/std_function.h ****     {
 264:/Library/DaisyToolchain/0.2.0/arm/arm-none-eabi/include/c++/10.3.1/bits/std_function.h ****       typedef _Function_base::_Base_manager<_Functor> _Base;
 265:/Library/DaisyToolchain/0.2.0/arm/arm-none-eabi/include/c++/10.3.1/bits/std_function.h **** 
 266:/Library/DaisyToolchain/0.2.0/arm/arm-none-eabi/include/c++/10.3.1/bits/std_function.h ****     public:
 267:/Library/DaisyToolchain/0.2.0/arm/arm-none-eabi/include/c++/10.3.1/bits/std_function.h ****       static bool
 268:/Library/DaisyToolchain/0.2.0/arm/arm-none-eabi/include/c++/10.3.1/bits/std_function.h ****       _M_manager(_Any_data& __dest, const _Any_data& __source,
 292              		.loc 14 268 7 is_stmt 1 view -0
 293              		.cfi_startproc
 294              		@ args = 0, pretend = 0, frame = 0
 295              		@ frame_needed = 0, uses_anonymous_args = 0
 296              		@ link register save eliminated.
 269:/Library/DaisyToolchain/0.2.0/arm/arm-none-eabi/include/c++/10.3.1/bits/std_function.h **** 		 _Manager_operation __op)
 270:/Library/DaisyToolchain/0.2.0/arm/arm-none-eabi/include/c++/10.3.1/bits/std_function.h ****       {
 271:/Library/DaisyToolchain/0.2.0/arm/arm-none-eabi/include/c++/10.3.1/bits/std_function.h **** 	switch (__op)
 297              		.loc 14 271 2 is_stmt 0 view .LVU55
 298 0000 012A     		cmp	r2, #1
 299              	.LVL18:
  87:/Library/DaisyToolchain/0.2.0/arm/arm-none-eabi/include/c++/10.3.1/bits/std_function.h ****     const void* _M_access() const { return &_M_pod_data[0]; }
 300              		.loc 14 87 37 is_stmt 1 view .LVU56
 301              	.LBB606:
 302              	.LBI606:
 136:/Library/DaisyToolchain/0.2.0/arm/arm-none-eabi/include/c++/10.3.1/bits/std_function.h **** 	{
 303              		.loc 14 136 2 view .LVU57
 304              	.LBB607:
 305              	.LBB608:
 306              	.LBI608:
  97:/Library/DaisyToolchain/0.2.0/arm/arm-none-eabi/include/c++/10.3.1/bits/std_function.h ****       { return *static_cast<const _Tp*>(_M_access()); }
 307              		.loc 14 97 7 view .LVU58
 308              	.LBB609:
 309              	.LBI609:
  88:/Library/DaisyToolchain/0.2.0/arm/arm-none-eabi/include/c++/10.3.1/bits/std_function.h **** 
 310              		.loc 14 88 17 view .LVU59
 311              	.LBB610:
  88:/Library/DaisyToolchain/0.2.0/arm/arm-none-eabi/include/c++/10.3.1/bits/std_function.h **** 
 312              		.loc 14 88 37 view .LVU60
  88:/Library/DaisyToolchain/0.2.0/arm/arm-none-eabi/include/c++/10.3.1/bits/std_function.h **** 
 313              		.loc 14 88 37 is_stmt 0 view .LVU61
 314              	.LBE610:
 315              	.LBE609:
 316              	.LBE608:
 317              	.LBE607:
 318              	.LBE606:
 272:/Library/DaisyToolchain/0.2.0/arm/arm-none-eabi/include/c++/10.3.1/bits/std_function.h **** 	  {
 273:/Library/DaisyToolchain/0.2.0/arm/arm-none-eabi/include/c++/10.3.1/bits/std_function.h **** #if __cpp_rtti
 274:/Library/DaisyToolchain/0.2.0/arm/arm-none-eabi/include/c++/10.3.1/bits/std_function.h **** 	  case __get_type_info:
 275:/Library/DaisyToolchain/0.2.0/arm/arm-none-eabi/include/c++/10.3.1/bits/std_function.h **** 	    __dest._M_access<const type_info*>() = &typeid(_Functor);
ARM GAS  /var/folders/9s/8rp0_f2s1n31qbztm3b5_fdh0000gn/T//ccUlKUex.s 			page 27


 276:/Library/DaisyToolchain/0.2.0/arm/arm-none-eabi/include/c++/10.3.1/bits/std_function.h **** 	    break;
 277:/Library/DaisyToolchain/0.2.0/arm/arm-none-eabi/include/c++/10.3.1/bits/std_function.h **** #endif
 278:/Library/DaisyToolchain/0.2.0/arm/arm-none-eabi/include/c++/10.3.1/bits/std_function.h **** 	  case __get_functor_ptr:
 279:/Library/DaisyToolchain/0.2.0/arm/arm-none-eabi/include/c++/10.3.1/bits/std_function.h **** 	    __dest._M_access<_Functor*>() = _Base::_M_get_pointer(__source);
 319              		.loc 14 279 36 view .LVU62
 320 0002 08BF     		it	eq
 321 0004 0160     		streq	r1, [r0]
 280:/Library/DaisyToolchain/0.2.0/arm/arm-none-eabi/include/c++/10.3.1/bits/std_function.h **** 	    break;
 281:/Library/DaisyToolchain/0.2.0/arm/arm-none-eabi/include/c++/10.3.1/bits/std_function.h **** 
 282:/Library/DaisyToolchain/0.2.0/arm/arm-none-eabi/include/c++/10.3.1/bits/std_function.h **** 	  default:
 283:/Library/DaisyToolchain/0.2.0/arm/arm-none-eabi/include/c++/10.3.1/bits/std_function.h **** 	    _Base::_M_manager(__dest, __source, __op);
 284:/Library/DaisyToolchain/0.2.0/arm/arm-none-eabi/include/c++/10.3.1/bits/std_function.h **** 	  }
 285:/Library/DaisyToolchain/0.2.0/arm/arm-none-eabi/include/c++/10.3.1/bits/std_function.h **** 	return false;
 286:/Library/DaisyToolchain/0.2.0/arm/arm-none-eabi/include/c++/10.3.1/bits/std_function.h ****       }
 322              		.loc 14 286 7 view .LVU63
 323 0006 0020     		movs	r0, #0
 324              	.LVL19:
 325              		.loc 14 286 7 view .LVU64
 326 0008 7047     		bx	lr
 327              		.cfi_endproc
 328              	.LFE6485:
 330              		.section	.text._ZNSt17_Function_handlerIFviEZ23UpdateArpeggiatorTogglevEUliE_E9_M_invokeERKSt9_Any
 331              		.align	1
 332              		.syntax unified
 333              		.thumb
 334              		.thumb_func
 336              	_ZNSt17_Function_handlerIFviEZ23UpdateArpeggiatorTogglevEUliE_E9_M_invokeERKSt9_Any_dataOi:
 337              	.LVL20:
 338              	.LFB6484:
 287:/Library/DaisyToolchain/0.2.0/arm/arm-none-eabi/include/c++/10.3.1/bits/std_function.h **** 
 288:/Library/DaisyToolchain/0.2.0/arm/arm-none-eabi/include/c++/10.3.1/bits/std_function.h ****       static _Res
 289:/Library/DaisyToolchain/0.2.0/arm/arm-none-eabi/include/c++/10.3.1/bits/std_function.h ****       _M_invoke(const _Any_data& __functor, _ArgTypes&&... __args)
 339              		.loc 14 289 7 is_stmt 1 view -0
 340              		.cfi_startproc
 341              		@ args = 0, pretend = 0, frame = 0
 342              		@ frame_needed = 0, uses_anonymous_args = 0
 343              		@ link register save eliminated.
  88:/Library/DaisyToolchain/0.2.0/arm/arm-none-eabi/include/c++/10.3.1/bits/std_function.h **** 
 344              		.loc 14 88 37 view .LVU66
 345              	.LBB620:
 346              	.LBI620:
 347              		.file 15 "/Library/DaisyToolchain/0.2.0/arm/arm-none-eabi/include/c++/10.3.1/bits/invoke.h"
   1:/Library/DaisyToolchain/0.2.0/arm/arm-none-eabi/include/c++/10.3.1/bits/invoke.h **** // Implementation of INVOKE -*- C++ -*-
   2:/Library/DaisyToolchain/0.2.0/arm/arm-none-eabi/include/c++/10.3.1/bits/invoke.h **** 
   3:/Library/DaisyToolchain/0.2.0/arm/arm-none-eabi/include/c++/10.3.1/bits/invoke.h **** // Copyright (C) 2016-2020 Free Software Foundation, Inc.
   4:/Library/DaisyToolchain/0.2.0/arm/arm-none-eabi/include/c++/10.3.1/bits/invoke.h **** //
   5:/Library/DaisyToolchain/0.2.0/arm/arm-none-eabi/include/c++/10.3.1/bits/invoke.h **** // This file is part of the GNU ISO C++ Library.  This library is free
   6:/Library/DaisyToolchain/0.2.0/arm/arm-none-eabi/include/c++/10.3.1/bits/invoke.h **** // software; you can redistribute it and/or modify it under the
   7:/Library/DaisyToolchain/0.2.0/arm/arm-none-eabi/include/c++/10.3.1/bits/invoke.h **** // terms of the GNU General Public License as published by the
   8:/Library/DaisyToolchain/0.2.0/arm/arm-none-eabi/include/c++/10.3.1/bits/invoke.h **** // Free Software Foundation; either version 3, or (at your option)
   9:/Library/DaisyToolchain/0.2.0/arm/arm-none-eabi/include/c++/10.3.1/bits/invoke.h **** // any later version.
  10:/Library/DaisyToolchain/0.2.0/arm/arm-none-eabi/include/c++/10.3.1/bits/invoke.h **** 
  11:/Library/DaisyToolchain/0.2.0/arm/arm-none-eabi/include/c++/10.3.1/bits/invoke.h **** // This library is distributed in the hope that it will be useful,
  12:/Library/DaisyToolchain/0.2.0/arm/arm-none-eabi/include/c++/10.3.1/bits/invoke.h **** // but WITHOUT ANY WARRANTY; without even the implied warranty of
  13:/Library/DaisyToolchain/0.2.0/arm/arm-none-eabi/include/c++/10.3.1/bits/invoke.h **** // MERCHANTABILITY or FITNESS FOR A PARTICULAR PURPOSE.  See the
  14:/Library/DaisyToolchain/0.2.0/arm/arm-none-eabi/include/c++/10.3.1/bits/invoke.h **** // GNU General Public License for more details.
  15:/Library/DaisyToolchain/0.2.0/arm/arm-none-eabi/include/c++/10.3.1/bits/invoke.h **** 
ARM GAS  /var/folders/9s/8rp0_f2s1n31qbztm3b5_fdh0000gn/T//ccUlKUex.s 			page 28


  16:/Library/DaisyToolchain/0.2.0/arm/arm-none-eabi/include/c++/10.3.1/bits/invoke.h **** // Under Section 7 of GPL version 3, you are granted additional
  17:/Library/DaisyToolchain/0.2.0/arm/arm-none-eabi/include/c++/10.3.1/bits/invoke.h **** // permissions described in the GCC Runtime Library Exception, version
  18:/Library/DaisyToolchain/0.2.0/arm/arm-none-eabi/include/c++/10.3.1/bits/invoke.h **** // 3.1, as published by the Free Software Foundation.
  19:/Library/DaisyToolchain/0.2.0/arm/arm-none-eabi/include/c++/10.3.1/bits/invoke.h **** 
  20:/Library/DaisyToolchain/0.2.0/arm/arm-none-eabi/include/c++/10.3.1/bits/invoke.h **** // You should have received a copy of the GNU General Public License and
  21:/Library/DaisyToolchain/0.2.0/arm/arm-none-eabi/include/c++/10.3.1/bits/invoke.h **** // a copy of the GCC Runtime Library Exception along with this program;
  22:/Library/DaisyToolchain/0.2.0/arm/arm-none-eabi/include/c++/10.3.1/bits/invoke.h **** // see the files COPYING3 and COPYING.RUNTIME respectively.  If not, see
  23:/Library/DaisyToolchain/0.2.0/arm/arm-none-eabi/include/c++/10.3.1/bits/invoke.h **** // <http://www.gnu.org/licenses/>.
  24:/Library/DaisyToolchain/0.2.0/arm/arm-none-eabi/include/c++/10.3.1/bits/invoke.h **** 
  25:/Library/DaisyToolchain/0.2.0/arm/arm-none-eabi/include/c++/10.3.1/bits/invoke.h **** /** @file include/bits/invoke.h
  26:/Library/DaisyToolchain/0.2.0/arm/arm-none-eabi/include/c++/10.3.1/bits/invoke.h ****  *  This is an internal header file, included by other library headers.
  27:/Library/DaisyToolchain/0.2.0/arm/arm-none-eabi/include/c++/10.3.1/bits/invoke.h ****  *  Do not attempt to use it directly. @headername{functional}
  28:/Library/DaisyToolchain/0.2.0/arm/arm-none-eabi/include/c++/10.3.1/bits/invoke.h ****  */
  29:/Library/DaisyToolchain/0.2.0/arm/arm-none-eabi/include/c++/10.3.1/bits/invoke.h **** 
  30:/Library/DaisyToolchain/0.2.0/arm/arm-none-eabi/include/c++/10.3.1/bits/invoke.h **** #ifndef _GLIBCXX_INVOKE_H
  31:/Library/DaisyToolchain/0.2.0/arm/arm-none-eabi/include/c++/10.3.1/bits/invoke.h **** #define _GLIBCXX_INVOKE_H 1
  32:/Library/DaisyToolchain/0.2.0/arm/arm-none-eabi/include/c++/10.3.1/bits/invoke.h **** 
  33:/Library/DaisyToolchain/0.2.0/arm/arm-none-eabi/include/c++/10.3.1/bits/invoke.h **** #pragma GCC system_header
  34:/Library/DaisyToolchain/0.2.0/arm/arm-none-eabi/include/c++/10.3.1/bits/invoke.h **** 
  35:/Library/DaisyToolchain/0.2.0/arm/arm-none-eabi/include/c++/10.3.1/bits/invoke.h **** #if __cplusplus < 201103L
  36:/Library/DaisyToolchain/0.2.0/arm/arm-none-eabi/include/c++/10.3.1/bits/invoke.h **** # include <bits/c++0x_warning.h>
  37:/Library/DaisyToolchain/0.2.0/arm/arm-none-eabi/include/c++/10.3.1/bits/invoke.h **** #else
  38:/Library/DaisyToolchain/0.2.0/arm/arm-none-eabi/include/c++/10.3.1/bits/invoke.h **** 
  39:/Library/DaisyToolchain/0.2.0/arm/arm-none-eabi/include/c++/10.3.1/bits/invoke.h **** #include <type_traits>
  40:/Library/DaisyToolchain/0.2.0/arm/arm-none-eabi/include/c++/10.3.1/bits/invoke.h **** 
  41:/Library/DaisyToolchain/0.2.0/arm/arm-none-eabi/include/c++/10.3.1/bits/invoke.h **** namespace std _GLIBCXX_VISIBILITY(default)
  42:/Library/DaisyToolchain/0.2.0/arm/arm-none-eabi/include/c++/10.3.1/bits/invoke.h **** {
  43:/Library/DaisyToolchain/0.2.0/arm/arm-none-eabi/include/c++/10.3.1/bits/invoke.h **** _GLIBCXX_BEGIN_NAMESPACE_VERSION
  44:/Library/DaisyToolchain/0.2.0/arm/arm-none-eabi/include/c++/10.3.1/bits/invoke.h **** 
  45:/Library/DaisyToolchain/0.2.0/arm/arm-none-eabi/include/c++/10.3.1/bits/invoke.h ****   /**
  46:/Library/DaisyToolchain/0.2.0/arm/arm-none-eabi/include/c++/10.3.1/bits/invoke.h ****    *  @addtogroup utilities
  47:/Library/DaisyToolchain/0.2.0/arm/arm-none-eabi/include/c++/10.3.1/bits/invoke.h ****    *  @{
  48:/Library/DaisyToolchain/0.2.0/arm/arm-none-eabi/include/c++/10.3.1/bits/invoke.h ****    */
  49:/Library/DaisyToolchain/0.2.0/arm/arm-none-eabi/include/c++/10.3.1/bits/invoke.h **** 
  50:/Library/DaisyToolchain/0.2.0/arm/arm-none-eabi/include/c++/10.3.1/bits/invoke.h ****   // Used by __invoke_impl instead of std::forward<_Tp> so that a
  51:/Library/DaisyToolchain/0.2.0/arm/arm-none-eabi/include/c++/10.3.1/bits/invoke.h ****   // reference_wrapper is converted to an lvalue-reference.
  52:/Library/DaisyToolchain/0.2.0/arm/arm-none-eabi/include/c++/10.3.1/bits/invoke.h ****   template<typename _Tp, typename _Up = typename __inv_unwrap<_Tp>::type>
  53:/Library/DaisyToolchain/0.2.0/arm/arm-none-eabi/include/c++/10.3.1/bits/invoke.h ****     constexpr _Up&&
  54:/Library/DaisyToolchain/0.2.0/arm/arm-none-eabi/include/c++/10.3.1/bits/invoke.h ****     __invfwd(typename remove_reference<_Tp>::type& __t) noexcept
  55:/Library/DaisyToolchain/0.2.0/arm/arm-none-eabi/include/c++/10.3.1/bits/invoke.h ****     { return static_cast<_Up&&>(__t); }
  56:/Library/DaisyToolchain/0.2.0/arm/arm-none-eabi/include/c++/10.3.1/bits/invoke.h **** 
  57:/Library/DaisyToolchain/0.2.0/arm/arm-none-eabi/include/c++/10.3.1/bits/invoke.h ****   template<typename _Res, typename _Fn, typename... _Args>
  58:/Library/DaisyToolchain/0.2.0/arm/arm-none-eabi/include/c++/10.3.1/bits/invoke.h ****     constexpr _Res
  59:/Library/DaisyToolchain/0.2.0/arm/arm-none-eabi/include/c++/10.3.1/bits/invoke.h ****     __invoke_impl(__invoke_other, _Fn&& __f, _Args&&... __args)
  60:/Library/DaisyToolchain/0.2.0/arm/arm-none-eabi/include/c++/10.3.1/bits/invoke.h ****     { return std::forward<_Fn>(__f)(std::forward<_Args>(__args)...); }
  61:/Library/DaisyToolchain/0.2.0/arm/arm-none-eabi/include/c++/10.3.1/bits/invoke.h **** 
  62:/Library/DaisyToolchain/0.2.0/arm/arm-none-eabi/include/c++/10.3.1/bits/invoke.h ****   template<typename _Res, typename _MemFun, typename _Tp, typename... _Args>
  63:/Library/DaisyToolchain/0.2.0/arm/arm-none-eabi/include/c++/10.3.1/bits/invoke.h ****     constexpr _Res
  64:/Library/DaisyToolchain/0.2.0/arm/arm-none-eabi/include/c++/10.3.1/bits/invoke.h ****     __invoke_impl(__invoke_memfun_ref, _MemFun&& __f, _Tp&& __t,
  65:/Library/DaisyToolchain/0.2.0/arm/arm-none-eabi/include/c++/10.3.1/bits/invoke.h **** 		  _Args&&... __args)
  66:/Library/DaisyToolchain/0.2.0/arm/arm-none-eabi/include/c++/10.3.1/bits/invoke.h ****     { return (__invfwd<_Tp>(__t).*__f)(std::forward<_Args>(__args)...); }
  67:/Library/DaisyToolchain/0.2.0/arm/arm-none-eabi/include/c++/10.3.1/bits/invoke.h **** 
  68:/Library/DaisyToolchain/0.2.0/arm/arm-none-eabi/include/c++/10.3.1/bits/invoke.h ****   template<typename _Res, typename _MemFun, typename _Tp, typename... _Args>
  69:/Library/DaisyToolchain/0.2.0/arm/arm-none-eabi/include/c++/10.3.1/bits/invoke.h ****     constexpr _Res
  70:/Library/DaisyToolchain/0.2.0/arm/arm-none-eabi/include/c++/10.3.1/bits/invoke.h ****     __invoke_impl(__invoke_memfun_deref, _MemFun&& __f, _Tp&& __t,
  71:/Library/DaisyToolchain/0.2.0/arm/arm-none-eabi/include/c++/10.3.1/bits/invoke.h **** 		  _Args&&... __args)
  72:/Library/DaisyToolchain/0.2.0/arm/arm-none-eabi/include/c++/10.3.1/bits/invoke.h ****     {
ARM GAS  /var/folders/9s/8rp0_f2s1n31qbztm3b5_fdh0000gn/T//ccUlKUex.s 			page 29


  73:/Library/DaisyToolchain/0.2.0/arm/arm-none-eabi/include/c++/10.3.1/bits/invoke.h ****       return ((*std::forward<_Tp>(__t)).*__f)(std::forward<_Args>(__args)...);
  74:/Library/DaisyToolchain/0.2.0/arm/arm-none-eabi/include/c++/10.3.1/bits/invoke.h ****     }
  75:/Library/DaisyToolchain/0.2.0/arm/arm-none-eabi/include/c++/10.3.1/bits/invoke.h **** 
  76:/Library/DaisyToolchain/0.2.0/arm/arm-none-eabi/include/c++/10.3.1/bits/invoke.h ****   template<typename _Res, typename _MemPtr, typename _Tp>
  77:/Library/DaisyToolchain/0.2.0/arm/arm-none-eabi/include/c++/10.3.1/bits/invoke.h ****     constexpr _Res
  78:/Library/DaisyToolchain/0.2.0/arm/arm-none-eabi/include/c++/10.3.1/bits/invoke.h ****     __invoke_impl(__invoke_memobj_ref, _MemPtr&& __f, _Tp&& __t)
  79:/Library/DaisyToolchain/0.2.0/arm/arm-none-eabi/include/c++/10.3.1/bits/invoke.h ****     { return __invfwd<_Tp>(__t).*__f; }
  80:/Library/DaisyToolchain/0.2.0/arm/arm-none-eabi/include/c++/10.3.1/bits/invoke.h **** 
  81:/Library/DaisyToolchain/0.2.0/arm/arm-none-eabi/include/c++/10.3.1/bits/invoke.h ****   template<typename _Res, typename _MemPtr, typename _Tp>
  82:/Library/DaisyToolchain/0.2.0/arm/arm-none-eabi/include/c++/10.3.1/bits/invoke.h ****     constexpr _Res
  83:/Library/DaisyToolchain/0.2.0/arm/arm-none-eabi/include/c++/10.3.1/bits/invoke.h ****     __invoke_impl(__invoke_memobj_deref, _MemPtr&& __f, _Tp&& __t)
  84:/Library/DaisyToolchain/0.2.0/arm/arm-none-eabi/include/c++/10.3.1/bits/invoke.h ****     { return (*std::forward<_Tp>(__t)).*__f; }
  85:/Library/DaisyToolchain/0.2.0/arm/arm-none-eabi/include/c++/10.3.1/bits/invoke.h **** 
  86:/Library/DaisyToolchain/0.2.0/arm/arm-none-eabi/include/c++/10.3.1/bits/invoke.h ****   /// Invoke a callable object.
  87:/Library/DaisyToolchain/0.2.0/arm/arm-none-eabi/include/c++/10.3.1/bits/invoke.h ****   template<typename _Callable, typename... _Args>
  88:/Library/DaisyToolchain/0.2.0/arm/arm-none-eabi/include/c++/10.3.1/bits/invoke.h ****     constexpr typename __invoke_result<_Callable, _Args...>::type
  89:/Library/DaisyToolchain/0.2.0/arm/arm-none-eabi/include/c++/10.3.1/bits/invoke.h ****     __invoke(_Callable&& __fn, _Args&&... __args)
  90:/Library/DaisyToolchain/0.2.0/arm/arm-none-eabi/include/c++/10.3.1/bits/invoke.h ****     noexcept(__is_nothrow_invocable<_Callable, _Args...>::value)
  91:/Library/DaisyToolchain/0.2.0/arm/arm-none-eabi/include/c++/10.3.1/bits/invoke.h ****     {
  92:/Library/DaisyToolchain/0.2.0/arm/arm-none-eabi/include/c++/10.3.1/bits/invoke.h ****       using __result = __invoke_result<_Callable, _Args...>;
  93:/Library/DaisyToolchain/0.2.0/arm/arm-none-eabi/include/c++/10.3.1/bits/invoke.h ****       using __type = typename __result::type;
  94:/Library/DaisyToolchain/0.2.0/arm/arm-none-eabi/include/c++/10.3.1/bits/invoke.h ****       using __tag = typename __result::__invoke_type;
  95:/Library/DaisyToolchain/0.2.0/arm/arm-none-eabi/include/c++/10.3.1/bits/invoke.h ****       return std::__invoke_impl<__type>(__tag{}, std::forward<_Callable>(__fn),
  96:/Library/DaisyToolchain/0.2.0/arm/arm-none-eabi/include/c++/10.3.1/bits/invoke.h **** 					std::forward<_Args>(__args)...);
  97:/Library/DaisyToolchain/0.2.0/arm/arm-none-eabi/include/c++/10.3.1/bits/invoke.h ****     }
  98:/Library/DaisyToolchain/0.2.0/arm/arm-none-eabi/include/c++/10.3.1/bits/invoke.h **** 
  99:/Library/DaisyToolchain/0.2.0/arm/arm-none-eabi/include/c++/10.3.1/bits/invoke.h **** #if __cplusplus >= 201703L
 100:/Library/DaisyToolchain/0.2.0/arm/arm-none-eabi/include/c++/10.3.1/bits/invoke.h ****   // INVOKE<R>: Invoke a callable object and convert the result to R.
 101:/Library/DaisyToolchain/0.2.0/arm/arm-none-eabi/include/c++/10.3.1/bits/invoke.h ****   template<typename _Res, typename _Callable, typename... _Args>
 102:/Library/DaisyToolchain/0.2.0/arm/arm-none-eabi/include/c++/10.3.1/bits/invoke.h ****     constexpr enable_if_t<is_invocable_r_v<_Res, _Callable, _Args...>, _Res>
 103:/Library/DaisyToolchain/0.2.0/arm/arm-none-eabi/include/c++/10.3.1/bits/invoke.h ****     __invoke_r(_Callable&& __fn, _Args&&... __args)
 104:/Library/DaisyToolchain/0.2.0/arm/arm-none-eabi/include/c++/10.3.1/bits/invoke.h ****     noexcept(is_nothrow_invocable_r_v<_Res, _Callable, _Args...>)
 105:/Library/DaisyToolchain/0.2.0/arm/arm-none-eabi/include/c++/10.3.1/bits/invoke.h ****     {
 106:/Library/DaisyToolchain/0.2.0/arm/arm-none-eabi/include/c++/10.3.1/bits/invoke.h ****       using __result = __invoke_result<_Callable, _Args...>;
 107:/Library/DaisyToolchain/0.2.0/arm/arm-none-eabi/include/c++/10.3.1/bits/invoke.h ****       using __type = typename __result::type;
 108:/Library/DaisyToolchain/0.2.0/arm/arm-none-eabi/include/c++/10.3.1/bits/invoke.h ****       using __tag = typename __result::__invoke_type;
 109:/Library/DaisyToolchain/0.2.0/arm/arm-none-eabi/include/c++/10.3.1/bits/invoke.h ****       if constexpr (is_void_v<_Res>)
 110:/Library/DaisyToolchain/0.2.0/arm/arm-none-eabi/include/c++/10.3.1/bits/invoke.h **** 	std::__invoke_impl<__type>(__tag{}, std::forward<_Callable>(__fn),
 111:/Library/DaisyToolchain/0.2.0/arm/arm-none-eabi/include/c++/10.3.1/bits/invoke.h **** 					std::forward<_Args>(__args)...);
 112:/Library/DaisyToolchain/0.2.0/arm/arm-none-eabi/include/c++/10.3.1/bits/invoke.h ****       else
 113:/Library/DaisyToolchain/0.2.0/arm/arm-none-eabi/include/c++/10.3.1/bits/invoke.h **** 	return std::__invoke_impl<__type>(__tag{},
 114:/Library/DaisyToolchain/0.2.0/arm/arm-none-eabi/include/c++/10.3.1/bits/invoke.h **** 					  std::forward<_Callable>(__fn),
 115:/Library/DaisyToolchain/0.2.0/arm/arm-none-eabi/include/c++/10.3.1/bits/invoke.h **** 					  std::forward<_Args>(__args)...);
 116:/Library/DaisyToolchain/0.2.0/arm/arm-none-eabi/include/c++/10.3.1/bits/invoke.h ****     }
 117:/Library/DaisyToolchain/0.2.0/arm/arm-none-eabi/include/c++/10.3.1/bits/invoke.h **** #else // C++11
 118:/Library/DaisyToolchain/0.2.0/arm/arm-none-eabi/include/c++/10.3.1/bits/invoke.h ****   template<typename _Res, typename _Callable, typename... _Args>
 119:/Library/DaisyToolchain/0.2.0/arm/arm-none-eabi/include/c++/10.3.1/bits/invoke.h ****     using __can_invoke_as_void = __enable_if_t<
 120:/Library/DaisyToolchain/0.2.0/arm/arm-none-eabi/include/c++/10.3.1/bits/invoke.h ****       __and_<is_void<_Res>, __is_invocable<_Callable, _Args...>>::value,
 121:/Library/DaisyToolchain/0.2.0/arm/arm-none-eabi/include/c++/10.3.1/bits/invoke.h ****       _Res
 122:/Library/DaisyToolchain/0.2.0/arm/arm-none-eabi/include/c++/10.3.1/bits/invoke.h ****     >;
 123:/Library/DaisyToolchain/0.2.0/arm/arm-none-eabi/include/c++/10.3.1/bits/invoke.h **** 
 124:/Library/DaisyToolchain/0.2.0/arm/arm-none-eabi/include/c++/10.3.1/bits/invoke.h ****   template<typename _Res, typename _Callable, typename... _Args>
 125:/Library/DaisyToolchain/0.2.0/arm/arm-none-eabi/include/c++/10.3.1/bits/invoke.h ****     using __can_invoke_as_nonvoid = __enable_if_t<
 126:/Library/DaisyToolchain/0.2.0/arm/arm-none-eabi/include/c++/10.3.1/bits/invoke.h ****       __and_<__not_<is_void<_Res>>,
 127:/Library/DaisyToolchain/0.2.0/arm/arm-none-eabi/include/c++/10.3.1/bits/invoke.h **** 	     is_convertible<typename __invoke_result<_Callable, _Args...>::type,
 128:/Library/DaisyToolchain/0.2.0/arm/arm-none-eabi/include/c++/10.3.1/bits/invoke.h **** 			    _Res>
 129:/Library/DaisyToolchain/0.2.0/arm/arm-none-eabi/include/c++/10.3.1/bits/invoke.h ****       >::value,
ARM GAS  /var/folders/9s/8rp0_f2s1n31qbztm3b5_fdh0000gn/T//ccUlKUex.s 			page 30


 130:/Library/DaisyToolchain/0.2.0/arm/arm-none-eabi/include/c++/10.3.1/bits/invoke.h ****       _Res
 131:/Library/DaisyToolchain/0.2.0/arm/arm-none-eabi/include/c++/10.3.1/bits/invoke.h ****     >;
 132:/Library/DaisyToolchain/0.2.0/arm/arm-none-eabi/include/c++/10.3.1/bits/invoke.h **** 
 133:/Library/DaisyToolchain/0.2.0/arm/arm-none-eabi/include/c++/10.3.1/bits/invoke.h ****   // INVOKE<R>: Invoke a callable object and convert the result to R.
 134:/Library/DaisyToolchain/0.2.0/arm/arm-none-eabi/include/c++/10.3.1/bits/invoke.h ****   template<typename _Res, typename _Callable, typename... _Args>
 135:/Library/DaisyToolchain/0.2.0/arm/arm-none-eabi/include/c++/10.3.1/bits/invoke.h ****     constexpr __can_invoke_as_nonvoid<_Res, _Callable, _Args...>
 136:/Library/DaisyToolchain/0.2.0/arm/arm-none-eabi/include/c++/10.3.1/bits/invoke.h ****     __invoke_r(_Callable&& __fn, _Args&&... __args)
 137:/Library/DaisyToolchain/0.2.0/arm/arm-none-eabi/include/c++/10.3.1/bits/invoke.h ****     {
 138:/Library/DaisyToolchain/0.2.0/arm/arm-none-eabi/include/c++/10.3.1/bits/invoke.h ****       using __result = __invoke_result<_Callable, _Args...>;
 139:/Library/DaisyToolchain/0.2.0/arm/arm-none-eabi/include/c++/10.3.1/bits/invoke.h ****       using __type = typename __result::type;
 140:/Library/DaisyToolchain/0.2.0/arm/arm-none-eabi/include/c++/10.3.1/bits/invoke.h ****       using __tag = typename __result::__invoke_type;
 141:/Library/DaisyToolchain/0.2.0/arm/arm-none-eabi/include/c++/10.3.1/bits/invoke.h ****       return std::__invoke_impl<__type>(__tag{}, std::forward<_Callable>(__fn),
 142:/Library/DaisyToolchain/0.2.0/arm/arm-none-eabi/include/c++/10.3.1/bits/invoke.h **** 					std::forward<_Args>(__args)...);
 143:/Library/DaisyToolchain/0.2.0/arm/arm-none-eabi/include/c++/10.3.1/bits/invoke.h ****     }
 144:/Library/DaisyToolchain/0.2.0/arm/arm-none-eabi/include/c++/10.3.1/bits/invoke.h **** 
 145:/Library/DaisyToolchain/0.2.0/arm/arm-none-eabi/include/c++/10.3.1/bits/invoke.h ****   // INVOKE<R> when R is cv void
 146:/Library/DaisyToolchain/0.2.0/arm/arm-none-eabi/include/c++/10.3.1/bits/invoke.h ****   template<typename _Res, typename _Callable, typename... _Args>
 147:/Library/DaisyToolchain/0.2.0/arm/arm-none-eabi/include/c++/10.3.1/bits/invoke.h ****     _GLIBCXX14_CONSTEXPR __can_invoke_as_void<_Res, _Callable, _Args...>
 148:/Library/DaisyToolchain/0.2.0/arm/arm-none-eabi/include/c++/10.3.1/bits/invoke.h ****     __invoke_r(_Callable&& __fn, _Args&&... __args)
 348              		.loc 15 148 5 view .LVU67
 349              	.LBB621:
 350              	.LBB622:
 351              	.LBI622:
  59:/Library/DaisyToolchain/0.2.0/arm/arm-none-eabi/include/c++/10.3.1/bits/invoke.h ****     { return std::forward<_Fn>(__f)(std::forward<_Args>(__args)...); }
 352              		.loc 15 59 5 view .LVU68
 353              	.LBB623:
  60:/Library/DaisyToolchain/0.2.0/arm/arm-none-eabi/include/c++/10.3.1/bits/invoke.h **** 
 354              		.loc 15 60 36 is_stmt 0 view .LVU69
 355 0000 0868     		ldr	r0, [r1]
 356              	.LVL21:
  60:/Library/DaisyToolchain/0.2.0/arm/arm-none-eabi/include/c++/10.3.1/bits/invoke.h **** 
 357              		.loc 15 60 36 view .LVU70
 358 0002 FFF7FEBF 		b	_ZZ15InitializeSynthvENKUliE_clEi.constprop.0
 359              	.LVL22:
  60:/Library/DaisyToolchain/0.2.0/arm/arm-none-eabi/include/c++/10.3.1/bits/invoke.h **** 
 360              		.loc 15 60 36 view .LVU71
 361              	.LBE623:
 362              	.LBE622:
 363              	.LBE621:
 364              	.LBE620:
 365              		.cfi_endproc
 366              	.LFE6484:
 368              		.section	.text._ZNSt17_Function_handlerIFviEZ15InitializeSynthvEUliE_E10_M_managerERSt9_Any_dataRK
 369              		.align	1
 370              		.syntax unified
 371              		.thumb
 372              		.thumb_func
 374              	_ZNSt17_Function_handlerIFviEZ15InitializeSynthvEUliE_E10_M_managerERSt9_Any_dataRKS3_St18_Manager_
 375              	.LVL23:
 376              	.LFB6479:
 268:/Library/DaisyToolchain/0.2.0/arm/arm-none-eabi/include/c++/10.3.1/bits/std_function.h **** 		 _Manager_operation __op)
 377              		.loc 14 268 7 is_stmt 1 view -0
 378              		.cfi_startproc
 379              		@ args = 0, pretend = 0, frame = 0
 380              		@ frame_needed = 0, uses_anonymous_args = 0
 381              		@ link register save eliminated.
 271:/Library/DaisyToolchain/0.2.0/arm/arm-none-eabi/include/c++/10.3.1/bits/std_function.h **** 	  {
ARM GAS  /var/folders/9s/8rp0_f2s1n31qbztm3b5_fdh0000gn/T//ccUlKUex.s 			page 31


 382              		.loc 14 271 2 is_stmt 0 view .LVU73
 383 0000 012A     		cmp	r2, #1
 384              	.LVL24:
  87:/Library/DaisyToolchain/0.2.0/arm/arm-none-eabi/include/c++/10.3.1/bits/std_function.h ****     const void* _M_access() const { return &_M_pod_data[0]; }
 385              		.loc 14 87 37 is_stmt 1 view .LVU74
 386              	.LBB638:
 387              	.LBI638:
 136:/Library/DaisyToolchain/0.2.0/arm/arm-none-eabi/include/c++/10.3.1/bits/std_function.h **** 	{
 388              		.loc 14 136 2 view .LVU75
 389              	.LBB639:
 390              	.LBB640:
 391              	.LBI640:
  97:/Library/DaisyToolchain/0.2.0/arm/arm-none-eabi/include/c++/10.3.1/bits/std_function.h ****       { return *static_cast<const _Tp*>(_M_access()); }
 392              		.loc 14 97 7 view .LVU76
 393              	.LBB641:
 394              	.LBI641:
  88:/Library/DaisyToolchain/0.2.0/arm/arm-none-eabi/include/c++/10.3.1/bits/std_function.h **** 
 395              		.loc 14 88 17 view .LVU77
 396              	.LBB642:
  88:/Library/DaisyToolchain/0.2.0/arm/arm-none-eabi/include/c++/10.3.1/bits/std_function.h **** 
 397              		.loc 14 88 37 view .LVU78
  88:/Library/DaisyToolchain/0.2.0/arm/arm-none-eabi/include/c++/10.3.1/bits/std_function.h **** 
 398              		.loc 14 88 37 is_stmt 0 view .LVU79
 399              	.LBE642:
 400              	.LBE641:
 401              	.LBE640:
 402              	.LBE639:
 403              	.LBE638:
 279:/Library/DaisyToolchain/0.2.0/arm/arm-none-eabi/include/c++/10.3.1/bits/std_function.h **** 	    break;
 404              		.loc 14 279 36 view .LVU80
 405 0002 08BF     		it	eq
 406 0004 0160     		streq	r1, [r0]
 286:/Library/DaisyToolchain/0.2.0/arm/arm-none-eabi/include/c++/10.3.1/bits/std_function.h **** 
 407              		.loc 14 286 7 view .LVU81
 408 0006 0020     		movs	r0, #0
 409              	.LVL25:
 286:/Library/DaisyToolchain/0.2.0/arm/arm-none-eabi/include/c++/10.3.1/bits/std_function.h **** 
 410              		.loc 14 286 7 view .LVU82
 411 0008 7047     		bx	lr
 412              		.cfi_endproc
 413              	.LFE6479:
 415              		.section	.text._ZNSt17_Function_handlerIFviEZ15InitializeSynthvEUliE_E9_M_invokeERKSt9_Any_dataOi,
 416              		.align	1
 417              		.syntax unified
 418              		.thumb
 419              		.thumb_func
 421              	_ZNSt17_Function_handlerIFviEZ15InitializeSynthvEUliE_E9_M_invokeERKSt9_Any_dataOi:
 422              	.LVL26:
 423              	.LFB6477:
 424              		.loc 14 289 7 is_stmt 1 view -0
 425              		.cfi_startproc
 426              		@ args = 0, pretend = 0, frame = 0
 427              		@ frame_needed = 0, uses_anonymous_args = 0
 428              		@ link register save eliminated.
  88:/Library/DaisyToolchain/0.2.0/arm/arm-none-eabi/include/c++/10.3.1/bits/std_function.h **** 
 429              		.loc 14 88 37 view .LVU84
 430              	.LBB652:
ARM GAS  /var/folders/9s/8rp0_f2s1n31qbztm3b5_fdh0000gn/T//ccUlKUex.s 			page 32


 431              	.LBI652:
 432              		.loc 15 148 5 view .LVU85
 433              	.LBB653:
 434              	.LBB654:
 435              	.LBI654:
  59:/Library/DaisyToolchain/0.2.0/arm/arm-none-eabi/include/c++/10.3.1/bits/invoke.h ****     { return std::forward<_Fn>(__f)(std::forward<_Args>(__args)...); }
 436              		.loc 15 59 5 view .LVU86
 437              	.LBB655:
  60:/Library/DaisyToolchain/0.2.0/arm/arm-none-eabi/include/c++/10.3.1/bits/invoke.h **** 
 438              		.loc 15 60 36 is_stmt 0 view .LVU87
 439 0000 0868     		ldr	r0, [r1]
 440              	.LVL27:
  60:/Library/DaisyToolchain/0.2.0/arm/arm-none-eabi/include/c++/10.3.1/bits/invoke.h **** 
 441              		.loc 15 60 36 view .LVU88
 442 0002 FFF7FEBF 		b	_ZZ15InitializeSynthvENKUliE_clEi.constprop.0
 443              	.LVL28:
  60:/Library/DaisyToolchain/0.2.0/arm/arm-none-eabi/include/c++/10.3.1/bits/invoke.h **** 
 444              		.loc 15 60 36 view .LVU89
 445              	.LBE655:
 446              	.LBE654:
 447              	.LBE653:
 448              	.LBE652:
 449              		.cfi_endproc
 450              	.LFE6477:
 452              		.section	.text._ZN5daisy4GPIO6ConfigC2Ev,"axG",%progbits,_ZN5daisy4GPIO6ConfigC5Ev,comdat
 453              		.align	1
 454              		.weak	_ZN5daisy4GPIO6ConfigC2Ev
 455              		.syntax unified
 456              		.thumb
 457              		.thumb_func
 459              	_ZN5daisy4GPIO6ConfigC2Ev:
 460              	.LVL29:
 461              	.LFB612:
 462              		.file 16 "lib/libdaisy/src/per/gpio.h"
   1:lib/libdaisy/src/per/gpio.h **** #pragma once
   2:lib/libdaisy/src/per/gpio.h **** #ifndef DSY_GPIO_H
   3:lib/libdaisy/src/per/gpio.h **** #define DSY_GPIO_H
   4:lib/libdaisy/src/per/gpio.h **** #include "daisy_core.h"
   5:lib/libdaisy/src/per/gpio.h **** 
   6:lib/libdaisy/src/per/gpio.h **** #ifdef __cplusplus
   7:lib/libdaisy/src/per/gpio.h **** 
   8:lib/libdaisy/src/per/gpio.h **** namespace daisy
   9:lib/libdaisy/src/per/gpio.h **** {
  10:lib/libdaisy/src/per/gpio.h **** /** @brief General Purpose I/O control 
  11:lib/libdaisy/src/per/gpio.h ****  *  @details peripheral control over a single GPIO
  12:lib/libdaisy/src/per/gpio.h ****  *  @ingroup peripheral
  13:lib/libdaisy/src/per/gpio.h ****  *   
  14:lib/libdaisy/src/per/gpio.h ****  *  Button Input (with internal Pullup resistor)
  15:lib/libdaisy/src/per/gpio.h ****  *  @include GPIO_Input.cpp 
  16:lib/libdaisy/src/per/gpio.h ****  * 
  17:lib/libdaisy/src/per/gpio.h ****  *  Output Example (perfect for blinking an LED)
  18:lib/libdaisy/src/per/gpio.h ****  *  @include GPIO_Output.cpp
  19:lib/libdaisy/src/per/gpio.h ****  * 
  20:lib/libdaisy/src/per/gpio.h **** */
  21:lib/libdaisy/src/per/gpio.h **** class GPIO
  22:lib/libdaisy/src/per/gpio.h **** {
  23:lib/libdaisy/src/per/gpio.h ****   public:
ARM GAS  /var/folders/9s/8rp0_f2s1n31qbztm3b5_fdh0000gn/T//ccUlKUex.s 			page 33


  24:lib/libdaisy/src/per/gpio.h ****     /** @brief Mode of operation for the specified GPIO */
  25:lib/libdaisy/src/per/gpio.h ****     enum class Mode
  26:lib/libdaisy/src/per/gpio.h ****     {
  27:lib/libdaisy/src/per/gpio.h ****         INPUT,      /**< Input for reading state of pin */
  28:lib/libdaisy/src/per/gpio.h ****         OUTPUT,     /**< Output w/ push-pull configuration */
  29:lib/libdaisy/src/per/gpio.h ****         OPEN_DRAIN, /**< Output w/ open-drain configuration */
  30:lib/libdaisy/src/per/gpio.h ****         ANALOG,     /**< Analog for connection to ADC or DAC peripheral */
  31:lib/libdaisy/src/per/gpio.h ****     };
  32:lib/libdaisy/src/per/gpio.h **** 
  33:lib/libdaisy/src/per/gpio.h ****     /** @brief Configures whether an internal Pull up or Pull down resistor is used. 
  34:lib/libdaisy/src/per/gpio.h ****      *  
  35:lib/libdaisy/src/per/gpio.h ****      * Internal Pull up/down resistors are typically 40k ohms, and will be between
  36:lib/libdaisy/src/per/gpio.h ****      * 30k and 50k
  37:lib/libdaisy/src/per/gpio.h ****      * 
  38:lib/libdaisy/src/per/gpio.h ****      * When the Pin is configured in Analog mode, the pull up/down resistors are
  39:lib/libdaisy/src/per/gpio.h ****      * disabled by hardware. 
  40:lib/libdaisy/src/per/gpio.h ****      */
  41:lib/libdaisy/src/per/gpio.h ****     enum class Pull
  42:lib/libdaisy/src/per/gpio.h ****     {
  43:lib/libdaisy/src/per/gpio.h ****         NOPULL,   /**< No pull up resistor */
  44:lib/libdaisy/src/per/gpio.h ****         PULLUP,   /**< Internal pull up enabled */
  45:lib/libdaisy/src/per/gpio.h ****         PULLDOWN, /**< Internal pull down enabled*/
  46:lib/libdaisy/src/per/gpio.h ****     };
  47:lib/libdaisy/src/per/gpio.h **** 
  48:lib/libdaisy/src/per/gpio.h ****     /** @brief Output speed controls the drive strength, and slew rate of the pin */
  49:lib/libdaisy/src/per/gpio.h ****     enum class Speed
  50:lib/libdaisy/src/per/gpio.h ****     {
  51:lib/libdaisy/src/per/gpio.h ****         LOW,
  52:lib/libdaisy/src/per/gpio.h ****         MEDIUM,
  53:lib/libdaisy/src/per/gpio.h ****         HIGH,
  54:lib/libdaisy/src/per/gpio.h ****         VERY_HIGH,
  55:lib/libdaisy/src/per/gpio.h ****     };
  56:lib/libdaisy/src/per/gpio.h **** 
  57:lib/libdaisy/src/per/gpio.h ****     /** @brief Configuration for a given GPIO */
  58:lib/libdaisy/src/per/gpio.h ****     struct Config
  59:lib/libdaisy/src/per/gpio.h ****     {
  60:lib/libdaisy/src/per/gpio.h ****         Pin   pin;
  61:lib/libdaisy/src/per/gpio.h ****         Mode  mode;
  62:lib/libdaisy/src/per/gpio.h ****         Pull  pull;
  63:lib/libdaisy/src/per/gpio.h ****         Speed speed;
  64:lib/libdaisy/src/per/gpio.h **** 
  65:lib/libdaisy/src/per/gpio.h ****         /** Constructor with no arguments will prepare an invalid GPIO set as
  66:lib/libdaisy/src/per/gpio.h ****          *  an input, with no pullup. 
  67:lib/libdaisy/src/per/gpio.h ****          */
  68:lib/libdaisy/src/per/gpio.h ****         Config()
 463              		.loc 16 68 9 is_stmt 1 view -0
 464              		.cfi_startproc
 465              		@ args = 0, pretend = 0, frame = 0
 466              		@ frame_needed = 0, uses_anonymous_args = 0
 467              		@ link register save eliminated.
 468              	.LBB656:
 469              	.LBB657:
 470              	.LBI657:
 471              		.file 17 "lib/libdaisy/src/daisy_core.h"
   1:lib/libdaisy/src/daisy_core.h **** #pragma once
   2:lib/libdaisy/src/daisy_core.h **** #ifndef DSY_CORE_HW_H
   3:lib/libdaisy/src/daisy_core.h **** #define DSY_CORE_HW_H /**< & */
ARM GAS  /var/folders/9s/8rp0_f2s1n31qbztm3b5_fdh0000gn/T//ccUlKUex.s 			page 34


   4:lib/libdaisy/src/daisy_core.h **** #include <stdint.h>
   5:lib/libdaisy/src/daisy_core.h **** #include <stdlib.h>
   6:lib/libdaisy/src/daisy_core.h **** 
   7:lib/libdaisy/src/daisy_core.h **** #if defined(_MSC_VER)
   8:lib/libdaisy/src/daisy_core.h **** #define FORCE_INLINE __forceinline /**< & */
   9:lib/libdaisy/src/daisy_core.h **** #elif defined(__clang__)
  10:lib/libdaisy/src/daisy_core.h **** #define FORCE_INLINE inline __attribute__((always_inline)) /**< & */
  11:lib/libdaisy/src/daisy_core.h **** #pragma clang diagnostic ignored "-Wduplicate-decl-specifier"
  12:lib/libdaisy/src/daisy_core.h **** #elif defined(__GNUC__)
  13:lib/libdaisy/src/daisy_core.h **** #define FORCE_INLINE inline __attribute__((always_inline)) /**< & */
  14:lib/libdaisy/src/daisy_core.h **** #else
  15:lib/libdaisy/src/daisy_core.h **** #error unknown compiler
  16:lib/libdaisy/src/daisy_core.h **** #endif
  17:lib/libdaisy/src/daisy_core.h **** 
  18:lib/libdaisy/src/daisy_core.h **** /** @addtogroup utility
  19:lib/libdaisy/src/daisy_core.h ****     @{
  20:lib/libdaisy/src/daisy_core.h **** */
  21:lib/libdaisy/src/daisy_core.h **** 
  22:lib/libdaisy/src/daisy_core.h **** /** Macro for area of memory that is configured as cacheless
  23:lib/libdaisy/src/daisy_core.h **** This should be used primarily for DMA buffers, and the like.
  24:lib/libdaisy/src/daisy_core.h **** */
  25:lib/libdaisy/src/daisy_core.h **** #define DMA_BUFFER_MEM_SECTION __attribute__((section(".sram1_bss")))
  26:lib/libdaisy/src/daisy_core.h **** /** 
  27:lib/libdaisy/src/daisy_core.h **** THE DTCM RAM section is also non-cached. However, is not suitable 
  28:lib/libdaisy/src/daisy_core.h **** for DMA transfers. Performance is on par with internal SRAM w/ 
  29:lib/libdaisy/src/daisy_core.h **** cache enabled.
  30:lib/libdaisy/src/daisy_core.h **** */
  31:lib/libdaisy/src/daisy_core.h **** #define DTCM_MEM_SECTION __attribute__((section(".dtcmram_bss")))
  32:lib/libdaisy/src/daisy_core.h **** 
  33:lib/libdaisy/src/daisy_core.h **** #define FBIPMAX 0.999985f             /**< close to 1.0f-LSB at 16 bit */
  34:lib/libdaisy/src/daisy_core.h **** #define FBIPMIN (-FBIPMAX)            /**< - (1 - LSB) */
  35:lib/libdaisy/src/daisy_core.h **** #define U82F_SCALE 0.0078740f         /**< 1 / 127 */
  36:lib/libdaisy/src/daisy_core.h **** #define F2U8_SCALE 127.0f             /**< 128 - 1 */
  37:lib/libdaisy/src/daisy_core.h **** #define S82F_SCALE 0.0078125f         /**< 1 / (2**7) */
  38:lib/libdaisy/src/daisy_core.h **** #define F2S8_SCALE 127.0f             /**< (2 ** 7) - 1 */
  39:lib/libdaisy/src/daisy_core.h **** #define S162F_SCALE 3.0517578125e-05f /**< 1 / (2** 15) */
  40:lib/libdaisy/src/daisy_core.h **** #define F2S16_SCALE 32767.0f          /**< (2 ** 15) - 1 */
  41:lib/libdaisy/src/daisy_core.h **** #define F2S24_SCALE 8388608.0f        /**< 2 ** 23 */
  42:lib/libdaisy/src/daisy_core.h **** #define S242F_SCALE 1.192092896e-07f  /**< 1 / (2 ** 23) */
  43:lib/libdaisy/src/daisy_core.h **** #define S24SIGN 0x800000              /**< 2 ** 23 */
  44:lib/libdaisy/src/daisy_core.h **** #define S322F_SCALE 4.6566129e-10f    /**< 1 / (2** 31) */
  45:lib/libdaisy/src/daisy_core.h **** #define F2S32_SCALE 2147483647.f      /**< (2 ** 31) - 1 */
  46:lib/libdaisy/src/daisy_core.h **** 
  47:lib/libdaisy/src/daisy_core.h **** 
  48:lib/libdaisy/src/daisy_core.h **** /** shorthand macro for simplifying the reading of the left 
  49:lib/libdaisy/src/daisy_core.h ****  *  channel of a non-interleaved output buffer named out */
  50:lib/libdaisy/src/daisy_core.h **** #define OUT_L out[0]
  51:lib/libdaisy/src/daisy_core.h **** 
  52:lib/libdaisy/src/daisy_core.h **** /** shorthand macro for simplifying the reading of the right 
  53:lib/libdaisy/src/daisy_core.h ****  *  channel of a non-interleaved output buffer named out */
  54:lib/libdaisy/src/daisy_core.h **** #define OUT_R out[1]
  55:lib/libdaisy/src/daisy_core.h **** 
  56:lib/libdaisy/src/daisy_core.h **** /** shorthand macro for simplifying the reading of the left 
  57:lib/libdaisy/src/daisy_core.h ****  *  channel of a non-interleaved input buffer named in */
  58:lib/libdaisy/src/daisy_core.h **** #define IN_L in[0]
  59:lib/libdaisy/src/daisy_core.h **** 
  60:lib/libdaisy/src/daisy_core.h **** /** shorthand macro for simplifying the reading of the right 
ARM GAS  /var/folders/9s/8rp0_f2s1n31qbztm3b5_fdh0000gn/T//ccUlKUex.s 			page 35


  61:lib/libdaisy/src/daisy_core.h ****  *  channel of a non-interleaved input buffer named in */
  62:lib/libdaisy/src/daisy_core.h **** #define IN_R in[1]
  63:lib/libdaisy/src/daisy_core.h **** 
  64:lib/libdaisy/src/daisy_core.h **** /** 
  65:lib/libdaisy/src/daisy_core.h ****     Computes cube.
  66:lib/libdaisy/src/daisy_core.h ****     \param x Number to be cubed
  67:lib/libdaisy/src/daisy_core.h ****     \return x ^ 3
  68:lib/libdaisy/src/daisy_core.h **** */
  69:lib/libdaisy/src/daisy_core.h **** FORCE_INLINE float cube(float x)
  70:lib/libdaisy/src/daisy_core.h **** {
  71:lib/libdaisy/src/daisy_core.h ****     return (x * x) * x;
  72:lib/libdaisy/src/daisy_core.h **** }
  73:lib/libdaisy/src/daisy_core.h **** 
  74:lib/libdaisy/src/daisy_core.h **** /** 
  75:lib/libdaisy/src/daisy_core.h ****     Converts unsigned 8-bit to float
  76:lib/libdaisy/src/daisy_core.h ****     \param x Number to be scaled.
  77:lib/libdaisy/src/daisy_core.h ****     \return Scaled number.
  78:lib/libdaisy/src/daisy_core.h **** */
  79:lib/libdaisy/src/daisy_core.h **** FORCE_INLINE float u82f(uint8_t x)
  80:lib/libdaisy/src/daisy_core.h **** {
  81:lib/libdaisy/src/daisy_core.h ****     return ((float)x - 127.f) * U82F_SCALE;
  82:lib/libdaisy/src/daisy_core.h **** }
  83:lib/libdaisy/src/daisy_core.h **** 
  84:lib/libdaisy/src/daisy_core.h **** /**
  85:lib/libdaisy/src/daisy_core.h ****     Converts float to unsigned 8-bit
  86:lib/libdaisy/src/daisy_core.h **** */
  87:lib/libdaisy/src/daisy_core.h **** FORCE_INLINE uint8_t f2u8(float x)
  88:lib/libdaisy/src/daisy_core.h **** {
  89:lib/libdaisy/src/daisy_core.h ****     x = x <= FBIPMIN ? FBIPMIN : x;
  90:lib/libdaisy/src/daisy_core.h ****     x = x >= FBIPMAX ? FBIPMAX : x;
  91:lib/libdaisy/src/daisy_core.h ****     return (uint8_t)((x * F2U8_SCALE) + F2U8_SCALE);
  92:lib/libdaisy/src/daisy_core.h **** }
  93:lib/libdaisy/src/daisy_core.h **** 
  94:lib/libdaisy/src/daisy_core.h **** 
  95:lib/libdaisy/src/daisy_core.h **** /** 
  96:lib/libdaisy/src/daisy_core.h ****     Converts Signed 8-bit to float
  97:lib/libdaisy/src/daisy_core.h ****     \param x Number to be scaled.
  98:lib/libdaisy/src/daisy_core.h ****     \return Scaled number.
  99:lib/libdaisy/src/daisy_core.h **** */
 100:lib/libdaisy/src/daisy_core.h **** FORCE_INLINE float s82f(int8_t x)
 101:lib/libdaisy/src/daisy_core.h **** {
 102:lib/libdaisy/src/daisy_core.h ****     return (float)x * S82F_SCALE;
 103:lib/libdaisy/src/daisy_core.h **** }
 104:lib/libdaisy/src/daisy_core.h **** 
 105:lib/libdaisy/src/daisy_core.h **** /**
 106:lib/libdaisy/src/daisy_core.h ****     Converts float to Signed 8-bit
 107:lib/libdaisy/src/daisy_core.h **** */
 108:lib/libdaisy/src/daisy_core.h **** FORCE_INLINE int8_t f2s8(float x)
 109:lib/libdaisy/src/daisy_core.h **** {
 110:lib/libdaisy/src/daisy_core.h ****     x = x <= FBIPMIN ? FBIPMIN : x;
 111:lib/libdaisy/src/daisy_core.h ****     x = x >= FBIPMAX ? FBIPMAX : x;
 112:lib/libdaisy/src/daisy_core.h ****     return (int32_t)(x * F2S8_SCALE);
 113:lib/libdaisy/src/daisy_core.h **** }
 114:lib/libdaisy/src/daisy_core.h **** 
 115:lib/libdaisy/src/daisy_core.h **** /** 
 116:lib/libdaisy/src/daisy_core.h ****     Converts Signed 16-bit to float
 117:lib/libdaisy/src/daisy_core.h ****     \param x Number to be scaled.
ARM GAS  /var/folders/9s/8rp0_f2s1n31qbztm3b5_fdh0000gn/T//ccUlKUex.s 			page 36


 118:lib/libdaisy/src/daisy_core.h ****     \return Scaled number.
 119:lib/libdaisy/src/daisy_core.h **** */
 120:lib/libdaisy/src/daisy_core.h **** FORCE_INLINE float s162f(int16_t x)
 121:lib/libdaisy/src/daisy_core.h **** {
 122:lib/libdaisy/src/daisy_core.h ****     return (float)x * S162F_SCALE;
 123:lib/libdaisy/src/daisy_core.h **** }
 124:lib/libdaisy/src/daisy_core.h **** 
 125:lib/libdaisy/src/daisy_core.h **** /**
 126:lib/libdaisy/src/daisy_core.h ****     Converts float to Signed 16-bit
 127:lib/libdaisy/src/daisy_core.h **** */
 128:lib/libdaisy/src/daisy_core.h **** FORCE_INLINE int16_t f2s16(float x)
 129:lib/libdaisy/src/daisy_core.h **** {
 130:lib/libdaisy/src/daisy_core.h ****     x = x <= FBIPMIN ? FBIPMIN : x;
 131:lib/libdaisy/src/daisy_core.h ****     x = x >= FBIPMAX ? FBIPMAX : x;
 132:lib/libdaisy/src/daisy_core.h ****     return (int32_t)(x * F2S16_SCALE);
 133:lib/libdaisy/src/daisy_core.h **** }
 134:lib/libdaisy/src/daisy_core.h **** 
 135:lib/libdaisy/src/daisy_core.h **** /**
 136:lib/libdaisy/src/daisy_core.h ****     Converts Signed 24-bit to float
 137:lib/libdaisy/src/daisy_core.h ****  */
 138:lib/libdaisy/src/daisy_core.h **** FORCE_INLINE float s242f(int32_t x)
 139:lib/libdaisy/src/daisy_core.h **** {
 140:lib/libdaisy/src/daisy_core.h ****     x = (x ^ S24SIGN) - S24SIGN; //sign extend aka ((x<<8)>>8)
 141:lib/libdaisy/src/daisy_core.h ****     return (float)x * S242F_SCALE;
 142:lib/libdaisy/src/daisy_core.h **** }
 143:lib/libdaisy/src/daisy_core.h **** /**
 144:lib/libdaisy/src/daisy_core.h ****     Converts float to Signed 24-bit
 145:lib/libdaisy/src/daisy_core.h ****  */
 146:lib/libdaisy/src/daisy_core.h **** FORCE_INLINE int32_t f2s24(float x)
 147:lib/libdaisy/src/daisy_core.h **** {
 148:lib/libdaisy/src/daisy_core.h ****     x = x <= FBIPMIN ? FBIPMIN : x;
 149:lib/libdaisy/src/daisy_core.h ****     x = x >= FBIPMAX ? FBIPMAX : x;
 150:lib/libdaisy/src/daisy_core.h ****     return (int32_t)(x * F2S24_SCALE);
 151:lib/libdaisy/src/daisy_core.h **** }
 152:lib/libdaisy/src/daisy_core.h **** 
 153:lib/libdaisy/src/daisy_core.h **** /**
 154:lib/libdaisy/src/daisy_core.h ****     Converts Signed 32-bit to float
 155:lib/libdaisy/src/daisy_core.h ****  */
 156:lib/libdaisy/src/daisy_core.h **** FORCE_INLINE float s322f(int32_t x)
 157:lib/libdaisy/src/daisy_core.h **** {
 158:lib/libdaisy/src/daisy_core.h ****     return (float)x * S322F_SCALE;
 159:lib/libdaisy/src/daisy_core.h **** }
 160:lib/libdaisy/src/daisy_core.h **** /**
 161:lib/libdaisy/src/daisy_core.h ****     Converts float to Signed 24-bit
 162:lib/libdaisy/src/daisy_core.h ****  */
 163:lib/libdaisy/src/daisy_core.h **** FORCE_INLINE int32_t f2s32(float x)
 164:lib/libdaisy/src/daisy_core.h **** {
 165:lib/libdaisy/src/daisy_core.h ****     x = x <= FBIPMIN ? FBIPMIN : x;
 166:lib/libdaisy/src/daisy_core.h ****     x = x >= FBIPMAX ? FBIPMAX : x;
 167:lib/libdaisy/src/daisy_core.h ****     return (int32_t)(x * F2S32_SCALE);
 168:lib/libdaisy/src/daisy_core.h **** }
 169:lib/libdaisy/src/daisy_core.h **** 
 170:lib/libdaisy/src/daisy_core.h **** #ifdef __cplusplus
 171:lib/libdaisy/src/daisy_core.h **** 
 172:lib/libdaisy/src/daisy_core.h **** namespace daisy
 173:lib/libdaisy/src/daisy_core.h **** {
 174:lib/libdaisy/src/daisy_core.h **** /** @brief GPIO Port names */
ARM GAS  /var/folders/9s/8rp0_f2s1n31qbztm3b5_fdh0000gn/T//ccUlKUex.s 			page 37


 175:lib/libdaisy/src/daisy_core.h **** enum GPIOPort
 176:lib/libdaisy/src/daisy_core.h **** {
 177:lib/libdaisy/src/daisy_core.h ****     PORTA, /**< Port A */
 178:lib/libdaisy/src/daisy_core.h ****     PORTB, /**< Port B */
 179:lib/libdaisy/src/daisy_core.h ****     PORTC, /**< Port C */
 180:lib/libdaisy/src/daisy_core.h ****     PORTD, /**< Port D */
 181:lib/libdaisy/src/daisy_core.h ****     PORTE, /**< Port E */
 182:lib/libdaisy/src/daisy_core.h ****     PORTF, /**< Port F */
 183:lib/libdaisy/src/daisy_core.h ****     PORTG, /**< Port G */
 184:lib/libdaisy/src/daisy_core.h ****     PORTH, /**< Port H */
 185:lib/libdaisy/src/daisy_core.h ****     PORTI, /**< Port I */
 186:lib/libdaisy/src/daisy_core.h ****     PORTJ, /**< Port J */
 187:lib/libdaisy/src/daisy_core.h ****     PORTK, /**< Port K */
 188:lib/libdaisy/src/daisy_core.h ****     PORTX, /**< Used as a dummy port to signal an invalid pin. */
 189:lib/libdaisy/src/daisy_core.h **** };
 190:lib/libdaisy/src/daisy_core.h **** 
 191:lib/libdaisy/src/daisy_core.h **** /** @brief representation of hardware port/pin combination */
 192:lib/libdaisy/src/daisy_core.h **** struct Pin
 193:lib/libdaisy/src/daisy_core.h **** {
 194:lib/libdaisy/src/daisy_core.h ****     GPIOPort port;
 195:lib/libdaisy/src/daisy_core.h ****     uint8_t  pin;
 196:lib/libdaisy/src/daisy_core.h **** 
 197:lib/libdaisy/src/daisy_core.h ****     /** @brief Constructor creates a valid pin. 
 198:lib/libdaisy/src/daisy_core.h ****      *  @param pt GPIOPort between PA, and PK corresponding to STM32 Port.
 199:lib/libdaisy/src/daisy_core.h ****      *  @param pn pin number in range of 0-15
 200:lib/libdaisy/src/daisy_core.h ****     */
 201:lib/libdaisy/src/daisy_core.h ****     constexpr Pin(const GPIOPort pt, const uint8_t pn) : port(pt), pin(pn) {}
 202:lib/libdaisy/src/daisy_core.h **** 
 203:lib/libdaisy/src/daisy_core.h ****     /** @brief Basic Constructor creates an invalid Pin object */
 204:lib/libdaisy/src/daisy_core.h ****     constexpr Pin() : port(PORTX), pin(255) {}
 472              		.loc 17 204 15 view .LVU91
 473              	.LBB658:
 474              		.loc 17 204 43 is_stmt 0 view .LVU92
 475 0000 0B22     		movs	r2, #11
 476 0002 0270     		strb	r2, [r0]
 477 0004 FF22     		movs	r2, #255
 478 0006 4270     		strb	r2, [r0, #1]
 479              	.LVL30:
 480              		.loc 17 204 43 view .LVU93
 481              	.LBE658:
 482              	.LBE657:
  69:lib/libdaisy/src/per/gpio.h ****         : pin(), mode(Mode::INPUT), pull(Pull::NOPULL), speed(Speed::LOW)
 483              		.loc 16 69 73 view .LVU94
 484 0008 0022     		movs	r2, #0
 485 000a C0E90122 		strd	r2, r2, [r0, #4]
 486 000e C260     		str	r2, [r0, #12]
 487              	.LBE656:
  70:lib/libdaisy/src/per/gpio.h ****         {
  71:lib/libdaisy/src/per/gpio.h ****         }
 488              		.loc 16 71 9 view .LVU95
 489 0010 7047     		bx	lr
 490              		.cfi_endproc
 491              	.LFE612:
 493              		.weak	_ZN5daisy4GPIO6ConfigC1Ev
 494              		.thumb_set _ZN5daisy4GPIO6ConfigC1Ev,_ZN5daisy4GPIO6ConfigC2Ev
 495              		.section	.text._ZNSt14_Function_baseD2Ev,"axG",%progbits,_ZNSt14_Function_baseD5Ev,comdat
 496              		.align	1
ARM GAS  /var/folders/9s/8rp0_f2s1n31qbztm3b5_fdh0000gn/T//ccUlKUex.s 			page 38


 497              		.weak	_ZNSt14_Function_baseD2Ev
 498              		.syntax unified
 499              		.thumb
 500              		.thumb_func
 502              	_ZNSt14_Function_baseD2Ev:
 503              	.LVL31:
 504              	.LFB5776:
 242:/Library/DaisyToolchain/0.2.0/arm/arm-none-eabi/include/c++/10.3.1/bits/std_function.h ****     {
 505              		.loc 14 242 5 is_stmt 1 view -0
 506              		.cfi_startproc
 507              		@ args = 0, pretend = 0, frame = 0
 508              		@ frame_needed = 0, uses_anonymous_args = 0
 509              	.LBB659:
 244:/Library/DaisyToolchain/0.2.0/arm/arm-none-eabi/include/c++/10.3.1/bits/std_function.h **** 	_M_manager(_M_functor, _M_functor, __destroy_functor);
 510              		.loc 14 244 7 view .LVU97
 244:/Library/DaisyToolchain/0.2.0/arm/arm-none-eabi/include/c++/10.3.1/bits/std_function.h **** 	_M_manager(_M_functor, _M_functor, __destroy_functor);
 511              		.loc 14 244 11 is_stmt 0 view .LVU98
 512 0000 8368     		ldr	r3, [r0, #8]
 513              	.LBE659:
 242:/Library/DaisyToolchain/0.2.0/arm/arm-none-eabi/include/c++/10.3.1/bits/std_function.h ****     {
 514              		.loc 14 242 5 view .LVU99
 515 0002 10B5     		push	{r4, lr}
 516              		.cfi_def_cfa_offset 8
 517              		.cfi_offset 4, -8
 518              		.cfi_offset 14, -4
 242:/Library/DaisyToolchain/0.2.0/arm/arm-none-eabi/include/c++/10.3.1/bits/std_function.h ****     {
 519              		.loc 14 242 5 view .LVU100
 520 0004 0446     		mov	r4, r0
 521              	.LBB660:
 244:/Library/DaisyToolchain/0.2.0/arm/arm-none-eabi/include/c++/10.3.1/bits/std_function.h **** 	_M_manager(_M_functor, _M_functor, __destroy_functor);
 522              		.loc 14 244 7 view .LVU101
 523 0006 13B1     		cbz	r3, .L21
 245:/Library/DaisyToolchain/0.2.0/arm/arm-none-eabi/include/c++/10.3.1/bits/std_function.h ****     }
 524              		.loc 14 245 2 is_stmt 1 view .LVU102
 245:/Library/DaisyToolchain/0.2.0/arm/arm-none-eabi/include/c++/10.3.1/bits/std_function.h ****     }
 525              		.loc 14 245 12 is_stmt 0 view .LVU103
 526 0008 0322     		movs	r2, #3
 527 000a 0146     		mov	r1, r0
 528 000c 9847     		blx	r3
 529              	.LVL32:
 530              	.L21:
 245:/Library/DaisyToolchain/0.2.0/arm/arm-none-eabi/include/c++/10.3.1/bits/std_function.h ****     }
 531              		.loc 14 245 12 view .LVU104
 532              	.LBE660:
 246:/Library/DaisyToolchain/0.2.0/arm/arm-none-eabi/include/c++/10.3.1/bits/std_function.h **** 
 533              		.loc 14 246 5 view .LVU105
 534 000e 2046     		mov	r0, r4
 535 0010 10BD     		pop	{r4, pc}
 246:/Library/DaisyToolchain/0.2.0/arm/arm-none-eabi/include/c++/10.3.1/bits/std_function.h **** 
 536              		.loc 14 246 5 view .LVU106
 537              		.cfi_endproc
 538              	.LFE5776:
 540              		.weak	_ZNSt14_Function_baseD1Ev
 541              		.thumb_set _ZNSt14_Function_baseD1Ev,_ZNSt14_Function_baseD2Ev
 542              		.section	.text._ZN11ArpeggiatorD2Ev,"axG",%progbits,_ZN11ArpeggiatorD5Ev,comdat
 543              		.align	1
 544              		.weak	_ZN11ArpeggiatorD2Ev
ARM GAS  /var/folders/9s/8rp0_f2s1n31qbztm3b5_fdh0000gn/T//ccUlKUex.s 			page 39


 545              		.syntax unified
 546              		.thumb
 547              		.thumb_func
 549              	_ZN11ArpeggiatorD2Ev:
 550              	.LVL33:
 551              	.LFB6680:
 552              		.file 18 "Arpeggiator.h"
   1:Arpeggiator.h **** #ifndef ARPEGGIATOR_H
   2:Arpeggiator.h **** #define ARPEGGIATOR_H
   3:Arpeggiator.h **** 
   4:Arpeggiator.h **** #include "daisy_seed.h"
   5:Arpeggiator.h **** #include "daisysp.h"
   6:Arpeggiator.h **** #include <functional>
   7:Arpeggiator.h **** #include <vector>
   8:Arpeggiator.h **** 
   9:Arpeggiator.h **** using namespace daisy;
  10:Arpeggiator.h **** using namespace daisysp;
  11:Arpeggiator.h **** 
  12:Arpeggiator.h **** class Arpeggiator {
 553              		.loc 18 12 7 is_stmt 1 view -0
 554              		.cfi_startproc
 555              		@ args = 0, pretend = 0, frame = 0
 556              		@ frame_needed = 0, uses_anonymous_args = 0
 557              	.LBB681:
 558              	.LBI681:
 290:/Library/DaisyToolchain/0.2.0/arm/arm-none-eabi/include/c++/10.3.1/bits/std_function.h ****       {
 291:/Library/DaisyToolchain/0.2.0/arm/arm-none-eabi/include/c++/10.3.1/bits/std_function.h **** 	return std::__invoke_r<_Res>(*_Base::_M_get_pointer(__functor),
 292:/Library/DaisyToolchain/0.2.0/arm/arm-none-eabi/include/c++/10.3.1/bits/std_function.h **** 				     std::forward<_ArgTypes>(__args)...);
 293:/Library/DaisyToolchain/0.2.0/arm/arm-none-eabi/include/c++/10.3.1/bits/std_function.h ****       }
 294:/Library/DaisyToolchain/0.2.0/arm/arm-none-eabi/include/c++/10.3.1/bits/std_function.h ****     };
 295:/Library/DaisyToolchain/0.2.0/arm/arm-none-eabi/include/c++/10.3.1/bits/std_function.h **** 
 296:/Library/DaisyToolchain/0.2.0/arm/arm-none-eabi/include/c++/10.3.1/bits/std_function.h ****   /**
 297:/Library/DaisyToolchain/0.2.0/arm/arm-none-eabi/include/c++/10.3.1/bits/std_function.h ****    *  @brief Primary class template for std::function.
 298:/Library/DaisyToolchain/0.2.0/arm/arm-none-eabi/include/c++/10.3.1/bits/std_function.h ****    *  @ingroup functors
 299:/Library/DaisyToolchain/0.2.0/arm/arm-none-eabi/include/c++/10.3.1/bits/std_function.h ****    *
 300:/Library/DaisyToolchain/0.2.0/arm/arm-none-eabi/include/c++/10.3.1/bits/std_function.h ****    *  Polymorphic function wrapper.
 301:/Library/DaisyToolchain/0.2.0/arm/arm-none-eabi/include/c++/10.3.1/bits/std_function.h ****    */
 302:/Library/DaisyToolchain/0.2.0/arm/arm-none-eabi/include/c++/10.3.1/bits/std_function.h ****   template<typename _Res, typename... _ArgTypes>
 303:/Library/DaisyToolchain/0.2.0/arm/arm-none-eabi/include/c++/10.3.1/bits/std_function.h ****     class function<_Res(_ArgTypes...)>
 559              		.loc 14 303 11 view .LVU108
 560              	.LBE681:
 561              		.loc 18 12 7 is_stmt 0 view .LVU109
 562 0000 10B5     		push	{r4, lr}
 563              		.cfi_def_cfa_offset 8
 564              		.cfi_offset 4, -8
 565              		.cfi_offset 14, -4
 566              		.loc 18 12 7 view .LVU110
 567 0002 0446     		mov	r4, r0
 568              	.LBB683:
 569              	.LBB682:
 570              		.loc 14 303 11 view .LVU111
 571 0004 2C30     		adds	r0, r0, #44
 572              	.LVL34:
 573              		.loc 14 303 11 view .LVU112
 574 0006 FFF7FEFF 		bl	_ZNSt14_Function_baseD2Ev
 575              	.LVL35:
 576              		.loc 14 303 11 view .LVU113
ARM GAS  /var/folders/9s/8rp0_f2s1n31qbztm3b5_fdh0000gn/T//ccUlKUex.s 			page 40


 577              	.LBE682:
 578              	.LBE683:
 579              	.LBB684:
 580              	.LBI684:
 581              		.file 19 "/Library/DaisyToolchain/0.2.0/arm/arm-none-eabi/include/c++/10.3.1/bits/stl_vector.h"
   1:/Library/DaisyToolchain/0.2.0/arm/arm-none-eabi/include/c++/10.3.1/bits/stl_vector.h **** // Vector implementation -*- C++ -*-
   2:/Library/DaisyToolchain/0.2.0/arm/arm-none-eabi/include/c++/10.3.1/bits/stl_vector.h **** 
   3:/Library/DaisyToolchain/0.2.0/arm/arm-none-eabi/include/c++/10.3.1/bits/stl_vector.h **** // Copyright (C) 2001-2020 Free Software Foundation, Inc.
   4:/Library/DaisyToolchain/0.2.0/arm/arm-none-eabi/include/c++/10.3.1/bits/stl_vector.h **** //
   5:/Library/DaisyToolchain/0.2.0/arm/arm-none-eabi/include/c++/10.3.1/bits/stl_vector.h **** // This file is part of the GNU ISO C++ Library.  This library is free
   6:/Library/DaisyToolchain/0.2.0/arm/arm-none-eabi/include/c++/10.3.1/bits/stl_vector.h **** // software; you can redistribute it and/or modify it under the
   7:/Library/DaisyToolchain/0.2.0/arm/arm-none-eabi/include/c++/10.3.1/bits/stl_vector.h **** // terms of the GNU General Public License as published by the
   8:/Library/DaisyToolchain/0.2.0/arm/arm-none-eabi/include/c++/10.3.1/bits/stl_vector.h **** // Free Software Foundation; either version 3, or (at your option)
   9:/Library/DaisyToolchain/0.2.0/arm/arm-none-eabi/include/c++/10.3.1/bits/stl_vector.h **** // any later version.
  10:/Library/DaisyToolchain/0.2.0/arm/arm-none-eabi/include/c++/10.3.1/bits/stl_vector.h **** 
  11:/Library/DaisyToolchain/0.2.0/arm/arm-none-eabi/include/c++/10.3.1/bits/stl_vector.h **** // This library is distributed in the hope that it will be useful,
  12:/Library/DaisyToolchain/0.2.0/arm/arm-none-eabi/include/c++/10.3.1/bits/stl_vector.h **** // but WITHOUT ANY WARRANTY; without even the implied warranty of
  13:/Library/DaisyToolchain/0.2.0/arm/arm-none-eabi/include/c++/10.3.1/bits/stl_vector.h **** // MERCHANTABILITY or FITNESS FOR A PARTICULAR PURPOSE.  See the
  14:/Library/DaisyToolchain/0.2.0/arm/arm-none-eabi/include/c++/10.3.1/bits/stl_vector.h **** // GNU General Public License for more details.
  15:/Library/DaisyToolchain/0.2.0/arm/arm-none-eabi/include/c++/10.3.1/bits/stl_vector.h **** 
  16:/Library/DaisyToolchain/0.2.0/arm/arm-none-eabi/include/c++/10.3.1/bits/stl_vector.h **** // Under Section 7 of GPL version 3, you are granted additional
  17:/Library/DaisyToolchain/0.2.0/arm/arm-none-eabi/include/c++/10.3.1/bits/stl_vector.h **** // permissions described in the GCC Runtime Library Exception, version
  18:/Library/DaisyToolchain/0.2.0/arm/arm-none-eabi/include/c++/10.3.1/bits/stl_vector.h **** // 3.1, as published by the Free Software Foundation.
  19:/Library/DaisyToolchain/0.2.0/arm/arm-none-eabi/include/c++/10.3.1/bits/stl_vector.h **** 
  20:/Library/DaisyToolchain/0.2.0/arm/arm-none-eabi/include/c++/10.3.1/bits/stl_vector.h **** // You should have received a copy of the GNU General Public License and
  21:/Library/DaisyToolchain/0.2.0/arm/arm-none-eabi/include/c++/10.3.1/bits/stl_vector.h **** // a copy of the GCC Runtime Library Exception along with this program;
  22:/Library/DaisyToolchain/0.2.0/arm/arm-none-eabi/include/c++/10.3.1/bits/stl_vector.h **** // see the files COPYING3 and COPYING.RUNTIME respectively.  If not, see
  23:/Library/DaisyToolchain/0.2.0/arm/arm-none-eabi/include/c++/10.3.1/bits/stl_vector.h **** // <http://www.gnu.org/licenses/>.
  24:/Library/DaisyToolchain/0.2.0/arm/arm-none-eabi/include/c++/10.3.1/bits/stl_vector.h **** 
  25:/Library/DaisyToolchain/0.2.0/arm/arm-none-eabi/include/c++/10.3.1/bits/stl_vector.h **** /*
  26:/Library/DaisyToolchain/0.2.0/arm/arm-none-eabi/include/c++/10.3.1/bits/stl_vector.h ****  *
  27:/Library/DaisyToolchain/0.2.0/arm/arm-none-eabi/include/c++/10.3.1/bits/stl_vector.h ****  * Copyright (c) 1994
  28:/Library/DaisyToolchain/0.2.0/arm/arm-none-eabi/include/c++/10.3.1/bits/stl_vector.h ****  * Hewlett-Packard Company
  29:/Library/DaisyToolchain/0.2.0/arm/arm-none-eabi/include/c++/10.3.1/bits/stl_vector.h ****  *
  30:/Library/DaisyToolchain/0.2.0/arm/arm-none-eabi/include/c++/10.3.1/bits/stl_vector.h ****  * Permission to use, copy, modify, distribute and sell this software
  31:/Library/DaisyToolchain/0.2.0/arm/arm-none-eabi/include/c++/10.3.1/bits/stl_vector.h ****  * and its documentation for any purpose is hereby granted without fee,
  32:/Library/DaisyToolchain/0.2.0/arm/arm-none-eabi/include/c++/10.3.1/bits/stl_vector.h ****  * provided that the above copyright notice appear in all copies and
  33:/Library/DaisyToolchain/0.2.0/arm/arm-none-eabi/include/c++/10.3.1/bits/stl_vector.h ****  * that both that copyright notice and this permission notice appear
  34:/Library/DaisyToolchain/0.2.0/arm/arm-none-eabi/include/c++/10.3.1/bits/stl_vector.h ****  * in supporting documentation.  Hewlett-Packard Company makes no
  35:/Library/DaisyToolchain/0.2.0/arm/arm-none-eabi/include/c++/10.3.1/bits/stl_vector.h ****  * representations about the suitability of this software for any
  36:/Library/DaisyToolchain/0.2.0/arm/arm-none-eabi/include/c++/10.3.1/bits/stl_vector.h ****  * purpose.  It is provided "as is" without express or implied warranty.
  37:/Library/DaisyToolchain/0.2.0/arm/arm-none-eabi/include/c++/10.3.1/bits/stl_vector.h ****  *
  38:/Library/DaisyToolchain/0.2.0/arm/arm-none-eabi/include/c++/10.3.1/bits/stl_vector.h ****  *
  39:/Library/DaisyToolchain/0.2.0/arm/arm-none-eabi/include/c++/10.3.1/bits/stl_vector.h ****  * Copyright (c) 1996
  40:/Library/DaisyToolchain/0.2.0/arm/arm-none-eabi/include/c++/10.3.1/bits/stl_vector.h ****  * Silicon Graphics Computer Systems, Inc.
  41:/Library/DaisyToolchain/0.2.0/arm/arm-none-eabi/include/c++/10.3.1/bits/stl_vector.h ****  *
  42:/Library/DaisyToolchain/0.2.0/arm/arm-none-eabi/include/c++/10.3.1/bits/stl_vector.h ****  * Permission to use, copy, modify, distribute and sell this software
  43:/Library/DaisyToolchain/0.2.0/arm/arm-none-eabi/include/c++/10.3.1/bits/stl_vector.h ****  * and its documentation for any purpose is hereby granted without fee,
  44:/Library/DaisyToolchain/0.2.0/arm/arm-none-eabi/include/c++/10.3.1/bits/stl_vector.h ****  * provided that the above copyright notice appear in all copies and
  45:/Library/DaisyToolchain/0.2.0/arm/arm-none-eabi/include/c++/10.3.1/bits/stl_vector.h ****  * that both that copyright notice and this permission notice appear
  46:/Library/DaisyToolchain/0.2.0/arm/arm-none-eabi/include/c++/10.3.1/bits/stl_vector.h ****  * in supporting documentation.  Silicon Graphics makes no
  47:/Library/DaisyToolchain/0.2.0/arm/arm-none-eabi/include/c++/10.3.1/bits/stl_vector.h ****  * representations about the suitability of this  software for any
  48:/Library/DaisyToolchain/0.2.0/arm/arm-none-eabi/include/c++/10.3.1/bits/stl_vector.h ****  * purpose.  It is provided "as is" without express or implied warranty.
  49:/Library/DaisyToolchain/0.2.0/arm/arm-none-eabi/include/c++/10.3.1/bits/stl_vector.h ****  */
  50:/Library/DaisyToolchain/0.2.0/arm/arm-none-eabi/include/c++/10.3.1/bits/stl_vector.h **** 
  51:/Library/DaisyToolchain/0.2.0/arm/arm-none-eabi/include/c++/10.3.1/bits/stl_vector.h **** /** @file bits/stl_vector.h
  52:/Library/DaisyToolchain/0.2.0/arm/arm-none-eabi/include/c++/10.3.1/bits/stl_vector.h ****  *  This is an internal header file, included by other library headers.
ARM GAS  /var/folders/9s/8rp0_f2s1n31qbztm3b5_fdh0000gn/T//ccUlKUex.s 			page 41


  53:/Library/DaisyToolchain/0.2.0/arm/arm-none-eabi/include/c++/10.3.1/bits/stl_vector.h ****  *  Do not attempt to use it directly. @headername{vector}
  54:/Library/DaisyToolchain/0.2.0/arm/arm-none-eabi/include/c++/10.3.1/bits/stl_vector.h ****  */
  55:/Library/DaisyToolchain/0.2.0/arm/arm-none-eabi/include/c++/10.3.1/bits/stl_vector.h **** 
  56:/Library/DaisyToolchain/0.2.0/arm/arm-none-eabi/include/c++/10.3.1/bits/stl_vector.h **** #ifndef _STL_VECTOR_H
  57:/Library/DaisyToolchain/0.2.0/arm/arm-none-eabi/include/c++/10.3.1/bits/stl_vector.h **** #define _STL_VECTOR_H 1
  58:/Library/DaisyToolchain/0.2.0/arm/arm-none-eabi/include/c++/10.3.1/bits/stl_vector.h **** 
  59:/Library/DaisyToolchain/0.2.0/arm/arm-none-eabi/include/c++/10.3.1/bits/stl_vector.h **** #include <bits/stl_iterator_base_funcs.h>
  60:/Library/DaisyToolchain/0.2.0/arm/arm-none-eabi/include/c++/10.3.1/bits/stl_vector.h **** #include <bits/functexcept.h>
  61:/Library/DaisyToolchain/0.2.0/arm/arm-none-eabi/include/c++/10.3.1/bits/stl_vector.h **** #include <bits/concept_check.h>
  62:/Library/DaisyToolchain/0.2.0/arm/arm-none-eabi/include/c++/10.3.1/bits/stl_vector.h **** #if __cplusplus >= 201103L
  63:/Library/DaisyToolchain/0.2.0/arm/arm-none-eabi/include/c++/10.3.1/bits/stl_vector.h **** #include <initializer_list>
  64:/Library/DaisyToolchain/0.2.0/arm/arm-none-eabi/include/c++/10.3.1/bits/stl_vector.h **** #endif
  65:/Library/DaisyToolchain/0.2.0/arm/arm-none-eabi/include/c++/10.3.1/bits/stl_vector.h **** #if __cplusplus > 201703L
  66:/Library/DaisyToolchain/0.2.0/arm/arm-none-eabi/include/c++/10.3.1/bits/stl_vector.h **** # include <compare>
  67:/Library/DaisyToolchain/0.2.0/arm/arm-none-eabi/include/c++/10.3.1/bits/stl_vector.h **** #endif
  68:/Library/DaisyToolchain/0.2.0/arm/arm-none-eabi/include/c++/10.3.1/bits/stl_vector.h **** 
  69:/Library/DaisyToolchain/0.2.0/arm/arm-none-eabi/include/c++/10.3.1/bits/stl_vector.h **** #include <debug/assertions.h>
  70:/Library/DaisyToolchain/0.2.0/arm/arm-none-eabi/include/c++/10.3.1/bits/stl_vector.h **** 
  71:/Library/DaisyToolchain/0.2.0/arm/arm-none-eabi/include/c++/10.3.1/bits/stl_vector.h **** #if _GLIBCXX_SANITIZE_STD_ALLOCATOR && _GLIBCXX_SANITIZE_VECTOR
  72:/Library/DaisyToolchain/0.2.0/arm/arm-none-eabi/include/c++/10.3.1/bits/stl_vector.h **** extern "C" void
  73:/Library/DaisyToolchain/0.2.0/arm/arm-none-eabi/include/c++/10.3.1/bits/stl_vector.h **** __sanitizer_annotate_contiguous_container(const void*, const void*,
  74:/Library/DaisyToolchain/0.2.0/arm/arm-none-eabi/include/c++/10.3.1/bits/stl_vector.h **** 					  const void*, const void*);
  75:/Library/DaisyToolchain/0.2.0/arm/arm-none-eabi/include/c++/10.3.1/bits/stl_vector.h **** #endif
  76:/Library/DaisyToolchain/0.2.0/arm/arm-none-eabi/include/c++/10.3.1/bits/stl_vector.h **** 
  77:/Library/DaisyToolchain/0.2.0/arm/arm-none-eabi/include/c++/10.3.1/bits/stl_vector.h **** namespace std _GLIBCXX_VISIBILITY(default)
  78:/Library/DaisyToolchain/0.2.0/arm/arm-none-eabi/include/c++/10.3.1/bits/stl_vector.h **** {
  79:/Library/DaisyToolchain/0.2.0/arm/arm-none-eabi/include/c++/10.3.1/bits/stl_vector.h **** _GLIBCXX_BEGIN_NAMESPACE_VERSION
  80:/Library/DaisyToolchain/0.2.0/arm/arm-none-eabi/include/c++/10.3.1/bits/stl_vector.h **** _GLIBCXX_BEGIN_NAMESPACE_CONTAINER
  81:/Library/DaisyToolchain/0.2.0/arm/arm-none-eabi/include/c++/10.3.1/bits/stl_vector.h **** 
  82:/Library/DaisyToolchain/0.2.0/arm/arm-none-eabi/include/c++/10.3.1/bits/stl_vector.h ****   /// See bits/stl_deque.h's _Deque_base for an explanation.
  83:/Library/DaisyToolchain/0.2.0/arm/arm-none-eabi/include/c++/10.3.1/bits/stl_vector.h ****   template<typename _Tp, typename _Alloc>
  84:/Library/DaisyToolchain/0.2.0/arm/arm-none-eabi/include/c++/10.3.1/bits/stl_vector.h ****     struct _Vector_base
  85:/Library/DaisyToolchain/0.2.0/arm/arm-none-eabi/include/c++/10.3.1/bits/stl_vector.h ****     {
  86:/Library/DaisyToolchain/0.2.0/arm/arm-none-eabi/include/c++/10.3.1/bits/stl_vector.h ****       typedef typename __gnu_cxx::__alloc_traits<_Alloc>::template
  87:/Library/DaisyToolchain/0.2.0/arm/arm-none-eabi/include/c++/10.3.1/bits/stl_vector.h **** 	rebind<_Tp>::other _Tp_alloc_type;
  88:/Library/DaisyToolchain/0.2.0/arm/arm-none-eabi/include/c++/10.3.1/bits/stl_vector.h ****       typedef typename __gnu_cxx::__alloc_traits<_Tp_alloc_type>::pointer
  89:/Library/DaisyToolchain/0.2.0/arm/arm-none-eabi/include/c++/10.3.1/bits/stl_vector.h ****        	pointer;
  90:/Library/DaisyToolchain/0.2.0/arm/arm-none-eabi/include/c++/10.3.1/bits/stl_vector.h **** 
  91:/Library/DaisyToolchain/0.2.0/arm/arm-none-eabi/include/c++/10.3.1/bits/stl_vector.h ****       struct _Vector_impl_data
  92:/Library/DaisyToolchain/0.2.0/arm/arm-none-eabi/include/c++/10.3.1/bits/stl_vector.h ****       {
  93:/Library/DaisyToolchain/0.2.0/arm/arm-none-eabi/include/c++/10.3.1/bits/stl_vector.h **** 	pointer _M_start;
  94:/Library/DaisyToolchain/0.2.0/arm/arm-none-eabi/include/c++/10.3.1/bits/stl_vector.h **** 	pointer _M_finish;
  95:/Library/DaisyToolchain/0.2.0/arm/arm-none-eabi/include/c++/10.3.1/bits/stl_vector.h **** 	pointer _M_end_of_storage;
  96:/Library/DaisyToolchain/0.2.0/arm/arm-none-eabi/include/c++/10.3.1/bits/stl_vector.h **** 
  97:/Library/DaisyToolchain/0.2.0/arm/arm-none-eabi/include/c++/10.3.1/bits/stl_vector.h **** 	_Vector_impl_data() _GLIBCXX_NOEXCEPT
  98:/Library/DaisyToolchain/0.2.0/arm/arm-none-eabi/include/c++/10.3.1/bits/stl_vector.h **** 	: _M_start(), _M_finish(), _M_end_of_storage()
  99:/Library/DaisyToolchain/0.2.0/arm/arm-none-eabi/include/c++/10.3.1/bits/stl_vector.h **** 	{ }
 100:/Library/DaisyToolchain/0.2.0/arm/arm-none-eabi/include/c++/10.3.1/bits/stl_vector.h **** 
 101:/Library/DaisyToolchain/0.2.0/arm/arm-none-eabi/include/c++/10.3.1/bits/stl_vector.h **** #if __cplusplus >= 201103L
 102:/Library/DaisyToolchain/0.2.0/arm/arm-none-eabi/include/c++/10.3.1/bits/stl_vector.h **** 	_Vector_impl_data(_Vector_impl_data&& __x) noexcept
 103:/Library/DaisyToolchain/0.2.0/arm/arm-none-eabi/include/c++/10.3.1/bits/stl_vector.h **** 	: _M_start(__x._M_start), _M_finish(__x._M_finish),
 104:/Library/DaisyToolchain/0.2.0/arm/arm-none-eabi/include/c++/10.3.1/bits/stl_vector.h **** 	  _M_end_of_storage(__x._M_end_of_storage)
 105:/Library/DaisyToolchain/0.2.0/arm/arm-none-eabi/include/c++/10.3.1/bits/stl_vector.h **** 	{ __x._M_start = __x._M_finish = __x._M_end_of_storage = pointer(); }
 106:/Library/DaisyToolchain/0.2.0/arm/arm-none-eabi/include/c++/10.3.1/bits/stl_vector.h **** #endif
 107:/Library/DaisyToolchain/0.2.0/arm/arm-none-eabi/include/c++/10.3.1/bits/stl_vector.h **** 
 108:/Library/DaisyToolchain/0.2.0/arm/arm-none-eabi/include/c++/10.3.1/bits/stl_vector.h **** 	void
 109:/Library/DaisyToolchain/0.2.0/arm/arm-none-eabi/include/c++/10.3.1/bits/stl_vector.h **** 	_M_copy_data(_Vector_impl_data const& __x) _GLIBCXX_NOEXCEPT
ARM GAS  /var/folders/9s/8rp0_f2s1n31qbztm3b5_fdh0000gn/T//ccUlKUex.s 			page 42


 110:/Library/DaisyToolchain/0.2.0/arm/arm-none-eabi/include/c++/10.3.1/bits/stl_vector.h **** 	{
 111:/Library/DaisyToolchain/0.2.0/arm/arm-none-eabi/include/c++/10.3.1/bits/stl_vector.h **** 	  _M_start = __x._M_start;
 112:/Library/DaisyToolchain/0.2.0/arm/arm-none-eabi/include/c++/10.3.1/bits/stl_vector.h **** 	  _M_finish = __x._M_finish;
 113:/Library/DaisyToolchain/0.2.0/arm/arm-none-eabi/include/c++/10.3.1/bits/stl_vector.h **** 	  _M_end_of_storage = __x._M_end_of_storage;
 114:/Library/DaisyToolchain/0.2.0/arm/arm-none-eabi/include/c++/10.3.1/bits/stl_vector.h **** 	}
 115:/Library/DaisyToolchain/0.2.0/arm/arm-none-eabi/include/c++/10.3.1/bits/stl_vector.h **** 
 116:/Library/DaisyToolchain/0.2.0/arm/arm-none-eabi/include/c++/10.3.1/bits/stl_vector.h **** 	void
 117:/Library/DaisyToolchain/0.2.0/arm/arm-none-eabi/include/c++/10.3.1/bits/stl_vector.h **** 	_M_swap_data(_Vector_impl_data& __x) _GLIBCXX_NOEXCEPT
 118:/Library/DaisyToolchain/0.2.0/arm/arm-none-eabi/include/c++/10.3.1/bits/stl_vector.h **** 	{
 119:/Library/DaisyToolchain/0.2.0/arm/arm-none-eabi/include/c++/10.3.1/bits/stl_vector.h **** 	  // Do not use std::swap(_M_start, __x._M_start), etc as it loses
 120:/Library/DaisyToolchain/0.2.0/arm/arm-none-eabi/include/c++/10.3.1/bits/stl_vector.h **** 	  // information used by TBAA.
 121:/Library/DaisyToolchain/0.2.0/arm/arm-none-eabi/include/c++/10.3.1/bits/stl_vector.h **** 	  _Vector_impl_data __tmp;
 122:/Library/DaisyToolchain/0.2.0/arm/arm-none-eabi/include/c++/10.3.1/bits/stl_vector.h **** 	  __tmp._M_copy_data(*this);
 123:/Library/DaisyToolchain/0.2.0/arm/arm-none-eabi/include/c++/10.3.1/bits/stl_vector.h **** 	  _M_copy_data(__x);
 124:/Library/DaisyToolchain/0.2.0/arm/arm-none-eabi/include/c++/10.3.1/bits/stl_vector.h **** 	  __x._M_copy_data(__tmp);
 125:/Library/DaisyToolchain/0.2.0/arm/arm-none-eabi/include/c++/10.3.1/bits/stl_vector.h **** 	}
 126:/Library/DaisyToolchain/0.2.0/arm/arm-none-eabi/include/c++/10.3.1/bits/stl_vector.h ****       };
 127:/Library/DaisyToolchain/0.2.0/arm/arm-none-eabi/include/c++/10.3.1/bits/stl_vector.h **** 
 128:/Library/DaisyToolchain/0.2.0/arm/arm-none-eabi/include/c++/10.3.1/bits/stl_vector.h ****       struct _Vector_impl
 129:/Library/DaisyToolchain/0.2.0/arm/arm-none-eabi/include/c++/10.3.1/bits/stl_vector.h **** 	: public _Tp_alloc_type, public _Vector_impl_data
 130:/Library/DaisyToolchain/0.2.0/arm/arm-none-eabi/include/c++/10.3.1/bits/stl_vector.h ****       {
 131:/Library/DaisyToolchain/0.2.0/arm/arm-none-eabi/include/c++/10.3.1/bits/stl_vector.h **** 	_Vector_impl() _GLIBCXX_NOEXCEPT_IF(
 132:/Library/DaisyToolchain/0.2.0/arm/arm-none-eabi/include/c++/10.3.1/bits/stl_vector.h **** 	    is_nothrow_default_constructible<_Tp_alloc_type>::value)
 133:/Library/DaisyToolchain/0.2.0/arm/arm-none-eabi/include/c++/10.3.1/bits/stl_vector.h **** 	: _Tp_alloc_type()
 134:/Library/DaisyToolchain/0.2.0/arm/arm-none-eabi/include/c++/10.3.1/bits/stl_vector.h **** 	{ }
 135:/Library/DaisyToolchain/0.2.0/arm/arm-none-eabi/include/c++/10.3.1/bits/stl_vector.h **** 
 136:/Library/DaisyToolchain/0.2.0/arm/arm-none-eabi/include/c++/10.3.1/bits/stl_vector.h **** 	_Vector_impl(_Tp_alloc_type const& __a) _GLIBCXX_NOEXCEPT
 137:/Library/DaisyToolchain/0.2.0/arm/arm-none-eabi/include/c++/10.3.1/bits/stl_vector.h **** 	: _Tp_alloc_type(__a)
 138:/Library/DaisyToolchain/0.2.0/arm/arm-none-eabi/include/c++/10.3.1/bits/stl_vector.h **** 	{ }
 139:/Library/DaisyToolchain/0.2.0/arm/arm-none-eabi/include/c++/10.3.1/bits/stl_vector.h **** 
 140:/Library/DaisyToolchain/0.2.0/arm/arm-none-eabi/include/c++/10.3.1/bits/stl_vector.h **** #if __cplusplus >= 201103L
 141:/Library/DaisyToolchain/0.2.0/arm/arm-none-eabi/include/c++/10.3.1/bits/stl_vector.h **** 	// Not defaulted, to enforce noexcept(true) even when
 142:/Library/DaisyToolchain/0.2.0/arm/arm-none-eabi/include/c++/10.3.1/bits/stl_vector.h **** 	// !is_nothrow_move_constructible<_Tp_alloc_type>.
 143:/Library/DaisyToolchain/0.2.0/arm/arm-none-eabi/include/c++/10.3.1/bits/stl_vector.h **** 	_Vector_impl(_Vector_impl&& __x) noexcept
 144:/Library/DaisyToolchain/0.2.0/arm/arm-none-eabi/include/c++/10.3.1/bits/stl_vector.h **** 	: _Tp_alloc_type(std::move(__x)), _Vector_impl_data(std::move(__x))
 145:/Library/DaisyToolchain/0.2.0/arm/arm-none-eabi/include/c++/10.3.1/bits/stl_vector.h **** 	{ }
 146:/Library/DaisyToolchain/0.2.0/arm/arm-none-eabi/include/c++/10.3.1/bits/stl_vector.h **** 
 147:/Library/DaisyToolchain/0.2.0/arm/arm-none-eabi/include/c++/10.3.1/bits/stl_vector.h **** 	_Vector_impl(_Tp_alloc_type&& __a) noexcept
 148:/Library/DaisyToolchain/0.2.0/arm/arm-none-eabi/include/c++/10.3.1/bits/stl_vector.h **** 	: _Tp_alloc_type(std::move(__a))
 149:/Library/DaisyToolchain/0.2.0/arm/arm-none-eabi/include/c++/10.3.1/bits/stl_vector.h **** 	{ }
 150:/Library/DaisyToolchain/0.2.0/arm/arm-none-eabi/include/c++/10.3.1/bits/stl_vector.h **** 
 151:/Library/DaisyToolchain/0.2.0/arm/arm-none-eabi/include/c++/10.3.1/bits/stl_vector.h **** 	_Vector_impl(_Tp_alloc_type&& __a, _Vector_impl&& __rv) noexcept
 152:/Library/DaisyToolchain/0.2.0/arm/arm-none-eabi/include/c++/10.3.1/bits/stl_vector.h **** 	: _Tp_alloc_type(std::move(__a)), _Vector_impl_data(std::move(__rv))
 153:/Library/DaisyToolchain/0.2.0/arm/arm-none-eabi/include/c++/10.3.1/bits/stl_vector.h **** 	{ }
 154:/Library/DaisyToolchain/0.2.0/arm/arm-none-eabi/include/c++/10.3.1/bits/stl_vector.h **** #endif
 155:/Library/DaisyToolchain/0.2.0/arm/arm-none-eabi/include/c++/10.3.1/bits/stl_vector.h **** 
 156:/Library/DaisyToolchain/0.2.0/arm/arm-none-eabi/include/c++/10.3.1/bits/stl_vector.h **** #if _GLIBCXX_SANITIZE_STD_ALLOCATOR && _GLIBCXX_SANITIZE_VECTOR
 157:/Library/DaisyToolchain/0.2.0/arm/arm-none-eabi/include/c++/10.3.1/bits/stl_vector.h **** 	template<typename = _Tp_alloc_type>
 158:/Library/DaisyToolchain/0.2.0/arm/arm-none-eabi/include/c++/10.3.1/bits/stl_vector.h **** 	  struct _Asan
 159:/Library/DaisyToolchain/0.2.0/arm/arm-none-eabi/include/c++/10.3.1/bits/stl_vector.h **** 	  {
 160:/Library/DaisyToolchain/0.2.0/arm/arm-none-eabi/include/c++/10.3.1/bits/stl_vector.h **** 	    typedef typename __gnu_cxx::__alloc_traits<_Tp_alloc_type>
 161:/Library/DaisyToolchain/0.2.0/arm/arm-none-eabi/include/c++/10.3.1/bits/stl_vector.h **** 	      ::size_type size_type;
 162:/Library/DaisyToolchain/0.2.0/arm/arm-none-eabi/include/c++/10.3.1/bits/stl_vector.h **** 
 163:/Library/DaisyToolchain/0.2.0/arm/arm-none-eabi/include/c++/10.3.1/bits/stl_vector.h **** 	    static void _S_shrink(_Vector_impl&, size_type) { }
 164:/Library/DaisyToolchain/0.2.0/arm/arm-none-eabi/include/c++/10.3.1/bits/stl_vector.h **** 	    static void _S_on_dealloc(_Vector_impl&) { }
 165:/Library/DaisyToolchain/0.2.0/arm/arm-none-eabi/include/c++/10.3.1/bits/stl_vector.h **** 
 166:/Library/DaisyToolchain/0.2.0/arm/arm-none-eabi/include/c++/10.3.1/bits/stl_vector.h **** 	    typedef _Vector_impl& _Reinit;
ARM GAS  /var/folders/9s/8rp0_f2s1n31qbztm3b5_fdh0000gn/T//ccUlKUex.s 			page 43


 167:/Library/DaisyToolchain/0.2.0/arm/arm-none-eabi/include/c++/10.3.1/bits/stl_vector.h **** 
 168:/Library/DaisyToolchain/0.2.0/arm/arm-none-eabi/include/c++/10.3.1/bits/stl_vector.h **** 	    struct _Grow
 169:/Library/DaisyToolchain/0.2.0/arm/arm-none-eabi/include/c++/10.3.1/bits/stl_vector.h **** 	    {
 170:/Library/DaisyToolchain/0.2.0/arm/arm-none-eabi/include/c++/10.3.1/bits/stl_vector.h **** 	      _Grow(_Vector_impl&, size_type) { }
 171:/Library/DaisyToolchain/0.2.0/arm/arm-none-eabi/include/c++/10.3.1/bits/stl_vector.h **** 	      void _M_grew(size_type) { }
 172:/Library/DaisyToolchain/0.2.0/arm/arm-none-eabi/include/c++/10.3.1/bits/stl_vector.h **** 	    };
 173:/Library/DaisyToolchain/0.2.0/arm/arm-none-eabi/include/c++/10.3.1/bits/stl_vector.h **** 	  };
 174:/Library/DaisyToolchain/0.2.0/arm/arm-none-eabi/include/c++/10.3.1/bits/stl_vector.h **** 
 175:/Library/DaisyToolchain/0.2.0/arm/arm-none-eabi/include/c++/10.3.1/bits/stl_vector.h **** 	// Enable ASan annotations for memory obtained from std::allocator.
 176:/Library/DaisyToolchain/0.2.0/arm/arm-none-eabi/include/c++/10.3.1/bits/stl_vector.h **** 	template<typename _Up>
 177:/Library/DaisyToolchain/0.2.0/arm/arm-none-eabi/include/c++/10.3.1/bits/stl_vector.h **** 	  struct _Asan<allocator<_Up> >
 178:/Library/DaisyToolchain/0.2.0/arm/arm-none-eabi/include/c++/10.3.1/bits/stl_vector.h **** 	  {
 179:/Library/DaisyToolchain/0.2.0/arm/arm-none-eabi/include/c++/10.3.1/bits/stl_vector.h **** 	    typedef typename __gnu_cxx::__alloc_traits<_Tp_alloc_type>
 180:/Library/DaisyToolchain/0.2.0/arm/arm-none-eabi/include/c++/10.3.1/bits/stl_vector.h **** 	      ::size_type size_type;
 181:/Library/DaisyToolchain/0.2.0/arm/arm-none-eabi/include/c++/10.3.1/bits/stl_vector.h **** 
 182:/Library/DaisyToolchain/0.2.0/arm/arm-none-eabi/include/c++/10.3.1/bits/stl_vector.h **** 	    // Adjust ASan annotation for [_M_start, _M_end_of_storage) to
 183:/Library/DaisyToolchain/0.2.0/arm/arm-none-eabi/include/c++/10.3.1/bits/stl_vector.h **** 	    // mark end of valid region as __curr instead of __prev.
 184:/Library/DaisyToolchain/0.2.0/arm/arm-none-eabi/include/c++/10.3.1/bits/stl_vector.h **** 	    static void
 185:/Library/DaisyToolchain/0.2.0/arm/arm-none-eabi/include/c++/10.3.1/bits/stl_vector.h **** 	    _S_adjust(_Vector_impl& __impl, pointer __prev, pointer __curr)
 186:/Library/DaisyToolchain/0.2.0/arm/arm-none-eabi/include/c++/10.3.1/bits/stl_vector.h **** 	    {
 187:/Library/DaisyToolchain/0.2.0/arm/arm-none-eabi/include/c++/10.3.1/bits/stl_vector.h **** 	      __sanitizer_annotate_contiguous_container(__impl._M_start,
 188:/Library/DaisyToolchain/0.2.0/arm/arm-none-eabi/include/c++/10.3.1/bits/stl_vector.h **** 		  __impl._M_end_of_storage, __prev, __curr);
 189:/Library/DaisyToolchain/0.2.0/arm/arm-none-eabi/include/c++/10.3.1/bits/stl_vector.h **** 	    }
 190:/Library/DaisyToolchain/0.2.0/arm/arm-none-eabi/include/c++/10.3.1/bits/stl_vector.h **** 
 191:/Library/DaisyToolchain/0.2.0/arm/arm-none-eabi/include/c++/10.3.1/bits/stl_vector.h **** 	    static void
 192:/Library/DaisyToolchain/0.2.0/arm/arm-none-eabi/include/c++/10.3.1/bits/stl_vector.h **** 	    _S_grow(_Vector_impl& __impl, size_type __n)
 193:/Library/DaisyToolchain/0.2.0/arm/arm-none-eabi/include/c++/10.3.1/bits/stl_vector.h **** 	    { _S_adjust(__impl, __impl._M_finish, __impl._M_finish + __n); }
 194:/Library/DaisyToolchain/0.2.0/arm/arm-none-eabi/include/c++/10.3.1/bits/stl_vector.h **** 
 195:/Library/DaisyToolchain/0.2.0/arm/arm-none-eabi/include/c++/10.3.1/bits/stl_vector.h **** 	    static void
 196:/Library/DaisyToolchain/0.2.0/arm/arm-none-eabi/include/c++/10.3.1/bits/stl_vector.h **** 	    _S_shrink(_Vector_impl& __impl, size_type __n)
 197:/Library/DaisyToolchain/0.2.0/arm/arm-none-eabi/include/c++/10.3.1/bits/stl_vector.h **** 	    { _S_adjust(__impl, __impl._M_finish + __n, __impl._M_finish); }
 198:/Library/DaisyToolchain/0.2.0/arm/arm-none-eabi/include/c++/10.3.1/bits/stl_vector.h **** 
 199:/Library/DaisyToolchain/0.2.0/arm/arm-none-eabi/include/c++/10.3.1/bits/stl_vector.h **** 	    static void
 200:/Library/DaisyToolchain/0.2.0/arm/arm-none-eabi/include/c++/10.3.1/bits/stl_vector.h **** 	    _S_on_dealloc(_Vector_impl& __impl)
 201:/Library/DaisyToolchain/0.2.0/arm/arm-none-eabi/include/c++/10.3.1/bits/stl_vector.h **** 	    {
 202:/Library/DaisyToolchain/0.2.0/arm/arm-none-eabi/include/c++/10.3.1/bits/stl_vector.h **** 	      if (__impl._M_start)
 203:/Library/DaisyToolchain/0.2.0/arm/arm-none-eabi/include/c++/10.3.1/bits/stl_vector.h **** 		_S_adjust(__impl, __impl._M_finish, __impl._M_end_of_storage);
 204:/Library/DaisyToolchain/0.2.0/arm/arm-none-eabi/include/c++/10.3.1/bits/stl_vector.h **** 	    }
 205:/Library/DaisyToolchain/0.2.0/arm/arm-none-eabi/include/c++/10.3.1/bits/stl_vector.h **** 
 206:/Library/DaisyToolchain/0.2.0/arm/arm-none-eabi/include/c++/10.3.1/bits/stl_vector.h **** 	    // Used on reallocation to tell ASan unused capacity is invalid.
 207:/Library/DaisyToolchain/0.2.0/arm/arm-none-eabi/include/c++/10.3.1/bits/stl_vector.h **** 	    struct _Reinit
 208:/Library/DaisyToolchain/0.2.0/arm/arm-none-eabi/include/c++/10.3.1/bits/stl_vector.h **** 	    {
 209:/Library/DaisyToolchain/0.2.0/arm/arm-none-eabi/include/c++/10.3.1/bits/stl_vector.h **** 	      explicit _Reinit(_Vector_impl& __impl) : _M_impl(__impl)
 210:/Library/DaisyToolchain/0.2.0/arm/arm-none-eabi/include/c++/10.3.1/bits/stl_vector.h **** 	      {
 211:/Library/DaisyToolchain/0.2.0/arm/arm-none-eabi/include/c++/10.3.1/bits/stl_vector.h **** 		// Mark unused capacity as valid again before deallocating it.
 212:/Library/DaisyToolchain/0.2.0/arm/arm-none-eabi/include/c++/10.3.1/bits/stl_vector.h **** 		_S_on_dealloc(_M_impl);
 213:/Library/DaisyToolchain/0.2.0/arm/arm-none-eabi/include/c++/10.3.1/bits/stl_vector.h **** 	      }
 214:/Library/DaisyToolchain/0.2.0/arm/arm-none-eabi/include/c++/10.3.1/bits/stl_vector.h **** 
 215:/Library/DaisyToolchain/0.2.0/arm/arm-none-eabi/include/c++/10.3.1/bits/stl_vector.h **** 	      ~_Reinit()
 216:/Library/DaisyToolchain/0.2.0/arm/arm-none-eabi/include/c++/10.3.1/bits/stl_vector.h **** 	      {
 217:/Library/DaisyToolchain/0.2.0/arm/arm-none-eabi/include/c++/10.3.1/bits/stl_vector.h **** 		// Mark unused capacity as invalid after reallocation.
 218:/Library/DaisyToolchain/0.2.0/arm/arm-none-eabi/include/c++/10.3.1/bits/stl_vector.h **** 		if (_M_impl._M_start)
 219:/Library/DaisyToolchain/0.2.0/arm/arm-none-eabi/include/c++/10.3.1/bits/stl_vector.h **** 		  _S_adjust(_M_impl, _M_impl._M_end_of_storage,
 220:/Library/DaisyToolchain/0.2.0/arm/arm-none-eabi/include/c++/10.3.1/bits/stl_vector.h **** 			    _M_impl._M_finish);
 221:/Library/DaisyToolchain/0.2.0/arm/arm-none-eabi/include/c++/10.3.1/bits/stl_vector.h **** 	      }
 222:/Library/DaisyToolchain/0.2.0/arm/arm-none-eabi/include/c++/10.3.1/bits/stl_vector.h **** 
 223:/Library/DaisyToolchain/0.2.0/arm/arm-none-eabi/include/c++/10.3.1/bits/stl_vector.h **** 	      _Vector_impl& _M_impl;
ARM GAS  /var/folders/9s/8rp0_f2s1n31qbztm3b5_fdh0000gn/T//ccUlKUex.s 			page 44


 224:/Library/DaisyToolchain/0.2.0/arm/arm-none-eabi/include/c++/10.3.1/bits/stl_vector.h **** 
 225:/Library/DaisyToolchain/0.2.0/arm/arm-none-eabi/include/c++/10.3.1/bits/stl_vector.h **** #if __cplusplus >= 201103L
 226:/Library/DaisyToolchain/0.2.0/arm/arm-none-eabi/include/c++/10.3.1/bits/stl_vector.h **** 	      _Reinit(const _Reinit&) = delete;
 227:/Library/DaisyToolchain/0.2.0/arm/arm-none-eabi/include/c++/10.3.1/bits/stl_vector.h **** 	      _Reinit& operator=(const _Reinit&) = delete;
 228:/Library/DaisyToolchain/0.2.0/arm/arm-none-eabi/include/c++/10.3.1/bits/stl_vector.h **** #endif
 229:/Library/DaisyToolchain/0.2.0/arm/arm-none-eabi/include/c++/10.3.1/bits/stl_vector.h **** 	    };
 230:/Library/DaisyToolchain/0.2.0/arm/arm-none-eabi/include/c++/10.3.1/bits/stl_vector.h **** 
 231:/Library/DaisyToolchain/0.2.0/arm/arm-none-eabi/include/c++/10.3.1/bits/stl_vector.h **** 	    // Tell ASan when unused capacity is initialized to be valid.
 232:/Library/DaisyToolchain/0.2.0/arm/arm-none-eabi/include/c++/10.3.1/bits/stl_vector.h **** 	    struct _Grow
 233:/Library/DaisyToolchain/0.2.0/arm/arm-none-eabi/include/c++/10.3.1/bits/stl_vector.h **** 	    {
 234:/Library/DaisyToolchain/0.2.0/arm/arm-none-eabi/include/c++/10.3.1/bits/stl_vector.h **** 	      _Grow(_Vector_impl& __impl, size_type __n)
 235:/Library/DaisyToolchain/0.2.0/arm/arm-none-eabi/include/c++/10.3.1/bits/stl_vector.h **** 	      : _M_impl(__impl), _M_n(__n)
 236:/Library/DaisyToolchain/0.2.0/arm/arm-none-eabi/include/c++/10.3.1/bits/stl_vector.h **** 	      { _S_grow(_M_impl, __n); }
 237:/Library/DaisyToolchain/0.2.0/arm/arm-none-eabi/include/c++/10.3.1/bits/stl_vector.h **** 
 238:/Library/DaisyToolchain/0.2.0/arm/arm-none-eabi/include/c++/10.3.1/bits/stl_vector.h **** 	      ~_Grow() { if (_M_n) _S_shrink(_M_impl, _M_n); }
 239:/Library/DaisyToolchain/0.2.0/arm/arm-none-eabi/include/c++/10.3.1/bits/stl_vector.h **** 
 240:/Library/DaisyToolchain/0.2.0/arm/arm-none-eabi/include/c++/10.3.1/bits/stl_vector.h **** 	      void _M_grew(size_type __n) { _M_n -= __n; }
 241:/Library/DaisyToolchain/0.2.0/arm/arm-none-eabi/include/c++/10.3.1/bits/stl_vector.h **** 
 242:/Library/DaisyToolchain/0.2.0/arm/arm-none-eabi/include/c++/10.3.1/bits/stl_vector.h **** #if __cplusplus >= 201103L
 243:/Library/DaisyToolchain/0.2.0/arm/arm-none-eabi/include/c++/10.3.1/bits/stl_vector.h **** 	      _Grow(const _Grow&) = delete;
 244:/Library/DaisyToolchain/0.2.0/arm/arm-none-eabi/include/c++/10.3.1/bits/stl_vector.h **** 	      _Grow& operator=(const _Grow&) = delete;
 245:/Library/DaisyToolchain/0.2.0/arm/arm-none-eabi/include/c++/10.3.1/bits/stl_vector.h **** #endif
 246:/Library/DaisyToolchain/0.2.0/arm/arm-none-eabi/include/c++/10.3.1/bits/stl_vector.h **** 	    private:
 247:/Library/DaisyToolchain/0.2.0/arm/arm-none-eabi/include/c++/10.3.1/bits/stl_vector.h **** 	      _Vector_impl& _M_impl;
 248:/Library/DaisyToolchain/0.2.0/arm/arm-none-eabi/include/c++/10.3.1/bits/stl_vector.h **** 	      size_type _M_n;
 249:/Library/DaisyToolchain/0.2.0/arm/arm-none-eabi/include/c++/10.3.1/bits/stl_vector.h **** 	    };
 250:/Library/DaisyToolchain/0.2.0/arm/arm-none-eabi/include/c++/10.3.1/bits/stl_vector.h **** 	  };
 251:/Library/DaisyToolchain/0.2.0/arm/arm-none-eabi/include/c++/10.3.1/bits/stl_vector.h **** 
 252:/Library/DaisyToolchain/0.2.0/arm/arm-none-eabi/include/c++/10.3.1/bits/stl_vector.h **** #define _GLIBCXX_ASAN_ANNOTATE_REINIT \
 253:/Library/DaisyToolchain/0.2.0/arm/arm-none-eabi/include/c++/10.3.1/bits/stl_vector.h ****   typename _Base::_Vector_impl::template _Asan<>::_Reinit const \
 254:/Library/DaisyToolchain/0.2.0/arm/arm-none-eabi/include/c++/10.3.1/bits/stl_vector.h **** 	__attribute__((__unused__)) __reinit_guard(this->_M_impl)
 255:/Library/DaisyToolchain/0.2.0/arm/arm-none-eabi/include/c++/10.3.1/bits/stl_vector.h **** #define _GLIBCXX_ASAN_ANNOTATE_GROW(n) \
 256:/Library/DaisyToolchain/0.2.0/arm/arm-none-eabi/include/c++/10.3.1/bits/stl_vector.h ****   typename _Base::_Vector_impl::template _Asan<>::_Grow \
 257:/Library/DaisyToolchain/0.2.0/arm/arm-none-eabi/include/c++/10.3.1/bits/stl_vector.h **** 	__attribute__((__unused__)) __grow_guard(this->_M_impl, (n))
 258:/Library/DaisyToolchain/0.2.0/arm/arm-none-eabi/include/c++/10.3.1/bits/stl_vector.h **** #define _GLIBCXX_ASAN_ANNOTATE_GREW(n) __grow_guard._M_grew(n)
 259:/Library/DaisyToolchain/0.2.0/arm/arm-none-eabi/include/c++/10.3.1/bits/stl_vector.h **** #define _GLIBCXX_ASAN_ANNOTATE_SHRINK(n) \
 260:/Library/DaisyToolchain/0.2.0/arm/arm-none-eabi/include/c++/10.3.1/bits/stl_vector.h ****   _Base::_Vector_impl::template _Asan<>::_S_shrink(this->_M_impl, n)
 261:/Library/DaisyToolchain/0.2.0/arm/arm-none-eabi/include/c++/10.3.1/bits/stl_vector.h **** #define _GLIBCXX_ASAN_ANNOTATE_BEFORE_DEALLOC \
 262:/Library/DaisyToolchain/0.2.0/arm/arm-none-eabi/include/c++/10.3.1/bits/stl_vector.h ****   _Base::_Vector_impl::template _Asan<>::_S_on_dealloc(this->_M_impl)
 263:/Library/DaisyToolchain/0.2.0/arm/arm-none-eabi/include/c++/10.3.1/bits/stl_vector.h **** #else // ! (_GLIBCXX_SANITIZE_STD_ALLOCATOR && _GLIBCXX_SANITIZE_VECTOR)
 264:/Library/DaisyToolchain/0.2.0/arm/arm-none-eabi/include/c++/10.3.1/bits/stl_vector.h **** #define _GLIBCXX_ASAN_ANNOTATE_REINIT
 265:/Library/DaisyToolchain/0.2.0/arm/arm-none-eabi/include/c++/10.3.1/bits/stl_vector.h **** #define _GLIBCXX_ASAN_ANNOTATE_GROW(n)
 266:/Library/DaisyToolchain/0.2.0/arm/arm-none-eabi/include/c++/10.3.1/bits/stl_vector.h **** #define _GLIBCXX_ASAN_ANNOTATE_GREW(n)
 267:/Library/DaisyToolchain/0.2.0/arm/arm-none-eabi/include/c++/10.3.1/bits/stl_vector.h **** #define _GLIBCXX_ASAN_ANNOTATE_SHRINK(n)
 268:/Library/DaisyToolchain/0.2.0/arm/arm-none-eabi/include/c++/10.3.1/bits/stl_vector.h **** #define _GLIBCXX_ASAN_ANNOTATE_BEFORE_DEALLOC
 269:/Library/DaisyToolchain/0.2.0/arm/arm-none-eabi/include/c++/10.3.1/bits/stl_vector.h **** #endif // _GLIBCXX_SANITIZE_STD_ALLOCATOR && _GLIBCXX_SANITIZE_VECTOR
 270:/Library/DaisyToolchain/0.2.0/arm/arm-none-eabi/include/c++/10.3.1/bits/stl_vector.h ****       };
 271:/Library/DaisyToolchain/0.2.0/arm/arm-none-eabi/include/c++/10.3.1/bits/stl_vector.h **** 
 272:/Library/DaisyToolchain/0.2.0/arm/arm-none-eabi/include/c++/10.3.1/bits/stl_vector.h ****     public:
 273:/Library/DaisyToolchain/0.2.0/arm/arm-none-eabi/include/c++/10.3.1/bits/stl_vector.h ****       typedef _Alloc allocator_type;
 274:/Library/DaisyToolchain/0.2.0/arm/arm-none-eabi/include/c++/10.3.1/bits/stl_vector.h **** 
 275:/Library/DaisyToolchain/0.2.0/arm/arm-none-eabi/include/c++/10.3.1/bits/stl_vector.h ****       _Tp_alloc_type&
 276:/Library/DaisyToolchain/0.2.0/arm/arm-none-eabi/include/c++/10.3.1/bits/stl_vector.h ****       _M_get_Tp_allocator() _GLIBCXX_NOEXCEPT
 277:/Library/DaisyToolchain/0.2.0/arm/arm-none-eabi/include/c++/10.3.1/bits/stl_vector.h ****       { return this->_M_impl; }
 278:/Library/DaisyToolchain/0.2.0/arm/arm-none-eabi/include/c++/10.3.1/bits/stl_vector.h **** 
 279:/Library/DaisyToolchain/0.2.0/arm/arm-none-eabi/include/c++/10.3.1/bits/stl_vector.h ****       const _Tp_alloc_type&
 280:/Library/DaisyToolchain/0.2.0/arm/arm-none-eabi/include/c++/10.3.1/bits/stl_vector.h ****       _M_get_Tp_allocator() const _GLIBCXX_NOEXCEPT
ARM GAS  /var/folders/9s/8rp0_f2s1n31qbztm3b5_fdh0000gn/T//ccUlKUex.s 			page 45


 281:/Library/DaisyToolchain/0.2.0/arm/arm-none-eabi/include/c++/10.3.1/bits/stl_vector.h ****       { return this->_M_impl; }
 282:/Library/DaisyToolchain/0.2.0/arm/arm-none-eabi/include/c++/10.3.1/bits/stl_vector.h **** 
 283:/Library/DaisyToolchain/0.2.0/arm/arm-none-eabi/include/c++/10.3.1/bits/stl_vector.h ****       allocator_type
 284:/Library/DaisyToolchain/0.2.0/arm/arm-none-eabi/include/c++/10.3.1/bits/stl_vector.h ****       get_allocator() const _GLIBCXX_NOEXCEPT
 285:/Library/DaisyToolchain/0.2.0/arm/arm-none-eabi/include/c++/10.3.1/bits/stl_vector.h ****       { return allocator_type(_M_get_Tp_allocator()); }
 286:/Library/DaisyToolchain/0.2.0/arm/arm-none-eabi/include/c++/10.3.1/bits/stl_vector.h **** 
 287:/Library/DaisyToolchain/0.2.0/arm/arm-none-eabi/include/c++/10.3.1/bits/stl_vector.h **** #if __cplusplus >= 201103L
 288:/Library/DaisyToolchain/0.2.0/arm/arm-none-eabi/include/c++/10.3.1/bits/stl_vector.h ****       _Vector_base() = default;
 289:/Library/DaisyToolchain/0.2.0/arm/arm-none-eabi/include/c++/10.3.1/bits/stl_vector.h **** #else
 290:/Library/DaisyToolchain/0.2.0/arm/arm-none-eabi/include/c++/10.3.1/bits/stl_vector.h ****       _Vector_base() { }
 291:/Library/DaisyToolchain/0.2.0/arm/arm-none-eabi/include/c++/10.3.1/bits/stl_vector.h **** #endif
 292:/Library/DaisyToolchain/0.2.0/arm/arm-none-eabi/include/c++/10.3.1/bits/stl_vector.h **** 
 293:/Library/DaisyToolchain/0.2.0/arm/arm-none-eabi/include/c++/10.3.1/bits/stl_vector.h ****       _Vector_base(const allocator_type& __a) _GLIBCXX_NOEXCEPT
 294:/Library/DaisyToolchain/0.2.0/arm/arm-none-eabi/include/c++/10.3.1/bits/stl_vector.h ****       : _M_impl(__a) { }
 295:/Library/DaisyToolchain/0.2.0/arm/arm-none-eabi/include/c++/10.3.1/bits/stl_vector.h **** 
 296:/Library/DaisyToolchain/0.2.0/arm/arm-none-eabi/include/c++/10.3.1/bits/stl_vector.h ****       // Kept for ABI compatibility.
 297:/Library/DaisyToolchain/0.2.0/arm/arm-none-eabi/include/c++/10.3.1/bits/stl_vector.h **** #if !_GLIBCXX_INLINE_VERSION
 298:/Library/DaisyToolchain/0.2.0/arm/arm-none-eabi/include/c++/10.3.1/bits/stl_vector.h ****       _Vector_base(size_t __n)
 299:/Library/DaisyToolchain/0.2.0/arm/arm-none-eabi/include/c++/10.3.1/bits/stl_vector.h ****       : _M_impl()
 300:/Library/DaisyToolchain/0.2.0/arm/arm-none-eabi/include/c++/10.3.1/bits/stl_vector.h ****       { _M_create_storage(__n); }
 301:/Library/DaisyToolchain/0.2.0/arm/arm-none-eabi/include/c++/10.3.1/bits/stl_vector.h **** #endif
 302:/Library/DaisyToolchain/0.2.0/arm/arm-none-eabi/include/c++/10.3.1/bits/stl_vector.h **** 
 303:/Library/DaisyToolchain/0.2.0/arm/arm-none-eabi/include/c++/10.3.1/bits/stl_vector.h ****       _Vector_base(size_t __n, const allocator_type& __a)
 304:/Library/DaisyToolchain/0.2.0/arm/arm-none-eabi/include/c++/10.3.1/bits/stl_vector.h ****       : _M_impl(__a)
 305:/Library/DaisyToolchain/0.2.0/arm/arm-none-eabi/include/c++/10.3.1/bits/stl_vector.h ****       { _M_create_storage(__n); }
 306:/Library/DaisyToolchain/0.2.0/arm/arm-none-eabi/include/c++/10.3.1/bits/stl_vector.h **** 
 307:/Library/DaisyToolchain/0.2.0/arm/arm-none-eabi/include/c++/10.3.1/bits/stl_vector.h **** #if __cplusplus >= 201103L
 308:/Library/DaisyToolchain/0.2.0/arm/arm-none-eabi/include/c++/10.3.1/bits/stl_vector.h ****       _Vector_base(_Vector_base&&) = default;
 309:/Library/DaisyToolchain/0.2.0/arm/arm-none-eabi/include/c++/10.3.1/bits/stl_vector.h **** 
 310:/Library/DaisyToolchain/0.2.0/arm/arm-none-eabi/include/c++/10.3.1/bits/stl_vector.h ****       // Kept for ABI compatibility.
 311:/Library/DaisyToolchain/0.2.0/arm/arm-none-eabi/include/c++/10.3.1/bits/stl_vector.h **** # if !_GLIBCXX_INLINE_VERSION
 312:/Library/DaisyToolchain/0.2.0/arm/arm-none-eabi/include/c++/10.3.1/bits/stl_vector.h ****       _Vector_base(_Tp_alloc_type&& __a) noexcept
 313:/Library/DaisyToolchain/0.2.0/arm/arm-none-eabi/include/c++/10.3.1/bits/stl_vector.h ****       : _M_impl(std::move(__a)) { }
 314:/Library/DaisyToolchain/0.2.0/arm/arm-none-eabi/include/c++/10.3.1/bits/stl_vector.h **** 
 315:/Library/DaisyToolchain/0.2.0/arm/arm-none-eabi/include/c++/10.3.1/bits/stl_vector.h ****       _Vector_base(_Vector_base&& __x, const allocator_type& __a)
 316:/Library/DaisyToolchain/0.2.0/arm/arm-none-eabi/include/c++/10.3.1/bits/stl_vector.h ****       : _M_impl(__a)
 317:/Library/DaisyToolchain/0.2.0/arm/arm-none-eabi/include/c++/10.3.1/bits/stl_vector.h ****       {
 318:/Library/DaisyToolchain/0.2.0/arm/arm-none-eabi/include/c++/10.3.1/bits/stl_vector.h **** 	if (__x.get_allocator() == __a)
 319:/Library/DaisyToolchain/0.2.0/arm/arm-none-eabi/include/c++/10.3.1/bits/stl_vector.h **** 	  this->_M_impl._M_swap_data(__x._M_impl);
 320:/Library/DaisyToolchain/0.2.0/arm/arm-none-eabi/include/c++/10.3.1/bits/stl_vector.h **** 	else
 321:/Library/DaisyToolchain/0.2.0/arm/arm-none-eabi/include/c++/10.3.1/bits/stl_vector.h **** 	  {
 322:/Library/DaisyToolchain/0.2.0/arm/arm-none-eabi/include/c++/10.3.1/bits/stl_vector.h **** 	    size_t __n = __x._M_impl._M_finish - __x._M_impl._M_start;
 323:/Library/DaisyToolchain/0.2.0/arm/arm-none-eabi/include/c++/10.3.1/bits/stl_vector.h **** 	    _M_create_storage(__n);
 324:/Library/DaisyToolchain/0.2.0/arm/arm-none-eabi/include/c++/10.3.1/bits/stl_vector.h **** 	  }
 325:/Library/DaisyToolchain/0.2.0/arm/arm-none-eabi/include/c++/10.3.1/bits/stl_vector.h ****       }
 326:/Library/DaisyToolchain/0.2.0/arm/arm-none-eabi/include/c++/10.3.1/bits/stl_vector.h **** # endif
 327:/Library/DaisyToolchain/0.2.0/arm/arm-none-eabi/include/c++/10.3.1/bits/stl_vector.h **** 
 328:/Library/DaisyToolchain/0.2.0/arm/arm-none-eabi/include/c++/10.3.1/bits/stl_vector.h ****       _Vector_base(const allocator_type& __a, _Vector_base&& __x)
 329:/Library/DaisyToolchain/0.2.0/arm/arm-none-eabi/include/c++/10.3.1/bits/stl_vector.h ****       : _M_impl(_Tp_alloc_type(__a), std::move(__x._M_impl))
 330:/Library/DaisyToolchain/0.2.0/arm/arm-none-eabi/include/c++/10.3.1/bits/stl_vector.h ****       { }
 331:/Library/DaisyToolchain/0.2.0/arm/arm-none-eabi/include/c++/10.3.1/bits/stl_vector.h **** #endif
 332:/Library/DaisyToolchain/0.2.0/arm/arm-none-eabi/include/c++/10.3.1/bits/stl_vector.h **** 
 333:/Library/DaisyToolchain/0.2.0/arm/arm-none-eabi/include/c++/10.3.1/bits/stl_vector.h ****       ~_Vector_base() _GLIBCXX_NOEXCEPT
 334:/Library/DaisyToolchain/0.2.0/arm/arm-none-eabi/include/c++/10.3.1/bits/stl_vector.h ****       {
 335:/Library/DaisyToolchain/0.2.0/arm/arm-none-eabi/include/c++/10.3.1/bits/stl_vector.h **** 	_M_deallocate(_M_impl._M_start,
 336:/Library/DaisyToolchain/0.2.0/arm/arm-none-eabi/include/c++/10.3.1/bits/stl_vector.h **** 		      _M_impl._M_end_of_storage - _M_impl._M_start);
 337:/Library/DaisyToolchain/0.2.0/arm/arm-none-eabi/include/c++/10.3.1/bits/stl_vector.h ****       }
ARM GAS  /var/folders/9s/8rp0_f2s1n31qbztm3b5_fdh0000gn/T//ccUlKUex.s 			page 46


 338:/Library/DaisyToolchain/0.2.0/arm/arm-none-eabi/include/c++/10.3.1/bits/stl_vector.h **** 
 339:/Library/DaisyToolchain/0.2.0/arm/arm-none-eabi/include/c++/10.3.1/bits/stl_vector.h ****     public:
 340:/Library/DaisyToolchain/0.2.0/arm/arm-none-eabi/include/c++/10.3.1/bits/stl_vector.h ****       _Vector_impl _M_impl;
 341:/Library/DaisyToolchain/0.2.0/arm/arm-none-eabi/include/c++/10.3.1/bits/stl_vector.h **** 
 342:/Library/DaisyToolchain/0.2.0/arm/arm-none-eabi/include/c++/10.3.1/bits/stl_vector.h ****       pointer
 343:/Library/DaisyToolchain/0.2.0/arm/arm-none-eabi/include/c++/10.3.1/bits/stl_vector.h ****       _M_allocate(size_t __n)
 344:/Library/DaisyToolchain/0.2.0/arm/arm-none-eabi/include/c++/10.3.1/bits/stl_vector.h ****       {
 345:/Library/DaisyToolchain/0.2.0/arm/arm-none-eabi/include/c++/10.3.1/bits/stl_vector.h **** 	typedef __gnu_cxx::__alloc_traits<_Tp_alloc_type> _Tr;
 346:/Library/DaisyToolchain/0.2.0/arm/arm-none-eabi/include/c++/10.3.1/bits/stl_vector.h **** 	return __n != 0 ? _Tr::allocate(_M_impl, __n) : pointer();
 347:/Library/DaisyToolchain/0.2.0/arm/arm-none-eabi/include/c++/10.3.1/bits/stl_vector.h ****       }
 348:/Library/DaisyToolchain/0.2.0/arm/arm-none-eabi/include/c++/10.3.1/bits/stl_vector.h **** 
 349:/Library/DaisyToolchain/0.2.0/arm/arm-none-eabi/include/c++/10.3.1/bits/stl_vector.h ****       void
 350:/Library/DaisyToolchain/0.2.0/arm/arm-none-eabi/include/c++/10.3.1/bits/stl_vector.h ****       _M_deallocate(pointer __p, size_t __n)
 351:/Library/DaisyToolchain/0.2.0/arm/arm-none-eabi/include/c++/10.3.1/bits/stl_vector.h ****       {
 352:/Library/DaisyToolchain/0.2.0/arm/arm-none-eabi/include/c++/10.3.1/bits/stl_vector.h **** 	typedef __gnu_cxx::__alloc_traits<_Tp_alloc_type> _Tr;
 353:/Library/DaisyToolchain/0.2.0/arm/arm-none-eabi/include/c++/10.3.1/bits/stl_vector.h **** 	if (__p)
 354:/Library/DaisyToolchain/0.2.0/arm/arm-none-eabi/include/c++/10.3.1/bits/stl_vector.h **** 	  _Tr::deallocate(_M_impl, __p, __n);
 355:/Library/DaisyToolchain/0.2.0/arm/arm-none-eabi/include/c++/10.3.1/bits/stl_vector.h ****       }
 356:/Library/DaisyToolchain/0.2.0/arm/arm-none-eabi/include/c++/10.3.1/bits/stl_vector.h **** 
 357:/Library/DaisyToolchain/0.2.0/arm/arm-none-eabi/include/c++/10.3.1/bits/stl_vector.h ****     protected:
 358:/Library/DaisyToolchain/0.2.0/arm/arm-none-eabi/include/c++/10.3.1/bits/stl_vector.h ****       void
 359:/Library/DaisyToolchain/0.2.0/arm/arm-none-eabi/include/c++/10.3.1/bits/stl_vector.h ****       _M_create_storage(size_t __n)
 360:/Library/DaisyToolchain/0.2.0/arm/arm-none-eabi/include/c++/10.3.1/bits/stl_vector.h ****       {
 361:/Library/DaisyToolchain/0.2.0/arm/arm-none-eabi/include/c++/10.3.1/bits/stl_vector.h **** 	this->_M_impl._M_start = this->_M_allocate(__n);
 362:/Library/DaisyToolchain/0.2.0/arm/arm-none-eabi/include/c++/10.3.1/bits/stl_vector.h **** 	this->_M_impl._M_finish = this->_M_impl._M_start;
 363:/Library/DaisyToolchain/0.2.0/arm/arm-none-eabi/include/c++/10.3.1/bits/stl_vector.h **** 	this->_M_impl._M_end_of_storage = this->_M_impl._M_start + __n;
 364:/Library/DaisyToolchain/0.2.0/arm/arm-none-eabi/include/c++/10.3.1/bits/stl_vector.h ****       }
 365:/Library/DaisyToolchain/0.2.0/arm/arm-none-eabi/include/c++/10.3.1/bits/stl_vector.h ****     };
 366:/Library/DaisyToolchain/0.2.0/arm/arm-none-eabi/include/c++/10.3.1/bits/stl_vector.h **** 
 367:/Library/DaisyToolchain/0.2.0/arm/arm-none-eabi/include/c++/10.3.1/bits/stl_vector.h ****   /**
 368:/Library/DaisyToolchain/0.2.0/arm/arm-none-eabi/include/c++/10.3.1/bits/stl_vector.h ****    *  @brief A standard container which offers fixed time access to
 369:/Library/DaisyToolchain/0.2.0/arm/arm-none-eabi/include/c++/10.3.1/bits/stl_vector.h ****    *  individual elements in any order.
 370:/Library/DaisyToolchain/0.2.0/arm/arm-none-eabi/include/c++/10.3.1/bits/stl_vector.h ****    *
 371:/Library/DaisyToolchain/0.2.0/arm/arm-none-eabi/include/c++/10.3.1/bits/stl_vector.h ****    *  @ingroup sequences
 372:/Library/DaisyToolchain/0.2.0/arm/arm-none-eabi/include/c++/10.3.1/bits/stl_vector.h ****    *
 373:/Library/DaisyToolchain/0.2.0/arm/arm-none-eabi/include/c++/10.3.1/bits/stl_vector.h ****    *  @tparam _Tp  Type of element.
 374:/Library/DaisyToolchain/0.2.0/arm/arm-none-eabi/include/c++/10.3.1/bits/stl_vector.h ****    *  @tparam _Alloc  Allocator type, defaults to allocator<_Tp>.
 375:/Library/DaisyToolchain/0.2.0/arm/arm-none-eabi/include/c++/10.3.1/bits/stl_vector.h ****    *
 376:/Library/DaisyToolchain/0.2.0/arm/arm-none-eabi/include/c++/10.3.1/bits/stl_vector.h ****    *  Meets the requirements of a <a href="tables.html#65">container</a>, a
 377:/Library/DaisyToolchain/0.2.0/arm/arm-none-eabi/include/c++/10.3.1/bits/stl_vector.h ****    *  <a href="tables.html#66">reversible container</a>, and a
 378:/Library/DaisyToolchain/0.2.0/arm/arm-none-eabi/include/c++/10.3.1/bits/stl_vector.h ****    *  <a href="tables.html#67">sequence</a>, including the
 379:/Library/DaisyToolchain/0.2.0/arm/arm-none-eabi/include/c++/10.3.1/bits/stl_vector.h ****    *  <a href="tables.html#68">optional sequence requirements</a> with the
 380:/Library/DaisyToolchain/0.2.0/arm/arm-none-eabi/include/c++/10.3.1/bits/stl_vector.h ****    *  %exception of @c push_front and @c pop_front.
 381:/Library/DaisyToolchain/0.2.0/arm/arm-none-eabi/include/c++/10.3.1/bits/stl_vector.h ****    *
 382:/Library/DaisyToolchain/0.2.0/arm/arm-none-eabi/include/c++/10.3.1/bits/stl_vector.h ****    *  In some terminology a %vector can be described as a dynamic
 383:/Library/DaisyToolchain/0.2.0/arm/arm-none-eabi/include/c++/10.3.1/bits/stl_vector.h ****    *  C-style array, it offers fast and efficient access to individual
 384:/Library/DaisyToolchain/0.2.0/arm/arm-none-eabi/include/c++/10.3.1/bits/stl_vector.h ****    *  elements in any order and saves the user from worrying about
 385:/Library/DaisyToolchain/0.2.0/arm/arm-none-eabi/include/c++/10.3.1/bits/stl_vector.h ****    *  memory and size allocation.  Subscripting ( @c [] ) access is
 386:/Library/DaisyToolchain/0.2.0/arm/arm-none-eabi/include/c++/10.3.1/bits/stl_vector.h ****    *  also provided as with C-style arrays.
 387:/Library/DaisyToolchain/0.2.0/arm/arm-none-eabi/include/c++/10.3.1/bits/stl_vector.h ****   */
 388:/Library/DaisyToolchain/0.2.0/arm/arm-none-eabi/include/c++/10.3.1/bits/stl_vector.h ****   template<typename _Tp, typename _Alloc = std::allocator<_Tp> >
 389:/Library/DaisyToolchain/0.2.0/arm/arm-none-eabi/include/c++/10.3.1/bits/stl_vector.h ****     class vector : protected _Vector_base<_Tp, _Alloc>
 390:/Library/DaisyToolchain/0.2.0/arm/arm-none-eabi/include/c++/10.3.1/bits/stl_vector.h ****     {
 391:/Library/DaisyToolchain/0.2.0/arm/arm-none-eabi/include/c++/10.3.1/bits/stl_vector.h **** #ifdef _GLIBCXX_CONCEPT_CHECKS
 392:/Library/DaisyToolchain/0.2.0/arm/arm-none-eabi/include/c++/10.3.1/bits/stl_vector.h ****       // Concept requirements.
 393:/Library/DaisyToolchain/0.2.0/arm/arm-none-eabi/include/c++/10.3.1/bits/stl_vector.h ****       typedef typename _Alloc::value_type		_Alloc_value_type;
 394:/Library/DaisyToolchain/0.2.0/arm/arm-none-eabi/include/c++/10.3.1/bits/stl_vector.h **** # if __cplusplus < 201103L
ARM GAS  /var/folders/9s/8rp0_f2s1n31qbztm3b5_fdh0000gn/T//ccUlKUex.s 			page 47


 395:/Library/DaisyToolchain/0.2.0/arm/arm-none-eabi/include/c++/10.3.1/bits/stl_vector.h ****       __glibcxx_class_requires(_Tp, _SGIAssignableConcept)
 396:/Library/DaisyToolchain/0.2.0/arm/arm-none-eabi/include/c++/10.3.1/bits/stl_vector.h **** # endif
 397:/Library/DaisyToolchain/0.2.0/arm/arm-none-eabi/include/c++/10.3.1/bits/stl_vector.h ****       __glibcxx_class_requires2(_Tp, _Alloc_value_type, _SameTypeConcept)
 398:/Library/DaisyToolchain/0.2.0/arm/arm-none-eabi/include/c++/10.3.1/bits/stl_vector.h **** #endif
 399:/Library/DaisyToolchain/0.2.0/arm/arm-none-eabi/include/c++/10.3.1/bits/stl_vector.h **** 
 400:/Library/DaisyToolchain/0.2.0/arm/arm-none-eabi/include/c++/10.3.1/bits/stl_vector.h **** #if __cplusplus >= 201103L
 401:/Library/DaisyToolchain/0.2.0/arm/arm-none-eabi/include/c++/10.3.1/bits/stl_vector.h ****       static_assert(is_same<typename remove_cv<_Tp>::type, _Tp>::value,
 402:/Library/DaisyToolchain/0.2.0/arm/arm-none-eabi/include/c++/10.3.1/bits/stl_vector.h **** 	  "std::vector must have a non-const, non-volatile value_type");
 403:/Library/DaisyToolchain/0.2.0/arm/arm-none-eabi/include/c++/10.3.1/bits/stl_vector.h **** # if __cplusplus > 201703L || defined __STRICT_ANSI__
 404:/Library/DaisyToolchain/0.2.0/arm/arm-none-eabi/include/c++/10.3.1/bits/stl_vector.h ****       static_assert(is_same<typename _Alloc::value_type, _Tp>::value,
 405:/Library/DaisyToolchain/0.2.0/arm/arm-none-eabi/include/c++/10.3.1/bits/stl_vector.h **** 	  "std::vector must have the same value_type as its allocator");
 406:/Library/DaisyToolchain/0.2.0/arm/arm-none-eabi/include/c++/10.3.1/bits/stl_vector.h **** # endif
 407:/Library/DaisyToolchain/0.2.0/arm/arm-none-eabi/include/c++/10.3.1/bits/stl_vector.h **** #endif
 408:/Library/DaisyToolchain/0.2.0/arm/arm-none-eabi/include/c++/10.3.1/bits/stl_vector.h **** 
 409:/Library/DaisyToolchain/0.2.0/arm/arm-none-eabi/include/c++/10.3.1/bits/stl_vector.h ****       typedef _Vector_base<_Tp, _Alloc>			_Base;
 410:/Library/DaisyToolchain/0.2.0/arm/arm-none-eabi/include/c++/10.3.1/bits/stl_vector.h ****       typedef typename _Base::_Tp_alloc_type		_Tp_alloc_type;
 411:/Library/DaisyToolchain/0.2.0/arm/arm-none-eabi/include/c++/10.3.1/bits/stl_vector.h ****       typedef __gnu_cxx::__alloc_traits<_Tp_alloc_type>	_Alloc_traits;
 412:/Library/DaisyToolchain/0.2.0/arm/arm-none-eabi/include/c++/10.3.1/bits/stl_vector.h **** 
 413:/Library/DaisyToolchain/0.2.0/arm/arm-none-eabi/include/c++/10.3.1/bits/stl_vector.h ****     public:
 414:/Library/DaisyToolchain/0.2.0/arm/arm-none-eabi/include/c++/10.3.1/bits/stl_vector.h ****       typedef _Tp					value_type;
 415:/Library/DaisyToolchain/0.2.0/arm/arm-none-eabi/include/c++/10.3.1/bits/stl_vector.h ****       typedef typename _Base::pointer			pointer;
 416:/Library/DaisyToolchain/0.2.0/arm/arm-none-eabi/include/c++/10.3.1/bits/stl_vector.h ****       typedef typename _Alloc_traits::const_pointer	const_pointer;
 417:/Library/DaisyToolchain/0.2.0/arm/arm-none-eabi/include/c++/10.3.1/bits/stl_vector.h ****       typedef typename _Alloc_traits::reference		reference;
 418:/Library/DaisyToolchain/0.2.0/arm/arm-none-eabi/include/c++/10.3.1/bits/stl_vector.h ****       typedef typename _Alloc_traits::const_reference	const_reference;
 419:/Library/DaisyToolchain/0.2.0/arm/arm-none-eabi/include/c++/10.3.1/bits/stl_vector.h ****       typedef __gnu_cxx::__normal_iterator<pointer, vector> iterator;
 420:/Library/DaisyToolchain/0.2.0/arm/arm-none-eabi/include/c++/10.3.1/bits/stl_vector.h ****       typedef __gnu_cxx::__normal_iterator<const_pointer, vector>
 421:/Library/DaisyToolchain/0.2.0/arm/arm-none-eabi/include/c++/10.3.1/bits/stl_vector.h ****       const_iterator;
 422:/Library/DaisyToolchain/0.2.0/arm/arm-none-eabi/include/c++/10.3.1/bits/stl_vector.h ****       typedef std::reverse_iterator<const_iterator>	const_reverse_iterator;
 423:/Library/DaisyToolchain/0.2.0/arm/arm-none-eabi/include/c++/10.3.1/bits/stl_vector.h ****       typedef std::reverse_iterator<iterator>		reverse_iterator;
 424:/Library/DaisyToolchain/0.2.0/arm/arm-none-eabi/include/c++/10.3.1/bits/stl_vector.h ****       typedef size_t					size_type;
 425:/Library/DaisyToolchain/0.2.0/arm/arm-none-eabi/include/c++/10.3.1/bits/stl_vector.h ****       typedef ptrdiff_t					difference_type;
 426:/Library/DaisyToolchain/0.2.0/arm/arm-none-eabi/include/c++/10.3.1/bits/stl_vector.h ****       typedef _Alloc					allocator_type;
 427:/Library/DaisyToolchain/0.2.0/arm/arm-none-eabi/include/c++/10.3.1/bits/stl_vector.h **** 
 428:/Library/DaisyToolchain/0.2.0/arm/arm-none-eabi/include/c++/10.3.1/bits/stl_vector.h ****     private:
 429:/Library/DaisyToolchain/0.2.0/arm/arm-none-eabi/include/c++/10.3.1/bits/stl_vector.h **** #if __cplusplus >= 201103L
 430:/Library/DaisyToolchain/0.2.0/arm/arm-none-eabi/include/c++/10.3.1/bits/stl_vector.h ****       static constexpr bool
 431:/Library/DaisyToolchain/0.2.0/arm/arm-none-eabi/include/c++/10.3.1/bits/stl_vector.h ****       _S_nothrow_relocate(true_type)
 432:/Library/DaisyToolchain/0.2.0/arm/arm-none-eabi/include/c++/10.3.1/bits/stl_vector.h ****       {
 433:/Library/DaisyToolchain/0.2.0/arm/arm-none-eabi/include/c++/10.3.1/bits/stl_vector.h **** 	return noexcept(std::__relocate_a(std::declval<pointer>(),
 434:/Library/DaisyToolchain/0.2.0/arm/arm-none-eabi/include/c++/10.3.1/bits/stl_vector.h **** 					  std::declval<pointer>(),
 435:/Library/DaisyToolchain/0.2.0/arm/arm-none-eabi/include/c++/10.3.1/bits/stl_vector.h **** 					  std::declval<pointer>(),
 436:/Library/DaisyToolchain/0.2.0/arm/arm-none-eabi/include/c++/10.3.1/bits/stl_vector.h **** 					  std::declval<_Tp_alloc_type&>()));
 437:/Library/DaisyToolchain/0.2.0/arm/arm-none-eabi/include/c++/10.3.1/bits/stl_vector.h ****       }
 438:/Library/DaisyToolchain/0.2.0/arm/arm-none-eabi/include/c++/10.3.1/bits/stl_vector.h **** 
 439:/Library/DaisyToolchain/0.2.0/arm/arm-none-eabi/include/c++/10.3.1/bits/stl_vector.h ****       static constexpr bool
 440:/Library/DaisyToolchain/0.2.0/arm/arm-none-eabi/include/c++/10.3.1/bits/stl_vector.h ****       _S_nothrow_relocate(false_type)
 441:/Library/DaisyToolchain/0.2.0/arm/arm-none-eabi/include/c++/10.3.1/bits/stl_vector.h ****       { return false; }
 442:/Library/DaisyToolchain/0.2.0/arm/arm-none-eabi/include/c++/10.3.1/bits/stl_vector.h **** 
 443:/Library/DaisyToolchain/0.2.0/arm/arm-none-eabi/include/c++/10.3.1/bits/stl_vector.h ****       static constexpr bool
 444:/Library/DaisyToolchain/0.2.0/arm/arm-none-eabi/include/c++/10.3.1/bits/stl_vector.h ****       _S_use_relocate()
 445:/Library/DaisyToolchain/0.2.0/arm/arm-none-eabi/include/c++/10.3.1/bits/stl_vector.h ****       {
 446:/Library/DaisyToolchain/0.2.0/arm/arm-none-eabi/include/c++/10.3.1/bits/stl_vector.h **** 	// Instantiating std::__relocate_a might cause an error outside the
 447:/Library/DaisyToolchain/0.2.0/arm/arm-none-eabi/include/c++/10.3.1/bits/stl_vector.h **** 	// immediate context (in __relocate_object_a's noexcept-specifier),
 448:/Library/DaisyToolchain/0.2.0/arm/arm-none-eabi/include/c++/10.3.1/bits/stl_vector.h **** 	// so only do it if we know the type can be move-inserted into *this.
 449:/Library/DaisyToolchain/0.2.0/arm/arm-none-eabi/include/c++/10.3.1/bits/stl_vector.h **** 	return _S_nothrow_relocate(__is_move_insertable<_Tp_alloc_type>{});
 450:/Library/DaisyToolchain/0.2.0/arm/arm-none-eabi/include/c++/10.3.1/bits/stl_vector.h ****       }
 451:/Library/DaisyToolchain/0.2.0/arm/arm-none-eabi/include/c++/10.3.1/bits/stl_vector.h **** 
ARM GAS  /var/folders/9s/8rp0_f2s1n31qbztm3b5_fdh0000gn/T//ccUlKUex.s 			page 48


 452:/Library/DaisyToolchain/0.2.0/arm/arm-none-eabi/include/c++/10.3.1/bits/stl_vector.h ****       static pointer
 453:/Library/DaisyToolchain/0.2.0/arm/arm-none-eabi/include/c++/10.3.1/bits/stl_vector.h ****       _S_do_relocate(pointer __first, pointer __last, pointer __result,
 454:/Library/DaisyToolchain/0.2.0/arm/arm-none-eabi/include/c++/10.3.1/bits/stl_vector.h **** 		     _Tp_alloc_type& __alloc, true_type) noexcept
 455:/Library/DaisyToolchain/0.2.0/arm/arm-none-eabi/include/c++/10.3.1/bits/stl_vector.h ****       {
 456:/Library/DaisyToolchain/0.2.0/arm/arm-none-eabi/include/c++/10.3.1/bits/stl_vector.h **** 	return std::__relocate_a(__first, __last, __result, __alloc);
 457:/Library/DaisyToolchain/0.2.0/arm/arm-none-eabi/include/c++/10.3.1/bits/stl_vector.h ****       }
 458:/Library/DaisyToolchain/0.2.0/arm/arm-none-eabi/include/c++/10.3.1/bits/stl_vector.h **** 
 459:/Library/DaisyToolchain/0.2.0/arm/arm-none-eabi/include/c++/10.3.1/bits/stl_vector.h ****       static pointer
 460:/Library/DaisyToolchain/0.2.0/arm/arm-none-eabi/include/c++/10.3.1/bits/stl_vector.h ****       _S_do_relocate(pointer, pointer, pointer __result,
 461:/Library/DaisyToolchain/0.2.0/arm/arm-none-eabi/include/c++/10.3.1/bits/stl_vector.h **** 		     _Tp_alloc_type&, false_type) noexcept
 462:/Library/DaisyToolchain/0.2.0/arm/arm-none-eabi/include/c++/10.3.1/bits/stl_vector.h ****       { return __result; }
 463:/Library/DaisyToolchain/0.2.0/arm/arm-none-eabi/include/c++/10.3.1/bits/stl_vector.h **** 
 464:/Library/DaisyToolchain/0.2.0/arm/arm-none-eabi/include/c++/10.3.1/bits/stl_vector.h ****       static pointer
 465:/Library/DaisyToolchain/0.2.0/arm/arm-none-eabi/include/c++/10.3.1/bits/stl_vector.h ****       _S_relocate(pointer __first, pointer __last, pointer __result,
 466:/Library/DaisyToolchain/0.2.0/arm/arm-none-eabi/include/c++/10.3.1/bits/stl_vector.h **** 		  _Tp_alloc_type& __alloc) noexcept
 467:/Library/DaisyToolchain/0.2.0/arm/arm-none-eabi/include/c++/10.3.1/bits/stl_vector.h ****       {
 468:/Library/DaisyToolchain/0.2.0/arm/arm-none-eabi/include/c++/10.3.1/bits/stl_vector.h **** 	using __do_it = __bool_constant<_S_use_relocate()>;
 469:/Library/DaisyToolchain/0.2.0/arm/arm-none-eabi/include/c++/10.3.1/bits/stl_vector.h **** 	return _S_do_relocate(__first, __last, __result, __alloc, __do_it{});
 470:/Library/DaisyToolchain/0.2.0/arm/arm-none-eabi/include/c++/10.3.1/bits/stl_vector.h ****       }
 471:/Library/DaisyToolchain/0.2.0/arm/arm-none-eabi/include/c++/10.3.1/bits/stl_vector.h **** #endif // C++11
 472:/Library/DaisyToolchain/0.2.0/arm/arm-none-eabi/include/c++/10.3.1/bits/stl_vector.h **** 
 473:/Library/DaisyToolchain/0.2.0/arm/arm-none-eabi/include/c++/10.3.1/bits/stl_vector.h ****     protected:
 474:/Library/DaisyToolchain/0.2.0/arm/arm-none-eabi/include/c++/10.3.1/bits/stl_vector.h ****       using _Base::_M_allocate;
 475:/Library/DaisyToolchain/0.2.0/arm/arm-none-eabi/include/c++/10.3.1/bits/stl_vector.h ****       using _Base::_M_deallocate;
 476:/Library/DaisyToolchain/0.2.0/arm/arm-none-eabi/include/c++/10.3.1/bits/stl_vector.h ****       using _Base::_M_impl;
 477:/Library/DaisyToolchain/0.2.0/arm/arm-none-eabi/include/c++/10.3.1/bits/stl_vector.h ****       using _Base::_M_get_Tp_allocator;
 478:/Library/DaisyToolchain/0.2.0/arm/arm-none-eabi/include/c++/10.3.1/bits/stl_vector.h **** 
 479:/Library/DaisyToolchain/0.2.0/arm/arm-none-eabi/include/c++/10.3.1/bits/stl_vector.h ****     public:
 480:/Library/DaisyToolchain/0.2.0/arm/arm-none-eabi/include/c++/10.3.1/bits/stl_vector.h ****       // [23.2.4.1] construct/copy/destroy
 481:/Library/DaisyToolchain/0.2.0/arm/arm-none-eabi/include/c++/10.3.1/bits/stl_vector.h ****       // (assign() and get_allocator() are also listed in this section)
 482:/Library/DaisyToolchain/0.2.0/arm/arm-none-eabi/include/c++/10.3.1/bits/stl_vector.h **** 
 483:/Library/DaisyToolchain/0.2.0/arm/arm-none-eabi/include/c++/10.3.1/bits/stl_vector.h ****       /**
 484:/Library/DaisyToolchain/0.2.0/arm/arm-none-eabi/include/c++/10.3.1/bits/stl_vector.h ****        *  @brief  Creates a %vector with no elements.
 485:/Library/DaisyToolchain/0.2.0/arm/arm-none-eabi/include/c++/10.3.1/bits/stl_vector.h ****        */
 486:/Library/DaisyToolchain/0.2.0/arm/arm-none-eabi/include/c++/10.3.1/bits/stl_vector.h **** #if __cplusplus >= 201103L
 487:/Library/DaisyToolchain/0.2.0/arm/arm-none-eabi/include/c++/10.3.1/bits/stl_vector.h ****       vector() = default;
 488:/Library/DaisyToolchain/0.2.0/arm/arm-none-eabi/include/c++/10.3.1/bits/stl_vector.h **** #else
 489:/Library/DaisyToolchain/0.2.0/arm/arm-none-eabi/include/c++/10.3.1/bits/stl_vector.h ****       vector() { }
 490:/Library/DaisyToolchain/0.2.0/arm/arm-none-eabi/include/c++/10.3.1/bits/stl_vector.h **** #endif
 491:/Library/DaisyToolchain/0.2.0/arm/arm-none-eabi/include/c++/10.3.1/bits/stl_vector.h **** 
 492:/Library/DaisyToolchain/0.2.0/arm/arm-none-eabi/include/c++/10.3.1/bits/stl_vector.h ****       /**
 493:/Library/DaisyToolchain/0.2.0/arm/arm-none-eabi/include/c++/10.3.1/bits/stl_vector.h ****        *  @brief  Creates a %vector with no elements.
 494:/Library/DaisyToolchain/0.2.0/arm/arm-none-eabi/include/c++/10.3.1/bits/stl_vector.h ****        *  @param  __a  An allocator object.
 495:/Library/DaisyToolchain/0.2.0/arm/arm-none-eabi/include/c++/10.3.1/bits/stl_vector.h ****        */
 496:/Library/DaisyToolchain/0.2.0/arm/arm-none-eabi/include/c++/10.3.1/bits/stl_vector.h ****       explicit
 497:/Library/DaisyToolchain/0.2.0/arm/arm-none-eabi/include/c++/10.3.1/bits/stl_vector.h ****       vector(const allocator_type& __a) _GLIBCXX_NOEXCEPT
 498:/Library/DaisyToolchain/0.2.0/arm/arm-none-eabi/include/c++/10.3.1/bits/stl_vector.h ****       : _Base(__a) { }
 499:/Library/DaisyToolchain/0.2.0/arm/arm-none-eabi/include/c++/10.3.1/bits/stl_vector.h **** 
 500:/Library/DaisyToolchain/0.2.0/arm/arm-none-eabi/include/c++/10.3.1/bits/stl_vector.h **** #if __cplusplus >= 201103L
 501:/Library/DaisyToolchain/0.2.0/arm/arm-none-eabi/include/c++/10.3.1/bits/stl_vector.h ****       /**
 502:/Library/DaisyToolchain/0.2.0/arm/arm-none-eabi/include/c++/10.3.1/bits/stl_vector.h ****        *  @brief  Creates a %vector with default constructed elements.
 503:/Library/DaisyToolchain/0.2.0/arm/arm-none-eabi/include/c++/10.3.1/bits/stl_vector.h ****        *  @param  __n  The number of elements to initially create.
 504:/Library/DaisyToolchain/0.2.0/arm/arm-none-eabi/include/c++/10.3.1/bits/stl_vector.h ****        *  @param  __a  An allocator.
 505:/Library/DaisyToolchain/0.2.0/arm/arm-none-eabi/include/c++/10.3.1/bits/stl_vector.h ****        *
 506:/Library/DaisyToolchain/0.2.0/arm/arm-none-eabi/include/c++/10.3.1/bits/stl_vector.h ****        *  This constructor fills the %vector with @a __n default
 507:/Library/DaisyToolchain/0.2.0/arm/arm-none-eabi/include/c++/10.3.1/bits/stl_vector.h ****        *  constructed elements.
 508:/Library/DaisyToolchain/0.2.0/arm/arm-none-eabi/include/c++/10.3.1/bits/stl_vector.h ****        */
ARM GAS  /var/folders/9s/8rp0_f2s1n31qbztm3b5_fdh0000gn/T//ccUlKUex.s 			page 49


 509:/Library/DaisyToolchain/0.2.0/arm/arm-none-eabi/include/c++/10.3.1/bits/stl_vector.h ****       explicit
 510:/Library/DaisyToolchain/0.2.0/arm/arm-none-eabi/include/c++/10.3.1/bits/stl_vector.h ****       vector(size_type __n, const allocator_type& __a = allocator_type())
 511:/Library/DaisyToolchain/0.2.0/arm/arm-none-eabi/include/c++/10.3.1/bits/stl_vector.h ****       : _Base(_S_check_init_len(__n, __a), __a)
 512:/Library/DaisyToolchain/0.2.0/arm/arm-none-eabi/include/c++/10.3.1/bits/stl_vector.h ****       { _M_default_initialize(__n); }
 513:/Library/DaisyToolchain/0.2.0/arm/arm-none-eabi/include/c++/10.3.1/bits/stl_vector.h **** 
 514:/Library/DaisyToolchain/0.2.0/arm/arm-none-eabi/include/c++/10.3.1/bits/stl_vector.h ****       /**
 515:/Library/DaisyToolchain/0.2.0/arm/arm-none-eabi/include/c++/10.3.1/bits/stl_vector.h ****        *  @brief  Creates a %vector with copies of an exemplar element.
 516:/Library/DaisyToolchain/0.2.0/arm/arm-none-eabi/include/c++/10.3.1/bits/stl_vector.h ****        *  @param  __n  The number of elements to initially create.
 517:/Library/DaisyToolchain/0.2.0/arm/arm-none-eabi/include/c++/10.3.1/bits/stl_vector.h ****        *  @param  __value  An element to copy.
 518:/Library/DaisyToolchain/0.2.0/arm/arm-none-eabi/include/c++/10.3.1/bits/stl_vector.h ****        *  @param  __a  An allocator.
 519:/Library/DaisyToolchain/0.2.0/arm/arm-none-eabi/include/c++/10.3.1/bits/stl_vector.h ****        *
 520:/Library/DaisyToolchain/0.2.0/arm/arm-none-eabi/include/c++/10.3.1/bits/stl_vector.h ****        *  This constructor fills the %vector with @a __n copies of @a __value.
 521:/Library/DaisyToolchain/0.2.0/arm/arm-none-eabi/include/c++/10.3.1/bits/stl_vector.h ****        */
 522:/Library/DaisyToolchain/0.2.0/arm/arm-none-eabi/include/c++/10.3.1/bits/stl_vector.h ****       vector(size_type __n, const value_type& __value,
 523:/Library/DaisyToolchain/0.2.0/arm/arm-none-eabi/include/c++/10.3.1/bits/stl_vector.h **** 	     const allocator_type& __a = allocator_type())
 524:/Library/DaisyToolchain/0.2.0/arm/arm-none-eabi/include/c++/10.3.1/bits/stl_vector.h ****       : _Base(_S_check_init_len(__n, __a), __a)
 525:/Library/DaisyToolchain/0.2.0/arm/arm-none-eabi/include/c++/10.3.1/bits/stl_vector.h ****       { _M_fill_initialize(__n, __value); }
 526:/Library/DaisyToolchain/0.2.0/arm/arm-none-eabi/include/c++/10.3.1/bits/stl_vector.h **** #else
 527:/Library/DaisyToolchain/0.2.0/arm/arm-none-eabi/include/c++/10.3.1/bits/stl_vector.h ****       /**
 528:/Library/DaisyToolchain/0.2.0/arm/arm-none-eabi/include/c++/10.3.1/bits/stl_vector.h ****        *  @brief  Creates a %vector with copies of an exemplar element.
 529:/Library/DaisyToolchain/0.2.0/arm/arm-none-eabi/include/c++/10.3.1/bits/stl_vector.h ****        *  @param  __n  The number of elements to initially create.
 530:/Library/DaisyToolchain/0.2.0/arm/arm-none-eabi/include/c++/10.3.1/bits/stl_vector.h ****        *  @param  __value  An element to copy.
 531:/Library/DaisyToolchain/0.2.0/arm/arm-none-eabi/include/c++/10.3.1/bits/stl_vector.h ****        *  @param  __a  An allocator.
 532:/Library/DaisyToolchain/0.2.0/arm/arm-none-eabi/include/c++/10.3.1/bits/stl_vector.h ****        *
 533:/Library/DaisyToolchain/0.2.0/arm/arm-none-eabi/include/c++/10.3.1/bits/stl_vector.h ****        *  This constructor fills the %vector with @a __n copies of @a __value.
 534:/Library/DaisyToolchain/0.2.0/arm/arm-none-eabi/include/c++/10.3.1/bits/stl_vector.h ****        */
 535:/Library/DaisyToolchain/0.2.0/arm/arm-none-eabi/include/c++/10.3.1/bits/stl_vector.h ****       explicit
 536:/Library/DaisyToolchain/0.2.0/arm/arm-none-eabi/include/c++/10.3.1/bits/stl_vector.h ****       vector(size_type __n, const value_type& __value = value_type(),
 537:/Library/DaisyToolchain/0.2.0/arm/arm-none-eabi/include/c++/10.3.1/bits/stl_vector.h **** 	     const allocator_type& __a = allocator_type())
 538:/Library/DaisyToolchain/0.2.0/arm/arm-none-eabi/include/c++/10.3.1/bits/stl_vector.h ****       : _Base(_S_check_init_len(__n, __a), __a)
 539:/Library/DaisyToolchain/0.2.0/arm/arm-none-eabi/include/c++/10.3.1/bits/stl_vector.h ****       { _M_fill_initialize(__n, __value); }
 540:/Library/DaisyToolchain/0.2.0/arm/arm-none-eabi/include/c++/10.3.1/bits/stl_vector.h **** #endif
 541:/Library/DaisyToolchain/0.2.0/arm/arm-none-eabi/include/c++/10.3.1/bits/stl_vector.h **** 
 542:/Library/DaisyToolchain/0.2.0/arm/arm-none-eabi/include/c++/10.3.1/bits/stl_vector.h ****       /**
 543:/Library/DaisyToolchain/0.2.0/arm/arm-none-eabi/include/c++/10.3.1/bits/stl_vector.h ****        *  @brief  %Vector copy constructor.
 544:/Library/DaisyToolchain/0.2.0/arm/arm-none-eabi/include/c++/10.3.1/bits/stl_vector.h ****        *  @param  __x  A %vector of identical element and allocator types.
 545:/Library/DaisyToolchain/0.2.0/arm/arm-none-eabi/include/c++/10.3.1/bits/stl_vector.h ****        *
 546:/Library/DaisyToolchain/0.2.0/arm/arm-none-eabi/include/c++/10.3.1/bits/stl_vector.h ****        *  All the elements of @a __x are copied, but any unused capacity in
 547:/Library/DaisyToolchain/0.2.0/arm/arm-none-eabi/include/c++/10.3.1/bits/stl_vector.h ****        *  @a __x  will not be copied
 548:/Library/DaisyToolchain/0.2.0/arm/arm-none-eabi/include/c++/10.3.1/bits/stl_vector.h ****        *  (i.e. capacity() == size() in the new %vector).
 549:/Library/DaisyToolchain/0.2.0/arm/arm-none-eabi/include/c++/10.3.1/bits/stl_vector.h ****        *
 550:/Library/DaisyToolchain/0.2.0/arm/arm-none-eabi/include/c++/10.3.1/bits/stl_vector.h ****        *  The newly-created %vector uses a copy of the allocator object used
 551:/Library/DaisyToolchain/0.2.0/arm/arm-none-eabi/include/c++/10.3.1/bits/stl_vector.h ****        *  by @a __x (unless the allocator traits dictate a different object).
 552:/Library/DaisyToolchain/0.2.0/arm/arm-none-eabi/include/c++/10.3.1/bits/stl_vector.h ****        */
 553:/Library/DaisyToolchain/0.2.0/arm/arm-none-eabi/include/c++/10.3.1/bits/stl_vector.h ****       vector(const vector& __x)
 554:/Library/DaisyToolchain/0.2.0/arm/arm-none-eabi/include/c++/10.3.1/bits/stl_vector.h ****       : _Base(__x.size(),
 555:/Library/DaisyToolchain/0.2.0/arm/arm-none-eabi/include/c++/10.3.1/bits/stl_vector.h **** 	_Alloc_traits::_S_select_on_copy(__x._M_get_Tp_allocator()))
 556:/Library/DaisyToolchain/0.2.0/arm/arm-none-eabi/include/c++/10.3.1/bits/stl_vector.h ****       {
 557:/Library/DaisyToolchain/0.2.0/arm/arm-none-eabi/include/c++/10.3.1/bits/stl_vector.h **** 	this->_M_impl._M_finish =
 558:/Library/DaisyToolchain/0.2.0/arm/arm-none-eabi/include/c++/10.3.1/bits/stl_vector.h **** 	  std::__uninitialized_copy_a(__x.begin(), __x.end(),
 559:/Library/DaisyToolchain/0.2.0/arm/arm-none-eabi/include/c++/10.3.1/bits/stl_vector.h **** 				      this->_M_impl._M_start,
 560:/Library/DaisyToolchain/0.2.0/arm/arm-none-eabi/include/c++/10.3.1/bits/stl_vector.h **** 				      _M_get_Tp_allocator());
 561:/Library/DaisyToolchain/0.2.0/arm/arm-none-eabi/include/c++/10.3.1/bits/stl_vector.h ****       }
 562:/Library/DaisyToolchain/0.2.0/arm/arm-none-eabi/include/c++/10.3.1/bits/stl_vector.h **** 
 563:/Library/DaisyToolchain/0.2.0/arm/arm-none-eabi/include/c++/10.3.1/bits/stl_vector.h **** #if __cplusplus >= 201103L
 564:/Library/DaisyToolchain/0.2.0/arm/arm-none-eabi/include/c++/10.3.1/bits/stl_vector.h ****       /**
 565:/Library/DaisyToolchain/0.2.0/arm/arm-none-eabi/include/c++/10.3.1/bits/stl_vector.h ****        *  @brief  %Vector move constructor.
ARM GAS  /var/folders/9s/8rp0_f2s1n31qbztm3b5_fdh0000gn/T//ccUlKUex.s 			page 50


 566:/Library/DaisyToolchain/0.2.0/arm/arm-none-eabi/include/c++/10.3.1/bits/stl_vector.h ****        *
 567:/Library/DaisyToolchain/0.2.0/arm/arm-none-eabi/include/c++/10.3.1/bits/stl_vector.h ****        *  The newly-created %vector contains the exact contents of the
 568:/Library/DaisyToolchain/0.2.0/arm/arm-none-eabi/include/c++/10.3.1/bits/stl_vector.h ****        *  moved instance.
 569:/Library/DaisyToolchain/0.2.0/arm/arm-none-eabi/include/c++/10.3.1/bits/stl_vector.h ****        *  The contents of the moved instance are a valid, but unspecified
 570:/Library/DaisyToolchain/0.2.0/arm/arm-none-eabi/include/c++/10.3.1/bits/stl_vector.h ****        *  %vector.
 571:/Library/DaisyToolchain/0.2.0/arm/arm-none-eabi/include/c++/10.3.1/bits/stl_vector.h ****        */
 572:/Library/DaisyToolchain/0.2.0/arm/arm-none-eabi/include/c++/10.3.1/bits/stl_vector.h ****       vector(vector&&) noexcept = default;
 573:/Library/DaisyToolchain/0.2.0/arm/arm-none-eabi/include/c++/10.3.1/bits/stl_vector.h **** 
 574:/Library/DaisyToolchain/0.2.0/arm/arm-none-eabi/include/c++/10.3.1/bits/stl_vector.h ****       /// Copy constructor with alternative allocator
 575:/Library/DaisyToolchain/0.2.0/arm/arm-none-eabi/include/c++/10.3.1/bits/stl_vector.h ****       vector(const vector& __x, const allocator_type& __a)
 576:/Library/DaisyToolchain/0.2.0/arm/arm-none-eabi/include/c++/10.3.1/bits/stl_vector.h ****       : _Base(__x.size(), __a)
 577:/Library/DaisyToolchain/0.2.0/arm/arm-none-eabi/include/c++/10.3.1/bits/stl_vector.h ****       {
 578:/Library/DaisyToolchain/0.2.0/arm/arm-none-eabi/include/c++/10.3.1/bits/stl_vector.h **** 	this->_M_impl._M_finish =
 579:/Library/DaisyToolchain/0.2.0/arm/arm-none-eabi/include/c++/10.3.1/bits/stl_vector.h **** 	  std::__uninitialized_copy_a(__x.begin(), __x.end(),
 580:/Library/DaisyToolchain/0.2.0/arm/arm-none-eabi/include/c++/10.3.1/bits/stl_vector.h **** 				      this->_M_impl._M_start,
 581:/Library/DaisyToolchain/0.2.0/arm/arm-none-eabi/include/c++/10.3.1/bits/stl_vector.h **** 				      _M_get_Tp_allocator());
 582:/Library/DaisyToolchain/0.2.0/arm/arm-none-eabi/include/c++/10.3.1/bits/stl_vector.h ****       }
 583:/Library/DaisyToolchain/0.2.0/arm/arm-none-eabi/include/c++/10.3.1/bits/stl_vector.h **** 
 584:/Library/DaisyToolchain/0.2.0/arm/arm-none-eabi/include/c++/10.3.1/bits/stl_vector.h ****     private:
 585:/Library/DaisyToolchain/0.2.0/arm/arm-none-eabi/include/c++/10.3.1/bits/stl_vector.h ****       vector(vector&& __rv, const allocator_type& __m, true_type) noexcept
 586:/Library/DaisyToolchain/0.2.0/arm/arm-none-eabi/include/c++/10.3.1/bits/stl_vector.h ****       : _Base(__m, std::move(__rv))
 587:/Library/DaisyToolchain/0.2.0/arm/arm-none-eabi/include/c++/10.3.1/bits/stl_vector.h ****       { }
 588:/Library/DaisyToolchain/0.2.0/arm/arm-none-eabi/include/c++/10.3.1/bits/stl_vector.h **** 
 589:/Library/DaisyToolchain/0.2.0/arm/arm-none-eabi/include/c++/10.3.1/bits/stl_vector.h ****       vector(vector&& __rv, const allocator_type& __m, false_type)
 590:/Library/DaisyToolchain/0.2.0/arm/arm-none-eabi/include/c++/10.3.1/bits/stl_vector.h ****       : _Base(__m)
 591:/Library/DaisyToolchain/0.2.0/arm/arm-none-eabi/include/c++/10.3.1/bits/stl_vector.h ****       {
 592:/Library/DaisyToolchain/0.2.0/arm/arm-none-eabi/include/c++/10.3.1/bits/stl_vector.h **** 	if (__rv.get_allocator() == __m)
 593:/Library/DaisyToolchain/0.2.0/arm/arm-none-eabi/include/c++/10.3.1/bits/stl_vector.h **** 	  this->_M_impl._M_swap_data(__rv._M_impl);
 594:/Library/DaisyToolchain/0.2.0/arm/arm-none-eabi/include/c++/10.3.1/bits/stl_vector.h **** 	else if (!__rv.empty())
 595:/Library/DaisyToolchain/0.2.0/arm/arm-none-eabi/include/c++/10.3.1/bits/stl_vector.h **** 	  {
 596:/Library/DaisyToolchain/0.2.0/arm/arm-none-eabi/include/c++/10.3.1/bits/stl_vector.h **** 	    this->_M_create_storage(__rv.size());
 597:/Library/DaisyToolchain/0.2.0/arm/arm-none-eabi/include/c++/10.3.1/bits/stl_vector.h **** 	    this->_M_impl._M_finish =
 598:/Library/DaisyToolchain/0.2.0/arm/arm-none-eabi/include/c++/10.3.1/bits/stl_vector.h **** 	      std::__uninitialized_move_a(__rv.begin(), __rv.end(),
 599:/Library/DaisyToolchain/0.2.0/arm/arm-none-eabi/include/c++/10.3.1/bits/stl_vector.h **** 					  this->_M_impl._M_start,
 600:/Library/DaisyToolchain/0.2.0/arm/arm-none-eabi/include/c++/10.3.1/bits/stl_vector.h **** 					  _M_get_Tp_allocator());
 601:/Library/DaisyToolchain/0.2.0/arm/arm-none-eabi/include/c++/10.3.1/bits/stl_vector.h **** 	    __rv.clear();
 602:/Library/DaisyToolchain/0.2.0/arm/arm-none-eabi/include/c++/10.3.1/bits/stl_vector.h **** 	  }
 603:/Library/DaisyToolchain/0.2.0/arm/arm-none-eabi/include/c++/10.3.1/bits/stl_vector.h ****       }
 604:/Library/DaisyToolchain/0.2.0/arm/arm-none-eabi/include/c++/10.3.1/bits/stl_vector.h **** 
 605:/Library/DaisyToolchain/0.2.0/arm/arm-none-eabi/include/c++/10.3.1/bits/stl_vector.h ****     public:
 606:/Library/DaisyToolchain/0.2.0/arm/arm-none-eabi/include/c++/10.3.1/bits/stl_vector.h ****       /// Move constructor with alternative allocator
 607:/Library/DaisyToolchain/0.2.0/arm/arm-none-eabi/include/c++/10.3.1/bits/stl_vector.h ****       vector(vector&& __rv, const allocator_type& __m)
 608:/Library/DaisyToolchain/0.2.0/arm/arm-none-eabi/include/c++/10.3.1/bits/stl_vector.h ****       noexcept( noexcept(
 609:/Library/DaisyToolchain/0.2.0/arm/arm-none-eabi/include/c++/10.3.1/bits/stl_vector.h **** 	vector(std::declval<vector&&>(), std::declval<const allocator_type&>(),
 610:/Library/DaisyToolchain/0.2.0/arm/arm-none-eabi/include/c++/10.3.1/bits/stl_vector.h **** 	       std::declval<typename _Alloc_traits::is_always_equal>())) )
 611:/Library/DaisyToolchain/0.2.0/arm/arm-none-eabi/include/c++/10.3.1/bits/stl_vector.h ****       : vector(std::move(__rv), __m, typename _Alloc_traits::is_always_equal{})
 612:/Library/DaisyToolchain/0.2.0/arm/arm-none-eabi/include/c++/10.3.1/bits/stl_vector.h ****       { }
 613:/Library/DaisyToolchain/0.2.0/arm/arm-none-eabi/include/c++/10.3.1/bits/stl_vector.h **** 
 614:/Library/DaisyToolchain/0.2.0/arm/arm-none-eabi/include/c++/10.3.1/bits/stl_vector.h ****       /**
 615:/Library/DaisyToolchain/0.2.0/arm/arm-none-eabi/include/c++/10.3.1/bits/stl_vector.h ****        *  @brief  Builds a %vector from an initializer list.
 616:/Library/DaisyToolchain/0.2.0/arm/arm-none-eabi/include/c++/10.3.1/bits/stl_vector.h ****        *  @param  __l  An initializer_list.
 617:/Library/DaisyToolchain/0.2.0/arm/arm-none-eabi/include/c++/10.3.1/bits/stl_vector.h ****        *  @param  __a  An allocator.
 618:/Library/DaisyToolchain/0.2.0/arm/arm-none-eabi/include/c++/10.3.1/bits/stl_vector.h ****        *
 619:/Library/DaisyToolchain/0.2.0/arm/arm-none-eabi/include/c++/10.3.1/bits/stl_vector.h ****        *  Create a %vector consisting of copies of the elements in the
 620:/Library/DaisyToolchain/0.2.0/arm/arm-none-eabi/include/c++/10.3.1/bits/stl_vector.h ****        *  initializer_list @a __l.
 621:/Library/DaisyToolchain/0.2.0/arm/arm-none-eabi/include/c++/10.3.1/bits/stl_vector.h ****        *
 622:/Library/DaisyToolchain/0.2.0/arm/arm-none-eabi/include/c++/10.3.1/bits/stl_vector.h ****        *  This will call the element type's copy constructor N times
ARM GAS  /var/folders/9s/8rp0_f2s1n31qbztm3b5_fdh0000gn/T//ccUlKUex.s 			page 51


 623:/Library/DaisyToolchain/0.2.0/arm/arm-none-eabi/include/c++/10.3.1/bits/stl_vector.h ****        *  (where N is @a __l.size()) and do no memory reallocation.
 624:/Library/DaisyToolchain/0.2.0/arm/arm-none-eabi/include/c++/10.3.1/bits/stl_vector.h ****        */
 625:/Library/DaisyToolchain/0.2.0/arm/arm-none-eabi/include/c++/10.3.1/bits/stl_vector.h ****       vector(initializer_list<value_type> __l,
 626:/Library/DaisyToolchain/0.2.0/arm/arm-none-eabi/include/c++/10.3.1/bits/stl_vector.h **** 	     const allocator_type& __a = allocator_type())
 627:/Library/DaisyToolchain/0.2.0/arm/arm-none-eabi/include/c++/10.3.1/bits/stl_vector.h ****       : _Base(__a)
 628:/Library/DaisyToolchain/0.2.0/arm/arm-none-eabi/include/c++/10.3.1/bits/stl_vector.h ****       {
 629:/Library/DaisyToolchain/0.2.0/arm/arm-none-eabi/include/c++/10.3.1/bits/stl_vector.h **** 	_M_range_initialize(__l.begin(), __l.end(),
 630:/Library/DaisyToolchain/0.2.0/arm/arm-none-eabi/include/c++/10.3.1/bits/stl_vector.h **** 			    random_access_iterator_tag());
 631:/Library/DaisyToolchain/0.2.0/arm/arm-none-eabi/include/c++/10.3.1/bits/stl_vector.h ****       }
 632:/Library/DaisyToolchain/0.2.0/arm/arm-none-eabi/include/c++/10.3.1/bits/stl_vector.h **** #endif
 633:/Library/DaisyToolchain/0.2.0/arm/arm-none-eabi/include/c++/10.3.1/bits/stl_vector.h **** 
 634:/Library/DaisyToolchain/0.2.0/arm/arm-none-eabi/include/c++/10.3.1/bits/stl_vector.h ****       /**
 635:/Library/DaisyToolchain/0.2.0/arm/arm-none-eabi/include/c++/10.3.1/bits/stl_vector.h ****        *  @brief  Builds a %vector from a range.
 636:/Library/DaisyToolchain/0.2.0/arm/arm-none-eabi/include/c++/10.3.1/bits/stl_vector.h ****        *  @param  __first  An input iterator.
 637:/Library/DaisyToolchain/0.2.0/arm/arm-none-eabi/include/c++/10.3.1/bits/stl_vector.h ****        *  @param  __last  An input iterator.
 638:/Library/DaisyToolchain/0.2.0/arm/arm-none-eabi/include/c++/10.3.1/bits/stl_vector.h ****        *  @param  __a  An allocator.
 639:/Library/DaisyToolchain/0.2.0/arm/arm-none-eabi/include/c++/10.3.1/bits/stl_vector.h ****        *
 640:/Library/DaisyToolchain/0.2.0/arm/arm-none-eabi/include/c++/10.3.1/bits/stl_vector.h ****        *  Create a %vector consisting of copies of the elements from
 641:/Library/DaisyToolchain/0.2.0/arm/arm-none-eabi/include/c++/10.3.1/bits/stl_vector.h ****        *  [first,last).
 642:/Library/DaisyToolchain/0.2.0/arm/arm-none-eabi/include/c++/10.3.1/bits/stl_vector.h ****        *
