ARM GAS  /var/folders/9s/8rp0_f2s1n31qbztm3b5_fdh0000gn/T//ccWYl2xP.s 			page 1


   1              		.cpu cortex-m7
   2              		.arch armv7e-m
   3              		.fpu fpv5-d16
   4              		.eabi_attribute 28, 1
   5              		.eabi_attribute 20, 1
   6              		.eabi_attribute 21, 1
   7              		.eabi_attribute 23, 3
   8              		.eabi_attribute 24, 1
   9              		.eabi_attribute 25, 1
  10              		.eabi_attribute 26, 1
  11              		.eabi_attribute 30, 4
  12              		.eabi_attribute 34, 1
  13              		.eabi_attribute 18, 4
  14              		.file	"Interface.cpp"
  15              		.text
  16              	.Ltext0:
  17              		.cfi_sections	.debug_frame
  18              		.section	.text._ZN5daisy6SwitchD2Ev,"axG",%progbits,_ZN5daisy6SwitchD5Ev,comdat
  19              		.align	1
  20              		.weak	_ZN5daisy6SwitchD2Ev
  21              		.syntax unified
  22              		.thumb
  23              		.thumb_func
  25              	_ZN5daisy6SwitchD2Ev:
  26              	.LVL0:
  27              	.LFB1567:
  28              		.file 1 "lib/libdaisy/src/hid/switch.h"
   1:lib/libdaisy/src/hid/switch.h **** #pragma once
   2:lib/libdaisy/src/hid/switch.h **** #ifndef DSY_SWITCH_H
   3:lib/libdaisy/src/hid/switch.h **** #define DSY_SWITCH_H
   4:lib/libdaisy/src/hid/switch.h **** #include "daisy_core.h"
   5:lib/libdaisy/src/hid/switch.h **** #include "per/gpio.h"
   6:lib/libdaisy/src/hid/switch.h **** #include "sys/system.h"
   7:lib/libdaisy/src/hid/switch.h **** 
   8:lib/libdaisy/src/hid/switch.h **** namespace daisy
   9:lib/libdaisy/src/hid/switch.h **** {
  10:lib/libdaisy/src/hid/switch.h **** /** 
  11:lib/libdaisy/src/hid/switch.h ****     Generic Class for handling momentary/latching switches \n 
  12:lib/libdaisy/src/hid/switch.h ****     Inspired/influenced by Mutable Instruments (pichenettes) Switch classes
  13:lib/libdaisy/src/hid/switch.h ****     @author Stephen Hensley
  14:lib/libdaisy/src/hid/switch.h ****     @date December 2019
  15:lib/libdaisy/src/hid/switch.h ****     @ingroup controls
  16:lib/libdaisy/src/hid/switch.h **** */
  17:lib/libdaisy/src/hid/switch.h **** class Switch
  18:lib/libdaisy/src/hid/switch.h **** {
  19:lib/libdaisy/src/hid/switch.h ****   public:
  20:lib/libdaisy/src/hid/switch.h ****     /** Specifies the expected behavior of the switch */
  21:lib/libdaisy/src/hid/switch.h ****     enum Type
  22:lib/libdaisy/src/hid/switch.h ****     {
  23:lib/libdaisy/src/hid/switch.h ****         TYPE_TOGGLE,    /**< & */
  24:lib/libdaisy/src/hid/switch.h ****         TYPE_MOMENTARY, /**< & */
  25:lib/libdaisy/src/hid/switch.h ****     };
  26:lib/libdaisy/src/hid/switch.h ****     /** Specifies whether the pressed is HIGH or LOW. */
  27:lib/libdaisy/src/hid/switch.h ****     enum Polarity
  28:lib/libdaisy/src/hid/switch.h ****     {
  29:lib/libdaisy/src/hid/switch.h ****         POLARITY_NORMAL,   /**< & */
  30:lib/libdaisy/src/hid/switch.h ****         POLARITY_INVERTED, /**< & */
ARM GAS  /var/folders/9s/8rp0_f2s1n31qbztm3b5_fdh0000gn/T//ccWYl2xP.s 			page 2


  31:lib/libdaisy/src/hid/switch.h ****     };
  32:lib/libdaisy/src/hid/switch.h **** 
  33:lib/libdaisy/src/hid/switch.h ****     /** Specifies whether to use built-in Pull Up/Down resistors to hold button at a given state wh
  34:lib/libdaisy/src/hid/switch.h ****     enum Pull
  35:lib/libdaisy/src/hid/switch.h ****     {
  36:lib/libdaisy/src/hid/switch.h ****         PULL_UP,   /**< & */
  37:lib/libdaisy/src/hid/switch.h ****         PULL_DOWN, /**< & */
  38:lib/libdaisy/src/hid/switch.h ****         PULL_NONE, /**< & */
  39:lib/libdaisy/src/hid/switch.h ****     };
  40:lib/libdaisy/src/hid/switch.h **** 
  41:lib/libdaisy/src/hid/switch.h ****     Switch() {}
  42:lib/libdaisy/src/hid/switch.h ****     ~Switch() {}
  29              		.loc 1 42 5 view -0
  30              		.cfi_startproc
  31              		@ args = 0, pretend = 0, frame = 0
  32              		@ frame_needed = 0, uses_anonymous_args = 0
  33              		@ link register save eliminated.
  34              		.loc 1 42 16 is_stmt 0 view .LVU1
  35 0000 7047     		bx	lr
  36              		.cfi_endproc
  37              	.LFE1567:
  39              		.weak	_ZN5daisy6SwitchD1Ev
  40              		.thumb_set _ZN5daisy6SwitchD1Ev,_ZN5daisy6SwitchD2Ev
  41              		.section	.text._ZN5daisy13AnalogControlD2Ev,"axG",%progbits,_ZN5daisy13AnalogControlD5Ev,comdat
  42              		.align	1
  43              		.weak	_ZN5daisy13AnalogControlD2Ev
  44              		.syntax unified
  45              		.thumb
  46              		.thumb_func
  48              	_ZN5daisy13AnalogControlD2Ev:
  49              	.LVL1:
  50              	.LFB1599:
  51              		.file 2 "lib/libdaisy/src/hid/ctrl.h"
   1:lib/libdaisy/src/hid/ctrl.h **** #pragma once
   2:lib/libdaisy/src/hid/ctrl.h **** #ifndef DSY_KNOB_H
   3:lib/libdaisy/src/hid/ctrl.h **** #define DSY_KNOB_H /**< & */
   4:lib/libdaisy/src/hid/ctrl.h **** #include <stdint.h>
   5:lib/libdaisy/src/hid/ctrl.h **** 
   6:lib/libdaisy/src/hid/ctrl.h **** #ifdef __cplusplus
   7:lib/libdaisy/src/hid/ctrl.h **** namespace daisy
   8:lib/libdaisy/src/hid/ctrl.h **** {
   9:lib/libdaisy/src/hid/ctrl.h **** /**
  10:lib/libdaisy/src/hid/ctrl.h ****     @brief Hardware Interface for control inputs \n 
  11:lib/libdaisy/src/hid/ctrl.h ****     Primarily designed for ADC input controls such as \n 
  12:lib/libdaisy/src/hid/ctrl.h ****     potentiometers, and control voltage. \n 
  13:lib/libdaisy/src/hid/ctrl.h ****     @author Stephen Hensley
  14:lib/libdaisy/src/hid/ctrl.h ****     @date November 2019
  15:lib/libdaisy/src/hid/ctrl.h ****     @ingroup controls
  16:lib/libdaisy/src/hid/ctrl.h **** */
  17:lib/libdaisy/src/hid/ctrl.h **** class AnalogControl
  18:lib/libdaisy/src/hid/ctrl.h **** {
  19:lib/libdaisy/src/hid/ctrl.h ****   public:
  20:lib/libdaisy/src/hid/ctrl.h ****     /** Constructor */
  21:lib/libdaisy/src/hid/ctrl.h ****     AnalogControl() {}
  22:lib/libdaisy/src/hid/ctrl.h ****     /** destructor */
  23:lib/libdaisy/src/hid/ctrl.h ****     ~AnalogControl() {}
  52              		.loc 2 23 5 is_stmt 1 view -0
ARM GAS  /var/folders/9s/8rp0_f2s1n31qbztm3b5_fdh0000gn/T//ccWYl2xP.s 			page 3


  53              		.cfi_startproc
  54              		@ args = 0, pretend = 0, frame = 0
  55              		@ frame_needed = 0, uses_anonymous_args = 0
  56              		@ link register save eliminated.
  57              		.loc 2 23 23 is_stmt 0 view .LVU3
  58 0000 7047     		bx	lr
  59              		.cfi_endproc
  60              	.LFE1599:
  62              		.weak	_ZN5daisy13AnalogControlD1Ev
  63              		.thumb_set _ZN5daisy13AnalogControlD1Ev,_ZN5daisy13AnalogControlD2Ev
  64              		.section	.text._ZN5daisy9DaisySeedD2Ev,"axG",%progbits,_ZN5daisy9DaisySeedD5Ev,comdat
  65              		.align	1
  66              		.weak	_ZN5daisy9DaisySeedD2Ev
  67              		.syntax unified
  68              		.thumb
  69              		.thumb_func
  71              	_ZN5daisy9DaisySeedD2Ev:
  72              	.LVL2:
  73              	.LFB2146:
  74              		.file 3 "lib/libdaisy/src/daisy_seed.h"
   1:lib/libdaisy/src/daisy_seed.h **** #pragma once
   2:lib/libdaisy/src/daisy_seed.h **** #ifndef DSY_SEED_H
   3:lib/libdaisy/src/daisy_seed.h **** #define DSY_SEED_H
   4:lib/libdaisy/src/daisy_seed.h **** 
   5:lib/libdaisy/src/daisy_seed.h **** #include "daisy.h"
   6:lib/libdaisy/src/daisy_seed.h **** 
   7:lib/libdaisy/src/daisy_seed.h **** //Uncomment this out if you're still using the rev2 hardware
   8:lib/libdaisy/src/daisy_seed.h **** //#define SEED_REV2
   9:lib/libdaisy/src/daisy_seed.h **** 
  10:lib/libdaisy/src/daisy_seed.h **** namespace daisy
  11:lib/libdaisy/src/daisy_seed.h **** {
  12:lib/libdaisy/src/daisy_seed.h **** /**
  13:lib/libdaisy/src/daisy_seed.h ****    @brief This is the higher-level interface for the Daisy board. \n 
  14:lib/libdaisy/src/daisy_seed.h ****     All basic peripheral configuration/initialization is setup here. \n
  15:lib/libdaisy/src/daisy_seed.h **** 
  16:lib/libdaisy/src/daisy_seed.h ****    @ingroup boards
  17:lib/libdaisy/src/daisy_seed.h **** */
  18:lib/libdaisy/src/daisy_seed.h **** class DaisySeed
  19:lib/libdaisy/src/daisy_seed.h **** {
  20:lib/libdaisy/src/daisy_seed.h ****   public:
  21:lib/libdaisy/src/daisy_seed.h ****     DaisySeed() {}
  22:lib/libdaisy/src/daisy_seed.h ****     ~DaisySeed() {}
  75              		.loc 3 22 5 is_stmt 1 view -0
  76              		.cfi_startproc
  77              		@ args = 0, pretend = 0, frame = 0
  78              		@ frame_needed = 0, uses_anonymous_args = 0
  79              		@ link register save eliminated.
  80              	.LBB372:
  81              	.LBI372:
  82              		.file 4 "lib/libdaisy/src/sys/system.h"
   1:lib/libdaisy/src/sys/system.h **** #ifndef DSY_SYSTEM_H
   2:lib/libdaisy/src/sys/system.h **** #define DSY_SYSTEM_H
   3:lib/libdaisy/src/sys/system.h **** 
   4:lib/libdaisy/src/sys/system.h **** #ifndef UNIT_TEST // for unit tests, a dummy implementation is provided below
   5:lib/libdaisy/src/sys/system.h **** 
   6:lib/libdaisy/src/sys/system.h **** #include <cstdint>
   7:lib/libdaisy/src/sys/system.h **** #include "per/tim.h"
ARM GAS  /var/folders/9s/8rp0_f2s1n31qbztm3b5_fdh0000gn/T//ccWYl2xP.s 			page 4


   8:lib/libdaisy/src/sys/system.h **** 
   9:lib/libdaisy/src/sys/system.h **** namespace daisy
  10:lib/libdaisy/src/sys/system.h **** {
  11:lib/libdaisy/src/sys/system.h **** /** A handle for interacting with the Core System. 
  12:lib/libdaisy/src/sys/system.h ****  ** This includes the Clock tree, MPU, global DMA initialization,
  13:lib/libdaisy/src/sys/system.h ****  ** cache handling, and any other necessary global initiailzation
  14:lib/libdaisy/src/sys/system.h ****  **
  15:lib/libdaisy/src/sys/system.h ****  ** @author shensley
  16:lib/libdaisy/src/sys/system.h ****  ** @addtogroup system
  17:lib/libdaisy/src/sys/system.h ****  */
  18:lib/libdaisy/src/sys/system.h **** class System
  19:lib/libdaisy/src/sys/system.h **** {
  20:lib/libdaisy/src/sys/system.h ****   public:
  21:lib/libdaisy/src/sys/system.h ****     /** Contains settings for initializing the System */
  22:lib/libdaisy/src/sys/system.h ****     struct Config
  23:lib/libdaisy/src/sys/system.h ****     {
  24:lib/libdaisy/src/sys/system.h ****         /** Specifies the system clock frequency that feeds APB/AHB clocks, etc. */
  25:lib/libdaisy/src/sys/system.h ****         enum class SysClkFreq
  26:lib/libdaisy/src/sys/system.h ****         {
  27:lib/libdaisy/src/sys/system.h ****             FREQ_400MHZ,
  28:lib/libdaisy/src/sys/system.h ****             FREQ_480MHZ,
  29:lib/libdaisy/src/sys/system.h ****         };
  30:lib/libdaisy/src/sys/system.h **** 
  31:lib/libdaisy/src/sys/system.h ****         /** Method to call on the struct to set to defaults
  32:lib/libdaisy/src/sys/system.h ****          ** CPU Freq set to 400MHz
  33:lib/libdaisy/src/sys/system.h ****          ** Cache Enabled 
  34:lib/libdaisy/src/sys/system.h ****          ** */
  35:lib/libdaisy/src/sys/system.h ****         void Defaults()
  36:lib/libdaisy/src/sys/system.h ****         {
  37:lib/libdaisy/src/sys/system.h ****             cpu_freq    = SysClkFreq::FREQ_400MHZ;
  38:lib/libdaisy/src/sys/system.h ****             use_dcache  = true;
  39:lib/libdaisy/src/sys/system.h ****             use_icache  = true;
  40:lib/libdaisy/src/sys/system.h ****             skip_clocks = false;
  41:lib/libdaisy/src/sys/system.h ****         }
  42:lib/libdaisy/src/sys/system.h **** 
  43:lib/libdaisy/src/sys/system.h ****         /** Method to call on the struct to set to boost mode:
  44:lib/libdaisy/src/sys/system.h ****          ** CPU Freq set to 480MHz
  45:lib/libdaisy/src/sys/system.h ****          ** Cache Enabled 
  46:lib/libdaisy/src/sys/system.h ****          ** */
  47:lib/libdaisy/src/sys/system.h ****         void Boost()
  48:lib/libdaisy/src/sys/system.h ****         {
  49:lib/libdaisy/src/sys/system.h ****             cpu_freq    = SysClkFreq::FREQ_480MHZ;
  50:lib/libdaisy/src/sys/system.h ****             use_dcache  = true;
  51:lib/libdaisy/src/sys/system.h ****             use_icache  = true;
  52:lib/libdaisy/src/sys/system.h ****             skip_clocks = false;
  53:lib/libdaisy/src/sys/system.h ****         }
  54:lib/libdaisy/src/sys/system.h **** 
  55:lib/libdaisy/src/sys/system.h ****         SysClkFreq cpu_freq;
  56:lib/libdaisy/src/sys/system.h ****         bool       use_dcache;
  57:lib/libdaisy/src/sys/system.h ****         bool       use_icache;
  58:lib/libdaisy/src/sys/system.h ****         bool       skip_clocks;
  59:lib/libdaisy/src/sys/system.h ****     };
  60:lib/libdaisy/src/sys/system.h **** 
  61:lib/libdaisy/src/sys/system.h ****     /** Describes the different regions of memory available to the Daisy
  62:lib/libdaisy/src/sys/system.h ****      * 
  63:lib/libdaisy/src/sys/system.h ****      */
  64:lib/libdaisy/src/sys/system.h ****     enum MemoryRegion
ARM GAS  /var/folders/9s/8rp0_f2s1n31qbztm3b5_fdh0000gn/T//ccWYl2xP.s 			page 5


  65:lib/libdaisy/src/sys/system.h ****     {
  66:lib/libdaisy/src/sys/system.h ****         INTERNAL_FLASH = 0,
  67:lib/libdaisy/src/sys/system.h ****         ITCMRAM,
  68:lib/libdaisy/src/sys/system.h ****         DTCMRAM,
  69:lib/libdaisy/src/sys/system.h ****         SRAM_D1,
  70:lib/libdaisy/src/sys/system.h ****         SRAM_D2,
  71:lib/libdaisy/src/sys/system.h ****         SRAM_D3,
  72:lib/libdaisy/src/sys/system.h ****         SDRAM,
  73:lib/libdaisy/src/sys/system.h ****         QSPI,
  74:lib/libdaisy/src/sys/system.h ****         INVALID_ADDRESS,
  75:lib/libdaisy/src/sys/system.h ****     };
  76:lib/libdaisy/src/sys/system.h **** 
  77:lib/libdaisy/src/sys/system.h ****     System() {}
  78:lib/libdaisy/src/sys/system.h ****     ~System() {}
  83              		.loc 4 78 5 view .LVU5
  84              		.loc 4 78 5 is_stmt 0 view .LVU6
  85              	.LBE372:
  86              	.LBB373:
  87              	.LBI373:
  88              		.file 5 "lib/libdaisy/src/hid/usb.h"
   1:lib/libdaisy/src/hid/usb.h **** #pragma once
   2:lib/libdaisy/src/hid/usb.h **** #ifndef DSY_HID_USB_H
   3:lib/libdaisy/src/hid/usb.h **** #define DSY_HID_USB_H
   4:lib/libdaisy/src/hid/usb.h **** #include <stdint.h>
   5:lib/libdaisy/src/hid/usb.h **** #include <stdlib.h>
   6:lib/libdaisy/src/hid/usb.h **** 
   7:lib/libdaisy/src/hid/usb.h **** namespace daisy
   8:lib/libdaisy/src/hid/usb.h **** /** @addtogroup externals
   9:lib/libdaisy/src/hid/usb.h ****     @{
  10:lib/libdaisy/src/hid/usb.h **** */
  11:lib/libdaisy/src/hid/usb.h **** 
  12:lib/libdaisy/src/hid/usb.h **** {
  13:lib/libdaisy/src/hid/usb.h **** /** 
  14:lib/libdaisy/src/hid/usb.h ****     @brief Interface for initializing and using the USB Peripherals on the daisy
  15:lib/libdaisy/src/hid/usb.h ****     @author Stephen Hensley
  16:lib/libdaisy/src/hid/usb.h ****     @date December 2019
  17:lib/libdaisy/src/hid/usb.h **** */
  18:lib/libdaisy/src/hid/usb.h **** class UsbHandle
  19:lib/libdaisy/src/hid/usb.h **** {
  20:lib/libdaisy/src/hid/usb.h ****   public:
  21:lib/libdaisy/src/hid/usb.h ****     /** Return values for USBHandle Functions */
  22:lib/libdaisy/src/hid/usb.h ****     enum class Result
  23:lib/libdaisy/src/hid/usb.h ****     {
  24:lib/libdaisy/src/hid/usb.h ****         OK,
  25:lib/libdaisy/src/hid/usb.h ****         ERR,
  26:lib/libdaisy/src/hid/usb.h ****     };
  27:lib/libdaisy/src/hid/usb.h **** 
  28:lib/libdaisy/src/hid/usb.h ****     /** Specified which of the two USB Peripherals to initialize. */
  29:lib/libdaisy/src/hid/usb.h ****     enum UsbPeriph
  30:lib/libdaisy/src/hid/usb.h ****     {
  31:lib/libdaisy/src/hid/usb.h ****         FS_INTERNAL, /**< Internal pin */
  32:lib/libdaisy/src/hid/usb.h ****         FS_EXTERNAL, /**< FS External D+ pin is Pin 38 (GPIO32). FS External D- pin is Pin 37 (GPIO
  33:lib/libdaisy/src/hid/usb.h ****         FS_BOTH,     /**< Both */
  34:lib/libdaisy/src/hid/usb.h ****     };
  35:lib/libdaisy/src/hid/usb.h **** 
  36:lib/libdaisy/src/hid/usb.h **** 
  37:lib/libdaisy/src/hid/usb.h ****     /** Function called upon reception of a buffer */
ARM GAS  /var/folders/9s/8rp0_f2s1n31qbztm3b5_fdh0000gn/T//ccWYl2xP.s 			page 6


  38:lib/libdaisy/src/hid/usb.h ****     typedef void (*ReceiveCallback)(uint8_t* buff, uint32_t* len);
  39:lib/libdaisy/src/hid/usb.h **** 
  40:lib/libdaisy/src/hid/usb.h ****     UsbHandle() {}
  41:lib/libdaisy/src/hid/usb.h **** 
  42:lib/libdaisy/src/hid/usb.h ****     ~UsbHandle() {}
  89              		.loc 5 42 5 is_stmt 1 view .LVU7
  90              		.loc 5 42 5 is_stmt 0 view .LVU8
  91              	.LBE373:
  92              	.LBB374:
  93              	.LBI374:
  94              		.file 6 "lib/libdaisy/src/per/adc.h"
   1:lib/libdaisy/src/per/adc.h **** #pragma once
   2:lib/libdaisy/src/per/adc.h **** #ifndef DSY_ADC_H
   3:lib/libdaisy/src/per/adc.h **** #define DSY_ADC_H /**< Macro */
   4:lib/libdaisy/src/per/adc.h **** #include <stdint.h>
   5:lib/libdaisy/src/per/adc.h **** #include <stdlib.h>
   6:lib/libdaisy/src/per/adc.h **** #include "daisy_core.h"
   7:lib/libdaisy/src/per/adc.h **** #include "per/gpio.h"
   8:lib/libdaisy/src/per/adc.h **** 
   9:lib/libdaisy/src/per/adc.h **** #define DSY_ADC_MAX_CHANNELS 16 /**< Maximum number of ADC channels */
  10:lib/libdaisy/src/per/adc.h **** 
  11:lib/libdaisy/src/per/adc.h **** namespace daisy
  12:lib/libdaisy/src/per/adc.h **** {
  13:lib/libdaisy/src/per/adc.h **** /** @addtogroup analog_digital_conversion
  14:lib/libdaisy/src/per/adc.h ****     @{
  15:lib/libdaisy/src/per/adc.h **** */
  16:lib/libdaisy/src/per/adc.h **** 
  17:lib/libdaisy/src/per/adc.h **** /* While there may not be many configuration options here,
  18:lib/libdaisy/src/per/adc.h **** using a struct like this allows us to add more configuration
  19:lib/libdaisy/src/per/adc.h **** later without breaking existing functionality.
  20:lib/libdaisy/src/per/adc.h **** */
  21:lib/libdaisy/src/per/adc.h **** 
  22:lib/libdaisy/src/per/adc.h **** /** Configuration Structure for a given channel */
  23:lib/libdaisy/src/per/adc.h **** struct AdcChannelConfig
  24:lib/libdaisy/src/per/adc.h **** {
  25:lib/libdaisy/src/per/adc.h ****     /** Which pin to use for multiplexing */
  26:lib/libdaisy/src/per/adc.h ****     enum MuxPin
  27:lib/libdaisy/src/per/adc.h ****     {
  28:lib/libdaisy/src/per/adc.h ****         MUX_SEL_0,    /**< & */
  29:lib/libdaisy/src/per/adc.h ****         MUX_SEL_1,    /**< & */
  30:lib/libdaisy/src/per/adc.h ****         MUX_SEL_2,    /**< & */
  31:lib/libdaisy/src/per/adc.h ****         MUX_SEL_LAST, /**< & */
  32:lib/libdaisy/src/per/adc.h ****     };
  33:lib/libdaisy/src/per/adc.h **** 
  34:lib/libdaisy/src/per/adc.h ****     /** Initializes a single ADC pin as an ADC. 
  35:lib/libdaisy/src/per/adc.h ****     \param pin Pin to init.
  36:lib/libdaisy/src/per/adc.h ****      */
  37:lib/libdaisy/src/per/adc.h ****     void InitSingle(dsy_gpio_pin pin);
  38:lib/libdaisy/src/per/adc.h **** 
  39:lib/libdaisy/src/per/adc.h ****     /** 
  40:lib/libdaisy/src/per/adc.h ****     Initializes a single ADC pin as a Multiplexed ADC.
  41:lib/libdaisy/src/per/adc.h ****     Requires a CD405X Multiplexer connected to the pin.
  42:lib/libdaisy/src/per/adc.h ****     You only need to supply the mux pins that are required,
  43:lib/libdaisy/src/per/adc.h ****     e.g. a 4052 mux would only require mux_0 and mux_1.
  44:lib/libdaisy/src/per/adc.h ****     Internal Callbacks handle the pin addressing.
  45:lib/libdaisy/src/per/adc.h ****     \param mux_channels must be 1-8
  46:lib/libdaisy/src/per/adc.h ****     \param mux_0 First mux pin
ARM GAS  /var/folders/9s/8rp0_f2s1n31qbztm3b5_fdh0000gn/T//ccWYl2xP.s 			page 7


  47:lib/libdaisy/src/per/adc.h ****     \param mux_1 Second mux pin
  48:lib/libdaisy/src/per/adc.h ****     \param mux_2 Third mux pin
  49:lib/libdaisy/src/per/adc.h ****     \param adc_pin &
  50:lib/libdaisy/src/per/adc.h ****     */
  51:lib/libdaisy/src/per/adc.h ****     void InitMux(dsy_gpio_pin adc_pin,
  52:lib/libdaisy/src/per/adc.h ****                  size_t       mux_channels,
  53:lib/libdaisy/src/per/adc.h ****                  dsy_gpio_pin mux_0,
  54:lib/libdaisy/src/per/adc.h ****                  dsy_gpio_pin mux_1 = {DSY_GPIOX, 0},
  55:lib/libdaisy/src/per/adc.h ****                  dsy_gpio_pin mux_2 = {DSY_GPIOX, 0});
  56:lib/libdaisy/src/per/adc.h **** 
  57:lib/libdaisy/src/per/adc.h ****     dsy_gpio pin_;                   /**< & */
  58:lib/libdaisy/src/per/adc.h ****     dsy_gpio mux_pin_[MUX_SEL_LAST]; /**< & */
  59:lib/libdaisy/src/per/adc.h ****     uint8_t  mux_channels_;          /**< & */
  60:lib/libdaisy/src/per/adc.h **** };
  61:lib/libdaisy/src/per/adc.h **** 
  62:lib/libdaisy/src/per/adc.h **** /**
  63:lib/libdaisy/src/per/adc.h ****    Handler for analog to digital conversion
  64:lib/libdaisy/src/per/adc.h **** */
  65:lib/libdaisy/src/per/adc.h **** class AdcHandle
  66:lib/libdaisy/src/per/adc.h **** {
  67:lib/libdaisy/src/per/adc.h ****   public:
  68:lib/libdaisy/src/per/adc.h ****     /** Supported oversampling amounts */
  69:lib/libdaisy/src/per/adc.h ****     enum OverSampling
  70:lib/libdaisy/src/per/adc.h ****     {
  71:lib/libdaisy/src/per/adc.h ****         OVS_NONE, /**< & */
  72:lib/libdaisy/src/per/adc.h ****         OVS_4,    /**< & */
  73:lib/libdaisy/src/per/adc.h ****         OVS_8,    /**< & */
  74:lib/libdaisy/src/per/adc.h ****         OVS_16,   /**< & */
  75:lib/libdaisy/src/per/adc.h ****         OVS_32,   /**< & */
  76:lib/libdaisy/src/per/adc.h ****         OVS_64,   /**< & */
  77:lib/libdaisy/src/per/adc.h ****         OVS_128,  /**< & */
  78:lib/libdaisy/src/per/adc.h ****         OVS_256,  /**< & */
  79:lib/libdaisy/src/per/adc.h ****         OVS_512,  /**< & */
  80:lib/libdaisy/src/per/adc.h ****         OVS_1024, /**< & */
  81:lib/libdaisy/src/per/adc.h ****         OVS_LAST, /**< & */
  82:lib/libdaisy/src/per/adc.h ****     };
  83:lib/libdaisy/src/per/adc.h **** 
  84:lib/libdaisy/src/per/adc.h ****     AdcHandle() {}
  85:lib/libdaisy/src/per/adc.h ****     ~AdcHandle() {}
  95              		.loc 6 85 5 is_stmt 1 view .LVU9
  96              		.loc 6 85 5 is_stmt 0 view .LVU10
  97              	.LBE374:
  98              	.LBB375:
  99              	.LBI375:
 100              		.file 7 "lib/libdaisy/src/hid/audio.h"
   1:lib/libdaisy/src/hid/audio.h **** #ifndef DSY_AUDIO_H
   2:lib/libdaisy/src/hid/audio.h **** #define DSY_AUDIO_H /**< & */
   3:lib/libdaisy/src/hid/audio.h **** 
   4:lib/libdaisy/src/hid/audio.h **** #include "per/sai.h"
   5:lib/libdaisy/src/hid/audio.h **** 
   6:lib/libdaisy/src/hid/audio.h **** namespace daisy
   7:lib/libdaisy/src/hid/audio.h **** {
   8:lib/libdaisy/src/hid/audio.h **** class AudioHandle
   9:lib/libdaisy/src/hid/audio.h **** {
  10:lib/libdaisy/src/hid/audio.h ****   public:
  11:lib/libdaisy/src/hid/audio.h ****     /** Manually configurable details about the Audio Engine */
  12:lib/libdaisy/src/hid/audio.h ****     /** TODO: Figure out how to get samplerate in here. */
ARM GAS  /var/folders/9s/8rp0_f2s1n31qbztm3b5_fdh0000gn/T//ccWYl2xP.s 			page 8


  13:lib/libdaisy/src/hid/audio.h ****     struct Config
  14:lib/libdaisy/src/hid/audio.h ****     {
  15:lib/libdaisy/src/hid/audio.h ****         size_t                        blocksize;
  16:lib/libdaisy/src/hid/audio.h ****         SaiHandle::Config::SampleRate samplerate;
  17:lib/libdaisy/src/hid/audio.h ****         float                         postgain;
  18:lib/libdaisy/src/hid/audio.h ****     };
  19:lib/libdaisy/src/hid/audio.h **** 
  20:lib/libdaisy/src/hid/audio.h ****     enum class Result
  21:lib/libdaisy/src/hid/audio.h ****     {
  22:lib/libdaisy/src/hid/audio.h ****         OK,
  23:lib/libdaisy/src/hid/audio.h ****         ERR,
  24:lib/libdaisy/src/hid/audio.h ****     };
  25:lib/libdaisy/src/hid/audio.h **** 
  26:lib/libdaisy/src/hid/audio.h ****     /** Non-Interleaving input buffer
  27:lib/libdaisy/src/hid/audio.h ****      * Buffer arranged by float[chn][sample] 
  28:lib/libdaisy/src/hid/audio.h ****      * const so that the user can't modify the input
  29:lib/libdaisy/src/hid/audio.h ****     */
  30:lib/libdaisy/src/hid/audio.h ****     typedef const float* const* InputBuffer;
  31:lib/libdaisy/src/hid/audio.h **** 
  32:lib/libdaisy/src/hid/audio.h ****     /** Non-Interleaving output buffer
  33:lib/libdaisy/src/hid/audio.h ****      * Arranged by float[chn][sample] 
  34:lib/libdaisy/src/hid/audio.h ****     */
  35:lib/libdaisy/src/hid/audio.h ****     typedef float** OutputBuffer;
  36:lib/libdaisy/src/hid/audio.h **** 
  37:lib/libdaisy/src/hid/audio.h ****     /** Type for a Non-Interleaving audio callback 
  38:lib/libdaisy/src/hid/audio.h ****    * Non-Interleaving audio callbacks in daisy will be of this type
  39:lib/libdaisy/src/hid/audio.h ****   */
  40:lib/libdaisy/src/hid/audio.h ****     typedef void (*AudioCallback)(InputBuffer  in,
  41:lib/libdaisy/src/hid/audio.h ****                                   OutputBuffer out,
  42:lib/libdaisy/src/hid/audio.h ****                                   size_t       size);
  43:lib/libdaisy/src/hid/audio.h **** 
  44:lib/libdaisy/src/hid/audio.h ****     /** Interleaving Input buffer
  45:lib/libdaisy/src/hid/audio.h ****      ** audio is prepared as { L0, R0, L1, R1, . . . LN, RN }]
  46:lib/libdaisy/src/hid/audio.h ****      ** this is const, as the user shouldn't modify it
  47:lib/libdaisy/src/hid/audio.h ****     */
  48:lib/libdaisy/src/hid/audio.h ****     typedef const float* InterleavingInputBuffer;
  49:lib/libdaisy/src/hid/audio.h **** 
  50:lib/libdaisy/src/hid/audio.h ****     /** Interleaving Output buffer 
  51:lib/libdaisy/src/hid/audio.h ****      ** audio is prepared as { L0, R0, L1, R1, . . . LN, RN }
  52:lib/libdaisy/src/hid/audio.h ****     */
  53:lib/libdaisy/src/hid/audio.h ****     typedef float* InterleavingOutputBuffer;
  54:lib/libdaisy/src/hid/audio.h **** 
  55:lib/libdaisy/src/hid/audio.h ****     /** Interleaving Audio Callback 
  56:lib/libdaisy/src/hid/audio.h ****    * Interleaving audio callbacks in daisy must be of this type
  57:lib/libdaisy/src/hid/audio.h ****   */
  58:lib/libdaisy/src/hid/audio.h ****     typedef void (*InterleavingAudioCallback)(InterleavingInputBuffer  in,
  59:lib/libdaisy/src/hid/audio.h ****                                               InterleavingOutputBuffer out,
  60:lib/libdaisy/src/hid/audio.h ****                                               size_t                   size);
  61:lib/libdaisy/src/hid/audio.h **** 
  62:lib/libdaisy/src/hid/audio.h ****     AudioHandle() : pimpl_(nullptr) {}
  63:lib/libdaisy/src/hid/audio.h ****     ~AudioHandle() {}
 101              		.loc 7 63 5 is_stmt 1 view .LVU11
 102              		.loc 7 63 5 is_stmt 0 view .LVU12
 103              	.LBE375:
 104              		.loc 3 22 19 view .LVU13
 105 0000 7047     		bx	lr
 106              		.cfi_endproc
ARM GAS  /var/folders/9s/8rp0_f2s1n31qbztm3b5_fdh0000gn/T//ccWYl2xP.s 			page 9


 107              	.LFE2146:
 109              		.weak	_ZN5daisy9DaisySeedD1Ev
 110              		.thumb_set _ZN5daisy9DaisySeedD1Ev,_ZN5daisy9DaisySeedD2Ev
 111              		.section	.text._ZN6Mpr121D2Ev,"axG",%progbits,_ZN6Mpr121D5Ev,comdat
 112              		.align	1
 113              		.weak	_ZN6Mpr121D2Ev
 114              		.syntax unified
 115              		.thumb
 116              		.thumb_func
 118              	_ZN6Mpr121D2Ev:
 119              	.LVL3:
 120              	.LFB4962:
 121              		.file 8 "mpr121_daisy.h"
   1:mpr121_daisy.h **** #pragma once
   2:mpr121_daisy.h **** #ifndef MPR121_DAISY_H
   3:mpr121_daisy.h **** #define MPR121_DAISY_H
   4:mpr121_daisy.h **** 
   5:mpr121_daisy.h **** #include "daisy_seed.h"
   6:mpr121_daisy.h **** #include "per/i2c.h"
   7:mpr121_daisy.h **** 
   8:mpr121_daisy.h **** using namespace daisy;
   9:mpr121_daisy.h **** 
  10:mpr121_daisy.h **** /// mp
  11:mpr121_daisy.h **** 
  12:mpr121_daisy.h **** // Register map
  13:mpr121_daisy.h **** #define MPR121_TOUCHSTATUS_L 0x00
  14:mpr121_daisy.h **** #define MPR121_TOUCHSTATUS_H 0x01
  15:mpr121_daisy.h **** #define MPR121_FILTDATA_0L 0x04
  16:mpr121_daisy.h **** #define MPR121_FILTDATA_0H 0x05
  17:mpr121_daisy.h **** #define MPR121_BASELINE_0 0x1E
  18:mpr121_daisy.h **** #define MPR121_MHDR 0x2B
  19:mpr121_daisy.h **** #define MPR121_NHDR 0x2C
  20:mpr121_daisy.h **** #define MPR121_NCLR 0x2D
  21:mpr121_daisy.h **** #define MPR121_FDLR 0x2E
  22:mpr121_daisy.h **** #define MPR121_MHDF 0x2F
  23:mpr121_daisy.h **** #define MPR121_NHDF 0x30
  24:mpr121_daisy.h **** #define MPR121_NCLF 0x31
  25:mpr121_daisy.h **** #define MPR121_FDLF 0x32
  26:mpr121_daisy.h **** #define MPR121_NHDT 0x33
  27:mpr121_daisy.h **** #define MPR121_NCLT 0x34
  28:mpr121_daisy.h **** #define MPR121_FDLT 0x35
  29:mpr121_daisy.h **** 
  30:mpr121_daisy.h **** #define MPR121_TOUCHTH_0 0x41
  31:mpr121_daisy.h **** #define MPR121_RELEASETH_0 0x42
  32:mpr121_daisy.h **** #define MPR121_DEBOUNCE 0x5B
  33:mpr121_daisy.h **** #define MPR121_CONFIG1 0x5C
  34:mpr121_daisy.h **** #define MPR121_CONFIG2 0x5D
  35:mpr121_daisy.h **** #define MPR121_CHARGECURR_0 0x5F
  36:mpr121_daisy.h **** #define MPR121_CHARGETIME_1 0x6C
  37:mpr121_daisy.h **** #define MPR121_ECR 0x5E
  38:mpr121_daisy.h **** #define MPR121_AUTOCONFIG0 0x7B
  39:mpr121_daisy.h **** #define MPR121_AUTOCONFIG1 0x7C
  40:mpr121_daisy.h **** #define MPR121_UPLIMIT 0x7D
  41:mpr121_daisy.h **** #define MPR121_LOWLIMIT 0x7E
  42:mpr121_daisy.h **** #define MPR121_TARGETLIMIT 0x7F
  43:mpr121_daisy.h **** 
  44:mpr121_daisy.h **** #define MPR121_GPIODIR 0x76
ARM GAS  /var/folders/9s/8rp0_f2s1n31qbztm3b5_fdh0000gn/T//ccWYl2xP.s 			page 10


  45:mpr121_daisy.h **** #define MPR121_GPIOEN 0x77
  46:mpr121_daisy.h **** #define MPR121_GPIOSET 0x78
  47:mpr121_daisy.h **** #define MPR121_GPIOCLR 0x79
  48:mpr121_daisy.h **** #define MPR121_GPIOTOGGLE 0x7A
  49:mpr121_daisy.h **** 
  50:mpr121_daisy.h **** #define MPR121_SOFTRESET 0x80
  51:mpr121_daisy.h **** #define MPR121_I2CADDR_DEFAULT 0x5A
  52:mpr121_daisy.h **** 
  53:mpr121_daisy.h **** class Mpr121
  54:mpr121_daisy.h **** {
  55:mpr121_daisy.h ****   public:
  56:mpr121_daisy.h ****     Mpr121() {}
  57:mpr121_daisy.h ****     ~Mpr121() {}
 122              		.loc 8 57 5 is_stmt 1 view -0
 123              		.cfi_startproc
 124              		@ args = 0, pretend = 0, frame = 0
 125              		@ frame_needed = 0, uses_anonymous_args = 0
 126              		@ link register save eliminated.
 127              		.loc 8 57 16 is_stmt 0 view .LVU15
 128 0000 7047     		bx	lr
 129              		.cfi_endproc
 130              	.LFE4962:
 132              		.weak	_ZN6Mpr121D1Ev
 133              		.thumb_set _ZN6Mpr121D1Ev,_ZN6Mpr121D2Ev
 134              		.section	.text.__tcf_0,"ax",%progbits
 135              		.align	1
 136              		.syntax unified
 137              		.thumb
 138              		.thumb_func
 140              	__tcf_0:
 141              	.LFB6150:
 142              		.file 9 "Interface.cpp"
   1:Interface.cpp **** #include "Thaumazein.h"
   2:Interface.cpp **** #include "Arpeggiator.h"
   3:Interface.cpp **** 
   4:Interface.cpp **** // --- Global hardware variables ---
   5:Interface.cpp **** DaisySeed hw;
   6:Interface.cpp **** Mpr121 touch_sensor;
   7:Interface.cpp **** EchoDelay<48000> delay;
   8:Interface.cpp **** // Arpeggiator instance
   9:Interface.cpp **** Arpeggiator arp;
  10:Interface.cpp **** // Global array for touch pad LEDs
  11:Interface.cpp **** Led touch_leds[12];
 143              		.loc 9 11 5 is_stmt 1 view -0
 144              		.cfi_startproc
 145              		@ args = 0, pretend = 0, frame = 0
 146              		@ frame_needed = 0, uses_anonymous_args = 0
 147              		@ link register save eliminated.
 148              		.loc 9 11 5 is_stmt 0 view .LVU17
 149 0000 7047     		bx	lr
 150              		.cfi_endproc
 151              	.LFE6150:
 153              		.section	.text._ZN10infrasonic9EchoDelayILj48000EED2Ev,"axG",%progbits,_ZN10infrasonic9EchoDelayIL
 154              		.align	1
 155              		.weak	_ZN10infrasonic9EchoDelayILj48000EED2Ev
 156              		.syntax unified
 157              		.thumb
ARM GAS  /var/folders/9s/8rp0_f2s1n31qbztm3b5_fdh0000gn/T//ccWYl2xP.s 			page 11


 158              		.thumb_func
 160              	_ZN10infrasonic9EchoDelayILj48000EED2Ev:
 161              	.LVL4:
 162              	.LFB6152:
 163              		.file 10 "Effects/EchoDelay.h"
   1:Effects/EchoDelay.h **** #pragma once
   2:Effects/EchoDelay.h **** #ifndef INFS_ECHODELAY_H
   3:Effects/EchoDelay.h **** #define INFS_ECHODELAY_H
   4:Effects/EchoDelay.h **** 
   5:Effects/EchoDelay.h **** #include <daisysp.h>
   6:Effects/EchoDelay.h **** #include "BiquadFilters.h"
   7:Effects/EchoDelay.h **** #include "DSPUtils.h"
   8:Effects/EchoDelay.h **** 
   9:Effects/EchoDelay.h **** namespace infrasonic {
  10:Effects/EchoDelay.h **** 
  11:Effects/EchoDelay.h **** /**
  12:Effects/EchoDelay.h ****  * @brief
  13:Effects/EchoDelay.h ****  * Tape-ish echo delay.
  14:Effects/EchoDelay.h ****  *   - Feedback is unbounded, but signal is soft-clipped
  15:Effects/EchoDelay.h ****  *   - Output is full-wet, should be mixed with dry signal externally
  16:Effects/EchoDelay.h ****  *
  17:Effects/EchoDelay.h ****  * @tparam MaxLength Max length of delay in samples
  18:Effects/EchoDelay.h ****  */
  19:Effects/EchoDelay.h **** template<size_t MaxLength>
  20:Effects/EchoDelay.h **** class EchoDelay {
  21:Effects/EchoDelay.h **** 
  22:Effects/EchoDelay.h ****     public:
  23:Effects/EchoDelay.h **** 
  24:Effects/EchoDelay.h ****         EchoDelay() {}
  25:Effects/EchoDelay.h ****         ~EchoDelay() {}
 164              		.loc 10 25 9 is_stmt 1 view -0
 165              		.cfi_startproc
 166              		@ args = 0, pretend = 0, frame = 0
 167              		@ frame_needed = 0, uses_anonymous_args = 0
 168              		@ link register save eliminated.
 169              	.LBB376:
 170              	.LBI376:
 171              		.file 11 "Effects/BiquadFilters.h"
   1:Effects/BiquadFilters.h **** #pragma once
   2:Effects/BiquadFilters.h **** #ifndef INFS_BIQUADFILTERS_H
   3:Effects/BiquadFilters.h **** #define INFS_BIQUADFILTERS_H
   4:Effects/BiquadFilters.h **** 
   5:Effects/BiquadFilters.h **** #include <cassert>
   6:Effects/BiquadFilters.h **** #include <array>
   7:Effects/BiquadFilters.h **** #include <daisysp.h>
   8:Effects/BiquadFilters.h **** 
   9:Effects/BiquadFilters.h **** namespace infrasonic {
  10:Effects/BiquadFilters.h **** 
  11:Effects/BiquadFilters.h **** /**
  12:Effects/BiquadFilters.h ****  *  Single precision 2nd order biquad filter section with support for stereo processing.
  13:Effects/BiquadFilters.h ****  *  NOTE: There are templated filter definitions at the bottom of this file for convenience. 
  14:Effects/BiquadFilters.h ****  */
  15:Effects/BiquadFilters.h **** class BiquadSection {
  16:Effects/BiquadFilters.h **** 
  17:Effects/BiquadFilters.h ****     public:
  18:Effects/BiquadFilters.h **** 
  19:Effects/BiquadFilters.h ****         enum class FilterType {
ARM GAS  /var/folders/9s/8rp0_f2s1n31qbztm3b5_fdh0000gn/T//ccWYl2xP.s 			page 12


  20:Effects/BiquadFilters.h ****             LowPass,
  21:Effects/BiquadFilters.h ****             HighPass,
  22:Effects/BiquadFilters.h ****             BandPass
  23:Effects/BiquadFilters.h ****         };
  24:Effects/BiquadFilters.h **** 
  25:Effects/BiquadFilters.h ****         // Assumes normalized coefficients (a0 == 1)
  26:Effects/BiquadFilters.h ****         // Ordering numerator then denominator: {b0, b1, b2, a1, a2}
  27:Effects/BiquadFilters.h ****         using Coefficients = std::array<float, 5>;
  28:Effects/BiquadFilters.h **** 
  29:Effects/BiquadFilters.h ****         static const Coefficients CalculateCoefficients(const FilterType type, 
  30:Effects/BiquadFilters.h ****                                                         const float sample_rate,
  31:Effects/BiquadFilters.h ****                                                         const float cutoff_hz,
  32:Effects/BiquadFilters.h ****                                                         const float q);
  33:Effects/BiquadFilters.h **** 
  34:Effects/BiquadFilters.h ****         BiquadSection() {}
  35:Effects/BiquadFilters.h ****         ~BiquadSection() {}
  36:Effects/BiquadFilters.h **** 
  37:Effects/BiquadFilters.h ****         void SetCoefficients(const Coefficients coefficients) { coefs_ = coefficients; }
  38:Effects/BiquadFilters.h **** 
  39:Effects/BiquadFilters.h ****         inline float Process(const float in, const int channel)
  40:Effects/BiquadFilters.h ****         {
  41:Effects/BiquadFilters.h ****             assert(channel < 2);
  42:Effects/BiquadFilters.h **** 
  43:Effects/BiquadFilters.h ****             // TODO: arm accelerated version
  44:Effects/BiquadFilters.h **** 
  45:Effects/BiquadFilters.h ****             const float &b0 = coefs_[0];
  46:Effects/BiquadFilters.h ****             const float &b1 = coefs_[1];
  47:Effects/BiquadFilters.h ****             const float &b2 = coefs_[2];
  48:Effects/BiquadFilters.h ****             const float &a1 = coefs_[3];
  49:Effects/BiquadFilters.h ****             const float &a2 = coefs_[4];
  50:Effects/BiquadFilters.h **** 
  51:Effects/BiquadFilters.h ****             // Transposed direct form 2
  52:Effects/BiquadFilters.h ****             float y = b0 * in + s1_[channel];
  53:Effects/BiquadFilters.h ****             s1_[channel] = s2_[channel] + in * b1 - a1 * y;
  54:Effects/BiquadFilters.h ****             s2_[channel] = b2 * in - a2 * y;
  55:Effects/BiquadFilters.h ****             return y;
  56:Effects/BiquadFilters.h ****         }
  57:Effects/BiquadFilters.h **** 
  58:Effects/BiquadFilters.h ****     private:
  59:Effects/BiquadFilters.h ****         // coef
  60:Effects/BiquadFilters.h ****         Coefficients coefs_{0, 0, 0, 0, 0};
  61:Effects/BiquadFilters.h **** 
  62:Effects/BiquadFilters.h ****         // state
  63:Effects/BiquadFilters.h ****         float s1_[2] = {0, 0};
  64:Effects/BiquadFilters.h ****         float s2_[2] = {0, 0};
  65:Effects/BiquadFilters.h **** 
  66:Effects/BiquadFilters.h **** };
  67:Effects/BiquadFilters.h **** 
  68:Effects/BiquadFilters.h **** /// Templated cascaded biquad filter. Filter Order = 2 * NumSections.
  69:Effects/BiquadFilters.h **** /// NOTE: Only supports even-ordered filters.
  70:Effects/BiquadFilters.h **** template<size_t NumSections, BiquadSection::FilterType FilterType>
  71:Effects/BiquadFilters.h **** class BiquadCascade {
  72:Effects/BiquadFilters.h **** 
  73:Effects/BiquadFilters.h ****     static_assert(NumSections > 0, "Must have at least one section");
  74:Effects/BiquadFilters.h **** 
  75:Effects/BiquadFilters.h ****     public:
  76:Effects/BiquadFilters.h ****         BiquadCascade() {}
ARM GAS  /var/folders/9s/8rp0_f2s1n31qbztm3b5_fdh0000gn/T//ccWYl2xP.s 			page 13


  77:Effects/BiquadFilters.h ****         ~BiquadCascade() {}
 172              		.loc 11 77 9 view .LVU19
 173              	.LBB377:
 174              	.LBI377:
 175              		.file 12 "/Library/DaisyToolchain/0.2.0/arm/arm-none-eabi/include/c++/10.3.1/array"
   1:/Library/DaisyToolchain/0.2.0/arm/arm-none-eabi/include/c++/10.3.1/array **** // <array> -*- C++ -*-
   2:/Library/DaisyToolchain/0.2.0/arm/arm-none-eabi/include/c++/10.3.1/array **** 
   3:/Library/DaisyToolchain/0.2.0/arm/arm-none-eabi/include/c++/10.3.1/array **** // Copyright (C) 2007-2020 Free Software Foundation, Inc.
   4:/Library/DaisyToolchain/0.2.0/arm/arm-none-eabi/include/c++/10.3.1/array **** //
   5:/Library/DaisyToolchain/0.2.0/arm/arm-none-eabi/include/c++/10.3.1/array **** // This file is part of the GNU ISO C++ Library.  This library is free
   6:/Library/DaisyToolchain/0.2.0/arm/arm-none-eabi/include/c++/10.3.1/array **** // software; you can redistribute it and/or modify it under the
   7:/Library/DaisyToolchain/0.2.0/arm/arm-none-eabi/include/c++/10.3.1/array **** // terms of the GNU General Public License as published by the
   8:/Library/DaisyToolchain/0.2.0/arm/arm-none-eabi/include/c++/10.3.1/array **** // Free Software Foundation; either version 3, or (at your option)
   9:/Library/DaisyToolchain/0.2.0/arm/arm-none-eabi/include/c++/10.3.1/array **** // any later version.
  10:/Library/DaisyToolchain/0.2.0/arm/arm-none-eabi/include/c++/10.3.1/array **** 
  11:/Library/DaisyToolchain/0.2.0/arm/arm-none-eabi/include/c++/10.3.1/array **** // This library is distributed in the hope that it will be useful,
  12:/Library/DaisyToolchain/0.2.0/arm/arm-none-eabi/include/c++/10.3.1/array **** // but WITHOUT ANY WARRANTY; without even the implied warranty of
  13:/Library/DaisyToolchain/0.2.0/arm/arm-none-eabi/include/c++/10.3.1/array **** // MERCHANTABILITY or FITNESS FOR A PARTICULAR PURPOSE.  See the
  14:/Library/DaisyToolchain/0.2.0/arm/arm-none-eabi/include/c++/10.3.1/array **** // GNU General Public License for more details.
  15:/Library/DaisyToolchain/0.2.0/arm/arm-none-eabi/include/c++/10.3.1/array **** 
  16:/Library/DaisyToolchain/0.2.0/arm/arm-none-eabi/include/c++/10.3.1/array **** // Under Section 7 of GPL version 3, you are granted additional
  17:/Library/DaisyToolchain/0.2.0/arm/arm-none-eabi/include/c++/10.3.1/array **** // permissions described in the GCC Runtime Library Exception, version
  18:/Library/DaisyToolchain/0.2.0/arm/arm-none-eabi/include/c++/10.3.1/array **** // 3.1, as published by the Free Software Foundation.
  19:/Library/DaisyToolchain/0.2.0/arm/arm-none-eabi/include/c++/10.3.1/array **** 
  20:/Library/DaisyToolchain/0.2.0/arm/arm-none-eabi/include/c++/10.3.1/array **** // You should have received a copy of the GNU General Public License and
  21:/Library/DaisyToolchain/0.2.0/arm/arm-none-eabi/include/c++/10.3.1/array **** // a copy of the GCC Runtime Library Exception along with this program;
  22:/Library/DaisyToolchain/0.2.0/arm/arm-none-eabi/include/c++/10.3.1/array **** // see the files COPYING3 and COPYING.RUNTIME respectively.  If not, see
  23:/Library/DaisyToolchain/0.2.0/arm/arm-none-eabi/include/c++/10.3.1/array **** // <http://www.gnu.org/licenses/>.
  24:/Library/DaisyToolchain/0.2.0/arm/arm-none-eabi/include/c++/10.3.1/array **** 
  25:/Library/DaisyToolchain/0.2.0/arm/arm-none-eabi/include/c++/10.3.1/array **** /** @file include/array
  26:/Library/DaisyToolchain/0.2.0/arm/arm-none-eabi/include/c++/10.3.1/array ****  *  This is a Standard C++ Library header.
  27:/Library/DaisyToolchain/0.2.0/arm/arm-none-eabi/include/c++/10.3.1/array ****  */
  28:/Library/DaisyToolchain/0.2.0/arm/arm-none-eabi/include/c++/10.3.1/array **** 
  29:/Library/DaisyToolchain/0.2.0/arm/arm-none-eabi/include/c++/10.3.1/array **** #ifndef _GLIBCXX_ARRAY
  30:/Library/DaisyToolchain/0.2.0/arm/arm-none-eabi/include/c++/10.3.1/array **** #define _GLIBCXX_ARRAY 1
  31:/Library/DaisyToolchain/0.2.0/arm/arm-none-eabi/include/c++/10.3.1/array **** 
  32:/Library/DaisyToolchain/0.2.0/arm/arm-none-eabi/include/c++/10.3.1/array **** #pragma GCC system_header
  33:/Library/DaisyToolchain/0.2.0/arm/arm-none-eabi/include/c++/10.3.1/array **** 
  34:/Library/DaisyToolchain/0.2.0/arm/arm-none-eabi/include/c++/10.3.1/array **** #if __cplusplus < 201103L
  35:/Library/DaisyToolchain/0.2.0/arm/arm-none-eabi/include/c++/10.3.1/array **** # include <bits/c++0x_warning.h>
  36:/Library/DaisyToolchain/0.2.0/arm/arm-none-eabi/include/c++/10.3.1/array **** #else
  37:/Library/DaisyToolchain/0.2.0/arm/arm-none-eabi/include/c++/10.3.1/array **** 
  38:/Library/DaisyToolchain/0.2.0/arm/arm-none-eabi/include/c++/10.3.1/array **** #include <utility>
  39:/Library/DaisyToolchain/0.2.0/arm/arm-none-eabi/include/c++/10.3.1/array **** #include <bits/functexcept.h>
  40:/Library/DaisyToolchain/0.2.0/arm/arm-none-eabi/include/c++/10.3.1/array **** #include <bits/stl_algobase.h>
  41:/Library/DaisyToolchain/0.2.0/arm/arm-none-eabi/include/c++/10.3.1/array **** #include <bits/range_access.h>
  42:/Library/DaisyToolchain/0.2.0/arm/arm-none-eabi/include/c++/10.3.1/array **** 
  43:/Library/DaisyToolchain/0.2.0/arm/arm-none-eabi/include/c++/10.3.1/array **** namespace std _GLIBCXX_VISIBILITY(default)
  44:/Library/DaisyToolchain/0.2.0/arm/arm-none-eabi/include/c++/10.3.1/array **** {
  45:/Library/DaisyToolchain/0.2.0/arm/arm-none-eabi/include/c++/10.3.1/array **** _GLIBCXX_BEGIN_NAMESPACE_CONTAINER
  46:/Library/DaisyToolchain/0.2.0/arm/arm-none-eabi/include/c++/10.3.1/array **** 
  47:/Library/DaisyToolchain/0.2.0/arm/arm-none-eabi/include/c++/10.3.1/array ****   template<typename _Tp, std::size_t _Nm>
  48:/Library/DaisyToolchain/0.2.0/arm/arm-none-eabi/include/c++/10.3.1/array ****     struct __array_traits
  49:/Library/DaisyToolchain/0.2.0/arm/arm-none-eabi/include/c++/10.3.1/array ****     {
  50:/Library/DaisyToolchain/0.2.0/arm/arm-none-eabi/include/c++/10.3.1/array ****       typedef _Tp _Type[_Nm];
  51:/Library/DaisyToolchain/0.2.0/arm/arm-none-eabi/include/c++/10.3.1/array ****       typedef __is_swappable<_Tp> _Is_swappable;
  52:/Library/DaisyToolchain/0.2.0/arm/arm-none-eabi/include/c++/10.3.1/array ****       typedef __is_nothrow_swappable<_Tp> _Is_nothrow_swappable;
ARM GAS  /var/folders/9s/8rp0_f2s1n31qbztm3b5_fdh0000gn/T//ccWYl2xP.s 			page 14


  53:/Library/DaisyToolchain/0.2.0/arm/arm-none-eabi/include/c++/10.3.1/array **** 
  54:/Library/DaisyToolchain/0.2.0/arm/arm-none-eabi/include/c++/10.3.1/array ****       static constexpr _Tp&
  55:/Library/DaisyToolchain/0.2.0/arm/arm-none-eabi/include/c++/10.3.1/array ****       _S_ref(const _Type& __t, std::size_t __n) noexcept
  56:/Library/DaisyToolchain/0.2.0/arm/arm-none-eabi/include/c++/10.3.1/array ****       { return const_cast<_Tp&>(__t[__n]); }
  57:/Library/DaisyToolchain/0.2.0/arm/arm-none-eabi/include/c++/10.3.1/array **** 
  58:/Library/DaisyToolchain/0.2.0/arm/arm-none-eabi/include/c++/10.3.1/array ****       static constexpr _Tp*
  59:/Library/DaisyToolchain/0.2.0/arm/arm-none-eabi/include/c++/10.3.1/array ****       _S_ptr(const _Type& __t) noexcept
  60:/Library/DaisyToolchain/0.2.0/arm/arm-none-eabi/include/c++/10.3.1/array ****       { return const_cast<_Tp*>(__t); }
  61:/Library/DaisyToolchain/0.2.0/arm/arm-none-eabi/include/c++/10.3.1/array ****     };
  62:/Library/DaisyToolchain/0.2.0/arm/arm-none-eabi/include/c++/10.3.1/array **** 
  63:/Library/DaisyToolchain/0.2.0/arm/arm-none-eabi/include/c++/10.3.1/array ****  template<typename _Tp>
  64:/Library/DaisyToolchain/0.2.0/arm/arm-none-eabi/include/c++/10.3.1/array ****    struct __array_traits<_Tp, 0>
  65:/Library/DaisyToolchain/0.2.0/arm/arm-none-eabi/include/c++/10.3.1/array ****    {
  66:/Library/DaisyToolchain/0.2.0/arm/arm-none-eabi/include/c++/10.3.1/array ****      struct _Type { };
  67:/Library/DaisyToolchain/0.2.0/arm/arm-none-eabi/include/c++/10.3.1/array ****      typedef true_type _Is_swappable;
  68:/Library/DaisyToolchain/0.2.0/arm/arm-none-eabi/include/c++/10.3.1/array ****      typedef true_type _Is_nothrow_swappable;
  69:/Library/DaisyToolchain/0.2.0/arm/arm-none-eabi/include/c++/10.3.1/array **** 
  70:/Library/DaisyToolchain/0.2.0/arm/arm-none-eabi/include/c++/10.3.1/array ****      static constexpr _Tp&
  71:/Library/DaisyToolchain/0.2.0/arm/arm-none-eabi/include/c++/10.3.1/array ****      _S_ref(const _Type&, std::size_t) noexcept
  72:/Library/DaisyToolchain/0.2.0/arm/arm-none-eabi/include/c++/10.3.1/array ****      { return *static_cast<_Tp*>(nullptr); }
  73:/Library/DaisyToolchain/0.2.0/arm/arm-none-eabi/include/c++/10.3.1/array **** 
  74:/Library/DaisyToolchain/0.2.0/arm/arm-none-eabi/include/c++/10.3.1/array ****      static constexpr _Tp*
  75:/Library/DaisyToolchain/0.2.0/arm/arm-none-eabi/include/c++/10.3.1/array ****      _S_ptr(const _Type&) noexcept
  76:/Library/DaisyToolchain/0.2.0/arm/arm-none-eabi/include/c++/10.3.1/array ****      { return nullptr; }
  77:/Library/DaisyToolchain/0.2.0/arm/arm-none-eabi/include/c++/10.3.1/array ****    };
  78:/Library/DaisyToolchain/0.2.0/arm/arm-none-eabi/include/c++/10.3.1/array **** 
  79:/Library/DaisyToolchain/0.2.0/arm/arm-none-eabi/include/c++/10.3.1/array ****   /**
  80:/Library/DaisyToolchain/0.2.0/arm/arm-none-eabi/include/c++/10.3.1/array ****    *  @brief A standard container for storing a fixed size sequence of elements.
  81:/Library/DaisyToolchain/0.2.0/arm/arm-none-eabi/include/c++/10.3.1/array ****    *
  82:/Library/DaisyToolchain/0.2.0/arm/arm-none-eabi/include/c++/10.3.1/array ****    *  @ingroup sequences
  83:/Library/DaisyToolchain/0.2.0/arm/arm-none-eabi/include/c++/10.3.1/array ****    *
  84:/Library/DaisyToolchain/0.2.0/arm/arm-none-eabi/include/c++/10.3.1/array ****    *  Meets the requirements of a <a href="tables.html#65">container</a>, a
  85:/Library/DaisyToolchain/0.2.0/arm/arm-none-eabi/include/c++/10.3.1/array ****    *  <a href="tables.html#66">reversible container</a>, and a
  86:/Library/DaisyToolchain/0.2.0/arm/arm-none-eabi/include/c++/10.3.1/array ****    *  <a href="tables.html#67">sequence</a>.
  87:/Library/DaisyToolchain/0.2.0/arm/arm-none-eabi/include/c++/10.3.1/array ****    *
  88:/Library/DaisyToolchain/0.2.0/arm/arm-none-eabi/include/c++/10.3.1/array ****    *  Sets support random access iterators.
  89:/Library/DaisyToolchain/0.2.0/arm/arm-none-eabi/include/c++/10.3.1/array ****    *
  90:/Library/DaisyToolchain/0.2.0/arm/arm-none-eabi/include/c++/10.3.1/array ****    *  @tparam  Tp  Type of element. Required to be a complete type.
  91:/Library/DaisyToolchain/0.2.0/arm/arm-none-eabi/include/c++/10.3.1/array ****    *  @tparam  Nm  Number of elements.
  92:/Library/DaisyToolchain/0.2.0/arm/arm-none-eabi/include/c++/10.3.1/array ****   */
  93:/Library/DaisyToolchain/0.2.0/arm/arm-none-eabi/include/c++/10.3.1/array ****   template<typename _Tp, std::size_t _Nm>
  94:/Library/DaisyToolchain/0.2.0/arm/arm-none-eabi/include/c++/10.3.1/array ****     struct array
 176              		.loc 12 94 12 view .LVU20
 177              		.loc 12 94 12 is_stmt 0 view .LVU21
 178              	.LBE377:
 179              	.LBE376:
 180              	.LBB378:
 181              	.LBI378:
 182              		.file 13 "lib/DaisySP/Source/Utility/delayline.h"
   1:lib/DaisySP/Source/Utility/delayline.h **** /*
   2:lib/DaisySP/Source/Utility/delayline.h **** Copyright (c) 2020 Electrosmith, Corp
   3:lib/DaisySP/Source/Utility/delayline.h **** 
   4:lib/DaisySP/Source/Utility/delayline.h **** Use of this source code is governed by an MIT-style
   5:lib/DaisySP/Source/Utility/delayline.h **** license that can be found in the LICENSE file or at
   6:lib/DaisySP/Source/Utility/delayline.h **** https://opensource.org/licenses/MIT.
   7:lib/DaisySP/Source/Utility/delayline.h **** */
   8:lib/DaisySP/Source/Utility/delayline.h **** 
ARM GAS  /var/folders/9s/8rp0_f2s1n31qbztm3b5_fdh0000gn/T//ccWYl2xP.s 			page 15


   9:lib/DaisySP/Source/Utility/delayline.h **** #pragma once
  10:lib/DaisySP/Source/Utility/delayline.h **** #ifndef DSY_DELAY_H
  11:lib/DaisySP/Source/Utility/delayline.h **** #define DSY_DELAY_H
  12:lib/DaisySP/Source/Utility/delayline.h **** #include <stdlib.h>
  13:lib/DaisySP/Source/Utility/delayline.h **** #include <stdint.h>
  14:lib/DaisySP/Source/Utility/delayline.h **** namespace daisysp
  15:lib/DaisySP/Source/Utility/delayline.h **** {
  16:lib/DaisySP/Source/Utility/delayline.h **** /** Simple Delay line.
  17:lib/DaisySP/Source/Utility/delayline.h **** November 2019
  18:lib/DaisySP/Source/Utility/delayline.h **** 
  19:lib/DaisySP/Source/Utility/delayline.h **** Converted to Template December 2019
  20:lib/DaisySP/Source/Utility/delayline.h **** 
  21:lib/DaisySP/Source/Utility/delayline.h **** declaration example: (1 second of floats)
  22:lib/DaisySP/Source/Utility/delayline.h **** 
  23:lib/DaisySP/Source/Utility/delayline.h **** DelayLine<float, SAMPLE_RATE> del;
  24:lib/DaisySP/Source/Utility/delayline.h **** 
  25:lib/DaisySP/Source/Utility/delayline.h **** By: shensley
  26:lib/DaisySP/Source/Utility/delayline.h **** */
  27:lib/DaisySP/Source/Utility/delayline.h **** template <typename T, size_t max_size>
  28:lib/DaisySP/Source/Utility/delayline.h **** class DelayLine
  29:lib/DaisySP/Source/Utility/delayline.h **** {
  30:lib/DaisySP/Source/Utility/delayline.h ****   public:
  31:lib/DaisySP/Source/Utility/delayline.h ****     DelayLine() {}
  32:lib/DaisySP/Source/Utility/delayline.h ****     ~DelayLine() {}
 183              		.loc 13 32 5 is_stmt 1 view .LVU22
 184              		.loc 13 32 5 is_stmt 0 view .LVU23
 185              	.LBE378:
 186              		.loc 10 25 23 view .LVU24
 187 0000 7047     		bx	lr
 188              		.cfi_endproc
 189              	.LFE6152:
 191              		.weak	_ZN10infrasonic9EchoDelayILj48000EED1Ev
 192              		.thumb_set _ZN10infrasonic9EchoDelayILj48000EED1Ev,_ZN10infrasonic9EchoDelayILj48000EED2Ev
 193              		.section	.text._ZNSt17_Function_handlerIFviEZ15InitializeSynthvEUliE_E10_M_managerERSt9_Any_dataRK
 194              		.align	1
 195              		.syntax unified
 196              		.thumb
 197              		.thumb_func
 199              	_ZNSt17_Function_handlerIFviEZ15InitializeSynthvEUliE_E10_M_managerERSt9_Any_dataRKS3_St18_Manager_
 200              	.LVL5:
 201              	.LFB5964:
 202              		.file 14 "/Library/DaisyToolchain/0.2.0/arm/arm-none-eabi/include/c++/10.3.1/bits/std_function.h"
   1:/Library/DaisyToolchain/0.2.0/arm/arm-none-eabi/include/c++/10.3.1/bits/std_function.h **** // Implementation of std::function -*- C++ -*-
   2:/Library/DaisyToolchain/0.2.0/arm/arm-none-eabi/include/c++/10.3.1/bits/std_function.h **** 
   3:/Library/DaisyToolchain/0.2.0/arm/arm-none-eabi/include/c++/10.3.1/bits/std_function.h **** // Copyright (C) 2004-2020 Free Software Foundation, Inc.
   4:/Library/DaisyToolchain/0.2.0/arm/arm-none-eabi/include/c++/10.3.1/bits/std_function.h **** //
   5:/Library/DaisyToolchain/0.2.0/arm/arm-none-eabi/include/c++/10.3.1/bits/std_function.h **** // This file is part of the GNU ISO C++ Library.  This library is free
   6:/Library/DaisyToolchain/0.2.0/arm/arm-none-eabi/include/c++/10.3.1/bits/std_function.h **** // software; you can redistribute it and/or modify it under the
   7:/Library/DaisyToolchain/0.2.0/arm/arm-none-eabi/include/c++/10.3.1/bits/std_function.h **** // terms of the GNU General Public License as published by the
   8:/Library/DaisyToolchain/0.2.0/arm/arm-none-eabi/include/c++/10.3.1/bits/std_function.h **** // Free Software Foundation; either version 3, or (at your option)
   9:/Library/DaisyToolchain/0.2.0/arm/arm-none-eabi/include/c++/10.3.1/bits/std_function.h **** // any later version.
  10:/Library/DaisyToolchain/0.2.0/arm/arm-none-eabi/include/c++/10.3.1/bits/std_function.h **** 
  11:/Library/DaisyToolchain/0.2.0/arm/arm-none-eabi/include/c++/10.3.1/bits/std_function.h **** // This library is distributed in the hope that it will be useful,
  12:/Library/DaisyToolchain/0.2.0/arm/arm-none-eabi/include/c++/10.3.1/bits/std_function.h **** // but WITHOUT ANY WARRANTY; without even the implied warranty of
  13:/Library/DaisyToolchain/0.2.0/arm/arm-none-eabi/include/c++/10.3.1/bits/std_function.h **** // MERCHANTABILITY or FITNESS FOR A PARTICULAR PURPOSE.  See the
  14:/Library/DaisyToolchain/0.2.0/arm/arm-none-eabi/include/c++/10.3.1/bits/std_function.h **** // GNU General Public License for more details.
  15:/Library/DaisyToolchain/0.2.0/arm/arm-none-eabi/include/c++/10.3.1/bits/std_function.h **** 
ARM GAS  /var/folders/9s/8rp0_f2s1n31qbztm3b5_fdh0000gn/T//ccWYl2xP.s 			page 16


  16:/Library/DaisyToolchain/0.2.0/arm/arm-none-eabi/include/c++/10.3.1/bits/std_function.h **** // Under Section 7 of GPL version 3, you are granted additional
  17:/Library/DaisyToolchain/0.2.0/arm/arm-none-eabi/include/c++/10.3.1/bits/std_function.h **** // permissions described in the GCC Runtime Library Exception, version
  18:/Library/DaisyToolchain/0.2.0/arm/arm-none-eabi/include/c++/10.3.1/bits/std_function.h **** // 3.1, as published by the Free Software Foundation.
  19:/Library/DaisyToolchain/0.2.0/arm/arm-none-eabi/include/c++/10.3.1/bits/std_function.h **** 
  20:/Library/DaisyToolchain/0.2.0/arm/arm-none-eabi/include/c++/10.3.1/bits/std_function.h **** // You should have received a copy of the GNU General Public License and
  21:/Library/DaisyToolchain/0.2.0/arm/arm-none-eabi/include/c++/10.3.1/bits/std_function.h **** // a copy of the GCC Runtime Library Exception along with this program;
  22:/Library/DaisyToolchain/0.2.0/arm/arm-none-eabi/include/c++/10.3.1/bits/std_function.h **** // see the files COPYING3 and COPYING.RUNTIME respectively.  If not, see
  23:/Library/DaisyToolchain/0.2.0/arm/arm-none-eabi/include/c++/10.3.1/bits/std_function.h **** // <http://www.gnu.org/licenses/>.
  24:/Library/DaisyToolchain/0.2.0/arm/arm-none-eabi/include/c++/10.3.1/bits/std_function.h **** 
  25:/Library/DaisyToolchain/0.2.0/arm/arm-none-eabi/include/c++/10.3.1/bits/std_function.h **** /** @file include/bits/std_function.h
  26:/Library/DaisyToolchain/0.2.0/arm/arm-none-eabi/include/c++/10.3.1/bits/std_function.h ****  *  This is an internal header file, included by other library headers.
  27:/Library/DaisyToolchain/0.2.0/arm/arm-none-eabi/include/c++/10.3.1/bits/std_function.h ****  *  Do not attempt to use it directly. @headername{functional}
  28:/Library/DaisyToolchain/0.2.0/arm/arm-none-eabi/include/c++/10.3.1/bits/std_function.h ****  */
  29:/Library/DaisyToolchain/0.2.0/arm/arm-none-eabi/include/c++/10.3.1/bits/std_function.h **** 
  30:/Library/DaisyToolchain/0.2.0/arm/arm-none-eabi/include/c++/10.3.1/bits/std_function.h **** #ifndef _GLIBCXX_STD_FUNCTION_H
  31:/Library/DaisyToolchain/0.2.0/arm/arm-none-eabi/include/c++/10.3.1/bits/std_function.h **** #define _GLIBCXX_STD_FUNCTION_H 1
  32:/Library/DaisyToolchain/0.2.0/arm/arm-none-eabi/include/c++/10.3.1/bits/std_function.h **** 
  33:/Library/DaisyToolchain/0.2.0/arm/arm-none-eabi/include/c++/10.3.1/bits/std_function.h **** #pragma GCC system_header
  34:/Library/DaisyToolchain/0.2.0/arm/arm-none-eabi/include/c++/10.3.1/bits/std_function.h **** 
  35:/Library/DaisyToolchain/0.2.0/arm/arm-none-eabi/include/c++/10.3.1/bits/std_function.h **** #if __cplusplus < 201103L
  36:/Library/DaisyToolchain/0.2.0/arm/arm-none-eabi/include/c++/10.3.1/bits/std_function.h **** # include <bits/c++0x_warning.h>
  37:/Library/DaisyToolchain/0.2.0/arm/arm-none-eabi/include/c++/10.3.1/bits/std_function.h **** #else
  38:/Library/DaisyToolchain/0.2.0/arm/arm-none-eabi/include/c++/10.3.1/bits/std_function.h **** 
  39:/Library/DaisyToolchain/0.2.0/arm/arm-none-eabi/include/c++/10.3.1/bits/std_function.h **** #if __cpp_rtti
  40:/Library/DaisyToolchain/0.2.0/arm/arm-none-eabi/include/c++/10.3.1/bits/std_function.h **** # include <typeinfo>
  41:/Library/DaisyToolchain/0.2.0/arm/arm-none-eabi/include/c++/10.3.1/bits/std_function.h **** #endif
  42:/Library/DaisyToolchain/0.2.0/arm/arm-none-eabi/include/c++/10.3.1/bits/std_function.h **** #include <bits/stl_function.h>
  43:/Library/DaisyToolchain/0.2.0/arm/arm-none-eabi/include/c++/10.3.1/bits/std_function.h **** #include <bits/invoke.h>
  44:/Library/DaisyToolchain/0.2.0/arm/arm-none-eabi/include/c++/10.3.1/bits/std_function.h **** #include <bits/refwrap.h>
  45:/Library/DaisyToolchain/0.2.0/arm/arm-none-eabi/include/c++/10.3.1/bits/std_function.h **** #include <bits/functexcept.h>
  46:/Library/DaisyToolchain/0.2.0/arm/arm-none-eabi/include/c++/10.3.1/bits/std_function.h **** 
  47:/Library/DaisyToolchain/0.2.0/arm/arm-none-eabi/include/c++/10.3.1/bits/std_function.h **** namespace std _GLIBCXX_VISIBILITY(default)
  48:/Library/DaisyToolchain/0.2.0/arm/arm-none-eabi/include/c++/10.3.1/bits/std_function.h **** {
  49:/Library/DaisyToolchain/0.2.0/arm/arm-none-eabi/include/c++/10.3.1/bits/std_function.h **** _GLIBCXX_BEGIN_NAMESPACE_VERSION
  50:/Library/DaisyToolchain/0.2.0/arm/arm-none-eabi/include/c++/10.3.1/bits/std_function.h **** 
  51:/Library/DaisyToolchain/0.2.0/arm/arm-none-eabi/include/c++/10.3.1/bits/std_function.h ****   /**
  52:/Library/DaisyToolchain/0.2.0/arm/arm-none-eabi/include/c++/10.3.1/bits/std_function.h ****    *  @brief Exception class thrown when class template function's
  53:/Library/DaisyToolchain/0.2.0/arm/arm-none-eabi/include/c++/10.3.1/bits/std_function.h ****    *  operator() is called with an empty target.
  54:/Library/DaisyToolchain/0.2.0/arm/arm-none-eabi/include/c++/10.3.1/bits/std_function.h ****    *  @ingroup exceptions
  55:/Library/DaisyToolchain/0.2.0/arm/arm-none-eabi/include/c++/10.3.1/bits/std_function.h ****    */
  56:/Library/DaisyToolchain/0.2.0/arm/arm-none-eabi/include/c++/10.3.1/bits/std_function.h ****   class bad_function_call : public std::exception
  57:/Library/DaisyToolchain/0.2.0/arm/arm-none-eabi/include/c++/10.3.1/bits/std_function.h ****   {
  58:/Library/DaisyToolchain/0.2.0/arm/arm-none-eabi/include/c++/10.3.1/bits/std_function.h ****   public:
  59:/Library/DaisyToolchain/0.2.0/arm/arm-none-eabi/include/c++/10.3.1/bits/std_function.h ****     virtual ~bad_function_call() noexcept;
  60:/Library/DaisyToolchain/0.2.0/arm/arm-none-eabi/include/c++/10.3.1/bits/std_function.h **** 
  61:/Library/DaisyToolchain/0.2.0/arm/arm-none-eabi/include/c++/10.3.1/bits/std_function.h ****     const char* what() const noexcept;
  62:/Library/DaisyToolchain/0.2.0/arm/arm-none-eabi/include/c++/10.3.1/bits/std_function.h ****   };
  63:/Library/DaisyToolchain/0.2.0/arm/arm-none-eabi/include/c++/10.3.1/bits/std_function.h **** 
  64:/Library/DaisyToolchain/0.2.0/arm/arm-none-eabi/include/c++/10.3.1/bits/std_function.h ****   /**
  65:/Library/DaisyToolchain/0.2.0/arm/arm-none-eabi/include/c++/10.3.1/bits/std_function.h ****    *  Trait identifying "location-invariant" types, meaning that the
  66:/Library/DaisyToolchain/0.2.0/arm/arm-none-eabi/include/c++/10.3.1/bits/std_function.h ****    *  address of the object (or any of its members) will not escape.
  67:/Library/DaisyToolchain/0.2.0/arm/arm-none-eabi/include/c++/10.3.1/bits/std_function.h ****    *  Trivially copyable types are location-invariant and users can
  68:/Library/DaisyToolchain/0.2.0/arm/arm-none-eabi/include/c++/10.3.1/bits/std_function.h ****    *  specialize this trait for other types.
  69:/Library/DaisyToolchain/0.2.0/arm/arm-none-eabi/include/c++/10.3.1/bits/std_function.h ****    */
  70:/Library/DaisyToolchain/0.2.0/arm/arm-none-eabi/include/c++/10.3.1/bits/std_function.h ****   template<typename _Tp>
  71:/Library/DaisyToolchain/0.2.0/arm/arm-none-eabi/include/c++/10.3.1/bits/std_function.h ****     struct __is_location_invariant
  72:/Library/DaisyToolchain/0.2.0/arm/arm-none-eabi/include/c++/10.3.1/bits/std_function.h ****     : is_trivially_copyable<_Tp>::type
ARM GAS  /var/folders/9s/8rp0_f2s1n31qbztm3b5_fdh0000gn/T//ccWYl2xP.s 			page 17


  73:/Library/DaisyToolchain/0.2.0/arm/arm-none-eabi/include/c++/10.3.1/bits/std_function.h ****     { };
  74:/Library/DaisyToolchain/0.2.0/arm/arm-none-eabi/include/c++/10.3.1/bits/std_function.h **** 
  75:/Library/DaisyToolchain/0.2.0/arm/arm-none-eabi/include/c++/10.3.1/bits/std_function.h ****   class _Undefined_class;
  76:/Library/DaisyToolchain/0.2.0/arm/arm-none-eabi/include/c++/10.3.1/bits/std_function.h **** 
  77:/Library/DaisyToolchain/0.2.0/arm/arm-none-eabi/include/c++/10.3.1/bits/std_function.h ****   union _Nocopy_types
  78:/Library/DaisyToolchain/0.2.0/arm/arm-none-eabi/include/c++/10.3.1/bits/std_function.h ****   {
  79:/Library/DaisyToolchain/0.2.0/arm/arm-none-eabi/include/c++/10.3.1/bits/std_function.h ****     void*       _M_object;
  80:/Library/DaisyToolchain/0.2.0/arm/arm-none-eabi/include/c++/10.3.1/bits/std_function.h ****     const void* _M_const_object;
  81:/Library/DaisyToolchain/0.2.0/arm/arm-none-eabi/include/c++/10.3.1/bits/std_function.h ****     void (*_M_function_pointer)();
  82:/Library/DaisyToolchain/0.2.0/arm/arm-none-eabi/include/c++/10.3.1/bits/std_function.h ****     void (_Undefined_class::*_M_member_pointer)();
  83:/Library/DaisyToolchain/0.2.0/arm/arm-none-eabi/include/c++/10.3.1/bits/std_function.h ****   };
  84:/Library/DaisyToolchain/0.2.0/arm/arm-none-eabi/include/c++/10.3.1/bits/std_function.h **** 
  85:/Library/DaisyToolchain/0.2.0/arm/arm-none-eabi/include/c++/10.3.1/bits/std_function.h ****   union [[gnu::may_alias]] _Any_data
  86:/Library/DaisyToolchain/0.2.0/arm/arm-none-eabi/include/c++/10.3.1/bits/std_function.h ****   {
  87:/Library/DaisyToolchain/0.2.0/arm/arm-none-eabi/include/c++/10.3.1/bits/std_function.h ****     void*       _M_access()       { return &_M_pod_data[0]; }
  88:/Library/DaisyToolchain/0.2.0/arm/arm-none-eabi/include/c++/10.3.1/bits/std_function.h ****     const void* _M_access() const { return &_M_pod_data[0]; }
  89:/Library/DaisyToolchain/0.2.0/arm/arm-none-eabi/include/c++/10.3.1/bits/std_function.h **** 
  90:/Library/DaisyToolchain/0.2.0/arm/arm-none-eabi/include/c++/10.3.1/bits/std_function.h ****     template<typename _Tp>
  91:/Library/DaisyToolchain/0.2.0/arm/arm-none-eabi/include/c++/10.3.1/bits/std_function.h ****       _Tp&
  92:/Library/DaisyToolchain/0.2.0/arm/arm-none-eabi/include/c++/10.3.1/bits/std_function.h ****       _M_access()
  93:/Library/DaisyToolchain/0.2.0/arm/arm-none-eabi/include/c++/10.3.1/bits/std_function.h ****       { return *static_cast<_Tp*>(_M_access()); }
  94:/Library/DaisyToolchain/0.2.0/arm/arm-none-eabi/include/c++/10.3.1/bits/std_function.h **** 
  95:/Library/DaisyToolchain/0.2.0/arm/arm-none-eabi/include/c++/10.3.1/bits/std_function.h ****     template<typename _Tp>
  96:/Library/DaisyToolchain/0.2.0/arm/arm-none-eabi/include/c++/10.3.1/bits/std_function.h ****       const _Tp&
  97:/Library/DaisyToolchain/0.2.0/arm/arm-none-eabi/include/c++/10.3.1/bits/std_function.h ****       _M_access() const
  98:/Library/DaisyToolchain/0.2.0/arm/arm-none-eabi/include/c++/10.3.1/bits/std_function.h ****       { return *static_cast<const _Tp*>(_M_access()); }
  99:/Library/DaisyToolchain/0.2.0/arm/arm-none-eabi/include/c++/10.3.1/bits/std_function.h **** 
 100:/Library/DaisyToolchain/0.2.0/arm/arm-none-eabi/include/c++/10.3.1/bits/std_function.h ****     _Nocopy_types _M_unused;
 101:/Library/DaisyToolchain/0.2.0/arm/arm-none-eabi/include/c++/10.3.1/bits/std_function.h ****     char _M_pod_data[sizeof(_Nocopy_types)];
 102:/Library/DaisyToolchain/0.2.0/arm/arm-none-eabi/include/c++/10.3.1/bits/std_function.h ****   };
 103:/Library/DaisyToolchain/0.2.0/arm/arm-none-eabi/include/c++/10.3.1/bits/std_function.h **** 
 104:/Library/DaisyToolchain/0.2.0/arm/arm-none-eabi/include/c++/10.3.1/bits/std_function.h ****   enum _Manager_operation
 105:/Library/DaisyToolchain/0.2.0/arm/arm-none-eabi/include/c++/10.3.1/bits/std_function.h ****   {
 106:/Library/DaisyToolchain/0.2.0/arm/arm-none-eabi/include/c++/10.3.1/bits/std_function.h ****     __get_type_info,
 107:/Library/DaisyToolchain/0.2.0/arm/arm-none-eabi/include/c++/10.3.1/bits/std_function.h ****     __get_functor_ptr,
 108:/Library/DaisyToolchain/0.2.0/arm/arm-none-eabi/include/c++/10.3.1/bits/std_function.h ****     __clone_functor,
 109:/Library/DaisyToolchain/0.2.0/arm/arm-none-eabi/include/c++/10.3.1/bits/std_function.h ****     __destroy_functor
 110:/Library/DaisyToolchain/0.2.0/arm/arm-none-eabi/include/c++/10.3.1/bits/std_function.h ****   };
 111:/Library/DaisyToolchain/0.2.0/arm/arm-none-eabi/include/c++/10.3.1/bits/std_function.h **** 
 112:/Library/DaisyToolchain/0.2.0/arm/arm-none-eabi/include/c++/10.3.1/bits/std_function.h ****   template<typename _Signature>
 113:/Library/DaisyToolchain/0.2.0/arm/arm-none-eabi/include/c++/10.3.1/bits/std_function.h ****     class function;
 114:/Library/DaisyToolchain/0.2.0/arm/arm-none-eabi/include/c++/10.3.1/bits/std_function.h **** 
 115:/Library/DaisyToolchain/0.2.0/arm/arm-none-eabi/include/c++/10.3.1/bits/std_function.h ****   /// Base class of all polymorphic function object wrappers.
 116:/Library/DaisyToolchain/0.2.0/arm/arm-none-eabi/include/c++/10.3.1/bits/std_function.h ****   class _Function_base
 117:/Library/DaisyToolchain/0.2.0/arm/arm-none-eabi/include/c++/10.3.1/bits/std_function.h ****   {
 118:/Library/DaisyToolchain/0.2.0/arm/arm-none-eabi/include/c++/10.3.1/bits/std_function.h ****   public:
 119:/Library/DaisyToolchain/0.2.0/arm/arm-none-eabi/include/c++/10.3.1/bits/std_function.h ****     static const size_t _M_max_size = sizeof(_Nocopy_types);
 120:/Library/DaisyToolchain/0.2.0/arm/arm-none-eabi/include/c++/10.3.1/bits/std_function.h ****     static const size_t _M_max_align = __alignof__(_Nocopy_types);
 121:/Library/DaisyToolchain/0.2.0/arm/arm-none-eabi/include/c++/10.3.1/bits/std_function.h **** 
 122:/Library/DaisyToolchain/0.2.0/arm/arm-none-eabi/include/c++/10.3.1/bits/std_function.h ****     template<typename _Functor>
 123:/Library/DaisyToolchain/0.2.0/arm/arm-none-eabi/include/c++/10.3.1/bits/std_function.h ****       class _Base_manager
 124:/Library/DaisyToolchain/0.2.0/arm/arm-none-eabi/include/c++/10.3.1/bits/std_function.h ****       {
 125:/Library/DaisyToolchain/0.2.0/arm/arm-none-eabi/include/c++/10.3.1/bits/std_function.h ****       protected:
 126:/Library/DaisyToolchain/0.2.0/arm/arm-none-eabi/include/c++/10.3.1/bits/std_function.h **** 	static const bool __stored_locally =
 127:/Library/DaisyToolchain/0.2.0/arm/arm-none-eabi/include/c++/10.3.1/bits/std_function.h **** 	(__is_location_invariant<_Functor>::value
 128:/Library/DaisyToolchain/0.2.0/arm/arm-none-eabi/include/c++/10.3.1/bits/std_function.h **** 	 && sizeof(_Functor) <= _M_max_size
 129:/Library/DaisyToolchain/0.2.0/arm/arm-none-eabi/include/c++/10.3.1/bits/std_function.h **** 	 && __alignof__(_Functor) <= _M_max_align
ARM GAS  /var/folders/9s/8rp0_f2s1n31qbztm3b5_fdh0000gn/T//ccWYl2xP.s 			page 18


 130:/Library/DaisyToolchain/0.2.0/arm/arm-none-eabi/include/c++/10.3.1/bits/std_function.h **** 	 && (_M_max_align % __alignof__(_Functor) == 0));
 131:/Library/DaisyToolchain/0.2.0/arm/arm-none-eabi/include/c++/10.3.1/bits/std_function.h **** 
 132:/Library/DaisyToolchain/0.2.0/arm/arm-none-eabi/include/c++/10.3.1/bits/std_function.h **** 	typedef integral_constant<bool, __stored_locally> _Local_storage;
 133:/Library/DaisyToolchain/0.2.0/arm/arm-none-eabi/include/c++/10.3.1/bits/std_function.h **** 
 134:/Library/DaisyToolchain/0.2.0/arm/arm-none-eabi/include/c++/10.3.1/bits/std_function.h **** 	// Retrieve a pointer to the function object
 135:/Library/DaisyToolchain/0.2.0/arm/arm-none-eabi/include/c++/10.3.1/bits/std_function.h **** 	static _Functor*
 136:/Library/DaisyToolchain/0.2.0/arm/arm-none-eabi/include/c++/10.3.1/bits/std_function.h **** 	_M_get_pointer(const _Any_data& __source)
 137:/Library/DaisyToolchain/0.2.0/arm/arm-none-eabi/include/c++/10.3.1/bits/std_function.h **** 	{
 138:/Library/DaisyToolchain/0.2.0/arm/arm-none-eabi/include/c++/10.3.1/bits/std_function.h **** 	  if _GLIBCXX17_CONSTEXPR (__stored_locally)
 139:/Library/DaisyToolchain/0.2.0/arm/arm-none-eabi/include/c++/10.3.1/bits/std_function.h **** 	    {
 140:/Library/DaisyToolchain/0.2.0/arm/arm-none-eabi/include/c++/10.3.1/bits/std_function.h **** 	      const _Functor& __f = __source._M_access<_Functor>();
 141:/Library/DaisyToolchain/0.2.0/arm/arm-none-eabi/include/c++/10.3.1/bits/std_function.h **** 	      return const_cast<_Functor*>(std::__addressof(__f));
 142:/Library/DaisyToolchain/0.2.0/arm/arm-none-eabi/include/c++/10.3.1/bits/std_function.h **** 	    }
 143:/Library/DaisyToolchain/0.2.0/arm/arm-none-eabi/include/c++/10.3.1/bits/std_function.h **** 	  else // have stored a pointer
 144:/Library/DaisyToolchain/0.2.0/arm/arm-none-eabi/include/c++/10.3.1/bits/std_function.h **** 	    return __source._M_access<_Functor*>();
 145:/Library/DaisyToolchain/0.2.0/arm/arm-none-eabi/include/c++/10.3.1/bits/std_function.h **** 	}
 146:/Library/DaisyToolchain/0.2.0/arm/arm-none-eabi/include/c++/10.3.1/bits/std_function.h **** 
 147:/Library/DaisyToolchain/0.2.0/arm/arm-none-eabi/include/c++/10.3.1/bits/std_function.h **** 	// Clone a location-invariant function object that fits within
 148:/Library/DaisyToolchain/0.2.0/arm/arm-none-eabi/include/c++/10.3.1/bits/std_function.h **** 	// an _Any_data structure.
 149:/Library/DaisyToolchain/0.2.0/arm/arm-none-eabi/include/c++/10.3.1/bits/std_function.h **** 	static void
 150:/Library/DaisyToolchain/0.2.0/arm/arm-none-eabi/include/c++/10.3.1/bits/std_function.h **** 	_M_clone(_Any_data& __dest, const _Any_data& __source, true_type)
 151:/Library/DaisyToolchain/0.2.0/arm/arm-none-eabi/include/c++/10.3.1/bits/std_function.h **** 	{
 152:/Library/DaisyToolchain/0.2.0/arm/arm-none-eabi/include/c++/10.3.1/bits/std_function.h **** 	  ::new (__dest._M_access()) _Functor(__source._M_access<_Functor>());
 153:/Library/DaisyToolchain/0.2.0/arm/arm-none-eabi/include/c++/10.3.1/bits/std_function.h **** 	}
 154:/Library/DaisyToolchain/0.2.0/arm/arm-none-eabi/include/c++/10.3.1/bits/std_function.h **** 
 155:/Library/DaisyToolchain/0.2.0/arm/arm-none-eabi/include/c++/10.3.1/bits/std_function.h **** 	// Clone a function object that is not location-invariant or
 156:/Library/DaisyToolchain/0.2.0/arm/arm-none-eabi/include/c++/10.3.1/bits/std_function.h **** 	// that cannot fit into an _Any_data structure.
 157:/Library/DaisyToolchain/0.2.0/arm/arm-none-eabi/include/c++/10.3.1/bits/std_function.h **** 	static void
 158:/Library/DaisyToolchain/0.2.0/arm/arm-none-eabi/include/c++/10.3.1/bits/std_function.h **** 	_M_clone(_Any_data& __dest, const _Any_data& __source, false_type)
 159:/Library/DaisyToolchain/0.2.0/arm/arm-none-eabi/include/c++/10.3.1/bits/std_function.h **** 	{
 160:/Library/DaisyToolchain/0.2.0/arm/arm-none-eabi/include/c++/10.3.1/bits/std_function.h **** 	  __dest._M_access<_Functor*>() =
 161:/Library/DaisyToolchain/0.2.0/arm/arm-none-eabi/include/c++/10.3.1/bits/std_function.h **** 	    new _Functor(*__source._M_access<const _Functor*>());
 162:/Library/DaisyToolchain/0.2.0/arm/arm-none-eabi/include/c++/10.3.1/bits/std_function.h **** 	}
 163:/Library/DaisyToolchain/0.2.0/arm/arm-none-eabi/include/c++/10.3.1/bits/std_function.h **** 
 164:/Library/DaisyToolchain/0.2.0/arm/arm-none-eabi/include/c++/10.3.1/bits/std_function.h **** 	// Destroying a location-invariant object may still require
 165:/Library/DaisyToolchain/0.2.0/arm/arm-none-eabi/include/c++/10.3.1/bits/std_function.h **** 	// destruction.
 166:/Library/DaisyToolchain/0.2.0/arm/arm-none-eabi/include/c++/10.3.1/bits/std_function.h **** 	static void
 167:/Library/DaisyToolchain/0.2.0/arm/arm-none-eabi/include/c++/10.3.1/bits/std_function.h **** 	_M_destroy(_Any_data& __victim, true_type)
 168:/Library/DaisyToolchain/0.2.0/arm/arm-none-eabi/include/c++/10.3.1/bits/std_function.h **** 	{
 169:/Library/DaisyToolchain/0.2.0/arm/arm-none-eabi/include/c++/10.3.1/bits/std_function.h **** 	  __victim._M_access<_Functor>().~_Functor();
 170:/Library/DaisyToolchain/0.2.0/arm/arm-none-eabi/include/c++/10.3.1/bits/std_function.h **** 	}
 171:/Library/DaisyToolchain/0.2.0/arm/arm-none-eabi/include/c++/10.3.1/bits/std_function.h **** 
 172:/Library/DaisyToolchain/0.2.0/arm/arm-none-eabi/include/c++/10.3.1/bits/std_function.h **** 	// Destroying an object located on the heap.
 173:/Library/DaisyToolchain/0.2.0/arm/arm-none-eabi/include/c++/10.3.1/bits/std_function.h **** 	static void
 174:/Library/DaisyToolchain/0.2.0/arm/arm-none-eabi/include/c++/10.3.1/bits/std_function.h **** 	_M_destroy(_Any_data& __victim, false_type)
 175:/Library/DaisyToolchain/0.2.0/arm/arm-none-eabi/include/c++/10.3.1/bits/std_function.h **** 	{
 176:/Library/DaisyToolchain/0.2.0/arm/arm-none-eabi/include/c++/10.3.1/bits/std_function.h **** 	  delete __victim._M_access<_Functor*>();
 177:/Library/DaisyToolchain/0.2.0/arm/arm-none-eabi/include/c++/10.3.1/bits/std_function.h **** 	}
 178:/Library/DaisyToolchain/0.2.0/arm/arm-none-eabi/include/c++/10.3.1/bits/std_function.h **** 
 179:/Library/DaisyToolchain/0.2.0/arm/arm-none-eabi/include/c++/10.3.1/bits/std_function.h ****       public:
 180:/Library/DaisyToolchain/0.2.0/arm/arm-none-eabi/include/c++/10.3.1/bits/std_function.h **** 	static bool
 181:/Library/DaisyToolchain/0.2.0/arm/arm-none-eabi/include/c++/10.3.1/bits/std_function.h **** 	_M_manager(_Any_data& __dest, const _Any_data& __source,
 182:/Library/DaisyToolchain/0.2.0/arm/arm-none-eabi/include/c++/10.3.1/bits/std_function.h **** 		   _Manager_operation __op)
 183:/Library/DaisyToolchain/0.2.0/arm/arm-none-eabi/include/c++/10.3.1/bits/std_function.h **** 	{
 184:/Library/DaisyToolchain/0.2.0/arm/arm-none-eabi/include/c++/10.3.1/bits/std_function.h **** 	  switch (__op)
 185:/Library/DaisyToolchain/0.2.0/arm/arm-none-eabi/include/c++/10.3.1/bits/std_function.h **** 	    {
 186:/Library/DaisyToolchain/0.2.0/arm/arm-none-eabi/include/c++/10.3.1/bits/std_function.h **** #if __cpp_rtti
ARM GAS  /var/folders/9s/8rp0_f2s1n31qbztm3b5_fdh0000gn/T//ccWYl2xP.s 			page 19


 187:/Library/DaisyToolchain/0.2.0/arm/arm-none-eabi/include/c++/10.3.1/bits/std_function.h **** 	    case __get_type_info:
 188:/Library/DaisyToolchain/0.2.0/arm/arm-none-eabi/include/c++/10.3.1/bits/std_function.h **** 	      __dest._M_access<const type_info*>() = &typeid(_Functor);
 189:/Library/DaisyToolchain/0.2.0/arm/arm-none-eabi/include/c++/10.3.1/bits/std_function.h **** 	      break;
 190:/Library/DaisyToolchain/0.2.0/arm/arm-none-eabi/include/c++/10.3.1/bits/std_function.h **** #endif
 191:/Library/DaisyToolchain/0.2.0/arm/arm-none-eabi/include/c++/10.3.1/bits/std_function.h **** 	    case __get_functor_ptr:
 192:/Library/DaisyToolchain/0.2.0/arm/arm-none-eabi/include/c++/10.3.1/bits/std_function.h **** 	      __dest._M_access<_Functor*>() = _M_get_pointer(__source);
 193:/Library/DaisyToolchain/0.2.0/arm/arm-none-eabi/include/c++/10.3.1/bits/std_function.h **** 	      break;
 194:/Library/DaisyToolchain/0.2.0/arm/arm-none-eabi/include/c++/10.3.1/bits/std_function.h **** 
 195:/Library/DaisyToolchain/0.2.0/arm/arm-none-eabi/include/c++/10.3.1/bits/std_function.h **** 	    case __clone_functor:
 196:/Library/DaisyToolchain/0.2.0/arm/arm-none-eabi/include/c++/10.3.1/bits/std_function.h **** 	      _M_clone(__dest, __source, _Local_storage());
 197:/Library/DaisyToolchain/0.2.0/arm/arm-none-eabi/include/c++/10.3.1/bits/std_function.h **** 	      break;
 198:/Library/DaisyToolchain/0.2.0/arm/arm-none-eabi/include/c++/10.3.1/bits/std_function.h **** 
 199:/Library/DaisyToolchain/0.2.0/arm/arm-none-eabi/include/c++/10.3.1/bits/std_function.h **** 	    case __destroy_functor:
 200:/Library/DaisyToolchain/0.2.0/arm/arm-none-eabi/include/c++/10.3.1/bits/std_function.h **** 	      _M_destroy(__dest, _Local_storage());
 201:/Library/DaisyToolchain/0.2.0/arm/arm-none-eabi/include/c++/10.3.1/bits/std_function.h **** 	      break;
 202:/Library/DaisyToolchain/0.2.0/arm/arm-none-eabi/include/c++/10.3.1/bits/std_function.h **** 	    }
 203:/Library/DaisyToolchain/0.2.0/arm/arm-none-eabi/include/c++/10.3.1/bits/std_function.h **** 	  return false;
 204:/Library/DaisyToolchain/0.2.0/arm/arm-none-eabi/include/c++/10.3.1/bits/std_function.h **** 	}
 205:/Library/DaisyToolchain/0.2.0/arm/arm-none-eabi/include/c++/10.3.1/bits/std_function.h **** 
 206:/Library/DaisyToolchain/0.2.0/arm/arm-none-eabi/include/c++/10.3.1/bits/std_function.h **** 	static void
 207:/Library/DaisyToolchain/0.2.0/arm/arm-none-eabi/include/c++/10.3.1/bits/std_function.h **** 	_M_init_functor(_Any_data& __functor, _Functor&& __f)
 208:/Library/DaisyToolchain/0.2.0/arm/arm-none-eabi/include/c++/10.3.1/bits/std_function.h **** 	{ _M_init_functor(__functor, std::move(__f), _Local_storage()); }
 209:/Library/DaisyToolchain/0.2.0/arm/arm-none-eabi/include/c++/10.3.1/bits/std_function.h **** 
 210:/Library/DaisyToolchain/0.2.0/arm/arm-none-eabi/include/c++/10.3.1/bits/std_function.h **** 	template<typename _Signature>
 211:/Library/DaisyToolchain/0.2.0/arm/arm-none-eabi/include/c++/10.3.1/bits/std_function.h **** 	  static bool
 212:/Library/DaisyToolchain/0.2.0/arm/arm-none-eabi/include/c++/10.3.1/bits/std_function.h **** 	  _M_not_empty_function(const function<_Signature>& __f)
 213:/Library/DaisyToolchain/0.2.0/arm/arm-none-eabi/include/c++/10.3.1/bits/std_function.h **** 	  { return static_cast<bool>(__f); }
 214:/Library/DaisyToolchain/0.2.0/arm/arm-none-eabi/include/c++/10.3.1/bits/std_function.h **** 
 215:/Library/DaisyToolchain/0.2.0/arm/arm-none-eabi/include/c++/10.3.1/bits/std_function.h **** 	template<typename _Tp>
 216:/Library/DaisyToolchain/0.2.0/arm/arm-none-eabi/include/c++/10.3.1/bits/std_function.h **** 	  static bool
 217:/Library/DaisyToolchain/0.2.0/arm/arm-none-eabi/include/c++/10.3.1/bits/std_function.h **** 	  _M_not_empty_function(_Tp* __fp)
 218:/Library/DaisyToolchain/0.2.0/arm/arm-none-eabi/include/c++/10.3.1/bits/std_function.h **** 	  { return __fp != nullptr; }
 219:/Library/DaisyToolchain/0.2.0/arm/arm-none-eabi/include/c++/10.3.1/bits/std_function.h **** 
 220:/Library/DaisyToolchain/0.2.0/arm/arm-none-eabi/include/c++/10.3.1/bits/std_function.h **** 	template<typename _Class, typename _Tp>
 221:/Library/DaisyToolchain/0.2.0/arm/arm-none-eabi/include/c++/10.3.1/bits/std_function.h **** 	  static bool
 222:/Library/DaisyToolchain/0.2.0/arm/arm-none-eabi/include/c++/10.3.1/bits/std_function.h **** 	  _M_not_empty_function(_Tp _Class::* __mp)
 223:/Library/DaisyToolchain/0.2.0/arm/arm-none-eabi/include/c++/10.3.1/bits/std_function.h **** 	  { return __mp != nullptr; }
 224:/Library/DaisyToolchain/0.2.0/arm/arm-none-eabi/include/c++/10.3.1/bits/std_function.h **** 
 225:/Library/DaisyToolchain/0.2.0/arm/arm-none-eabi/include/c++/10.3.1/bits/std_function.h **** 	template<typename _Tp>
 226:/Library/DaisyToolchain/0.2.0/arm/arm-none-eabi/include/c++/10.3.1/bits/std_function.h **** 	  static bool
 227:/Library/DaisyToolchain/0.2.0/arm/arm-none-eabi/include/c++/10.3.1/bits/std_function.h **** 	  _M_not_empty_function(const _Tp&)
 228:/Library/DaisyToolchain/0.2.0/arm/arm-none-eabi/include/c++/10.3.1/bits/std_function.h **** 	  { return true; }
 229:/Library/DaisyToolchain/0.2.0/arm/arm-none-eabi/include/c++/10.3.1/bits/std_function.h **** 
 230:/Library/DaisyToolchain/0.2.0/arm/arm-none-eabi/include/c++/10.3.1/bits/std_function.h ****       private:
 231:/Library/DaisyToolchain/0.2.0/arm/arm-none-eabi/include/c++/10.3.1/bits/std_function.h **** 	static void
 232:/Library/DaisyToolchain/0.2.0/arm/arm-none-eabi/include/c++/10.3.1/bits/std_function.h **** 	_M_init_functor(_Any_data& __functor, _Functor&& __f, true_type)
 233:/Library/DaisyToolchain/0.2.0/arm/arm-none-eabi/include/c++/10.3.1/bits/std_function.h **** 	{ ::new (__functor._M_access()) _Functor(std::move(__f)); }
 234:/Library/DaisyToolchain/0.2.0/arm/arm-none-eabi/include/c++/10.3.1/bits/std_function.h **** 
 235:/Library/DaisyToolchain/0.2.0/arm/arm-none-eabi/include/c++/10.3.1/bits/std_function.h **** 	static void
 236:/Library/DaisyToolchain/0.2.0/arm/arm-none-eabi/include/c++/10.3.1/bits/std_function.h **** 	_M_init_functor(_Any_data& __functor, _Functor&& __f, false_type)
 237:/Library/DaisyToolchain/0.2.0/arm/arm-none-eabi/include/c++/10.3.1/bits/std_function.h **** 	{ __functor._M_access<_Functor*>() = new _Functor(std::move(__f)); }
 238:/Library/DaisyToolchain/0.2.0/arm/arm-none-eabi/include/c++/10.3.1/bits/std_function.h ****       };
 239:/Library/DaisyToolchain/0.2.0/arm/arm-none-eabi/include/c++/10.3.1/bits/std_function.h **** 
 240:/Library/DaisyToolchain/0.2.0/arm/arm-none-eabi/include/c++/10.3.1/bits/std_function.h ****     _Function_base() : _M_manager(nullptr) { }
 241:/Library/DaisyToolchain/0.2.0/arm/arm-none-eabi/include/c++/10.3.1/bits/std_function.h **** 
 242:/Library/DaisyToolchain/0.2.0/arm/arm-none-eabi/include/c++/10.3.1/bits/std_function.h ****     ~_Function_base()
 243:/Library/DaisyToolchain/0.2.0/arm/arm-none-eabi/include/c++/10.3.1/bits/std_function.h ****     {
ARM GAS  /var/folders/9s/8rp0_f2s1n31qbztm3b5_fdh0000gn/T//ccWYl2xP.s 			page 20


 244:/Library/DaisyToolchain/0.2.0/arm/arm-none-eabi/include/c++/10.3.1/bits/std_function.h ****       if (_M_manager)
 245:/Library/DaisyToolchain/0.2.0/arm/arm-none-eabi/include/c++/10.3.1/bits/std_function.h **** 	_M_manager(_M_functor, _M_functor, __destroy_functor);
 246:/Library/DaisyToolchain/0.2.0/arm/arm-none-eabi/include/c++/10.3.1/bits/std_function.h ****     }
 247:/Library/DaisyToolchain/0.2.0/arm/arm-none-eabi/include/c++/10.3.1/bits/std_function.h **** 
 248:/Library/DaisyToolchain/0.2.0/arm/arm-none-eabi/include/c++/10.3.1/bits/std_function.h ****     bool _M_empty() const { return !_M_manager; }
 249:/Library/DaisyToolchain/0.2.0/arm/arm-none-eabi/include/c++/10.3.1/bits/std_function.h **** 
 250:/Library/DaisyToolchain/0.2.0/arm/arm-none-eabi/include/c++/10.3.1/bits/std_function.h ****     typedef bool (*_Manager_type)(_Any_data&, const _Any_data&,
 251:/Library/DaisyToolchain/0.2.0/arm/arm-none-eabi/include/c++/10.3.1/bits/std_function.h **** 				  _Manager_operation);
 252:/Library/DaisyToolchain/0.2.0/arm/arm-none-eabi/include/c++/10.3.1/bits/std_function.h **** 
 253:/Library/DaisyToolchain/0.2.0/arm/arm-none-eabi/include/c++/10.3.1/bits/std_function.h ****     _Any_data     _M_functor;
 254:/Library/DaisyToolchain/0.2.0/arm/arm-none-eabi/include/c++/10.3.1/bits/std_function.h ****     _Manager_type _M_manager;
 255:/Library/DaisyToolchain/0.2.0/arm/arm-none-eabi/include/c++/10.3.1/bits/std_function.h ****   };
 256:/Library/DaisyToolchain/0.2.0/arm/arm-none-eabi/include/c++/10.3.1/bits/std_function.h **** 
 257:/Library/DaisyToolchain/0.2.0/arm/arm-none-eabi/include/c++/10.3.1/bits/std_function.h ****   template<typename _Signature, typename _Functor>
 258:/Library/DaisyToolchain/0.2.0/arm/arm-none-eabi/include/c++/10.3.1/bits/std_function.h ****     class _Function_handler;
 259:/Library/DaisyToolchain/0.2.0/arm/arm-none-eabi/include/c++/10.3.1/bits/std_function.h **** 
 260:/Library/DaisyToolchain/0.2.0/arm/arm-none-eabi/include/c++/10.3.1/bits/std_function.h ****   template<typename _Res, typename _Functor, typename... _ArgTypes>
 261:/Library/DaisyToolchain/0.2.0/arm/arm-none-eabi/include/c++/10.3.1/bits/std_function.h ****     class _Function_handler<_Res(_ArgTypes...), _Functor>
 262:/Library/DaisyToolchain/0.2.0/arm/arm-none-eabi/include/c++/10.3.1/bits/std_function.h ****     : public _Function_base::_Base_manager<_Functor>
 263:/Library/DaisyToolchain/0.2.0/arm/arm-none-eabi/include/c++/10.3.1/bits/std_function.h ****     {
 264:/Library/DaisyToolchain/0.2.0/arm/arm-none-eabi/include/c++/10.3.1/bits/std_function.h ****       typedef _Function_base::_Base_manager<_Functor> _Base;
 265:/Library/DaisyToolchain/0.2.0/arm/arm-none-eabi/include/c++/10.3.1/bits/std_function.h **** 
 266:/Library/DaisyToolchain/0.2.0/arm/arm-none-eabi/include/c++/10.3.1/bits/std_function.h ****     public:
 267:/Library/DaisyToolchain/0.2.0/arm/arm-none-eabi/include/c++/10.3.1/bits/std_function.h ****       static bool
 268:/Library/DaisyToolchain/0.2.0/arm/arm-none-eabi/include/c++/10.3.1/bits/std_function.h ****       _M_manager(_Any_data& __dest, const _Any_data& __source,
 203              		.loc 14 268 7 is_stmt 1 view -0
 204              		.cfi_startproc
 205              		@ args = 0, pretend = 0, frame = 0
 206              		@ frame_needed = 0, uses_anonymous_args = 0
 207              		@ link register save eliminated.
 269:/Library/DaisyToolchain/0.2.0/arm/arm-none-eabi/include/c++/10.3.1/bits/std_function.h **** 		 _Manager_operation __op)
 270:/Library/DaisyToolchain/0.2.0/arm/arm-none-eabi/include/c++/10.3.1/bits/std_function.h ****       {
 271:/Library/DaisyToolchain/0.2.0/arm/arm-none-eabi/include/c++/10.3.1/bits/std_function.h **** 	switch (__op)
 208              		.loc 14 271 2 is_stmt 0 view .LVU26
 209 0000 1AB1     		cbz	r2, .L8
 210 0002 012A     		cmp	r2, #1
 211 0004 04D0     		beq	.L9
 212              	.L10:
 272:/Library/DaisyToolchain/0.2.0/arm/arm-none-eabi/include/c++/10.3.1/bits/std_function.h **** 	  {
 273:/Library/DaisyToolchain/0.2.0/arm/arm-none-eabi/include/c++/10.3.1/bits/std_function.h **** #if __cpp_rtti
 274:/Library/DaisyToolchain/0.2.0/arm/arm-none-eabi/include/c++/10.3.1/bits/std_function.h **** 	  case __get_type_info:
 275:/Library/DaisyToolchain/0.2.0/arm/arm-none-eabi/include/c++/10.3.1/bits/std_function.h **** 	    __dest._M_access<const type_info*>() = &typeid(_Functor);
 276:/Library/DaisyToolchain/0.2.0/arm/arm-none-eabi/include/c++/10.3.1/bits/std_function.h **** 	    break;
 277:/Library/DaisyToolchain/0.2.0/arm/arm-none-eabi/include/c++/10.3.1/bits/std_function.h **** #endif
 278:/Library/DaisyToolchain/0.2.0/arm/arm-none-eabi/include/c++/10.3.1/bits/std_function.h **** 	  case __get_functor_ptr:
 279:/Library/DaisyToolchain/0.2.0/arm/arm-none-eabi/include/c++/10.3.1/bits/std_function.h **** 	    __dest._M_access<_Functor*>() = _Base::_M_get_pointer(__source);
 280:/Library/DaisyToolchain/0.2.0/arm/arm-none-eabi/include/c++/10.3.1/bits/std_function.h **** 	    break;
 281:/Library/DaisyToolchain/0.2.0/arm/arm-none-eabi/include/c++/10.3.1/bits/std_function.h **** 
 282:/Library/DaisyToolchain/0.2.0/arm/arm-none-eabi/include/c++/10.3.1/bits/std_function.h **** 	  default:
 283:/Library/DaisyToolchain/0.2.0/arm/arm-none-eabi/include/c++/10.3.1/bits/std_function.h **** 	    _Base::_M_manager(__dest, __source, __op);
 284:/Library/DaisyToolchain/0.2.0/arm/arm-none-eabi/include/c++/10.3.1/bits/std_function.h **** 	  }
 285:/Library/DaisyToolchain/0.2.0/arm/arm-none-eabi/include/c++/10.3.1/bits/std_function.h **** 	return false;
 286:/Library/DaisyToolchain/0.2.0/arm/arm-none-eabi/include/c++/10.3.1/bits/std_function.h ****       }
 213              		.loc 14 286 7 view .LVU27
 214 0006 0020     		movs	r0, #0
 215              	.LVL6:
 216              		.loc 14 286 7 view .LVU28
ARM GAS  /var/folders/9s/8rp0_f2s1n31qbztm3b5_fdh0000gn/T//ccWYl2xP.s 			page 21


 217 0008 7047     		bx	lr
 218              	.LVL7:
 219              	.L8:
  87:/Library/DaisyToolchain/0.2.0/arm/arm-none-eabi/include/c++/10.3.1/bits/std_function.h ****     const void* _M_access() const { return &_M_pod_data[0]; }
 220              		.loc 14 87 37 is_stmt 1 view .LVU29
 275:/Library/DaisyToolchain/0.2.0/arm/arm-none-eabi/include/c++/10.3.1/bits/std_function.h **** 	    break;
 221              		.loc 14 275 43 is_stmt 0 view .LVU30
 222 000a 024B     		ldr	r3, .L11
 223 000c 0360     		str	r3, [r0]
 276:/Library/DaisyToolchain/0.2.0/arm/arm-none-eabi/include/c++/10.3.1/bits/std_function.h **** #endif
 224              		.loc 14 276 6 view .LVU31
 225 000e FAE7     		b	.L10
 226              	.L9:
 227              	.LVL8:
  87:/Library/DaisyToolchain/0.2.0/arm/arm-none-eabi/include/c++/10.3.1/bits/std_function.h ****     const void* _M_access() const { return &_M_pod_data[0]; }
 228              		.loc 14 87 37 is_stmt 1 view .LVU32
 229              	.LBB393:
 230              	.LBI393:
 136:/Library/DaisyToolchain/0.2.0/arm/arm-none-eabi/include/c++/10.3.1/bits/std_function.h **** 	{
 231              		.loc 14 136 2 view .LVU33
 232              	.LBB394:
 233              	.LBB395:
 234              	.LBI395:
  97:/Library/DaisyToolchain/0.2.0/arm/arm-none-eabi/include/c++/10.3.1/bits/std_function.h ****       { return *static_cast<const _Tp*>(_M_access()); }
 235              		.loc 14 97 7 view .LVU34
 236              	.LBB396:
 237              	.LBI396:
  88:/Library/DaisyToolchain/0.2.0/arm/arm-none-eabi/include/c++/10.3.1/bits/std_function.h **** 
 238              		.loc 14 88 17 view .LVU35
 239              	.LBB397:
  88:/Library/DaisyToolchain/0.2.0/arm/arm-none-eabi/include/c++/10.3.1/bits/std_function.h **** 
 240              		.loc 14 88 37 view .LVU36
  88:/Library/DaisyToolchain/0.2.0/arm/arm-none-eabi/include/c++/10.3.1/bits/std_function.h **** 
 241              		.loc 14 88 37 is_stmt 0 view .LVU37
 242              	.LBE397:
 243              	.LBE396:
 244              	.LBE395:
 245              	.LBE394:
 246              	.LBE393:
 279:/Library/DaisyToolchain/0.2.0/arm/arm-none-eabi/include/c++/10.3.1/bits/std_function.h **** 	    break;
 247              		.loc 14 279 36 view .LVU38
 248 0010 0160     		str	r1, [r0]
 280:/Library/DaisyToolchain/0.2.0/arm/arm-none-eabi/include/c++/10.3.1/bits/std_function.h **** 
 249              		.loc 14 280 6 view .LVU39
 250 0012 F8E7     		b	.L10
 251              	.L12:
 252              		.align	2
 253              	.L11:
 254 0014 00000000 		.word	.LANCHOR0
 255              		.cfi_endproc
 256              	.LFE5964:
 258              		.section	.text._ZNSt17_Function_handlerIFviEZ15InitializeSynthvEUliE_E9_M_invokeERKSt9_Any_dataOi,
 259              		.align	1
 260              		.syntax unified
 261              		.thumb
 262              		.thumb_func
 264              	_ZNSt17_Function_handlerIFviEZ15InitializeSynthvEUliE_E9_M_invokeERKSt9_Any_dataOi:
ARM GAS  /var/folders/9s/8rp0_f2s1n31qbztm3b5_fdh0000gn/T//ccWYl2xP.s 			page 22


 265              	.LVL9:
 266              	.LFB5962:
 287:/Library/DaisyToolchain/0.2.0/arm/arm-none-eabi/include/c++/10.3.1/bits/std_function.h **** 
 288:/Library/DaisyToolchain/0.2.0/arm/arm-none-eabi/include/c++/10.3.1/bits/std_function.h ****       static _Res
 289:/Library/DaisyToolchain/0.2.0/arm/arm-none-eabi/include/c++/10.3.1/bits/std_function.h ****       _M_invoke(const _Any_data& __functor, _ArgTypes&&... __args)
 267              		.loc 14 289 7 is_stmt 1 view -0
 268              		.cfi_startproc
 269              		@ args = 0, pretend = 0, frame = 0
 270              		@ frame_needed = 0, uses_anonymous_args = 0
  88:/Library/DaisyToolchain/0.2.0/arm/arm-none-eabi/include/c++/10.3.1/bits/std_function.h **** 
 271              		.loc 14 88 37 view .LVU41
 272              		.loc 14 289 7 is_stmt 0 view .LVU42
 273 0000 10B5     		push	{r4, lr}
 274              		.cfi_def_cfa_offset 8
 275              		.cfi_offset 4, -8
 276              		.cfi_offset 14, -4
 277              	.LBB418:
 278              	.LBB419:
 279              	.LBB420:
 280              	.LBB421:
 281              	.LBB422:
 282              	.LBB423:
 283              	.LBB424:
 284              		.file 15 "VoiceEnvelope.h"
   1:VoiceEnvelope.h **** #pragma once
   2:VoiceEnvelope.h **** #include <algorithm>
   3:VoiceEnvelope.h **** 
   4:VoiceEnvelope.h **** // Simple envelope for each polyphonic voice
   5:VoiceEnvelope.h **** class VoiceEnvelope {
   6:VoiceEnvelope.h **** public:
   7:VoiceEnvelope.h ****     enum EnvState {
   8:VoiceEnvelope.h ****         ENV_IDLE,
   9:VoiceEnvelope.h ****         ENV_ATTACK,
  10:VoiceEnvelope.h ****         ENV_SUSTAIN,
  11:VoiceEnvelope.h ****         ENV_DECAY,
  12:VoiceEnvelope.h ****         ENV_RESET
  13:VoiceEnvelope.h ****     };
  14:VoiceEnvelope.h **** 
  15:VoiceEnvelope.h ****     enum EnvMode {
  16:VoiceEnvelope.h ****         MODE_AR,   // Attack-Release
  17:VoiceEnvelope.h ****         MODE_ASR   // Attack-Sustain-Release
  18:VoiceEnvelope.h ****     };
  19:VoiceEnvelope.h **** 
  20:VoiceEnvelope.h ****     VoiceEnvelope() :
  21:VoiceEnvelope.h ****         current_state(ENV_IDLE),
  22:VoiceEnvelope.h ****         current_value(0.0f),
  23:VoiceEnvelope.h ****         mode(MODE_ASR),
  24:VoiceEnvelope.h ****         attack_curve_coefficient(0.5f),
  25:VoiceEnvelope.h ****         release_curve_coefficient(0.5f),
  26:VoiceEnvelope.h ****         phase(0),
  27:VoiceEnvelope.h ****         decay_start_level(0.0f)
  28:VoiceEnvelope.h ****     {}
  29:VoiceEnvelope.h **** 
  30:VoiceEnvelope.h ****     void Init(float sample_rate) {
  31:VoiceEnvelope.h ****         time_range_2x = 2.0f * 4.0f * sample_rate;  // 4s max time
  32:VoiceEnvelope.h ****         min_attack_time = 0.0002f * sample_rate;    // 0.2ms min attack (much faster for punchiness
  33:VoiceEnvelope.h ****         min_decay_time_a = 0.4f * sample_rate;      // 400ms min decay A
ARM GAS  /var/folders/9s/8rp0_f2s1n31qbztm3b5_fdh0000gn/T//ccWYl2xP.s 			page 23


  34:VoiceEnvelope.h ****         min_decay_time_b = 0.01f * sample_rate;     // 10ms min decay B
  35:VoiceEnvelope.h ****         reset_time = 0.008f * sample_rate;          // 8ms reset time
  36:VoiceEnvelope.h ****         reset_coefficient = 1.0f / reset_time;
  37:VoiceEnvelope.h ****         
  38:VoiceEnvelope.h ****         // Default curves
  39:VoiceEnvelope.h ****         SetAttackCurve(0.5f);
  40:VoiceEnvelope.h ****         SetReleaseCurve(0.5f);
  41:VoiceEnvelope.h ****     }
  42:VoiceEnvelope.h **** 
  43:VoiceEnvelope.h ****     void SetMode(EnvMode new_mode) {
  44:VoiceEnvelope.h ****         mode = new_mode;
 285              		.loc 15 44 14 view .LVU43
 286 0002 224B     		ldr	r3, .L18
 287 0004 0C68     		ldr	r4, [r1]
 288              	.LBE424:
 289              	.LBE423:
 290              	.LBE422:
 291              	.LBE421:
 292              	.LBE420:
 293              	.LBE419:
 294              	.LBI418:
 295              		.file 16 "/Library/DaisyToolchain/0.2.0/arm/arm-none-eabi/include/c++/10.3.1/bits/invoke.h"
   1:/Library/DaisyToolchain/0.2.0/arm/arm-none-eabi/include/c++/10.3.1/bits/invoke.h **** // Implementation of INVOKE -*- C++ -*-
   2:/Library/DaisyToolchain/0.2.0/arm/arm-none-eabi/include/c++/10.3.1/bits/invoke.h **** 
   3:/Library/DaisyToolchain/0.2.0/arm/arm-none-eabi/include/c++/10.3.1/bits/invoke.h **** // Copyright (C) 2016-2020 Free Software Foundation, Inc.
   4:/Library/DaisyToolchain/0.2.0/arm/arm-none-eabi/include/c++/10.3.1/bits/invoke.h **** //
   5:/Library/DaisyToolchain/0.2.0/arm/arm-none-eabi/include/c++/10.3.1/bits/invoke.h **** // This file is part of the GNU ISO C++ Library.  This library is free
   6:/Library/DaisyToolchain/0.2.0/arm/arm-none-eabi/include/c++/10.3.1/bits/invoke.h **** // software; you can redistribute it and/or modify it under the
   7:/Library/DaisyToolchain/0.2.0/arm/arm-none-eabi/include/c++/10.3.1/bits/invoke.h **** // terms of the GNU General Public License as published by the
   8:/Library/DaisyToolchain/0.2.0/arm/arm-none-eabi/include/c++/10.3.1/bits/invoke.h **** // Free Software Foundation; either version 3, or (at your option)
   9:/Library/DaisyToolchain/0.2.0/arm/arm-none-eabi/include/c++/10.3.1/bits/invoke.h **** // any later version.
  10:/Library/DaisyToolchain/0.2.0/arm/arm-none-eabi/include/c++/10.3.1/bits/invoke.h **** 
  11:/Library/DaisyToolchain/0.2.0/arm/arm-none-eabi/include/c++/10.3.1/bits/invoke.h **** // This library is distributed in the hope that it will be useful,
  12:/Library/DaisyToolchain/0.2.0/arm/arm-none-eabi/include/c++/10.3.1/bits/invoke.h **** // but WITHOUT ANY WARRANTY; without even the implied warranty of
  13:/Library/DaisyToolchain/0.2.0/arm/arm-none-eabi/include/c++/10.3.1/bits/invoke.h **** // MERCHANTABILITY or FITNESS FOR A PARTICULAR PURPOSE.  See the
  14:/Library/DaisyToolchain/0.2.0/arm/arm-none-eabi/include/c++/10.3.1/bits/invoke.h **** // GNU General Public License for more details.
  15:/Library/DaisyToolchain/0.2.0/arm/arm-none-eabi/include/c++/10.3.1/bits/invoke.h **** 
  16:/Library/DaisyToolchain/0.2.0/arm/arm-none-eabi/include/c++/10.3.1/bits/invoke.h **** // Under Section 7 of GPL version 3, you are granted additional
  17:/Library/DaisyToolchain/0.2.0/arm/arm-none-eabi/include/c++/10.3.1/bits/invoke.h **** // permissions described in the GCC Runtime Library Exception, version
  18:/Library/DaisyToolchain/0.2.0/arm/arm-none-eabi/include/c++/10.3.1/bits/invoke.h **** // 3.1, as published by the Free Software Foundation.
  19:/Library/DaisyToolchain/0.2.0/arm/arm-none-eabi/include/c++/10.3.1/bits/invoke.h **** 
  20:/Library/DaisyToolchain/0.2.0/arm/arm-none-eabi/include/c++/10.3.1/bits/invoke.h **** // You should have received a copy of the GNU General Public License and
  21:/Library/DaisyToolchain/0.2.0/arm/arm-none-eabi/include/c++/10.3.1/bits/invoke.h **** // a copy of the GCC Runtime Library Exception along with this program;
  22:/Library/DaisyToolchain/0.2.0/arm/arm-none-eabi/include/c++/10.3.1/bits/invoke.h **** // see the files COPYING3 and COPYING.RUNTIME respectively.  If not, see
  23:/Library/DaisyToolchain/0.2.0/arm/arm-none-eabi/include/c++/10.3.1/bits/invoke.h **** // <http://www.gnu.org/licenses/>.
  24:/Library/DaisyToolchain/0.2.0/arm/arm-none-eabi/include/c++/10.3.1/bits/invoke.h **** 
  25:/Library/DaisyToolchain/0.2.0/arm/arm-none-eabi/include/c++/10.3.1/bits/invoke.h **** /** @file include/bits/invoke.h
  26:/Library/DaisyToolchain/0.2.0/arm/arm-none-eabi/include/c++/10.3.1/bits/invoke.h ****  *  This is an internal header file, included by other library headers.
  27:/Library/DaisyToolchain/0.2.0/arm/arm-none-eabi/include/c++/10.3.1/bits/invoke.h ****  *  Do not attempt to use it directly. @headername{functional}
  28:/Library/DaisyToolchain/0.2.0/arm/arm-none-eabi/include/c++/10.3.1/bits/invoke.h ****  */
  29:/Library/DaisyToolchain/0.2.0/arm/arm-none-eabi/include/c++/10.3.1/bits/invoke.h **** 
  30:/Library/DaisyToolchain/0.2.0/arm/arm-none-eabi/include/c++/10.3.1/bits/invoke.h **** #ifndef _GLIBCXX_INVOKE_H
  31:/Library/DaisyToolchain/0.2.0/arm/arm-none-eabi/include/c++/10.3.1/bits/invoke.h **** #define _GLIBCXX_INVOKE_H 1
  32:/Library/DaisyToolchain/0.2.0/arm/arm-none-eabi/include/c++/10.3.1/bits/invoke.h **** 
  33:/Library/DaisyToolchain/0.2.0/arm/arm-none-eabi/include/c++/10.3.1/bits/invoke.h **** #pragma GCC system_header
  34:/Library/DaisyToolchain/0.2.0/arm/arm-none-eabi/include/c++/10.3.1/bits/invoke.h **** 
  35:/Library/DaisyToolchain/0.2.0/arm/arm-none-eabi/include/c++/10.3.1/bits/invoke.h **** #if __cplusplus < 201103L
ARM GAS  /var/folders/9s/8rp0_f2s1n31qbztm3b5_fdh0000gn/T//ccWYl2xP.s 			page 24


  36:/Library/DaisyToolchain/0.2.0/arm/arm-none-eabi/include/c++/10.3.1/bits/invoke.h **** # include <bits/c++0x_warning.h>
  37:/Library/DaisyToolchain/0.2.0/arm/arm-none-eabi/include/c++/10.3.1/bits/invoke.h **** #else
  38:/Library/DaisyToolchain/0.2.0/arm/arm-none-eabi/include/c++/10.3.1/bits/invoke.h **** 
  39:/Library/DaisyToolchain/0.2.0/arm/arm-none-eabi/include/c++/10.3.1/bits/invoke.h **** #include <type_traits>
  40:/Library/DaisyToolchain/0.2.0/arm/arm-none-eabi/include/c++/10.3.1/bits/invoke.h **** 
  41:/Library/DaisyToolchain/0.2.0/arm/arm-none-eabi/include/c++/10.3.1/bits/invoke.h **** namespace std _GLIBCXX_VISIBILITY(default)
  42:/Library/DaisyToolchain/0.2.0/arm/arm-none-eabi/include/c++/10.3.1/bits/invoke.h **** {
  43:/Library/DaisyToolchain/0.2.0/arm/arm-none-eabi/include/c++/10.3.1/bits/invoke.h **** _GLIBCXX_BEGIN_NAMESPACE_VERSION
  44:/Library/DaisyToolchain/0.2.0/arm/arm-none-eabi/include/c++/10.3.1/bits/invoke.h **** 
  45:/Library/DaisyToolchain/0.2.0/arm/arm-none-eabi/include/c++/10.3.1/bits/invoke.h ****   /**
  46:/Library/DaisyToolchain/0.2.0/arm/arm-none-eabi/include/c++/10.3.1/bits/invoke.h ****    *  @addtogroup utilities
  47:/Library/DaisyToolchain/0.2.0/arm/arm-none-eabi/include/c++/10.3.1/bits/invoke.h ****    *  @{
  48:/Library/DaisyToolchain/0.2.0/arm/arm-none-eabi/include/c++/10.3.1/bits/invoke.h ****    */
  49:/Library/DaisyToolchain/0.2.0/arm/arm-none-eabi/include/c++/10.3.1/bits/invoke.h **** 
  50:/Library/DaisyToolchain/0.2.0/arm/arm-none-eabi/include/c++/10.3.1/bits/invoke.h ****   // Used by __invoke_impl instead of std::forward<_Tp> so that a
  51:/Library/DaisyToolchain/0.2.0/arm/arm-none-eabi/include/c++/10.3.1/bits/invoke.h ****   // reference_wrapper is converted to an lvalue-reference.
  52:/Library/DaisyToolchain/0.2.0/arm/arm-none-eabi/include/c++/10.3.1/bits/invoke.h ****   template<typename _Tp, typename _Up = typename __inv_unwrap<_Tp>::type>
  53:/Library/DaisyToolchain/0.2.0/arm/arm-none-eabi/include/c++/10.3.1/bits/invoke.h ****     constexpr _Up&&
  54:/Library/DaisyToolchain/0.2.0/arm/arm-none-eabi/include/c++/10.3.1/bits/invoke.h ****     __invfwd(typename remove_reference<_Tp>::type& __t) noexcept
  55:/Library/DaisyToolchain/0.2.0/arm/arm-none-eabi/include/c++/10.3.1/bits/invoke.h ****     { return static_cast<_Up&&>(__t); }
  56:/Library/DaisyToolchain/0.2.0/arm/arm-none-eabi/include/c++/10.3.1/bits/invoke.h **** 
  57:/Library/DaisyToolchain/0.2.0/arm/arm-none-eabi/include/c++/10.3.1/bits/invoke.h ****   template<typename _Res, typename _Fn, typename... _Args>
  58:/Library/DaisyToolchain/0.2.0/arm/arm-none-eabi/include/c++/10.3.1/bits/invoke.h ****     constexpr _Res
  59:/Library/DaisyToolchain/0.2.0/arm/arm-none-eabi/include/c++/10.3.1/bits/invoke.h ****     __invoke_impl(__invoke_other, _Fn&& __f, _Args&&... __args)
  60:/Library/DaisyToolchain/0.2.0/arm/arm-none-eabi/include/c++/10.3.1/bits/invoke.h ****     { return std::forward<_Fn>(__f)(std::forward<_Args>(__args)...); }
  61:/Library/DaisyToolchain/0.2.0/arm/arm-none-eabi/include/c++/10.3.1/bits/invoke.h **** 
  62:/Library/DaisyToolchain/0.2.0/arm/arm-none-eabi/include/c++/10.3.1/bits/invoke.h ****   template<typename _Res, typename _MemFun, typename _Tp, typename... _Args>
  63:/Library/DaisyToolchain/0.2.0/arm/arm-none-eabi/include/c++/10.3.1/bits/invoke.h ****     constexpr _Res
  64:/Library/DaisyToolchain/0.2.0/arm/arm-none-eabi/include/c++/10.3.1/bits/invoke.h ****     __invoke_impl(__invoke_memfun_ref, _MemFun&& __f, _Tp&& __t,
  65:/Library/DaisyToolchain/0.2.0/arm/arm-none-eabi/include/c++/10.3.1/bits/invoke.h **** 		  _Args&&... __args)
  66:/Library/DaisyToolchain/0.2.0/arm/arm-none-eabi/include/c++/10.3.1/bits/invoke.h ****     { return (__invfwd<_Tp>(__t).*__f)(std::forward<_Args>(__args)...); }
  67:/Library/DaisyToolchain/0.2.0/arm/arm-none-eabi/include/c++/10.3.1/bits/invoke.h **** 
  68:/Library/DaisyToolchain/0.2.0/arm/arm-none-eabi/include/c++/10.3.1/bits/invoke.h ****   template<typename _Res, typename _MemFun, typename _Tp, typename... _Args>
  69:/Library/DaisyToolchain/0.2.0/arm/arm-none-eabi/include/c++/10.3.1/bits/invoke.h ****     constexpr _Res
  70:/Library/DaisyToolchain/0.2.0/arm/arm-none-eabi/include/c++/10.3.1/bits/invoke.h ****     __invoke_impl(__invoke_memfun_deref, _MemFun&& __f, _Tp&& __t,
  71:/Library/DaisyToolchain/0.2.0/arm/arm-none-eabi/include/c++/10.3.1/bits/invoke.h **** 		  _Args&&... __args)
  72:/Library/DaisyToolchain/0.2.0/arm/arm-none-eabi/include/c++/10.3.1/bits/invoke.h ****     {
  73:/Library/DaisyToolchain/0.2.0/arm/arm-none-eabi/include/c++/10.3.1/bits/invoke.h ****       return ((*std::forward<_Tp>(__t)).*__f)(std::forward<_Args>(__args)...);
  74:/Library/DaisyToolchain/0.2.0/arm/arm-none-eabi/include/c++/10.3.1/bits/invoke.h ****     }
  75:/Library/DaisyToolchain/0.2.0/arm/arm-none-eabi/include/c++/10.3.1/bits/invoke.h **** 
  76:/Library/DaisyToolchain/0.2.0/arm/arm-none-eabi/include/c++/10.3.1/bits/invoke.h ****   template<typename _Res, typename _MemPtr, typename _Tp>
  77:/Library/DaisyToolchain/0.2.0/arm/arm-none-eabi/include/c++/10.3.1/bits/invoke.h ****     constexpr _Res
  78:/Library/DaisyToolchain/0.2.0/arm/arm-none-eabi/include/c++/10.3.1/bits/invoke.h ****     __invoke_impl(__invoke_memobj_ref, _MemPtr&& __f, _Tp&& __t)
  79:/Library/DaisyToolchain/0.2.0/arm/arm-none-eabi/include/c++/10.3.1/bits/invoke.h ****     { return __invfwd<_Tp>(__t).*__f; }
  80:/Library/DaisyToolchain/0.2.0/arm/arm-none-eabi/include/c++/10.3.1/bits/invoke.h **** 
  81:/Library/DaisyToolchain/0.2.0/arm/arm-none-eabi/include/c++/10.3.1/bits/invoke.h ****   template<typename _Res, typename _MemPtr, typename _Tp>
  82:/Library/DaisyToolchain/0.2.0/arm/arm-none-eabi/include/c++/10.3.1/bits/invoke.h ****     constexpr _Res
  83:/Library/DaisyToolchain/0.2.0/arm/arm-none-eabi/include/c++/10.3.1/bits/invoke.h ****     __invoke_impl(__invoke_memobj_deref, _MemPtr&& __f, _Tp&& __t)
  84:/Library/DaisyToolchain/0.2.0/arm/arm-none-eabi/include/c++/10.3.1/bits/invoke.h ****     { return (*std::forward<_Tp>(__t)).*__f; }
  85:/Library/DaisyToolchain/0.2.0/arm/arm-none-eabi/include/c++/10.3.1/bits/invoke.h **** 
  86:/Library/DaisyToolchain/0.2.0/arm/arm-none-eabi/include/c++/10.3.1/bits/invoke.h ****   /// Invoke a callable object.
  87:/Library/DaisyToolchain/0.2.0/arm/arm-none-eabi/include/c++/10.3.1/bits/invoke.h ****   template<typename _Callable, typename... _Args>
  88:/Library/DaisyToolchain/0.2.0/arm/arm-none-eabi/include/c++/10.3.1/bits/invoke.h ****     constexpr typename __invoke_result<_Callable, _Args...>::type
  89:/Library/DaisyToolchain/0.2.0/arm/arm-none-eabi/include/c++/10.3.1/bits/invoke.h ****     __invoke(_Callable&& __fn, _Args&&... __args)
  90:/Library/DaisyToolchain/0.2.0/arm/arm-none-eabi/include/c++/10.3.1/bits/invoke.h ****     noexcept(__is_nothrow_invocable<_Callable, _Args...>::value)
  91:/Library/DaisyToolchain/0.2.0/arm/arm-none-eabi/include/c++/10.3.1/bits/invoke.h ****     {
  92:/Library/DaisyToolchain/0.2.0/arm/arm-none-eabi/include/c++/10.3.1/bits/invoke.h ****       using __result = __invoke_result<_Callable, _Args...>;
ARM GAS  /var/folders/9s/8rp0_f2s1n31qbztm3b5_fdh0000gn/T//ccWYl2xP.s 			page 25


  93:/Library/DaisyToolchain/0.2.0/arm/arm-none-eabi/include/c++/10.3.1/bits/invoke.h ****       using __type = typename __result::type;
  94:/Library/DaisyToolchain/0.2.0/arm/arm-none-eabi/include/c++/10.3.1/bits/invoke.h ****       using __tag = typename __result::__invoke_type;
  95:/Library/DaisyToolchain/0.2.0/arm/arm-none-eabi/include/c++/10.3.1/bits/invoke.h ****       return std::__invoke_impl<__type>(__tag{}, std::forward<_Callable>(__fn),
  96:/Library/DaisyToolchain/0.2.0/arm/arm-none-eabi/include/c++/10.3.1/bits/invoke.h **** 					std::forward<_Args>(__args)...);
  97:/Library/DaisyToolchain/0.2.0/arm/arm-none-eabi/include/c++/10.3.1/bits/invoke.h ****     }
  98:/Library/DaisyToolchain/0.2.0/arm/arm-none-eabi/include/c++/10.3.1/bits/invoke.h **** 
  99:/Library/DaisyToolchain/0.2.0/arm/arm-none-eabi/include/c++/10.3.1/bits/invoke.h **** #if __cplusplus >= 201703L
 100:/Library/DaisyToolchain/0.2.0/arm/arm-none-eabi/include/c++/10.3.1/bits/invoke.h ****   // INVOKE<R>: Invoke a callable object and convert the result to R.
 101:/Library/DaisyToolchain/0.2.0/arm/arm-none-eabi/include/c++/10.3.1/bits/invoke.h ****   template<typename _Res, typename _Callable, typename... _Args>
 102:/Library/DaisyToolchain/0.2.0/arm/arm-none-eabi/include/c++/10.3.1/bits/invoke.h ****     constexpr enable_if_t<is_invocable_r_v<_Res, _Callable, _Args...>, _Res>
 103:/Library/DaisyToolchain/0.2.0/arm/arm-none-eabi/include/c++/10.3.1/bits/invoke.h ****     __invoke_r(_Callable&& __fn, _Args&&... __args)
 104:/Library/DaisyToolchain/0.2.0/arm/arm-none-eabi/include/c++/10.3.1/bits/invoke.h ****     noexcept(is_nothrow_invocable_r_v<_Res, _Callable, _Args...>)
 105:/Library/DaisyToolchain/0.2.0/arm/arm-none-eabi/include/c++/10.3.1/bits/invoke.h ****     {
 106:/Library/DaisyToolchain/0.2.0/arm/arm-none-eabi/include/c++/10.3.1/bits/invoke.h ****       using __result = __invoke_result<_Callable, _Args...>;
 107:/Library/DaisyToolchain/0.2.0/arm/arm-none-eabi/include/c++/10.3.1/bits/invoke.h ****       using __type = typename __result::type;
 108:/Library/DaisyToolchain/0.2.0/arm/arm-none-eabi/include/c++/10.3.1/bits/invoke.h ****       using __tag = typename __result::__invoke_type;
 109:/Library/DaisyToolchain/0.2.0/arm/arm-none-eabi/include/c++/10.3.1/bits/invoke.h ****       if constexpr (is_void_v<_Res>)
 110:/Library/DaisyToolchain/0.2.0/arm/arm-none-eabi/include/c++/10.3.1/bits/invoke.h **** 	std::__invoke_impl<__type>(__tag{}, std::forward<_Callable>(__fn),
 111:/Library/DaisyToolchain/0.2.0/arm/arm-none-eabi/include/c++/10.3.1/bits/invoke.h **** 					std::forward<_Args>(__args)...);
 112:/Library/DaisyToolchain/0.2.0/arm/arm-none-eabi/include/c++/10.3.1/bits/invoke.h ****       else
 113:/Library/DaisyToolchain/0.2.0/arm/arm-none-eabi/include/c++/10.3.1/bits/invoke.h **** 	return std::__invoke_impl<__type>(__tag{},
 114:/Library/DaisyToolchain/0.2.0/arm/arm-none-eabi/include/c++/10.3.1/bits/invoke.h **** 					  std::forward<_Callable>(__fn),
 115:/Library/DaisyToolchain/0.2.0/arm/arm-none-eabi/include/c++/10.3.1/bits/invoke.h **** 					  std::forward<_Args>(__args)...);
 116:/Library/DaisyToolchain/0.2.0/arm/arm-none-eabi/include/c++/10.3.1/bits/invoke.h ****     }
 117:/Library/DaisyToolchain/0.2.0/arm/arm-none-eabi/include/c++/10.3.1/bits/invoke.h **** #else // C++11
 118:/Library/DaisyToolchain/0.2.0/arm/arm-none-eabi/include/c++/10.3.1/bits/invoke.h ****   template<typename _Res, typename _Callable, typename... _Args>
 119:/Library/DaisyToolchain/0.2.0/arm/arm-none-eabi/include/c++/10.3.1/bits/invoke.h ****     using __can_invoke_as_void = __enable_if_t<
 120:/Library/DaisyToolchain/0.2.0/arm/arm-none-eabi/include/c++/10.3.1/bits/invoke.h ****       __and_<is_void<_Res>, __is_invocable<_Callable, _Args...>>::value,
 121:/Library/DaisyToolchain/0.2.0/arm/arm-none-eabi/include/c++/10.3.1/bits/invoke.h ****       _Res
 122:/Library/DaisyToolchain/0.2.0/arm/arm-none-eabi/include/c++/10.3.1/bits/invoke.h ****     >;
 123:/Library/DaisyToolchain/0.2.0/arm/arm-none-eabi/include/c++/10.3.1/bits/invoke.h **** 
 124:/Library/DaisyToolchain/0.2.0/arm/arm-none-eabi/include/c++/10.3.1/bits/invoke.h ****   template<typename _Res, typename _Callable, typename... _Args>
 125:/Library/DaisyToolchain/0.2.0/arm/arm-none-eabi/include/c++/10.3.1/bits/invoke.h ****     using __can_invoke_as_nonvoid = __enable_if_t<
 126:/Library/DaisyToolchain/0.2.0/arm/arm-none-eabi/include/c++/10.3.1/bits/invoke.h ****       __and_<__not_<is_void<_Res>>,
 127:/Library/DaisyToolchain/0.2.0/arm/arm-none-eabi/include/c++/10.3.1/bits/invoke.h **** 	     is_convertible<typename __invoke_result<_Callable, _Args...>::type,
 128:/Library/DaisyToolchain/0.2.0/arm/arm-none-eabi/include/c++/10.3.1/bits/invoke.h **** 			    _Res>
 129:/Library/DaisyToolchain/0.2.0/arm/arm-none-eabi/include/c++/10.3.1/bits/invoke.h ****       >::value,
 130:/Library/DaisyToolchain/0.2.0/arm/arm-none-eabi/include/c++/10.3.1/bits/invoke.h ****       _Res
 131:/Library/DaisyToolchain/0.2.0/arm/arm-none-eabi/include/c++/10.3.1/bits/invoke.h ****     >;
 132:/Library/DaisyToolchain/0.2.0/arm/arm-none-eabi/include/c++/10.3.1/bits/invoke.h **** 
 133:/Library/DaisyToolchain/0.2.0/arm/arm-none-eabi/include/c++/10.3.1/bits/invoke.h ****   // INVOKE<R>: Invoke a callable object and convert the result to R.
 134:/Library/DaisyToolchain/0.2.0/arm/arm-none-eabi/include/c++/10.3.1/bits/invoke.h ****   template<typename _Res, typename _Callable, typename... _Args>
 135:/Library/DaisyToolchain/0.2.0/arm/arm-none-eabi/include/c++/10.3.1/bits/invoke.h ****     constexpr __can_invoke_as_nonvoid<_Res, _Callable, _Args...>
 136:/Library/DaisyToolchain/0.2.0/arm/arm-none-eabi/include/c++/10.3.1/bits/invoke.h ****     __invoke_r(_Callable&& __fn, _Args&&... __args)
 137:/Library/DaisyToolchain/0.2.0/arm/arm-none-eabi/include/c++/10.3.1/bits/invoke.h ****     {
 138:/Library/DaisyToolchain/0.2.0/arm/arm-none-eabi/include/c++/10.3.1/bits/invoke.h ****       using __result = __invoke_result<_Callable, _Args...>;
 139:/Library/DaisyToolchain/0.2.0/arm/arm-none-eabi/include/c++/10.3.1/bits/invoke.h ****       using __type = typename __result::type;
 140:/Library/DaisyToolchain/0.2.0/arm/arm-none-eabi/include/c++/10.3.1/bits/invoke.h ****       using __tag = typename __result::__invoke_type;
 141:/Library/DaisyToolchain/0.2.0/arm/arm-none-eabi/include/c++/10.3.1/bits/invoke.h ****       return std::__invoke_impl<__type>(__tag{}, std::forward<_Callable>(__fn),
 142:/Library/DaisyToolchain/0.2.0/arm/arm-none-eabi/include/c++/10.3.1/bits/invoke.h **** 					std::forward<_Args>(__args)...);
 143:/Library/DaisyToolchain/0.2.0/arm/arm-none-eabi/include/c++/10.3.1/bits/invoke.h ****     }
 144:/Library/DaisyToolchain/0.2.0/arm/arm-none-eabi/include/c++/10.3.1/bits/invoke.h **** 
 145:/Library/DaisyToolchain/0.2.0/arm/arm-none-eabi/include/c++/10.3.1/bits/invoke.h ****   // INVOKE<R> when R is cv void
 146:/Library/DaisyToolchain/0.2.0/arm/arm-none-eabi/include/c++/10.3.1/bits/invoke.h ****   template<typename _Res, typename _Callable, typename... _Args>
 147:/Library/DaisyToolchain/0.2.0/arm/arm-none-eabi/include/c++/10.3.1/bits/invoke.h ****     _GLIBCXX14_CONSTEXPR __can_invoke_as_void<_Res, _Callable, _Args...>
 148:/Library/DaisyToolchain/0.2.0/arm/arm-none-eabi/include/c++/10.3.1/bits/invoke.h ****     __invoke_r(_Callable&& __fn, _Args&&... __args)
 296              		.loc 16 148 5 is_stmt 1 view .LVU44
ARM GAS  /var/folders/9s/8rp0_f2s1n31qbztm3b5_fdh0000gn/T//ccWYl2xP.s 			page 26


 297              	.LVL10:
 298              	.LBB445:
 299              	.LBB443:
 300              	.LBI420:
  59:/Library/DaisyToolchain/0.2.0/arm/arm-none-eabi/include/c++/10.3.1/bits/invoke.h ****     { return std::forward<_Fn>(__f)(std::forward<_Args>(__args)...); }
 301              		.loc 16 59 5 view .LVU45
 302              	.LBB441:
 303              	.LBI421:
  12:Interface.cpp **** // Timestamp for each LED when an ARP note triggers (ms)
  13:Interface.cpp **** volatile uint32_t arp_led_timestamps[12] = {0};
  14:Interface.cpp **** // Duration in milliseconds for each LED blink on ARP trigger
  15:Interface.cpp **** const uint32_t ARP_LED_DURATION_MS = 100;
  16:Interface.cpp **** // Exponential smoothing state for LED brightness
  17:Interface.cpp **** float pad_led_levels[12] = {0.0f};
  18:Interface.cpp **** float pad_led_prev_quant[12] = {0.0f};
  19:Interface.cpp **** 
  20:Interface.cpp **** // Hardware controls - Remapped to use ADCs 0-9
  21:Interface.cpp **** Switch button;
  22:Interface.cpp **** AnalogControl delay_time_knob;        // ADC 0 (Pin 15) Delay Time
  23:Interface.cpp **** AnalogControl delay_mix_feedback_knob; // ADC 1 (Pin 16) Delay Mix & Feedback
  24:Interface.cpp **** AnalogControl env_release_knob;       // ADC 2 (Pin 17) Envelope Release
  25:Interface.cpp **** AnalogControl env_attack_knob;        // ADC 3 (Pin 18) Envelope Attack
  26:Interface.cpp **** AnalogControl timbre_knob;            // ADC 4 (Pin 19) Plaits Timbre
  27:Interface.cpp **** AnalogControl harmonics_knob;         // ADC 5 (Pin 20) Plaits Harmonics
  28:Interface.cpp **** AnalogControl morph_knob;             // ADC 6 (Pin 21) Plaits Morph
  29:Interface.cpp **** AnalogControl pitch_knob;             // ADC 7 (Pin 22) Plaits Pitch
  30:Interface.cpp **** AnalogControl arp_pad;               // ADC 8 (Pin 23) Arpeggiator Toggle Pad
  31:Interface.cpp **** AnalogControl model_prev_pad;        // ADC 9 (Pin 24) Model Select Previous Pad
  32:Interface.cpp **** AnalogControl model_next_pad;        // ADC 10 (Pin 25) Model Select Next Pad
  33:Interface.cpp **** AnalogControl mod_wheel;             // ADC 11 (Pin 28) Mod Wheel Control
  34:Interface.cpp **** 
  35:Interface.cpp **** // CPU usage monitoring
  36:Interface.cpp **** float sample_rate = 48000.0f; 
  37:Interface.cpp **** volatile uint32_t avg_elapsed_us = 0; 
  38:Interface.cpp **** volatile bool update_display = false; 
  39:Interface.cpp **** // Output Level monitoring
  40:Interface.cpp **** volatile float smoothed_output_level = 0.0f; 
  41:Interface.cpp **** 
  42:Interface.cpp **** // Bootloader configuration
  43:Interface.cpp **** const uint32_t BOOTLOADER_HOLD_TIME_MS = 3000; // Hold button for 3 seconds
  44:Interface.cpp **** uint32_t button_held_start_time = 0;
  45:Interface.cpp **** bool button_was_pressed = false;
  46:Interface.cpp **** 
  47:Interface.cpp **** // --- Initialization functions ---
  48:Interface.cpp **** void InitializeHardware() {
  49:Interface.cpp ****     // Initialize Daisy Seed hardware
  50:Interface.cpp ****     hw.Configure();
  51:Interface.cpp ****     hw.Init();
  52:Interface.cpp ****     hw.SetAudioBlockSize(BLOCK_SIZE);
  53:Interface.cpp ****     sample_rate = hw.AudioSampleRate();
  54:Interface.cpp ****     hw.SetAudioSampleRate(SaiHandle::Config::SampleRate::SAI_48KHZ); // Using 48kHz now
  55:Interface.cpp ****     sample_rate = hw.AudioSampleRate(); // Update sample_rate after setting it
  56:Interface.cpp **** }
  57:Interface.cpp **** 
  58:Interface.cpp **** void InitializeControls() {
  59:Interface.cpp ****     // --- Configure ADCs (12 Channels) ---
  60:Interface.cpp ****     AdcChannelConfig adc_config[12];
ARM GAS  /var/folders/9s/8rp0_f2s1n31qbztm3b5_fdh0000gn/T//ccWYl2xP.s 			page 27


  61:Interface.cpp ****     adc_config[0].InitSingle(hw.GetPin(15)); // ADC 0: Delay Time
  62:Interface.cpp ****     adc_config[1].InitSingle(hw.GetPin(16)); // ADC 1: Delay Mix & Feedback
  63:Interface.cpp ****     adc_config[2].InitSingle(hw.GetPin(17)); // ADC 2: Envelope Release
  64:Interface.cpp ****     adc_config[3].InitSingle(hw.GetPin(18)); // ADC 3: Envelope Attack
  65:Interface.cpp ****     adc_config[4].InitSingle(hw.GetPin(19)); // ADC 4: Plaits Timbre
  66:Interface.cpp ****     adc_config[5].InitSingle(hw.GetPin(20)); // ADC 5: Plaits Harmonics
  67:Interface.cpp ****     adc_config[6].InitSingle(hw.GetPin(21)); // ADC 6: Plaits Morph
  68:Interface.cpp ****     adc_config[7].InitSingle(hw.GetPin(22)); // ADC 7: Plaits Pitch
  69:Interface.cpp ****     adc_config[8].InitSingle(hw.GetPin(23)); // ADC 8: Arpeggiator Toggle Pad
  70:Interface.cpp ****     adc_config[9].InitSingle(hw.GetPin(24)); // ADC 9: Model Select Previous Pad
  71:Interface.cpp ****     adc_config[10].InitSingle(hw.GetPin(25)); // ADC 10: Model Select Next Pad
  72:Interface.cpp ****     adc_config[11].InitSingle(hw.GetPin(28)); // ADC 11: Mod Wheel Control
  73:Interface.cpp ****     hw.adc.Init(adc_config, 12); // Initialize 12 channels
  74:Interface.cpp ****     hw.adc.Start();
  75:Interface.cpp **** 
  76:Interface.cpp ****     // --- Initialize Controls (Matches new mapping) ---
  77:Interface.cpp ****     delay_time_knob.Init(hw.adc.GetPtr(0), sample_rate);        // ADC 0
  78:Interface.cpp ****     delay_mix_feedback_knob.Init(hw.adc.GetPtr(1), sample_rate); // ADC 1
  79:Interface.cpp ****     env_release_knob.Init(hw.adc.GetPtr(2), sample_rate);       // ADC 2
  80:Interface.cpp ****     env_attack_knob.Init(hw.adc.GetPtr(3), sample_rate);        // ADC 3
  81:Interface.cpp ****     timbre_knob.Init(hw.adc.GetPtr(4), sample_rate);            // ADC 4
  82:Interface.cpp ****     harmonics_knob.Init(hw.adc.GetPtr(5), sample_rate);         // ADC 5
  83:Interface.cpp ****     morph_knob.Init(hw.adc.GetPtr(6), sample_rate);             // ADC 6
  84:Interface.cpp ****     pitch_knob.Init(hw.adc.GetPtr(7), sample_rate);             // ADC 7
  85:Interface.cpp ****     arp_pad.Init(hw.adc.GetPtr(8), sample_rate);               // ADC 8
  86:Interface.cpp ****     model_prev_pad.Init(hw.adc.GetPtr(9), sample_rate);        // ADC 9
  87:Interface.cpp ****     model_next_pad.Init(hw.adc.GetPtr(10), sample_rate);       // ADC 10
  88:Interface.cpp ****     mod_wheel.Init(hw.adc.GetPtr(11), sample_rate);            // ADC 11
  89:Interface.cpp **** 
  90:Interface.cpp ****     // --- Initialize Buttons ---
  91:Interface.cpp ****     button.Init(hw.GetPin(27), sample_rate / 48.0f);
  92:Interface.cpp **** }
  93:Interface.cpp **** 
  94:Interface.cpp **** void InitializeTouchSensor() {
  95:Interface.cpp ****     // --- Initialize MPR121 ---
  96:Interface.cpp ****     Mpr121::Config touch_config;
  97:Interface.cpp ****     touch_config.Defaults();
  98:Interface.cpp ****     if (!touch_sensor.Init(touch_config)) {
  99:Interface.cpp ****         while(1) { hw.SetLed(true); System::Delay(50); hw.SetLed(false); System::Delay(50); }
 100:Interface.cpp ****     }
 101:Interface.cpp ****     // Override default thresholds for more sensitivity
 102:Interface.cpp ****     touch_sensor.SetThresholds(6, 3); 
 103:Interface.cpp **** }
 104:Interface.cpp **** 
 105:Interface.cpp **** void InitializeDelay() {
 106:Interface.cpp ****     // --- Initialize Echo Delay --- 
 107:Interface.cpp ****     delay.Init(sample_rate); 
 108:Interface.cpp ****     delay.SetLagTime(0.02f);         // Short lag for time changes
 109:Interface.cpp ****     delay.SetDelayTime(0.3f, true); // 300ms delay, set immediately
 110:Interface.cpp ****     delay.SetFeedback(0.5f);         // 50% feedback
 111:Interface.cpp **** }
 112:Interface.cpp **** 
 113:Interface.cpp **** // Initialize GPIO and light up all touch pad LEDs
 114:Interface.cpp **** void InitializeTouchLEDs() {
 115:Interface.cpp ****     GPIO::Config led_cfg;
 116:Interface.cpp ****     led_cfg.mode  = GPIO::Mode::OUTPUT;
 117:Interface.cpp ****     led_cfg.pull  = GPIO::Pull::NOPULL;
ARM GAS  /var/folders/9s/8rp0_f2s1n31qbztm3b5_fdh0000gn/T//ccWYl2xP.s 			page 28


 118:Interface.cpp ****     led_cfg.speed = GPIO::Speed::LOW;
 119:Interface.cpp **** 
 120:Interface.cpp ****     Pin led_pins[12] = {
 121:Interface.cpp ****         seed::D14, seed::D13, seed::D10, seed::D9,
 122:Interface.cpp ****         seed::D8,  seed::D7,  seed::D6,  seed::D5,
 123:Interface.cpp ****         seed::D4,  seed::D3,  seed::D2,  seed::D1
 124:Interface.cpp ****     };
 125:Interface.cpp **** 
 126:Interface.cpp ****     for(int i = 0; i < 12; ++i) {
 127:Interface.cpp ****         // Initialize LED object with software PWM at ~1kHz
 128:Interface.cpp ****         touch_leds[i].Init(led_pins[i], false, 1000.0f);
 129:Interface.cpp ****         touch_leds[i].Set(1.0f); // initially on for test
 130:Interface.cpp ****     }
 131:Interface.cpp **** }
 132:Interface.cpp **** 
 133:Interface.cpp **** void InitializeSynth() {
 134:Interface.cpp ****     InitializeHardware();
 135:Interface.cpp ****     InitializeVoices(); // Call function from Polyphony.cpp
 136:Interface.cpp ****     InitializeControls();
 137:Interface.cpp ****     InitializeTouchSensor();
 138:Interface.cpp ****     InitializeDelay();
 139:Interface.cpp ****     InitializeTouchLEDs();
 140:Interface.cpp ****     cpu_meter.Init(sample_rate, BLOCK_SIZE); // Initialize the CPU Load Meter
 141:Interface.cpp ****     
 142:Interface.cpp ****     // --- Initialize Arpeggiator ---
 143:Interface.cpp ****     arp.Init(sample_rate);
 144:Interface.cpp ****     // Default arp tempo for audible stepping
 145:Interface.cpp ****     arp.SetMainTempo(8.0f);
 146:Interface.cpp ****     // Route arpeggiator triggers into Plaits voices
 147:Interface.cpp ****     arp.SetNoteTriggerCallback([](int pad_idx) {
 304              		.loc 9 147 32 view .LVU46
 305              	.LBB439:
 148:Interface.cpp ****         // Monophonic ARP: set AR mode and retrigger envelope without full reset
 149:Interface.cpp ****         voice_envelopes[0].SetMode(VoiceEnvelope::MODE_AR);
 306              		.loc 9 149 9 view .LVU47
 307              	.LBB426:
 308              	.LBI423:
  43:VoiceEnvelope.h ****         mode = new_mode;
 309              		.loc 15 43 10 view .LVU48
 310              	.LBB425:
 311              		.loc 15 44 9 view .LVU49
 312              		.loc 15 44 14 is_stmt 0 view .LVU50
 313 0006 0021     		movs	r1, #0
 314              	.LVL11:
 315              		.loc 15 44 14 view .LVU51
 316 0008 5970     		strb	r1, [r3, #1]
 317              	.LVL12:
 318              		.loc 15 44 14 view .LVU52
 319              	.LBE425:
 320              	.LBE426:
 150:Interface.cpp ****         // Assign the new note to voice 0
 151:Interface.cpp ****         float note = kTouchMidiNotes[pad_idx];
 321              		.loc 9 151 9 is_stmt 1 view .LVU53
 152:Interface.cpp ****         voice_note[0] = note;
 322              		.loc 9 152 9 view .LVU54
 151:Interface.cpp ****         voice_note[0] = note;
 323              		.loc 9 151 15 is_stmt 0 view .LVU55
ARM GAS  /var/folders/9s/8rp0_f2s1n31qbztm3b5_fdh0000gn/T//ccWYl2xP.s 			page 29


 324 000a 2149     		ldr	r1, .L18+4
 325 000c 01EB8401 		add	r1, r1, r4, lsl #2
 326              	.LVL13:
 327              		.loc 9 152 23 view .LVU56
 328 0010 0868     		ldr	r0, [r1]	@ float
 329              	.LVL14:
 330              		.loc 9 152 23 view .LVU57
 331 0012 2049     		ldr	r1, .L18+8
 332              	.LVL15:
 333              		.loc 9 152 23 view .LVU58
 334 0014 0860     		str	r0, [r1]	@ float
 153:Interface.cpp ****         voice_active[0] = true;
 335              		.loc 9 153 9 is_stmt 1 view .LVU59
 336              		.loc 9 153 25 is_stmt 0 view .LVU60
 337 0016 0121     		movs	r1, #1
 338 0018 1F48     		ldr	r0, .L18+12
 339              	.LVL16:
 340              		.loc 9 153 25 view .LVU61
 341 001a 0170     		strb	r1, [r0]
 154:Interface.cpp ****         // Start the envelope attack; release phase follows based on knob
 155:Interface.cpp ****         voice_envelopes[0].Trigger();
 342              		.loc 9 155 9 is_stmt 1 view .LVU62
 343              	.LVL17:
 344              	.LBB427:
 345              	.LBI427:
  45:VoiceEnvelope.h ****     }
  46:VoiceEnvelope.h **** 
  47:VoiceEnvelope.h ****     // Original combined shape method for backward compatibility
  48:VoiceEnvelope.h ****     void SetShape(float value) {
  49:VoiceEnvelope.h ****         float curve;
  50:VoiceEnvelope.h ****         if (value < 0.5f) {
  51:VoiceEnvelope.h ****             attack_time = min_attack_time;
  52:VoiceEnvelope.h ****             decay_time = static_cast<size_t>(time_range_2x * value * value) + min_decay_time_a;
  53:VoiceEnvelope.h ****             curve = value * 0.15f;
  54:VoiceEnvelope.h ****         } else {
  55:VoiceEnvelope.h ****             float norm_val = 2.0f * value - 1.0f;
  56:VoiceEnvelope.h ****             attack_time = static_cast<size_t>(time_range_2x * norm_val * norm_val) + min_attack_tim
  57:VoiceEnvelope.h ****             decay_time = static_cast<size_t>(time_range_2x * (1.0f - value * value)) + min_decay_ti
  58:VoiceEnvelope.h ****             curve = 0.5f;
  59:VoiceEnvelope.h ****         }
  60:VoiceEnvelope.h ****         attack_coefficient = 1.0f / attack_time;
  61:VoiceEnvelope.h ****         decay_coefficient = 1.0f / decay_time;
  62:VoiceEnvelope.h ****         SetAttackCurve(curve);
  63:VoiceEnvelope.h ****         SetReleaseCurve(curve);
  64:VoiceEnvelope.h ****     }
  65:VoiceEnvelope.h ****     
  66:VoiceEnvelope.h ****     // New methods for separate attack and release control
  67:VoiceEnvelope.h ****     void SetAttackTime(float value) {
  68:VoiceEnvelope.h ****         // Map 0-1 value to attack time (exponential scaling)
  69:VoiceEnvelope.h ****         // value for finer control at shorter settings
  70:VoiceEnvelope.h ****         float value_cubed = value * value * value;
  71:VoiceEnvelope.h ****         
  72:VoiceEnvelope.h ****         // Special handling for super punchy attacks at low values
  73:VoiceEnvelope.h ****         if (value < 0.1f) {
  74:VoiceEnvelope.h ****             // Extra fast attacks at the beginning of the range
  75:VoiceEnvelope.h ****             attack_time = static_cast<size_t>(min_attack_time + 
  76:VoiceEnvelope.h ****                                            (min_attack_time * 9.0f * value / 0.1f));
ARM GAS  /var/folders/9s/8rp0_f2s1n31qbztm3b5_fdh0000gn/T//ccWYl2xP.s 			page 30


  77:VoiceEnvelope.h ****         } else {
  78:VoiceEnvelope.h ****             // Normal range from 2ms to 4 seconds
  79:VoiceEnvelope.h ****             attack_time = static_cast<size_t>(0.002f * time_range_2x/8.0f + 
  80:VoiceEnvelope.h ****                                            (time_range_2x * 0.5f * value_cubed));
  81:VoiceEnvelope.h ****         }
  82:VoiceEnvelope.h ****         
  83:VoiceEnvelope.h ****         attack_coefficient = 1.0f / attack_time;
  84:VoiceEnvelope.h ****         
  85:VoiceEnvelope.h ****         // Make curve more exponential for faster attacks
  86:VoiceEnvelope.h ****         if (value < 0.3f) {
  87:VoiceEnvelope.h ****             // More exponential curve for punchy attacks
  88:VoiceEnvelope.h ****             SetAttackCurve(0.7f + (0.3f - value)); // 0.7 to 1.0 range for punchier curve
  89:VoiceEnvelope.h ****         } else {
  90:VoiceEnvelope.h ****             // Normal curve
  91:VoiceEnvelope.h ****             SetAttackCurve(0.5f);
  92:VoiceEnvelope.h ****         }
  93:VoiceEnvelope.h ****     }
  94:VoiceEnvelope.h ****     
  95:VoiceEnvelope.h ****     void SetReleaseTime(float value) {
  96:VoiceEnvelope.h ****         // Map 0-1 value to release time (exponential scaling)
  97:VoiceEnvelope.h ****         // value for finer control at shorter settings
  98:VoiceEnvelope.h ****         float value_cubed = value * value * value;
  99:VoiceEnvelope.h ****         
 100:VoiceEnvelope.h ****         // Release time ranges from min_decay_time_b to 8 seconds
 101:VoiceEnvelope.h ****         decay_time = static_cast<size_t>(min_decay_time_b + 
 102:VoiceEnvelope.h ****                                         (time_range_2x * value_cubed));
 103:VoiceEnvelope.h ****         decay_coefficient = 1.0f / decay_time;
 104:VoiceEnvelope.h ****         
 105:VoiceEnvelope.h ****         // Use consistent release curve regardless of release time
 106:VoiceEnvelope.h ****         SetReleaseCurve(0.5f);
 107:VoiceEnvelope.h ****     }
 108:VoiceEnvelope.h ****     
 109:VoiceEnvelope.h ****     void SetAttackCurve(float value) {
 110:VoiceEnvelope.h ****         float cu = value - 0.5f;
 111:VoiceEnvelope.h ****         attack_curve_coefficient = 128.0f * cu * cu;
 112:VoiceEnvelope.h ****     }
 113:VoiceEnvelope.h ****     
 114:VoiceEnvelope.h ****     void SetReleaseCurve(float value) {
 115:VoiceEnvelope.h ****         float cu = value - 0.5f;
 116:VoiceEnvelope.h ****         release_curve_coefficient = 128.0f * cu * cu;
 117:VoiceEnvelope.h ****     }
 118:VoiceEnvelope.h **** 
 119:VoiceEnvelope.h ****     void Trigger() {
 346              		.loc 15 119 10 view .LVU63
 347              	.LBB428:
 120:VoiceEnvelope.h ****         switch (current_state) {
 348              		.loc 15 120 9 view .LVU64
 349              		.loc 15 120 17 is_stmt 0 view .LVU65
 350 001c 1878     		ldrb	r0, [r3]	@ zero_extendqisi2
 351              		.loc 15 120 9 view .LVU66
 352 001e A0B1     		cbz	r0, .L14
 353 0020 0328     		cmp	r0, #3
 354 0022 15D0     		beq	.L15
 355              	.L16:
 356              	.LVL18:
 357              		.loc 15 120 9 view .LVU67
 358              	.LBE428:
ARM GAS  /var/folders/9s/8rp0_f2s1n31qbztm3b5_fdh0000gn/T//ccWYl2xP.s 			page 31


 359              	.LBE427:
 156:Interface.cpp ****         // Send patched trigger to Plaits engine only for percussive modes
 157:Interface.cpp ****         if (current_engine_index > 7) {
 360              		.loc 9 157 9 is_stmt 1 view .LVU68
 361              		.loc 9 157 34 is_stmt 0 view .LVU69
 362 0024 1D4B     		ldr	r3, .L18+16
 363 0026 1B68     		ldr	r3, [r3]
 364              		.loc 9 157 9 view .LVU70
 365 0028 072B     		cmp	r3, #7
 366 002a 06DD     		ble	.L17
 158:Interface.cpp ****             modulations[0].trigger = 1.0f;
 367              		.loc 9 158 13 is_stmt 1 view .LVU71
 368              		.loc 9 158 36 is_stmt 0 view .LVU72
 369 002c 1C4B     		ldr	r3, .L18+20
 370 002e 4FF07E51 		mov	r1, #1065353216
 371 0032 9961     		str	r1, [r3, #24]	@ float
 159:Interface.cpp ****             modulations[0].trigger_patched = true;
 372              		.loc 9 159 13 is_stmt 1 view .LVU73
 373              		.loc 9 159 44 is_stmt 0 view .LVU74
 374 0034 0121     		movs	r1, #1
 375 0036 83F82310 		strb	r1, [r3, #35]
 376              	.L17:
 160:Interface.cpp ****         }
 161:Interface.cpp ****         // Record the timestamp for ARP LED blink (pad 11led[0], etc.)
 162:Interface.cpp ****         arp_led_timestamps[11 - pad_idx] = hw.system.GetNow();
 377              		.loc 9 162 9 is_stmt 1 view .LVU75
 378              		.loc 9 162 60 is_stmt 0 view .LVU76
 379 003a FFF7FEFF 		bl	_ZN5daisy6System6GetNowEv
 380              	.LVL19:
 381              		.loc 9 162 31 view .LVU77
 382 003e C4F10B04 		rsb	r4, r4, #11
 383              	.LVL20:
 384              		.loc 9 162 42 view .LVU78
 385 0042 184B     		ldr	r3, .L18+24
 386 0044 43F82400 		str	r0, [r3, r4, lsl #2]
 387              	.LVL21:
 388              		.loc 9 162 42 view .LVU79
 389              	.LBE439:
 390              	.LBE441:
 391              	.LBE443:
 392              	.LBE445:
 393              	.LBE418:
 290:/Library/DaisyToolchain/0.2.0/arm/arm-none-eabi/include/c++/10.3.1/bits/std_function.h ****       {
 291:/Library/DaisyToolchain/0.2.0/arm/arm-none-eabi/include/c++/10.3.1/bits/std_function.h **** 	return std::__invoke_r<_Res>(*_Base::_M_get_pointer(__functor),
 292:/Library/DaisyToolchain/0.2.0/arm/arm-none-eabi/include/c++/10.3.1/bits/std_function.h **** 				     std::forward<_ArgTypes>(__args)...);
 293:/Library/DaisyToolchain/0.2.0/arm/arm-none-eabi/include/c++/10.3.1/bits/std_function.h ****       }
 394              		.loc 14 293 7 view .LVU80
 395 0048 10BD     		pop	{r4, pc}
 396              	.LVL22:
 397              	.L14:
 398              	.LBB447:
 399              	.LBB446:
 400              	.LBB444:
 401              	.LBB442:
 402              	.LBB440:
 403              	.LBB438:
 404              	.LBB437:
ARM GAS  /var/folders/9s/8rp0_f2s1n31qbztm3b5_fdh0000gn/T//ccWYl2xP.s 			page 32


 121:VoiceEnvelope.h ****             case ENV_IDLE:
 405              		.loc 15 121 13 is_stmt 1 view .LVU81
 122:VoiceEnvelope.h ****                 current_state = ENV_ATTACK;
 406              		.loc 15 122 17 view .LVU82
 407              		.loc 15 122 31 is_stmt 0 view .LVU83
 408 004a 1970     		strb	r1, [r3]
 123:VoiceEnvelope.h ****                 phase = 0;
 409              		.loc 15 123 17 is_stmt 1 view .LVU84
 410              		.loc 15 123 23 is_stmt 0 view .LVU85
 411 004c D863     		str	r0, [r3, #60]
 124:VoiceEnvelope.h ****                 break;
 412              		.loc 15 124 17 is_stmt 1 view .LVU86
 413 004e E9E7     		b	.L16
 414              	.L15:
 415              	.LVL23:
 416              	.LBB429:
 417              	.LBI429:
 119:VoiceEnvelope.h ****         switch (current_state) {
 418              		.loc 15 119 10 view .LVU87
 419              	.LBB430:
 125:VoiceEnvelope.h ****             case ENV_DECAY:
 420              		.loc 15 125 13 view .LVU88
 126:VoiceEnvelope.h ****                 current_state = ENV_ATTACK;
 421              		.loc 15 126 17 view .LVU89
 422              	.LBB431:
 423              	.LBB432:
 127:VoiceEnvelope.h ****                 phase = CalculateAttackPhase(current_value);
 128:VoiceEnvelope.h ****                 break;
 129:VoiceEnvelope.h ****             default:
 130:VoiceEnvelope.h ****                 break;
 131:VoiceEnvelope.h ****         }
 132:VoiceEnvelope.h ****     }
 133:VoiceEnvelope.h **** 
 134:VoiceEnvelope.h ****     void Release() {
 135:VoiceEnvelope.h ****         switch (current_state) {
 136:VoiceEnvelope.h ****             case ENV_ATTACK:
 137:VoiceEnvelope.h ****                 // Preserve the attack curve character when transitioning to release
 138:VoiceEnvelope.h ****                 // This decouples release time from affecting attack punchiness
 139:VoiceEnvelope.h ****                 current_value = CalculateAttackAmplitude(static_cast<float>(phase) * attack_coeffic
 140:VoiceEnvelope.h ****                 phase = 0; // Always start release from beginning, preserving the current level
 141:VoiceEnvelope.h ****                 current_state = ENV_DECAY;
 142:VoiceEnvelope.h ****                 break;
 143:VoiceEnvelope.h ****             case ENV_SUSTAIN:
 144:VoiceEnvelope.h ****                 phase = 0;
 145:VoiceEnvelope.h ****                 current_state = ENV_DECAY;
 146:VoiceEnvelope.h ****                 break;
 147:VoiceEnvelope.h ****             default:
 148:VoiceEnvelope.h ****                 break;
 149:VoiceEnvelope.h ****         }
 150:VoiceEnvelope.h ****     }
 151:VoiceEnvelope.h **** 
 152:VoiceEnvelope.h ****     float Process() {
 153:VoiceEnvelope.h ****         float ph;
 154:VoiceEnvelope.h ****         switch (current_state) {
 155:VoiceEnvelope.h ****             case ENV_IDLE:
 156:VoiceEnvelope.h ****                 current_value = 0.0f;
 157:VoiceEnvelope.h ****                 break;
ARM GAS  /var/folders/9s/8rp0_f2s1n31qbztm3b5_fdh0000gn/T//ccWYl2xP.s 			page 33


 158:VoiceEnvelope.h **** 
 159:VoiceEnvelope.h ****             case ENV_ATTACK:
 160:VoiceEnvelope.h ****                 ph = static_cast<float>(phase) * attack_coefficient;
 161:VoiceEnvelope.h ****                 current_value = CalculateAttackAmplitude(ph);
 162:VoiceEnvelope.h ****                 if (phase >= attack_time) {
 163:VoiceEnvelope.h ****                     current_state = (mode == MODE_AR) ? ENV_DECAY : ENV_SUSTAIN;
 164:VoiceEnvelope.h ****                     phase = 0;
 165:VoiceEnvelope.h ****                 } else {
 166:VoiceEnvelope.h ****                     phase++;
 167:VoiceEnvelope.h ****                 }
 168:VoiceEnvelope.h ****                 break;
 169:VoiceEnvelope.h **** 
 170:VoiceEnvelope.h ****             case ENV_SUSTAIN:
 171:VoiceEnvelope.h ****                 current_value = 1.0f;
 172:VoiceEnvelope.h ****                 break;
 173:VoiceEnvelope.h **** 
 174:VoiceEnvelope.h ****             case ENV_DECAY:
 175:VoiceEnvelope.h ****                 // Use current_value as starting point for decay
 176:VoiceEnvelope.h ****                 // This preserves the correct level from attack phase
 177:VoiceEnvelope.h ****                 ph = static_cast<float>(phase) * decay_coefficient;
 178:VoiceEnvelope.h ****                 if (phase == 0) {
 179:VoiceEnvelope.h ****                     // On first frame, use current value
 180:VoiceEnvelope.h ****                     decay_start_level = current_value;
 181:VoiceEnvelope.h ****                 }
 182:VoiceEnvelope.h ****                 current_value = decay_start_level * (1.0f - ph) / (1.0f + release_curve_coefficient
 183:VoiceEnvelope.h ****                 
 184:VoiceEnvelope.h ****                 if (phase >= decay_time) {
 185:VoiceEnvelope.h ****                     current_state = ENV_IDLE;
 186:VoiceEnvelope.h ****                     phase = 0;
 187:VoiceEnvelope.h ****                 } else {
 188:VoiceEnvelope.h ****                     phase++;
 189:VoiceEnvelope.h ****                 }
 190:VoiceEnvelope.h ****                 break;
 191:VoiceEnvelope.h **** 
 192:VoiceEnvelope.h ****             case ENV_RESET:
 193:VoiceEnvelope.h ****                 current_value = reset_target - static_cast<float>(phase) * reset_coefficient;
 194:VoiceEnvelope.h ****                 if (phase >= reset_time) {
 195:VoiceEnvelope.h ****                     current_state = ENV_IDLE;
 196:VoiceEnvelope.h ****                     phase = 0;
 197:VoiceEnvelope.h ****                 } else {
 198:VoiceEnvelope.h ****                     phase++;
 199:VoiceEnvelope.h ****                 }
 200:VoiceEnvelope.h ****                 break;
 201:VoiceEnvelope.h ****         }
 202:VoiceEnvelope.h ****         return std::min(std::max(current_value, 0.0f), 1.0f);
 203:VoiceEnvelope.h ****     }
 204:VoiceEnvelope.h **** 
 205:VoiceEnvelope.h ****     void Reset() {
 206:VoiceEnvelope.h ****         if (current_state == ENV_IDLE) return;
 207:VoiceEnvelope.h ****         current_state = ENV_RESET;
 208:VoiceEnvelope.h ****         reset_target = current_value;
 209:VoiceEnvelope.h ****         phase = 0;
 210:VoiceEnvelope.h ****     }
 211:VoiceEnvelope.h **** 
 212:VoiceEnvelope.h ****     bool IsActive() const {
 213:VoiceEnvelope.h ****         return current_state != ENV_IDLE;
 214:VoiceEnvelope.h ****     }
ARM GAS  /var/folders/9s/8rp0_f2s1n31qbztm3b5_fdh0000gn/T//ccWYl2xP.s 			page 34


 215:VoiceEnvelope.h **** 
 216:VoiceEnvelope.h **** private:
 217:VoiceEnvelope.h ****     float CalculateAttackAmplitude(float ph) {
 218:VoiceEnvelope.h ****         return ph / (1.0f + attack_curve_coefficient * (1.0f - ph));
 219:VoiceEnvelope.h ****     }
 220:VoiceEnvelope.h **** 
 221:VoiceEnvelope.h ****     float CalculateDecayAmplitude(float ph) {
 222:VoiceEnvelope.h ****         return (1.0f - ph) / (1.0f + release_curve_coefficient * ph);
 223:VoiceEnvelope.h ****     }
 224:VoiceEnvelope.h **** 
 225:VoiceEnvelope.h ****     size_t CalculateAttackPhase(float amp) {
 226:VoiceEnvelope.h ****         return static_cast<size_t>(roundf(attack_time * amp * (1.0f + attack_curve_coefficient) / (
 424              		.loc 15 226 69 is_stmt 0 view .LVU90
 425 0050 B7EE007A 		vmov.f32	s14, #1.0e+0
 426              	.LBE432:
 427              	.LBE431:
 127:VoiceEnvelope.h ****                 phase = CalculateAttackPhase(current_value);
 428              		.loc 15 127 45 view .LVU91
 429 0054 D3ED015A 		vldr.32	s11, [r3, #4]
 430              	.LBB435:
 431              	.LBB433:
 432              		.loc 15 226 71 view .LVU92
 433 0058 93ED026A 		vldr.32	s12, [r3, #8]
 434              		.loc 15 226 55 view .LVU93
 435 005c D3ED0D7A 		vldr.32	s15, [r3, #52]	@ int
 436              		.loc 15 226 69 view .LVU94
 437 0060 76EE076A 		vadd.f32	s13, s12, s14
 438              	.LBE433:
 439              	.LBE435:
 126:VoiceEnvelope.h ****                 current_state = ENV_ATTACK;
 440              		.loc 15 126 31 view .LVU95
 441 0064 1970     		strb	r1, [r3]
 127:VoiceEnvelope.h ****                 phase = CalculateAttackPhase(current_value);
 442              		.loc 15 127 17 is_stmt 1 view .LVU96
 443              	.LVL24:
 444              	.LBB436:
 445              	.LBI431:
 225:VoiceEnvelope.h ****         return static_cast<size_t>(roundf(attack_time * amp * (1.0f + attack_curve_coefficient) / (
 446              		.loc 15 225 12 view .LVU97
 447              	.LBB434:
 448              		.loc 15 226 9 view .LVU98
 449              		.loc 15 226 105 is_stmt 0 view .LVU99
 450 0066 A5EE867A 		vfma.f32	s14, s11, s12
 451              		.loc 15 226 55 view .LVU100
 452 006a F8EE677A 		vcvt.f32.u32	s15, s15
 453 006e 67EEA57A 		vmul.f32	s15, s15, s11
 454              		.loc 15 226 61 view .LVU101
 455 0072 67EEA67A 		vmul.f32	s15, s15, s13
 456              		.loc 15 226 105 view .LVU102
 457 0076 F0EE476A 		vmov.f32	s13, s14
 458              		.loc 15 226 42 view .LVU103
 459 007a 87EEA67A 		vdiv.f32	s14, s15, s13
 460 007e F8FE477A 		vrinta.f32	s15, s14
 461              	.LVL25:
 462              		.loc 15 226 139 view .LVU104
 463 0082 FCEEE77A 		vcvt.u32.f32	s15, s15
 464 0086 C3ED0F7A 		vstr.32	s15, [r3, #60]	@ int
ARM GAS  /var/folders/9s/8rp0_f2s1n31qbztm3b5_fdh0000gn/T//ccWYl2xP.s 			page 35


 465              	.LBE434:
 466              	.LBE436:
 128:VoiceEnvelope.h ****             default:
 467              		.loc 15 128 17 is_stmt 1 view .LVU105
 468 008a CBE7     		b	.L16
 469              	.L19:
 470              		.align	2
 471              	.L18:
 472 008c 00000000 		.word	voice_envelopes
 473 0090 00000000 		.word	kTouchMidiNotes
 474 0094 00000000 		.word	voice_note
 475 0098 00000000 		.word	voice_active
 476 009c 00000000 		.word	current_engine_index
 477 00a0 00000000 		.word	modulations
 478 00a4 00000000 		.word	.LANCHOR1
 479              	.LBE430:
 480              	.LBE429:
 481              	.LBE437:
 482              	.LBE438:
 483              	.LBE440:
 484              	.LBE442:
 485              	.LBE444:
 486              	.LBE446:
 487              	.LBE447:
 488              		.cfi_endproc
 489              	.LFE5962:
 491              		.section	.text._ZNSt14_Function_baseD2Ev,"axG",%progbits,_ZNSt14_Function_baseD5Ev,comdat
 492              		.align	1
 493              		.weak	_ZNSt14_Function_baseD2Ev
 494              		.syntax unified
 495              		.thumb
 496              		.thumb_func
 498              	_ZNSt14_Function_baseD2Ev:
 499              	.LVL26:
 500              	.LFB5276:
 242:/Library/DaisyToolchain/0.2.0/arm/arm-none-eabi/include/c++/10.3.1/bits/std_function.h ****     {
 501              		.loc 14 242 5 view -0
 502              		.cfi_startproc
 503              		@ args = 0, pretend = 0, frame = 0
 504              		@ frame_needed = 0, uses_anonymous_args = 0
 505              	.LBB448:
 244:/Library/DaisyToolchain/0.2.0/arm/arm-none-eabi/include/c++/10.3.1/bits/std_function.h **** 	_M_manager(_M_functor, _M_functor, __destroy_functor);
 506              		.loc 14 244 7 view .LVU107
 244:/Library/DaisyToolchain/0.2.0/arm/arm-none-eabi/include/c++/10.3.1/bits/std_function.h **** 	_M_manager(_M_functor, _M_functor, __destroy_functor);
 507              		.loc 14 244 11 is_stmt 0 view .LVU108
 508 0000 8368     		ldr	r3, [r0, #8]
 509              	.LBE448:
 242:/Library/DaisyToolchain/0.2.0/arm/arm-none-eabi/include/c++/10.3.1/bits/std_function.h ****     {
 510              		.loc 14 242 5 view .LVU109
 511 0002 10B5     		push	{r4, lr}
 512              		.cfi_def_cfa_offset 8
 513              		.cfi_offset 4, -8
 514              		.cfi_offset 14, -4
 242:/Library/DaisyToolchain/0.2.0/arm/arm-none-eabi/include/c++/10.3.1/bits/std_function.h ****     {
 515              		.loc 14 242 5 view .LVU110
 516 0004 0446     		mov	r4, r0
 517              	.LBB449:
ARM GAS  /var/folders/9s/8rp0_f2s1n31qbztm3b5_fdh0000gn/T//ccWYl2xP.s 			page 36


 244:/Library/DaisyToolchain/0.2.0/arm/arm-none-eabi/include/c++/10.3.1/bits/std_function.h **** 	_M_manager(_M_functor, _M_functor, __destroy_functor);
 518              		.loc 14 244 7 view .LVU111
 519 0006 13B1     		cbz	r3, .L21
 245:/Library/DaisyToolchain/0.2.0/arm/arm-none-eabi/include/c++/10.3.1/bits/std_function.h ****     }
 520              		.loc 14 245 2 is_stmt 1 view .LVU112
 245:/Library/DaisyToolchain/0.2.0/arm/arm-none-eabi/include/c++/10.3.1/bits/std_function.h ****     }
 521              		.loc 14 245 12 is_stmt 0 view .LVU113
 522 0008 0322     		movs	r2, #3
 523 000a 0146     		mov	r1, r0
 524 000c 9847     		blx	r3
 525              	.LVL27:
 526              	.L21:
 245:/Library/DaisyToolchain/0.2.0/arm/arm-none-eabi/include/c++/10.3.1/bits/std_function.h ****     }
 527              		.loc 14 245 12 view .LVU114
 528              	.LBE449:
 246:/Library/DaisyToolchain/0.2.0/arm/arm-none-eabi/include/c++/10.3.1/bits/std_function.h **** 
 529              		.loc 14 246 5 view .LVU115
 530 000e 2046     		mov	r0, r4
 531 0010 10BD     		pop	{r4, pc}
 246:/Library/DaisyToolchain/0.2.0/arm/arm-none-eabi/include/c++/10.3.1/bits/std_function.h **** 
 532              		.loc 14 246 5 view .LVU116
 533              		.cfi_endproc
 534              	.LFE5276:
 536              		.weak	_ZNSt14_Function_baseD1Ev
 537              		.thumb_set _ZNSt14_Function_baseD1Ev,_ZNSt14_Function_baseD2Ev
 538              		.section	.text._ZN11ArpeggiatorD2Ev,"axG",%progbits,_ZN11ArpeggiatorD5Ev,comdat
 539              		.align	1
 540              		.weak	_ZN11ArpeggiatorD2Ev
 541              		.syntax unified
 542              		.thumb
 543              		.thumb_func
 545              	_ZN11ArpeggiatorD2Ev:
 546              	.LVL28:
 547              	.LFB6148:
 548              		.file 17 "Arpeggiator.h"
   1:Arpeggiator.h **** #ifndef ARPEGGIATOR_H
   2:Arpeggiator.h **** #define ARPEGGIATOR_H
   3:Arpeggiator.h **** 
   4:Arpeggiator.h **** #include "daisy_seed.h"
   5:Arpeggiator.h **** #include "daisysp.h"
   6:Arpeggiator.h **** #include <functional>
   7:Arpeggiator.h **** 
   8:Arpeggiator.h **** using namespace daisy;
   9:Arpeggiator.h **** using namespace daisysp;
  10:Arpeggiator.h **** 
  11:Arpeggiator.h **** class Arpeggiator {
 549              		.loc 17 11 7 is_stmt 1 view -0
 550              		.cfi_startproc
 551              		@ args = 0, pretend = 0, frame = 0
 552              		@ frame_needed = 0, uses_anonymous_args = 0
 553              	.LBB450:
 554              	.LBI450:
 294:/Library/DaisyToolchain/0.2.0/arm/arm-none-eabi/include/c++/10.3.1/bits/std_function.h ****     };
 295:/Library/DaisyToolchain/0.2.0/arm/arm-none-eabi/include/c++/10.3.1/bits/std_function.h **** 
 296:/Library/DaisyToolchain/0.2.0/arm/arm-none-eabi/include/c++/10.3.1/bits/std_function.h ****   /**
 297:/Library/DaisyToolchain/0.2.0/arm/arm-none-eabi/include/c++/10.3.1/bits/std_function.h ****    *  @brief Primary class template for std::function.
 298:/Library/DaisyToolchain/0.2.0/arm/arm-none-eabi/include/c++/10.3.1/bits/std_function.h ****    *  @ingroup functors
ARM GAS  /var/folders/9s/8rp0_f2s1n31qbztm3b5_fdh0000gn/T//ccWYl2xP.s 			page 37


 299:/Library/DaisyToolchain/0.2.0/arm/arm-none-eabi/include/c++/10.3.1/bits/std_function.h ****    *
 300:/Library/DaisyToolchain/0.2.0/arm/arm-none-eabi/include/c++/10.3.1/bits/std_function.h ****    *  Polymorphic function wrapper.
 301:/Library/DaisyToolchain/0.2.0/arm/arm-none-eabi/include/c++/10.3.1/bits/std_function.h ****    */
 302:/Library/DaisyToolchain/0.2.0/arm/arm-none-eabi/include/c++/10.3.1/bits/std_function.h ****   template<typename _Res, typename... _ArgTypes>
 303:/Library/DaisyToolchain/0.2.0/arm/arm-none-eabi/include/c++/10.3.1/bits/std_function.h ****     class function<_Res(_ArgTypes...)>
 555              		.loc 14 303 11 view .LVU118
 556              	.LBE450:
 557              		.loc 17 11 7 is_stmt 0 view .LVU119
 558 0000 10B5     		push	{r4, lr}
 559              		.cfi_def_cfa_offset 8
 560              		.cfi_offset 4, -8
 561              		.cfi_offset 14, -4
 562              		.loc 17 11 7 view .LVU120
 563 0002 0446     		mov	r4, r0
 564              	.LBB452:
 565              	.LBB451:
 566              		.loc 14 303 11 view .LVU121
 567 0004 2830     		adds	r0, r0, #40
 568              	.LVL29:
 569              		.loc 14 303 11 view .LVU122
 570 0006 FFF7FEFF 		bl	_ZNSt14_Function_baseD2Ev
 571              	.LVL30:
 572              		.loc 14 303 11 view .LVU123
 573              	.LBE451:
 574              	.LBE452:
 575              	.LBB453:
 576              	.LBI453:
 577              		.file 18 "lib/DaisySP/Source/Utility/metro.h"
   1:lib/DaisySP/Source/Utility/metro.h **** /*
   2:lib/DaisySP/Source/Utility/metro.h **** Copyright (c) 2020 Electrosmith, Corp
   3:lib/DaisySP/Source/Utility/metro.h **** 
   4:lib/DaisySP/Source/Utility/metro.h **** Use of this source code is governed by an MIT-style
   5:lib/DaisySP/Source/Utility/metro.h **** license that can be found in the LICENSE file or at
   6:lib/DaisySP/Source/Utility/metro.h **** https://opensource.org/licenses/MIT.
   7:lib/DaisySP/Source/Utility/metro.h **** */
   8:lib/DaisySP/Source/Utility/metro.h **** 
   9:lib/DaisySP/Source/Utility/metro.h **** #pragma once
  10:lib/DaisySP/Source/Utility/metro.h **** #ifndef DSY_METRO_H
  11:lib/DaisySP/Source/Utility/metro.h **** #define DSY_METRO_H
  12:lib/DaisySP/Source/Utility/metro.h **** #include <stdint.h>
  13:lib/DaisySP/Source/Utility/metro.h **** #ifdef __cplusplus
  14:lib/DaisySP/Source/Utility/metro.h **** 
  15:lib/DaisySP/Source/Utility/metro.h **** namespace daisysp
  16:lib/DaisySP/Source/Utility/metro.h **** {
  17:lib/DaisySP/Source/Utility/metro.h **** /** Creates a clock signal at a specific frequency.
  18:lib/DaisySP/Source/Utility/metro.h **** */
  19:lib/DaisySP/Source/Utility/metro.h **** class Metro
  20:lib/DaisySP/Source/Utility/metro.h **** {
  21:lib/DaisySP/Source/Utility/metro.h ****   public:
  22:lib/DaisySP/Source/Utility/metro.h ****     Metro() {}
  23:lib/DaisySP/Source/Utility/metro.h ****     ~Metro() {}
 578              		.loc 18 23 5 is_stmt 1 view .LVU124
 579              		.loc 18 23 5 is_stmt 0 view .LVU125
 580              	.LBE453:
 581              		.loc 17 11 7 view .LVU126
 582 000a 2046     		mov	r0, r4
 583 000c 10BD     		pop	{r4, pc}
ARM GAS  /var/folders/9s/8rp0_f2s1n31qbztm3b5_fdh0000gn/T//ccWYl2xP.s 			page 38


 584              		.loc 17 11 7 view .LVU127
 585              		.cfi_endproc
 586              	.LFE6148:
 588              		.weak	_ZN11ArpeggiatorD1Ev
 589              		.thumb_set _ZN11ArpeggiatorD1Ev,_ZN11ArpeggiatorD2Ev
 590              		.section	.text._Z18InitializeHardwarev,"ax",%progbits
 591              		.align	1
 592              		.global	_Z18InitializeHardwarev
 593              		.syntax unified
 594              		.thumb
 595              		.thumb_func
 597              	_Z18InitializeHardwarev:
 598              	.LFB5343:
  48:Interface.cpp ****     // Initialize Daisy Seed hardware
 599              		.loc 9 48 27 is_stmt 1 view -0
 600              		.cfi_startproc
 601              		@ args = 0, pretend = 0, frame = 0
 602              		@ frame_needed = 0, uses_anonymous_args = 0
  50:Interface.cpp ****     hw.Init();
 603              		.loc 9 50 5 view .LVU129
  48:Interface.cpp ****     // Initialize Daisy Seed hardware
 604              		.loc 9 48 27 is_stmt 0 view .LVU130
 605 0000 10B5     		push	{r4, lr}
 606              		.cfi_def_cfa_offset 8
 607              		.cfi_offset 4, -8
 608              		.cfi_offset 14, -4
  50:Interface.cpp ****     hw.Init();
 609              		.loc 9 50 17 view .LVU131
 610 0002 0D48     		ldr	r0, .L27
 611 0004 FFF7FEFF 		bl	_ZN5daisy9DaisySeed9ConfigureEv
 612              	.LVL31:
  51:Interface.cpp ****     hw.SetAudioBlockSize(BLOCK_SIZE);
 613              		.loc 9 51 5 is_stmt 1 view .LVU132
  51:Interface.cpp ****     hw.SetAudioBlockSize(BLOCK_SIZE);
 614              		.loc 9 51 12 is_stmt 0 view .LVU133
 615 0008 0021     		movs	r1, #0
 616 000a 0B48     		ldr	r0, .L27
 617 000c FFF7FEFF 		bl	_ZN5daisy9DaisySeed4InitEb
 618              	.LVL32:
  52:Interface.cpp ****     sample_rate = hw.AudioSampleRate();
 619              		.loc 9 52 5 is_stmt 1 view .LVU134
  52:Interface.cpp ****     sample_rate = hw.AudioSampleRate();
 620              		.loc 9 52 25 is_stmt 0 view .LVU135
 621 0010 1021     		movs	r1, #16
 622 0012 0948     		ldr	r0, .L27
 623 0014 FFF7FEFF 		bl	_ZN5daisy9DaisySeed17SetAudioBlockSizeEj
 624              	.LVL33:
  53:Interface.cpp ****     hw.SetAudioSampleRate(SaiHandle::Config::SampleRate::SAI_48KHZ); // Using 48kHz now
 625              		.loc 9 53 5 is_stmt 1 view .LVU136
  53:Interface.cpp ****     hw.SetAudioSampleRate(SaiHandle::Config::SampleRate::SAI_48KHZ); // Using 48kHz now
 626              		.loc 9 53 17 is_stmt 0 view .LVU137
 627 0018 084C     		ldr	r4, .L27+4
  53:Interface.cpp ****     hw.SetAudioSampleRate(SaiHandle::Config::SampleRate::SAI_48KHZ); // Using 48kHz now
 628              		.loc 9 53 37 view .LVU138
 629 001a 0748     		ldr	r0, .L27
 630 001c FFF7FEFF 		bl	_ZN5daisy9DaisySeed15AudioSampleRateEv
 631              	.LVL34:
ARM GAS  /var/folders/9s/8rp0_f2s1n31qbztm3b5_fdh0000gn/T//ccWYl2xP.s 			page 39


  54:Interface.cpp ****     sample_rate = hw.AudioSampleRate(); // Update sample_rate after setting it
 632              		.loc 9 54 26 view .LVU139
 633 0020 0321     		movs	r1, #3
 634 0022 0548     		ldr	r0, .L27
  53:Interface.cpp ****     hw.SetAudioSampleRate(SaiHandle::Config::SampleRate::SAI_48KHZ); // Using 48kHz now
 635              		.loc 9 53 17 view .LVU140
 636 0024 84ED000A 		vstr.32	s0, [r4]
  54:Interface.cpp ****     sample_rate = hw.AudioSampleRate(); // Update sample_rate after setting it
 637              		.loc 9 54 5 is_stmt 1 view .LVU141
  54:Interface.cpp ****     sample_rate = hw.AudioSampleRate(); // Update sample_rate after setting it
 638              		.loc 9 54 26 is_stmt 0 view .LVU142
 639 0028 FFF7FEFF 		bl	_ZN5daisy9DaisySeed18SetAudioSampleRateENS_9SaiHandle6Config10SampleRateE
 640              	.LVL35:
  55:Interface.cpp **** }
 641              		.loc 9 55 5 is_stmt 1 view .LVU143
  55:Interface.cpp **** }
 642              		.loc 9 55 37 is_stmt 0 view .LVU144
 643 002c 0248     		ldr	r0, .L27
 644 002e FFF7FEFF 		bl	_ZN5daisy9DaisySeed15AudioSampleRateEv
 645              	.LVL36:
  55:Interface.cpp **** }
 646              		.loc 9 55 17 view .LVU145
 647 0032 84ED000A 		vstr.32	s0, [r4]
  56:Interface.cpp **** 
 648              		.loc 9 56 1 view .LVU146
 649 0036 10BD     		pop	{r4, pc}
 650              	.L28:
 651              		.align	2
 652              	.L27:
 653 0038 00000000 		.word	.LANCHOR2
 654 003c 00000000 		.word	.LANCHOR3
 655              		.cfi_endproc
 656              	.LFE5343:
 658              		.section	.text._Z18InitializeControlsv,"ax",%progbits
 659              		.align	1
 660              		.global	_Z18InitializeControlsv
 661              		.syntax unified
 662              		.thumb
 663              		.thumb_func
 665              	_Z18InitializeControlsv:
 666              	.LFB5344:
  58:Interface.cpp ****     // --- Configure ADCs (12 Channels) ---
 667              		.loc 9 58 27 is_stmt 1 view -0
 668              		.cfi_startproc
 669              		@ args = 0, pretend = 0, frame = 256
 670              		@ frame_needed = 0, uses_anonymous_args = 0
  60:Interface.cpp ****     adc_config[0].InitSingle(hw.GetPin(15)); // ADC 0: Delay Time
 671              		.loc 9 60 5 view .LVU148
  61:Interface.cpp ****     adc_config[1].InitSingle(hw.GetPin(16)); // ADC 1: Delay Mix & Feedback
 672              		.loc 9 61 5 view .LVU149
  58:Interface.cpp ****     // --- Configure ADCs (12 Channels) ---
 673              		.loc 9 58 27 is_stmt 0 view .LVU150
 674 0000 30B5     		push	{r4, r5, lr}
 675              		.cfi_def_cfa_offset 12
 676              		.cfi_offset 4, -12
 677              		.cfi_offset 5, -8
 678              		.cfi_offset 14, -4
ARM GAS  /var/folders/9s/8rp0_f2s1n31qbztm3b5_fdh0000gn/T//ccWYl2xP.s 			page 40


 679 0002 2DED028B 		vpush.64	{d8}
 680              		.cfi_def_cfa_offset 20
 681              		.cfi_offset 80, -20
 682              		.cfi_offset 81, -16
 683 0006 C1B0     		sub	sp, sp, #260
 684              		.cfi_def_cfa_offset 280
  61:Interface.cpp ****     adc_config[1].InitSingle(hw.GetPin(16)); // ADC 1: Delay Mix & Feedback
 685              		.loc 9 61 29 view .LVU151
 686 0008 0F20     		movs	r0, #15
 687 000a FFF7FEFF 		bl	_ZN5daisy9DaisySeed6GetPinEh
 688              	.LVL37:
  73:Interface.cpp ****     hw.adc.Start();
 689              		.loc 9 73 16 view .LVU152
 690 000e 9D4C     		ldr	r4, .L30
  61:Interface.cpp ****     adc_config[1].InitSingle(hw.GetPin(16)); // ADC 1: Delay Mix & Feedback
 691              		.loc 9 61 29 view .LVU153
 692 0010 ADF80000 		strh	r0, [sp]	@ movhi
 693 0014 0DA8     		add	r0, sp, #52
 694 0016 0099     		ldr	r1, [sp]
 695 0018 FFF7FEFF 		bl	_ZN5daisy16AdcChannelConfig10InitSingleE12dsy_gpio_pin
 696              	.LVL38:
  62:Interface.cpp ****     adc_config[2].InitSingle(hw.GetPin(17)); // ADC 2: Envelope Release
 697              		.loc 9 62 5 is_stmt 1 view .LVU154
  62:Interface.cpp ****     adc_config[2].InitSingle(hw.GetPin(17)); // ADC 2: Envelope Release
 698              		.loc 9 62 29 is_stmt 0 view .LVU155
 699 001c 1020     		movs	r0, #16
 700 001e FFF7FEFF 		bl	_ZN5daisy9DaisySeed6GetPinEh
 701              	.LVL39:
 702 0022 ADF80400 		strh	r0, [sp, #4]	@ movhi
 703 0026 0199     		ldr	r1, [sp, #4]
 704 0028 0DF14500 		add	r0, sp, #69
 705 002c FFF7FEFF 		bl	_ZN5daisy16AdcChannelConfig10InitSingleE12dsy_gpio_pin
 706              	.LVL40:
  63:Interface.cpp ****     adc_config[3].InitSingle(hw.GetPin(18)); // ADC 3: Envelope Attack
 707              		.loc 9 63 5 is_stmt 1 view .LVU156
  63:Interface.cpp ****     adc_config[3].InitSingle(hw.GetPin(18)); // ADC 3: Envelope Attack
 708              		.loc 9 63 29 is_stmt 0 view .LVU157
 709 0030 1120     		movs	r0, #17
 710 0032 FFF7FEFF 		bl	_ZN5daisy9DaisySeed6GetPinEh
 711              	.LVL41:
 712 0036 ADF80800 		strh	r0, [sp, #8]	@ movhi
 713 003a 0299     		ldr	r1, [sp, #8]
 714 003c 0DF15600 		add	r0, sp, #86
 715 0040 FFF7FEFF 		bl	_ZN5daisy16AdcChannelConfig10InitSingleE12dsy_gpio_pin
 716              	.LVL42:
  64:Interface.cpp ****     adc_config[4].InitSingle(hw.GetPin(19)); // ADC 4: Plaits Timbre
 717              		.loc 9 64 5 is_stmt 1 view .LVU158
  64:Interface.cpp ****     adc_config[4].InitSingle(hw.GetPin(19)); // ADC 4: Plaits Timbre
 718              		.loc 9 64 29 is_stmt 0 view .LVU159
 719 0044 1220     		movs	r0, #18
 720 0046 FFF7FEFF 		bl	_ZN5daisy9DaisySeed6GetPinEh
 721              	.LVL43:
 722 004a ADF80C00 		strh	r0, [sp, #12]	@ movhi
 723 004e 0399     		ldr	r1, [sp, #12]
 724 0050 0DF16700 		add	r0, sp, #103
 725 0054 FFF7FEFF 		bl	_ZN5daisy16AdcChannelConfig10InitSingleE12dsy_gpio_pin
 726              	.LVL44:
ARM GAS  /var/folders/9s/8rp0_f2s1n31qbztm3b5_fdh0000gn/T//ccWYl2xP.s 			page 41


  65:Interface.cpp ****     adc_config[5].InitSingle(hw.GetPin(20)); // ADC 5: Plaits Harmonics
 727              		.loc 9 65 5 is_stmt 1 view .LVU160
  65:Interface.cpp ****     adc_config[5].InitSingle(hw.GetPin(20)); // ADC 5: Plaits Harmonics
 728              		.loc 9 65 29 is_stmt 0 view .LVU161
 729 0058 1320     		movs	r0, #19
 730 005a FFF7FEFF 		bl	_ZN5daisy9DaisySeed6GetPinEh
 731              	.LVL45:
 732 005e ADF81000 		strh	r0, [sp, #16]	@ movhi
 733 0062 0499     		ldr	r1, [sp, #16]
 734 0064 1EA8     		add	r0, sp, #120
 735 0066 FFF7FEFF 		bl	_ZN5daisy16AdcChannelConfig10InitSingleE12dsy_gpio_pin
 736              	.LVL46:
  66:Interface.cpp ****     adc_config[6].InitSingle(hw.GetPin(21)); // ADC 6: Plaits Morph
 737              		.loc 9 66 5 is_stmt 1 view .LVU162
  66:Interface.cpp ****     adc_config[6].InitSingle(hw.GetPin(21)); // ADC 6: Plaits Morph
 738              		.loc 9 66 29 is_stmt 0 view .LVU163
 739 006a 1420     		movs	r0, #20
 740 006c FFF7FEFF 		bl	_ZN5daisy9DaisySeed6GetPinEh
 741              	.LVL47:
 742 0070 ADF81400 		strh	r0, [sp, #20]	@ movhi
 743 0074 0599     		ldr	r1, [sp, #20]
 744 0076 0DF18900 		add	r0, sp, #137
 745 007a FFF7FEFF 		bl	_ZN5daisy16AdcChannelConfig10InitSingleE12dsy_gpio_pin
 746              	.LVL48:
  67:Interface.cpp ****     adc_config[7].InitSingle(hw.GetPin(22)); // ADC 7: Plaits Pitch
 747              		.loc 9 67 5 is_stmt 1 view .LVU164
  67:Interface.cpp ****     adc_config[7].InitSingle(hw.GetPin(22)); // ADC 7: Plaits Pitch
 748              		.loc 9 67 29 is_stmt 0 view .LVU165
 749 007e 1520     		movs	r0, #21
 750 0080 FFF7FEFF 		bl	_ZN5daisy9DaisySeed6GetPinEh
 751              	.LVL49:
 752 0084 ADF81800 		strh	r0, [sp, #24]	@ movhi
 753 0088 0699     		ldr	r1, [sp, #24]
 754 008a 0DF19A00 		add	r0, sp, #154
 755 008e FFF7FEFF 		bl	_ZN5daisy16AdcChannelConfig10InitSingleE12dsy_gpio_pin
 756              	.LVL50:
  68:Interface.cpp ****     adc_config[8].InitSingle(hw.GetPin(23)); // ADC 8: Arpeggiator Toggle Pad
 757              		.loc 9 68 5 is_stmt 1 view .LVU166
  68:Interface.cpp ****     adc_config[8].InitSingle(hw.GetPin(23)); // ADC 8: Arpeggiator Toggle Pad
 758              		.loc 9 68 29 is_stmt 0 view .LVU167
 759 0092 1620     		movs	r0, #22
 760 0094 FFF7FEFF 		bl	_ZN5daisy9DaisySeed6GetPinEh
 761              	.LVL51:
 762 0098 ADF81C00 		strh	r0, [sp, #28]	@ movhi
 763 009c 0799     		ldr	r1, [sp, #28]
 764 009e 0DF1AB00 		add	r0, sp, #171
 765 00a2 FFF7FEFF 		bl	_ZN5daisy16AdcChannelConfig10InitSingleE12dsy_gpio_pin
 766              	.LVL52:
  69:Interface.cpp ****     adc_config[9].InitSingle(hw.GetPin(24)); // ADC 9: Model Select Previous Pad
 767              		.loc 9 69 5 is_stmt 1 view .LVU168
  69:Interface.cpp ****     adc_config[9].InitSingle(hw.GetPin(24)); // ADC 9: Model Select Previous Pad
 768              		.loc 9 69 29 is_stmt 0 view .LVU169
 769 00a6 1720     		movs	r0, #23
 770 00a8 FFF7FEFF 		bl	_ZN5daisy9DaisySeed6GetPinEh
 771              	.LVL53:
 772 00ac ADF82000 		strh	r0, [sp, #32]	@ movhi
 773 00b0 0899     		ldr	r1, [sp, #32]
ARM GAS  /var/folders/9s/8rp0_f2s1n31qbztm3b5_fdh0000gn/T//ccWYl2xP.s 			page 42


 774 00b2 2FA8     		add	r0, sp, #188
 775 00b4 FFF7FEFF 		bl	_ZN5daisy16AdcChannelConfig10InitSingleE12dsy_gpio_pin
 776              	.LVL54:
  70:Interface.cpp ****     adc_config[10].InitSingle(hw.GetPin(25)); // ADC 10: Model Select Next Pad
 777              		.loc 9 70 5 is_stmt 1 view .LVU170
  70:Interface.cpp ****     adc_config[10].InitSingle(hw.GetPin(25)); // ADC 10: Model Select Next Pad
 778              		.loc 9 70 29 is_stmt 0 view .LVU171
 779 00b8 1820     		movs	r0, #24
 780 00ba FFF7FEFF 		bl	_ZN5daisy9DaisySeed6GetPinEh
 781              	.LVL55:
 782 00be ADF82400 		strh	r0, [sp, #36]	@ movhi
 783 00c2 0999     		ldr	r1, [sp, #36]
 784 00c4 0DF1CD00 		add	r0, sp, #205
 785 00c8 FFF7FEFF 		bl	_ZN5daisy16AdcChannelConfig10InitSingleE12dsy_gpio_pin
 786              	.LVL56:
  71:Interface.cpp ****     adc_config[11].InitSingle(hw.GetPin(28)); // ADC 11: Mod Wheel Control
 787              		.loc 9 71 5 is_stmt 1 view .LVU172
  71:Interface.cpp ****     adc_config[11].InitSingle(hw.GetPin(28)); // ADC 11: Mod Wheel Control
 788              		.loc 9 71 30 is_stmt 0 view .LVU173
 789 00cc 1920     		movs	r0, #25
 790 00ce FFF7FEFF 		bl	_ZN5daisy9DaisySeed6GetPinEh
 791              	.LVL57:
 792 00d2 ADF82800 		strh	r0, [sp, #40]	@ movhi
 793 00d6 0A99     		ldr	r1, [sp, #40]
 794 00d8 0DF1DE00 		add	r0, sp, #222
 795 00dc FFF7FEFF 		bl	_ZN5daisy16AdcChannelConfig10InitSingleE12dsy_gpio_pin
 796              	.LVL58:
  72:Interface.cpp ****     hw.adc.Init(adc_config, 12); // Initialize 12 channels
 797              		.loc 9 72 5 is_stmt 1 view .LVU174
  72:Interface.cpp ****     hw.adc.Init(adc_config, 12); // Initialize 12 channels
 798              		.loc 9 72 30 is_stmt 0 view .LVU175
 799 00e0 1C20     		movs	r0, #28
 800 00e2 FFF7FEFF 		bl	_ZN5daisy9DaisySeed6GetPinEh
 801              	.LVL59:
 802 00e6 ADF82C00 		strh	r0, [sp, #44]	@ movhi
 803 00ea 0B99     		ldr	r1, [sp, #44]
 804 00ec 0DF1EF00 		add	r0, sp, #239
 805 00f0 FFF7FEFF 		bl	_ZN5daisy16AdcChannelConfig10InitSingleE12dsy_gpio_pin
 806              	.LVL60:
  73:Interface.cpp ****     hw.adc.Start();
 807              		.loc 9 73 5 is_stmt 1 view .LVU176
  73:Interface.cpp ****     hw.adc.Start();
 808              		.loc 9 73 16 is_stmt 0 view .LVU177
 809 00f4 0423     		movs	r3, #4
 810 00f6 0C22     		movs	r2, #12
 811 00f8 0DA9     		add	r1, sp, #52
 812 00fa 2046     		mov	r0, r4
  77:Interface.cpp ****     delay_mix_feedback_knob.Init(hw.adc.GetPtr(1), sample_rate); // ADC 1
 813              		.loc 9 77 25 view .LVU178
 814 00fc 624D     		ldr	r5, .L30+4
  73:Interface.cpp ****     hw.adc.Start();
 815              		.loc 9 73 16 view .LVU179
 816 00fe FFF7FEFF 		bl	_ZN5daisy9AdcHandle4InitEPNS_16AdcChannelConfigEjNS0_12OverSamplingE
 817              	.LVL61:
  74:Interface.cpp **** 
 818              		.loc 9 74 5 is_stmt 1 view .LVU180
  74:Interface.cpp **** 
ARM GAS  /var/folders/9s/8rp0_f2s1n31qbztm3b5_fdh0000gn/T//ccWYl2xP.s 			page 43


 819              		.loc 9 74 17 is_stmt 0 view .LVU181
 820 0102 2046     		mov	r0, r4
 821 0104 FFF7FEFF 		bl	_ZN5daisy9AdcHandle5StartEv
 822              	.LVL62:
  77:Interface.cpp ****     delay_mix_feedback_knob.Init(hw.adc.GetPtr(1), sample_rate); // ADC 1
 823              		.loc 9 77 5 is_stmt 1 view .LVU182
  77:Interface.cpp ****     delay_mix_feedback_knob.Init(hw.adc.GetPtr(1), sample_rate); // ADC 1
 824              		.loc 9 77 25 is_stmt 0 view .LVU183
 825 0108 0021     		movs	r1, #0
 826 010a 2046     		mov	r0, r4
 827 010c 9FED5F8A 		vldr.32	s16, .L30+8
 828 0110 FFF7FEFF 		bl	_ZNK5daisy9AdcHandle6GetPtrEh
 829              	.LVL63:
 830 0114 0023     		movs	r3, #0
 831 0116 F0EE480A 		vmov.f32	s1, s16
 832 011a 95ED000A 		vldr.32	s0, [r5]
 833 011e 1A46     		mov	r2, r3
 834 0120 0146     		mov	r1, r0
 835 0122 5B48     		ldr	r0, .L30+12
 836 0124 FFF7FEFF 		bl	_ZN5daisy13AnalogControl4InitEPtfbbf
 837              	.LVL64:
  78:Interface.cpp ****     env_release_knob.Init(hw.adc.GetPtr(2), sample_rate);       // ADC 2
 838              		.loc 9 78 5 is_stmt 1 view .LVU184
  78:Interface.cpp ****     env_release_knob.Init(hw.adc.GetPtr(2), sample_rate);       // ADC 2
 839              		.loc 9 78 33 is_stmt 0 view .LVU185
 840 0128 0121     		movs	r1, #1
 841 012a 2046     		mov	r0, r4
 842 012c FFF7FEFF 		bl	_ZNK5daisy9AdcHandle6GetPtrEh
 843              	.LVL65:
 844 0130 0023     		movs	r3, #0
 845 0132 F0EE480A 		vmov.f32	s1, s16
 846 0136 95ED000A 		vldr.32	s0, [r5]
 847 013a 1A46     		mov	r2, r3
 848 013c 0146     		mov	r1, r0
 849 013e 5548     		ldr	r0, .L30+16
 850 0140 FFF7FEFF 		bl	_ZN5daisy13AnalogControl4InitEPtfbbf
 851              	.LVL66:
  79:Interface.cpp ****     env_attack_knob.Init(hw.adc.GetPtr(3), sample_rate);        // ADC 3
 852              		.loc 9 79 5 is_stmt 1 view .LVU186
  79:Interface.cpp ****     env_attack_knob.Init(hw.adc.GetPtr(3), sample_rate);        // ADC 3
 853              		.loc 9 79 26 is_stmt 0 view .LVU187
 854 0144 0221     		movs	r1, #2
 855 0146 2046     		mov	r0, r4
 856 0148 FFF7FEFF 		bl	_ZNK5daisy9AdcHandle6GetPtrEh
 857              	.LVL67:
 858 014c 0023     		movs	r3, #0
 859 014e F0EE480A 		vmov.f32	s1, s16
 860 0152 95ED000A 		vldr.32	s0, [r5]
 861 0156 1A46     		mov	r2, r3
 862 0158 0146     		mov	r1, r0
 863 015a 4F48     		ldr	r0, .L30+20
 864 015c FFF7FEFF 		bl	_ZN5daisy13AnalogControl4InitEPtfbbf
 865              	.LVL68:
  80:Interface.cpp ****     timbre_knob.Init(hw.adc.GetPtr(4), sample_rate);            // ADC 4
 866              		.loc 9 80 5 is_stmt 1 view .LVU188
  80:Interface.cpp ****     timbre_knob.Init(hw.adc.GetPtr(4), sample_rate);            // ADC 4
 867              		.loc 9 80 25 is_stmt 0 view .LVU189
ARM GAS  /var/folders/9s/8rp0_f2s1n31qbztm3b5_fdh0000gn/T//ccWYl2xP.s 			page 44


 868 0160 0321     		movs	r1, #3
 869 0162 2046     		mov	r0, r4
 870 0164 FFF7FEFF 		bl	_ZNK5daisy9AdcHandle6GetPtrEh
 871              	.LVL69:
 872 0168 0023     		movs	r3, #0
 873 016a F0EE480A 		vmov.f32	s1, s16
 874 016e 95ED000A 		vldr.32	s0, [r5]
 875 0172 1A46     		mov	r2, r3
 876 0174 0146     		mov	r1, r0
 877 0176 4948     		ldr	r0, .L30+24
 878 0178 FFF7FEFF 		bl	_ZN5daisy13AnalogControl4InitEPtfbbf
 879              	.LVL70:
  81:Interface.cpp ****     harmonics_knob.Init(hw.adc.GetPtr(5), sample_rate);         // ADC 5
 880              		.loc 9 81 5 is_stmt 1 view .LVU190
  81:Interface.cpp ****     harmonics_knob.Init(hw.adc.GetPtr(5), sample_rate);         // ADC 5
 881              		.loc 9 81 21 is_stmt 0 view .LVU191
 882 017c 0421     		movs	r1, #4
 883 017e 2046     		mov	r0, r4
 884 0180 FFF7FEFF 		bl	_ZNK5daisy9AdcHandle6GetPtrEh
 885              	.LVL71:
 886 0184 0023     		movs	r3, #0
 887 0186 F0EE480A 		vmov.f32	s1, s16
 888 018a 95ED000A 		vldr.32	s0, [r5]
 889 018e 1A46     		mov	r2, r3
 890 0190 0146     		mov	r1, r0
 891 0192 4348     		ldr	r0, .L30+28
 892 0194 FFF7FEFF 		bl	_ZN5daisy13AnalogControl4InitEPtfbbf
 893              	.LVL72:
  82:Interface.cpp ****     morph_knob.Init(hw.adc.GetPtr(6), sample_rate);             // ADC 6
 894              		.loc 9 82 5 is_stmt 1 view .LVU192
  82:Interface.cpp ****     morph_knob.Init(hw.adc.GetPtr(6), sample_rate);             // ADC 6
 895              		.loc 9 82 24 is_stmt 0 view .LVU193
 896 0198 0521     		movs	r1, #5
 897 019a 2046     		mov	r0, r4
 898 019c FFF7FEFF 		bl	_ZNK5daisy9AdcHandle6GetPtrEh
 899              	.LVL73:
 900 01a0 0023     		movs	r3, #0
 901 01a2 F0EE480A 		vmov.f32	s1, s16
 902 01a6 95ED000A 		vldr.32	s0, [r5]
 903 01aa 1A46     		mov	r2, r3
 904 01ac 0146     		mov	r1, r0
 905 01ae 3D48     		ldr	r0, .L30+32
 906 01b0 FFF7FEFF 		bl	_ZN5daisy13AnalogControl4InitEPtfbbf
 907              	.LVL74:
  83:Interface.cpp ****     pitch_knob.Init(hw.adc.GetPtr(7), sample_rate);             // ADC 7
 908              		.loc 9 83 5 is_stmt 1 view .LVU194
  83:Interface.cpp ****     pitch_knob.Init(hw.adc.GetPtr(7), sample_rate);             // ADC 7
 909              		.loc 9 83 20 is_stmt 0 view .LVU195
 910 01b4 0621     		movs	r1, #6
 911 01b6 2046     		mov	r0, r4
 912 01b8 FFF7FEFF 		bl	_ZNK5daisy9AdcHandle6GetPtrEh
 913              	.LVL75:
 914 01bc 0023     		movs	r3, #0
 915 01be F0EE480A 		vmov.f32	s1, s16
 916 01c2 95ED000A 		vldr.32	s0, [r5]
 917 01c6 1A46     		mov	r2, r3
 918 01c8 0146     		mov	r1, r0
ARM GAS  /var/folders/9s/8rp0_f2s1n31qbztm3b5_fdh0000gn/T//ccWYl2xP.s 			page 45


 919 01ca 3748     		ldr	r0, .L30+36
 920 01cc FFF7FEFF 		bl	_ZN5daisy13AnalogControl4InitEPtfbbf
 921              	.LVL76:
  84:Interface.cpp ****     arp_pad.Init(hw.adc.GetPtr(8), sample_rate);               // ADC 8
 922              		.loc 9 84 5 is_stmt 1 view .LVU196
  84:Interface.cpp ****     arp_pad.Init(hw.adc.GetPtr(8), sample_rate);               // ADC 8
 923              		.loc 9 84 20 is_stmt 0 view .LVU197
 924 01d0 0721     		movs	r1, #7
 925 01d2 2046     		mov	r0, r4
 926 01d4 FFF7FEFF 		bl	_ZNK5daisy9AdcHandle6GetPtrEh
 927              	.LVL77:
 928 01d8 0023     		movs	r3, #0
 929 01da F0EE480A 		vmov.f32	s1, s16
 930 01de 95ED000A 		vldr.32	s0, [r5]
 931 01e2 1A46     		mov	r2, r3
 932 01e4 0146     		mov	r1, r0
 933 01e6 3148     		ldr	r0, .L30+40
 934 01e8 FFF7FEFF 		bl	_ZN5daisy13AnalogControl4InitEPtfbbf
 935              	.LVL78:
  85:Interface.cpp ****     model_prev_pad.Init(hw.adc.GetPtr(9), sample_rate);        // ADC 9
 936              		.loc 9 85 5 is_stmt 1 view .LVU198
  85:Interface.cpp ****     model_prev_pad.Init(hw.adc.GetPtr(9), sample_rate);        // ADC 9
 937              		.loc 9 85 17 is_stmt 0 view .LVU199
 938 01ec 0821     		movs	r1, #8
 939 01ee 2046     		mov	r0, r4
 940 01f0 FFF7FEFF 		bl	_ZNK5daisy9AdcHandle6GetPtrEh
 941              	.LVL79:
 942 01f4 0023     		movs	r3, #0
 943 01f6 F0EE480A 		vmov.f32	s1, s16
 944 01fa 95ED000A 		vldr.32	s0, [r5]
 945 01fe 1A46     		mov	r2, r3
 946 0200 0146     		mov	r1, r0
 947 0202 2B48     		ldr	r0, .L30+44
 948 0204 FFF7FEFF 		bl	_ZN5daisy13AnalogControl4InitEPtfbbf
 949              	.LVL80:
  86:Interface.cpp ****     model_next_pad.Init(hw.adc.GetPtr(10), sample_rate);       // ADC 10
 950              		.loc 9 86 5 is_stmt 1 view .LVU200
  86:Interface.cpp ****     model_next_pad.Init(hw.adc.GetPtr(10), sample_rate);       // ADC 10
 951              		.loc 9 86 24 is_stmt 0 view .LVU201
 952 0208 0921     		movs	r1, #9
 953 020a 2046     		mov	r0, r4
 954 020c FFF7FEFF 		bl	_ZNK5daisy9AdcHandle6GetPtrEh
 955              	.LVL81:
 956 0210 0023     		movs	r3, #0
 957 0212 F0EE480A 		vmov.f32	s1, s16
 958 0216 95ED000A 		vldr.32	s0, [r5]
 959 021a 1A46     		mov	r2, r3
 960 021c 0146     		mov	r1, r0
 961 021e 2548     		ldr	r0, .L30+48
 962 0220 FFF7FEFF 		bl	_ZN5daisy13AnalogControl4InitEPtfbbf
 963              	.LVL82:
  87:Interface.cpp ****     mod_wheel.Init(hw.adc.GetPtr(11), sample_rate);            // ADC 11
 964              		.loc 9 87 5 is_stmt 1 view .LVU202
  87:Interface.cpp ****     mod_wheel.Init(hw.adc.GetPtr(11), sample_rate);            // ADC 11
 965              		.loc 9 87 24 is_stmt 0 view .LVU203
 966 0224 0A21     		movs	r1, #10
 967 0226 2046     		mov	r0, r4
ARM GAS  /var/folders/9s/8rp0_f2s1n31qbztm3b5_fdh0000gn/T//ccWYl2xP.s 			page 46


 968 0228 FFF7FEFF 		bl	_ZNK5daisy9AdcHandle6GetPtrEh
 969              	.LVL83:
 970 022c 0023     		movs	r3, #0
 971 022e F0EE480A 		vmov.f32	s1, s16
 972 0232 95ED000A 		vldr.32	s0, [r5]
 973 0236 1A46     		mov	r2, r3
 974 0238 0146     		mov	r1, r0
 975 023a 1F48     		ldr	r0, .L30+52
 976 023c FFF7FEFF 		bl	_ZN5daisy13AnalogControl4InitEPtfbbf
 977              	.LVL84:
  88:Interface.cpp **** 
 978              		.loc 9 88 5 is_stmt 1 view .LVU204
  88:Interface.cpp **** 
 979              		.loc 9 88 19 is_stmt 0 view .LVU205
 980 0240 0B21     		movs	r1, #11
 981 0242 2046     		mov	r0, r4
 982 0244 FFF7FEFF 		bl	_ZNK5daisy9AdcHandle6GetPtrEh
 983              	.LVL85:
 984 0248 0023     		movs	r3, #0
 985 024a F0EE480A 		vmov.f32	s1, s16
 986 024e 0146     		mov	r1, r0
 987 0250 1A46     		mov	r2, r3
 988 0252 95ED000A 		vldr.32	s0, [r5]
 989 0256 1948     		ldr	r0, .L30+56
 990 0258 FFF7FEFF 		bl	_ZN5daisy13AnalogControl4InitEPtfbbf
 991              	.LVL86:
  91:Interface.cpp **** }
 992              		.loc 9 91 5 is_stmt 1 view .LVU206
  91:Interface.cpp **** }
 993              		.loc 9 91 16 is_stmt 0 view .LVU207
 994 025c 1B20     		movs	r0, #27
 995 025e FFF7FEFF 		bl	_ZN5daisy9DaisySeed6GetPinEh
 996              	.LVL87:
 997 0262 95ED000A 		vldr.32	s0, [r5]
 998 0266 DFED167A 		vldr.32	s15, .L30+60
 999 026a ADF83000 		strh	r0, [sp, #48]	@ movhi
 1000 026e 80EE270A 		vdiv.f32	s0, s0, s15
 1001 0272 0C99     		ldr	r1, [sp, #48]
 1002 0274 1348     		ldr	r0, .L30+64
 1003 0276 FFF7FEFF 		bl	_ZN5daisy6Switch4InitE12dsy_gpio_pinf
 1004              	.LVL88:
  92:Interface.cpp **** 
 1005              		.loc 9 92 1 view .LVU208
 1006 027a 41B0     		add	sp, sp, #260
 1007              		.cfi_def_cfa_offset 20
 1008              		@ sp needed
 1009 027c BDEC028B 		vldm	sp!, {d8}
 1010              		.cfi_restore 80
 1011              		.cfi_restore 81
 1012              		.cfi_def_cfa_offset 12
 1013 0280 30BD     		pop	{r4, r5, pc}
 1014              	.L31:
 1015 0282 00BF     		.align	2
 1016              	.L30:
 1017 0284 18000000 		.word	.LANCHOR2+24
 1018 0288 00000000 		.word	.LANCHOR3
 1019 028c 6F12033B 		.word	990057071
ARM GAS  /var/folders/9s/8rp0_f2s1n31qbztm3b5_fdh0000gn/T//ccWYl2xP.s 			page 47


 1020 0290 00000000 		.word	.LANCHOR4
 1021 0294 00000000 		.word	.LANCHOR5
 1022 0298 00000000 		.word	.LANCHOR6
 1023 029c 00000000 		.word	.LANCHOR7
 1024 02a0 00000000 		.word	.LANCHOR8
 1025 02a4 00000000 		.word	.LANCHOR9
 1026 02a8 00000000 		.word	.LANCHOR10
 1027 02ac 00000000 		.word	.LANCHOR11
 1028 02b0 00000000 		.word	.LANCHOR12
 1029 02b4 00000000 		.word	.LANCHOR13
 1030 02b8 00000000 		.word	.LANCHOR14
 1031 02bc 00000000 		.word	.LANCHOR15
 1032 02c0 00004042 		.word	1111490560
 1033 02c4 00000000 		.word	.LANCHOR16
 1034              		.cfi_endproc
 1035              	.LFE5344:
 1037              		.section	.text._Z21InitializeTouchSensorv,"ax",%progbits
 1038              		.align	1
 1039              		.global	_Z21InitializeTouchSensorv
 1040              		.syntax unified
 1041              		.thumb
 1042              		.thumb_func
 1044              	_Z21InitializeTouchSensorv:
 1045              	.LFB5345:
  94:Interface.cpp ****     // --- Initialize MPR121 ---
 1046              		.loc 9 94 30 is_stmt 1 view -0
 1047              		.cfi_startproc
 1048              		@ args = 0, pretend = 0, frame = 24
 1049              		@ frame_needed = 0, uses_anonymous_args = 0
  96:Interface.cpp ****     touch_config.Defaults();
 1050              		.loc 9 96 5 view .LVU210
  94:Interface.cpp ****     // --- Initialize MPR121 ---
 1051              		.loc 9 94 30 is_stmt 0 view .LVU211
 1052 0000 7FB5     		push	{r0, r1, r2, r3, r4, r5, r6, lr}
 1053              		.cfi_def_cfa_offset 32
 1054              		.cfi_offset 14, -4
 1055              	.LVL89:
 1056              	.LBB464:
 1057              	.LBI464:
  58:mpr121_daisy.h **** 
  59:mpr121_daisy.h ****     struct Config
 1058              		.loc 8 59 12 is_stmt 1 view .LVU212
 1059              	.LBB465:
 1060              	.LBI465:
 1061              		.file 19 "lib/libdaisy/src/per/i2c.h"
   1:lib/libdaisy/src/per/i2c.h **** #pragma once
   2:lib/libdaisy/src/per/i2c.h **** #include "daisy_core.h"
   3:lib/libdaisy/src/per/i2c.h **** 
   4:lib/libdaisy/src/per/i2c.h **** namespace daisy
   5:lib/libdaisy/src/per/i2c.h **** {
   6:lib/libdaisy/src/per/i2c.h **** /** A handle for interacting with an I2C peripheral. This is a dumb
   7:lib/libdaisy/src/per/i2c.h ****  *  gateway that internally points to one of the four I2C peripherals
   8:lib/libdaisy/src/per/i2c.h ****  *  after it was initialised. It can then be copied and passed around.
   9:lib/libdaisy/src/per/i2c.h ****  *  Use an I2CHandle like this:
  10:lib/libdaisy/src/per/i2c.h ****  *  
  11:lib/libdaisy/src/per/i2c.h ****  *      // setup the configuration
  12:lib/libdaisy/src/per/i2c.h ****  *      I2CHandle::Config i2c_conf;
ARM GAS  /var/folders/9s/8rp0_f2s1n31qbztm3b5_fdh0000gn/T//ccWYl2xP.s 			page 48


  13:lib/libdaisy/src/per/i2c.h ****  *      i2c_conf.periph = I2CHandle::Config::Peripheral::I2C_1;
  14:lib/libdaisy/src/per/i2c.h ****  *      i2c_conf.speed  = I2CHandle::Config::Speed::I2C_400KHZ;
  15:lib/libdaisy/src/per/i2c.h ****  *      i2c_conf.mode   = I2CHandle::Config::Mode::Master;
  16:lib/libdaisy/src/per/i2c.h ****  *      i2c_conf.pin_config.scl  = {DSY_GPIOB, 8};
  17:lib/libdaisy/src/per/i2c.h ****  *      i2c_conf.pin_config.sda  = {DSY_GPIOB, 9};
  18:lib/libdaisy/src/per/i2c.h ****  *      // initialise the peripheral
  19:lib/libdaisy/src/per/i2c.h ****  *      I2CHandle i2c;
  20:lib/libdaisy/src/per/i2c.h ****  *      i2c.Init(i2c_conf);
  21:lib/libdaisy/src/per/i2c.h ****  *      // now i2c points to the corresponding peripheral and can be used.
  22:lib/libdaisy/src/per/i2c.h ****  *      i2c.TransmitBlocking( ... );
  23:lib/libdaisy/src/per/i2c.h ****  */
  24:lib/libdaisy/src/per/i2c.h **** class I2CHandle
  25:lib/libdaisy/src/per/i2c.h **** {
  26:lib/libdaisy/src/per/i2c.h ****   public:
  27:lib/libdaisy/src/per/i2c.h ****     /** Contains settings for initialising an I2C interface. */
  28:lib/libdaisy/src/per/i2c.h ****     struct Config
 1062              		.loc 19 28 12 view .LVU213
 1063              	.LBB466:
 1064 0002 1023     		movs	r3, #16
 1065              	.LBE466:
 1066              	.LBE465:
 1067              	.LBE464:
 1068              	.LBB469:
 1069              	.LBB470:
  60:mpr121_daisy.h ****     {
  61:mpr121_daisy.h ****         I2CHandle::Config i2c_config;
  62:mpr121_daisy.h ****         uint8_t          i2c_address;
  63:mpr121_daisy.h **** 
  64:mpr121_daisy.h ****         void Defaults()
  65:mpr121_daisy.h ****         {
  66:mpr121_daisy.h ****             i2c_config.periph = I2CHandle::Config::Peripheral::I2C_1;
  67:mpr121_daisy.h ****             i2c_config.speed  = I2CHandle::Config::Speed::I2C_400KHZ;
 1070              		.loc 8 67 31 is_stmt 0 view .LVU214
 1071 0004 0122     		movs	r2, #1
 1072              	.LBE470:
 1073              	.LBE469:
  98:Interface.cpp ****         while(1) { hw.SetLed(true); System::Delay(50); hw.SetLed(false); System::Delay(50); }
 1074              		.loc 9 98 27 view .LVU215
 1075 0006 6946     		mov	r1, sp
 1076 0008 1548     		ldr	r0, .L35
 1077              	.LBB472:
 1078              	.LBB468:
 1079              	.LBB467:
 1080              		.loc 19 28 12 view .LVU216
 1081 000a 8DF81030 		strb	r3, [sp, #16]
 1082              	.LVL90:
 1083              		.loc 19 28 12 view .LVU217
 1084              	.LBE467:
 1085              	.LBE468:
 1086              	.LBE472:
  97:Interface.cpp ****     if (!touch_sensor.Init(touch_config)) {
 1087              		.loc 9 97 5 is_stmt 1 view .LVU218
 1088              	.LBB473:
 1089              	.LBI469:
  64:mpr121_daisy.h ****         {
 1090              		.loc 8 64 14 view .LVU219
 1091              	.LBB471:
ARM GAS  /var/folders/9s/8rp0_f2s1n31qbztm3b5_fdh0000gn/T//ccWYl2xP.s 			page 49


  66:mpr121_daisy.h ****             i2c_config.speed  = I2CHandle::Config::Speed::I2C_400KHZ;
 1092              		.loc 8 66 13 view .LVU220
  66:mpr121_daisy.h ****             i2c_config.speed  = I2CHandle::Config::Speed::I2C_400KHZ;
 1093              		.loc 8 66 31 is_stmt 0 view .LVU221
 1094 000e 0023     		movs	r3, #0
  68:mpr121_daisy.h ****             i2c_config.mode   = I2CHandle::Config::Mode::I2C_MASTER;
 1095              		.loc 8 68 31 view .LVU222
 1096 0010 CDE90223 		strd	r2, r3, [sp, #8]
  66:mpr121_daisy.h ****             i2c_config.speed  = I2CHandle::Config::Speed::I2C_400KHZ;
 1097              		.loc 8 66 31 view .LVU223
 1098 0014 0093     		str	r3, [sp]
  67:mpr121_daisy.h ****             i2c_config.mode   = I2CHandle::Config::Mode::I2C_MASTER;
 1099              		.loc 8 67 13 is_stmt 1 view .LVU224
  69:mpr121_daisy.h ****             i2c_config.pin_config.scl = {DSY_GPIOB, 8};
 1100              		.loc 8 69 13 view .LVU225
 1101              		.loc 8 69 39 is_stmt 0 view .LVU226
 1102 0016 134B     		ldr	r3, .L35+4
 1103 0018 1A88     		ldrh	r2, [r3]	@ unaligned
  70:mpr121_daisy.h ****             i2c_config.pin_config.sda = {DSY_GPIOB, 9};
 1104              		.loc 8 70 39 view .LVU227
 1105 001a 5B88     		ldrh	r3, [r3, #2]	@ unaligned
  69:mpr121_daisy.h ****             i2c_config.pin_config.scl = {DSY_GPIOB, 8};
 1106              		.loc 8 69 39 view .LVU228
 1107 001c ADF80420 		strh	r2, [sp, #4]	@ unaligned
 1108              		.loc 8 70 13 is_stmt 1 view .LVU229
 1109              		.loc 8 70 39 is_stmt 0 view .LVU230
 1110 0020 ADF80630 		strh	r3, [sp, #6]	@ unaligned
  71:mpr121_daisy.h ****             i2c_address               = MPR121_I2CADDR_DEFAULT;
 1111              		.loc 8 71 13 is_stmt 1 view .LVU231
 1112              		.loc 8 71 39 is_stmt 0 view .LVU232
 1113 0024 5A23     		movs	r3, #90
 1114 0026 8DF81430 		strb	r3, [sp, #20]
 1115              	.LVL91:
 1116              		.loc 8 71 39 view .LVU233
 1117              	.LBE471:
 1118              	.LBE473:
  98:Interface.cpp ****         while(1) { hw.SetLed(true); System::Delay(50); hw.SetLed(false); System::Delay(50); }
 1119              		.loc 9 98 5 is_stmt 1 view .LVU234
  98:Interface.cpp ****         while(1) { hw.SetLed(true); System::Delay(50); hw.SetLed(false); System::Delay(50); }
 1120              		.loc 9 98 27 is_stmt 0 view .LVU235
 1121 002a FFF7FEFF 		bl	_ZN6Mpr1214InitERKNS_6ConfigE
 1122              	.LVL92:
  98:Interface.cpp ****         while(1) { hw.SetLed(true); System::Delay(50); hw.SetLed(false); System::Delay(50); }
 1123              		.loc 9 98 5 view .LVU236
 1124 002e 70B9     		cbnz	r0, .L33
 1125              	.L34:
  99:Interface.cpp ****     }
 1126              		.loc 9 99 9 is_stmt 1 discriminator 1 view .LVU237
  99:Interface.cpp ****     }
 1127              		.loc 9 99 20 discriminator 1 view .LVU238
  99:Interface.cpp ****     }
 1128              		.loc 9 99 29 is_stmt 0 discriminator 1 view .LVU239
 1129 0030 0121     		movs	r1, #1
 1130 0032 0D48     		ldr	r0, .L35+8
 1131 0034 FFF7FEFF 		bl	_ZN5daisy9DaisySeed6SetLedEb
 1132              	.LVL93:
  99:Interface.cpp ****     }
ARM GAS  /var/folders/9s/8rp0_f2s1n31qbztm3b5_fdh0000gn/T//ccWYl2xP.s 			page 50


 1133              		.loc 9 99 37 is_stmt 1 discriminator 1 view .LVU240
  99:Interface.cpp ****     }
 1134              		.loc 9 99 50 is_stmt 0 discriminator 1 view .LVU241
 1135 0038 3220     		movs	r0, #50
 1136 003a FFF7FEFF 		bl	_ZN5daisy6System5DelayEm
 1137              	.LVL94:
  99:Interface.cpp ****     }
 1138              		.loc 9 99 56 is_stmt 1 discriminator 1 view .LVU242
  99:Interface.cpp ****     }
 1139              		.loc 9 99 65 is_stmt 0 discriminator 1 view .LVU243
 1140 003e 0021     		movs	r1, #0
 1141 0040 0948     		ldr	r0, .L35+8
 1142 0042 FFF7FEFF 		bl	_ZN5daisy9DaisySeed6SetLedEb
 1143              	.LVL95:
  99:Interface.cpp ****     }
 1144              		.loc 9 99 74 is_stmt 1 discriminator 1 view .LVU244
  99:Interface.cpp ****     }
 1145              		.loc 9 99 87 is_stmt 0 discriminator 1 view .LVU245
 1146 0046 3220     		movs	r0, #50
 1147 0048 FFF7FEFF 		bl	_ZN5daisy6System5DelayEm
 1148              	.LVL96:
  99:Interface.cpp ****     }
 1149              		.loc 9 99 9 is_stmt 1 discriminator 1 view .LVU246
 1150 004c F0E7     		b	.L34
 1151              	.L33:
 1152              	.LBB474:
 1153              	.LBI474:
  94:Interface.cpp ****     // --- Initialize MPR121 ---
 1154              		.loc 9 94 6 view .LVU247
 1155              	.LBB475:
 102:Interface.cpp **** }
 1156              		.loc 9 102 5 view .LVU248
 102:Interface.cpp **** }
 1157              		.loc 9 102 31 is_stmt 0 view .LVU249
 1158 004e 0322     		movs	r2, #3
 1159 0050 0621     		movs	r1, #6
 1160 0052 0348     		ldr	r0, .L35
 1161 0054 FFF7FEFF 		bl	_ZN6Mpr12113SetThresholdsEhh
 1162              	.LVL97:
 1163              	.LBE475:
 1164              	.LBE474:
 103:Interface.cpp **** 
 1165              		.loc 9 103 1 view .LVU250
 1166 0058 07B0     		add	sp, sp, #28
 1167              		.cfi_def_cfa_offset 4
 1168              		@ sp needed
 1169 005a 5DF804FB 		ldr	pc, [sp], #4
 1170              	.L36:
 1171 005e 00BF     		.align	2
 1172              	.L35:
 1173 0060 00000000 		.word	.LANCHOR18
 1174 0064 00000000 		.word	.LANCHOR17
 1175 0068 00000000 		.word	.LANCHOR2
 1176              		.cfi_endproc
 1177              	.LFE5345:
 1179              		.section	.text._Z19InitializeTouchLEDsv,"ax",%progbits
 1180              		.align	1
ARM GAS  /var/folders/9s/8rp0_f2s1n31qbztm3b5_fdh0000gn/T//ccWYl2xP.s 			page 51


 1181              		.global	_Z19InitializeTouchLEDsv
 1182              		.syntax unified
 1183              		.thumb
 1184              		.thumb_func
 1186              	_Z19InitializeTouchLEDsv:
 1187              	.LFB5350:
 114:Interface.cpp ****     GPIO::Config led_cfg;
 1188              		.loc 9 114 28 is_stmt 1 view -0
 1189              		.cfi_startproc
 1190              		@ args = 0, pretend = 0, frame = 32
 1191              		@ frame_needed = 0, uses_anonymous_args = 0
 115:Interface.cpp ****     led_cfg.mode  = GPIO::Mode::OUTPUT;
 1192              		.loc 9 115 5 view .LVU252
 1193              	.LVL98:
 1194              	.LBB486:
 1195              	.LBI486:
 1196              		.file 20 "lib/libdaisy/src/per/gpio.h"
   1:lib/libdaisy/src/per/gpio.h **** #pragma once
   2:lib/libdaisy/src/per/gpio.h **** #ifndef DSY_GPIO_H
   3:lib/libdaisy/src/per/gpio.h **** #define DSY_GPIO_H
   4:lib/libdaisy/src/per/gpio.h **** #include "daisy_core.h"
   5:lib/libdaisy/src/per/gpio.h **** 
   6:lib/libdaisy/src/per/gpio.h **** /** New C++ GPIO */
   7:lib/libdaisy/src/per/gpio.h **** #ifdef __cplusplus
   8:lib/libdaisy/src/per/gpio.h **** 
   9:lib/libdaisy/src/per/gpio.h **** namespace daisy
  10:lib/libdaisy/src/per/gpio.h **** {
  11:lib/libdaisy/src/per/gpio.h **** /** @brief General Purpose I/O control */
  12:lib/libdaisy/src/per/gpio.h **** class GPIO
  13:lib/libdaisy/src/per/gpio.h **** {
  14:lib/libdaisy/src/per/gpio.h ****   public:
  15:lib/libdaisy/src/per/gpio.h ****     /** @brief Mode of operation for the specified GPIO */
  16:lib/libdaisy/src/per/gpio.h ****     enum class Mode
  17:lib/libdaisy/src/per/gpio.h ****     {
  18:lib/libdaisy/src/per/gpio.h ****         INPUT,     /**< Input for reading state of pin */
  19:lib/libdaisy/src/per/gpio.h ****         OUTPUT,    /**< Output w/ push-pull configuration */
  20:lib/libdaisy/src/per/gpio.h ****         OUTPUT_OD, /**< Output w/ open-drain configuration */
  21:lib/libdaisy/src/per/gpio.h ****         ANALOG,    /**< Analog for connection to ADC or DAC peripheral */
  22:lib/libdaisy/src/per/gpio.h ****     };
  23:lib/libdaisy/src/per/gpio.h **** 
  24:lib/libdaisy/src/per/gpio.h ****     /** @brief Configures whether an internal Pull up or Pull down resistor is used. 
  25:lib/libdaisy/src/per/gpio.h ****      *  
  26:lib/libdaisy/src/per/gpio.h ****      * Internal Pull up/down resistors are typically 40k ohms, and will be between
  27:lib/libdaisy/src/per/gpio.h ****      * 30k and 50k
  28:lib/libdaisy/src/per/gpio.h ****      * 
  29:lib/libdaisy/src/per/gpio.h ****      * When the Pin is configured in Analog mode, the pull up/down resistors are
  30:lib/libdaisy/src/per/gpio.h ****      * disabled by hardware. 
  31:lib/libdaisy/src/per/gpio.h ****      */
  32:lib/libdaisy/src/per/gpio.h ****     enum class Pull
  33:lib/libdaisy/src/per/gpio.h ****     {
  34:lib/libdaisy/src/per/gpio.h ****         NOPULL,   /**< No pull up resistor */
  35:lib/libdaisy/src/per/gpio.h ****         PULLUP,   /**< Internal pull up enabled */
  36:lib/libdaisy/src/per/gpio.h ****         PULLDOWN, /**< Internal pull down enabled*/
  37:lib/libdaisy/src/per/gpio.h ****     };
  38:lib/libdaisy/src/per/gpio.h **** 
  39:lib/libdaisy/src/per/gpio.h ****     /** @brief Output speed controls the drive strength, and slew rate of the pin */
  40:lib/libdaisy/src/per/gpio.h ****     enum class Speed
ARM GAS  /var/folders/9s/8rp0_f2s1n31qbztm3b5_fdh0000gn/T//ccWYl2xP.s 			page 52


  41:lib/libdaisy/src/per/gpio.h ****     {
  42:lib/libdaisy/src/per/gpio.h ****         LOW,
  43:lib/libdaisy/src/per/gpio.h ****         MEDIUM,
  44:lib/libdaisy/src/per/gpio.h ****         HIGH,
  45:lib/libdaisy/src/per/gpio.h ****         VERY_HIGH,
  46:lib/libdaisy/src/per/gpio.h ****     };
  47:lib/libdaisy/src/per/gpio.h **** 
  48:lib/libdaisy/src/per/gpio.h ****     /** @brief Configuration for a given GPIO */
  49:lib/libdaisy/src/per/gpio.h ****     struct Config
  50:lib/libdaisy/src/per/gpio.h ****     {
  51:lib/libdaisy/src/per/gpio.h ****         Pin   pin;
  52:lib/libdaisy/src/per/gpio.h ****         Mode  mode;
  53:lib/libdaisy/src/per/gpio.h ****         Pull  pull;
  54:lib/libdaisy/src/per/gpio.h ****         Speed speed;
  55:lib/libdaisy/src/per/gpio.h **** 
  56:lib/libdaisy/src/per/gpio.h ****         /** Constructor with no arguments will prepare an invalid GPIO set as
  57:lib/libdaisy/src/per/gpio.h ****          *  an input, with no pullup. 
  58:lib/libdaisy/src/per/gpio.h ****          */
  59:lib/libdaisy/src/per/gpio.h ****         Config()
 1197              		.loc 20 59 9 view .LVU253
 1198              	.LBB487:
 1199              	.LBI487:
 1200              		.file 21 "lib/libdaisy/src/daisy_core.h"
   1:lib/libdaisy/src/daisy_core.h **** #pragma once
   2:lib/libdaisy/src/daisy_core.h **** #ifndef DSY_CORE_HW_H
   3:lib/libdaisy/src/daisy_core.h **** #define DSY_CORE_HW_H /**< & */
   4:lib/libdaisy/src/daisy_core.h **** #include <stdint.h>
   5:lib/libdaisy/src/daisy_core.h **** #include <stdlib.h>
   6:lib/libdaisy/src/daisy_core.h **** 
   7:lib/libdaisy/src/daisy_core.h **** #if defined(_MSC_VER)
   8:lib/libdaisy/src/daisy_core.h **** #define FORCE_INLINE __forceinline /**< & */
   9:lib/libdaisy/src/daisy_core.h **** #elif defined(__clang__)
  10:lib/libdaisy/src/daisy_core.h **** #define FORCE_INLINE inline __attribute__((always_inline)) /**< & */
  11:lib/libdaisy/src/daisy_core.h **** #pragma clang diagnostic ignored "-Wduplicate-decl-specifier"
  12:lib/libdaisy/src/daisy_core.h **** #elif defined(__GNUC__)
  13:lib/libdaisy/src/daisy_core.h **** #define FORCE_INLINE inline __attribute__((always_inline)) /**< & */
  14:lib/libdaisy/src/daisy_core.h **** #else
  15:lib/libdaisy/src/daisy_core.h **** #error unknown compiler
  16:lib/libdaisy/src/daisy_core.h **** #endif
  17:lib/libdaisy/src/daisy_core.h **** 
  18:lib/libdaisy/src/daisy_core.h **** /** @addtogroup utility
  19:lib/libdaisy/src/daisy_core.h ****     @{
  20:lib/libdaisy/src/daisy_core.h **** */
  21:lib/libdaisy/src/daisy_core.h **** 
  22:lib/libdaisy/src/daisy_core.h **** /** Macro for area of memory that is configured as cacheless
  23:lib/libdaisy/src/daisy_core.h **** This should be used primarily for DMA buffers, and the like.
  24:lib/libdaisy/src/daisy_core.h **** */
  25:lib/libdaisy/src/daisy_core.h **** #define DMA_BUFFER_MEM_SECTION __attribute__((section(".sram1_bss")))
  26:lib/libdaisy/src/daisy_core.h **** /** 
  27:lib/libdaisy/src/daisy_core.h **** THE DTCM RAM section is also non-cached. However, is not suitable 
  28:lib/libdaisy/src/daisy_core.h **** for DMA transfers. Performance is on par with internal SRAM w/ 
  29:lib/libdaisy/src/daisy_core.h **** cache enabled.
  30:lib/libdaisy/src/daisy_core.h **** */
  31:lib/libdaisy/src/daisy_core.h **** #define DTCM_MEM_SECTION __attribute__((section(".dtcmram_bss")))
  32:lib/libdaisy/src/daisy_core.h **** 
  33:lib/libdaisy/src/daisy_core.h **** #define FBIPMAX 0.999985f             /**< close to 1.0f-LSB at 16 bit */
  34:lib/libdaisy/src/daisy_core.h **** #define FBIPMIN (-FBIPMAX)            /**< - (1 - LSB) */
ARM GAS  /var/folders/9s/8rp0_f2s1n31qbztm3b5_fdh0000gn/T//ccWYl2xP.s 			page 53


  35:lib/libdaisy/src/daisy_core.h **** #define U82F_SCALE 0.0078740f         /**< 1 / 127 */
  36:lib/libdaisy/src/daisy_core.h **** #define F2U8_SCALE 127.0f             /**< 128 - 1 */
  37:lib/libdaisy/src/daisy_core.h **** #define S82F_SCALE 0.0078125f         /**< 1 / (2**7) */
  38:lib/libdaisy/src/daisy_core.h **** #define F2S8_SCALE 127.0f             /**< (2 ** 7) - 1 */
  39:lib/libdaisy/src/daisy_core.h **** #define S162F_SCALE 3.0517578125e-05f /**< 1 / (2** 15) */
  40:lib/libdaisy/src/daisy_core.h **** #define F2S16_SCALE 32767.0f          /**< (2 ** 15) - 1 */
  41:lib/libdaisy/src/daisy_core.h **** #define F2S24_SCALE 8388608.0f        /**< 2 ** 23 */
  42:lib/libdaisy/src/daisy_core.h **** #define S242F_SCALE 1.192092896e-07f  /**< 1 / (2 ** 23) */
  43:lib/libdaisy/src/daisy_core.h **** #define S24SIGN 0x800000              /**< 2 ** 23 */
  44:lib/libdaisy/src/daisy_core.h **** #define S322F_SCALE 4.6566129e-10f    /**< 1 / (2** 31) */
  45:lib/libdaisy/src/daisy_core.h **** #define F2S32_SCALE 2147483647.f      /**< (2 ** 31) - 1 */
  46:lib/libdaisy/src/daisy_core.h **** 
  47:lib/libdaisy/src/daisy_core.h **** 
  48:lib/libdaisy/src/daisy_core.h **** /** shorthand macro for simplifying the reading of the left 
  49:lib/libdaisy/src/daisy_core.h ****  *  channel of a non-interleaved output buffer named out */
  50:lib/libdaisy/src/daisy_core.h **** #define OUT_L out[0]
  51:lib/libdaisy/src/daisy_core.h **** 
  52:lib/libdaisy/src/daisy_core.h **** /** shorthand macro for simplifying the reading of the right 
  53:lib/libdaisy/src/daisy_core.h ****  *  channel of a non-interleaved output buffer named out */
  54:lib/libdaisy/src/daisy_core.h **** #define OUT_R out[1]
  55:lib/libdaisy/src/daisy_core.h **** 
  56:lib/libdaisy/src/daisy_core.h **** /** shorthand macro for simplifying the reading of the left 
  57:lib/libdaisy/src/daisy_core.h ****  *  channel of a non-interleaved input buffer named in */
  58:lib/libdaisy/src/daisy_core.h **** #define IN_L in[0]
  59:lib/libdaisy/src/daisy_core.h **** 
  60:lib/libdaisy/src/daisy_core.h **** /** shorthand macro for simplifying the reading of the right 
  61:lib/libdaisy/src/daisy_core.h ****  *  channel of a non-interleaved input buffer named in */
  62:lib/libdaisy/src/daisy_core.h **** #define IN_R in[1]
  63:lib/libdaisy/src/daisy_core.h **** 
  64:lib/libdaisy/src/daisy_core.h **** /** 
  65:lib/libdaisy/src/daisy_core.h ****     Computes cube.
  66:lib/libdaisy/src/daisy_core.h ****     \param x Number to be cubed
  67:lib/libdaisy/src/daisy_core.h ****     \return x ^ 3
  68:lib/libdaisy/src/daisy_core.h **** */
  69:lib/libdaisy/src/daisy_core.h **** FORCE_INLINE float cube(float x)
  70:lib/libdaisy/src/daisy_core.h **** {
  71:lib/libdaisy/src/daisy_core.h ****     return (x * x) * x;
  72:lib/libdaisy/src/daisy_core.h **** }
  73:lib/libdaisy/src/daisy_core.h **** 
  74:lib/libdaisy/src/daisy_core.h **** /** 
  75:lib/libdaisy/src/daisy_core.h ****     Converts unsigned 8-bit to float
  76:lib/libdaisy/src/daisy_core.h ****     \param x Number to be scaled.
  77:lib/libdaisy/src/daisy_core.h ****     \return Scaled number.
  78:lib/libdaisy/src/daisy_core.h **** */
  79:lib/libdaisy/src/daisy_core.h **** FORCE_INLINE float u82f(uint8_t x)
  80:lib/libdaisy/src/daisy_core.h **** {
  81:lib/libdaisy/src/daisy_core.h ****     return ((float)x - 127.f) * U82F_SCALE;
  82:lib/libdaisy/src/daisy_core.h **** }
  83:lib/libdaisy/src/daisy_core.h **** 
  84:lib/libdaisy/src/daisy_core.h **** /**
  85:lib/libdaisy/src/daisy_core.h ****     Converts float to unsigned 8-bit
  86:lib/libdaisy/src/daisy_core.h **** */
  87:lib/libdaisy/src/daisy_core.h **** FORCE_INLINE uint8_t f2u8(float x)
  88:lib/libdaisy/src/daisy_core.h **** {
  89:lib/libdaisy/src/daisy_core.h ****     x = x <= FBIPMIN ? FBIPMIN : x;
  90:lib/libdaisy/src/daisy_core.h ****     x = x >= FBIPMAX ? FBIPMAX : x;
  91:lib/libdaisy/src/daisy_core.h ****     return (uint8_t)((x * F2U8_SCALE) + F2U8_SCALE);
ARM GAS  /var/folders/9s/8rp0_f2s1n31qbztm3b5_fdh0000gn/T//ccWYl2xP.s 			page 54


  92:lib/libdaisy/src/daisy_core.h **** }
  93:lib/libdaisy/src/daisy_core.h **** 
  94:lib/libdaisy/src/daisy_core.h **** 
  95:lib/libdaisy/src/daisy_core.h **** /** 
  96:lib/libdaisy/src/daisy_core.h ****     Converts Signed 8-bit to float
  97:lib/libdaisy/src/daisy_core.h ****     \param x Number to be scaled.
  98:lib/libdaisy/src/daisy_core.h ****     \return Scaled number.
  99:lib/libdaisy/src/daisy_core.h **** */
 100:lib/libdaisy/src/daisy_core.h **** FORCE_INLINE float s82f(int8_t x)
 101:lib/libdaisy/src/daisy_core.h **** {
 102:lib/libdaisy/src/daisy_core.h ****     return (float)x * S82F_SCALE;
 103:lib/libdaisy/src/daisy_core.h **** }
 104:lib/libdaisy/src/daisy_core.h **** 
 105:lib/libdaisy/src/daisy_core.h **** /**
 106:lib/libdaisy/src/daisy_core.h ****     Converts float to Signed 8-bit
 107:lib/libdaisy/src/daisy_core.h **** */
 108:lib/libdaisy/src/daisy_core.h **** FORCE_INLINE int8_t f2s8(float x)
 109:lib/libdaisy/src/daisy_core.h **** {
 110:lib/libdaisy/src/daisy_core.h ****     x = x <= FBIPMIN ? FBIPMIN : x;
 111:lib/libdaisy/src/daisy_core.h ****     x = x >= FBIPMAX ? FBIPMAX : x;
 112:lib/libdaisy/src/daisy_core.h ****     return (int32_t)(x * F2S8_SCALE);
 113:lib/libdaisy/src/daisy_core.h **** }
 114:lib/libdaisy/src/daisy_core.h **** 
 115:lib/libdaisy/src/daisy_core.h **** /** 
 116:lib/libdaisy/src/daisy_core.h ****     Converts Signed 16-bit to float
 117:lib/libdaisy/src/daisy_core.h ****     \param x Number to be scaled.
 118:lib/libdaisy/src/daisy_core.h ****     \return Scaled number.
 119:lib/libdaisy/src/daisy_core.h **** */
 120:lib/libdaisy/src/daisy_core.h **** FORCE_INLINE float s162f(int16_t x)
 121:lib/libdaisy/src/daisy_core.h **** {
 122:lib/libdaisy/src/daisy_core.h ****     return (float)x * S162F_SCALE;
 123:lib/libdaisy/src/daisy_core.h **** }
 124:lib/libdaisy/src/daisy_core.h **** 
 125:lib/libdaisy/src/daisy_core.h **** /**
 126:lib/libdaisy/src/daisy_core.h ****     Converts float to Signed 16-bit
 127:lib/libdaisy/src/daisy_core.h **** */
 128:lib/libdaisy/src/daisy_core.h **** FORCE_INLINE int16_t f2s16(float x)
 129:lib/libdaisy/src/daisy_core.h **** {
 130:lib/libdaisy/src/daisy_core.h ****     x = x <= FBIPMIN ? FBIPMIN : x;
 131:lib/libdaisy/src/daisy_core.h ****     x = x >= FBIPMAX ? FBIPMAX : x;
 132:lib/libdaisy/src/daisy_core.h ****     return (int32_t)(x * F2S16_SCALE);
 133:lib/libdaisy/src/daisy_core.h **** }
 134:lib/libdaisy/src/daisy_core.h **** 
 135:lib/libdaisy/src/daisy_core.h **** /**
 136:lib/libdaisy/src/daisy_core.h ****     Converts Signed 24-bit to float
 137:lib/libdaisy/src/daisy_core.h ****  */
 138:lib/libdaisy/src/daisy_core.h **** FORCE_INLINE float s242f(int32_t x)
 139:lib/libdaisy/src/daisy_core.h **** {
 140:lib/libdaisy/src/daisy_core.h ****     x = (x ^ S24SIGN) - S24SIGN; //sign extend aka ((x<<8)>>8)
 141:lib/libdaisy/src/daisy_core.h ****     return (float)x * S242F_SCALE;
 142:lib/libdaisy/src/daisy_core.h **** }
 143:lib/libdaisy/src/daisy_core.h **** /**
 144:lib/libdaisy/src/daisy_core.h ****     Converts float to Signed 24-bit
 145:lib/libdaisy/src/daisy_core.h ****  */
 146:lib/libdaisy/src/daisy_core.h **** FORCE_INLINE int32_t f2s24(float x)
 147:lib/libdaisy/src/daisy_core.h **** {
 148:lib/libdaisy/src/daisy_core.h ****     x = x <= FBIPMIN ? FBIPMIN : x;
ARM GAS  /var/folders/9s/8rp0_f2s1n31qbztm3b5_fdh0000gn/T//ccWYl2xP.s 			page 55


 149:lib/libdaisy/src/daisy_core.h ****     x = x >= FBIPMAX ? FBIPMAX : x;
 150:lib/libdaisy/src/daisy_core.h ****     return (int32_t)(x * F2S24_SCALE);
 151:lib/libdaisy/src/daisy_core.h **** }
 152:lib/libdaisy/src/daisy_core.h **** 
 153:lib/libdaisy/src/daisy_core.h **** /**
 154:lib/libdaisy/src/daisy_core.h ****     Converts Signed 32-bit to float
 155:lib/libdaisy/src/daisy_core.h ****  */
 156:lib/libdaisy/src/daisy_core.h **** FORCE_INLINE float s322f(int32_t x)
 157:lib/libdaisy/src/daisy_core.h **** {
 158:lib/libdaisy/src/daisy_core.h ****     return (float)x * S322F_SCALE;
 159:lib/libdaisy/src/daisy_core.h **** }
 160:lib/libdaisy/src/daisy_core.h **** /**
 161:lib/libdaisy/src/daisy_core.h ****     Converts float to Signed 24-bit
 162:lib/libdaisy/src/daisy_core.h ****  */
 163:lib/libdaisy/src/daisy_core.h **** FORCE_INLINE int32_t f2s32(float x)
 164:lib/libdaisy/src/daisy_core.h **** {
 165:lib/libdaisy/src/daisy_core.h ****     x = x <= FBIPMIN ? FBIPMIN : x;
 166:lib/libdaisy/src/daisy_core.h ****     x = x >= FBIPMAX ? FBIPMAX : x;
 167:lib/libdaisy/src/daisy_core.h ****     return (int32_t)(x * F2S32_SCALE);
 168:lib/libdaisy/src/daisy_core.h **** }
 169:lib/libdaisy/src/daisy_core.h **** 
 170:lib/libdaisy/src/daisy_core.h **** 
 171:lib/libdaisy/src/daisy_core.h **** /** Enums and a simple struct for defining a hardware pin on the MCU
 172:lib/libdaisy/src/daisy_core.h ****  *  These correlate with the stm32 datasheet, and are used to configure
 173:lib/libdaisy/src/daisy_core.h ****  *  the hardware.
 174:lib/libdaisy/src/daisy_core.h ****  * 
 175:lib/libdaisy/src/daisy_core.h ****  *  This along with the dsy_gpio_pin class should no longer be used.
 176:lib/libdaisy/src/daisy_core.h ****  *  They are available for backwards compatability. 
 177:lib/libdaisy/src/daisy_core.h ****  * 
 178:lib/libdaisy/src/daisy_core.h ****  *  Please use GPIOPort enum and the Pin struct instead.
 179:lib/libdaisy/src/daisy_core.h ****  */
 180:lib/libdaisy/src/daisy_core.h **** typedef enum
 181:lib/libdaisy/src/daisy_core.h **** {
 182:lib/libdaisy/src/daisy_core.h ****     DSY_GPIOA, /**< & */
 183:lib/libdaisy/src/daisy_core.h ****     DSY_GPIOB, /**< & */
 184:lib/libdaisy/src/daisy_core.h ****     DSY_GPIOC, /**< & */
 185:lib/libdaisy/src/daisy_core.h ****     DSY_GPIOD, /**< & */
 186:lib/libdaisy/src/daisy_core.h ****     DSY_GPIOE, /**< & */
 187:lib/libdaisy/src/daisy_core.h ****     DSY_GPIOF, /**< & */
 188:lib/libdaisy/src/daisy_core.h ****     DSY_GPIOG, /**< & */
 189:lib/libdaisy/src/daisy_core.h ****     DSY_GPIOH, /**< & */
 190:lib/libdaisy/src/daisy_core.h ****     DSY_GPIOI, /**< & */
 191:lib/libdaisy/src/daisy_core.h ****     DSY_GPIOJ, /**< & */
 192:lib/libdaisy/src/daisy_core.h ****     DSY_GPIOK, /**< & */
 193:lib/libdaisy/src/daisy_core.h ****     DSY_GPIOX, /** This is a non-existant port for unsupported bits of hardware. */
 194:lib/libdaisy/src/daisy_core.h ****     DSY_GPIO_LAST, /** Final enum member */
 195:lib/libdaisy/src/daisy_core.h **** } dsy_gpio_port;
 196:lib/libdaisy/src/daisy_core.h **** 
 197:lib/libdaisy/src/daisy_core.h **** /** Hardware define pins 
 198:lib/libdaisy/src/daisy_core.h ****  *  
 199:lib/libdaisy/src/daisy_core.h ****  *  The dsy_gpio_pin struct should no longer be used, and is only available for
 200:lib/libdaisy/src/daisy_core.h ****  *  backwards compatability.
 201:lib/libdaisy/src/daisy_core.h ****  * 
 202:lib/libdaisy/src/daisy_core.h ****  *  Please use Pin struct instead.
 203:lib/libdaisy/src/daisy_core.h ****  */
 204:lib/libdaisy/src/daisy_core.h **** typedef struct
 205:lib/libdaisy/src/daisy_core.h **** {
ARM GAS  /var/folders/9s/8rp0_f2s1n31qbztm3b5_fdh0000gn/T//ccWYl2xP.s 			page 56


 206:lib/libdaisy/src/daisy_core.h ****     dsy_gpio_port port; /**< & */
 207:lib/libdaisy/src/daisy_core.h ****     uint8_t       pin;  /**< number 0-15 */
 208:lib/libdaisy/src/daisy_core.h **** } dsy_gpio_pin;
 209:lib/libdaisy/src/daisy_core.h **** 
 210:lib/libdaisy/src/daisy_core.h **** /** Helper for creating pins from port/pin combos easily
 211:lib/libdaisy/src/daisy_core.h ****  * 
 212:lib/libdaisy/src/daisy_core.h ****  *  The dsy_gpio_pin struct should no longer be used, and is only available for
 213:lib/libdaisy/src/daisy_core.h ****  *  backwards compatability.
 214:lib/libdaisy/src/daisy_core.h ****  * 
 215:lib/libdaisy/src/daisy_core.h ****  *  Please use Pin struct instead.
 216:lib/libdaisy/src/daisy_core.h **** */
 217:lib/libdaisy/src/daisy_core.h **** FORCE_INLINE dsy_gpio_pin dsy_pin(dsy_gpio_port port, uint8_t pin)
 218:lib/libdaisy/src/daisy_core.h **** {
 219:lib/libdaisy/src/daisy_core.h ****     dsy_gpio_pin p;
 220:lib/libdaisy/src/daisy_core.h ****     p.port = port;
 221:lib/libdaisy/src/daisy_core.h ****     p.pin  = pin;
 222:lib/libdaisy/src/daisy_core.h ****     return p;
 223:lib/libdaisy/src/daisy_core.h **** }
 224:lib/libdaisy/src/daisy_core.h **** 
 225:lib/libdaisy/src/daisy_core.h **** /** Helper for testing sameness of two dsy_gpio_pins
 226:lib/libdaisy/src/daisy_core.h ****  *  \return    1 if same, 0 if different
 227:lib/libdaisy/src/daisy_core.h ****  * 
 228:lib/libdaisy/src/daisy_core.h ****  *  The dsy_gpio_pin struct should no longer be used, and is only available for
 229:lib/libdaisy/src/daisy_core.h ****  *  backwards compatability.
 230:lib/libdaisy/src/daisy_core.h ****  * 
 231:lib/libdaisy/src/daisy_core.h ****  *  Please use Pin struct instead.
 232:lib/libdaisy/src/daisy_core.h ****  */
 233:lib/libdaisy/src/daisy_core.h **** FORCE_INLINE uint8_t dsy_pin_cmp(dsy_gpio_pin *a, dsy_gpio_pin *b)
 234:lib/libdaisy/src/daisy_core.h **** {
 235:lib/libdaisy/src/daisy_core.h ****     return ((a->port == b->port) && (a->pin == b->pin));
 236:lib/libdaisy/src/daisy_core.h **** }
 237:lib/libdaisy/src/daisy_core.h **** 
 238:lib/libdaisy/src/daisy_core.h **** #ifdef __cplusplus
 239:lib/libdaisy/src/daisy_core.h **** 
 240:lib/libdaisy/src/daisy_core.h **** namespace daisy
 241:lib/libdaisy/src/daisy_core.h **** {
 242:lib/libdaisy/src/daisy_core.h **** /** @brief GPIO Port names */
 243:lib/libdaisy/src/daisy_core.h **** enum GPIOPort
 244:lib/libdaisy/src/daisy_core.h **** {
 245:lib/libdaisy/src/daisy_core.h ****     PORTA, /**< Port A */
 246:lib/libdaisy/src/daisy_core.h ****     PORTB, /**< Port B */
 247:lib/libdaisy/src/daisy_core.h ****     PORTC, /**< Port C */
 248:lib/libdaisy/src/daisy_core.h ****     PORTD, /**< Port D */
 249:lib/libdaisy/src/daisy_core.h ****     PORTE, /**< Port E */
 250:lib/libdaisy/src/daisy_core.h ****     PORTF, /**< Port F */
 251:lib/libdaisy/src/daisy_core.h ****     PORTG, /**< Port G */
 252:lib/libdaisy/src/daisy_core.h ****     PORTH, /**< Port H */
 253:lib/libdaisy/src/daisy_core.h ****     PORTI, /**< Port I */
 254:lib/libdaisy/src/daisy_core.h ****     PORTJ, /**< Port J */
 255:lib/libdaisy/src/daisy_core.h ****     PORTK, /**< Port K */
 256:lib/libdaisy/src/daisy_core.h ****     PORTX, /**< Used as a dummy port to signal an invalid pin. */
 257:lib/libdaisy/src/daisy_core.h **** };
 258:lib/libdaisy/src/daisy_core.h **** 
 259:lib/libdaisy/src/daisy_core.h **** /** @brief representation of hardware port/pin combination */
 260:lib/libdaisy/src/daisy_core.h **** struct Pin
 261:lib/libdaisy/src/daisy_core.h **** {
 262:lib/libdaisy/src/daisy_core.h ****     GPIOPort port;
ARM GAS  /var/folders/9s/8rp0_f2s1n31qbztm3b5_fdh0000gn/T//ccWYl2xP.s 			page 57


 263:lib/libdaisy/src/daisy_core.h ****     uint8_t  pin;
 264:lib/libdaisy/src/daisy_core.h **** 
 265:lib/libdaisy/src/daisy_core.h ****     /** @brief Constructor creates a valid pin. 
 266:lib/libdaisy/src/daisy_core.h ****      *  @param pt GPIOPort between PA, and PK corresponding to STM32 Port.
 267:lib/libdaisy/src/daisy_core.h ****      *  @param pn pin number in range of 0-15
 268:lib/libdaisy/src/daisy_core.h ****     */
 269:lib/libdaisy/src/daisy_core.h ****     constexpr Pin(const GPIOPort pt, const uint8_t pn) : port(pt), pin(pn) {}
 270:lib/libdaisy/src/daisy_core.h **** 
 271:lib/libdaisy/src/daisy_core.h ****     /** @brief Basic Constructor creates an invalid Pin object */
 272:lib/libdaisy/src/daisy_core.h ****     constexpr Pin() : port(PORTX), pin(255) {}
 1201              		.loc 21 272 15 view .LVU254
 1202              		.loc 21 272 15 is_stmt 0 view .LVU255
 1203              	.LBE487:
 1204              	.LBE486:
 116:Interface.cpp ****     led_cfg.pull  = GPIO::Pull::NOPULL;
 1205              		.loc 9 116 5 is_stmt 1 view .LVU256
 117:Interface.cpp ****     led_cfg.speed = GPIO::Speed::LOW;
 1206              		.loc 9 117 5 view .LVU257
 118:Interface.cpp **** 
 1207              		.loc 9 118 5 view .LVU258
 120:Interface.cpp ****         seed::D14, seed::D13, seed::D10, seed::D9,
 1208              		.loc 9 120 5 view .LVU259
 114:Interface.cpp ****     GPIO::Config led_cfg;
 1209              		.loc 9 114 28 is_stmt 0 view .LVU260
 1210 0000 70B5     		push	{r4, r5, r6, lr}
 1211              		.cfi_def_cfa_offset 16
 1212              		.cfi_offset 4, -16
 1213              		.cfi_offset 5, -12
 1214              		.cfi_offset 6, -8
 1215              		.cfi_offset 14, -4
 1216 0002 88B0     		sub	sp, sp, #32
 1217              		.cfi_def_cfa_offset 48
 120:Interface.cpp ****         seed::D14, seed::D13, seed::D10, seed::D9,
 1218              		.loc 9 120 9 view .LVU261
 1219 0004 144B     		ldr	r3, .L42
 1220 0006 02AA     		add	r2, sp, #8
 1221 0008 03F11806 		add	r6, r3, #24
 1222 000c 1446     		mov	r4, r2
 1223              	.L38:
 1224 000e 1868     		ldr	r0, [r3]	@ unaligned
 1225 0010 0833     		adds	r3, r3, #8
 1226 0012 53F8041C 		ldr	r1, [r3, #-4]	@ unaligned
 1227 0016 1546     		mov	r5, r2
 1228 0018 B342     		cmp	r3, r6
 1229 001a 03C5     		stmia	r5!, {r0, r1}
 1230 001c 2A46     		mov	r2, r5
 1231 001e F6D1     		bne	.L38
 126:Interface.cpp ****         // Initialize LED object with software PWM at ~1kHz
 1232              		.loc 9 126 5 is_stmt 1 view .LVU262
 1233              	.LVL99:
 1234              	.LBB488:
 126:Interface.cpp ****         // Initialize LED object with software PWM at ~1kHz
 1235              		.loc 9 126 22 view .LVU263
 1236 0020 0E4D     		ldr	r5, .L42+4
 126:Interface.cpp ****         // Initialize LED object with software PWM at ~1kHz
 1237              		.loc 9 126 13 is_stmt 0 view .LVU264
 1238 0022 0026     		movs	r6, #0
ARM GAS  /var/folders/9s/8rp0_f2s1n31qbztm3b5_fdh0000gn/T//ccWYl2xP.s 			page 58


 1239              	.LVL100:
 1240              	.L39:
 128:Interface.cpp ****         touch_leds[i].Set(1.0f); // initially on for test
 1241              		.loc 9 128 9 is_stmt 1 discriminator 2 view .LVU265
 1242              	.LBB489:
 1243              	.LBI489:
 273:lib/libdaisy/src/daisy_core.h **** 
 274:lib/libdaisy/src/daisy_core.h ****     /** @brief checks validity of a Pin 
 275:lib/libdaisy/src/daisy_core.h ****      *  @retval returns true if the port is a valid hardware pin, otherwise false.
 276:lib/libdaisy/src/daisy_core.h ****     */
 277:lib/libdaisy/src/daisy_core.h ****     constexpr bool IsValid() const { return port != PORTX && pin < 16; }
 278:lib/libdaisy/src/daisy_core.h **** 
 279:lib/libdaisy/src/daisy_core.h ****     /** @brief comparison operator for checking equality between Pin objects */
 280:lib/libdaisy/src/daisy_core.h ****     constexpr bool operator==(const Pin &rhs) const
 281:lib/libdaisy/src/daisy_core.h ****     {
 282:lib/libdaisy/src/daisy_core.h ****         return (rhs.port == port) && (rhs.pin == pin);
 283:lib/libdaisy/src/daisy_core.h ****     }
 284:lib/libdaisy/src/daisy_core.h **** 
 285:lib/libdaisy/src/daisy_core.h ****     /** @brief comparison operator for checking inequality between Pin objects */
 286:lib/libdaisy/src/daisy_core.h ****     constexpr bool operator!=(const Pin &rhs) const { return !operator==(rhs); }
 287:lib/libdaisy/src/daisy_core.h **** 
 288:lib/libdaisy/src/daisy_core.h ****     /** @brief conversion operation for converting to the old-style representation
 289:lib/libdaisy/src/daisy_core.h ****      *         of a pin.
 290:lib/libdaisy/src/daisy_core.h ****      * 
 291:lib/libdaisy/src/daisy_core.h ****      *  This allows the new Pin type to be used in place of the older, dsy_gpio_pin
 292:lib/libdaisy/src/daisy_core.h ****      *  type.
 293:lib/libdaisy/src/daisy_core.h ****      */
 294:lib/libdaisy/src/daisy_core.h ****     operator dsy_gpio_pin() const
 1244              		.loc 21 294 5 discriminator 2 view .LVU266
 1245              	.LBB490:
 295:lib/libdaisy/src/daisy_core.h ****     {
 296:lib/libdaisy/src/daisy_core.h ****         return dsy_pin(static_cast<dsy_gpio_port>(port), pin);
 1246              		.loc 21 296 9 discriminator 2 view .LVU267
 1247              		.loc 21 296 58 is_stmt 0 discriminator 2 view .LVU268
 1248 0024 6378     		ldrb	r3, [r4, #1]	@ zero_extendqisi2
 1249              	.LVL101:
 1250              	.LBB491:
 1251              	.LBI491:
 217:lib/libdaisy/src/daisy_core.h **** {
 1252              		.loc 21 217 27 is_stmt 1 discriminator 2 view .LVU269
 1253              	.LBE491:
 1254              	.LBE490:
 1255              	.LBE489:
 1256              	.LBE488:
 219:lib/libdaisy/src/daisy_core.h ****     p.port = port;
 1257              		.loc 21 219 5 discriminator 2 view .LVU270
 220:lib/libdaisy/src/daisy_core.h ****     p.pin  = pin;
 1258              		.loc 21 220 5 discriminator 2 view .LVU271
 221:lib/libdaisy/src/daisy_core.h ****     return p;
 1259              		.loc 21 221 5 discriminator 2 view .LVU272
 222:lib/libdaisy/src/daisy_core.h **** }
 1260              		.loc 21 222 5 discriminator 2 view .LVU273
 1261              	.LBB492:
 128:Interface.cpp ****         touch_leds[i].Set(1.0f); // initially on for test
 1262              		.loc 9 128 27 is_stmt 0 discriminator 2 view .LVU274
 1263 0026 2846     		mov	r0, r5
 1264 0028 14F8022B 		ldrb	r2, [r4], #2	@ zero_extendqisi2
ARM GAS  /var/folders/9s/8rp0_f2s1n31qbztm3b5_fdh0000gn/T//ccWYl2xP.s 			page 59


 126:Interface.cpp ****         // Initialize LED object with software PWM at ~1kHz
 1265              		.loc 9 126 5 discriminator 2 view .LVU275
 1266 002c 0136     		adds	r6, r6, #1
 1267              	.LVL102:
 126:Interface.cpp ****         // Initialize LED object with software PWM at ~1kHz
 1268              		.loc 9 126 5 discriminator 2 view .LVU276
 1269 002e 8DF80530 		strb	r3, [sp, #5]
 1270              	.LVL103:
 126:Interface.cpp ****         // Initialize LED object with software PWM at ~1kHz
 1271              		.loc 9 126 5 discriminator 2 view .LVU277
 1272 0032 8DF80420 		strb	r2, [sp, #4]
 128:Interface.cpp ****         touch_leds[i].Set(1.0f); // initially on for test
 1273              		.loc 9 128 27 discriminator 2 view .LVU278
 1274 0036 0022     		movs	r2, #0
 1275 0038 9FED090A 		vldr.32	s0, .L42+8
 1276 003c 0199     		ldr	r1, [sp, #4]
 1277 003e FFF7FEFF 		bl	_ZN5daisy3Led4InitE12dsy_gpio_pinbf
 1278              	.LVL104:
 129:Interface.cpp ****     }
 1279              		.loc 9 129 9 is_stmt 1 discriminator 2 view .LVU279
 129:Interface.cpp ****     }
 1280              		.loc 9 129 26 is_stmt 0 discriminator 2 view .LVU280
 1281 0042 2846     		mov	r0, r5
 1282 0044 B7EE000A 		vmov.f32	s0, #1.0e+0
 126:Interface.cpp ****         // Initialize LED object with software PWM at ~1kHz
 1283              		.loc 9 126 22 discriminator 2 view .LVU281
 1284 0048 1C35     		adds	r5, r5, #28
 129:Interface.cpp ****     }
 1285              		.loc 9 129 26 discriminator 2 view .LVU282
 1286 004a FFF7FEFF 		bl	_ZN5daisy3Led3SetEf
 1287              	.LVL105:
 126:Interface.cpp ****         // Initialize LED object with software PWM at ~1kHz
 1288              		.loc 9 126 5 is_stmt 1 discriminator 2 view .LVU283
 126:Interface.cpp ****         // Initialize LED object with software PWM at ~1kHz
 1289              		.loc 9 126 22 discriminator 2 view .LVU284
 1290 004e 0C2E     		cmp	r6, #12
 1291 0050 E8D1     		bne	.L39
 1292              	.LBE492:
 131:Interface.cpp **** 
 1293              		.loc 9 131 1 is_stmt 0 view .LVU285
 1294 0052 08B0     		add	sp, sp, #32
 1295              		.cfi_def_cfa_offset 16
 1296              		@ sp needed
 1297 0054 70BD     		pop	{r4, r5, r6, pc}
 1298              	.LVL106:
 1299              	.L43:
 131:Interface.cpp **** 
 1300              		.loc 9 131 1 view .LVU286
 1301 0056 00BF     		.align	2
 1302              	.L42:
 1303 0058 04000000 		.word	.LANCHOR17+4
 1304 005c 00000000 		.word	.LANCHOR19
 1305 0060 00007A44 		.word	1148846080
 1306              		.cfi_endproc
 1307              	.LFE5350:
 1309              		.section	.rodata._Z8Bootloadv.str1.1,"aMS",%progbits,1
 1310              	.LC3:
ARM GAS  /var/folders/9s/8rp0_f2s1n31qbztm3b5_fdh0000gn/T//ccWYl2xP.s 			page 60


 1311 0000 456E7465 		.ascii	"Entering bootloader (ADC combo)...\000"
 1311      72696E67 
 1311      20626F6F 
 1311      746C6F61 
 1311      64657220 
 1312              		.section	.text._Z8Bootloadv,"ax",%progbits
 1313              		.align	1
 1314              		.global	_Z8Bootloadv
 1315              		.syntax unified
 1316              		.thumb
 1317              		.thumb_func
 1319              	_Z8Bootloadv:
 1320              	.LFB5358:
 163:Interface.cpp ****     });
 164:Interface.cpp ****     
 165:Interface.cpp ****     // --- Start Audio ---
 166:Interface.cpp ****     hw.StartAudio(AudioCallback);
 167:Interface.cpp ****     
 168:Interface.cpp ****     // --- Serial Log (Needs to be started for USB reading) ---
 169:Interface.cpp ****     hw.StartLog(false); // Start log immediately (non-blocking)
 170:Interface.cpp ****     
 171:Interface.cpp ****     hw.PrintLine("Plaits Synth Started - Ready for Bootloader CMD");
 172:Interface.cpp ****     char settings[64];
 173:Interface.cpp ****     // Print Max Voices (compile time)
 174:Interface.cpp ****     sprintf(settings, "Max Voices: %d | Block: %d | SR: %d", NUM_VOICES, BLOCK_SIZE, (int)sample_ra
 175:Interface.cpp ****     hw.PrintLine(settings);
 176:Interface.cpp ****     sprintf(settings, "Engine Range: 0-%d", MAX_ENGINE_INDEX);
 177:Interface.cpp ****     hw.PrintLine(settings);
 178:Interface.cpp ****     sprintf(settings, "Mode: %s", (MAX_ENGINE_INDEX <=3) ? "Poly (0-3)" : "Dynamic Poly"); // Indic
 179:Interface.cpp ****     hw.PrintLine(settings);
 180:Interface.cpp ****     hw.PrintLine("----------------");
 181:Interface.cpp **** }
 182:Interface.cpp **** 
 183:Interface.cpp **** // --- User Interface Functions ---
 184:Interface.cpp **** void Bootload() {
 1321              		.loc 9 184 17 is_stmt 1 view -0
 1322              		.cfi_startproc
 1323              		@ args = 0, pretend = 0, frame = 0
 1324              		@ frame_needed = 0, uses_anonymous_args = 0
 185:Interface.cpp ****     // Bootloader via ADC: pads on ADC 8, 9, and 10 pressed simultaneously at any time
 186:Interface.cpp ****     if (arp_pad.GetRawFloat() > 0.5f &&
 1325              		.loc 9 186 5 view .LVU288
 1326              	.LBB501:
 1327              	.LBI501:
  24:lib/libdaisy/src/hid/ctrl.h **** 
  25:lib/libdaisy/src/hid/ctrl.h ****     /** 
  26:lib/libdaisy/src/hid/ctrl.h ****     Initializes the control
  27:lib/libdaisy/src/hid/ctrl.h ****     \param *adcptr is a pointer to the raw adc read value -- This can be acquired with dsy_adc_get_
  28:lib/libdaisy/src/hid/ctrl.h ****     \param sr is the samplerate in Hz that the Process function will be called at.
  29:lib/libdaisy/src/hid/ctrl.h ****     \param flip determines whether the input is flipped (i.e. 1.f - input) or not before being proc
  30:lib/libdaisy/src/hid/ctrl.h ****     \param invert determines whether the input is inverted (i.e. -1.f * input) or note before being
  31:lib/libdaisy/src/hid/ctrl.h ****     \param slew_seconds is the slew time in seconds that it takes for the control to change to a ne
  32:lib/libdaisy/src/hid/ctrl.h ****     */
  33:lib/libdaisy/src/hid/ctrl.h ****     void Init(uint16_t *adcptr,
  34:lib/libdaisy/src/hid/ctrl.h ****               float     sr,
  35:lib/libdaisy/src/hid/ctrl.h ****               bool      flip         = false,
  36:lib/libdaisy/src/hid/ctrl.h ****               bool      invert       = false,
ARM GAS  /var/folders/9s/8rp0_f2s1n31qbztm3b5_fdh0000gn/T//ccWYl2xP.s 			page 61


  37:lib/libdaisy/src/hid/ctrl.h ****               float     slew_seconds = 0.002f);
  38:lib/libdaisy/src/hid/ctrl.h **** 
  39:lib/libdaisy/src/hid/ctrl.h ****     /** 
  40:lib/libdaisy/src/hid/ctrl.h ****     This Initializes the AnalogControl for a -5V to 5V inverted input
  41:lib/libdaisy/src/hid/ctrl.h ****     All of the Init details are the same otherwise
  42:lib/libdaisy/src/hid/ctrl.h ****     \param *adcptr Pointer to analog digital converter
  43:lib/libdaisy/src/hid/ctrl.h ****     \param sr Audio engine sample rate
  44:lib/libdaisy/src/hid/ctrl.h ****     */
  45:lib/libdaisy/src/hid/ctrl.h ****     void InitBipolarCv(uint16_t *adcptr, float sr);
  46:lib/libdaisy/src/hid/ctrl.h **** 
  47:lib/libdaisy/src/hid/ctrl.h ****     /** 
  48:lib/libdaisy/src/hid/ctrl.h ****     Filters, and transforms a raw ADC read into a normalized range.
  49:lib/libdaisy/src/hid/ctrl.h ****     this should be called at the rate of specified by samplerate at Init time.   
  50:lib/libdaisy/src/hid/ctrl.h ****     Default Initializations will return 0.0 -> 1.0
  51:lib/libdaisy/src/hid/ctrl.h ****     Bi-polar CV inputs will return -1.0 -> 1.0
  52:lib/libdaisy/src/hid/ctrl.h ****     */
  53:lib/libdaisy/src/hid/ctrl.h ****     float Process();
  54:lib/libdaisy/src/hid/ctrl.h **** 
  55:lib/libdaisy/src/hid/ctrl.h ****     /** Returns the current stored value, without reprocessing */
  56:lib/libdaisy/src/hid/ctrl.h ****     inline float Value() const { return val_; }
  57:lib/libdaisy/src/hid/ctrl.h **** 
  58:lib/libdaisy/src/hid/ctrl.h ****     /** Directly set the Coefficient of the one pole smoothing filter. 
  59:lib/libdaisy/src/hid/ctrl.h ****      ***/
  60:lib/libdaisy/src/hid/ctrl.h ****     inline void SetCoeff(float val) { coeff_ = val; }
  61:lib/libdaisy/src/hid/ctrl.h **** 
  62:lib/libdaisy/src/hid/ctrl.h ****     /** Returns the raw unsigned 16-bit value from the ADC */
  63:lib/libdaisy/src/hid/ctrl.h ****     inline uint16_t GetRawValue() { return *raw_; }
  64:lib/libdaisy/src/hid/ctrl.h **** 
  65:lib/libdaisy/src/hid/ctrl.h ****     /** Returns a normalized float value representing the current ADC value. */
  66:lib/libdaisy/src/hid/ctrl.h ****     inline float GetRawFloat() { return (float)(*raw_) / 65535.f; }
 1328              		.loc 2 66 18 view .LVU289
 1329              	.LVL107:
 1330              	.LBB502:
 1331              		.loc 2 66 34 view .LVU290
 1332              		.loc 2 66 34 is_stmt 0 view .LVU291
 1333              	.LBE502:
 1334              	.LBE501:
 184:Interface.cpp ****     // Bootloader via ADC: pads on ADC 8, 9, and 10 pressed simultaneously at any time
 1335              		.loc 9 184 17 view .LVU292
 1336 0000 08B5     		push	{r3, lr}
 1337              		.cfi_def_cfa_offset 8
 1338              		.cfi_offset 3, -8
 1339              		.cfi_offset 14, -4
 1340              	.LBB504:
 1341              	.LBB503:
 1342              		.loc 2 66 49 view .LVU293
 1343 0002 1C4B     		ldr	r3, .L52
 1344              		.loc 2 66 58 view .LVU294
 1345 0004 9FED1C7A 		vldr.32	s14, .L52+4
 1346              		.loc 2 66 49 view .LVU295
 1347 0008 1B68     		ldr	r3, [r3]
 1348              		.loc 2 66 41 view .LVU296
 1349 000a 1B88     		ldrh	r3, [r3]
 1350 000c 07EE903A 		vmov	s15, r3	@ int
 1351 0010 F8EE677A 		vcvt.f32.u32	s15, s15
 1352              		.loc 2 66 58 view .LVU297
 1353 0014 C7EE876A 		vdiv.f32	s13, s15, s14
ARM GAS  /var/folders/9s/8rp0_f2s1n31qbztm3b5_fdh0000gn/T//ccWYl2xP.s 			page 62


 1354              	.LBE503:
 1355              	.LBE504:
 187:Interface.cpp ****         model_prev_pad.GetRawFloat() > 0.5f &&
 1356              		.loc 9 187 45 view .LVU298
 1357 0018 F6EE007A 		vmov.f32	s15, #5.0e-1
 1358 001c F4EEE76A 		vcmpe.f32	s13, s15
 1359 0020 F1EE10FA 		vmrs	APSR_nzcv, FPSCR
 1360 0024 25DD     		ble	.L44
 1361              	.LBB505:
 1362              	.LBI505:
 1363              		.loc 2 66 18 is_stmt 1 discriminator 1 view .LVU299
 1364              	.LVL108:
 1365              	.LBB506:
 1366              		.loc 2 66 34 discriminator 1 view .LVU300
 1367              		.loc 2 66 49 is_stmt 0 discriminator 1 view .LVU301
 1368 0026 154B     		ldr	r3, .L52+8
 1369 0028 1B68     		ldr	r3, [r3]
 1370              		.loc 2 66 41 discriminator 1 view .LVU302
 1371 002a 1B88     		ldrh	r3, [r3]
 1372 002c 06EE903A 		vmov	s13, r3	@ int
 1373 0030 F8EE666A 		vcvt.f32.u32	s13, s13
 1374              		.loc 2 66 58 discriminator 1 view .LVU303
 1375 0034 86EE876A 		vdiv.f32	s12, s13, s14
 1376              	.LBE506:
 1377              	.LBE505:
 186:Interface.cpp ****         model_prev_pad.GetRawFloat() > 0.5f &&
 1378              		.loc 9 186 38 discriminator 1 view .LVU304
 1379 0038 B4EEE76A 		vcmpe.f32	s12, s15
 1380 003c F1EE10FA 		vmrs	APSR_nzcv, FPSCR
 1381 0040 17DD     		ble	.L44
 1382              	.LBB507:
 1383              	.LBI507:
 1384              		.loc 2 66 18 is_stmt 1 discriminator 4 view .LVU305
 1385              	.LVL109:
 1386              	.LBB508:
 1387              		.loc 2 66 34 discriminator 4 view .LVU306
 1388              		.loc 2 66 49 is_stmt 0 discriminator 4 view .LVU307
 1389 0042 0F4B     		ldr	r3, .L52+12
 1390 0044 1B68     		ldr	r3, [r3]
 1391              		.loc 2 66 41 discriminator 4 view .LVU308
 1392 0046 1B88     		ldrh	r3, [r3]
 1393 0048 06EE903A 		vmov	s13, r3	@ int
 1394 004c F8EE666A 		vcvt.f32.u32	s13, s13
 1395              		.loc 2 66 58 discriminator 4 view .LVU309
 1396 0050 86EE876A 		vdiv.f32	s12, s13, s14
 1397              	.LBE508:
 1398              	.LBE507:
 1399              		.loc 9 187 45 discriminator 4 view .LVU310
 1400 0054 B4EEE76A 		vcmpe.f32	s12, s15
 1401 0058 F1EE10FA 		vmrs	APSR_nzcv, FPSCR
 1402 005c 09DD     		ble	.L44
 188:Interface.cpp ****         model_next_pad.GetRawFloat() > 0.5f) {
 189:Interface.cpp ****         hw.PrintLine("Entering bootloader (ADC combo)...");
 1403              		.loc 9 189 9 is_stmt 1 view .LVU311
 1404              	.LVL110:
 1405              	.LBB509:
 1406              	.LBI509:
ARM GAS  /var/folders/9s/8rp0_f2s1n31qbztm3b5_fdh0000gn/T//ccWYl2xP.s 			page 63


  23:lib/libdaisy/src/daisy_seed.h **** 
  24:lib/libdaisy/src/daisy_seed.h ****     /** This function used to provide a pre-initialization configuraiton 
  25:lib/libdaisy/src/daisy_seed.h ****      *  it has since been deprecated, and does nothing.
  26:lib/libdaisy/src/daisy_seed.h ****      */
  27:lib/libdaisy/src/daisy_seed.h ****     void Configure();
  28:lib/libdaisy/src/daisy_seed.h **** 
  29:lib/libdaisy/src/daisy_seed.h ****     /** 
  30:lib/libdaisy/src/daisy_seed.h ****     Initializes the Daisy Seed and the following peripherals:
  31:lib/libdaisy/src/daisy_seed.h ****     SDRAM, QSPI, 24-bit 48kHz Audio via AK4556, Internal USB,
  32:lib/libdaisy/src/daisy_seed.h ****     as well as the built-in LED and Testpoint.
  33:lib/libdaisy/src/daisy_seed.h **** 
  34:lib/libdaisy/src/daisy_seed.h ****     ADCs, DACs, and other special peripherals (such as I2C, SPI, etc.)
  35:lib/libdaisy/src/daisy_seed.h ****     can be initialized using their specific initializers within libdaisy
  36:lib/libdaisy/src/daisy_seed.h ****     for a specific application.
  37:lib/libdaisy/src/daisy_seed.h ****     */
  38:lib/libdaisy/src/daisy_seed.h ****     void Init(bool boost = false);
  39:lib/libdaisy/src/daisy_seed.h **** 
  40:lib/libdaisy/src/daisy_seed.h ****     /** 
  41:lib/libdaisy/src/daisy_seed.h ****     Deinitializes all peripherals automatically handled by `Init`.
  42:lib/libdaisy/src/daisy_seed.h ****     */
  43:lib/libdaisy/src/daisy_seed.h ****     void DeInit();
  44:lib/libdaisy/src/daisy_seed.h **** 
  45:lib/libdaisy/src/daisy_seed.h ****     /** 
  46:lib/libdaisy/src/daisy_seed.h ****     Wait some ms before going on.
  47:lib/libdaisy/src/daisy_seed.h ****     \param del Delay time in ms.
  48:lib/libdaisy/src/daisy_seed.h ****     */
  49:lib/libdaisy/src/daisy_seed.h ****     void DelayMs(size_t del);
  50:lib/libdaisy/src/daisy_seed.h **** 
  51:lib/libdaisy/src/daisy_seed.h ****     /** 
  52:lib/libdaisy/src/daisy_seed.h ****     Returns the gpio_pin corresponding to the index 0-31.
  53:lib/libdaisy/src/daisy_seed.h ****     For the given GPIO on the Daisy Seed (labeled 1-32 in docs).
  54:lib/libdaisy/src/daisy_seed.h ****     */
  55:lib/libdaisy/src/daisy_seed.h ****     static dsy_gpio_pin GetPin(uint8_t pin_idx);
  56:lib/libdaisy/src/daisy_seed.h **** 
  57:lib/libdaisy/src/daisy_seed.h ****     /** Begins the audio for the seeds builtin audio.
  58:lib/libdaisy/src/daisy_seed.h ****     the specified callback will get called whenever
  59:lib/libdaisy/src/daisy_seed.h ****     new data is ready to be prepared.
  60:lib/libdaisy/src/daisy_seed.h ****     */
  61:lib/libdaisy/src/daisy_seed.h ****     void StartAudio(AudioHandle::InterleavingAudioCallback cb);
  62:lib/libdaisy/src/daisy_seed.h **** 
  63:lib/libdaisy/src/daisy_seed.h ****     /** Begins the audio for the seeds builtin audio.
  64:lib/libdaisy/src/daisy_seed.h ****     the specified callback will get called whenever
  65:lib/libdaisy/src/daisy_seed.h ****     new data is ready to be prepared.
  66:lib/libdaisy/src/daisy_seed.h ****     This will use the newer non-interleaved callback.
  67:lib/libdaisy/src/daisy_seed.h ****     */
  68:lib/libdaisy/src/daisy_seed.h ****     void StartAudio(AudioHandle::AudioCallback cb);
  69:lib/libdaisy/src/daisy_seed.h **** 
  70:lib/libdaisy/src/daisy_seed.h ****     /** Changes to a new interleaved callback
  71:lib/libdaisy/src/daisy_seed.h ****      */
  72:lib/libdaisy/src/daisy_seed.h ****     void ChangeAudioCallback(AudioHandle::InterleavingAudioCallback cb);
  73:lib/libdaisy/src/daisy_seed.h **** 
  74:lib/libdaisy/src/daisy_seed.h ****     /** Changes to a new multichannel callback
  75:lib/libdaisy/src/daisy_seed.h ****      */
  76:lib/libdaisy/src/daisy_seed.h ****     void ChangeAudioCallback(AudioHandle::AudioCallback cb);
  77:lib/libdaisy/src/daisy_seed.h **** 
  78:lib/libdaisy/src/daisy_seed.h ****     /** Stops the audio if it is running. */
  79:lib/libdaisy/src/daisy_seed.h ****     void StopAudio();
ARM GAS  /var/folders/9s/8rp0_f2s1n31qbztm3b5_fdh0000gn/T//ccWYl2xP.s 			page 64


  80:lib/libdaisy/src/daisy_seed.h **** 
  81:lib/libdaisy/src/daisy_seed.h ****     /** Updates the Audio Sample Rate, and reinitializes.
  82:lib/libdaisy/src/daisy_seed.h ****      ** Audio must be stopped for this to work.
  83:lib/libdaisy/src/daisy_seed.h ****      */
  84:lib/libdaisy/src/daisy_seed.h ****     void SetAudioSampleRate(SaiHandle::Config::SampleRate samplerate);
  85:lib/libdaisy/src/daisy_seed.h **** 
  86:lib/libdaisy/src/daisy_seed.h ****     /** Returns the audio sample rate in Hz as a floating point number.
  87:lib/libdaisy/src/daisy_seed.h ****      */
  88:lib/libdaisy/src/daisy_seed.h ****     float AudioSampleRate();
  89:lib/libdaisy/src/daisy_seed.h **** 
  90:lib/libdaisy/src/daisy_seed.h ****     /** Sets the number of samples processed per channel by the audio callback.
  91:lib/libdaisy/src/daisy_seed.h ****      */
  92:lib/libdaisy/src/daisy_seed.h ****     void SetAudioBlockSize(size_t blocksize);
  93:lib/libdaisy/src/daisy_seed.h **** 
  94:lib/libdaisy/src/daisy_seed.h ****     /** Returns the number of samples per channel in a block of audio. */
  95:lib/libdaisy/src/daisy_seed.h ****     size_t AudioBlockSize();
  96:lib/libdaisy/src/daisy_seed.h **** 
  97:lib/libdaisy/src/daisy_seed.h ****     /** Returns the rate in Hz that the Audio callback is called */
  98:lib/libdaisy/src/daisy_seed.h ****     float AudioCallbackRate() const;
  99:lib/libdaisy/src/daisy_seed.h **** 
 100:lib/libdaisy/src/daisy_seed.h ****     /** Sets the state of the built in LED
 101:lib/libdaisy/src/daisy_seed.h ****      */
 102:lib/libdaisy/src/daisy_seed.h ****     void SetLed(bool state);
 103:lib/libdaisy/src/daisy_seed.h **** 
 104:lib/libdaisy/src/daisy_seed.h ****     /** Sets the state of the test point near pin 10
 105:lib/libdaisy/src/daisy_seed.h ****      */
 106:lib/libdaisy/src/daisy_seed.h ****     void SetTestPoint(bool state);
 107:lib/libdaisy/src/daisy_seed.h **** 
 108:lib/libdaisy/src/daisy_seed.h ****     /** Print formatted debug log message
 109:lib/libdaisy/src/daisy_seed.h ****      */
 110:lib/libdaisy/src/daisy_seed.h ****     template <typename... VA>
 111:lib/libdaisy/src/daisy_seed.h ****     static void Print(const char* format, VA... va)
 112:lib/libdaisy/src/daisy_seed.h ****     {
 113:lib/libdaisy/src/daisy_seed.h ****         Log::Print(format, va...);
 114:lib/libdaisy/src/daisy_seed.h ****     }
 115:lib/libdaisy/src/daisy_seed.h **** 
 116:lib/libdaisy/src/daisy_seed.h ****     /** Print formatted debug log message with automatic line termination
 117:lib/libdaisy/src/daisy_seed.h ****     */
 118:lib/libdaisy/src/daisy_seed.h ****     template <typename... VA>
 119:lib/libdaisy/src/daisy_seed.h ****     static void PrintLine(const char* format, VA... va)
 1407              		.loc 3 119 17 view .LVU312
 1408              	.LBB510:
 120:lib/libdaisy/src/daisy_seed.h ****     {
 121:lib/libdaisy/src/daisy_seed.h ****         Log::PrintLine(format, va...);
 1409              		.loc 3 121 23 is_stmt 0 view .LVU313
 1410 005e 0948     		ldr	r0, .L52+16
 1411 0060 FFF7FEFF 		bl	_ZN5daisy6LoggerILNS_17LoggerDestinationE1EE9PrintLineEPKcz
 1412              	.LVL111:
 1413              		.loc 3 121 23 view .LVU314
 1414              	.LBE510:
 1415              	.LBE509:
 190:Interface.cpp ****         System::Delay(100);
 1416              		.loc 9 190 9 is_stmt 1 view .LVU315
 1417              		.loc 9 190 22 is_stmt 0 view .LVU316
 1418 0064 6420     		movs	r0, #100
 1419 0066 FFF7FEFF 		bl	_ZN5daisy6System5DelayEm
 1420              	.LVL112:
ARM GAS  /var/folders/9s/8rp0_f2s1n31qbztm3b5_fdh0000gn/T//ccWYl2xP.s 			page 65


 191:Interface.cpp ****         System::ResetToBootloader();
 1421              		.loc 9 191 9 is_stmt 1 view .LVU317
 192:Interface.cpp ****     }
 193:Interface.cpp **** }
 1422              		.loc 9 193 1 is_stmt 0 view .LVU318
 1423 006a BDE80840 		pop	{r3, lr}
 1424              		.cfi_remember_state
 1425              		.cfi_restore 14
 1426              		.cfi_restore 3
 1427              		.cfi_def_cfa_offset 0
 191:Interface.cpp ****         System::ResetToBootloader();
 1428              		.loc 9 191 34 view .LVU319
 1429 006e FFF7FEBF 		b	_ZN5daisy6System17ResetToBootloaderEv
 1430              	.LVL113:
 1431              	.L44:
 1432              		.cfi_restore_state
 1433              		.loc 9 193 1 view .LVU320
 1434 0072 08BD     		pop	{r3, pc}
 1435              	.L53:
 1436              		.align	2
 1437              	.L52:
 1438 0074 00000000 		.word	.LANCHOR12
 1439 0078 00FF7F47 		.word	1199570688
 1440 007c 00000000 		.word	.LANCHOR13
 1441 0080 00000000 		.word	.LANCHOR14
 1442 0084 00000000 		.word	.LC3
 1443              		.cfi_endproc
 1444              	.LFE5358:
 1446              		.section	.text._Z9UpdateLEDv,"ax",%progbits
 1447              		.align	1
 1448              		.global	_Z9UpdateLEDv
 1449              		.syntax unified
 1450              		.thumb
 1451              		.thumb_func
 1453              	_Z9UpdateLEDv:
 1454              	.LFB5359:
 194:Interface.cpp **** 
 195:Interface.cpp **** void UpdateLED() {
 1455              		.loc 9 195 18 is_stmt 1 view -0
 1456              		.cfi_startproc
 1457              		@ args = 0, pretend = 0, frame = 0
 1458              		@ frame_needed = 0, uses_anonymous_args = 0
 196:Interface.cpp ****     // LED based on voice activity (any voice active)
 197:Interface.cpp ****     bool any_voice_active = false;
 1459              		.loc 9 197 5 view .LVU322
 1460              	.LVL114:
 198:Interface.cpp ****     for(int v=0; v<NUM_VOICES; ++v) { 
 1461              		.loc 9 198 5 view .LVU323
 1462              	.LBB511:
 1463              		.loc 9 198 19 view .LVU324
 1464              	.LBE511:
 195:Interface.cpp ****     // LED based on voice activity (any voice active)
 1465              		.loc 9 195 18 is_stmt 0 view .LVU325
 1466 0000 08B5     		push	{r3, lr}
 1467              		.cfi_def_cfa_offset 8
 1468              		.cfi_offset 3, -8
 1469              		.cfi_offset 14, -4
ARM GAS  /var/folders/9s/8rp0_f2s1n31qbztm3b5_fdh0000gn/T//ccWYl2xP.s 			page 66


 1470 0002 0D4A     		ldr	r2, .L59
 1471              	.LBB512:
 1472              		.loc 9 198 13 view .LVU326
 1473 0004 0023     		movs	r3, #0
 1474              	.LVL115:
 1475              	.L57:
 199:Interface.cpp ****         if(voice_active[v]) { 
 1476              		.loc 9 199 9 is_stmt 1 view .LVU327
 1477              		.loc 9 199 26 is_stmt 0 view .LVU328
 1478 0006 12F8011B 		ldrb	r1, [r2], #1	@ zero_extendqisi2
 1479              		.loc 9 199 9 view .LVU329
 1480 000a 79B9     		cbnz	r1, .L55
 198:Interface.cpp ****     for(int v=0; v<NUM_VOICES; ++v) { 
 1481              		.loc 9 198 5 is_stmt 1 discriminator 2 view .LVU330
 1482 000c 0133     		adds	r3, r3, #1
 1483              	.LVL116:
 198:Interface.cpp ****     for(int v=0; v<NUM_VOICES; ++v) { 
 1484              		.loc 9 198 19 discriminator 2 view .LVU331
 1485 000e 042B     		cmp	r3, #4
 1486 0010 F9D1     		bne	.L57
 198:Interface.cpp ****     for(int v=0; v<NUM_VOICES; ++v) { 
 1487              		.loc 9 198 19 is_stmt 0 discriminator 2 view .LVU332
 1488              	.LBE512:
 200:Interface.cpp ****             any_voice_active = true; 
 201:Interface.cpp ****             break; 
 202:Interface.cpp ****         } 
 203:Interface.cpp ****     }
 204:Interface.cpp ****     
 205:Interface.cpp ****     bool led_on = any_voice_active;
 1489              		.loc 9 205 5 is_stmt 1 view .LVU333
 1490              	.LVL117:
 206:Interface.cpp ****     if (!any_voice_active && (System::GetNow() % 1000) < 500) { // Blink if inactive
 1491              		.loc 9 206 5 view .LVU334
 1492              		.loc 9 206 45 is_stmt 0 view .LVU335
 1493 0012 FFF7FEFF 		bl	_ZN5daisy6System6GetNowEv
 1494              	.LVL118:
 1495              		.loc 9 206 48 view .LVU336
 1496 0016 4FF47A71 		mov	r1, #1000
 1497 001a B0FBF1F3 		udiv	r3, r0, r1
 1498 001e 03FB1101 		mls	r1, r3, r1, r0
 1499              		.loc 9 206 27 view .LVU337
 1500 0022 B1F5FA7F 		cmp	r1, #500
 1501 0026 2CBF     		ite	cs
 1502 0028 0021     		movcs	r1, #0
 1503 002a 0121     		movcc	r1, #1
 1504              	.LVL119:
 1505              	.L55:
 207:Interface.cpp ****         led_on = true;
 208:Interface.cpp ****     }
 209:Interface.cpp ****     hw.SetLed(led_on);
 1506              		.loc 9 209 5 is_stmt 1 view .LVU338
 1507              		.loc 9 209 14 is_stmt 0 view .LVU339
 1508 002c 0348     		ldr	r0, .L59+4
 210:Interface.cpp **** } ...
 1509              		.loc 9 210 1 view .LVU340
 1510 002e BDE80840 		pop	{r3, lr}
 1511              		.cfi_restore 14
ARM GAS  /var/folders/9s/8rp0_f2s1n31qbztm3b5_fdh0000gn/T//ccWYl2xP.s 			page 67


 1512              		.cfi_restore 3
 1513              		.cfi_def_cfa_offset 0
 209:Interface.cpp ****     hw.SetLed(led_on);
 1514              		.loc 9 209 14 view .LVU341
 1515 0032 FFF7FEBF 		b	_ZN5daisy9DaisySeed6SetLedEb
 1516              	.LVL120:
 1517              	.L60:
 209:Interface.cpp ****     hw.SetLed(led_on);
 1518              		.loc 9 209 14 view .LVU342
 1519 0036 00BF     		.align	2
 1520              	.L59:
 1521 0038 00000000 		.word	voice_active
 1522 003c 00000000 		.word	.LANCHOR2
 1523              		.cfi_endproc
 1524              	.LFE5359:
 1526              		.section	.text._ZN10infrasonic13BiquadCascadeILj1ELNS_13BiquadSection10FilterTypeE2EE18updateCoeff
 1527              		.align	1
 1528              		.weak	_ZN10infrasonic13BiquadCascadeILj1ELNS_13BiquadSection10FilterTypeE2EE18updateCoefficientsEv
 1529              		.syntax unified
 1530              		.thumb
 1531              		.thumb_func
 1533              	_ZN10infrasonic13BiquadCascadeILj1ELNS_13BiquadSection10FilterTypeE2EE18updateCoefficientsEv:
 1534              	.LVL121:
 1535              	.LFB6025:
  78:Effects/BiquadFilters.h **** 
  79:Effects/BiquadFilters.h ****         // Individual param update methods recalculate coefficients
  80:Effects/BiquadFilters.h ****         // every time one of them is called. To update everything at once,
  81:Effects/BiquadFilters.h ****         // use SetParams()
  82:Effects/BiquadFilters.h **** 
  83:Effects/BiquadFilters.h ****         void Init(const float sample_rate) {
  84:Effects/BiquadFilters.h ****             sample_rate_ = sample_rate;
  85:Effects/BiquadFilters.h ****             cutoff_hz_ = sample_rate * 0.25f;
  86:Effects/BiquadFilters.h ****             SetFlatResponse();
  87:Effects/BiquadFilters.h ****         }
  88:Effects/BiquadFilters.h **** 
  89:Effects/BiquadFilters.h ****         inline void SetCutoff(const float cutoff_hz)
  90:Effects/BiquadFilters.h ****         {
  91:Effects/BiquadFilters.h ****             cutoff_hz_ = daisysp::fclamp(cutoff_hz, 1.f, sample_rate_ * 0.5f);
  92:Effects/BiquadFilters.h ****             updateCoefficients();
  93:Effects/BiquadFilters.h ****         }
  94:Effects/BiquadFilters.h **** 
  95:Effects/BiquadFilters.h ****         inline void SetQ(const float q)
  96:Effects/BiquadFilters.h ****         {
  97:Effects/BiquadFilters.h ****             for (size_t i=0; i<NumSections; i++) {
  98:Effects/BiquadFilters.h ****                 q_[i] = daisysp::fmax(q, 0.1f);
  99:Effects/BiquadFilters.h ****             }
 100:Effects/BiquadFilters.h ****             updateCoefficients();
 101:Effects/BiquadFilters.h ****         }
 102:Effects/BiquadFilters.h **** 
 103:Effects/BiquadFilters.h ****         /// Update params simultaneously, recalculating coefficients only once 
 104:Effects/BiquadFilters.h ****         inline void SetParams(const float cutoff_hz, const float q)
 105:Effects/BiquadFilters.h ****         {
 106:Effects/BiquadFilters.h ****             cutoff_hz_ = daisysp::fclamp(cutoff_hz, 1.f, sample_rate_ * 0.5f);
 107:Effects/BiquadFilters.h ****             for (size_t i=0; i<NumSections; i++) {
 108:Effects/BiquadFilters.h ****                 q_[i] = daisysp::fmax(q, 0.1f);
 109:Effects/BiquadFilters.h ****             }
 110:Effects/BiquadFilters.h ****             updateCoefficients();
ARM GAS  /var/folders/9s/8rp0_f2s1n31qbztm3b5_fdh0000gn/T//ccWYl2xP.s 			page 68


 111:Effects/BiquadFilters.h ****         }
 112:Effects/BiquadFilters.h **** 
 113:Effects/BiquadFilters.h ****         /// Sets Q values in each section for a truly "flat" (-3dB cutoff point) response
 114:Effects/BiquadFilters.h ****         /// NOTE: per limitations of this class this only works for even-order filters
 115:Effects/BiquadFilters.h ****         inline void SetFlatResponse()
 116:Effects/BiquadFilters.h ****         {
 117:Effects/BiquadFilters.h ****             const float angleIncrement = 1.f / (4.f * static_cast<float>(NumSections));
 118:Effects/BiquadFilters.h ****             for (size_t i=0; i<NumSections; i++) {
 119:Effects/BiquadFilters.h ****                 q_[i] = 1.f / (2.f * cosf(PI_F * (angleIncrement * (i * 2 + 1))));
 120:Effects/BiquadFilters.h ****             }
 121:Effects/BiquadFilters.h ****             updateCoefficients();
 122:Effects/BiquadFilters.h ****         }
 123:Effects/BiquadFilters.h **** 
 124:Effects/BiquadFilters.h ****         inline float Process(const float in)
 125:Effects/BiquadFilters.h ****         {
 126:Effects/BiquadFilters.h ****             float out = in;
 127:Effects/BiquadFilters.h ****             for (auto &biquad : biquads_) {
 128:Effects/BiquadFilters.h ****                 out = biquad.Process(out, 0);
 129:Effects/BiquadFilters.h ****             }
 130:Effects/BiquadFilters.h ****             return out;
 131:Effects/BiquadFilters.h ****         }
 132:Effects/BiquadFilters.h **** 
 133:Effects/BiquadFilters.h ****         /// In-place stereo processing
 134:Effects/BiquadFilters.h ****         inline void ProcessStereo(float &sampL, float &sampR)
 135:Effects/BiquadFilters.h ****         {
 136:Effects/BiquadFilters.h ****             for (auto &biquad : biquads_) {
 137:Effects/BiquadFilters.h ****                 sampL = biquad.Process(sampL, 0);
 138:Effects/BiquadFilters.h ****                 sampR = biquad.Process(sampR, 1);
 139:Effects/BiquadFilters.h ****             }
 140:Effects/BiquadFilters.h ****         }
 141:Effects/BiquadFilters.h **** 
 142:Effects/BiquadFilters.h ****     private:
 143:Effects/BiquadFilters.h **** 
 144:Effects/BiquadFilters.h ****         float sample_rate_;
 145:Effects/BiquadFilters.h ****         float cutoff_hz_, q_[NumSections];
 146:Effects/BiquadFilters.h **** 
 147:Effects/BiquadFilters.h ****         std::array<BiquadSection, NumSections> biquads_;
 148:Effects/BiquadFilters.h **** 
 149:Effects/BiquadFilters.h ****         inline void updateCoefficients() {
 1536              		.loc 11 149 21 is_stmt 1 view -0
 1537              		.cfi_startproc
 1538              		@ args = 0, pretend = 0, frame = 40
 1539              		@ frame_needed = 0, uses_anonymous_args = 0
 1540              	.LBB513:
 150:Effects/BiquadFilters.h ****             for (size_t i=0; i<NumSections; i++) {
 1541              		.loc 11 150 31 view .LVU344
 1542              	.LBB514:
 1543              	.LBI514:
  95:/Library/DaisyToolchain/0.2.0/arm/arm-none-eabi/include/c++/10.3.1/array ****     {
  96:/Library/DaisyToolchain/0.2.0/arm/arm-none-eabi/include/c++/10.3.1/array ****       typedef _Tp 	    			      value_type;
  97:/Library/DaisyToolchain/0.2.0/arm/arm-none-eabi/include/c++/10.3.1/array ****       typedef value_type*			      pointer;
  98:/Library/DaisyToolchain/0.2.0/arm/arm-none-eabi/include/c++/10.3.1/array ****       typedef const value_type*                       const_pointer;
  99:/Library/DaisyToolchain/0.2.0/arm/arm-none-eabi/include/c++/10.3.1/array ****       typedef value_type&                   	      reference;
 100:/Library/DaisyToolchain/0.2.0/arm/arm-none-eabi/include/c++/10.3.1/array ****       typedef const value_type&             	      const_reference;
 101:/Library/DaisyToolchain/0.2.0/arm/arm-none-eabi/include/c++/10.3.1/array ****       typedef value_type*          		      iterator;
 102:/Library/DaisyToolchain/0.2.0/arm/arm-none-eabi/include/c++/10.3.1/array ****       typedef const value_type*			      const_iterator;
 103:/Library/DaisyToolchain/0.2.0/arm/arm-none-eabi/include/c++/10.3.1/array ****       typedef std::size_t                    	      size_type;
ARM GAS  /var/folders/9s/8rp0_f2s1n31qbztm3b5_fdh0000gn/T//ccWYl2xP.s 			page 69


 104:/Library/DaisyToolchain/0.2.0/arm/arm-none-eabi/include/c++/10.3.1/array ****       typedef std::ptrdiff_t                   	      difference_type;
 105:/Library/DaisyToolchain/0.2.0/arm/arm-none-eabi/include/c++/10.3.1/array ****       typedef std::reverse_iterator<iterator>	      reverse_iterator;
 106:/Library/DaisyToolchain/0.2.0/arm/arm-none-eabi/include/c++/10.3.1/array ****       typedef std::reverse_iterator<const_iterator>   const_reverse_iterator;
 107:/Library/DaisyToolchain/0.2.0/arm/arm-none-eabi/include/c++/10.3.1/array **** 
 108:/Library/DaisyToolchain/0.2.0/arm/arm-none-eabi/include/c++/10.3.1/array ****       // Support for zero-sized arrays mandatory.
 109:/Library/DaisyToolchain/0.2.0/arm/arm-none-eabi/include/c++/10.3.1/array ****       typedef _GLIBCXX_STD_C::__array_traits<_Tp, _Nm> _AT_Type;
 110:/Library/DaisyToolchain/0.2.0/arm/arm-none-eabi/include/c++/10.3.1/array ****       typename _AT_Type::_Type                         _M_elems;
 111:/Library/DaisyToolchain/0.2.0/arm/arm-none-eabi/include/c++/10.3.1/array **** 
 112:/Library/DaisyToolchain/0.2.0/arm/arm-none-eabi/include/c++/10.3.1/array ****       // No explicit construct/copy/destroy for aggregate type.
 113:/Library/DaisyToolchain/0.2.0/arm/arm-none-eabi/include/c++/10.3.1/array **** 
 114:/Library/DaisyToolchain/0.2.0/arm/arm-none-eabi/include/c++/10.3.1/array ****       // DR 776.
 115:/Library/DaisyToolchain/0.2.0/arm/arm-none-eabi/include/c++/10.3.1/array ****       _GLIBCXX20_CONSTEXPR void
 116:/Library/DaisyToolchain/0.2.0/arm/arm-none-eabi/include/c++/10.3.1/array ****       fill(const value_type& __u)
 117:/Library/DaisyToolchain/0.2.0/arm/arm-none-eabi/include/c++/10.3.1/array ****       { std::fill_n(begin(), size(), __u); }
 118:/Library/DaisyToolchain/0.2.0/arm/arm-none-eabi/include/c++/10.3.1/array **** 
 119:/Library/DaisyToolchain/0.2.0/arm/arm-none-eabi/include/c++/10.3.1/array ****       _GLIBCXX20_CONSTEXPR void
 120:/Library/DaisyToolchain/0.2.0/arm/arm-none-eabi/include/c++/10.3.1/array ****       swap(array& __other)
 121:/Library/DaisyToolchain/0.2.0/arm/arm-none-eabi/include/c++/10.3.1/array ****       noexcept(_AT_Type::_Is_nothrow_swappable::value)
 122:/Library/DaisyToolchain/0.2.0/arm/arm-none-eabi/include/c++/10.3.1/array ****       { std::swap_ranges(begin(), end(), __other.begin()); }
 123:/Library/DaisyToolchain/0.2.0/arm/arm-none-eabi/include/c++/10.3.1/array **** 
 124:/Library/DaisyToolchain/0.2.0/arm/arm-none-eabi/include/c++/10.3.1/array ****       // Iterators.
 125:/Library/DaisyToolchain/0.2.0/arm/arm-none-eabi/include/c++/10.3.1/array ****       _GLIBCXX17_CONSTEXPR iterator
 126:/Library/DaisyToolchain/0.2.0/arm/arm-none-eabi/include/c++/10.3.1/array ****       begin() noexcept
 127:/Library/DaisyToolchain/0.2.0/arm/arm-none-eabi/include/c++/10.3.1/array ****       { return iterator(data()); }
 128:/Library/DaisyToolchain/0.2.0/arm/arm-none-eabi/include/c++/10.3.1/array **** 
 129:/Library/DaisyToolchain/0.2.0/arm/arm-none-eabi/include/c++/10.3.1/array ****       _GLIBCXX17_CONSTEXPR const_iterator
 130:/Library/DaisyToolchain/0.2.0/arm/arm-none-eabi/include/c++/10.3.1/array ****       begin() const noexcept
 131:/Library/DaisyToolchain/0.2.0/arm/arm-none-eabi/include/c++/10.3.1/array ****       { return const_iterator(data()); }
 132:/Library/DaisyToolchain/0.2.0/arm/arm-none-eabi/include/c++/10.3.1/array **** 
 133:/Library/DaisyToolchain/0.2.0/arm/arm-none-eabi/include/c++/10.3.1/array ****       _GLIBCXX17_CONSTEXPR iterator
 134:/Library/DaisyToolchain/0.2.0/arm/arm-none-eabi/include/c++/10.3.1/array ****       end() noexcept
 135:/Library/DaisyToolchain/0.2.0/arm/arm-none-eabi/include/c++/10.3.1/array ****       { return iterator(data() + _Nm); }
 136:/Library/DaisyToolchain/0.2.0/arm/arm-none-eabi/include/c++/10.3.1/array **** 
 137:/Library/DaisyToolchain/0.2.0/arm/arm-none-eabi/include/c++/10.3.1/array ****       _GLIBCXX17_CONSTEXPR const_iterator
 138:/Library/DaisyToolchain/0.2.0/arm/arm-none-eabi/include/c++/10.3.1/array ****       end() const noexcept
 139:/Library/DaisyToolchain/0.2.0/arm/arm-none-eabi/include/c++/10.3.1/array ****       { return const_iterator(data() + _Nm); }
 140:/Library/DaisyToolchain/0.2.0/arm/arm-none-eabi/include/c++/10.3.1/array **** 
 141:/Library/DaisyToolchain/0.2.0/arm/arm-none-eabi/include/c++/10.3.1/array ****       _GLIBCXX17_CONSTEXPR reverse_iterator
 142:/Library/DaisyToolchain/0.2.0/arm/arm-none-eabi/include/c++/10.3.1/array ****       rbegin() noexcept
 143:/Library/DaisyToolchain/0.2.0/arm/arm-none-eabi/include/c++/10.3.1/array ****       { return reverse_iterator(end()); }
 144:/Library/DaisyToolchain/0.2.0/arm/arm-none-eabi/include/c++/10.3.1/array **** 
 145:/Library/DaisyToolchain/0.2.0/arm/arm-none-eabi/include/c++/10.3.1/array ****       _GLIBCXX17_CONSTEXPR const_reverse_iterator
 146:/Library/DaisyToolchain/0.2.0/arm/arm-none-eabi/include/c++/10.3.1/array ****       rbegin() const noexcept
 147:/Library/DaisyToolchain/0.2.0/arm/arm-none-eabi/include/c++/10.3.1/array ****       { return const_reverse_iterator(end()); }
 148:/Library/DaisyToolchain/0.2.0/arm/arm-none-eabi/include/c++/10.3.1/array **** 
 149:/Library/DaisyToolchain/0.2.0/arm/arm-none-eabi/include/c++/10.3.1/array ****       _GLIBCXX17_CONSTEXPR reverse_iterator
 150:/Library/DaisyToolchain/0.2.0/arm/arm-none-eabi/include/c++/10.3.1/array ****       rend() noexcept
 151:/Library/DaisyToolchain/0.2.0/arm/arm-none-eabi/include/c++/10.3.1/array ****       { return reverse_iterator(begin()); }
 152:/Library/DaisyToolchain/0.2.0/arm/arm-none-eabi/include/c++/10.3.1/array **** 
 153:/Library/DaisyToolchain/0.2.0/arm/arm-none-eabi/include/c++/10.3.1/array ****       _GLIBCXX17_CONSTEXPR const_reverse_iterator
 154:/Library/DaisyToolchain/0.2.0/arm/arm-none-eabi/include/c++/10.3.1/array ****       rend() const noexcept
 155:/Library/DaisyToolchain/0.2.0/arm/arm-none-eabi/include/c++/10.3.1/array ****       { return const_reverse_iterator(begin()); }
 156:/Library/DaisyToolchain/0.2.0/arm/arm-none-eabi/include/c++/10.3.1/array **** 
 157:/Library/DaisyToolchain/0.2.0/arm/arm-none-eabi/include/c++/10.3.1/array ****       _GLIBCXX17_CONSTEXPR const_iterator
 158:/Library/DaisyToolchain/0.2.0/arm/arm-none-eabi/include/c++/10.3.1/array ****       cbegin() const noexcept
 159:/Library/DaisyToolchain/0.2.0/arm/arm-none-eabi/include/c++/10.3.1/array ****       { return const_iterator(data()); }
 160:/Library/DaisyToolchain/0.2.0/arm/arm-none-eabi/include/c++/10.3.1/array **** 
ARM GAS  /var/folders/9s/8rp0_f2s1n31qbztm3b5_fdh0000gn/T//ccWYl2xP.s 			page 70


 161:/Library/DaisyToolchain/0.2.0/arm/arm-none-eabi/include/c++/10.3.1/array ****       _GLIBCXX17_CONSTEXPR const_iterator
 162:/Library/DaisyToolchain/0.2.0/arm/arm-none-eabi/include/c++/10.3.1/array ****       cend() const noexcept
 163:/Library/DaisyToolchain/0.2.0/arm/arm-none-eabi/include/c++/10.3.1/array ****       { return const_iterator(data() + _Nm); }
 164:/Library/DaisyToolchain/0.2.0/arm/arm-none-eabi/include/c++/10.3.1/array **** 
 165:/Library/DaisyToolchain/0.2.0/arm/arm-none-eabi/include/c++/10.3.1/array ****       _GLIBCXX17_CONSTEXPR const_reverse_iterator
 166:/Library/DaisyToolchain/0.2.0/arm/arm-none-eabi/include/c++/10.3.1/array ****       crbegin() const noexcept
 167:/Library/DaisyToolchain/0.2.0/arm/arm-none-eabi/include/c++/10.3.1/array ****       { return const_reverse_iterator(end()); }
 168:/Library/DaisyToolchain/0.2.0/arm/arm-none-eabi/include/c++/10.3.1/array **** 
 169:/Library/DaisyToolchain/0.2.0/arm/arm-none-eabi/include/c++/10.3.1/array ****       _GLIBCXX17_CONSTEXPR const_reverse_iterator
 170:/Library/DaisyToolchain/0.2.0/arm/arm-none-eabi/include/c++/10.3.1/array ****       crend() const noexcept
 171:/Library/DaisyToolchain/0.2.0/arm/arm-none-eabi/include/c++/10.3.1/array ****       { return const_reverse_iterator(begin()); }
 172:/Library/DaisyToolchain/0.2.0/arm/arm-none-eabi/include/c++/10.3.1/array **** 
 173:/Library/DaisyToolchain/0.2.0/arm/arm-none-eabi/include/c++/10.3.1/array ****       // Capacity.
 174:/Library/DaisyToolchain/0.2.0/arm/arm-none-eabi/include/c++/10.3.1/array ****       constexpr size_type
 175:/Library/DaisyToolchain/0.2.0/arm/arm-none-eabi/include/c++/10.3.1/array ****       size() const noexcept { return _Nm; }
 176:/Library/DaisyToolchain/0.2.0/arm/arm-none-eabi/include/c++/10.3.1/array **** 
 177:/Library/DaisyToolchain/0.2.0/arm/arm-none-eabi/include/c++/10.3.1/array ****       constexpr size_type
 178:/Library/DaisyToolchain/0.2.0/arm/arm-none-eabi/include/c++/10.3.1/array ****       max_size() const noexcept { return _Nm; }
 179:/Library/DaisyToolchain/0.2.0/arm/arm-none-eabi/include/c++/10.3.1/array **** 
 180:/Library/DaisyToolchain/0.2.0/arm/arm-none-eabi/include/c++/10.3.1/array ****       _GLIBCXX_NODISCARD constexpr bool
 181:/Library/DaisyToolchain/0.2.0/arm/arm-none-eabi/include/c++/10.3.1/array ****       empty() const noexcept { return size() == 0; }
 182:/Library/DaisyToolchain/0.2.0/arm/arm-none-eabi/include/c++/10.3.1/array **** 
 183:/Library/DaisyToolchain/0.2.0/arm/arm-none-eabi/include/c++/10.3.1/array ****       // Element access.
 184:/Library/DaisyToolchain/0.2.0/arm/arm-none-eabi/include/c++/10.3.1/array ****       _GLIBCXX17_CONSTEXPR reference
 185:/Library/DaisyToolchain/0.2.0/arm/arm-none-eabi/include/c++/10.3.1/array ****       operator[](size_type __n) noexcept
 1544              		.loc 12 185 7 view .LVU345
 1545              	.LBB515:
 1546              	.LBI515:
  55:/Library/DaisyToolchain/0.2.0/arm/arm-none-eabi/include/c++/10.3.1/array ****       { return const_cast<_Tp&>(__t[__n]); }
 1547              		.loc 12 55 7 view .LVU346
  55:/Library/DaisyToolchain/0.2.0/arm/arm-none-eabi/include/c++/10.3.1/array ****       { return const_cast<_Tp&>(__t[__n]); }
 1548              		.loc 12 55 7 is_stmt 0 view .LVU347
 1549              	.LBE515:
 1550              	.LBE514:
 1551              	.LBE513:
 149:Effects/BiquadFilters.h ****             for (size_t i=0; i<NumSections; i++) {
 1552              		.loc 11 149 21 view .LVU348
 1553 0000 70B5     		push	{r4, r5, r6, lr}
 1554              		.cfi_def_cfa_offset 16
 1555              		.cfi_offset 4, -16
 1556              		.cfi_offset 5, -12
 1557              		.cfi_offset 6, -8
 1558              		.cfi_offset 14, -4
 1559 0002 8AB0     		sub	sp, sp, #40
 1560              		.cfi_def_cfa_offset 56
 1561              	.LBB518:
 151:Effects/BiquadFilters.h ****                 biquads_[i].SetCoefficients(BiquadSection::CalculateCoefficients(FilterType, sample
 1562              		.loc 11 151 44 view .LVU349
 1563 0004 90ED021A 		vldr.32	s2, [r0, #8]
 1564 0008 D0ED010A 		vldr.32	s1, [r0, #4]
 1565 000c 0446     		mov	r4, r0
 1566 000e 6D46     		mov	r5, sp
 1567 0010 90ED000A 		vldr.32	s0, [r0]
 1568 0014 0221     		movs	r1, #2
 1569 0016 6846     		mov	r0, sp
 1570              	.LVL122:
 1571              		.loc 11 151 44 view .LVU350
ARM GAS  /var/folders/9s/8rp0_f2s1n31qbztm3b5_fdh0000gn/T//ccWYl2xP.s 			page 71


 1572 0018 FFF7FEFF 		bl	_ZN10infrasonic13BiquadSection21CalculateCoefficientsENS0_10FilterTypeEfff
 1573              	.LVL123:
 1574              		.loc 11 151 44 view .LVU351
 1575 001c 05AE     		add	r6, sp, #20
 1576 001e 0C34     		adds	r4, r4, #12
 1577              	.LVL124:
 1578              		.loc 11 151 44 view .LVU352
 1579 0020 0FCD     		ldmia	r5!, {r0, r1, r2, r3}
 1580 0022 0FC6     		stmia	r6!, {r0, r1, r2, r3}
 1581 0024 2E68     		ldr	r6, [r5]
 1582              	.LBB516:
 1583              	.LBI516:
  37:Effects/BiquadFilters.h **** 
 1584              		.loc 11 37 14 is_stmt 1 view .LVU353
 1585              	.LBB517:
  37:Effects/BiquadFilters.h **** 
 1586              		.loc 11 37 65 view .LVU354
  37:Effects/BiquadFilters.h **** 
 1587              		.loc 11 37 72 is_stmt 0 view .LVU355
 1588 0026 05AD     		add	r5, sp, #20
 1589 0028 0FCD     		ldmia	r5!, {r0, r1, r2, r3}
 1590 002a 0FC4     		stmia	r4!, {r0, r1, r2, r3}
 1591              	.LVL125:
  37:Effects/BiquadFilters.h **** 
 1592              		.loc 11 37 72 view .LVU356
 1593 002c 2660     		str	r6, [r4]
 1594              	.LVL126:
  37:Effects/BiquadFilters.h **** 
 1595              		.loc 11 37 72 view .LVU357
 1596              	.LBE517:
 1597              	.LBE516:
 150:Effects/BiquadFilters.h ****                 biquads_[i].SetCoefficients(BiquadSection::CalculateCoefficients(FilterType, sample
 1598              		.loc 11 150 13 is_stmt 1 view .LVU358
 150:Effects/BiquadFilters.h ****                 biquads_[i].SetCoefficients(BiquadSection::CalculateCoefficients(FilterType, sample
 1599              		.loc 11 150 31 view .LVU359
 1600              	.LBE518:
 152:Effects/BiquadFilters.h ****             }
 153:Effects/BiquadFilters.h ****         }
 1601              		.loc 11 153 9 is_stmt 0 view .LVU360
 1602 002e 0AB0     		add	sp, sp, #40
 1603              		.cfi_def_cfa_offset 16
 1604              		@ sp needed
 1605 0030 70BD     		pop	{r4, r5, r6, pc}
 1606              		.loc 11 153 9 view .LVU361
 1607              		.cfi_endproc
 1608              	.LFE6025:
 1610              		.section	.text._Z15InitializeDelayv,"ax",%progbits
 1611              		.align	1
 1612              		.global	_Z15InitializeDelayv
 1613              		.syntax unified
 1614              		.thumb
 1615              		.thumb_func
 1617              	_Z15InitializeDelayv:
 1618              	.LFB5349:
 105:Interface.cpp **** void InitializeDelay() {
 1619              		.loc 9 105 24 is_stmt 1 view -0
 1620              		.cfi_startproc
ARM GAS  /var/folders/9s/8rp0_f2s1n31qbztm3b5_fdh0000gn/T//ccWYl2xP.s 			page 72


 1621              		@ args = 0, pretend = 0, frame = 0
 1622              		@ frame_needed = 0, uses_anonymous_args = 0
 107:Interface.cpp ****     delay.Init(sample_rate); 
 1623              		.loc 9 107 5 view .LVU363
 105:Interface.cpp **** void InitializeDelay() {
 1624              		.loc 9 105 24 is_stmt 0 view .LVU364
 1625 0000 F8B5     		push	{r3, r4, r5, r6, r7, lr}
 1626              		.cfi_def_cfa_offset 24
 1627              		.cfi_offset 3, -24
 1628              		.cfi_offset 4, -20
 1629              		.cfi_offset 5, -16
 1630              		.cfi_offset 6, -12
 1631              		.cfi_offset 7, -8
 1632              		.cfi_offset 14, -4
 1633              	.LBB551:
 1634              	.LBB552:
  26:Effects/EchoDelay.h **** 
  27:Effects/EchoDelay.h ****         void Init(float sample_rate)
  28:Effects/EchoDelay.h ****         {
  29:Effects/EchoDelay.h ****             sample_rate_ = sample_rate;
 1635              		.loc 10 29 26 view .LVU365
 1636 0002 2C4C     		ldr	r4, .L65
 1637              	.LBB553:
 1638              	.LBB554:
 1639              	.LBB555:
 1640              	.LBB556:
  33:lib/DaisySP/Source/Utility/delayline.h ****     /** initializes the delay line by clearing the values within, and setting delay to 1 sample.
  34:lib/DaisySP/Source/Utility/delayline.h ****     */
  35:lib/DaisySP/Source/Utility/delayline.h ****     void Init() { Reset(); }
  36:lib/DaisySP/Source/Utility/delayline.h ****     /** clears buffer, sets write ptr to 0, and delay to 1 sample.
  37:lib/DaisySP/Source/Utility/delayline.h ****     */
  38:lib/DaisySP/Source/Utility/delayline.h ****     void Reset()
  39:lib/DaisySP/Source/Utility/delayline.h ****     {
  40:lib/DaisySP/Source/Utility/delayline.h ****         for(size_t i = 0; i < max_size; i++)
  41:lib/DaisySP/Source/Utility/delayline.h ****         {
  42:lib/DaisySP/Source/Utility/delayline.h ****             line_[i] = T(0);
 1641              		.loc 13 42 22 view .LVU366
 1642 0004 0021     		movs	r1, #0
 1643              	.LBE556:
 1644              	.LBE555:
 1645              	.LBE554:
 1646              	.LBE553:
 1647              	.LBE552:
 1648              	.LBE551:
 107:Interface.cpp ****     delay.Init(sample_rate); 
 1649              		.loc 9 107 15 view .LVU367
 1650 0006 2C4B     		ldr	r3, .L65+4
 1651              	.LBB614:
 1652              	.LBB611:
 1653              		.loc 10 29 26 view .LVU368
 1654 0008 2046     		mov	r0, r4
 1655              	.LBB565:
 1656              	.LBB562:
 1657              	.LBB559:
 1658              	.LBB557:
 1659              		.loc 13 42 22 view .LVU369
 1660 000a 2C4A     		ldr	r2, .L65+8
ARM GAS  /var/folders/9s/8rp0_f2s1n31qbztm3b5_fdh0000gn/T//ccWYl2xP.s 			page 73


 1661              	.LBE557:
 1662              	.LBE559:
 1663              	.LBE562:
 1664              	.LBE565:
 1665              	.LBE611:
 1666              	.LBE614:
 105:Interface.cpp **** void InitializeDelay() {
 1667              		.loc 9 105 24 view .LVU370
 1668 000c 2DED028B 		vpush.64	{d8}
 1669              		.cfi_def_cfa_offset 32
 1670              		.cfi_offset 80, -32
 1671              		.cfi_offset 81, -28
 107:Interface.cpp ****     delay.Init(sample_rate); 
 1672              		.loc 9 107 15 view .LVU371
 1673 0010 93ED008A 		vldr.32	s16, [r3]
 1674              	.LVL127:
 1675              	.LBB615:
 1676              	.LBI551:
  27:Effects/EchoDelay.h ****         {
 1677              		.loc 10 27 14 is_stmt 1 view .LVU372
 1678              	.LBB612:
 1679              		.loc 10 29 26 is_stmt 0 view .LVU373
 1680 0014 2030     		adds	r0, r0, #32
 1681              	.LBB566:
 1682              	.LBB567:
 106:Effects/BiquadFilters.h ****             for (size_t i=0; i<NumSections; i++) {
 1683              		.loc 11 106 41 view .LVU374
 1684 0016 F6EE008A 		vmov.f32	s17, #5.0e-1
 1685              	.LBE567:
 1686              	.LBE566:
 1687              		.loc 10 29 26 view .LVU375
 1688 001a 84ED008A 		vstr.32	s16, [r4]
 1689              	.LVL128:
 1690              	.LBB589:
 1691              	.LBI553:
  35:lib/DaisySP/Source/Utility/delayline.h ****     /** clears buffer, sets write ptr to 0, and delay to 1 sample.
 1692              		.loc 13 35 10 is_stmt 1 view .LVU376
 1693              	.LBB563:
 1694              	.LBI554:
  38:lib/DaisySP/Source/Utility/delayline.h ****     {
 1695              		.loc 13 38 10 view .LVU377
 1696              	.LBB560:
 1697              	.LBB558:
  40:lib/DaisySP/Source/Utility/delayline.h ****         {
 1698              		.loc 13 40 29 view .LVU378
 1699              		.loc 13 42 22 is_stmt 0 view .LVU379
 1700 001e FFF7FEFF 		bl	memset
 1701              	.LVL129:
 1702              		.loc 13 42 22 view .LVU380
 1703              	.LBE558:
  43:lib/DaisySP/Source/Utility/delayline.h ****         }
  44:lib/DaisySP/Source/Utility/delayline.h ****         write_ptr_ = 0;
  45:lib/DaisySP/Source/Utility/delayline.h ****         delay_     = 1;
 1704              		.loc 13 45 20 view .LVU381
 1705 0022 0022     		movs	r2, #0
 1706 0024 0123     		movs	r3, #1
 1707              	.LBE560:
ARM GAS  /var/folders/9s/8rp0_f2s1n31qbztm3b5_fdh0000gn/T//ccWYl2xP.s 			page 74


 1708              	.LBE563:
 1709              	.LBE589:
 1710              	.LBB590:
 1711              	.LBB591:
  85:Effects/BiquadFilters.h ****             SetFlatResponse();
 1712              		.loc 11 85 38 view .LVU382
 1713 0026 F5EE007A 		vmov.f32	s15, #2.5e-1
 1714              	.LBE591:
 1715              	.LBE590:
 1716              	.LBB605:
 1717              	.LBB564:
 1718              	.LBB561:
 1719              		.loc 13 45 20 view .LVU383
 1720 002a C4E90623 		strd	r2, r3, [r4, #24]
 1721              	.LVL130:
 1722              		.loc 13 45 20 view .LVU384
 1723              	.LBE561:
 1724              	.LBE564:
 1725              	.LBE605:
 1726              	.LBB606:
 1727              	.LBI590:
  83:Effects/BiquadFilters.h ****             sample_rate_ = sample_rate;
 1728              		.loc 11 83 14 is_stmt 1 view .LVU385
 1729              	.LBB603:
  84:Effects/BiquadFilters.h ****             cutoff_hz_ = sample_rate * 0.25f;
 1730              		.loc 11 84 26 is_stmt 0 view .LVU386
 1731 002e 04F53833 		add	r3, r4, #188416
 1732 0032 03F56267 		add	r7, r3, #3616
  85:Effects/BiquadFilters.h ****             SetFlatResponse();
 1733              		.loc 11 85 24 view .LVU387
 1734 0036 03F62466 		addw	r6, r3, #3620
 1735              	.LBB592:
 1736              	.LBB593:
 1737              	.LBB594:
 119:Effects/BiquadFilters.h ****             }
 1738              		.loc 11 119 23 view .LVU388
 1739 003a 03F62865 		addw	r5, r3, #3624
 1740 003e 204B     		ldr	r3, .L65+12
 1741              	.LBE594:
 1742              	.LBE593:
 1743              	.LBE592:
  84:Effects/BiquadFilters.h ****             cutoff_hz_ = sample_rate * 0.25f;
 1744              		.loc 11 84 26 view .LVU389
 1745 0040 87ED008A 		vstr.32	s16, [r7]
  85:Effects/BiquadFilters.h ****             SetFlatResponse();
 1746              		.loc 11 85 38 view .LVU390
 1747 0044 28EE278A 		vmul.f32	s16, s16, s15
 1748              	.LVL131:
 1749              	.LBB600:
 1750              	.LBB597:
 121:Effects/BiquadFilters.h ****         }
 1751              		.loc 11 121 31 view .LVU391
 1752 0048 3846     		mov	r0, r7
 1753              	.LBB595:
 119:Effects/BiquadFilters.h ****             }
 1754              		.loc 11 119 23 view .LVU392
 1755 004a 2B60     		str	r3, [r5]	@ float
ARM GAS  /var/folders/9s/8rp0_f2s1n31qbztm3b5_fdh0000gn/T//ccWYl2xP.s 			page 75


 1756              	.LBE595:
 1757              	.LBE597:
 1758              	.LBE600:
  85:Effects/BiquadFilters.h ****             SetFlatResponse();
 1759              		.loc 11 85 24 view .LVU393
 1760 004c 86ED008A 		vstr.32	s16, [r6]
 1761              	.LVL132:
 1762              	.LBB601:
 1763              	.LBI592:
 115:Effects/BiquadFilters.h ****         {
 1764              		.loc 11 115 21 is_stmt 1 view .LVU394
 1765              	.LBB598:
 1766              	.LBB596:
 118:Effects/BiquadFilters.h ****                 q_[i] = 1.f / (2.f * cosf(PI_F * (angleIncrement * (i * 2 + 1))));
 1767              		.loc 11 118 31 view .LVU395
 118:Effects/BiquadFilters.h ****                 q_[i] = 1.f / (2.f * cosf(PI_F * (angleIncrement * (i * 2 + 1))));
 1768              		.loc 11 118 13 view .LVU396
 118:Effects/BiquadFilters.h ****                 q_[i] = 1.f / (2.f * cosf(PI_F * (angleIncrement * (i * 2 + 1))));
 1769              		.loc 11 118 31 view .LVU397
 1770              	.LBE596:
 1771              	.LBE598:
 1772              	.LBE601:
 1773              	.LBE603:
 1774              	.LBE606:
 1775              	.LBB607:
 1776              	.LBB586:
 1777              	.LBB568:
 1778              	.LBB569:
 1779              	.LBB570:
 1780              		.file 22 "lib/DaisySP/Source/Utility/dsp.h"
   1:lib/DaisySP/Source/Utility/dsp.h **** /*
   2:lib/DaisySP/Source/Utility/dsp.h **** Copyright (c) 2020 Electrosmith, Corp, Emilie Gillet
   3:lib/DaisySP/Source/Utility/dsp.h **** 
   4:lib/DaisySP/Source/Utility/dsp.h **** Use of this source code is governed by an MIT-style
   5:lib/DaisySP/Source/Utility/dsp.h **** license that can be found in the LICENSE file or at
   6:lib/DaisySP/Source/Utility/dsp.h **** https://opensource.org/licenses/MIT.
   7:lib/DaisySP/Source/Utility/dsp.h **** */
   8:lib/DaisySP/Source/Utility/dsp.h **** 
   9:lib/DaisySP/Source/Utility/dsp.h **** /** Helpful defines, functions, and other utilities for use in/with daisysp modules.
  10:lib/DaisySP/Source/Utility/dsp.h **** */
  11:lib/DaisySP/Source/Utility/dsp.h **** #pragma once
  12:lib/DaisySP/Source/Utility/dsp.h **** #ifndef DSY_CORE_DSP
  13:lib/DaisySP/Source/Utility/dsp.h **** #define DSY_CORE_DSP
  14:lib/DaisySP/Source/Utility/dsp.h **** #include <cassert>
  15:lib/DaisySP/Source/Utility/dsp.h **** #include <cstdint>
  16:lib/DaisySP/Source/Utility/dsp.h **** #include <random>
  17:lib/DaisySP/Source/Utility/dsp.h **** #include <cmath>
  18:lib/DaisySP/Source/Utility/dsp.h **** 
  19:lib/DaisySP/Source/Utility/dsp.h **** /** PIs
  20:lib/DaisySP/Source/Utility/dsp.h **** */
  21:lib/DaisySP/Source/Utility/dsp.h **** #define PI_F 3.1415927410125732421875f
  22:lib/DaisySP/Source/Utility/dsp.h **** #define TWOPI_F (2.0f * PI_F)
  23:lib/DaisySP/Source/Utility/dsp.h **** #define HALFPI_F (PI_F * 0.5f)
  24:lib/DaisySP/Source/Utility/dsp.h **** #define DSY_MIN(in, mn) (in < mn ? in : mn)
  25:lib/DaisySP/Source/Utility/dsp.h **** #define DSY_MAX(in, mx) (in > mx ? in : mx)
  26:lib/DaisySP/Source/Utility/dsp.h **** #define DSY_CLAMP(in, mn, mx) (DSY_MIN(DSY_MAX(in, mn), mx))
  27:lib/DaisySP/Source/Utility/dsp.h **** #define DSY_COUNTOF(_arr) (sizeof(_arr) / sizeof(_arr[0]))
ARM GAS  /var/folders/9s/8rp0_f2s1n31qbztm3b5_fdh0000gn/T//ccWYl2xP.s 			page 76


  28:lib/DaisySP/Source/Utility/dsp.h **** 
  29:lib/DaisySP/Source/Utility/dsp.h **** namespace daisysp
  30:lib/DaisySP/Source/Utility/dsp.h **** {
  31:lib/DaisySP/Source/Utility/dsp.h **** //Avoids division for random floats. e.g. rand() * kRandFrac
  32:lib/DaisySP/Source/Utility/dsp.h **** static constexpr float kRandFrac = 1.f / (float)RAND_MAX;
  33:lib/DaisySP/Source/Utility/dsp.h **** 
  34:lib/DaisySP/Source/Utility/dsp.h **** //Convert from semitones to other units. e.g. 2 ^ (kOneTwelfth * x)
  35:lib/DaisySP/Source/Utility/dsp.h **** static constexpr float kOneTwelfth = 1.f / 12.f;
  36:lib/DaisySP/Source/Utility/dsp.h **** 
  37:lib/DaisySP/Source/Utility/dsp.h **** /** efficient floating point min/max
  38:lib/DaisySP/Source/Utility/dsp.h **** c/o stephen mccaul
  39:lib/DaisySP/Source/Utility/dsp.h **** */
  40:lib/DaisySP/Source/Utility/dsp.h **** inline float fmax(float a, float b)
  41:lib/DaisySP/Source/Utility/dsp.h **** {
  42:lib/DaisySP/Source/Utility/dsp.h ****     float r;
  43:lib/DaisySP/Source/Utility/dsp.h **** #ifdef __arm__
  44:lib/DaisySP/Source/Utility/dsp.h ****     asm("vmaxnm.f32 %[d], %[n], %[m]" : [d] "=t"(r) : [n] "t"(a), [m] "t"(b) :);
 1781              		.loc 22 44 5 is_stmt 0 view .LVU398
 1782 0050 B7EE008A 		vmov.f32	s16, #1.0e+0
 1783              	.LBE570:
 1784              	.LBE569:
 1785              	.LBE568:
 1786              	.LBE586:
 1787              	.LBE607:
 1788              	.LBB608:
 1789              	.LBB604:
 1790              	.LBB602:
 1791              	.LBB599:
 121:Effects/BiquadFilters.h ****         }
 1792              		.loc 11 121 31 view .LVU399
 1793 0054 FFF7FEFF 		bl	_ZN10infrasonic13BiquadCascadeILj1ELNS_13BiquadSection10FilterTypeE2EE18updateCoefficientsEv
 1794              	.LVL133:
 121:Effects/BiquadFilters.h ****         }
 1795              		.loc 11 121 31 view .LVU400
 1796              	.LBE599:
 1797              	.LBE602:
 1798              	.LBE604:
 1799              	.LBE608:
 1800              	.LBB609:
 1801              	.LBI566:
 104:Effects/BiquadFilters.h ****         {
 1802              		.loc 11 104 21 is_stmt 1 view .LVU401
 1803              	.LBB587:
 1804              	.LBB579:
 1805              	.LBI568:
  45:lib/DaisySP/Source/Utility/dsp.h **** #else
  46:lib/DaisySP/Source/Utility/dsp.h ****     r = (a > b) ? a : b;
  47:lib/DaisySP/Source/Utility/dsp.h **** #endif // __arm__
  48:lib/DaisySP/Source/Utility/dsp.h ****     return r;
  49:lib/DaisySP/Source/Utility/dsp.h **** }
  50:lib/DaisySP/Source/Utility/dsp.h **** 
  51:lib/DaisySP/Source/Utility/dsp.h **** inline float fmin(float a, float b)
  52:lib/DaisySP/Source/Utility/dsp.h **** {
  53:lib/DaisySP/Source/Utility/dsp.h ****     float r;
  54:lib/DaisySP/Source/Utility/dsp.h **** #ifdef __arm__
  55:lib/DaisySP/Source/Utility/dsp.h ****     asm("vminnm.f32 %[d], %[n], %[m]" : [d] "=t"(r) : [n] "t"(a), [m] "t"(b) :);
  56:lib/DaisySP/Source/Utility/dsp.h **** #else
ARM GAS  /var/folders/9s/8rp0_f2s1n31qbztm3b5_fdh0000gn/T//ccWYl2xP.s 			page 77


  57:lib/DaisySP/Source/Utility/dsp.h ****     r = (a < b) ? a : b;
  58:lib/DaisySP/Source/Utility/dsp.h **** #endif // __arm__
  59:lib/DaisySP/Source/Utility/dsp.h ****     return r;
  60:lib/DaisySP/Source/Utility/dsp.h **** }
  61:lib/DaisySP/Source/Utility/dsp.h **** 
  62:lib/DaisySP/Source/Utility/dsp.h **** /** quick fp clamp
  63:lib/DaisySP/Source/Utility/dsp.h **** */
  64:lib/DaisySP/Source/Utility/dsp.h **** inline float fclamp(float in, float min, float max)
 1806              		.loc 22 64 14 view .LVU402
 1807              	.LBE579:
 1808              	.LBE587:
 1809              	.LBE609:
 1810              	.LBE612:
 1811              	.LBE615:
  65:lib/DaisySP/Source/Utility/dsp.h **** {
  66:lib/DaisySP/Source/Utility/dsp.h ****     return fmin(fmax(in, min), max);
 1812              		.loc 22 66 5 view .LVU403
 1813              	.LBB616:
 1814              	.LBB613:
 1815              	.LBB610:
 1816              	.LBB588:
 1817              	.LBB580:
 1818              	.LBB574:
 1819              	.LBI569:
  40:lib/DaisySP/Source/Utility/dsp.h **** {
 1820              		.loc 22 40 14 view .LVU404
 1821              	.LBB571:
  42:lib/DaisySP/Source/Utility/dsp.h **** #ifdef __arm__
 1822              		.loc 22 42 5 view .LVU405
  44:lib/DaisySP/Source/Utility/dsp.h **** #else
 1823              		.loc 22 44 5 view .LVU406
 1824              	.LBE571:
 1825              	.LBE574:
 1826              	.LBE580:
 106:Effects/BiquadFilters.h ****             for (size_t i=0; i<NumSections; i++) {
 1827              		.loc 11 106 41 is_stmt 0 view .LVU407
 1828 0058 97ED007A 		vldr.32	s14, [r7]
 1829              	.LBB581:
 1830              	.LBB575:
 1831              	.LBB572:
  44:lib/DaisySP/Source/Utility/dsp.h **** #else
 1832              		.loc 22 44 5 view .LVU408
 1833 005c DFED197A 		vldr.32	s15, .L65+16
 1834              	.LBE572:
 1835              	.LBE575:
 1836              	.LBE581:
 110:Effects/BiquadFilters.h ****         }
 1837              		.loc 11 110 31 view .LVU409
 1838 0060 3846     		mov	r0, r7
 106:Effects/BiquadFilters.h ****             for (size_t i=0; i<NumSections; i++) {
 1839              		.loc 11 106 41 view .LVU410
 1840 0062 27EE287A 		vmul.f32	s14, s14, s17
 1841              	.LVL134:
 1842              	.LBB582:
 1843              	.LBB576:
 1844              	.LBB573:
  44:lib/DaisySP/Source/Utility/dsp.h **** #else
ARM GAS  /var/folders/9s/8rp0_f2s1n31qbztm3b5_fdh0000gn/T//ccWYl2xP.s 			page 78


 1845              		.loc 22 44 5 view .LVU411
 1846              		.syntax unified
 1847              	@ 44 "lib/DaisySP/Source/Utility/dsp.h" 1
 1848 0066 C7FE887A 		vmaxnm.f32 s15, s15, s16
 1849              	@ 0 "" 2
 1850              	.LVL135:
  48:lib/DaisySP/Source/Utility/dsp.h **** }
 1851              		.loc 22 48 5 is_stmt 1 view .LVU412
  48:lib/DaisySP/Source/Utility/dsp.h **** }
 1852              		.loc 22 48 5 is_stmt 0 view .LVU413
 1853              		.thumb
 1854              		.syntax unified
 1855              	.LBE573:
 1856              	.LBE576:
 1857              	.LBB577:
 1858              	.LBI577:
  51:lib/DaisySP/Source/Utility/dsp.h **** {
 1859              		.loc 22 51 14 is_stmt 1 view .LVU414
 1860              	.LBB578:
  53:lib/DaisySP/Source/Utility/dsp.h **** #ifdef __arm__
 1861              		.loc 22 53 5 view .LVU415
  55:lib/DaisySP/Source/Utility/dsp.h **** #else
 1862              		.loc 22 55 5 view .LVU416
 1863              		.syntax unified
 1864              	@ 55 "lib/DaisySP/Source/Utility/dsp.h" 1
 1865 006a C7FEC77A 		vminnm.f32 s15, s15, s14
 1866              	@ 0 "" 2
 1867              	.LVL136:
  59:lib/DaisySP/Source/Utility/dsp.h **** }
 1868              		.loc 22 59 5 view .LVU417
  59:lib/DaisySP/Source/Utility/dsp.h **** }
 1869              		.loc 22 59 5 is_stmt 0 view .LVU418
 1870              		.thumb
 1871              		.syntax unified
 1872              	.LBE578:
 1873              	.LBE577:
 1874              	.LBE582:
 106:Effects/BiquadFilters.h ****             for (size_t i=0; i<NumSections; i++) {
 1875              		.loc 11 106 24 view .LVU419
 1876 006e C6ED007A 		vstr.32	s15, [r6]
 1877              	.LVL137:
 1878              	.LBB583:
 107:Effects/BiquadFilters.h ****                 q_[i] = daisysp::fmax(q, 0.1f);
 1879              		.loc 11 107 31 is_stmt 1 view .LVU420
 1880              	.LBB584:
 1881              	.LBI584:
  40:lib/DaisySP/Source/Utility/dsp.h **** {
 1882              		.loc 22 40 14 view .LVU421
 1883              	.LBB585:
  42:lib/DaisySP/Source/Utility/dsp.h **** #ifdef __arm__
 1884              		.loc 22 42 5 view .LVU422
  44:lib/DaisySP/Source/Utility/dsp.h **** #else
 1885              		.loc 22 44 5 view .LVU423
 1886 0072 DFED157A 		vldr.32	s15, .L65+20
 1887              		.syntax unified
 1888              	@ 44 "lib/DaisySP/Source/Utility/dsp.h" 1
 1889 0076 C8FE277A 		vmaxnm.f32 s15, s16, s15
ARM GAS  /var/folders/9s/8rp0_f2s1n31qbztm3b5_fdh0000gn/T//ccWYl2xP.s 			page 79


 1890              	@ 0 "" 2
 1891              	.LVL138:
  48:lib/DaisySP/Source/Utility/dsp.h **** }
 1892              		.loc 22 48 5 view .LVU424
  48:lib/DaisySP/Source/Utility/dsp.h **** }
 1893              		.loc 22 48 5 is_stmt 0 view .LVU425
 1894              		.thumb
 1895              		.syntax unified
 1896              	.LBE585:
 1897              	.LBE584:
 108:Effects/BiquadFilters.h ****             }
 1898              		.loc 11 108 23 view .LVU426
 1899 007a C5ED007A 		vstr.32	s15, [r5]
 107:Effects/BiquadFilters.h ****                 q_[i] = daisysp::fmax(q, 0.1f);
 1900              		.loc 11 107 13 is_stmt 1 view .LVU427
 1901              	.LVL139:
 107:Effects/BiquadFilters.h ****                 q_[i] = daisysp::fmax(q, 0.1f);
 1902              		.loc 11 107 31 view .LVU428
 1903              	.LBE583:
 110:Effects/BiquadFilters.h ****         }
 1904              		.loc 11 110 31 is_stmt 0 view .LVU429
 1905 007e FFF7FEFF 		bl	_ZN10infrasonic13BiquadCascadeILj1ELNS_13BiquadSection10FilterTypeE2EE18updateCoefficientsEv
 1906              	.LVL140:
 110:Effects/BiquadFilters.h ****         }
 1907              		.loc 11 110 31 view .LVU430
 1908              	.LBE588:
 1909              	.LBE610:
 1910              	.LBE613:
 1911              	.LBE616:
 108:Interface.cpp ****     delay.SetLagTime(0.02f);         // Short lag for time changes
 1912              		.loc 9 108 5 is_stmt 1 view .LVU431
 1913              	.LBB617:
 1914              	.LBI617:
  30:Effects/EchoDelay.h ****             delayLine_.Init();
  31:Effects/EchoDelay.h ****             bpf_.Init(sample_rate);
  32:Effects/EchoDelay.h ****             bpf_.SetParams(800.0f, 1.0f);
  33:Effects/EchoDelay.h ****         }
  34:Effects/EchoDelay.h **** 
  35:Effects/EchoDelay.h ****         /**
  36:Effects/EchoDelay.h ****          * @brief Set the approximate lag time (smoothing) for delay time changes, in seconds
  37:Effects/EchoDelay.h ****          */
  38:Effects/EchoDelay.h ****         void SetLagTime(const float time_s)
 1915              		.loc 10 38 14 view .LVU432
 1916              	.LBB618:
  39:Effects/EchoDelay.h ****         {
  40:Effects/EchoDelay.h ****             delay_smooth_coef_ = onepole_coef(time_s, sample_rate_);
 1917              		.loc 10 40 46 is_stmt 0 view .LVU433
 1918 0082 D4ED007A 		vldr.32	s15, [r4]
 1919              	.LVL141:
 1920              	.LBB619:
 1921              	.LBI619:
 1922              		.file 23 "Effects/DSPUtils.h"
   1:Effects/DSPUtils.h **** #pragma once
   2:Effects/DSPUtils.h **** #ifndef INFS_DSPUTILS_H
   3:Effects/DSPUtils.h **** #define INFS_DSPUTILS_H
   4:Effects/DSPUtils.h **** 
   5:Effects/DSPUtils.h **** #include <cmath>
ARM GAS  /var/folders/9s/8rp0_f2s1n31qbztm3b5_fdh0000gn/T//ccWYl2xP.s 			page 80


   6:Effects/DSPUtils.h **** #include <Utility/dsp.h>
   7:Effects/DSPUtils.h **** #ifdef __arm__
   8:Effects/DSPUtils.h **** #include <arm_math.h>
   9:Effects/DSPUtils.h **** #endif
  10:Effects/DSPUtils.h **** 
  11:Effects/DSPUtils.h **** namespace infrasonic {
  12:Effects/DSPUtils.h **** 
  13:Effects/DSPUtils.h **** inline float dbfs2lin(float dbfs) {
  14:Effects/DSPUtils.h ****     return daisysp::pow10f(dbfs * 0.05f);
  15:Effects/DSPUtils.h **** }
  16:Effects/DSPUtils.h **** 
  17:Effects/DSPUtils.h **** inline float lin2dbfs(float lin) {
  18:Effects/DSPUtils.h ****     return daisysp::fastlog10f(lin) * 20.0f;
  19:Effects/DSPUtils.h **** }
  20:Effects/DSPUtils.h **** 
  21:Effects/DSPUtils.h **** // Coefficient for one pole smoothing filter based on Tau time constant for `time_s`
  22:Effects/DSPUtils.h **** inline float onepole_coef(float time_s, float sample_rate) {
 1923              		.loc 23 22 14 is_stmt 1 view .LVU434
 1924              	.LBB620:
  23:Effects/DSPUtils.h ****     if (time_s <= 0.0f || sample_rate <= 0.0f) { return 1.0f; }
 1925              		.loc 23 23 5 view .LVU435
 1926              		.loc 23 23 24 is_stmt 0 view .LVU436
 1927 0086 F5EEC07A 		vcmpe.f32	s15, #0
 1928 008a F1EE10FA 		vmrs	APSR_nzcv, FPSCR
 1929 008e 07D9     		bls	.L63
  24:Effects/DSPUtils.h ****     return daisysp::fmin(1.0f / (time_s * sample_rate), 1.0f);
 1930              		.loc 23 24 5 is_stmt 1 view .LVU437
 1931              	.LVL142:
 1932              	.LBB621:
 1933              	.LBI621:
  51:lib/DaisySP/Source/Utility/dsp.h **** {
 1934              		.loc 22 51 14 view .LVU438
 1935              	.LBB622:
  53:lib/DaisySP/Source/Utility/dsp.h **** #ifdef __arm__
 1936              		.loc 22 53 5 view .LVU439
  55:lib/DaisySP/Source/Utility/dsp.h **** #else
 1937              		.loc 22 55 5 view .LVU440
 1938              	.LBE622:
 1939              	.LBE621:
 1940              		.loc 23 24 41 is_stmt 0 view .LVU441
 1941 0090 9FED0E7A 		vldr.32	s14, .L65+24
 1942 0094 67EE877A 		vmul.f32	s15, s15, s14
 1943              	.LVL143:
 1944              		.loc 23 24 25 view .LVU442
 1945 0098 88EE277A 		vdiv.f32	s14, s16, s15
 1946              	.LVL144:
 1947              	.LBB624:
 1948              	.LBB623:
  55:lib/DaisySP/Source/Utility/dsp.h **** #else
 1949              		.loc 22 55 5 view .LVU443
 1950              		.syntax unified
 1951              	@ 55 "lib/DaisySP/Source/Utility/dsp.h" 1
 1952 009c 87FE488A 		vminnm.f32 s16, s14, s16
 1953              	@ 0 "" 2
 1954              	.LVL145:
  59:lib/DaisySP/Source/Utility/dsp.h **** }
 1955              		.loc 22 59 5 is_stmt 1 view .LVU444
ARM GAS  /var/folders/9s/8rp0_f2s1n31qbztm3b5_fdh0000gn/T//ccWYl2xP.s 			page 81


 1956              		.thumb
 1957              		.syntax unified
 1958              	.L63:
  59:lib/DaisySP/Source/Utility/dsp.h **** }
 1959              		.loc 22 59 5 is_stmt 0 view .LVU445
 1960              	.LBE623:
 1961              	.LBE624:
 1962              	.LBE620:
 1963              	.LBE619:
 1964              	.LBE618:
 1965              	.LBE617:
 1966              	.LBB626:
 1967              	.LBB627:
  41:Effects/EchoDelay.h ****         }
  42:Effects/EchoDelay.h **** 
  43:Effects/EchoDelay.h ****         /**
  44:Effects/EchoDelay.h ****          * @brief Set the Delay Time in seconds
  45:Effects/EchoDelay.h ****          *
  46:Effects/EchoDelay.h ****          * @param time_s Delay time in seconds. Will be truncated to MaxLength.
  47:Effects/EchoDelay.h ****          * @param immediately If true, sets delay time immediately with no smoothing.
  48:Effects/EchoDelay.h ****          */
  49:Effects/EchoDelay.h ****         void SetDelayTime(const float time_s, bool immediately = false)
  50:Effects/EchoDelay.h ****         {
  51:Effects/EchoDelay.h ****             delay_time_target_ = time_s;
 1968              		.loc 10 51 32 view .LVU446
 1969 00a0 0B4B     		ldr	r3, .L65+28
 1970              	.LBE627:
 1971              	.LBE626:
 1972              	.LBB629:
 1973              	.LBB625:
  40:Effects/EchoDelay.h ****         }
 1974              		.loc 10 40 32 view .LVU447
 1975 00a2 84ED038A 		vstr.32	s16, [r4, #12]
 1976              	.LVL146:
  40:Effects/EchoDelay.h ****         }
 1977              		.loc 10 40 32 view .LVU448
 1978              	.LBE625:
 1979              	.LBE629:
 109:Interface.cpp ****     delay.SetDelayTime(0.3f, true); // 300ms delay, set immediately
 1980              		.loc 9 109 5 is_stmt 1 view .LVU449
 1981              	.LBB630:
 1982              	.LBI626:
  49:Effects/EchoDelay.h ****         {
 1983              		.loc 10 49 14 view .LVU450
 1984              	.LBE630:
 1985              	.LBB631:
 1986              	.LBB632:
  52:Effects/EchoDelay.h ****             if (immediately) delay_time_current_ = time_s;
  53:Effects/EchoDelay.h ****         }
  54:Effects/EchoDelay.h **** 
  55:Effects/EchoDelay.h ****         /**
  56:Effects/EchoDelay.h ****          * @brief
  57:Effects/EchoDelay.h ****          * Set the feedback amount (linear multiplier).
  58:Effects/EchoDelay.h ****          * This can be >1 in magnitude for saturated swells, or negative.
  59:Effects/EchoDelay.h ****          *
  60:Effects/EchoDelay.h ****          * NOTE: This is not internally smoothed. Use external smoothing if desired.
  61:Effects/EchoDelay.h ****          *
ARM GAS  /var/folders/9s/8rp0_f2s1n31qbztm3b5_fdh0000gn/T//ccWYl2xP.s 			page 82


  62:Effects/EchoDelay.h ****          * @param feedback
  63:Effects/EchoDelay.h ****          */
  64:Effects/EchoDelay.h ****         void SetFeedback(const float feedback)
  65:Effects/EchoDelay.h ****         {
  66:Effects/EchoDelay.h ****             feedback_ = feedback;
 1987              		.loc 10 66 23 is_stmt 0 view .LVU451
 1988 00a6 C4ED048A 		vstr.32	s17, [r4, #16]
 1989              	.LBE632:
 1990              	.LBE631:
 1991              	.LBB633:
 1992              	.LBB628:
  51:Effects/EchoDelay.h ****             if (immediately) delay_time_current_ = time_s;
 1993              		.loc 10 51 32 view .LVU452
 1994 00aa A360     		str	r3, [r4, #8]	@ float
  52:Effects/EchoDelay.h ****             if (immediately) delay_time_current_ = time_s;
 1995              		.loc 10 52 50 view .LVU453
 1996 00ac 6360     		str	r3, [r4, #4]	@ float
 1997              	.LVL147:
  52:Effects/EchoDelay.h ****             if (immediately) delay_time_current_ = time_s;
 1998              		.loc 10 52 50 view .LVU454
 1999              	.LBE628:
 2000              	.LBE633:
 110:Interface.cpp ****     delay.SetFeedback(0.5f);         // 50% feedback
 2001              		.loc 9 110 5 is_stmt 1 view .LVU455
 2002              	.LBB634:
 2003              	.LBI631:
  64:Effects/EchoDelay.h ****         {
 2004              		.loc 10 64 14 view .LVU456
  64:Effects/EchoDelay.h ****         {
 2005              		.loc 10 64 14 is_stmt 0 view .LVU457
 2006              	.LBE634:
 111:Interface.cpp **** }
 2007              		.loc 9 111 1 view .LVU458
 2008 00ae BDEC028B 		vldm	sp!, {d8}
 2009              		.cfi_restore 80
 2010              		.cfi_restore 81
 2011              		.cfi_def_cfa_offset 24
 2012 00b2 F8BD     		pop	{r3, r4, r5, r6, r7, pc}
 2013              	.L66:
 2014              		.align	2
 2015              	.L65:
 2016 00b4 00000000 		.word	delay
 2017 00b8 00000000 		.word	.LANCHOR3
 2018 00bc 00EE0200 		.word	192000
 2019 00c0 F304353F 		.word	1060439283
 2020 00c4 00004844 		.word	1145569280
 2021 00c8 CDCCCC3D 		.word	1036831949
 2022 00cc 0AD7A33C 		.word	1017370378
 2023 00d0 9A99993E 		.word	1050253722
 2024              		.cfi_endproc
 2025              	.LFE5349:
 2027              		.section	.rodata._Z15InitializeSynthv.str1.1,"aMS",%progbits,1
 2028              	.LC4:
 2029 0000 506F6C79 		.ascii	"Poly (0-3)\000"
 2029      2028302D 
 2029      332900
 2030              	.LC5:
ARM GAS  /var/folders/9s/8rp0_f2s1n31qbztm3b5_fdh0000gn/T//ccWYl2xP.s 			page 83


 2031 000b 44796E61 		.ascii	"Dynamic Poly\000"
 2031      6D696320 
 2031      506F6C79 
 2031      00
 2032              	.LC6:
 2033 0018 506C6169 		.ascii	"Plaits Synth Started - Ready for Bootloader CMD\000"
 2033      74732053 
 2033      796E7468 
 2033      20537461 
 2033      72746564 
 2034              	.LC7:
 2035 0048 4D617820 		.ascii	"Max Voices: %d | Block: %d | SR: %d\000"
 2035      566F6963 
 2035      65733A20 
 2035      2564207C 
 2035      20426C6F 
 2036              	.LC8:
 2037 006c 456E6769 		.ascii	"Engine Range: 0-%d\000"
 2037      6E652052 
 2037      616E6765 
 2037      3A20302D 
 2037      256400
 2038              	.LC9:
 2039 007f 4D6F6465 		.ascii	"Mode: %s\000"
 2039      3A202573 
 2039      00
 2040              	.LC10:
 2041 0088 2D2D2D2D 		.ascii	"----------------\000"
 2041      2D2D2D2D 
 2041      2D2D2D2D 
 2041      2D2D2D2D 
 2041      00
 2042              		.section	.text._Z15InitializeSynthv,"ax",%progbits
 2043              		.align	1
 2044              		.global	_Z15InitializeSynthv
 2045              		.syntax unified
 2046              		.thumb
 2047              		.thumb_func
 2049              	_Z15InitializeSynthv:
 2050              	.LFB5351:
 133:Interface.cpp **** void InitializeSynth() {
 2051              		.loc 9 133 24 is_stmt 1 view -0
 2052              		.cfi_startproc
 2053              		@ args = 0, pretend = 0, frame = 64
 2054              		@ frame_needed = 0, uses_anonymous_args = 0
 134:Interface.cpp ****     InitializeHardware();
 2055              		.loc 9 134 5 view .LVU460
 133:Interface.cpp **** void InitializeSynth() {
 2056              		.loc 9 133 24 is_stmt 0 view .LVU461
 2057 0000 10B5     		push	{r4, lr}
 2058              		.cfi_def_cfa_offset 8
 2059              		.cfi_offset 4, -8
 2060              		.cfi_offset 14, -4
 140:Interface.cpp ****     cpu_meter.Init(sample_rate, BLOCK_SIZE); // Initialize the CPU Load Meter
 2061              		.loc 9 140 19 view .LVU462
 2062 0002 424C     		ldr	r4, .L70
 133:Interface.cpp **** void InitializeSynth() {
ARM GAS  /var/folders/9s/8rp0_f2s1n31qbztm3b5_fdh0000gn/T//ccWYl2xP.s 			page 84


 2063              		.loc 9 133 24 view .LVU463
 2064 0004 2DED028B 		vpush.64	{d8}
 2065              		.cfi_def_cfa_offset 16
 2066              		.cfi_offset 80, -16
 2067              		.cfi_offset 81, -12
 2068 0008 92B0     		sub	sp, sp, #72
 2069              		.cfi_def_cfa_offset 88
 134:Interface.cpp ****     InitializeHardware();
 2070              		.loc 9 134 23 view .LVU464
 2071 000a FFF7FEFF 		bl	_Z18InitializeHardwarev
 2072              	.LVL148:
 135:Interface.cpp ****     InitializeVoices(); // Call function from Polyphony.cpp
 2073              		.loc 9 135 5 is_stmt 1 view .LVU465
 135:Interface.cpp ****     InitializeVoices(); // Call function from Polyphony.cpp
 2074              		.loc 9 135 21 is_stmt 0 view .LVU466
 2075 000e FFF7FEFF 		bl	_Z16InitializeVoicesv
 2076              	.LVL149:
 136:Interface.cpp ****     InitializeControls();
 2077              		.loc 9 136 5 is_stmt 1 view .LVU467
 136:Interface.cpp ****     InitializeControls();
 2078              		.loc 9 136 23 is_stmt 0 view .LVU468
 2079 0012 FFF7FEFF 		bl	_Z18InitializeControlsv
 2080              	.LVL150:
 137:Interface.cpp ****     InitializeTouchSensor();
 2081              		.loc 9 137 5 is_stmt 1 view .LVU469
 137:Interface.cpp ****     InitializeTouchSensor();
 2082              		.loc 9 137 26 is_stmt 0 view .LVU470
 2083 0016 FFF7FEFF 		bl	_Z21InitializeTouchSensorv
 2084              	.LVL151:
 138:Interface.cpp ****     InitializeDelay();
 2085              		.loc 9 138 5 is_stmt 1 view .LVU471
 138:Interface.cpp ****     InitializeDelay();
 2086              		.loc 9 138 20 is_stmt 0 view .LVU472
 2087 001a FFF7FEFF 		bl	_Z15InitializeDelayv
 2088              	.LVL152:
 139:Interface.cpp ****     InitializeTouchLEDs();
 2089              		.loc 9 139 5 is_stmt 1 view .LVU473
 139:Interface.cpp ****     InitializeTouchLEDs();
 2090              		.loc 9 139 24 is_stmt 0 view .LVU474
 2091 001e FFF7FEFF 		bl	_Z19InitializeTouchLEDsv
 2092              	.LVL153:
 140:Interface.cpp ****     cpu_meter.Init(sample_rate, BLOCK_SIZE); // Initialize the CPU Load Meter
 2093              		.loc 9 140 5 is_stmt 1 view .LVU475
 140:Interface.cpp ****     cpu_meter.Init(sample_rate, BLOCK_SIZE); // Initialize the CPU Load Meter
 2094              		.loc 9 140 19 is_stmt 0 view .LVU476
 2095 0022 94ED008A 		vldr.32	s16, [r4]
 2096              	.LVL154:
 2097              	.LBB661:
 2098              	.LBI661:
 2099              		.file 24 "lib/libdaisy/src/util/CpuLoadMeter.h"
   1:lib/libdaisy/src/util/CpuLoadMeter.h **** #pragma once
   2:lib/libdaisy/src/util/CpuLoadMeter.h **** 
   3:lib/libdaisy/src/util/CpuLoadMeter.h **** #include "sys/system.h"
   4:lib/libdaisy/src/util/CpuLoadMeter.h **** #include <cmath>
   5:lib/libdaisy/src/util/CpuLoadMeter.h **** 
   6:lib/libdaisy/src/util/CpuLoadMeter.h **** namespace daisy
   7:lib/libdaisy/src/util/CpuLoadMeter.h **** {
ARM GAS  /var/folders/9s/8rp0_f2s1n31qbztm3b5_fdh0000gn/T//ccWYl2xP.s 			page 85


   8:lib/libdaisy/src/util/CpuLoadMeter.h **** /** @brief CPU load metering
   9:lib/libdaisy/src/util/CpuLoadMeter.h ****  *  @author jelliesen
  10:lib/libdaisy/src/util/CpuLoadMeter.h ****  *  @addtogroup utility
  11:lib/libdaisy/src/util/CpuLoadMeter.h ****  * 
  12:lib/libdaisy/src/util/CpuLoadMeter.h ****  *  To measure the CPU load of your audio processing, create a CpuLoadMeter
  13:lib/libdaisy/src/util/CpuLoadMeter.h ****  *  and initialize it with your block size and sample rate.
  14:lib/libdaisy/src/util/CpuLoadMeter.h ****  *  Then at the beginning of the audio callback, call `OnBlockStart()`, 
  15:lib/libdaisy/src/util/CpuLoadMeter.h ****  *  and at the end of the audio callback, call `OnBlockEnd()`.
  16:lib/libdaisy/src/util/CpuLoadMeter.h ****  *  You can then read out the minimum, maximum and average CPU load.
  17:lib/libdaisy/src/util/CpuLoadMeter.h ****  */
  18:lib/libdaisy/src/util/CpuLoadMeter.h **** class CpuLoadMeter
  19:lib/libdaisy/src/util/CpuLoadMeter.h **** {
  20:lib/libdaisy/src/util/CpuLoadMeter.h ****   public:
  21:lib/libdaisy/src/util/CpuLoadMeter.h ****     CpuLoadMeter(){};
  22:lib/libdaisy/src/util/CpuLoadMeter.h **** 
  23:lib/libdaisy/src/util/CpuLoadMeter.h ****     /** Initializes the CpuLoadMeter for a particular sample rate and block size.
  24:lib/libdaisy/src/util/CpuLoadMeter.h ****      *  @param sampleRateInHz           The sample rate in Hz
  25:lib/libdaisy/src/util/CpuLoadMeter.h ****      *  @param blockSizeInSamples       The block size in samples
  26:lib/libdaisy/src/util/CpuLoadMeter.h ****      *  @param smoothingFilterCutoffHz  The cutoff frequency of the smoothing filter that's used to
  27:lib/libdaisy/src/util/CpuLoadMeter.h ****      *                                  create the average CPU load reading.
  28:lib/libdaisy/src/util/CpuLoadMeter.h ****      */
  29:lib/libdaisy/src/util/CpuLoadMeter.h ****     void Init(float sampleRateInHz,
 2100              		.loc 24 29 10 is_stmt 1 view .LVU477
 2101              	.LBB662:
  30:lib/libdaisy/src/util/CpuLoadMeter.h ****               int   blockSizeInSamples,
  31:lib/libdaisy/src/util/CpuLoadMeter.h ****               float smoothingFilterCutoffHz = 1.0f)
  32:lib/libdaisy/src/util/CpuLoadMeter.h ****     {
  33:lib/libdaisy/src/util/CpuLoadMeter.h ****         const auto secPerBlock = float(blockSizeInSamples) / sampleRateInHz;
 2102              		.loc 24 33 9 view .LVU478
  34:lib/libdaisy/src/util/CpuLoadMeter.h ****         const auto ticksPerS   = float(System::GetTickFreq());
 2103              		.loc 24 34 9 view .LVU479
 2104              		.loc 24 34 59 is_stmt 0 view .LVU480
 2105 0026 FFF7FEFF 		bl	_ZN5daisy6System11GetTickFreqEv
 2106              	.LVL155:
  35:lib/libdaisy/src/util/CpuLoadMeter.h ****         ticksPerBlockInv_      = 1.0f / (ticksPerS * secPerBlock);
 2107              		.loc 24 35 9 is_stmt 1 view .LVU481
  33:lib/libdaisy/src/util/CpuLoadMeter.h ****         const auto ticksPerS   = float(System::GetTickFreq());
 2108              		.loc 24 33 20 is_stmt 0 view .LVU482
 2109 002a B3EE007A 		vmov.f32	s14, #1.6e+1
 2110              		.loc 24 35 32 view .LVU483
 2111 002e 384B     		ldr	r3, .L70+4
 2112              	.LBB663:
 2113              	.LBB664:
  36:lib/libdaisy/src/util/CpuLoadMeter.h **** 
  37:lib/libdaisy/src/util/CpuLoadMeter.h ****         // update filter coefficient for smoothing filter (1pole lowpass)
  38:lib/libdaisy/src/util/CpuLoadMeter.h ****         const auto blockRateInHz = sampleRateInHz / float(blockSizeInSamples);
  39:lib/libdaisy/src/util/CpuLoadMeter.h ****         const auto cutoffNormalized
  40:lib/libdaisy/src/util/CpuLoadMeter.h ****             = smoothingFilterCutoffHz * 2.0f * 3.141592653f / blockRateInHz;
  41:lib/libdaisy/src/util/CpuLoadMeter.h ****         // according to
  42:lib/libdaisy/src/util/CpuLoadMeter.h ****         // https://en.wikipedia.org/wiki/Low-pass_filter#Simple_infinite_impulse_response_filter
  43:lib/libdaisy/src/util/CpuLoadMeter.h ****         smoothingConstant_ = cutoffNormalized / (cutoffNormalized + 1.0f);
  44:lib/libdaisy/src/util/CpuLoadMeter.h **** 
  45:lib/libdaisy/src/util/CpuLoadMeter.h ****         Reset();
  46:lib/libdaisy/src/util/CpuLoadMeter.h ****     }
  47:lib/libdaisy/src/util/CpuLoadMeter.h **** 
  48:lib/libdaisy/src/util/CpuLoadMeter.h ****     /** Call this at the beginning of your audio callback */
  49:lib/libdaisy/src/util/CpuLoadMeter.h ****     void OnBlockStart() { currentBlockStartTicks_ = System::GetTick(); }
ARM GAS  /var/folders/9s/8rp0_f2s1n31qbztm3b5_fdh0000gn/T//ccWYl2xP.s 			page 86


  50:lib/libdaisy/src/util/CpuLoadMeter.h **** 
  51:lib/libdaisy/src/util/CpuLoadMeter.h ****     /** Call this at the end of your audio callback */
  52:lib/libdaisy/src/util/CpuLoadMeter.h ****     void OnBlockEnd()
  53:lib/libdaisy/src/util/CpuLoadMeter.h ****     {
  54:lib/libdaisy/src/util/CpuLoadMeter.h ****         const auto end         = System::GetTick();
  55:lib/libdaisy/src/util/CpuLoadMeter.h ****         const auto ticksPassed = end - currentBlockStartTicks_;
  56:lib/libdaisy/src/util/CpuLoadMeter.h ****         const auto currentBlockLoad
  57:lib/libdaisy/src/util/CpuLoadMeter.h ****             = float(ticksPassed) * ticksPerBlockInv_; // usPassed / usPerBlock
  58:lib/libdaisy/src/util/CpuLoadMeter.h **** 
  59:lib/libdaisy/src/util/CpuLoadMeter.h ****         if(firstCycle_)
  60:lib/libdaisy/src/util/CpuLoadMeter.h ****         {
  61:lib/libdaisy/src/util/CpuLoadMeter.h ****             max_ = min_ = avg_ = currentBlockLoad;
  62:lib/libdaisy/src/util/CpuLoadMeter.h ****             firstCycle_        = false;
  63:lib/libdaisy/src/util/CpuLoadMeter.h ****         }
  64:lib/libdaisy/src/util/CpuLoadMeter.h ****         else
  65:lib/libdaisy/src/util/CpuLoadMeter.h ****         {
  66:lib/libdaisy/src/util/CpuLoadMeter.h ****             if(currentBlockLoad > max_)
  67:lib/libdaisy/src/util/CpuLoadMeter.h ****                 max_ = currentBlockLoad;
  68:lib/libdaisy/src/util/CpuLoadMeter.h ****             if(currentBlockLoad < min_)
  69:lib/libdaisy/src/util/CpuLoadMeter.h ****                 min_ = currentBlockLoad;
  70:lib/libdaisy/src/util/CpuLoadMeter.h **** 
  71:lib/libdaisy/src/util/CpuLoadMeter.h ****             avg_ = smoothingConstant_ * currentBlockLoad
  72:lib/libdaisy/src/util/CpuLoadMeter.h ****                    + (1.0f - smoothingConstant_) * avg_;
  73:lib/libdaisy/src/util/CpuLoadMeter.h ****         }
  74:lib/libdaisy/src/util/CpuLoadMeter.h ****     }
  75:lib/libdaisy/src/util/CpuLoadMeter.h **** 
  76:lib/libdaisy/src/util/CpuLoadMeter.h ****     /** Returns the smoothed average CPU load in the range 0..1 */
  77:lib/libdaisy/src/util/CpuLoadMeter.h ****     float GetAvgCpuLoad() const { return avg_; }
  78:lib/libdaisy/src/util/CpuLoadMeter.h ****     /** Returns the minimun CPU load observed since the last call to Reset(). */
  79:lib/libdaisy/src/util/CpuLoadMeter.h ****     float GetMinCpuLoad() const { return min_; }
  80:lib/libdaisy/src/util/CpuLoadMeter.h ****     /** Returns the maximum CPU load observed since the last call to Reset(). */
  81:lib/libdaisy/src/util/CpuLoadMeter.h ****     float GetMaxCpuLoad() const { return max_; }
  82:lib/libdaisy/src/util/CpuLoadMeter.h **** 
  83:lib/libdaisy/src/util/CpuLoadMeter.h ****     /** Resets the minimun, maximum and average load readings. */
  84:lib/libdaisy/src/util/CpuLoadMeter.h ****     void Reset()
  85:lib/libdaisy/src/util/CpuLoadMeter.h ****     {
  86:lib/libdaisy/src/util/CpuLoadMeter.h ****         firstCycle_ = true;
 2114              		.loc 24 86 21 view .LVU484
 2115 0030 0122     		movs	r2, #1
 2116              	.LBE664:
 2117              	.LBE663:
 2118              	.LBE662:
 2119              	.LBE661:
 143:Interface.cpp ****     arp.Init(sample_rate);
 2120              		.loc 9 143 13 view .LVU485
 2121 0032 94ED000A 		vldr.32	s0, [r4]
 2122              	.LBB675:
 2123              	.LBB673:
  33:lib/libdaisy/src/util/CpuLoadMeter.h ****         const auto ticksPerS   = float(System::GetTickFreq());
 2124              		.loc 24 33 20 view .LVU486
 2125 0036 C7EE087A 		vdiv.f32	s15, s14, s16
 2126              	.LVL156:
  34:lib/libdaisy/src/util/CpuLoadMeter.h ****         ticksPerBlockInv_      = 1.0f / (ticksPerS * secPerBlock);
 2127              		.loc 24 34 61 view .LVU487
 2128 003a 07EE100A 		vmov	s14, r0	@ int
 2129              	.LBB669:
 2130              	.LBB665:
ARM GAS  /var/folders/9s/8rp0_f2s1n31qbztm3b5_fdh0000gn/T//ccWYl2xP.s 			page 87


 2131              		.loc 24 86 21 view .LVU488
 2132 003e 1A70     		strb	r2, [r3]
  87:lib/libdaisy/src/util/CpuLoadMeter.h ****         avg_ = max_ = min_ = NAN;
 2133              		.loc 24 87 28 view .LVU489
 2134 0040 344A     		ldr	r2, .L70+8
 2135              	.LBE665:
 2136              	.LBE669:
 2137              	.LBE673:
 2138              	.LBE675:
 143:Interface.cpp ****     arp.Init(sample_rate);
 2139              		.loc 9 143 13 view .LVU490
 2140 0042 3548     		ldr	r0, .L70+12
 2141              	.LVL157:
 2142              	.LBB676:
 2143              	.LBB674:
 2144              	.LBB670:
 2145              	.LBB666:
 2146              		.loc 24 87 28 view .LVU491
 2147 0044 DA60     		str	r2, [r3, #12]	@ float
 2148              	.LBE666:
 2149              	.LBE670:
  34:lib/libdaisy/src/util/CpuLoadMeter.h ****         ticksPerBlockInv_      = 1.0f / (ticksPerS * secPerBlock);
 2150              		.loc 24 34 61 view .LVU492
 2151 0046 B8EE477A 		vcvt.f32.u32	s14, s14
 2152              	.LVL158:
 2153              	.LBB671:
 2154              	.LBB667:
 2155              		.loc 24 87 21 view .LVU493
 2156 004a 1A61     		str	r2, [r3, #16]	@ float
 2157              		.loc 24 87 14 view .LVU494
 2158 004c 5A61     		str	r2, [r3, #20]	@ float
 2159              	.LBE667:
 2160              	.LBE671:
  35:lib/libdaisy/src/util/CpuLoadMeter.h **** 
 2161              		.loc 24 35 52 view .LVU495
 2162 004e 27EE877A 		vmul.f32	s14, s15, s14
 2163              	.LVL159:
  35:lib/libdaisy/src/util/CpuLoadMeter.h **** 
 2164              		.loc 24 35 39 view .LVU496
 2165 0052 F7EE007A 		vmov.f32	s15, #1.0e+0
 2166              	.LVL160:
  35:lib/libdaisy/src/util/CpuLoadMeter.h **** 
 2167              		.loc 24 35 39 view .LVU497
 2168 0056 C7EE876A 		vdiv.f32	s13, s15, s14
  38:lib/libdaisy/src/util/CpuLoadMeter.h ****         const auto cutoffNormalized
 2169              		.loc 24 38 20 view .LVU498
 2170 005a 9FED307A 		vldr.32	s14, .L70+16
 2171 005e 28EE078A 		vmul.f32	s16, s16, s14
 2172              	.LVL161:
  35:lib/libdaisy/src/util/CpuLoadMeter.h **** 
 2173              		.loc 24 35 32 view .LVU499
 2174 0062 C3ED016A 		vstr.32	s13, [r3, #4]
  38:lib/libdaisy/src/util/CpuLoadMeter.h ****         const auto cutoffNormalized
 2175              		.loc 24 38 9 is_stmt 1 view .LVU500
  39:lib/libdaisy/src/util/CpuLoadMeter.h ****             = smoothingFilterCutoffHz * 2.0f * 3.141592653f / blockRateInHz;
 2176              		.loc 24 39 9 view .LVU501
  39:lib/libdaisy/src/util/CpuLoadMeter.h ****             = smoothingFilterCutoffHz * 2.0f * 3.141592653f / blockRateInHz;
ARM GAS  /var/folders/9s/8rp0_f2s1n31qbztm3b5_fdh0000gn/T//ccWYl2xP.s 			page 88


 2177              		.loc 24 39 20 is_stmt 0 view .LVU502
 2178 0066 DFED2E6A 		vldr.32	s13, .L70+20
 2179 006a 86EE887A 		vdiv.f32	s14, s13, s16
 2180              	.LVL162:
  43:lib/libdaisy/src/util/CpuLoadMeter.h **** 
 2181              		.loc 24 43 9 is_stmt 1 view .LVU503
  43:lib/libdaisy/src/util/CpuLoadMeter.h **** 
 2182              		.loc 24 43 67 is_stmt 0 view .LVU504
 2183 006e 77EE277A 		vadd.f32	s15, s14, s15
  43:lib/libdaisy/src/util/CpuLoadMeter.h **** 
 2184              		.loc 24 43 47 view .LVU505
 2185 0072 C7EE276A 		vdiv.f32	s13, s14, s15
  43:lib/libdaisy/src/util/CpuLoadMeter.h **** 
 2186              		.loc 24 43 28 view .LVU506
 2187 0076 C3ED066A 		vstr.32	s13, [r3, #24]
  45:lib/libdaisy/src/util/CpuLoadMeter.h ****     }
 2188              		.loc 24 45 9 is_stmt 1 view .LVU507
 2189              	.LVL163:
 2190              	.LBB672:
 2191              	.LBI663:
  84:lib/libdaisy/src/util/CpuLoadMeter.h ****     {
 2192              		.loc 24 84 10 view .LVU508
 2193              	.LBB668:
  86:lib/libdaisy/src/util/CpuLoadMeter.h ****         avg_ = max_ = min_ = NAN;
 2194              		.loc 24 86 9 view .LVU509
 2195              		.loc 24 87 9 view .LVU510
 2196              		.loc 24 87 9 is_stmt 0 view .LVU511
 2197              	.LBE668:
 2198              	.LBE672:
 2199              	.LBE674:
 2200              	.LBE676:
 143:Interface.cpp ****     arp.Init(sample_rate);
 2201              		.loc 9 143 5 is_stmt 1 view .LVU512
 143:Interface.cpp ****     arp.Init(sample_rate);
 2202              		.loc 9 143 13 is_stmt 0 view .LVU513
 2203 007a FFF7FEFF 		bl	_ZN11Arpeggiator4InitEf
 2204              	.LVL164:
 145:Interface.cpp ****     arp.SetMainTempo(8.0f);
 2205              		.loc 9 145 5 is_stmt 1 view .LVU514
 145:Interface.cpp ****     arp.SetMainTempo(8.0f);
 2206              		.loc 9 145 21 is_stmt 0 view .LVU515
 2207 007e B2EE000A 		vmov.f32	s0, #8.0e+0
 2208 0082 2548     		ldr	r0, .L70+12
 2209 0084 FFF7FEFF 		bl	_ZN11Arpeggiator12SetMainTempoEf
 2210              	.LVL165:
 147:Interface.cpp ****     arp.SetNoteTriggerCallback([](int pad_idx) {
 2211              		.loc 9 147 5 is_stmt 1 view .LVU516
 2212              	.LBB677:
 2213              	.LBI677:
 304:/Library/DaisyToolchain/0.2.0/arm/arm-none-eabi/include/c++/10.3.1/bits/std_function.h ****     : public _Maybe_unary_or_binary_function<_Res, _ArgTypes...>,
 305:/Library/DaisyToolchain/0.2.0/arm/arm-none-eabi/include/c++/10.3.1/bits/std_function.h ****       private _Function_base
 306:/Library/DaisyToolchain/0.2.0/arm/arm-none-eabi/include/c++/10.3.1/bits/std_function.h ****     {
 307:/Library/DaisyToolchain/0.2.0/arm/arm-none-eabi/include/c++/10.3.1/bits/std_function.h ****       template<typename _Func,
 308:/Library/DaisyToolchain/0.2.0/arm/arm-none-eabi/include/c++/10.3.1/bits/std_function.h **** 	       typename _Res2 = __invoke_result<_Func&, _ArgTypes...>>
 309:/Library/DaisyToolchain/0.2.0/arm/arm-none-eabi/include/c++/10.3.1/bits/std_function.h **** 	struct _Callable
 310:/Library/DaisyToolchain/0.2.0/arm/arm-none-eabi/include/c++/10.3.1/bits/std_function.h **** 	: __is_invocable_impl<_Res2, _Res>::type
 311:/Library/DaisyToolchain/0.2.0/arm/arm-none-eabi/include/c++/10.3.1/bits/std_function.h **** 	{ };
ARM GAS  /var/folders/9s/8rp0_f2s1n31qbztm3b5_fdh0000gn/T//ccWYl2xP.s 			page 89


 312:/Library/DaisyToolchain/0.2.0/arm/arm-none-eabi/include/c++/10.3.1/bits/std_function.h **** 
 313:/Library/DaisyToolchain/0.2.0/arm/arm-none-eabi/include/c++/10.3.1/bits/std_function.h ****       // Used so the return type convertibility checks aren't done when
 314:/Library/DaisyToolchain/0.2.0/arm/arm-none-eabi/include/c++/10.3.1/bits/std_function.h ****       // performing overload resolution for copy construction/assignment.
 315:/Library/DaisyToolchain/0.2.0/arm/arm-none-eabi/include/c++/10.3.1/bits/std_function.h ****       template<typename _Tp>
 316:/Library/DaisyToolchain/0.2.0/arm/arm-none-eabi/include/c++/10.3.1/bits/std_function.h **** 	struct _Callable<function, _Tp> : false_type { };
 317:/Library/DaisyToolchain/0.2.0/arm/arm-none-eabi/include/c++/10.3.1/bits/std_function.h **** 
 318:/Library/DaisyToolchain/0.2.0/arm/arm-none-eabi/include/c++/10.3.1/bits/std_function.h ****       template<typename _Cond, typename _Tp>
 319:/Library/DaisyToolchain/0.2.0/arm/arm-none-eabi/include/c++/10.3.1/bits/std_function.h **** 	using _Requires = typename enable_if<_Cond::value, _Tp>::type;
 320:/Library/DaisyToolchain/0.2.0/arm/arm-none-eabi/include/c++/10.3.1/bits/std_function.h **** 
 321:/Library/DaisyToolchain/0.2.0/arm/arm-none-eabi/include/c++/10.3.1/bits/std_function.h ****     public:
 322:/Library/DaisyToolchain/0.2.0/arm/arm-none-eabi/include/c++/10.3.1/bits/std_function.h ****       typedef _Res result_type;
 323:/Library/DaisyToolchain/0.2.0/arm/arm-none-eabi/include/c++/10.3.1/bits/std_function.h **** 
 324:/Library/DaisyToolchain/0.2.0/arm/arm-none-eabi/include/c++/10.3.1/bits/std_function.h ****       // [3.7.2.1] construct/copy/destroy
 325:/Library/DaisyToolchain/0.2.0/arm/arm-none-eabi/include/c++/10.3.1/bits/std_function.h **** 
 326:/Library/DaisyToolchain/0.2.0/arm/arm-none-eabi/include/c++/10.3.1/bits/std_function.h ****       /**
 327:/Library/DaisyToolchain/0.2.0/arm/arm-none-eabi/include/c++/10.3.1/bits/std_function.h ****        *  @brief Default construct creates an empty function call wrapper.
 328:/Library/DaisyToolchain/0.2.0/arm/arm-none-eabi/include/c++/10.3.1/bits/std_function.h ****        *  @post @c !(bool)*this
 329:/Library/DaisyToolchain/0.2.0/arm/arm-none-eabi/include/c++/10.3.1/bits/std_function.h ****        */
 330:/Library/DaisyToolchain/0.2.0/arm/arm-none-eabi/include/c++/10.3.1/bits/std_function.h ****       function() noexcept
 331:/Library/DaisyToolchain/0.2.0/arm/arm-none-eabi/include/c++/10.3.1/bits/std_function.h ****       : _Function_base() { }
 332:/Library/DaisyToolchain/0.2.0/arm/arm-none-eabi/include/c++/10.3.1/bits/std_function.h **** 
 333:/Library/DaisyToolchain/0.2.0/arm/arm-none-eabi/include/c++/10.3.1/bits/std_function.h ****       /**
 334:/Library/DaisyToolchain/0.2.0/arm/arm-none-eabi/include/c++/10.3.1/bits/std_function.h ****        *  @brief Creates an empty function call wrapper.
 335:/Library/DaisyToolchain/0.2.0/arm/arm-none-eabi/include/c++/10.3.1/bits/std_function.h ****        *  @post @c !(bool)*this
 336:/Library/DaisyToolchain/0.2.0/arm/arm-none-eabi/include/c++/10.3.1/bits/std_function.h ****        */
 337:/Library/DaisyToolchain/0.2.0/arm/arm-none-eabi/include/c++/10.3.1/bits/std_function.h ****       function(nullptr_t) noexcept
 338:/Library/DaisyToolchain/0.2.0/arm/arm-none-eabi/include/c++/10.3.1/bits/std_function.h ****       : _Function_base() { }
 339:/Library/DaisyToolchain/0.2.0/arm/arm-none-eabi/include/c++/10.3.1/bits/std_function.h **** 
 340:/Library/DaisyToolchain/0.2.0/arm/arm-none-eabi/include/c++/10.3.1/bits/std_function.h ****       /**
 341:/Library/DaisyToolchain/0.2.0/arm/arm-none-eabi/include/c++/10.3.1/bits/std_function.h ****        *  @brief %Function copy constructor.
 342:/Library/DaisyToolchain/0.2.0/arm/arm-none-eabi/include/c++/10.3.1/bits/std_function.h ****        *  @param __x A %function object with identical call signature.
 343:/Library/DaisyToolchain/0.2.0/arm/arm-none-eabi/include/c++/10.3.1/bits/std_function.h ****        *  @post @c bool(*this) == bool(__x)
 344:/Library/DaisyToolchain/0.2.0/arm/arm-none-eabi/include/c++/10.3.1/bits/std_function.h ****        *
 345:/Library/DaisyToolchain/0.2.0/arm/arm-none-eabi/include/c++/10.3.1/bits/std_function.h ****        *  The newly-created %function contains a copy of the target of @a
 346:/Library/DaisyToolchain/0.2.0/arm/arm-none-eabi/include/c++/10.3.1/bits/std_function.h ****        *  __x (if it has one).
 347:/Library/DaisyToolchain/0.2.0/arm/arm-none-eabi/include/c++/10.3.1/bits/std_function.h ****        */
 348:/Library/DaisyToolchain/0.2.0/arm/arm-none-eabi/include/c++/10.3.1/bits/std_function.h ****       function(const function& __x);
 349:/Library/DaisyToolchain/0.2.0/arm/arm-none-eabi/include/c++/10.3.1/bits/std_function.h **** 
 350:/Library/DaisyToolchain/0.2.0/arm/arm-none-eabi/include/c++/10.3.1/bits/std_function.h ****       /**
 351:/Library/DaisyToolchain/0.2.0/arm/arm-none-eabi/include/c++/10.3.1/bits/std_function.h ****        *  @brief %Function move constructor.
 352:/Library/DaisyToolchain/0.2.0/arm/arm-none-eabi/include/c++/10.3.1/bits/std_function.h ****        *  @param __x A %function object rvalue with identical call signature.
 353:/Library/DaisyToolchain/0.2.0/arm/arm-none-eabi/include/c++/10.3.1/bits/std_function.h ****        *
 354:/Library/DaisyToolchain/0.2.0/arm/arm-none-eabi/include/c++/10.3.1/bits/std_function.h ****        *  The newly-created %function contains the target of @a __x
 355:/Library/DaisyToolchain/0.2.0/arm/arm-none-eabi/include/c++/10.3.1/bits/std_function.h ****        *  (if it has one).
 356:/Library/DaisyToolchain/0.2.0/arm/arm-none-eabi/include/c++/10.3.1/bits/std_function.h ****        */
 357:/Library/DaisyToolchain/0.2.0/arm/arm-none-eabi/include/c++/10.3.1/bits/std_function.h ****       function(function&& __x) noexcept : _Function_base()
 358:/Library/DaisyToolchain/0.2.0/arm/arm-none-eabi/include/c++/10.3.1/bits/std_function.h ****       {
 359:/Library/DaisyToolchain/0.2.0/arm/arm-none-eabi/include/c++/10.3.1/bits/std_function.h **** 	__x.swap(*this);
 360:/Library/DaisyToolchain/0.2.0/arm/arm-none-eabi/include/c++/10.3.1/bits/std_function.h ****       }
 361:/Library/DaisyToolchain/0.2.0/arm/arm-none-eabi/include/c++/10.3.1/bits/std_function.h **** 
 362:/Library/DaisyToolchain/0.2.0/arm/arm-none-eabi/include/c++/10.3.1/bits/std_function.h ****       /**
 363:/Library/DaisyToolchain/0.2.0/arm/arm-none-eabi/include/c++/10.3.1/bits/std_function.h ****        *  @brief Builds a %function that targets a copy of the incoming
 364:/Library/DaisyToolchain/0.2.0/arm/arm-none-eabi/include/c++/10.3.1/bits/std_function.h ****        *  function object.
 365:/Library/DaisyToolchain/0.2.0/arm/arm-none-eabi/include/c++/10.3.1/bits/std_function.h ****        *  @param __f A %function object that is callable with parameters of
 366:/Library/DaisyToolchain/0.2.0/arm/arm-none-eabi/include/c++/10.3.1/bits/std_function.h ****        *  type @c T1, @c T2, ..., @c TN and returns a value convertible
 367:/Library/DaisyToolchain/0.2.0/arm/arm-none-eabi/include/c++/10.3.1/bits/std_function.h ****        *  to @c Res.
 368:/Library/DaisyToolchain/0.2.0/arm/arm-none-eabi/include/c++/10.3.1/bits/std_function.h ****        *
ARM GAS  /var/folders/9s/8rp0_f2s1n31qbztm3b5_fdh0000gn/T//ccWYl2xP.s 			page 90


 369:/Library/DaisyToolchain/0.2.0/arm/arm-none-eabi/include/c++/10.3.1/bits/std_function.h ****        *  The newly-created %function object will target a copy of
 370:/Library/DaisyToolchain/0.2.0/arm/arm-none-eabi/include/c++/10.3.1/bits/std_function.h ****        *  @a __f. If @a __f is @c reference_wrapper<F>, then this function
 371:/Library/DaisyToolchain/0.2.0/arm/arm-none-eabi/include/c++/10.3.1/bits/std_function.h ****        *  object will contain a reference to the function object @c
 372:/Library/DaisyToolchain/0.2.0/arm/arm-none-eabi/include/c++/10.3.1/bits/std_function.h ****        *  __f.get(). If @a __f is a NULL function pointer or NULL
 373:/Library/DaisyToolchain/0.2.0/arm/arm-none-eabi/include/c++/10.3.1/bits/std_function.h ****        *  pointer-to-member, the newly-created object will be empty.
 374:/Library/DaisyToolchain/0.2.0/arm/arm-none-eabi/include/c++/10.3.1/bits/std_function.h ****        *
 375:/Library/DaisyToolchain/0.2.0/arm/arm-none-eabi/include/c++/10.3.1/bits/std_function.h ****        *  If @a __f is a non-NULL function pointer or an object of type @c
 376:/Library/DaisyToolchain/0.2.0/arm/arm-none-eabi/include/c++/10.3.1/bits/std_function.h ****        *  reference_wrapper<F>, this function will not throw.
 377:/Library/DaisyToolchain/0.2.0/arm/arm-none-eabi/include/c++/10.3.1/bits/std_function.h ****        */
 378:/Library/DaisyToolchain/0.2.0/arm/arm-none-eabi/include/c++/10.3.1/bits/std_function.h ****       template<typename _Functor,
 379:/Library/DaisyToolchain/0.2.0/arm/arm-none-eabi/include/c++/10.3.1/bits/std_function.h **** 	       typename = _Requires<__not_<is_same<_Functor, function>>, void>,
 380:/Library/DaisyToolchain/0.2.0/arm/arm-none-eabi/include/c++/10.3.1/bits/std_function.h **** 	       typename = _Requires<_Callable<_Functor>, void>>
 381:/Library/DaisyToolchain/0.2.0/arm/arm-none-eabi/include/c++/10.3.1/bits/std_function.h **** 	function(_Functor);
 382:/Library/DaisyToolchain/0.2.0/arm/arm-none-eabi/include/c++/10.3.1/bits/std_function.h **** 
 383:/Library/DaisyToolchain/0.2.0/arm/arm-none-eabi/include/c++/10.3.1/bits/std_function.h ****       /**
 384:/Library/DaisyToolchain/0.2.0/arm/arm-none-eabi/include/c++/10.3.1/bits/std_function.h ****        *  @brief %Function assignment operator.
 385:/Library/DaisyToolchain/0.2.0/arm/arm-none-eabi/include/c++/10.3.1/bits/std_function.h ****        *  @param __x A %function with identical call signature.
 386:/Library/DaisyToolchain/0.2.0/arm/arm-none-eabi/include/c++/10.3.1/bits/std_function.h ****        *  @post @c (bool)*this == (bool)x
 387:/Library/DaisyToolchain/0.2.0/arm/arm-none-eabi/include/c++/10.3.1/bits/std_function.h ****        *  @returns @c *this
 388:/Library/DaisyToolchain/0.2.0/arm/arm-none-eabi/include/c++/10.3.1/bits/std_function.h ****        *
 389:/Library/DaisyToolchain/0.2.0/arm/arm-none-eabi/include/c++/10.3.1/bits/std_function.h ****        *  The target of @a __x is copied to @c *this. If @a __x has no
 390:/Library/DaisyToolchain/0.2.0/arm/arm-none-eabi/include/c++/10.3.1/bits/std_function.h ****        *  target, then @c *this will be empty.
 391:/Library/DaisyToolchain/0.2.0/arm/arm-none-eabi/include/c++/10.3.1/bits/std_function.h ****        *
 392:/Library/DaisyToolchain/0.2.0/arm/arm-none-eabi/include/c++/10.3.1/bits/std_function.h ****        *  If @a __x targets a function pointer or a reference to a function
 393:/Library/DaisyToolchain/0.2.0/arm/arm-none-eabi/include/c++/10.3.1/bits/std_function.h ****        *  object, then this operation will not throw an %exception.
 394:/Library/DaisyToolchain/0.2.0/arm/arm-none-eabi/include/c++/10.3.1/bits/std_function.h ****        */
 395:/Library/DaisyToolchain/0.2.0/arm/arm-none-eabi/include/c++/10.3.1/bits/std_function.h ****       function&
 396:/Library/DaisyToolchain/0.2.0/arm/arm-none-eabi/include/c++/10.3.1/bits/std_function.h ****       operator=(const function& __x)
 397:/Library/DaisyToolchain/0.2.0/arm/arm-none-eabi/include/c++/10.3.1/bits/std_function.h ****       {
 398:/Library/DaisyToolchain/0.2.0/arm/arm-none-eabi/include/c++/10.3.1/bits/std_function.h **** 	function(__x).swap(*this);
 399:/Library/DaisyToolchain/0.2.0/arm/arm-none-eabi/include/c++/10.3.1/bits/std_function.h **** 	return *this;
 400:/Library/DaisyToolchain/0.2.0/arm/arm-none-eabi/include/c++/10.3.1/bits/std_function.h ****       }
 401:/Library/DaisyToolchain/0.2.0/arm/arm-none-eabi/include/c++/10.3.1/bits/std_function.h **** 
 402:/Library/DaisyToolchain/0.2.0/arm/arm-none-eabi/include/c++/10.3.1/bits/std_function.h ****       /**
 403:/Library/DaisyToolchain/0.2.0/arm/arm-none-eabi/include/c++/10.3.1/bits/std_function.h ****        *  @brief %Function move-assignment operator.
 404:/Library/DaisyToolchain/0.2.0/arm/arm-none-eabi/include/c++/10.3.1/bits/std_function.h ****        *  @param __x A %function rvalue with identical call signature.
 405:/Library/DaisyToolchain/0.2.0/arm/arm-none-eabi/include/c++/10.3.1/bits/std_function.h ****        *  @returns @c *this
 406:/Library/DaisyToolchain/0.2.0/arm/arm-none-eabi/include/c++/10.3.1/bits/std_function.h ****        *
 407:/Library/DaisyToolchain/0.2.0/arm/arm-none-eabi/include/c++/10.3.1/bits/std_function.h ****        *  The target of @a __x is moved to @c *this. If @a __x has no
 408:/Library/DaisyToolchain/0.2.0/arm/arm-none-eabi/include/c++/10.3.1/bits/std_function.h ****        *  target, then @c *this will be empty.
 409:/Library/DaisyToolchain/0.2.0/arm/arm-none-eabi/include/c++/10.3.1/bits/std_function.h ****        *
 410:/Library/DaisyToolchain/0.2.0/arm/arm-none-eabi/include/c++/10.3.1/bits/std_function.h ****        *  If @a __x targets a function pointer or a reference to a function
 411:/Library/DaisyToolchain/0.2.0/arm/arm-none-eabi/include/c++/10.3.1/bits/std_function.h ****        *  object, then this operation will not throw an %exception.
 412:/Library/DaisyToolchain/0.2.0/arm/arm-none-eabi/include/c++/10.3.1/bits/std_function.h ****        */
 413:/Library/DaisyToolchain/0.2.0/arm/arm-none-eabi/include/c++/10.3.1/bits/std_function.h ****       function&
 414:/Library/DaisyToolchain/0.2.0/arm/arm-none-eabi/include/c++/10.3.1/bits/std_function.h ****       operator=(function&& __x) noexcept
 415:/Library/DaisyToolchain/0.2.0/arm/arm-none-eabi/include/c++/10.3.1/bits/std_function.h ****       {
 416:/Library/DaisyToolchain/0.2.0/arm/arm-none-eabi/include/c++/10.3.1/bits/std_function.h **** 	function(std::move(__x)).swap(*this);
 417:/Library/DaisyToolchain/0.2.0/arm/arm-none-eabi/include/c++/10.3.1/bits/std_function.h **** 	return *this;
 418:/Library/DaisyToolchain/0.2.0/arm/arm-none-eabi/include/c++/10.3.1/bits/std_function.h ****       }
 419:/Library/DaisyToolchain/0.2.0/arm/arm-none-eabi/include/c++/10.3.1/bits/std_function.h **** 
 420:/Library/DaisyToolchain/0.2.0/arm/arm-none-eabi/include/c++/10.3.1/bits/std_function.h ****       /**
 421:/Library/DaisyToolchain/0.2.0/arm/arm-none-eabi/include/c++/10.3.1/bits/std_function.h ****        *  @brief %Function assignment to zero.
 422:/Library/DaisyToolchain/0.2.0/arm/arm-none-eabi/include/c++/10.3.1/bits/std_function.h ****        *  @post @c !(bool)*this
 423:/Library/DaisyToolchain/0.2.0/arm/arm-none-eabi/include/c++/10.3.1/bits/std_function.h ****        *  @returns @c *this
 424:/Library/DaisyToolchain/0.2.0/arm/arm-none-eabi/include/c++/10.3.1/bits/std_function.h ****        *
 425:/Library/DaisyToolchain/0.2.0/arm/arm-none-eabi/include/c++/10.3.1/bits/std_function.h ****        *  The target of @c *this is deallocated, leaving it empty.
ARM GAS  /var/folders/9s/8rp0_f2s1n31qbztm3b5_fdh0000gn/T//ccWYl2xP.s 			page 91


 426:/Library/DaisyToolchain/0.2.0/arm/arm-none-eabi/include/c++/10.3.1/bits/std_function.h ****        */
 427:/Library/DaisyToolchain/0.2.0/arm/arm-none-eabi/include/c++/10.3.1/bits/std_function.h ****       function&
 428:/Library/DaisyToolchain/0.2.0/arm/arm-none-eabi/include/c++/10.3.1/bits/std_function.h ****       operator=(nullptr_t) noexcept
 429:/Library/DaisyToolchain/0.2.0/arm/arm-none-eabi/include/c++/10.3.1/bits/std_function.h ****       {
 430:/Library/DaisyToolchain/0.2.0/arm/arm-none-eabi/include/c++/10.3.1/bits/std_function.h **** 	if (_M_manager)
 431:/Library/DaisyToolchain/0.2.0/arm/arm-none-eabi/include/c++/10.3.1/bits/std_function.h **** 	  {
 432:/Library/DaisyToolchain/0.2.0/arm/arm-none-eabi/include/c++/10.3.1/bits/std_function.h **** 	    _M_manager(_M_functor, _M_functor, __destroy_functor);
 433:/Library/DaisyToolchain/0.2.0/arm/arm-none-eabi/include/c++/10.3.1/bits/std_function.h **** 	    _M_manager = nullptr;
 434:/Library/DaisyToolchain/0.2.0/arm/arm-none-eabi/include/c++/10.3.1/bits/std_function.h **** 	    _M_invoker = nullptr;
 435:/Library/DaisyToolchain/0.2.0/arm/arm-none-eabi/include/c++/10.3.1/bits/std_function.h **** 	  }
 436:/Library/DaisyToolchain/0.2.0/arm/arm-none-eabi/include/c++/10.3.1/bits/std_function.h **** 	return *this;
 437:/Library/DaisyToolchain/0.2.0/arm/arm-none-eabi/include/c++/10.3.1/bits/std_function.h ****       }
 438:/Library/DaisyToolchain/0.2.0/arm/arm-none-eabi/include/c++/10.3.1/bits/std_function.h **** 
 439:/Library/DaisyToolchain/0.2.0/arm/arm-none-eabi/include/c++/10.3.1/bits/std_function.h ****       /**
 440:/Library/DaisyToolchain/0.2.0/arm/arm-none-eabi/include/c++/10.3.1/bits/std_function.h ****        *  @brief %Function assignment to a new target.
 441:/Library/DaisyToolchain/0.2.0/arm/arm-none-eabi/include/c++/10.3.1/bits/std_function.h ****        *  @param __f A %function object that is callable with parameters of
 442:/Library/DaisyToolchain/0.2.0/arm/arm-none-eabi/include/c++/10.3.1/bits/std_function.h ****        *  type @c T1, @c T2, ..., @c TN and returns a value convertible
 443:/Library/DaisyToolchain/0.2.0/arm/arm-none-eabi/include/c++/10.3.1/bits/std_function.h ****        *  to @c Res.
 444:/Library/DaisyToolchain/0.2.0/arm/arm-none-eabi/include/c++/10.3.1/bits/std_function.h ****        *  @return @c *this
 445:/Library/DaisyToolchain/0.2.0/arm/arm-none-eabi/include/c++/10.3.1/bits/std_function.h ****        *
 446:/Library/DaisyToolchain/0.2.0/arm/arm-none-eabi/include/c++/10.3.1/bits/std_function.h ****        *  This  %function object wrapper will target a copy of @a
 447:/Library/DaisyToolchain/0.2.0/arm/arm-none-eabi/include/c++/10.3.1/bits/std_function.h ****        *  __f. If @a __f is @c reference_wrapper<F>, then this function
 448:/Library/DaisyToolchain/0.2.0/arm/arm-none-eabi/include/c++/10.3.1/bits/std_function.h ****        *  object will contain a reference to the function object @c
 449:/Library/DaisyToolchain/0.2.0/arm/arm-none-eabi/include/c++/10.3.1/bits/std_function.h ****        *  __f.get(). If @a __f is a NULL function pointer or NULL
 450:/Library/DaisyToolchain/0.2.0/arm/arm-none-eabi/include/c++/10.3.1/bits/std_function.h ****        *  pointer-to-member, @c this object will be empty.
 451:/Library/DaisyToolchain/0.2.0/arm/arm-none-eabi/include/c++/10.3.1/bits/std_function.h ****        *
 452:/Library/DaisyToolchain/0.2.0/arm/arm-none-eabi/include/c++/10.3.1/bits/std_function.h ****        *  If @a __f is a non-NULL function pointer or an object of type @c
 453:/Library/DaisyToolchain/0.2.0/arm/arm-none-eabi/include/c++/10.3.1/bits/std_function.h ****        *  reference_wrapper<F>, this function will not throw.
 454:/Library/DaisyToolchain/0.2.0/arm/arm-none-eabi/include/c++/10.3.1/bits/std_function.h ****        */
 455:/Library/DaisyToolchain/0.2.0/arm/arm-none-eabi/include/c++/10.3.1/bits/std_function.h ****       template<typename _Functor>
 456:/Library/DaisyToolchain/0.2.0/arm/arm-none-eabi/include/c++/10.3.1/bits/std_function.h **** 	_Requires<_Callable<typename decay<_Functor>::type>, function&>
 457:/Library/DaisyToolchain/0.2.0/arm/arm-none-eabi/include/c++/10.3.1/bits/std_function.h **** 	operator=(_Functor&& __f)
 458:/Library/DaisyToolchain/0.2.0/arm/arm-none-eabi/include/c++/10.3.1/bits/std_function.h **** 	{
 459:/Library/DaisyToolchain/0.2.0/arm/arm-none-eabi/include/c++/10.3.1/bits/std_function.h **** 	  function(std::forward<_Functor>(__f)).swap(*this);
 460:/Library/DaisyToolchain/0.2.0/arm/arm-none-eabi/include/c++/10.3.1/bits/std_function.h **** 	  return *this;
 461:/Library/DaisyToolchain/0.2.0/arm/arm-none-eabi/include/c++/10.3.1/bits/std_function.h **** 	}
 462:/Library/DaisyToolchain/0.2.0/arm/arm-none-eabi/include/c++/10.3.1/bits/std_function.h **** 
 463:/Library/DaisyToolchain/0.2.0/arm/arm-none-eabi/include/c++/10.3.1/bits/std_function.h ****       /// @overload
 464:/Library/DaisyToolchain/0.2.0/arm/arm-none-eabi/include/c++/10.3.1/bits/std_function.h ****       template<typename _Functor>
 465:/Library/DaisyToolchain/0.2.0/arm/arm-none-eabi/include/c++/10.3.1/bits/std_function.h **** 	function&
 466:/Library/DaisyToolchain/0.2.0/arm/arm-none-eabi/include/c++/10.3.1/bits/std_function.h **** 	operator=(reference_wrapper<_Functor> __f) noexcept
 467:/Library/DaisyToolchain/0.2.0/arm/arm-none-eabi/include/c++/10.3.1/bits/std_function.h **** 	{
 468:/Library/DaisyToolchain/0.2.0/arm/arm-none-eabi/include/c++/10.3.1/bits/std_function.h **** 	  function(__f).swap(*this);
 469:/Library/DaisyToolchain/0.2.0/arm/arm-none-eabi/include/c++/10.3.1/bits/std_function.h **** 	  return *this;
 470:/Library/DaisyToolchain/0.2.0/arm/arm-none-eabi/include/c++/10.3.1/bits/std_function.h **** 	}
 471:/Library/DaisyToolchain/0.2.0/arm/arm-none-eabi/include/c++/10.3.1/bits/std_function.h **** 
 472:/Library/DaisyToolchain/0.2.0/arm/arm-none-eabi/include/c++/10.3.1/bits/std_function.h ****       // [3.7.2.2] function modifiers
 473:/Library/DaisyToolchain/0.2.0/arm/arm-none-eabi/include/c++/10.3.1/bits/std_function.h **** 
 474:/Library/DaisyToolchain/0.2.0/arm/arm-none-eabi/include/c++/10.3.1/bits/std_function.h ****       /**
 475:/Library/DaisyToolchain/0.2.0/arm/arm-none-eabi/include/c++/10.3.1/bits/std_function.h ****        *  @brief Swap the targets of two %function objects.
 476:/Library/DaisyToolchain/0.2.0/arm/arm-none-eabi/include/c++/10.3.1/bits/std_function.h ****        *  @param __x A %function with identical call signature.
 477:/Library/DaisyToolchain/0.2.0/arm/arm-none-eabi/include/c++/10.3.1/bits/std_function.h ****        *
 478:/Library/DaisyToolchain/0.2.0/arm/arm-none-eabi/include/c++/10.3.1/bits/std_function.h ****        *  Swap the targets of @c this function object and @a __f. This
 479:/Library/DaisyToolchain/0.2.0/arm/arm-none-eabi/include/c++/10.3.1/bits/std_function.h ****        *  function will not throw an %exception.
 480:/Library/DaisyToolchain/0.2.0/arm/arm-none-eabi/include/c++/10.3.1/bits/std_function.h ****        */
 481:/Library/DaisyToolchain/0.2.0/arm/arm-none-eabi/include/c++/10.3.1/bits/std_function.h ****       void swap(function& __x) noexcept
 482:/Library/DaisyToolchain/0.2.0/arm/arm-none-eabi/include/c++/10.3.1/bits/std_function.h ****       {
ARM GAS  /var/folders/9s/8rp0_f2s1n31qbztm3b5_fdh0000gn/T//ccWYl2xP.s 			page 92


 483:/Library/DaisyToolchain/0.2.0/arm/arm-none-eabi/include/c++/10.3.1/bits/std_function.h **** 	std::swap(_M_functor, __x._M_functor);
 484:/Library/DaisyToolchain/0.2.0/arm/arm-none-eabi/include/c++/10.3.1/bits/std_function.h **** 	std::swap(_M_manager, __x._M_manager);
 485:/Library/DaisyToolchain/0.2.0/arm/arm-none-eabi/include/c++/10.3.1/bits/std_function.h **** 	std::swap(_M_invoker, __x._M_invoker);
 486:/Library/DaisyToolchain/0.2.0/arm/arm-none-eabi/include/c++/10.3.1/bits/std_function.h ****       }
 487:/Library/DaisyToolchain/0.2.0/arm/arm-none-eabi/include/c++/10.3.1/bits/std_function.h **** 
 488:/Library/DaisyToolchain/0.2.0/arm/arm-none-eabi/include/c++/10.3.1/bits/std_function.h ****       // [3.7.2.3] function capacity
 489:/Library/DaisyToolchain/0.2.0/arm/arm-none-eabi/include/c++/10.3.1/bits/std_function.h **** 
 490:/Library/DaisyToolchain/0.2.0/arm/arm-none-eabi/include/c++/10.3.1/bits/std_function.h ****       /**
 491:/Library/DaisyToolchain/0.2.0/arm/arm-none-eabi/include/c++/10.3.1/bits/std_function.h ****        *  @brief Determine if the %function wrapper has a target.
 492:/Library/DaisyToolchain/0.2.0/arm/arm-none-eabi/include/c++/10.3.1/bits/std_function.h ****        *
 493:/Library/DaisyToolchain/0.2.0/arm/arm-none-eabi/include/c++/10.3.1/bits/std_function.h ****        *  @return @c true when this %function object contains a target,
 494:/Library/DaisyToolchain/0.2.0/arm/arm-none-eabi/include/c++/10.3.1/bits/std_function.h ****        *  or @c false when it is empty.
 495:/Library/DaisyToolchain/0.2.0/arm/arm-none-eabi/include/c++/10.3.1/bits/std_function.h ****        *
 496:/Library/DaisyToolchain/0.2.0/arm/arm-none-eabi/include/c++/10.3.1/bits/std_function.h ****        *  This function will not throw an %exception.
 497:/Library/DaisyToolchain/0.2.0/arm/arm-none-eabi/include/c++/10.3.1/bits/std_function.h ****        */
 498:/Library/DaisyToolchain/0.2.0/arm/arm-none-eabi/include/c++/10.3.1/bits/std_function.h ****       explicit operator bool() const noexcept
 499:/Library/DaisyToolchain/0.2.0/arm/arm-none-eabi/include/c++/10.3.1/bits/std_function.h ****       { return !_M_empty(); }
 500:/Library/DaisyToolchain/0.2.0/arm/arm-none-eabi/include/c++/10.3.1/bits/std_function.h **** 
 501:/Library/DaisyToolchain/0.2.0/arm/arm-none-eabi/include/c++/10.3.1/bits/std_function.h ****       // [3.7.2.4] function invocation
 502:/Library/DaisyToolchain/0.2.0/arm/arm-none-eabi/include/c++/10.3.1/bits/std_function.h **** 
 503:/Library/DaisyToolchain/0.2.0/arm/arm-none-eabi/include/c++/10.3.1/bits/std_function.h ****       /**
 504:/Library/DaisyToolchain/0.2.0/arm/arm-none-eabi/include/c++/10.3.1/bits/std_function.h ****        *  @brief Invokes the function targeted by @c *this.
 505:/Library/DaisyToolchain/0.2.0/arm/arm-none-eabi/include/c++/10.3.1/bits/std_function.h ****        *  @returns the result of the target.
 506:/Library/DaisyToolchain/0.2.0/arm/arm-none-eabi/include/c++/10.3.1/bits/std_function.h ****        *  @throws bad_function_call when @c !(bool)*this
 507:/Library/DaisyToolchain/0.2.0/arm/arm-none-eabi/include/c++/10.3.1/bits/std_function.h ****        *
 508:/Library/DaisyToolchain/0.2.0/arm/arm-none-eabi/include/c++/10.3.1/bits/std_function.h ****        *  The function call operator invokes the target function object
 509:/Library/DaisyToolchain/0.2.0/arm/arm-none-eabi/include/c++/10.3.1/bits/std_function.h ****        *  stored by @c this.
 510:/Library/DaisyToolchain/0.2.0/arm/arm-none-eabi/include/c++/10.3.1/bits/std_function.h ****        */
 511:/Library/DaisyToolchain/0.2.0/arm/arm-none-eabi/include/c++/10.3.1/bits/std_function.h ****       _Res operator()(_ArgTypes... __args) const;
 512:/Library/DaisyToolchain/0.2.0/arm/arm-none-eabi/include/c++/10.3.1/bits/std_function.h **** 
 513:/Library/DaisyToolchain/0.2.0/arm/arm-none-eabi/include/c++/10.3.1/bits/std_function.h **** #if __cpp_rtti
 514:/Library/DaisyToolchain/0.2.0/arm/arm-none-eabi/include/c++/10.3.1/bits/std_function.h ****       // [3.7.2.5] function target access
 515:/Library/DaisyToolchain/0.2.0/arm/arm-none-eabi/include/c++/10.3.1/bits/std_function.h ****       /**
 516:/Library/DaisyToolchain/0.2.0/arm/arm-none-eabi/include/c++/10.3.1/bits/std_function.h ****        *  @brief Determine the type of the target of this function object
 517:/Library/DaisyToolchain/0.2.0/arm/arm-none-eabi/include/c++/10.3.1/bits/std_function.h ****        *  wrapper.
 518:/Library/DaisyToolchain/0.2.0/arm/arm-none-eabi/include/c++/10.3.1/bits/std_function.h ****        *
 519:/Library/DaisyToolchain/0.2.0/arm/arm-none-eabi/include/c++/10.3.1/bits/std_function.h ****        *  @returns the type identifier of the target function object, or
 520:/Library/DaisyToolchain/0.2.0/arm/arm-none-eabi/include/c++/10.3.1/bits/std_function.h ****        *  @c typeid(void) if @c !(bool)*this.
 521:/Library/DaisyToolchain/0.2.0/arm/arm-none-eabi/include/c++/10.3.1/bits/std_function.h ****        *
 522:/Library/DaisyToolchain/0.2.0/arm/arm-none-eabi/include/c++/10.3.1/bits/std_function.h ****        *  This function will not throw an %exception.
 523:/Library/DaisyToolchain/0.2.0/arm/arm-none-eabi/include/c++/10.3.1/bits/std_function.h ****        */
 524:/Library/DaisyToolchain/0.2.0/arm/arm-none-eabi/include/c++/10.3.1/bits/std_function.h ****       const type_info& target_type() const noexcept;
 525:/Library/DaisyToolchain/0.2.0/arm/arm-none-eabi/include/c++/10.3.1/bits/std_function.h **** 
 526:/Library/DaisyToolchain/0.2.0/arm/arm-none-eabi/include/c++/10.3.1/bits/std_function.h ****       /**
 527:/Library/DaisyToolchain/0.2.0/arm/arm-none-eabi/include/c++/10.3.1/bits/std_function.h ****        *  @brief Access the stored target function object.
 528:/Library/DaisyToolchain/0.2.0/arm/arm-none-eabi/include/c++/10.3.1/bits/std_function.h ****        *
 529:/Library/DaisyToolchain/0.2.0/arm/arm-none-eabi/include/c++/10.3.1/bits/std_function.h ****        *  @return Returns a pointer to the stored target function object,
 530:/Library/DaisyToolchain/0.2.0/arm/arm-none-eabi/include/c++/10.3.1/bits/std_function.h ****        *  if @c typeid(_Functor).equals(target_type()); otherwise, a NULL
 531:/Library/DaisyToolchain/0.2.0/arm/arm-none-eabi/include/c++/10.3.1/bits/std_function.h ****        *  pointer.
 532:/Library/DaisyToolchain/0.2.0/arm/arm-none-eabi/include/c++/10.3.1/bits/std_function.h ****        *
 533:/Library/DaisyToolchain/0.2.0/arm/arm-none-eabi/include/c++/10.3.1/bits/std_function.h ****        * This function does not throw exceptions.
 534:/Library/DaisyToolchain/0.2.0/arm/arm-none-eabi/include/c++/10.3.1/bits/std_function.h ****        *
 535:/Library/DaisyToolchain/0.2.0/arm/arm-none-eabi/include/c++/10.3.1/bits/std_function.h ****        * @{
 536:/Library/DaisyToolchain/0.2.0/arm/arm-none-eabi/include/c++/10.3.1/bits/std_function.h ****        */
 537:/Library/DaisyToolchain/0.2.0/arm/arm-none-eabi/include/c++/10.3.1/bits/std_function.h ****       template<typename _Functor>       _Functor* target() noexcept;
 538:/Library/DaisyToolchain/0.2.0/arm/arm-none-eabi/include/c++/10.3.1/bits/std_function.h **** 
 539:/Library/DaisyToolchain/0.2.0/arm/arm-none-eabi/include/c++/10.3.1/bits/std_function.h ****       template<typename _Functor> const _Functor* target() const noexcept;
ARM GAS  /var/folders/9s/8rp0_f2s1n31qbztm3b5_fdh0000gn/T//ccWYl2xP.s 			page 93


 540:/Library/DaisyToolchain/0.2.0/arm/arm-none-eabi/include/c++/10.3.1/bits/std_function.h ****       /// @}
 541:/Library/DaisyToolchain/0.2.0/arm/arm-none-eabi/include/c++/10.3.1/bits/std_function.h **** #endif
 542:/Library/DaisyToolchain/0.2.0/arm/arm-none-eabi/include/c++/10.3.1/bits/std_function.h **** 
 543:/Library/DaisyToolchain/0.2.0/arm/arm-none-eabi/include/c++/10.3.1/bits/std_function.h ****     private:
 544:/Library/DaisyToolchain/0.2.0/arm/arm-none-eabi/include/c++/10.3.1/bits/std_function.h ****       using _Invoker_type = _Res (*)(const _Any_data&, _ArgTypes&&...);
 545:/Library/DaisyToolchain/0.2.0/arm/arm-none-eabi/include/c++/10.3.1/bits/std_function.h ****       _Invoker_type _M_invoker;
 546:/Library/DaisyToolchain/0.2.0/arm/arm-none-eabi/include/c++/10.3.1/bits/std_function.h ****   };
 547:/Library/DaisyToolchain/0.2.0/arm/arm-none-eabi/include/c++/10.3.1/bits/std_function.h **** 
 548:/Library/DaisyToolchain/0.2.0/arm/arm-none-eabi/include/c++/10.3.1/bits/std_function.h **** #if __cpp_deduction_guides >= 201606
 549:/Library/DaisyToolchain/0.2.0/arm/arm-none-eabi/include/c++/10.3.1/bits/std_function.h ****   template<typename>
 550:/Library/DaisyToolchain/0.2.0/arm/arm-none-eabi/include/c++/10.3.1/bits/std_function.h ****     struct __function_guide_helper
 551:/Library/DaisyToolchain/0.2.0/arm/arm-none-eabi/include/c++/10.3.1/bits/std_function.h ****     { };
 552:/Library/DaisyToolchain/0.2.0/arm/arm-none-eabi/include/c++/10.3.1/bits/std_function.h **** 
 553:/Library/DaisyToolchain/0.2.0/arm/arm-none-eabi/include/c++/10.3.1/bits/std_function.h ****   template<typename _Res, typename _Tp, bool _Nx, typename... _Args>
 554:/Library/DaisyToolchain/0.2.0/arm/arm-none-eabi/include/c++/10.3.1/bits/std_function.h ****     struct __function_guide_helper<
 555:/Library/DaisyToolchain/0.2.0/arm/arm-none-eabi/include/c++/10.3.1/bits/std_function.h ****       _Res (_Tp::*) (_Args...) noexcept(_Nx)
 556:/Library/DaisyToolchain/0.2.0/arm/arm-none-eabi/include/c++/10.3.1/bits/std_function.h ****     >
 557:/Library/DaisyToolchain/0.2.0/arm/arm-none-eabi/include/c++/10.3.1/bits/std_function.h ****     { using type = _Res(_Args...); };
 558:/Library/DaisyToolchain/0.2.0/arm/arm-none-eabi/include/c++/10.3.1/bits/std_function.h **** 
 559:/Library/DaisyToolchain/0.2.0/arm/arm-none-eabi/include/c++/10.3.1/bits/std_function.h ****   template<typename _Res, typename _Tp, bool _Nx, typename... _Args>
 560:/Library/DaisyToolchain/0.2.0/arm/arm-none-eabi/include/c++/10.3.1/bits/std_function.h ****     struct __function_guide_helper<
 561:/Library/DaisyToolchain/0.2.0/arm/arm-none-eabi/include/c++/10.3.1/bits/std_function.h ****       _Res (_Tp::*) (_Args...) & noexcept(_Nx)
 562:/Library/DaisyToolchain/0.2.0/arm/arm-none-eabi/include/c++/10.3.1/bits/std_function.h ****     >
 563:/Library/DaisyToolchain/0.2.0/arm/arm-none-eabi/include/c++/10.3.1/bits/std_function.h ****     { using type = _Res(_Args...); };
 564:/Library/DaisyToolchain/0.2.0/arm/arm-none-eabi/include/c++/10.3.1/bits/std_function.h **** 
 565:/Library/DaisyToolchain/0.2.0/arm/arm-none-eabi/include/c++/10.3.1/bits/std_function.h ****   template<typename _Res, typename _Tp, bool _Nx, typename... _Args>
 566:/Library/DaisyToolchain/0.2.0/arm/arm-none-eabi/include/c++/10.3.1/bits/std_function.h ****     struct __function_guide_helper<
 567:/Library/DaisyToolchain/0.2.0/arm/arm-none-eabi/include/c++/10.3.1/bits/std_function.h ****       _Res (_Tp::*) (_Args...) const noexcept(_Nx)
 568:/Library/DaisyToolchain/0.2.0/arm/arm-none-eabi/include/c++/10.3.1/bits/std_function.h ****     >
 569:/Library/DaisyToolchain/0.2.0/arm/arm-none-eabi/include/c++/10.3.1/bits/std_function.h ****     { using type = _Res(_Args...); };
 570:/Library/DaisyToolchain/0.2.0/arm/arm-none-eabi/include/c++/10.3.1/bits/std_function.h **** 
 571:/Library/DaisyToolchain/0.2.0/arm/arm-none-eabi/include/c++/10.3.1/bits/std_function.h ****   template<typename _Res, typename _Tp, bool _Nx, typename... _Args>
 572:/Library/DaisyToolchain/0.2.0/arm/arm-none-eabi/include/c++/10.3.1/bits/std_function.h ****     struct __function_guide_helper<
 573:/Library/DaisyToolchain/0.2.0/arm/arm-none-eabi/include/c++/10.3.1/bits/std_function.h ****       _Res (_Tp::*) (_Args...) const & noexcept(_Nx)
 574:/Library/DaisyToolchain/0.2.0/arm/arm-none-eabi/include/c++/10.3.1/bits/std_function.h ****     >
 575:/Library/DaisyToolchain/0.2.0/arm/arm-none-eabi/include/c++/10.3.1/bits/std_function.h ****     { using type = _Res(_Args...); };
 576:/Library/DaisyToolchain/0.2.0/arm/arm-none-eabi/include/c++/10.3.1/bits/std_function.h **** 
 577:/Library/DaisyToolchain/0.2.0/arm/arm-none-eabi/include/c++/10.3.1/bits/std_function.h ****   template<typename _Res, typename... _ArgTypes>
 578:/Library/DaisyToolchain/0.2.0/arm/arm-none-eabi/include/c++/10.3.1/bits/std_function.h ****     function(_Res(*)(_ArgTypes...)) -> function<_Res(_ArgTypes...)>;
 579:/Library/DaisyToolchain/0.2.0/arm/arm-none-eabi/include/c++/10.3.1/bits/std_function.h **** 
 580:/Library/DaisyToolchain/0.2.0/arm/arm-none-eabi/include/c++/10.3.1/bits/std_function.h ****   template<typename _Functor, typename _Signature = typename
 581:/Library/DaisyToolchain/0.2.0/arm/arm-none-eabi/include/c++/10.3.1/bits/std_function.h **** 	   __function_guide_helper<decltype(&_Functor::operator())>::type>
 582:/Library/DaisyToolchain/0.2.0/arm/arm-none-eabi/include/c++/10.3.1/bits/std_function.h ****     function(_Functor) -> function<_Signature>;
 583:/Library/DaisyToolchain/0.2.0/arm/arm-none-eabi/include/c++/10.3.1/bits/std_function.h **** #endif
 584:/Library/DaisyToolchain/0.2.0/arm/arm-none-eabi/include/c++/10.3.1/bits/std_function.h **** 
 585:/Library/DaisyToolchain/0.2.0/arm/arm-none-eabi/include/c++/10.3.1/bits/std_function.h ****   // Out-of-line member definitions.
 586:/Library/DaisyToolchain/0.2.0/arm/arm-none-eabi/include/c++/10.3.1/bits/std_function.h ****   template<typename _Res, typename... _ArgTypes>
 587:/Library/DaisyToolchain/0.2.0/arm/arm-none-eabi/include/c++/10.3.1/bits/std_function.h ****     function<_Res(_ArgTypes...)>::
 588:/Library/DaisyToolchain/0.2.0/arm/arm-none-eabi/include/c++/10.3.1/bits/std_function.h ****     function(const function& __x)
 589:/Library/DaisyToolchain/0.2.0/arm/arm-none-eabi/include/c++/10.3.1/bits/std_function.h ****     : _Function_base()
 590:/Library/DaisyToolchain/0.2.0/arm/arm-none-eabi/include/c++/10.3.1/bits/std_function.h ****     {
 591:/Library/DaisyToolchain/0.2.0/arm/arm-none-eabi/include/c++/10.3.1/bits/std_function.h ****       if (static_cast<bool>(__x))
 592:/Library/DaisyToolchain/0.2.0/arm/arm-none-eabi/include/c++/10.3.1/bits/std_function.h **** 	{
 593:/Library/DaisyToolchain/0.2.0/arm/arm-none-eabi/include/c++/10.3.1/bits/std_function.h **** 	  __x._M_manager(_M_functor, __x._M_functor, __clone_functor);
 594:/Library/DaisyToolchain/0.2.0/arm/arm-none-eabi/include/c++/10.3.1/bits/std_function.h **** 	  _M_invoker = __x._M_invoker;
 595:/Library/DaisyToolchain/0.2.0/arm/arm-none-eabi/include/c++/10.3.1/bits/std_function.h **** 	  _M_manager = __x._M_manager;
 596:/Library/DaisyToolchain/0.2.0/arm/arm-none-eabi/include/c++/10.3.1/bits/std_function.h **** 	}
ARM GAS  /var/folders/9s/8rp0_f2s1n31qbztm3b5_fdh0000gn/T//ccWYl2xP.s 			page 94


 597:/Library/DaisyToolchain/0.2.0/arm/arm-none-eabi/include/c++/10.3.1/bits/std_function.h ****     }
 598:/Library/DaisyToolchain/0.2.0/arm/arm-none-eabi/include/c++/10.3.1/bits/std_function.h **** 
 599:/Library/DaisyToolchain/0.2.0/arm/arm-none-eabi/include/c++/10.3.1/bits/std_function.h ****   template<typename _Res, typename... _ArgTypes>
 600:/Library/DaisyToolchain/0.2.0/arm/arm-none-eabi/include/c++/10.3.1/bits/std_function.h ****     template<typename _Functor, typename, typename>
 601:/Library/DaisyToolchain/0.2.0/arm/arm-none-eabi/include/c++/10.3.1/bits/std_function.h ****       function<_Res(_ArgTypes...)>::
 2214              		.loc 14 601 7 view .LVU517
 2215              	.LBB678:
 2216              	.LBB679:
 2217              	.LBI679:
 240:/Library/DaisyToolchain/0.2.0/arm/arm-none-eabi/include/c++/10.3.1/bits/std_function.h **** 
 2218              		.loc 14 240 5 view .LVU518
 240:/Library/DaisyToolchain/0.2.0/arm/arm-none-eabi/include/c++/10.3.1/bits/std_function.h **** 
 2219              		.loc 14 240 5 is_stmt 0 view .LVU519
 2220              	.LBE679:
 2221              	.LBB680:
 2222              	.LBB681:
 2223              	.LBI681:
 227:/Library/DaisyToolchain/0.2.0/arm/arm-none-eabi/include/c++/10.3.1/bits/std_function.h **** 	  { return true; }
 2224              		.loc 14 227 4 is_stmt 1 view .LVU520
 227:/Library/DaisyToolchain/0.2.0/arm/arm-none-eabi/include/c++/10.3.1/bits/std_function.h **** 	  { return true; }
 2225              		.loc 14 227 4 is_stmt 0 view .LVU521
 2226              	.LBE681:
 2227              	.LBB682:
 2228              	.LBI682:
 2229              		.file 25 "/Library/DaisyToolchain/0.2.0/arm/arm-none-eabi/include/c++/10.3.1/bits/move.h"
   1:/Library/DaisyToolchain/0.2.0/arm/arm-none-eabi/include/c++/10.3.1/bits/move.h **** // Move, forward and identity for C++11 + swap -*- C++ -*-
   2:/Library/DaisyToolchain/0.2.0/arm/arm-none-eabi/include/c++/10.3.1/bits/move.h **** 
   3:/Library/DaisyToolchain/0.2.0/arm/arm-none-eabi/include/c++/10.3.1/bits/move.h **** // Copyright (C) 2007-2020 Free Software Foundation, Inc.
   4:/Library/DaisyToolchain/0.2.0/arm/arm-none-eabi/include/c++/10.3.1/bits/move.h **** //
   5:/Library/DaisyToolchain/0.2.0/arm/arm-none-eabi/include/c++/10.3.1/bits/move.h **** // This file is part of the GNU ISO C++ Library.  This library is free
   6:/Library/DaisyToolchain/0.2.0/arm/arm-none-eabi/include/c++/10.3.1/bits/move.h **** // software; you can redistribute it and/or modify it under the
   7:/Library/DaisyToolchain/0.2.0/arm/arm-none-eabi/include/c++/10.3.1/bits/move.h **** // terms of the GNU General Public License as published by the
   8:/Library/DaisyToolchain/0.2.0/arm/arm-none-eabi/include/c++/10.3.1/bits/move.h **** // Free Software Foundation; either version 3, or (at your option)
   9:/Library/DaisyToolchain/0.2.0/arm/arm-none-eabi/include/c++/10.3.1/bits/move.h **** // any later version.
  10:/Library/DaisyToolchain/0.2.0/arm/arm-none-eabi/include/c++/10.3.1/bits/move.h **** 
  11:/Library/DaisyToolchain/0.2.0/arm/arm-none-eabi/include/c++/10.3.1/bits/move.h **** // This library is distributed in the hope that it will be useful,
  12:/Library/DaisyToolchain/0.2.0/arm/arm-none-eabi/include/c++/10.3.1/bits/move.h **** // but WITHOUT ANY WARRANTY; without even the implied warranty of
  13:/Library/DaisyToolchain/0.2.0/arm/arm-none-eabi/include/c++/10.3.1/bits/move.h **** // MERCHANTABILITY or FITNESS FOR A PARTICULAR PURPOSE.  See the
  14:/Library/DaisyToolchain/0.2.0/arm/arm-none-eabi/include/c++/10.3.1/bits/move.h **** // GNU General Public License for more details.
  15:/Library/DaisyToolchain/0.2.0/arm/arm-none-eabi/include/c++/10.3.1/bits/move.h **** 
  16:/Library/DaisyToolchain/0.2.0/arm/arm-none-eabi/include/c++/10.3.1/bits/move.h **** // Under Section 7 of GPL version 3, you are granted additional
  17:/Library/DaisyToolchain/0.2.0/arm/arm-none-eabi/include/c++/10.3.1/bits/move.h **** // permissions described in the GCC Runtime Library Exception, version
  18:/Library/DaisyToolchain/0.2.0/arm/arm-none-eabi/include/c++/10.3.1/bits/move.h **** // 3.1, as published by the Free Software Foundation.
  19:/Library/DaisyToolchain/0.2.0/arm/arm-none-eabi/include/c++/10.3.1/bits/move.h **** 
  20:/Library/DaisyToolchain/0.2.0/arm/arm-none-eabi/include/c++/10.3.1/bits/move.h **** // You should have received a copy of the GNU General Public License and
  21:/Library/DaisyToolchain/0.2.0/arm/arm-none-eabi/include/c++/10.3.1/bits/move.h **** // a copy of the GCC Runtime Library Exception along with this program;
  22:/Library/DaisyToolchain/0.2.0/arm/arm-none-eabi/include/c++/10.3.1/bits/move.h **** // see the files COPYING3 and COPYING.RUNTIME respectively.  If not, see
  23:/Library/DaisyToolchain/0.2.0/arm/arm-none-eabi/include/c++/10.3.1/bits/move.h **** // <http://www.gnu.org/licenses/>.
  24:/Library/DaisyToolchain/0.2.0/arm/arm-none-eabi/include/c++/10.3.1/bits/move.h **** 
  25:/Library/DaisyToolchain/0.2.0/arm/arm-none-eabi/include/c++/10.3.1/bits/move.h **** /** @file bits/move.h
  26:/Library/DaisyToolchain/0.2.0/arm/arm-none-eabi/include/c++/10.3.1/bits/move.h ****  *  This is an internal header file, included by other library headers.
  27:/Library/DaisyToolchain/0.2.0/arm/arm-none-eabi/include/c++/10.3.1/bits/move.h ****  *  Do not attempt to use it directly. @headername{utility}
  28:/Library/DaisyToolchain/0.2.0/arm/arm-none-eabi/include/c++/10.3.1/bits/move.h ****  */
  29:/Library/DaisyToolchain/0.2.0/arm/arm-none-eabi/include/c++/10.3.1/bits/move.h **** 
  30:/Library/DaisyToolchain/0.2.0/arm/arm-none-eabi/include/c++/10.3.1/bits/move.h **** #ifndef _MOVE_H
  31:/Library/DaisyToolchain/0.2.0/arm/arm-none-eabi/include/c++/10.3.1/bits/move.h **** #define _MOVE_H 1
  32:/Library/DaisyToolchain/0.2.0/arm/arm-none-eabi/include/c++/10.3.1/bits/move.h **** 
ARM GAS  /var/folders/9s/8rp0_f2s1n31qbztm3b5_fdh0000gn/T//ccWYl2xP.s 			page 95


  33:/Library/DaisyToolchain/0.2.0/arm/arm-none-eabi/include/c++/10.3.1/bits/move.h **** #include <bits/c++config.h>
  34:/Library/DaisyToolchain/0.2.0/arm/arm-none-eabi/include/c++/10.3.1/bits/move.h **** #if __cplusplus < 201103L
  35:/Library/DaisyToolchain/0.2.0/arm/arm-none-eabi/include/c++/10.3.1/bits/move.h **** # include <bits/concept_check.h>
  36:/Library/DaisyToolchain/0.2.0/arm/arm-none-eabi/include/c++/10.3.1/bits/move.h **** #endif
  37:/Library/DaisyToolchain/0.2.0/arm/arm-none-eabi/include/c++/10.3.1/bits/move.h **** 
  38:/Library/DaisyToolchain/0.2.0/arm/arm-none-eabi/include/c++/10.3.1/bits/move.h **** namespace std _GLIBCXX_VISIBILITY(default)
  39:/Library/DaisyToolchain/0.2.0/arm/arm-none-eabi/include/c++/10.3.1/bits/move.h **** {
  40:/Library/DaisyToolchain/0.2.0/arm/arm-none-eabi/include/c++/10.3.1/bits/move.h **** _GLIBCXX_BEGIN_NAMESPACE_VERSION
  41:/Library/DaisyToolchain/0.2.0/arm/arm-none-eabi/include/c++/10.3.1/bits/move.h **** 
  42:/Library/DaisyToolchain/0.2.0/arm/arm-none-eabi/include/c++/10.3.1/bits/move.h ****   // Used, in C++03 mode too, by allocators, etc.
  43:/Library/DaisyToolchain/0.2.0/arm/arm-none-eabi/include/c++/10.3.1/bits/move.h ****   /**
  44:/Library/DaisyToolchain/0.2.0/arm/arm-none-eabi/include/c++/10.3.1/bits/move.h ****    *  @brief Same as C++11 std::addressof
  45:/Library/DaisyToolchain/0.2.0/arm/arm-none-eabi/include/c++/10.3.1/bits/move.h ****    *  @ingroup utilities
  46:/Library/DaisyToolchain/0.2.0/arm/arm-none-eabi/include/c++/10.3.1/bits/move.h ****    */
  47:/Library/DaisyToolchain/0.2.0/arm/arm-none-eabi/include/c++/10.3.1/bits/move.h ****   template<typename _Tp>
  48:/Library/DaisyToolchain/0.2.0/arm/arm-none-eabi/include/c++/10.3.1/bits/move.h ****     inline _GLIBCXX_CONSTEXPR _Tp*
  49:/Library/DaisyToolchain/0.2.0/arm/arm-none-eabi/include/c++/10.3.1/bits/move.h ****     __addressof(_Tp& __r) _GLIBCXX_NOEXCEPT
  50:/Library/DaisyToolchain/0.2.0/arm/arm-none-eabi/include/c++/10.3.1/bits/move.h ****     { return __builtin_addressof(__r); }
  51:/Library/DaisyToolchain/0.2.0/arm/arm-none-eabi/include/c++/10.3.1/bits/move.h **** 
  52:/Library/DaisyToolchain/0.2.0/arm/arm-none-eabi/include/c++/10.3.1/bits/move.h **** #if __cplusplus >= 201103L
  53:/Library/DaisyToolchain/0.2.0/arm/arm-none-eabi/include/c++/10.3.1/bits/move.h **** 
  54:/Library/DaisyToolchain/0.2.0/arm/arm-none-eabi/include/c++/10.3.1/bits/move.h **** _GLIBCXX_END_NAMESPACE_VERSION
  55:/Library/DaisyToolchain/0.2.0/arm/arm-none-eabi/include/c++/10.3.1/bits/move.h **** } // namespace
  56:/Library/DaisyToolchain/0.2.0/arm/arm-none-eabi/include/c++/10.3.1/bits/move.h **** 
  57:/Library/DaisyToolchain/0.2.0/arm/arm-none-eabi/include/c++/10.3.1/bits/move.h **** #include <type_traits> // Brings in std::declval too.
  58:/Library/DaisyToolchain/0.2.0/arm/arm-none-eabi/include/c++/10.3.1/bits/move.h **** 
  59:/Library/DaisyToolchain/0.2.0/arm/arm-none-eabi/include/c++/10.3.1/bits/move.h **** namespace std _GLIBCXX_VISIBILITY(default)
  60:/Library/DaisyToolchain/0.2.0/arm/arm-none-eabi/include/c++/10.3.1/bits/move.h **** {
  61:/Library/DaisyToolchain/0.2.0/arm/arm-none-eabi/include/c++/10.3.1/bits/move.h **** _GLIBCXX_BEGIN_NAMESPACE_VERSION
  62:/Library/DaisyToolchain/0.2.0/arm/arm-none-eabi/include/c++/10.3.1/bits/move.h **** 
  63:/Library/DaisyToolchain/0.2.0/arm/arm-none-eabi/include/c++/10.3.1/bits/move.h ****   /**
  64:/Library/DaisyToolchain/0.2.0/arm/arm-none-eabi/include/c++/10.3.1/bits/move.h ****    *  @addtogroup utilities
  65:/Library/DaisyToolchain/0.2.0/arm/arm-none-eabi/include/c++/10.3.1/bits/move.h ****    *  @{
  66:/Library/DaisyToolchain/0.2.0/arm/arm-none-eabi/include/c++/10.3.1/bits/move.h ****    */
  67:/Library/DaisyToolchain/0.2.0/arm/arm-none-eabi/include/c++/10.3.1/bits/move.h **** 
  68:/Library/DaisyToolchain/0.2.0/arm/arm-none-eabi/include/c++/10.3.1/bits/move.h ****   /**
  69:/Library/DaisyToolchain/0.2.0/arm/arm-none-eabi/include/c++/10.3.1/bits/move.h ****    *  @brief  Forward an lvalue.
  70:/Library/DaisyToolchain/0.2.0/arm/arm-none-eabi/include/c++/10.3.1/bits/move.h ****    *  @return The parameter cast to the specified type.
  71:/Library/DaisyToolchain/0.2.0/arm/arm-none-eabi/include/c++/10.3.1/bits/move.h ****    *
  72:/Library/DaisyToolchain/0.2.0/arm/arm-none-eabi/include/c++/10.3.1/bits/move.h ****    *  This function is used to implement "perfect forwarding".
  73:/Library/DaisyToolchain/0.2.0/arm/arm-none-eabi/include/c++/10.3.1/bits/move.h ****    */
  74:/Library/DaisyToolchain/0.2.0/arm/arm-none-eabi/include/c++/10.3.1/bits/move.h ****   template<typename _Tp>
  75:/Library/DaisyToolchain/0.2.0/arm/arm-none-eabi/include/c++/10.3.1/bits/move.h ****     constexpr _Tp&&
  76:/Library/DaisyToolchain/0.2.0/arm/arm-none-eabi/include/c++/10.3.1/bits/move.h ****     forward(typename std::remove_reference<_Tp>::type& __t) noexcept
  77:/Library/DaisyToolchain/0.2.0/arm/arm-none-eabi/include/c++/10.3.1/bits/move.h ****     { return static_cast<_Tp&&>(__t); }
  78:/Library/DaisyToolchain/0.2.0/arm/arm-none-eabi/include/c++/10.3.1/bits/move.h **** 
  79:/Library/DaisyToolchain/0.2.0/arm/arm-none-eabi/include/c++/10.3.1/bits/move.h ****   /**
  80:/Library/DaisyToolchain/0.2.0/arm/arm-none-eabi/include/c++/10.3.1/bits/move.h ****    *  @brief  Forward an rvalue.
  81:/Library/DaisyToolchain/0.2.0/arm/arm-none-eabi/include/c++/10.3.1/bits/move.h ****    *  @return The parameter cast to the specified type.
  82:/Library/DaisyToolchain/0.2.0/arm/arm-none-eabi/include/c++/10.3.1/bits/move.h ****    *
  83:/Library/DaisyToolchain/0.2.0/arm/arm-none-eabi/include/c++/10.3.1/bits/move.h ****    *  This function is used to implement "perfect forwarding".
  84:/Library/DaisyToolchain/0.2.0/arm/arm-none-eabi/include/c++/10.3.1/bits/move.h ****    */
  85:/Library/DaisyToolchain/0.2.0/arm/arm-none-eabi/include/c++/10.3.1/bits/move.h ****   template<typename _Tp>
  86:/Library/DaisyToolchain/0.2.0/arm/arm-none-eabi/include/c++/10.3.1/bits/move.h ****     constexpr _Tp&&
  87:/Library/DaisyToolchain/0.2.0/arm/arm-none-eabi/include/c++/10.3.1/bits/move.h ****     forward(typename std::remove_reference<_Tp>::type&& __t) noexcept
  88:/Library/DaisyToolchain/0.2.0/arm/arm-none-eabi/include/c++/10.3.1/bits/move.h ****     {
  89:/Library/DaisyToolchain/0.2.0/arm/arm-none-eabi/include/c++/10.3.1/bits/move.h ****       static_assert(!std::is_lvalue_reference<_Tp>::value, "template argument"
ARM GAS  /var/folders/9s/8rp0_f2s1n31qbztm3b5_fdh0000gn/T//ccWYl2xP.s 			page 96


  90:/Library/DaisyToolchain/0.2.0/arm/arm-none-eabi/include/c++/10.3.1/bits/move.h **** 		    " substituting _Tp is an lvalue reference type");
  91:/Library/DaisyToolchain/0.2.0/arm/arm-none-eabi/include/c++/10.3.1/bits/move.h ****       return static_cast<_Tp&&>(__t);
  92:/Library/DaisyToolchain/0.2.0/arm/arm-none-eabi/include/c++/10.3.1/bits/move.h ****     }
  93:/Library/DaisyToolchain/0.2.0/arm/arm-none-eabi/include/c++/10.3.1/bits/move.h **** 
  94:/Library/DaisyToolchain/0.2.0/arm/arm-none-eabi/include/c++/10.3.1/bits/move.h ****   /**
  95:/Library/DaisyToolchain/0.2.0/arm/arm-none-eabi/include/c++/10.3.1/bits/move.h ****    *  @brief  Convert a value to an rvalue.
  96:/Library/DaisyToolchain/0.2.0/arm/arm-none-eabi/include/c++/10.3.1/bits/move.h ****    *  @param  __t  A thing of arbitrary type.
  97:/Library/DaisyToolchain/0.2.0/arm/arm-none-eabi/include/c++/10.3.1/bits/move.h ****    *  @return The parameter cast to an rvalue-reference to allow moving it.
  98:/Library/DaisyToolchain/0.2.0/arm/arm-none-eabi/include/c++/10.3.1/bits/move.h ****   */
  99:/Library/DaisyToolchain/0.2.0/arm/arm-none-eabi/include/c++/10.3.1/bits/move.h ****   template<typename _Tp>
 100:/Library/DaisyToolchain/0.2.0/arm/arm-none-eabi/include/c++/10.3.1/bits/move.h ****     constexpr typename std::remove_reference<_Tp>::type&&
 101:/Library/DaisyToolchain/0.2.0/arm/arm-none-eabi/include/c++/10.3.1/bits/move.h ****     move(_Tp&& __t) noexcept
 2230              		.loc 25 101 5 is_stmt 1 view .LVU522
 2231              		.loc 25 101 5 is_stmt 0 view .LVU523
 2232              	.LBE682:
 2233              	.LBB683:
 2234              	.LBI683:
 207:/Library/DaisyToolchain/0.2.0/arm/arm-none-eabi/include/c++/10.3.1/bits/std_function.h **** 	{ _M_init_functor(__functor, std::move(__f), _Local_storage()); }
 2235              		.loc 14 207 2 is_stmt 1 view .LVU524
 207:/Library/DaisyToolchain/0.2.0/arm/arm-none-eabi/include/c++/10.3.1/bits/std_function.h **** 	{ _M_init_functor(__functor, std::move(__f), _Local_storage()); }
 2236              		.loc 14 207 2 is_stmt 0 view .LVU525
 2237              	.LBE683:
 2238              	.LBE680:
 2239              	.LBE678:
 2240              	.LBE677:
  87:/Library/DaisyToolchain/0.2.0/arm/arm-none-eabi/include/c++/10.3.1/bits/std_function.h ****     const void* _M_access() const { return &_M_pod_data[0]; }
 2241              		.loc 14 87 37 is_stmt 1 view .LVU526
 2242              		.file 26 "/Library/DaisyToolchain/0.2.0/arm/arm-none-eabi/include/c++/10.3.1/new"
   1:/Library/DaisyToolchain/0.2.0/arm/arm-none-eabi/include/c++/10.3.1/new **** // The -*- C++ -*- dynamic memory management header.
   2:/Library/DaisyToolchain/0.2.0/arm/arm-none-eabi/include/c++/10.3.1/new **** 
   3:/Library/DaisyToolchain/0.2.0/arm/arm-none-eabi/include/c++/10.3.1/new **** // Copyright (C) 1994-2020 Free Software Foundation, Inc.
   4:/Library/DaisyToolchain/0.2.0/arm/arm-none-eabi/include/c++/10.3.1/new **** 
   5:/Library/DaisyToolchain/0.2.0/arm/arm-none-eabi/include/c++/10.3.1/new **** // This file is part of GCC.
   6:/Library/DaisyToolchain/0.2.0/arm/arm-none-eabi/include/c++/10.3.1/new **** //
   7:/Library/DaisyToolchain/0.2.0/arm/arm-none-eabi/include/c++/10.3.1/new **** // GCC is free software; you can redistribute it and/or modify
   8:/Library/DaisyToolchain/0.2.0/arm/arm-none-eabi/include/c++/10.3.1/new **** // it under the terms of the GNU General Public License as published by
   9:/Library/DaisyToolchain/0.2.0/arm/arm-none-eabi/include/c++/10.3.1/new **** // the Free Software Foundation; either version 3, or (at your option)
  10:/Library/DaisyToolchain/0.2.0/arm/arm-none-eabi/include/c++/10.3.1/new **** // any later version.
  11:/Library/DaisyToolchain/0.2.0/arm/arm-none-eabi/include/c++/10.3.1/new **** // 
  12:/Library/DaisyToolchain/0.2.0/arm/arm-none-eabi/include/c++/10.3.1/new **** // GCC is distributed in the hope that it will be useful,
  13:/Library/DaisyToolchain/0.2.0/arm/arm-none-eabi/include/c++/10.3.1/new **** // but WITHOUT ANY WARRANTY; without even the implied warranty of
  14:/Library/DaisyToolchain/0.2.0/arm/arm-none-eabi/include/c++/10.3.1/new **** // MERCHANTABILITY or FITNESS FOR A PARTICULAR PURPOSE.  See the
  15:/Library/DaisyToolchain/0.2.0/arm/arm-none-eabi/include/c++/10.3.1/new **** // GNU General Public License for more details.
  16:/Library/DaisyToolchain/0.2.0/arm/arm-none-eabi/include/c++/10.3.1/new **** // 
  17:/Library/DaisyToolchain/0.2.0/arm/arm-none-eabi/include/c++/10.3.1/new **** // Under Section 7 of GPL version 3, you are granted additional
  18:/Library/DaisyToolchain/0.2.0/arm/arm-none-eabi/include/c++/10.3.1/new **** // permissions described in the GCC Runtime Library Exception, version
  19:/Library/DaisyToolchain/0.2.0/arm/arm-none-eabi/include/c++/10.3.1/new **** // 3.1, as published by the Free Software Foundation.
  20:/Library/DaisyToolchain/0.2.0/arm/arm-none-eabi/include/c++/10.3.1/new **** 
  21:/Library/DaisyToolchain/0.2.0/arm/arm-none-eabi/include/c++/10.3.1/new **** // You should have received a copy of the GNU General Public License and
  22:/Library/DaisyToolchain/0.2.0/arm/arm-none-eabi/include/c++/10.3.1/new **** // a copy of the GCC Runtime Library Exception along with this program;
  23:/Library/DaisyToolchain/0.2.0/arm/arm-none-eabi/include/c++/10.3.1/new **** // see the files COPYING3 and COPYING.RUNTIME respectively.  If not, see
  24:/Library/DaisyToolchain/0.2.0/arm/arm-none-eabi/include/c++/10.3.1/new **** // <http://www.gnu.org/licenses/>.
  25:/Library/DaisyToolchain/0.2.0/arm/arm-none-eabi/include/c++/10.3.1/new **** 
  26:/Library/DaisyToolchain/0.2.0/arm/arm-none-eabi/include/c++/10.3.1/new **** /** @file new
  27:/Library/DaisyToolchain/0.2.0/arm/arm-none-eabi/include/c++/10.3.1/new ****  *  This is a Standard C++ Library header.
  28:/Library/DaisyToolchain/0.2.0/arm/arm-none-eabi/include/c++/10.3.1/new ****  *
  29:/Library/DaisyToolchain/0.2.0/arm/arm-none-eabi/include/c++/10.3.1/new ****  *  The header @c new defines several functions to manage dynamic memory and
ARM GAS  /var/folders/9s/8rp0_f2s1n31qbztm3b5_fdh0000gn/T//ccWYl2xP.s 			page 97


  30:/Library/DaisyToolchain/0.2.0/arm/arm-none-eabi/include/c++/10.3.1/new ****  *  handling memory allocation errors; see
  31:/Library/DaisyToolchain/0.2.0/arm/arm-none-eabi/include/c++/10.3.1/new ****  *  https://gcc.gnu.org/onlinedocs/libstdc++/manual/dynamic_memory.html
  32:/Library/DaisyToolchain/0.2.0/arm/arm-none-eabi/include/c++/10.3.1/new ****  *  for more.
  33:/Library/DaisyToolchain/0.2.0/arm/arm-none-eabi/include/c++/10.3.1/new ****  */
  34:/Library/DaisyToolchain/0.2.0/arm/arm-none-eabi/include/c++/10.3.1/new **** 
  35:/Library/DaisyToolchain/0.2.0/arm/arm-none-eabi/include/c++/10.3.1/new **** #ifndef _NEW
  36:/Library/DaisyToolchain/0.2.0/arm/arm-none-eabi/include/c++/10.3.1/new **** #define _NEW
  37:/Library/DaisyToolchain/0.2.0/arm/arm-none-eabi/include/c++/10.3.1/new **** 
  38:/Library/DaisyToolchain/0.2.0/arm/arm-none-eabi/include/c++/10.3.1/new **** #pragma GCC system_header
  39:/Library/DaisyToolchain/0.2.0/arm/arm-none-eabi/include/c++/10.3.1/new **** 
  40:/Library/DaisyToolchain/0.2.0/arm/arm-none-eabi/include/c++/10.3.1/new **** #include <bits/c++config.h>
  41:/Library/DaisyToolchain/0.2.0/arm/arm-none-eabi/include/c++/10.3.1/new **** #include <exception>
  42:/Library/DaisyToolchain/0.2.0/arm/arm-none-eabi/include/c++/10.3.1/new **** 
  43:/Library/DaisyToolchain/0.2.0/arm/arm-none-eabi/include/c++/10.3.1/new **** #pragma GCC visibility push(default)
  44:/Library/DaisyToolchain/0.2.0/arm/arm-none-eabi/include/c++/10.3.1/new **** 
  45:/Library/DaisyToolchain/0.2.0/arm/arm-none-eabi/include/c++/10.3.1/new **** extern "C++" {
  46:/Library/DaisyToolchain/0.2.0/arm/arm-none-eabi/include/c++/10.3.1/new **** 
  47:/Library/DaisyToolchain/0.2.0/arm/arm-none-eabi/include/c++/10.3.1/new **** namespace std 
  48:/Library/DaisyToolchain/0.2.0/arm/arm-none-eabi/include/c++/10.3.1/new **** {
  49:/Library/DaisyToolchain/0.2.0/arm/arm-none-eabi/include/c++/10.3.1/new ****   /**
  50:/Library/DaisyToolchain/0.2.0/arm/arm-none-eabi/include/c++/10.3.1/new ****    *  @brief  Exception possibly thrown by @c new.
  51:/Library/DaisyToolchain/0.2.0/arm/arm-none-eabi/include/c++/10.3.1/new ****    *  @ingroup exceptions
  52:/Library/DaisyToolchain/0.2.0/arm/arm-none-eabi/include/c++/10.3.1/new ****    *
  53:/Library/DaisyToolchain/0.2.0/arm/arm-none-eabi/include/c++/10.3.1/new ****    *  @c bad_alloc (or classes derived from it) is used to report allocation
  54:/Library/DaisyToolchain/0.2.0/arm/arm-none-eabi/include/c++/10.3.1/new ****    *  errors from the throwing forms of @c new.  */
  55:/Library/DaisyToolchain/0.2.0/arm/arm-none-eabi/include/c++/10.3.1/new ****   class bad_alloc : public exception 
  56:/Library/DaisyToolchain/0.2.0/arm/arm-none-eabi/include/c++/10.3.1/new ****   {
  57:/Library/DaisyToolchain/0.2.0/arm/arm-none-eabi/include/c++/10.3.1/new ****   public:
  58:/Library/DaisyToolchain/0.2.0/arm/arm-none-eabi/include/c++/10.3.1/new ****     bad_alloc() throw() { }
  59:/Library/DaisyToolchain/0.2.0/arm/arm-none-eabi/include/c++/10.3.1/new **** 
  60:/Library/DaisyToolchain/0.2.0/arm/arm-none-eabi/include/c++/10.3.1/new **** #if __cplusplus >= 201103L
  61:/Library/DaisyToolchain/0.2.0/arm/arm-none-eabi/include/c++/10.3.1/new ****     bad_alloc(const bad_alloc&) = default;
  62:/Library/DaisyToolchain/0.2.0/arm/arm-none-eabi/include/c++/10.3.1/new ****     bad_alloc& operator=(const bad_alloc&) = default;
  63:/Library/DaisyToolchain/0.2.0/arm/arm-none-eabi/include/c++/10.3.1/new **** #endif
  64:/Library/DaisyToolchain/0.2.0/arm/arm-none-eabi/include/c++/10.3.1/new **** 
  65:/Library/DaisyToolchain/0.2.0/arm/arm-none-eabi/include/c++/10.3.1/new ****     // This declaration is not useless:
  66:/Library/DaisyToolchain/0.2.0/arm/arm-none-eabi/include/c++/10.3.1/new ****     // http://gcc.gnu.org/onlinedocs/gcc-3.0.2/gcc_6.html#SEC118
  67:/Library/DaisyToolchain/0.2.0/arm/arm-none-eabi/include/c++/10.3.1/new ****     virtual ~bad_alloc() throw();
  68:/Library/DaisyToolchain/0.2.0/arm/arm-none-eabi/include/c++/10.3.1/new **** 
  69:/Library/DaisyToolchain/0.2.0/arm/arm-none-eabi/include/c++/10.3.1/new ****     // See comment in eh_exception.cc.
  70:/Library/DaisyToolchain/0.2.0/arm/arm-none-eabi/include/c++/10.3.1/new ****     virtual const char* what() const throw();
  71:/Library/DaisyToolchain/0.2.0/arm/arm-none-eabi/include/c++/10.3.1/new ****   };
  72:/Library/DaisyToolchain/0.2.0/arm/arm-none-eabi/include/c++/10.3.1/new **** 
  73:/Library/DaisyToolchain/0.2.0/arm/arm-none-eabi/include/c++/10.3.1/new **** #if __cplusplus >= 201103L
  74:/Library/DaisyToolchain/0.2.0/arm/arm-none-eabi/include/c++/10.3.1/new ****   class bad_array_new_length : public bad_alloc
  75:/Library/DaisyToolchain/0.2.0/arm/arm-none-eabi/include/c++/10.3.1/new ****   {
  76:/Library/DaisyToolchain/0.2.0/arm/arm-none-eabi/include/c++/10.3.1/new ****   public:
  77:/Library/DaisyToolchain/0.2.0/arm/arm-none-eabi/include/c++/10.3.1/new ****     bad_array_new_length() throw() { }
  78:/Library/DaisyToolchain/0.2.0/arm/arm-none-eabi/include/c++/10.3.1/new **** 
  79:/Library/DaisyToolchain/0.2.0/arm/arm-none-eabi/include/c++/10.3.1/new ****     // This declaration is not useless:
  80:/Library/DaisyToolchain/0.2.0/arm/arm-none-eabi/include/c++/10.3.1/new ****     // http://gcc.gnu.org/onlinedocs/gcc-3.0.2/gcc_6.html#SEC118
  81:/Library/DaisyToolchain/0.2.0/arm/arm-none-eabi/include/c++/10.3.1/new ****     virtual ~bad_array_new_length() throw();
  82:/Library/DaisyToolchain/0.2.0/arm/arm-none-eabi/include/c++/10.3.1/new **** 
  83:/Library/DaisyToolchain/0.2.0/arm/arm-none-eabi/include/c++/10.3.1/new ****     // See comment in eh_exception.cc.
  84:/Library/DaisyToolchain/0.2.0/arm/arm-none-eabi/include/c++/10.3.1/new ****     virtual const char* what() const throw();
  85:/Library/DaisyToolchain/0.2.0/arm/arm-none-eabi/include/c++/10.3.1/new ****   };
  86:/Library/DaisyToolchain/0.2.0/arm/arm-none-eabi/include/c++/10.3.1/new **** #endif
ARM GAS  /var/folders/9s/8rp0_f2s1n31qbztm3b5_fdh0000gn/T//ccWYl2xP.s 			page 98


  87:/Library/DaisyToolchain/0.2.0/arm/arm-none-eabi/include/c++/10.3.1/new **** 
  88:/Library/DaisyToolchain/0.2.0/arm/arm-none-eabi/include/c++/10.3.1/new **** #if __cpp_aligned_new
  89:/Library/DaisyToolchain/0.2.0/arm/arm-none-eabi/include/c++/10.3.1/new ****   enum class align_val_t: size_t {};
  90:/Library/DaisyToolchain/0.2.0/arm/arm-none-eabi/include/c++/10.3.1/new **** #endif
  91:/Library/DaisyToolchain/0.2.0/arm/arm-none-eabi/include/c++/10.3.1/new **** 
  92:/Library/DaisyToolchain/0.2.0/arm/arm-none-eabi/include/c++/10.3.1/new ****   struct nothrow_t
  93:/Library/DaisyToolchain/0.2.0/arm/arm-none-eabi/include/c++/10.3.1/new ****   {
  94:/Library/DaisyToolchain/0.2.0/arm/arm-none-eabi/include/c++/10.3.1/new **** #if __cplusplus >= 201103L
  95:/Library/DaisyToolchain/0.2.0/arm/arm-none-eabi/include/c++/10.3.1/new ****     explicit nothrow_t() = default;
  96:/Library/DaisyToolchain/0.2.0/arm/arm-none-eabi/include/c++/10.3.1/new **** #endif
  97:/Library/DaisyToolchain/0.2.0/arm/arm-none-eabi/include/c++/10.3.1/new ****   };
  98:/Library/DaisyToolchain/0.2.0/arm/arm-none-eabi/include/c++/10.3.1/new **** 
  99:/Library/DaisyToolchain/0.2.0/arm/arm-none-eabi/include/c++/10.3.1/new ****   extern const nothrow_t nothrow;
 100:/Library/DaisyToolchain/0.2.0/arm/arm-none-eabi/include/c++/10.3.1/new **** 
 101:/Library/DaisyToolchain/0.2.0/arm/arm-none-eabi/include/c++/10.3.1/new ****   /** If you write your own error handler to be called by @c new, it must
 102:/Library/DaisyToolchain/0.2.0/arm/arm-none-eabi/include/c++/10.3.1/new ****    *  be of this type.  */
 103:/Library/DaisyToolchain/0.2.0/arm/arm-none-eabi/include/c++/10.3.1/new ****   typedef void (*new_handler)();
 104:/Library/DaisyToolchain/0.2.0/arm/arm-none-eabi/include/c++/10.3.1/new **** 
 105:/Library/DaisyToolchain/0.2.0/arm/arm-none-eabi/include/c++/10.3.1/new ****   /// Takes a replacement handler as the argument, returns the
 106:/Library/DaisyToolchain/0.2.0/arm/arm-none-eabi/include/c++/10.3.1/new ****   /// previous handler.
 107:/Library/DaisyToolchain/0.2.0/arm/arm-none-eabi/include/c++/10.3.1/new ****   new_handler set_new_handler(new_handler) throw();
 108:/Library/DaisyToolchain/0.2.0/arm/arm-none-eabi/include/c++/10.3.1/new **** 
 109:/Library/DaisyToolchain/0.2.0/arm/arm-none-eabi/include/c++/10.3.1/new **** #if __cplusplus >= 201103L
 110:/Library/DaisyToolchain/0.2.0/arm/arm-none-eabi/include/c++/10.3.1/new ****   /// Return the current new handler.
 111:/Library/DaisyToolchain/0.2.0/arm/arm-none-eabi/include/c++/10.3.1/new ****   new_handler get_new_handler() noexcept;
 112:/Library/DaisyToolchain/0.2.0/arm/arm-none-eabi/include/c++/10.3.1/new **** #endif
 113:/Library/DaisyToolchain/0.2.0/arm/arm-none-eabi/include/c++/10.3.1/new **** } // namespace std
 114:/Library/DaisyToolchain/0.2.0/arm/arm-none-eabi/include/c++/10.3.1/new **** 
 115:/Library/DaisyToolchain/0.2.0/arm/arm-none-eabi/include/c++/10.3.1/new **** //@{
 116:/Library/DaisyToolchain/0.2.0/arm/arm-none-eabi/include/c++/10.3.1/new **** /** These are replaceable signatures:
 117:/Library/DaisyToolchain/0.2.0/arm/arm-none-eabi/include/c++/10.3.1/new ****  *  - normal single new and delete (no arguments, throw @c bad_alloc on error)
 118:/Library/DaisyToolchain/0.2.0/arm/arm-none-eabi/include/c++/10.3.1/new ****  *  - normal array new and delete (same)
 119:/Library/DaisyToolchain/0.2.0/arm/arm-none-eabi/include/c++/10.3.1/new ****  *  - @c nothrow single new and delete (take a @c nothrow argument, return
 120:/Library/DaisyToolchain/0.2.0/arm/arm-none-eabi/include/c++/10.3.1/new ****  *    @c NULL on error)
 121:/Library/DaisyToolchain/0.2.0/arm/arm-none-eabi/include/c++/10.3.1/new ****  *  - @c nothrow array new and delete (same)
 122:/Library/DaisyToolchain/0.2.0/arm/arm-none-eabi/include/c++/10.3.1/new ****  *
 123:/Library/DaisyToolchain/0.2.0/arm/arm-none-eabi/include/c++/10.3.1/new ****  *  Placement new and delete signatures (take a memory address argument,
 124:/Library/DaisyToolchain/0.2.0/arm/arm-none-eabi/include/c++/10.3.1/new ****  *  does nothing) may not be replaced by a user's program.
 125:/Library/DaisyToolchain/0.2.0/arm/arm-none-eabi/include/c++/10.3.1/new **** */
 126:/Library/DaisyToolchain/0.2.0/arm/arm-none-eabi/include/c++/10.3.1/new **** _GLIBCXX_NODISCARD void* operator new(std::size_t) _GLIBCXX_THROW (std::bad_alloc)
 127:/Library/DaisyToolchain/0.2.0/arm/arm-none-eabi/include/c++/10.3.1/new ****   __attribute__((__externally_visible__));
 128:/Library/DaisyToolchain/0.2.0/arm/arm-none-eabi/include/c++/10.3.1/new **** _GLIBCXX_NODISCARD void* operator new[](std::size_t) _GLIBCXX_THROW (std::bad_alloc)
 129:/Library/DaisyToolchain/0.2.0/arm/arm-none-eabi/include/c++/10.3.1/new ****   __attribute__((__externally_visible__));
 130:/Library/DaisyToolchain/0.2.0/arm/arm-none-eabi/include/c++/10.3.1/new **** void operator delete(void*) _GLIBCXX_USE_NOEXCEPT
 131:/Library/DaisyToolchain/0.2.0/arm/arm-none-eabi/include/c++/10.3.1/new ****   __attribute__((__externally_visible__));
 132:/Library/DaisyToolchain/0.2.0/arm/arm-none-eabi/include/c++/10.3.1/new **** void operator delete[](void*) _GLIBCXX_USE_NOEXCEPT
 133:/Library/DaisyToolchain/0.2.0/arm/arm-none-eabi/include/c++/10.3.1/new ****   __attribute__((__externally_visible__));
 134:/Library/DaisyToolchain/0.2.0/arm/arm-none-eabi/include/c++/10.3.1/new **** #if __cpp_sized_deallocation
 135:/Library/DaisyToolchain/0.2.0/arm/arm-none-eabi/include/c++/10.3.1/new **** void operator delete(void*, std::size_t) _GLIBCXX_USE_NOEXCEPT
 136:/Library/DaisyToolchain/0.2.0/arm/arm-none-eabi/include/c++/10.3.1/new ****   __attribute__((__externally_visible__));
 137:/Library/DaisyToolchain/0.2.0/arm/arm-none-eabi/include/c++/10.3.1/new **** void operator delete[](void*, std::size_t) _GLIBCXX_USE_NOEXCEPT
 138:/Library/DaisyToolchain/0.2.0/arm/arm-none-eabi/include/c++/10.3.1/new ****   __attribute__((__externally_visible__));
 139:/Library/DaisyToolchain/0.2.0/arm/arm-none-eabi/include/c++/10.3.1/new **** #endif
 140:/Library/DaisyToolchain/0.2.0/arm/arm-none-eabi/include/c++/10.3.1/new **** _GLIBCXX_NODISCARD void* operator new(std::size_t, const std::nothrow_t&) _GLIBCXX_USE_NOEXCEPT
 141:/Library/DaisyToolchain/0.2.0/arm/arm-none-eabi/include/c++/10.3.1/new ****   __attribute__((__externally_visible__, __malloc__));
 142:/Library/DaisyToolchain/0.2.0/arm/arm-none-eabi/include/c++/10.3.1/new **** _GLIBCXX_NODISCARD void* operator new[](std::size_t, const std::nothrow_t&) _GLIBCXX_USE_NOEXCEPT
 143:/Library/DaisyToolchain/0.2.0/arm/arm-none-eabi/include/c++/10.3.1/new ****   __attribute__((__externally_visible__, __malloc__));
ARM GAS  /var/folders/9s/8rp0_f2s1n31qbztm3b5_fdh0000gn/T//ccWYl2xP.s 			page 99


 144:/Library/DaisyToolchain/0.2.0/arm/arm-none-eabi/include/c++/10.3.1/new **** void operator delete(void*, const std::nothrow_t&) _GLIBCXX_USE_NOEXCEPT
 145:/Library/DaisyToolchain/0.2.0/arm/arm-none-eabi/include/c++/10.3.1/new ****   __attribute__((__externally_visible__));
 146:/Library/DaisyToolchain/0.2.0/arm/arm-none-eabi/include/c++/10.3.1/new **** void operator delete[](void*, const std::nothrow_t&) _GLIBCXX_USE_NOEXCEPT
 147:/Library/DaisyToolchain/0.2.0/arm/arm-none-eabi/include/c++/10.3.1/new ****   __attribute__((__externally_visible__));
 148:/Library/DaisyToolchain/0.2.0/arm/arm-none-eabi/include/c++/10.3.1/new **** #if __cpp_aligned_new
 149:/Library/DaisyToolchain/0.2.0/arm/arm-none-eabi/include/c++/10.3.1/new **** _GLIBCXX_NODISCARD void* operator new(std::size_t, std::align_val_t)
 150:/Library/DaisyToolchain/0.2.0/arm/arm-none-eabi/include/c++/10.3.1/new ****   __attribute__((__externally_visible__));
 151:/Library/DaisyToolchain/0.2.0/arm/arm-none-eabi/include/c++/10.3.1/new **** _GLIBCXX_NODISCARD void* operator new(std::size_t, std::align_val_t, const std::nothrow_t&)
 152:/Library/DaisyToolchain/0.2.0/arm/arm-none-eabi/include/c++/10.3.1/new ****   _GLIBCXX_USE_NOEXCEPT __attribute__((__externally_visible__, __malloc__));
 153:/Library/DaisyToolchain/0.2.0/arm/arm-none-eabi/include/c++/10.3.1/new **** void operator delete(void*, std::align_val_t)
 154:/Library/DaisyToolchain/0.2.0/arm/arm-none-eabi/include/c++/10.3.1/new ****   _GLIBCXX_USE_NOEXCEPT __attribute__((__externally_visible__));
 155:/Library/DaisyToolchain/0.2.0/arm/arm-none-eabi/include/c++/10.3.1/new **** void operator delete(void*, std::align_val_t, const std::nothrow_t&)
 156:/Library/DaisyToolchain/0.2.0/arm/arm-none-eabi/include/c++/10.3.1/new ****   _GLIBCXX_USE_NOEXCEPT __attribute__((__externally_visible__));
 157:/Library/DaisyToolchain/0.2.0/arm/arm-none-eabi/include/c++/10.3.1/new **** _GLIBCXX_NODISCARD void* operator new[](std::size_t, std::align_val_t)
 158:/Library/DaisyToolchain/0.2.0/arm/arm-none-eabi/include/c++/10.3.1/new ****   __attribute__((__externally_visible__));
 159:/Library/DaisyToolchain/0.2.0/arm/arm-none-eabi/include/c++/10.3.1/new **** _GLIBCXX_NODISCARD void* operator new[](std::size_t, std::align_val_t, const std::nothrow_t&)
 160:/Library/DaisyToolchain/0.2.0/arm/arm-none-eabi/include/c++/10.3.1/new ****   _GLIBCXX_USE_NOEXCEPT __attribute__((__externally_visible__, __malloc__));
 161:/Library/DaisyToolchain/0.2.0/arm/arm-none-eabi/include/c++/10.3.1/new **** void operator delete[](void*, std::align_val_t)
 162:/Library/DaisyToolchain/0.2.0/arm/arm-none-eabi/include/c++/10.3.1/new ****   _GLIBCXX_USE_NOEXCEPT __attribute__((__externally_visible__));
 163:/Library/DaisyToolchain/0.2.0/arm/arm-none-eabi/include/c++/10.3.1/new **** void operator delete[](void*, std::align_val_t, const std::nothrow_t&)
 164:/Library/DaisyToolchain/0.2.0/arm/arm-none-eabi/include/c++/10.3.1/new ****   _GLIBCXX_USE_NOEXCEPT __attribute__((__externally_visible__));
 165:/Library/DaisyToolchain/0.2.0/arm/arm-none-eabi/include/c++/10.3.1/new **** #if __cpp_sized_deallocation
 166:/Library/DaisyToolchain/0.2.0/arm/arm-none-eabi/include/c++/10.3.1/new **** void operator delete(void*, std::size_t, std::align_val_t)
 167:/Library/DaisyToolchain/0.2.0/arm/arm-none-eabi/include/c++/10.3.1/new ****   _GLIBCXX_USE_NOEXCEPT __attribute__((__externally_visible__));
 168:/Library/DaisyToolchain/0.2.0/arm/arm-none-eabi/include/c++/10.3.1/new **** void operator delete[](void*, std::size_t, std::align_val_t)
 169:/Library/DaisyToolchain/0.2.0/arm/arm-none-eabi/include/c++/10.3.1/new ****   _GLIBCXX_USE_NOEXCEPT __attribute__((__externally_visible__));
 170:/Library/DaisyToolchain/0.2.0/arm/arm-none-eabi/include/c++/10.3.1/new **** #endif // __cpp_sized_deallocation
 171:/Library/DaisyToolchain/0.2.0/arm/arm-none-eabi/include/c++/10.3.1/new **** #endif // __cpp_aligned_new
 172:/Library/DaisyToolchain/0.2.0/arm/arm-none-eabi/include/c++/10.3.1/new **** 
 173:/Library/DaisyToolchain/0.2.0/arm/arm-none-eabi/include/c++/10.3.1/new **** // Default placement versions of operator new.
 174:/Library/DaisyToolchain/0.2.0/arm/arm-none-eabi/include/c++/10.3.1/new **** _GLIBCXX_NODISCARD inline void* operator new(std::size_t, void* __p) _GLIBCXX_USE_NOEXCEPT
 175:/Library/DaisyToolchain/0.2.0/arm/arm-none-eabi/include/c++/10.3.1/new **** { return __p; }
 2243              		.loc 26 175 3 view .LVU527
 2244              	.LBB688:
 2245              	.LBB686:
 2246              	.LBB684:
 602:/Library/DaisyToolchain/0.2.0/arm/arm-none-eabi/include/c++/10.3.1/bits/std_function.h ****       function(_Functor __f)
 603:/Library/DaisyToolchain/0.2.0/arm/arm-none-eabi/include/c++/10.3.1/bits/std_function.h ****       : _Function_base()
 604:/Library/DaisyToolchain/0.2.0/arm/arm-none-eabi/include/c++/10.3.1/bits/std_function.h ****       {
 605:/Library/DaisyToolchain/0.2.0/arm/arm-none-eabi/include/c++/10.3.1/bits/std_function.h **** 	typedef _Function_handler<_Res(_ArgTypes...), _Functor> _My_handler;
 606:/Library/DaisyToolchain/0.2.0/arm/arm-none-eabi/include/c++/10.3.1/bits/std_function.h **** 
 607:/Library/DaisyToolchain/0.2.0/arm/arm-none-eabi/include/c++/10.3.1/bits/std_function.h **** 	if (_My_handler::_M_not_empty_function(__f))
 608:/Library/DaisyToolchain/0.2.0/arm/arm-none-eabi/include/c++/10.3.1/bits/std_function.h **** 	  {
 609:/Library/DaisyToolchain/0.2.0/arm/arm-none-eabi/include/c++/10.3.1/bits/std_function.h **** 	    _My_handler::_M_init_functor(_M_functor, std::move(__f));
 610:/Library/DaisyToolchain/0.2.0/arm/arm-none-eabi/include/c++/10.3.1/bits/std_function.h **** 	    _M_invoker = &_My_handler::_M_invoke;
 2247              		.loc 14 610 17 is_stmt 0 view .LVU528
 2248 0088 264B     		ldr	r3, .L70+24
 2249              	.LBE684:
 2250              	.LBE686:
 2251              	.LBE688:
 147:Interface.cpp ****     arp.SetNoteTriggerCallback([](int pad_idx) {
 2252              		.loc 9 147 31 view .LVU529
 2253 008a 02A9     		add	r1, sp, #8
 2254              	.LVL166:
 147:Interface.cpp ****     arp.SetNoteTriggerCallback([](int pad_idx) {
 2255              		.loc 9 147 31 view .LVU530
 2256 008c 2248     		ldr	r0, .L70+12
ARM GAS  /var/folders/9s/8rp0_f2s1n31qbztm3b5_fdh0000gn/T//ccWYl2xP.s 			page 100


 2257              	.LBB689:
 2258              	.LBB687:
 2259              	.LBB685:
 2260              		.loc 14 610 17 view .LVU531
 2261 008e 0593     		str	r3, [sp, #20]
 611:/Library/DaisyToolchain/0.2.0/arm/arm-none-eabi/include/c++/10.3.1/bits/std_function.h **** 	    _M_manager = &_My_handler::_M_manager;
 2262              		.loc 14 611 17 view .LVU532
 2263 0090 254B     		ldr	r3, .L70+28
 2264 0092 0493     		str	r3, [sp, #16]
 2265              	.LVL167:
 2266              		.loc 14 611 17 view .LVU533
 2267              	.LBE685:
 2268              	.LBE687:
 2269              	.LBE689:
 147:Interface.cpp ****     arp.SetNoteTriggerCallback([](int pad_idx) {
 2270              		.loc 9 147 31 view .LVU534
 2271 0094 FFF7FEFF 		bl	_ZN11Arpeggiator22SetNoteTriggerCallbackESt8functionIFviEE
 2272              	.LVL168:
 2273              	.LBB690:
 2274              	.LBI690:
 303:/Library/DaisyToolchain/0.2.0/arm/arm-none-eabi/include/c++/10.3.1/bits/std_function.h ****     : public _Maybe_unary_or_binary_function<_Res, _ArgTypes...>,
 2275              		.loc 14 303 11 is_stmt 1 view .LVU535
 2276              	.LBB691:
 2277 0098 02A8     		add	r0, sp, #8
 2278              	.LVL169:
 303:/Library/DaisyToolchain/0.2.0/arm/arm-none-eabi/include/c++/10.3.1/bits/std_function.h ****     : public _Maybe_unary_or_binary_function<_Res, _ArgTypes...>,
 2279              		.loc 14 303 11 is_stmt 0 view .LVU536
 2280 009a FFF7FEFF 		bl	_ZNSt14_Function_baseD2Ev
 2281              	.LVL170:
 303:/Library/DaisyToolchain/0.2.0/arm/arm-none-eabi/include/c++/10.3.1/bits/std_function.h ****     : public _Maybe_unary_or_binary_function<_Res, _ArgTypes...>,
 2282              		.loc 14 303 11 view .LVU537
 2283              	.LBE691:
 2284              	.LBE690:
 166:Interface.cpp ****     hw.StartAudio(AudioCallback);
 2285              		.loc 9 166 5 is_stmt 1 view .LVU538
 166:Interface.cpp ****     hw.StartAudio(AudioCallback);
 2286              		.loc 9 166 18 is_stmt 0 view .LVU539
 2287 009e 2349     		ldr	r1, .L70+32
 2288 00a0 2348     		ldr	r0, .L70+36
 2289 00a2 FFF7FEFF 		bl	_ZN5daisy9DaisySeed10StartAudioEPFvPKfPfjE
 2290              	.LVL171:
 169:Interface.cpp ****     hw.StartLog(false); // Start log immediately (non-blocking)
 2291              		.loc 9 169 5 is_stmt 1 view .LVU540
 2292              	.LBB692:
 2293              	.LBI692:
 122:lib/libdaisy/src/daisy_seed.h ****     }
 123:lib/libdaisy/src/daisy_seed.h **** 
 124:lib/libdaisy/src/daisy_seed.h ****     /** Start the logging session. Optionally wait for terminal connection before proceeding.
 125:lib/libdaisy/src/daisy_seed.h ****     */
 126:lib/libdaisy/src/daisy_seed.h ****     static void StartLog(bool wait_for_pc = false)
 2294              		.loc 3 126 17 view .LVU541
 2295              	.LBB693:
 127:lib/libdaisy/src/daisy_seed.h ****     {
 128:lib/libdaisy/src/daisy_seed.h ****         Log::StartLog(wait_for_pc);
 2296              		.loc 3 128 9 view .LVU542
 2297              		.loc 3 128 22 is_stmt 0 view .LVU543
 2298 00a6 0020     		movs	r0, #0
ARM GAS  /var/folders/9s/8rp0_f2s1n31qbztm3b5_fdh0000gn/T//ccWYl2xP.s 			page 101


 2299 00a8 FFF7FEFF 		bl	_ZN5daisy6LoggerILNS_17LoggerDestinationE1EE8StartLogEb
 2300              	.LVL172:
 2301              		.loc 3 128 22 view .LVU544
 2302              	.LBE693:
 2303              	.LBE692:
 171:Interface.cpp ****     hw.PrintLine("Plaits Synth Started - Ready for Bootloader CMD");
 2304              		.loc 9 171 5 is_stmt 1 view .LVU545
 2305              	.LBB694:
 2306              	.LBI694:
 119:lib/libdaisy/src/daisy_seed.h ****     {
 2307              		.loc 3 119 17 view .LVU546
 2308              	.LBB695:
 121:lib/libdaisy/src/daisy_seed.h ****     }
 2309              		.loc 3 121 23 is_stmt 0 view .LVU547
 2310 00ac 2148     		ldr	r0, .L70+40
 2311 00ae FFF7FEFF 		bl	_ZN5daisy6LoggerILNS_17LoggerDestinationE1EE9PrintLineEPKcz
 2312              	.LVL173:
 121:lib/libdaisy/src/daisy_seed.h ****     }
 2313              		.loc 3 121 23 view .LVU548
 2314              	.LBE695:
 2315              	.LBE694:
 172:Interface.cpp ****     char settings[64];
 2316              		.loc 9 172 5 is_stmt 1 view .LVU549
 174:Interface.cpp ****     sprintf(settings, "Max Voices: %d | Block: %d | SR: %d", NUM_VOICES, BLOCK_SIZE, (int)sample_ra
 2317              		.loc 9 174 5 view .LVU550
 174:Interface.cpp ****     sprintf(settings, "Max Voices: %d | Block: %d | SR: %d", NUM_VOICES, BLOCK_SIZE, (int)sample_ra
 2318              		.loc 9 174 12 is_stmt 0 view .LVU551
 2319 00b2 D4ED007A 		vldr.32	s15, [r4]
 2320 00b6 1023     		movs	r3, #16
 2321 00b8 0422     		movs	r2, #4
 2322 00ba FDEEE77A 		vcvt.s32.f32	s15, s15
 2323 00be 1E49     		ldr	r1, .L70+44
 2324 00c0 02A8     		add	r0, sp, #8
 2325 00c2 CDED007A 		vstr.32	s15, [sp]	@ int
 2326 00c6 FFF7FEFF 		bl	sprintf
 2327              	.LVL174:
 175:Interface.cpp ****     hw.PrintLine(settings);
 2328              		.loc 9 175 5 is_stmt 1 view .LVU552
 2329              	.LBB696:
 2330              	.LBI696:
 119:lib/libdaisy/src/daisy_seed.h ****     {
 2331              		.loc 3 119 17 view .LVU553
 2332              	.LBB697:
 121:lib/libdaisy/src/daisy_seed.h ****     }
 2333              		.loc 3 121 23 is_stmt 0 view .LVU554
 2334 00ca 02A8     		add	r0, sp, #8
 2335              	.LVL175:
 121:lib/libdaisy/src/daisy_seed.h ****     }
 2336              		.loc 3 121 23 view .LVU555
 2337 00cc FFF7FEFF 		bl	_ZN5daisy6LoggerILNS_17LoggerDestinationE1EE9PrintLineEPKcz
 2338              	.LVL176:
 121:lib/libdaisy/src/daisy_seed.h ****     }
 2339              		.loc 3 121 23 view .LVU556
 2340              	.LBE697:
 2341              	.LBE696:
 176:Interface.cpp ****     sprintf(settings, "Engine Range: 0-%d", MAX_ENGINE_INDEX);
 2342              		.loc 9 176 5 is_stmt 1 view .LVU557
ARM GAS  /var/folders/9s/8rp0_f2s1n31qbztm3b5_fdh0000gn/T//ccWYl2xP.s 			page 102


 176:Interface.cpp ****     sprintf(settings, "Engine Range: 0-%d", MAX_ENGINE_INDEX);
 2343              		.loc 9 176 12 is_stmt 0 view .LVU558
 2344 00d0 1A4B     		ldr	r3, .L70+48
 2345 00d2 1B49     		ldr	r1, .L70+52
 2346 00d4 02A8     		add	r0, sp, #8
 2347 00d6 1C68     		ldr	r4, [r3]
 2348 00d8 2246     		mov	r2, r4
 2349 00da FFF7FEFF 		bl	sprintf
 2350              	.LVL177:
 177:Interface.cpp ****     hw.PrintLine(settings);
 2351              		.loc 9 177 5 is_stmt 1 view .LVU559
 2352              	.LBB698:
 2353              	.LBI698:
 119:lib/libdaisy/src/daisy_seed.h ****     {
 2354              		.loc 3 119 17 view .LVU560
 2355              	.LBB699:
 121:lib/libdaisy/src/daisy_seed.h ****     }
 2356              		.loc 3 121 23 is_stmt 0 view .LVU561
 2357 00de 02A8     		add	r0, sp, #8
 2358              	.LVL178:
 121:lib/libdaisy/src/daisy_seed.h ****     }
 2359              		.loc 3 121 23 view .LVU562
 2360 00e0 FFF7FEFF 		bl	_ZN5daisy6LoggerILNS_17LoggerDestinationE1EE9PrintLineEPKcz
 2361              	.LVL179:
 121:lib/libdaisy/src/daisy_seed.h ****     }
 2362              		.loc 3 121 23 view .LVU563
 2363              	.LBE699:
 2364              	.LBE698:
 178:Interface.cpp ****     sprintf(settings, "Mode: %s", (MAX_ENGINE_INDEX <=3) ? "Poly (0-3)" : "Dynamic Poly"); // Indic
 2365              		.loc 9 178 5 is_stmt 1 view .LVU564
 178:Interface.cpp ****     sprintf(settings, "Mode: %s", (MAX_ENGINE_INDEX <=3) ? "Poly (0-3)" : "Dynamic Poly"); // Indic
 2366              		.loc 9 178 12 is_stmt 0 view .LVU565
 2367 00e4 174B     		ldr	r3, .L70+56
 2368 00e6 184A     		ldr	r2, .L70+60
 2369 00e8 02A8     		add	r0, sp, #8
 2370 00ea 1849     		ldr	r1, .L70+64
 2371 00ec 032C     		cmp	r4, #3
 2372 00ee C8BF     		it	gt
 2373 00f0 1A46     		movgt	r2, r3
 2374 00f2 FFF7FEFF 		bl	sprintf
 2375              	.LVL180:
 179:Interface.cpp ****     hw.PrintLine(settings);
 2376              		.loc 9 179 5 is_stmt 1 view .LVU566
 2377              	.LBB700:
 2378              	.LBI700:
 119:lib/libdaisy/src/daisy_seed.h ****     {
 2379              		.loc 3 119 17 view .LVU567
 2380              	.LBB701:
 121:lib/libdaisy/src/daisy_seed.h ****     }
 2381              		.loc 3 121 23 is_stmt 0 view .LVU568
 2382 00f6 02A8     		add	r0, sp, #8
 2383              	.LVL181:
 121:lib/libdaisy/src/daisy_seed.h ****     }
 2384              		.loc 3 121 23 view .LVU569
 2385 00f8 FFF7FEFF 		bl	_ZN5daisy6LoggerILNS_17LoggerDestinationE1EE9PrintLineEPKcz
 2386              	.LVL182:
 121:lib/libdaisy/src/daisy_seed.h ****     }
ARM GAS  /var/folders/9s/8rp0_f2s1n31qbztm3b5_fdh0000gn/T//ccWYl2xP.s 			page 103


 2387              		.loc 3 121 23 view .LVU570
 2388              	.LBE701:
 2389              	.LBE700:
 180:Interface.cpp ****     hw.PrintLine("----------------");
 2390              		.loc 9 180 5 is_stmt 1 view .LVU571
 2391              	.LBB702:
 2392              	.LBI702:
 119:lib/libdaisy/src/daisy_seed.h ****     {
 2393              		.loc 3 119 17 view .LVU572
 2394              	.LBB703:
 121:lib/libdaisy/src/daisy_seed.h ****     }
 2395              		.loc 3 121 23 is_stmt 0 view .LVU573
 2396 00fc 1448     		ldr	r0, .L70+68
 2397 00fe FFF7FEFF 		bl	_ZN5daisy6LoggerILNS_17LoggerDestinationE1EE9PrintLineEPKcz
 2398              	.LVL183:
 121:lib/libdaisy/src/daisy_seed.h ****     }
 2399              		.loc 3 121 23 view .LVU574
 2400              	.LBE703:
 2401              	.LBE702:
 181:Interface.cpp **** }
 2402              		.loc 9 181 1 view .LVU575
 2403 0102 12B0     		add	sp, sp, #72
 2404              		.cfi_def_cfa_offset 16
 2405              		@ sp needed
 2406 0104 BDEC028B 		vldm	sp!, {d8}
 2407              		.cfi_restore 80
 2408              		.cfi_restore 81
 2409              		.cfi_def_cfa_offset 8
 2410 0108 10BD     		pop	{r4, pc}
 2411              	.L71:
 2412 010a 00BF     		.align	2
 2413              	.L70:
 2414 010c 00000000 		.word	.LANCHOR3
 2415 0110 00000000 		.word	cpu_meter
 2416 0114 0000C07F 		.word	2143289344
 2417 0118 00000000 		.word	.LANCHOR20
 2418 011c 0000803D 		.word	1031798784
 2419 0120 DB0FC940 		.word	1086918619
 2420 0124 00000000 		.word	_ZNSt17_Function_handlerIFviEZ15InitializeSynthvEUliE_E9_M_invokeERKSt9_Any_dataOi
 2421 0128 00000000 		.word	_ZNSt17_Function_handlerIFviEZ15InitializeSynthvEUliE_E10_M_managerERSt9_Any_dataRKS3_St18_M
 2422 012c 00000000 		.word	_Z13AudioCallbackPKfPfj
 2423 0130 00000000 		.word	.LANCHOR2
 2424 0134 18000000 		.word	.LC6
 2425 0138 48000000 		.word	.LC7
 2426 013c 00000000 		.word	MAX_ENGINE_INDEX
 2427 0140 6C000000 		.word	.LC8
 2428 0144 0B000000 		.word	.LC5
 2429 0148 00000000 		.word	.LC4
 2430 014c 7F000000 		.word	.LC9
 2431 0150 88000000 		.word	.LC10
 2432              		.cfi_endproc
 2433              	.LFE5351:
 2435              		.section	.text.startup._GLOBAL__sub_I_hw,"ax",%progbits
 2436              		.align	1
 2437              		.syntax unified
 2438              		.thumb
 2439              		.thumb_func
ARM GAS  /var/folders/9s/8rp0_f2s1n31qbztm3b5_fdh0000gn/T//ccWYl2xP.s 			page 104


 2441              	_GLOBAL__sub_I_hw:
 2442              	.LFB6154:
 2443              		.loc 9 210 1 is_stmt 1 view -0
 2444              		.cfi_startproc
 2445              		@ args = 0, pretend = 0, frame = 0
 2446              		@ frame_needed = 0, uses_anonymous_args = 0
 2447              	.LBB768:
 2448              	.LBI768:
 2449              		.loc 9 210 1 view .LVU577
 2450              	.LVL184:
 2451              	.LBB769:
 2452              	.LBB770:
 2453              	.LBI770:
  21:lib/libdaisy/src/daisy_seed.h ****     ~DaisySeed() {}
 2454              		.loc 3 21 5 view .LVU578
 2455              	.LBB771:
 2456              	.LBB772:
 2457              	.LBI772:
 2458              		.file 27 "lib/libdaisy/src/per/qspi.h"
   1:lib/libdaisy/src/per/qspi.h **** #ifndef DSY_QSPI
   2:lib/libdaisy/src/per/qspi.h **** #define DSY_QSPI /**< Macro */
   3:lib/libdaisy/src/per/qspi.h **** 
   4:lib/libdaisy/src/per/qspi.h **** #ifndef UNIT_TEST // for unit tests, a dummy implementation
   5:lib/libdaisy/src/per/qspi.h **** 
   6:lib/libdaisy/src/per/qspi.h **** #include <cstdint>
   7:lib/libdaisy/src/per/qspi.h **** #include "daisy_core.h" // Added for dsy_gpio_pin typedef
   8:lib/libdaisy/src/per/qspi.h **** 
   9:lib/libdaisy/src/per/qspi.h **** #define DSY_QSPI_TEXT       \
  10:lib/libdaisy/src/per/qspi.h ****     __attribute__((section( \
  11:lib/libdaisy/src/per/qspi.h ****         ".qspiflash_text"))) /**< used for reading memory in memory_mapped mode. */
  12:lib/libdaisy/src/per/qspi.h **** #define DSY_QSPI_DATA       \
  13:lib/libdaisy/src/per/qspi.h ****     __attribute__((section( \
  14:lib/libdaisy/src/per/qspi.h ****         ".qspiflash_data"))) /**< used for reading memory in memory_mapped mode. */
  15:lib/libdaisy/src/per/qspi.h **** #define DSY_QSPI_BSS        \
  16:lib/libdaisy/src/per/qspi.h ****     __attribute__((section( \
  17:lib/libdaisy/src/per/qspi.h ****         ".qspiflash_bss"))) /**< used for reading memory in memory_mapped mode. */
  18:lib/libdaisy/src/per/qspi.h **** 
  19:lib/libdaisy/src/per/qspi.h **** namespace daisy
  20:lib/libdaisy/src/per/qspi.h **** {
  21:lib/libdaisy/src/per/qspi.h **** /** @addtogroup serial
  22:lib/libdaisy/src/per/qspi.h **** @{
  23:lib/libdaisy/src/per/qspi.h **** */
  24:lib/libdaisy/src/per/qspi.h **** 
  25:lib/libdaisy/src/per/qspi.h **** /** 
  26:lib/libdaisy/src/per/qspi.h ****  Driver for QSPI peripheral to interface with external flash memory. \n 
  27:lib/libdaisy/src/per/qspi.h ****     Currently supported QSPI Devices: \n 
  28:lib/libdaisy/src/per/qspi.h ****     * IS25LP080D
  29:lib/libdaisy/src/per/qspi.h **** */
  30:lib/libdaisy/src/per/qspi.h **** class QSPIHandle
  31:lib/libdaisy/src/per/qspi.h **** {
  32:lib/libdaisy/src/per/qspi.h ****   public:
  33:lib/libdaisy/src/per/qspi.h ****     enum Result
  34:lib/libdaisy/src/per/qspi.h ****     {
  35:lib/libdaisy/src/per/qspi.h ****         OK = 0,
  36:lib/libdaisy/src/per/qspi.h ****         ERR
  37:lib/libdaisy/src/per/qspi.h ****     };
  38:lib/libdaisy/src/per/qspi.h **** 
ARM GAS  /var/folders/9s/8rp0_f2s1n31qbztm3b5_fdh0000gn/T//ccWYl2xP.s 			page 105


  39:lib/libdaisy/src/per/qspi.h ****     /** Indicates the current status of the module. 
  40:lib/libdaisy/src/per/qspi.h ****          *  Warnings are indicated by a leading W.
  41:lib/libdaisy/src/per/qspi.h ****          *  Errors are indicated by a leading E and cause an immediate exit.
  42:lib/libdaisy/src/per/qspi.h ****          * 
  43:lib/libdaisy/src/per/qspi.h ****          *  \param GOOD - No errors have been reported.
  44:lib/libdaisy/src/per/qspi.h ****          *  \param E_HAL_ERROR - HAL code did not return HAL_OK.
  45:lib/libdaisy/src/per/qspi.h ****          *  \param E_SWITCHING_MODES - An error was encountered while switching QSPI peripheral mod
  46:lib/libdaisy/src/per/qspi.h ****          *  \param E_INVALID_MODE - QSPI should not be written to while the program is executing fr
  47:lib/libdaisy/src/per/qspi.h ****          */
  48:lib/libdaisy/src/per/qspi.h ****     enum Status
  49:lib/libdaisy/src/per/qspi.h ****     {
  50:lib/libdaisy/src/per/qspi.h ****         GOOD = 0,
  51:lib/libdaisy/src/per/qspi.h ****         E_HAL_ERROR,
  52:lib/libdaisy/src/per/qspi.h ****         E_SWITCHING_MODES,
  53:lib/libdaisy/src/per/qspi.h ****         E_INVALID_MODE,
  54:lib/libdaisy/src/per/qspi.h ****     };
  55:lib/libdaisy/src/per/qspi.h **** 
  56:lib/libdaisy/src/per/qspi.h ****     /** Configuration structure for interfacing with QSPI Driver */
  57:lib/libdaisy/src/per/qspi.h ****     struct Config
  58:lib/libdaisy/src/per/qspi.h ****     {
  59:lib/libdaisy/src/per/qspi.h ****         /** Flash Devices supported. (Both of these are more-or-less the same, just different sizes
  60:lib/libdaisy/src/per/qspi.h ****         enum Device
  61:lib/libdaisy/src/per/qspi.h ****         {
  62:lib/libdaisy/src/per/qspi.h ****             IS25LP080D,  /**< & */
  63:lib/libdaisy/src/per/qspi.h ****             IS25LP064A,  /**< & */
  64:lib/libdaisy/src/per/qspi.h ****             DEVICE_LAST, /**< & */
  65:lib/libdaisy/src/per/qspi.h ****         };
  66:lib/libdaisy/src/per/qspi.h **** 
  67:lib/libdaisy/src/per/qspi.h ****         /** 
  68:lib/libdaisy/src/per/qspi.h ****         Modes of operation.
  69:lib/libdaisy/src/per/qspi.h ****         Memory Mapped mode: QSPI configured so that the QSPI can be
  70:lib/libdaisy/src/per/qspi.h ****         read from starting address 0x90000000. Writing is not
  71:lib/libdaisy/src/per/qspi.h ****         possible in this mode. \n 
  72:lib/libdaisy/src/per/qspi.h ****         Indirect Polling mode: Device driver enabled. 
  73:lib/libdaisy/src/per/qspi.h ****         */
  74:lib/libdaisy/src/per/qspi.h ****         enum Mode
  75:lib/libdaisy/src/per/qspi.h ****         {
  76:lib/libdaisy/src/per/qspi.h ****             MEMORY_MAPPED,    /**< & */
  77:lib/libdaisy/src/per/qspi.h ****             INDIRECT_POLLING, /**< & */
  78:lib/libdaisy/src/per/qspi.h ****             MODE_LAST,
  79:lib/libdaisy/src/per/qspi.h ****         };
  80:lib/libdaisy/src/per/qspi.h **** 
  81:lib/libdaisy/src/per/qspi.h ****         //SCK,  CE# (active low)
  82:lib/libdaisy/src/per/qspi.h ****         struct
  83:lib/libdaisy/src/per/qspi.h ****         {
  84:lib/libdaisy/src/per/qspi.h ****             dsy_gpio_pin io0; /**< & */
  85:lib/libdaisy/src/per/qspi.h ****             dsy_gpio_pin io1; /**< & */
  86:lib/libdaisy/src/per/qspi.h ****             dsy_gpio_pin io2; /**< & */
  87:lib/libdaisy/src/per/qspi.h ****             dsy_gpio_pin io3; /**< & */
  88:lib/libdaisy/src/per/qspi.h ****             dsy_gpio_pin clk; /**< & */
  89:lib/libdaisy/src/per/qspi.h ****             dsy_gpio_pin ncs; /**< & */
  90:lib/libdaisy/src/per/qspi.h ****         } pin_config;
  91:lib/libdaisy/src/per/qspi.h **** 
  92:lib/libdaisy/src/per/qspi.h ****         Device device;
  93:lib/libdaisy/src/per/qspi.h ****         Mode   mode;
  94:lib/libdaisy/src/per/qspi.h ****     };
  95:lib/libdaisy/src/per/qspi.h **** 
ARM GAS  /var/folders/9s/8rp0_f2s1n31qbztm3b5_fdh0000gn/T//ccWYl2xP.s 			page 106


  96:lib/libdaisy/src/per/qspi.h ****     /** 
  97:lib/libdaisy/src/per/qspi.h ****         Initializes QSPI peripheral, and Resets, and prepares memory for access.
  98:lib/libdaisy/src/per/qspi.h ****         \param config should be populated with the mode, device and pin_config before calling this 
  99:lib/libdaisy/src/per/qspi.h ****         \return Result::OK or Result::ERR
 100:lib/libdaisy/src/per/qspi.h ****         */
 101:lib/libdaisy/src/per/qspi.h ****     Result Init(const Config& config);
 102:lib/libdaisy/src/per/qspi.h **** 
 103:lib/libdaisy/src/per/qspi.h ****     /** Returns the current config. */
 104:lib/libdaisy/src/per/qspi.h ****     const Config& GetConfig() const;
 105:lib/libdaisy/src/per/qspi.h **** 
 106:lib/libdaisy/src/per/qspi.h ****     // Couldn't this just be called before anything else in init? That
 107:lib/libdaisy/src/per/qspi.h ****     // would make manually calling it unnecessary.
 108:lib/libdaisy/src/per/qspi.h ****     /** 
 109:lib/libdaisy/src/per/qspi.h ****         Deinitializes the peripheral
 110:lib/libdaisy/src/per/qspi.h ****         This should be called before reinitializing QSPI in a different mode.
 111:lib/libdaisy/src/per/qspi.h ****         \return Result::OK or Result::ERR
 112:lib/libdaisy/src/per/qspi.h ****         */
 113:lib/libdaisy/src/per/qspi.h ****     Result DeInit();
 114:lib/libdaisy/src/per/qspi.h **** 
 115:lib/libdaisy/src/per/qspi.h ****     /** 
 116:lib/libdaisy/src/per/qspi.h ****         Writes a single page to to the specified address on the QSPI chip.
 117:lib/libdaisy/src/per/qspi.h ****         For IS25LP*, page size is 256 bytes.
 118:lib/libdaisy/src/per/qspi.h ****         \param address Address to write to
 119:lib/libdaisy/src/per/qspi.h ****         \param size Buffer size
 120:lib/libdaisy/src/per/qspi.h ****         \param buffer Buffer to write
 121:lib/libdaisy/src/per/qspi.h ****         \return Result::OK or Result::ERR
 122:lib/libdaisy/src/per/qspi.h ****         */
 123:lib/libdaisy/src/per/qspi.h ****     Result WritePage(uint32_t address, uint32_t size, uint8_t* buffer);
 124:lib/libdaisy/src/per/qspi.h **** 
 125:lib/libdaisy/src/per/qspi.h ****     /** 
 126:lib/libdaisy/src/per/qspi.h ****         Writes data in buffer to to the QSPI. Starting at address to address+size 
 127:lib/libdaisy/src/per/qspi.h ****         \param address Address to write to
 128:lib/libdaisy/src/per/qspi.h ****         \param size Buffer size
 129:lib/libdaisy/src/per/qspi.h ****         \param buffer Buffer to write
 130:lib/libdaisy/src/per/qspi.h ****         \return Result::OK or Result::ERR
 131:lib/libdaisy/src/per/qspi.h ****         */
 132:lib/libdaisy/src/per/qspi.h ****     Result Write(uint32_t address, uint32_t size, uint8_t* buffer);
 133:lib/libdaisy/src/per/qspi.h **** 
 134:lib/libdaisy/src/per/qspi.h ****     /** 
 135:lib/libdaisy/src/per/qspi.h ****         Erases the area specified on the chip.
 136:lib/libdaisy/src/per/qspi.h ****         Erasures will happen by 4K, 32K or 64K increments.
 137:lib/libdaisy/src/per/qspi.h ****         Smallest erase possible is 4kB at a time. (on IS25LP*)
 138:lib/libdaisy/src/per/qspi.h ****         \param start_addr Address to begin erasing from
 139:lib/libdaisy/src/per/qspi.h ****         \param end_addr  Address to stop erasing at
 140:lib/libdaisy/src/per/qspi.h ****         \return Result::OK or Result::ERR
 141:lib/libdaisy/src/per/qspi.h ****         */
 142:lib/libdaisy/src/per/qspi.h ****     Result Erase(uint32_t start_addr, uint32_t end_addr);
 143:lib/libdaisy/src/per/qspi.h **** 
 144:lib/libdaisy/src/per/qspi.h ****     /**  
 145:lib/libdaisy/src/per/qspi.h ****          Erases a single sector of the chip.  
 146:lib/libdaisy/src/per/qspi.h ****         TODO: Document the size of this function. 
 147:lib/libdaisy/src/per/qspi.h ****         \param addr Address of sector to erase
 148:lib/libdaisy/src/per/qspi.h ****         \return Result::OK or Result::ERR
 149:lib/libdaisy/src/per/qspi.h ****         */
 150:lib/libdaisy/src/per/qspi.h ****     Result EraseSector(uint32_t address);
 151:lib/libdaisy/src/per/qspi.h **** 
 152:lib/libdaisy/src/per/qspi.h ****     /** Returns the current class status. Useful for debugging.
ARM GAS  /var/folders/9s/8rp0_f2s1n31qbztm3b5_fdh0000gn/T//ccWYl2xP.s 			page 107


 153:lib/libdaisy/src/per/qspi.h ****      *  \returns Status
 154:lib/libdaisy/src/per/qspi.h ****      */
 155:lib/libdaisy/src/per/qspi.h ****     Status GetStatus();
 156:lib/libdaisy/src/per/qspi.h **** 
 157:lib/libdaisy/src/per/qspi.h ****     /** Returns a pointer to the actual memory used 
 158:lib/libdaisy/src/per/qspi.h ****      *  The memory at this address is read-only
 159:lib/libdaisy/src/per/qspi.h ****      *  to write to it use the Write function.
 160:lib/libdaisy/src/per/qspi.h ****      * 
 161:lib/libdaisy/src/per/qspi.h ****      *  \param offset returns the pointer starting this 
 162:lib/libdaisy/src/per/qspi.h ****      *                many bytes into the memory
 163:lib/libdaisy/src/per/qspi.h ****     */
 164:lib/libdaisy/src/per/qspi.h ****     void* GetData(uint32_t offset = 0);
 165:lib/libdaisy/src/per/qspi.h **** 
 166:lib/libdaisy/src/per/qspi.h ****     QSPIHandle() : pimpl_(nullptr) {}
 2459              		.loc 27 166 5 view .LVU579
 2460              	.LBE772:
 2461              	.LBE771:
 2462              	.LBE770:
 2463              	.LBE769:
 2464              	.LBE768:
 2465              		.loc 9 210 1 is_stmt 0 view .LVU580
 2466 0000 F8B5     		push	{r3, r4, r5, r6, r7, lr}
 2467              		.cfi_def_cfa_offset 24
 2468              		.cfi_offset 3, -24
 2469              		.cfi_offset 4, -20
 2470              		.cfi_offset 5, -16
 2471              		.cfi_offset 6, -12
 2472              		.cfi_offset 7, -8
 2473              		.cfi_offset 14, -4
 2474              	.LBB868:
 2475              	.LBB864:
 2476              	.LBB792:
 2477              	.LBB789:
 2478              	.LBB777:
 2479              	.LBB773:
 2480              	.LBB774:
 2481              		.loc 27 166 34 view .LVU581
 2482 0002 3F48     		ldr	r0, .L73
 2483 0004 0025     		movs	r5, #0
 2484              	.LBE774:
 2485              	.LBE773:
 2486              	.LBE777:
 2487              	.LBE789:
 2488              	.LBE792:
   5:Interface.cpp **** DaisySeed hw;
 2489              		.loc 9 5 11 view .LVU582
 2490 0006 3F4C     		ldr	r4, .L73+4
 2491              	.LBB793:
 2492              	.LBB794:
 2493              	.LBB795:
 2494              	.LBB796:
 2495              	.LBB797:
 2496              	.LBB798:
 2497              	.LBB799:
 2498              	.LBB800:
  34:Effects/BiquadFilters.h ****         ~BiquadSection() {}
 2499              		.loc 11 34 25 view .LVU583
ARM GAS  /var/folders/9s/8rp0_f2s1n31qbztm3b5_fdh0000gn/T//ccWYl2xP.s 			page 108


 2500 0008 3F4F     		ldr	r7, .L73+8
 2501              	.LBE800:
 2502              	.LBE799:
 2503              	.LBE798:
 2504              	.LBE797:
 2505              	.LBE796:
 2506              	.LBE795:
 2507              	.LBE794:
 2508              	.LBE793:
   5:Interface.cpp **** DaisySeed hw;
 2509              		.loc 9 5 11 view .LVU584
 2510 000a 2246     		mov	r2, r4
 2511 000c 3F49     		ldr	r1, .L73+12
 2512              	.LBB834:
 2513              	.LBB790:
 2514              	.LBB778:
 2515              	.LBB776:
 2516              	.LBB775:
 2517              		.loc 27 166 34 view .LVU585
 2518 000e 0560     		str	r5, [r0]
 2519              	.LVL185:
 2520              		.loc 27 166 34 view .LVU586
 2521              	.LBE775:
 2522              	.LBE776:
 2523              	.LBE778:
 2524              	.LBB779:
 2525              	.LBI779:
  62:lib/libdaisy/src/hid/audio.h ****     ~AudioHandle() {}
 2526              		.loc 7 62 5 is_stmt 1 view .LVU587
 2527              	.LBE779:
 2528              	.LBE790:
 2529              	.LBE834:
 2530              	.LBB835:
 2531              	.LBB829:
 2532              	.LBB823:
 2533              	.LBB818:
 2534              	.LBB813:
 2535              	.LBB809:
 2536              	.LBB805:
 2537              	.LBB801:
  34:Effects/BiquadFilters.h ****         ~BiquadSection() {}
 2538              		.loc 11 34 25 is_stmt 0 view .LVU588
 2539 0010 07F53836 		add	r6, r7, #188416
 2540              	.LBE801:
 2541              	.LBE805:
 2542              	.LBE809:
 2543              	.LBE813:
 2544              	.LBE818:
 2545              	.LBE823:
 2546              	.LBE829:
 2547              	.LBE835:
 2548              	.LBB836:
 2549              	.LBB791:
 2550              	.LBB782:
 2551              	.LBB780:
 2552              	.LBB781:
  62:lib/libdaisy/src/hid/audio.h ****     ~AudioHandle() {}
ARM GAS  /var/folders/9s/8rp0_f2s1n31qbztm3b5_fdh0000gn/T//ccWYl2xP.s 			page 109


 2553              		.loc 7 62 35 view .LVU589
 2554 0014 4561     		str	r5, [r0, #20]
 2555              	.LVL186:
  62:lib/libdaisy/src/hid/audio.h ****     ~AudioHandle() {}
 2556              		.loc 7 62 35 view .LVU590
 2557              	.LBE781:
 2558              	.LBE780:
 2559              	.LBE782:
 2560              	.LBB783:
 2561              	.LBI783:
  84:lib/libdaisy/src/per/adc.h ****     ~AdcHandle() {}
 2562              		.loc 6 84 5 is_stmt 1 view .LVU591
  84:lib/libdaisy/src/per/adc.h ****     ~AdcHandle() {}
 2563              		.loc 6 84 5 is_stmt 0 view .LVU592
 2564              	.LBE783:
 2565              	.LBB784:
 2566              	.LBI784:
 2567              		.file 28 "lib/libdaisy/src/per/dac.h"
   1:lib/libdaisy/src/per/dac.h **** #pragma once
   2:lib/libdaisy/src/per/dac.h **** #ifndef DSY_DAC_H
   3:lib/libdaisy/src/per/dac.h **** #define DSY_DAC_H
   4:lib/libdaisy/src/per/dac.h **** 
   5:lib/libdaisy/src/per/dac.h **** #include "daisy_core.h"
   6:lib/libdaisy/src/per/dac.h **** 
   7:lib/libdaisy/src/per/dac.h **** namespace daisy
   8:lib/libdaisy/src/per/dac.h **** {
   9:lib/libdaisy/src/per/dac.h **** /** DAC handle for Built-in DAC Peripheral 
  10:lib/libdaisy/src/per/dac.h ****  ** 
  11:lib/libdaisy/src/per/dac.h ****  ** For now only Normal Mode is supported,
  12:lib/libdaisy/src/per/dac.h ****  ** Sample and hold mode provides reduced power consumption, but requires a bit more setup.
  13:lib/libdaisy/src/per/dac.h ****  **
  14:lib/libdaisy/src/per/dac.h ****  ** For now connecting the DAC through other internal periphearls is also not supported.
  15:lib/libdaisy/src/per/dac.h ****  **
  16:lib/libdaisy/src/per/dac.h ****  ** Since the DAC channels have dedicated pins we don't need to pass in a pin config like with
  17:lib/libdaisy/src/per/dac.h ****  ** other modules. However, it is still important to not try to use the DAC pins for anything else.
  18:lib/libdaisy/src/per/dac.h ****  ** DAC Channel 1 is on PA4, and DAC Channel 2 is on PA5
  19:lib/libdaisy/src/per/dac.h ****  ***/
  20:lib/libdaisy/src/per/dac.h **** class DacHandle
  21:lib/libdaisy/src/per/dac.h **** {
  22:lib/libdaisy/src/per/dac.h ****   public:
  23:lib/libdaisy/src/per/dac.h ****     /** Return Values for the DacHandle class */
  24:lib/libdaisy/src/per/dac.h ****     enum class Result
  25:lib/libdaisy/src/per/dac.h ****     {
  26:lib/libdaisy/src/per/dac.h ****         OK,
  27:lib/libdaisy/src/per/dac.h ****         ERR,
  28:lib/libdaisy/src/per/dac.h ****     };
  29:lib/libdaisy/src/per/dac.h **** 
  30:lib/libdaisy/src/per/dac.h ****     /** Selects which channel(s) will be configured for use. */
  31:lib/libdaisy/src/per/dac.h ****     enum class Channel
  32:lib/libdaisy/src/per/dac.h ****     {
  33:lib/libdaisy/src/per/dac.h ****         ONE,
  34:lib/libdaisy/src/per/dac.h ****         TWO,
  35:lib/libdaisy/src/per/dac.h ****         BOTH,
  36:lib/libdaisy/src/per/dac.h ****     };
  37:lib/libdaisy/src/per/dac.h **** 
  38:lib/libdaisy/src/per/dac.h ****     /** Sets the Mode for the DAC channels.
  39:lib/libdaisy/src/per/dac.h ****      **
ARM GAS  /var/folders/9s/8rp0_f2s1n31qbztm3b5_fdh0000gn/T//ccWYl2xP.s 			page 110


  40:lib/libdaisy/src/per/dac.h ****      ** Polling mode uses the blocking mode to transmit a single value at a time.
  41:lib/libdaisy/src/per/dac.h ****      **
  42:lib/libdaisy/src/per/dac.h ****      ** DMA mode uses a buffer, and periodically transmits it triggering a 
  43:lib/libdaisy/src/per/dac.h ****      ** callback to fill the buffer when it is ready for more samples.
  44:lib/libdaisy/src/per/dac.h ****      ***/
  45:lib/libdaisy/src/per/dac.h ****     enum class Mode
  46:lib/libdaisy/src/per/dac.h ****     {
  47:lib/libdaisy/src/per/dac.h ****         POLLING,
  48:lib/libdaisy/src/per/dac.h ****         DMA,
  49:lib/libdaisy/src/per/dac.h ****     };
  50:lib/libdaisy/src/per/dac.h **** 
  51:lib/libdaisy/src/per/dac.h ****     /** Sets the number of bits per sample transmitted out of the DAC.
  52:lib/libdaisy/src/per/dac.h ****      ** The output range will be: 0V - VDDA
  53:lib/libdaisy/src/per/dac.h ****      ** The resolution will be roughly: bitdepth / (VDDA - 0V) 
  54:lib/libdaisy/src/per/dac.h ****      ***/
  55:lib/libdaisy/src/per/dac.h ****     enum class BitDepth
  56:lib/libdaisy/src/per/dac.h ****     {
  57:lib/libdaisy/src/per/dac.h ****         BITS_8,
  58:lib/libdaisy/src/per/dac.h ****         BITS_12
  59:lib/libdaisy/src/per/dac.h ****     };
  60:lib/libdaisy/src/per/dac.h **** 
  61:lib/libdaisy/src/per/dac.h ****     /** Sets whether the DAC output is buffered for higher drive ability. */
  62:lib/libdaisy/src/per/dac.h ****     enum class BufferState
  63:lib/libdaisy/src/per/dac.h ****     {
  64:lib/libdaisy/src/per/dac.h ****         ENABLED,
  65:lib/libdaisy/src/per/dac.h ****         DISABLED,
  66:lib/libdaisy/src/per/dac.h ****     };
  67:lib/libdaisy/src/per/dac.h **** 
  68:lib/libdaisy/src/per/dac.h ****     /** Configuration structure for initializing the DAC structure. */
  69:lib/libdaisy/src/per/dac.h ****     struct Config
  70:lib/libdaisy/src/per/dac.h ****     {
  71:lib/libdaisy/src/per/dac.h ****         /** Target Samplerate in Hz used to configure the internal 
  72:lib/libdaisy/src/per/dac.h ****          ** timebase for DMA mode. Does nothing in POLLING mode.
  73:lib/libdaisy/src/per/dac.h ****          ** If the value is 0 at Init time this will default to 48000Hz 
  74:lib/libdaisy/src/per/dac.h ****          ** otherwise the driver will attempt meet the target.*/
  75:lib/libdaisy/src/per/dac.h ****         uint32_t target_samplerate;
  76:lib/libdaisy/src/per/dac.h **** 
  77:lib/libdaisy/src/per/dac.h ****         Channel     chn;
  78:lib/libdaisy/src/per/dac.h ****         Mode        mode;
  79:lib/libdaisy/src/per/dac.h ****         BitDepth    bitdepth;
  80:lib/libdaisy/src/per/dac.h ****         BufferState buff_state;
  81:lib/libdaisy/src/per/dac.h ****     };
  82:lib/libdaisy/src/per/dac.h **** 
  83:lib/libdaisy/src/per/dac.h ****     DacHandle() : pimpl_(nullptr) {}
 2568              		.loc 28 83 5 is_stmt 1 view .LVU593
 2569              	.LBB785:
 2570              	.LBB786:
 2571              		.loc 28 83 33 is_stmt 0 view .LVU594
 2572 0016 0562     		str	r5, [r0, #32]
 2573              	.LVL187:
 2574              		.loc 28 83 33 view .LVU595
 2575              	.LBE786:
 2576              	.LBE785:
 2577              	.LBE784:
 2578              	.LBB787:
 2579              	.LBI787:
  40:lib/libdaisy/src/hid/usb.h **** 
ARM GAS  /var/folders/9s/8rp0_f2s1n31qbztm3b5_fdh0000gn/T//ccWYl2xP.s 			page 111


 2580              		.loc 5 40 5 is_stmt 1 view .LVU596
  40:lib/libdaisy/src/hid/usb.h **** 
 2581              		.loc 5 40 5 is_stmt 0 view .LVU597
 2582              	.LBE787:
 2583              	.LBB788:
 2584              	.LBI788:
  77:lib/libdaisy/src/sys/system.h ****     ~System() {}
 2585              		.loc 4 77 5 is_stmt 1 view .LVU598
  77:lib/libdaisy/src/sys/system.h ****     ~System() {}
 2586              		.loc 4 77 5 is_stmt 0 view .LVU599
 2587              	.LBE788:
 2588              	.LBE791:
 2589              	.LBE836:
   5:Interface.cpp **** DaisySeed hw;
 2590              		.loc 9 5 11 view .LVU600
 2591 0018 FFF7FEFF 		bl	__aeabi_atexit
 2592              	.LVL188:
 2593              	.LBB837:
 2594              	.LBI837:
  56:mpr121_daisy.h ****     ~Mpr121() {}
 2595              		.loc 8 56 5 is_stmt 1 view .LVU601
 2596              	.LBB838:
 2597              	.LBB839:
 2598              	.LBI839:
  29:lib/libdaisy/src/per/i2c.h ****     {
  30:lib/libdaisy/src/per/i2c.h ****         /** Specifies whether the interface will operate in master or slave mode. */
  31:lib/libdaisy/src/per/i2c.h ****         enum class Mode
  32:lib/libdaisy/src/per/i2c.h ****         {
  33:lib/libdaisy/src/per/i2c.h ****             I2C_MASTER,
  34:lib/libdaisy/src/per/i2c.h ****             I2C_SLAVE,
  35:lib/libdaisy/src/per/i2c.h ****         };
  36:lib/libdaisy/src/per/i2c.h **** 
  37:lib/libdaisy/src/per/i2c.h ****         /** Specifices the internal peripheral to use (these are mapped to different pins on the ha
  38:lib/libdaisy/src/per/i2c.h ****         enum class Peripheral
  39:lib/libdaisy/src/per/i2c.h ****         {
  40:lib/libdaisy/src/per/i2c.h ****             I2C_1 = 0, /**< & */
  41:lib/libdaisy/src/per/i2c.h ****             I2C_2,     /**< & */
  42:lib/libdaisy/src/per/i2c.h ****             I2C_3,     /**< & */
  43:lib/libdaisy/src/per/i2c.h ****             I2C_4,     /**< & */
  44:lib/libdaisy/src/per/i2c.h ****         };
  45:lib/libdaisy/src/per/i2c.h **** 
  46:lib/libdaisy/src/per/i2c.h ****         /** Rate at which the clock/data will be sent/received. The device being used will have max
  47:lib/libdaisy/src/per/i2c.h ****          *  1MHZ Mode is currently 886kHz
  48:lib/libdaisy/src/per/i2c.h ****          */
  49:lib/libdaisy/src/per/i2c.h ****         enum class Speed
  50:lib/libdaisy/src/per/i2c.h ****         {
  51:lib/libdaisy/src/per/i2c.h ****             I2C_100KHZ, /**< & */
  52:lib/libdaisy/src/per/i2c.h ****             I2C_400KHZ, /**< & */
  53:lib/libdaisy/src/per/i2c.h ****             I2C_1MHZ,   /**< & */
  54:lib/libdaisy/src/per/i2c.h ****         };
  55:lib/libdaisy/src/per/i2c.h **** 
  56:lib/libdaisy/src/per/i2c.h ****         Peripheral periph; /**< & */
  57:lib/libdaisy/src/per/i2c.h ****         struct
  58:lib/libdaisy/src/per/i2c.h ****         {
  59:lib/libdaisy/src/per/i2c.h ****             dsy_gpio_pin scl; /**< & */
  60:lib/libdaisy/src/per/i2c.h ****             dsy_gpio_pin sda; /**< & */
  61:lib/libdaisy/src/per/i2c.h ****         } pin_config;         /**< & */
ARM GAS  /var/folders/9s/8rp0_f2s1n31qbztm3b5_fdh0000gn/T//ccWYl2xP.s 			page 112


  62:lib/libdaisy/src/per/i2c.h **** 
  63:lib/libdaisy/src/per/i2c.h ****         Speed speed; /**< & */
  64:lib/libdaisy/src/per/i2c.h ****         Mode  mode;  /**< & */
  65:lib/libdaisy/src/per/i2c.h ****         // 0x10 is chosen as a default to avoid conflicts with reserved addresses
  66:lib/libdaisy/src/per/i2c.h ****         uint8_t address = 0x10; /**< & */
  67:lib/libdaisy/src/per/i2c.h ****     };
  68:lib/libdaisy/src/per/i2c.h **** 
  69:lib/libdaisy/src/per/i2c.h ****     /** Return values for I2C functions. */
  70:lib/libdaisy/src/per/i2c.h ****     enum class Result
  71:lib/libdaisy/src/per/i2c.h ****     {
  72:lib/libdaisy/src/per/i2c.h ****         OK, /**< & */
  73:lib/libdaisy/src/per/i2c.h ****         ERR /**< & */
  74:lib/libdaisy/src/per/i2c.h ****     };
  75:lib/libdaisy/src/per/i2c.h **** 
  76:lib/libdaisy/src/per/i2c.h ****     enum class Direction
  77:lib/libdaisy/src/per/i2c.h ****     {
  78:lib/libdaisy/src/per/i2c.h ****         TRANSMIT, /**< & */
  79:lib/libdaisy/src/per/i2c.h ****         RECEIVE,  /**< & */
  80:lib/libdaisy/src/per/i2c.h ****     };
  81:lib/libdaisy/src/per/i2c.h **** 
  82:lib/libdaisy/src/per/i2c.h ****     I2CHandle() : pimpl_(nullptr) {}
 2599              		.loc 19 82 5 view .LVU602
 2600              	.LBB840:
 2601              	.LBB841:
 2602              		.loc 19 82 33 is_stmt 0 view .LVU603
 2603 001c 3C48     		ldr	r0, .L73+16
 2604              	.LBE841:
 2605              	.LBE840:
 2606              	.LBE839:
 2607              	.LBE838:
 2608              	.LBE837:
   6:Interface.cpp **** Mpr121 touch_sensor;
 2609              		.loc 9 6 8 view .LVU604
 2610 001e 2246     		mov	r2, r4
 2611 0020 3C49     		ldr	r1, .L73+20
 2612              	.LBB846:
 2613              	.LBB845:
 2614              	.LBB844:
 2615              	.LBB843:
 2616              	.LBB842:
 2617              		.loc 19 82 33 view .LVU605
 2618 0022 0560     		str	r5, [r0]
 2619              	.LBE842:
 2620              	.LBE843:
 2621              	.LBE844:
  56:mpr121_daisy.h ****     ~Mpr121() {}
 2622              		.loc 8 56 14 view .LVU606
 2623 0024 8580     		strh	r5, [r0, #4]	@ movhi
 2624              	.LVL189:
  56:mpr121_daisy.h ****     ~Mpr121() {}
 2625              		.loc 8 56 14 view .LVU607
 2626              	.LBE845:
 2627              	.LBE846:
   6:Interface.cpp **** Mpr121 touch_sensor;
 2628              		.loc 9 6 8 view .LVU608
 2629 0026 FFF7FEFF 		bl	__aeabi_atexit
 2630              	.LVL190:
ARM GAS  /var/folders/9s/8rp0_f2s1n31qbztm3b5_fdh0000gn/T//ccWYl2xP.s 			page 113


 2631              	.LBB847:
 2632              	.LBI793:
  24:Effects/EchoDelay.h ****         ~EchoDelay() {}
 2633              		.loc 10 24 9 is_stmt 1 view .LVU609
 2634              	.LBB830:
 2635              	.LBB824:
 2636              	.LBI824:
  31:lib/DaisySP/Source/Utility/delayline.h ****     ~DelayLine() {}
 2637              		.loc 13 31 5 view .LVU610
  31:lib/DaisySP/Source/Utility/delayline.h ****     ~DelayLine() {}
 2638              		.loc 13 31 5 is_stmt 0 view .LVU611
 2639              	.LBE824:
 2640              	.LBB825:
 2641              	.LBI795:
  76:Effects/BiquadFilters.h ****         ~BiquadCascade() {}
 2642              		.loc 11 76 9 is_stmt 1 view .LVU612
 2643              	.LBB819:
 2644              	.LBB814:
 2645              	.LBI797:
  94:/Library/DaisyToolchain/0.2.0/arm/arm-none-eabi/include/c++/10.3.1/array ****     {
 2646              		.loc 12 94 12 view .LVU613
 2647              	.LBE814:
 2648              	.LBE819:
 2649              	.LBE825:
 2650              	.LBE830:
 2651              	.LBE847:
 2652              	.LBE864:
 2653              	.LBE868:
  94:/Library/DaisyToolchain/0.2.0/arm/arm-none-eabi/include/c++/10.3.1/array ****     {
 2654              		.loc 12 94 12 view .LVU614
 2655              	.LBB869:
 2656              	.LBB865:
 2657              	.LBB848:
 2658              	.LBB831:
 2659              	.LBB826:
 2660              	.LBB820:
 2661              	.LBB815:
 2662              	.LBB810:
 2663              	.LBI798:
  34:Effects/BiquadFilters.h ****         ~BiquadSection() {}
 2664              		.loc 11 34 9 view .LVU615
 2665              	.LBB806:
 2666              	.LBB802:
  34:Effects/BiquadFilters.h ****         ~BiquadSection() {}
 2667              		.loc 11 34 25 is_stmt 0 view .LVU616
 2668 002a 2946     		mov	r1, r5
 2669 002c 1422     		movs	r2, #20
 2670 002e 06F62C60 		addw	r0, r6, #3628
 2671 0032 FFF7FEFF 		bl	memset
 2672              	.LVL191:
 2673 0036 0023     		movs	r3, #0
 2674 0038 06F56462 		add	r2, r6, #3648
 2675              	.LBE802:
 2676              	.LBE806:
 2677              	.LBE810:
 2678              	.LBE815:
 2679              	.LBE820:
ARM GAS  /var/folders/9s/8rp0_f2s1n31qbztm3b5_fdh0000gn/T//ccWYl2xP.s 			page 114


 2680              	.LBE826:
 2681              	.LBE831:
 2682              	.LBE848:
   7:Interface.cpp **** EchoDelay<48000> delay;
 2683              		.loc 9 7 18 view .LVU617
 2684 003c 3649     		ldr	r1, .L73+24
 2685 003e 3846     		mov	r0, r7
 2686              	.LBB849:
 2687              	.LBB832:
 2688              	.LBB827:
 2689              	.LBB821:
 2690              	.LBB816:
 2691              	.LBB811:
 2692              	.LBB807:
 2693              	.LBB803:
  34:Effects/BiquadFilters.h ****         ~BiquadSection() {}
 2694              		.loc 11 34 25 view .LVU618
 2695 0040 1360     		str	r3, [r2]	@ float
 2696 0042 06F64462 		addw	r2, r6, #3652
 2697 0046 1360     		str	r3, [r2]	@ float
 2698 0048 06F64862 		addw	r2, r6, #3656
 2699 004c 06F64C66 		addw	r6, r6, #3660
 2700 0050 1360     		str	r3, [r2]	@ float
 2701              	.LBE803:
 2702              	.LBE807:
 2703              	.LBE811:
 2704              	.LBE816:
 2705              	.LBE821:
 2706              	.LBE827:
 2707              	.LBE832:
 2708              	.LBE849:
   7:Interface.cpp **** EchoDelay<48000> delay;
 2709              		.loc 9 7 18 view .LVU619
 2710 0052 2246     		mov	r2, r4
 2711              	.LBB850:
 2712              	.LBB833:
 2713              	.LBB828:
 2714              	.LBB822:
 2715              	.LBB817:
 2716              	.LBB812:
 2717              	.LBB808:
 2718              	.LBB804:
  34:Effects/BiquadFilters.h ****         ~BiquadSection() {}
 2719              		.loc 11 34 25 view .LVU620
 2720 0054 3360     		str	r3, [r6]	@ float
 2721              	.LVL192:
  34:Effects/BiquadFilters.h ****         ~BiquadSection() {}
 2722              		.loc 11 34 25 view .LVU621
 2723              	.LBE804:
 2724              	.LBE808:
 2725              	.LBE812:
 2726              	.LBE817:
 2727              	.LBE822:
 2728              	.LBE828:
 2729              	.LBE833:
 2730              	.LBE850:
 2731              	.LBE865:
ARM GAS  /var/folders/9s/8rp0_f2s1n31qbztm3b5_fdh0000gn/T//ccWYl2xP.s 			page 115


 2732              	.LBE869:
  94:/Library/DaisyToolchain/0.2.0/arm/arm-none-eabi/include/c++/10.3.1/array ****     {
 2733              		.loc 12 94 12 is_stmt 1 view .LVU622
  94:/Library/DaisyToolchain/0.2.0/arm/arm-none-eabi/include/c++/10.3.1/array ****     {
 2734              		.loc 12 94 12 view .LVU623
 2735              	.LBB870:
 2736              	.LBB866:
   9:Interface.cpp **** Arpeggiator arp;
 2737              		.loc 9 9 13 is_stmt 0 view .LVU624
 2738 0056 314E     		ldr	r6, .L73+28
   7:Interface.cpp **** EchoDelay<48000> delay;
 2739              		.loc 9 7 18 view .LVU625
 2740 0058 FFF7FEFF 		bl	__aeabi_atexit
 2741              	.LVL193:
   9:Interface.cpp **** Arpeggiator arp;
 2742              		.loc 9 9 13 view .LVU626
 2743 005c 3046     		mov	r0, r6
 2744 005e FFF7FEFF 		bl	_ZN11ArpeggiatorC1Ev
 2745              	.LVL194:
 2746 0062 2246     		mov	r2, r4
 2747 0064 2E49     		ldr	r1, .L73+32
 2748 0066 3046     		mov	r0, r6
 2749 0068 FFF7FEFF 		bl	__aeabi_atexit
 2750              	.LVL195:
  11:Interface.cpp **** Led touch_leds[12];
 2751              		.loc 9 11 18 is_stmt 1 view .LVU627
  11:Interface.cpp **** Led touch_leds[12];
 2752              		.loc 9 11 5 is_stmt 0 view .LVU628
 2753 006c 2246     		mov	r2, r4
 2754 006e 2D49     		ldr	r1, .L73+36
 2755 0070 2846     		mov	r0, r5
  22:Interface.cpp **** AnalogControl delay_time_knob;        // ADC 0 (Pin 15) Delay Time
 2756              		.loc 9 22 15 view .LVU629
 2757 0072 2D4D     		ldr	r5, .L73+40
  11:Interface.cpp **** Led touch_leds[12];
 2758              		.loc 9 11 5 view .LVU630
 2759 0074 FFF7FEFF 		bl	__aeabi_atexit
 2760              	.LVL196:
 2761              	.LBB851:
 2762              	.LBI851:
  41:lib/libdaisy/src/hid/switch.h ****     ~Switch() {}
 2763              		.loc 1 41 5 is_stmt 1 view .LVU631
  41:lib/libdaisy/src/hid/switch.h ****     ~Switch() {}
 2764              		.loc 1 41 5 is_stmt 0 view .LVU632
 2765              	.LBE851:
  21:Interface.cpp **** Switch button;
 2766              		.loc 9 21 8 view .LVU633
 2767 0078 2246     		mov	r2, r4
 2768 007a 2C49     		ldr	r1, .L73+44
 2769 007c 2C48     		ldr	r0, .L73+48
 2770 007e FFF7FEFF 		bl	__aeabi_atexit
 2771              	.LVL197:
 2772              	.LBB852:
 2773              	.LBI852:
  21:lib/libdaisy/src/hid/ctrl.h ****     /** destructor */
 2774              		.loc 2 21 5 is_stmt 1 view .LVU634
  21:lib/libdaisy/src/hid/ctrl.h ****     /** destructor */
ARM GAS  /var/folders/9s/8rp0_f2s1n31qbztm3b5_fdh0000gn/T//ccWYl2xP.s 			page 116


 2775              		.loc 2 21 5 is_stmt 0 view .LVU635
 2776              	.LBE852:
  22:Interface.cpp **** AnalogControl delay_time_knob;        // ADC 0 (Pin 15) Delay Time
 2777              		.loc 9 22 15 view .LVU636
 2778 0082 2246     		mov	r2, r4
 2779 0084 2946     		mov	r1, r5
 2780 0086 2B48     		ldr	r0, .L73+52
 2781 0088 FFF7FEFF 		bl	__aeabi_atexit
 2782              	.LVL198:
 2783              	.LBB853:
 2784              	.LBI853:
  21:lib/libdaisy/src/hid/ctrl.h ****     /** destructor */
 2785              		.loc 2 21 5 is_stmt 1 view .LVU637
  21:lib/libdaisy/src/hid/ctrl.h ****     /** destructor */
 2786              		.loc 2 21 5 is_stmt 0 view .LVU638
 2787              	.LBE853:
  23:Interface.cpp **** AnalogControl delay_mix_feedback_knob; // ADC 1 (Pin 16) Delay Mix & Feedback
 2788              		.loc 9 23 15 view .LVU639
 2789 008c 2246     		mov	r2, r4
 2790 008e 2946     		mov	r1, r5
 2791 0090 2948     		ldr	r0, .L73+56
 2792 0092 FFF7FEFF 		bl	__aeabi_atexit
 2793              	.LVL199:
 2794              	.LBB854:
 2795              	.LBI854:
  21:lib/libdaisy/src/hid/ctrl.h ****     /** destructor */
 2796              		.loc 2 21 5 is_stmt 1 view .LVU640
  21:lib/libdaisy/src/hid/ctrl.h ****     /** destructor */
 2797              		.loc 2 21 5 is_stmt 0 view .LVU641
 2798              	.LBE854:
  24:Interface.cpp **** AnalogControl env_release_knob;       // ADC 2 (Pin 17) Envelope Release
 2799              		.loc 9 24 15 view .LVU642
 2800 0096 2246     		mov	r2, r4
 2801 0098 2946     		mov	r1, r5
 2802 009a 2848     		ldr	r0, .L73+60
 2803 009c FFF7FEFF 		bl	__aeabi_atexit
 2804              	.LVL200:
 2805              	.LBB855:
 2806              	.LBI855:
  21:lib/libdaisy/src/hid/ctrl.h ****     /** destructor */
 2807              		.loc 2 21 5 is_stmt 1 view .LVU643
  21:lib/libdaisy/src/hid/ctrl.h ****     /** destructor */
 2808              		.loc 2 21 5 is_stmt 0 view .LVU644
 2809              	.LBE855:
  25:Interface.cpp **** AnalogControl env_attack_knob;        // ADC 3 (Pin 18) Envelope Attack
 2810              		.loc 9 25 15 view .LVU645
 2811 00a0 2246     		mov	r2, r4
 2812 00a2 2946     		mov	r1, r5
 2813 00a4 2648     		ldr	r0, .L73+64
 2814 00a6 FFF7FEFF 		bl	__aeabi_atexit
 2815              	.LVL201:
 2816              	.LBB856:
 2817              	.LBI856:
  21:lib/libdaisy/src/hid/ctrl.h ****     /** destructor */
 2818              		.loc 2 21 5 is_stmt 1 view .LVU646
  21:lib/libdaisy/src/hid/ctrl.h ****     /** destructor */
 2819              		.loc 2 21 5 is_stmt 0 view .LVU647
ARM GAS  /var/folders/9s/8rp0_f2s1n31qbztm3b5_fdh0000gn/T//ccWYl2xP.s 			page 117


 2820              	.LBE856:
  26:Interface.cpp **** AnalogControl timbre_knob;            // ADC 4 (Pin 19) Plaits Timbre
 2821              		.loc 9 26 15 view .LVU648
 2822 00aa 2246     		mov	r2, r4
 2823 00ac 2946     		mov	r1, r5
 2824 00ae 2548     		ldr	r0, .L73+68
 2825 00b0 FFF7FEFF 		bl	__aeabi_atexit
 2826              	.LVL202:
 2827              	.LBB857:
 2828              	.LBI857:
  21:lib/libdaisy/src/hid/ctrl.h ****     /** destructor */
 2829              		.loc 2 21 5 is_stmt 1 view .LVU649
  21:lib/libdaisy/src/hid/ctrl.h ****     /** destructor */
 2830              		.loc 2 21 5 is_stmt 0 view .LVU650
 2831              	.LBE857:
  27:Interface.cpp **** AnalogControl harmonics_knob;         // ADC 5 (Pin 20) Plaits Harmonics
 2832              		.loc 9 27 15 view .LVU651
 2833 00b4 2246     		mov	r2, r4
 2834 00b6 2946     		mov	r1, r5
 2835 00b8 2348     		ldr	r0, .L73+72
 2836 00ba FFF7FEFF 		bl	__aeabi_atexit
 2837              	.LVL203:
 2838              	.LBB858:
 2839              	.LBI858:
  21:lib/libdaisy/src/hid/ctrl.h ****     /** destructor */
 2840              		.loc 2 21 5 is_stmt 1 view .LVU652
  21:lib/libdaisy/src/hid/ctrl.h ****     /** destructor */
 2841              		.loc 2 21 5 is_stmt 0 view .LVU653
 2842              	.LBE858:
  28:Interface.cpp **** AnalogControl morph_knob;             // ADC 6 (Pin 21) Plaits Morph
 2843              		.loc 9 28 15 view .LVU654
 2844 00be 2246     		mov	r2, r4
 2845 00c0 2946     		mov	r1, r5
 2846 00c2 2248     		ldr	r0, .L73+76
 2847 00c4 FFF7FEFF 		bl	__aeabi_atexit
 2848              	.LVL204:
 2849              	.LBB859:
 2850              	.LBI859:
  21:lib/libdaisy/src/hid/ctrl.h ****     /** destructor */
 2851              		.loc 2 21 5 is_stmt 1 view .LVU655
  21:lib/libdaisy/src/hid/ctrl.h ****     /** destructor */
 2852              		.loc 2 21 5 is_stmt 0 view .LVU656
 2853              	.LBE859:
  29:Interface.cpp **** AnalogControl pitch_knob;             // ADC 7 (Pin 22) Plaits Pitch
 2854              		.loc 9 29 15 view .LVU657
 2855 00c8 2246     		mov	r2, r4
 2856 00ca 2946     		mov	r1, r5
 2857 00cc 2048     		ldr	r0, .L73+80
 2858 00ce FFF7FEFF 		bl	__aeabi_atexit
 2859              	.LVL205:
 2860              	.LBB860:
 2861              	.LBI860:
  21:lib/libdaisy/src/hid/ctrl.h ****     /** destructor */
 2862              		.loc 2 21 5 is_stmt 1 view .LVU658
  21:lib/libdaisy/src/hid/ctrl.h ****     /** destructor */
 2863              		.loc 2 21 5 is_stmt 0 view .LVU659
 2864              	.LBE860:
ARM GAS  /var/folders/9s/8rp0_f2s1n31qbztm3b5_fdh0000gn/T//ccWYl2xP.s 			page 118


  30:Interface.cpp **** AnalogControl arp_pad;               // ADC 8 (Pin 23) Arpeggiator Toggle Pad
 2865              		.loc 9 30 15 view .LVU660
 2866 00d2 2246     		mov	r2, r4
 2867 00d4 2946     		mov	r1, r5
 2868 00d6 1F48     		ldr	r0, .L73+84
 2869 00d8 FFF7FEFF 		bl	__aeabi_atexit
 2870              	.LVL206:
 2871              	.LBB861:
 2872              	.LBI861:
  21:lib/libdaisy/src/hid/ctrl.h ****     /** destructor */
 2873              		.loc 2 21 5 is_stmt 1 view .LVU661
  21:lib/libdaisy/src/hid/ctrl.h ****     /** destructor */
 2874              		.loc 2 21 5 is_stmt 0 view .LVU662
 2875              	.LBE861:
  31:Interface.cpp **** AnalogControl model_prev_pad;        // ADC 9 (Pin 24) Model Select Previous Pad
 2876              		.loc 9 31 15 view .LVU663
 2877 00dc 2246     		mov	r2, r4
 2878 00de 2946     		mov	r1, r5
 2879 00e0 1D48     		ldr	r0, .L73+88
 2880 00e2 FFF7FEFF 		bl	__aeabi_atexit
 2881              	.LVL207:
 2882              	.LBB862:
 2883              	.LBI862:
  21:lib/libdaisy/src/hid/ctrl.h ****     /** destructor */
 2884              		.loc 2 21 5 is_stmt 1 view .LVU664
  21:lib/libdaisy/src/hid/ctrl.h ****     /** destructor */
 2885              		.loc 2 21 5 is_stmt 0 view .LVU665
 2886              	.LBE862:
  32:Interface.cpp **** AnalogControl model_next_pad;        // ADC 10 (Pin 25) Model Select Next Pad
 2887              		.loc 9 32 15 view .LVU666
 2888 00e6 2246     		mov	r2, r4
 2889 00e8 2946     		mov	r1, r5
 2890 00ea 1C48     		ldr	r0, .L73+92
 2891 00ec FFF7FEFF 		bl	__aeabi_atexit
 2892              	.LVL208:
 2893              	.LBB863:
 2894              	.LBI863:
  21:lib/libdaisy/src/hid/ctrl.h ****     /** destructor */
 2895              		.loc 2 21 5 is_stmt 1 view .LVU667
  21:lib/libdaisy/src/hid/ctrl.h ****     /** destructor */
 2896              		.loc 2 21 5 is_stmt 0 view .LVU668
 2897              	.LBE863:
  33:Interface.cpp **** AnalogControl mod_wheel;             // ADC 11 (Pin 28) Mod Wheel Control
 2898              		.loc 9 33 15 view .LVU669
 2899 00f0 2246     		mov	r2, r4
 2900 00f2 2946     		mov	r1, r5
 2901 00f4 1A48     		ldr	r0, .L73+96
 2902              	.LBE866:
 2903              	.LBE870:
 2904              		.loc 9 210 1 view .LVU670
 2905 00f6 BDE8F840 		pop	{r3, r4, r5, r6, r7, lr}
 2906              		.cfi_restore 14
 2907              		.cfi_restore 7
 2908              		.cfi_restore 6
 2909              		.cfi_restore 5
 2910              		.cfi_restore 4
 2911              		.cfi_restore 3
ARM GAS  /var/folders/9s/8rp0_f2s1n31qbztm3b5_fdh0000gn/T//ccWYl2xP.s 			page 119


 2912              		.cfi_def_cfa_offset 0
 2913              	.LBB871:
 2914              	.LBB867:
  33:Interface.cpp **** AnalogControl mod_wheel;             // ADC 11 (Pin 28) Mod Wheel Control
 2915              		.loc 9 33 15 view .LVU671
 2916 00fa FFF7FEBF 		b	__aeabi_atexit
 2917              	.LVL209:
 2918              	.L74:
 2919 00fe 00BF     		.align	2
 2920              	.L73:
 2921 0100 00000000 		.word	.LANCHOR2
 2922 0104 00000000 		.word	__dso_handle
 2923 0108 00000000 		.word	delay
 2924 010c 00000000 		.word	_ZN5daisy9DaisySeedD1Ev
 2925 0110 00000000 		.word	.LANCHOR18
 2926 0114 00000000 		.word	_ZN6Mpr121D1Ev
 2927 0118 00000000 		.word	_ZN10infrasonic9EchoDelayILj48000EED1Ev
 2928 011c 00000000 		.word	.LANCHOR20
 2929 0120 00000000 		.word	_ZN11ArpeggiatorD1Ev
 2930 0124 00000000 		.word	__tcf_0
 2931 0128 00000000 		.word	_ZN5daisy13AnalogControlD1Ev
 2932 012c 00000000 		.word	_ZN5daisy6SwitchD1Ev
 2933 0130 00000000 		.word	.LANCHOR16
 2934 0134 00000000 		.word	.LANCHOR4
 2935 0138 00000000 		.word	.LANCHOR5
 2936 013c 00000000 		.word	.LANCHOR6
 2937 0140 00000000 		.word	.LANCHOR7
 2938 0144 00000000 		.word	.LANCHOR8
 2939 0148 00000000 		.word	.LANCHOR9
 2940 014c 00000000 		.word	.LANCHOR10
 2941 0150 00000000 		.word	.LANCHOR11
 2942 0154 00000000 		.word	.LANCHOR12
 2943 0158 00000000 		.word	.LANCHOR13
 2944 015c 00000000 		.word	.LANCHOR14
 2945 0160 00000000 		.word	.LANCHOR15
 2946              	.LBE867:
 2947              	.LBE871:
 2948              		.cfi_endproc
 2949              	.LFE6154:
 2951              		.section	.init_array,"aw",%init_array
 2952              		.align	2
 2953 0000 00000000 		.word	_GLOBAL__sub_I_hw(target1)
 2954              		.global	button_was_pressed
 2955              		.global	button_held_start_time
 2956              		.global	BOOTLOADER_HOLD_TIME_MS
 2957              		.global	smoothed_output_level
 2958              		.global	update_display
 2959              		.global	avg_elapsed_us
 2960              		.global	sample_rate
 2961              		.global	mod_wheel
 2962              		.global	model_next_pad
 2963              		.global	model_prev_pad
 2964              		.global	arp_pad
 2965              		.global	pitch_knob
 2966              		.global	morph_knob
 2967              		.global	harmonics_knob
 2968              		.global	timbre_knob
ARM GAS  /var/folders/9s/8rp0_f2s1n31qbztm3b5_fdh0000gn/T//ccWYl2xP.s 			page 120


 2969              		.global	env_attack_knob
 2970              		.global	env_release_knob
 2971              		.global	delay_mix_feedback_knob
 2972              		.global	delay_time_knob
 2973              		.global	button
 2974              		.global	pad_led_prev_quant
 2975              		.global	pad_led_levels
 2976              		.global	ARP_LED_DURATION_MS
 2977              		.global	arp_led_timestamps
 2978              		.global	touch_leds
 2979              		.global	arp
 2980              		.global	delay
 2981              		.global	touch_sensor
 2982              		.global	hw
 2983              		.section	.rodata
 2984              		.set	.LANCHOR17,. + 0
 2985              	.LC0:
 2986 0000 01       		.byte	1
 2987 0001 08       		.byte	8
 2988              	.LC1:
 2989 0002 01       		.byte	1
 2990 0003 09       		.byte	9
 2991              	.LC2:
 2992 0004 01       		.byte	1
 2993 0005 07       		.byte	7
 2994 0006 01       		.byte	1
 2995 0007 06       		.byte	6
 2996 0008 01       		.byte	1
 2997 0009 05       		.byte	5
 2998 000a 01       		.byte	1
 2999 000b 04       		.byte	4
 3000 000c 06       		.byte	6
 3001 000d 0B       		.byte	11
 3002 000e 06       		.byte	6
 3003 000f 0A       		.byte	10
 3004 0010 02       		.byte	2
 3005 0011 0C       		.byte	12
 3006 0012 03       		.byte	3
 3007 0013 02       		.byte	2
 3008 0014 02       		.byte	2
 3009 0015 08       		.byte	8
 3010 0016 02       		.byte	2
 3011 0017 09       		.byte	9
 3012 0018 02       		.byte	2
 3013 0019 0A       		.byte	10
 3014 001a 02       		.byte	2
 3015 001b 0B       		.byte	11
 3016              		.section	.bss.arp,"aw",%nobits
 3017              		.align	2
 3018              		.set	.LANCHOR20,. + 0
 3021              	arp:
 3022 0000 00000000 		.space	84
 3022      00000000 
 3022      00000000 
 3022      00000000 
 3022      00000000 
 3023              		.section	.bss.arp_led_timestamps,"aw",%nobits
ARM GAS  /var/folders/9s/8rp0_f2s1n31qbztm3b5_fdh0000gn/T//ccWYl2xP.s 			page 121


 3024              		.align	2
 3025              		.set	.LANCHOR1,. + 0
 3028              	arp_led_timestamps:
 3029 0000 00000000 		.space	48
 3029      00000000 
 3029      00000000 
 3029      00000000 
 3029      00000000 
 3030              		.section	.bss.arp_pad,"aw",%nobits
 3031              		.align	2
 3032              		.set	.LANCHOR12,. + 0
 3035              	arp_pad:
 3036 0000 00000000 		.space	32
 3036      00000000 
 3036      00000000 
 3036      00000000 
 3036      00000000 
 3037              		.section	.bss.avg_elapsed_us,"aw",%nobits
 3038              		.align	2
 3041              	avg_elapsed_us:
 3042 0000 00000000 		.space	4
 3043              		.section	.bss.button,"aw",%nobits
 3044              		.align	2
 3045              		.set	.LANCHOR16,. + 0
 3048              	button:
 3049 0000 00000000 		.space	12
 3049      00000000 
 3049      00000000 
 3050              		.section	.bss.button_held_start_time,"aw",%nobits
 3051              		.align	2
 3054              	button_held_start_time:
 3055 0000 00000000 		.space	4
 3056              		.section	.bss.button_was_pressed,"aw",%nobits
 3059              	button_was_pressed:
 3060 0000 00       		.space	1
 3061              		.section	.bss.delay,"aw",%nobits
 3062              		.align	2
 3065              	delay:
 3066 0000 00000000 		.space	192080
 3066      00000000 
 3066      00000000 
 3066      00000000 
 3066      00000000 
 3067              		.section	.bss.delay_mix_feedback_knob,"aw",%nobits
 3068              		.align	2
 3069              		.set	.LANCHOR5,. + 0
 3072              	delay_mix_feedback_knob:
 3073 0000 00000000 		.space	32
 3073      00000000 
 3073      00000000 
 3073      00000000 
 3073      00000000 
 3074              		.section	.bss.delay_time_knob,"aw",%nobits
 3075              		.align	2
 3076              		.set	.LANCHOR4,. + 0
 3079              	delay_time_knob:
 3080 0000 00000000 		.space	32
ARM GAS  /var/folders/9s/8rp0_f2s1n31qbztm3b5_fdh0000gn/T//ccWYl2xP.s 			page 122


 3080      00000000 
 3080      00000000 
 3080      00000000 
 3080      00000000 
 3081              		.section	.bss.env_attack_knob,"aw",%nobits
 3082              		.align	2
 3083              		.set	.LANCHOR7,. + 0
 3086              	env_attack_knob:
 3087 0000 00000000 		.space	32
 3087      00000000 
 3087      00000000 
 3087      00000000 
 3087      00000000 
 3088              		.section	.bss.env_release_knob,"aw",%nobits
 3089              		.align	2
 3090              		.set	.LANCHOR6,. + 0
 3093              	env_release_knob:
 3094 0000 00000000 		.space	32
 3094      00000000 
 3094      00000000 
 3094      00000000 
 3094      00000000 
 3095              		.section	.bss.harmonics_knob,"aw",%nobits
 3096              		.align	2
 3097              		.set	.LANCHOR9,. + 0
 3100              	harmonics_knob:
 3101 0000 00000000 		.space	32
 3101      00000000 
 3101      00000000 
 3101      00000000 
 3101      00000000 
 3102              		.section	.bss.hw,"aw",%nobits
 3103              		.align	2
 3104              		.set	.LANCHOR2,. + 0
 3107              	hw:
 3108 0000 00000000 		.space	60
 3108      00000000 
 3108      00000000 
 3108      00000000 
 3108      00000000 
 3109              		.section	.bss.mod_wheel,"aw",%nobits
 3110              		.align	2
 3111              		.set	.LANCHOR15,. + 0
 3114              	mod_wheel:
 3115 0000 00000000 		.space	32
 3115      00000000 
 3115      00000000 
 3115      00000000 
 3115      00000000 
 3116              		.section	.bss.model_next_pad,"aw",%nobits
 3117              		.align	2
 3118              		.set	.LANCHOR14,. + 0
 3121              	model_next_pad:
 3122 0000 00000000 		.space	32
 3122      00000000 
 3122      00000000 
 3122      00000000 
ARM GAS  /var/folders/9s/8rp0_f2s1n31qbztm3b5_fdh0000gn/T//ccWYl2xP.s 			page 123


 3122      00000000 
 3123              		.section	.bss.model_prev_pad,"aw",%nobits
 3124              		.align	2
 3125              		.set	.LANCHOR13,. + 0
 3128              	model_prev_pad:
 3129 0000 00000000 		.space	32
 3129      00000000 
 3129      00000000 
 3129      00000000 
 3129      00000000 
 3130              		.section	.bss.morph_knob,"aw",%nobits
 3131              		.align	2
 3132              		.set	.LANCHOR10,. + 0
 3135              	morph_knob:
 3136 0000 00000000 		.space	32
 3136      00000000 
 3136      00000000 
 3136      00000000 
 3136      00000000 
 3137              		.section	.bss.pad_led_levels,"aw",%nobits
 3138              		.align	2
 3141              	pad_led_levels:
 3142 0000 00000000 		.space	48
 3142      00000000 
 3142      00000000 
 3142      00000000 
 3142      00000000 
 3143              		.section	.bss.pad_led_prev_quant,"aw",%nobits
 3144              		.align	2
 3147              	pad_led_prev_quant:
 3148 0000 00000000 		.space	48
 3148      00000000 
 3148      00000000 
 3148      00000000 
 3148      00000000 
 3149              		.section	.bss.pitch_knob,"aw",%nobits
 3150              		.align	2
 3151              		.set	.LANCHOR11,. + 0
 3154              	pitch_knob:
 3155 0000 00000000 		.space	32
 3155      00000000 
 3155      00000000 
 3155      00000000 
 3155      00000000 
 3156              		.section	.bss.smoothed_output_level,"aw",%nobits
 3157              		.align	2
 3160              	smoothed_output_level:
 3161 0000 00000000 		.space	4
 3162              		.section	.bss.timbre_knob,"aw",%nobits
 3163              		.align	2
 3164              		.set	.LANCHOR8,. + 0
 3167              	timbre_knob:
 3168 0000 00000000 		.space	32
 3168      00000000 
 3168      00000000 
 3168      00000000 
 3168      00000000 
ARM GAS  /var/folders/9s/8rp0_f2s1n31qbztm3b5_fdh0000gn/T//ccWYl2xP.s 			page 124


 3169              		.section	.bss.touch_leds,"aw",%nobits
 3170              		.align	2
 3171              		.set	.LANCHOR19,. + 0
 3174              	touch_leds:
 3175 0000 00000000 		.space	336
 3175      00000000 
 3175      00000000 
 3175      00000000 
 3175      00000000 
 3176              		.section	.bss.touch_sensor,"aw",%nobits
 3177              		.align	2
 3178              		.set	.LANCHOR18,. + 0
 3181              	touch_sensor:
 3182 0000 00000000 		.space	8
 3182      00000000 
 3183              		.section	.bss.update_display,"aw",%nobits
 3186              	update_display:
 3187 0000 00       		.space	1
 3188              		.section	.data.sample_rate,"aw"
 3189              		.align	2
 3190              		.set	.LANCHOR3,. + 0
 3193              	sample_rate:
 3194 0000 00803B47 		.word	1195081728
 3195              		.section	.rodata.ARP_LED_DURATION_MS,"a"
 3196              		.align	2
 3199              	ARP_LED_DURATION_MS:
 3200 0000 64000000 		.word	100
 3201              		.section	.rodata.BOOTLOADER_HOLD_TIME_MS,"a"
 3202              		.align	2
 3205              	BOOTLOADER_HOLD_TIME_MS:
 3206 0000 B80B0000 		.word	3000
 3207              		.section	.rodata._ZTIZ15InitializeSynthvEUliE_,"a"
 3208              		.align	2
 3209              		.set	.LANCHOR0,. + 0
 3212              	_ZTIZ15InitializeSynthvEUliE_:
 3213 0000 08000000 		.word	_ZTVN10__cxxabiv117__class_type_infoE+8
 3214 0004 00000000 		.word	_ZTSZ15InitializeSynthvEUliE_
 3215              		.section	.rodata._ZTSZ15InitializeSynthvEUliE_,"a"
 3218              	_ZTSZ15InitializeSynthvEUliE_:
 3219 0000 2A5A3135 		.ascii	"*Z15InitializeSynthvEUliE_\000"
 3219      496E6974 
 3219      69616C69 
 3219      7A655379 
 3219      6E746876 
 3220              		.text
 3221              	.Letext0:
 3222              		.file 29 "/Library/DaisyToolchain/0.2.0/arm/arm-none-eabi/include/machine/_default_types.h"
 3223              		.file 30 "/Library/DaisyToolchain/0.2.0/arm/arm-none-eabi/include/sys/_stdint.h"
 3224              		.file 31 "/Library/DaisyToolchain/0.2.0/arm/arm-none-eabi/include/stdint.h"
 3225              		.file 32 "/Library/DaisyToolchain/0.2.0/arm/lib/gcc/arm-none-eabi/10.3.1/include/stddef.h"
 3226              		.file 33 "/Library/DaisyToolchain/0.2.0/arm/arm-none-eabi/include/c++/10.3.1/bits/cpp_type_traits.
 3227              		.file 34 "/Library/DaisyToolchain/0.2.0/arm/arm-none-eabi/include/c++/10.3.1/cmath"
 3228              		.file 35 "/Library/DaisyToolchain/0.2.0/arm/arm-none-eabi/include/c++/10.3.1/bits/std_abs.h"
 3229              		.file 36 "/Library/DaisyToolchain/0.2.0/arm/arm-none-eabi/include/c++/10.3.1/cstdlib"
 3230              		.file 37 "/Library/DaisyToolchain/0.2.0/arm/arm-none-eabi/include/c++/10.3.1/cstdint"
 3231              		.file 38 "/Library/DaisyToolchain/0.2.0/arm/arm-none-eabi/include/c++/10.3.1/type_traits"
 3232              		.file 39 "/Library/DaisyToolchain/0.2.0/arm/arm-none-eabi/include/c++/10.3.1/arm-none-eabi/thumb/v
ARM GAS  /var/folders/9s/8rp0_f2s1n31qbztm3b5_fdh0000gn/T//ccWYl2xP.s 			page 125


 3233              		.file 40 "/Library/DaisyToolchain/0.2.0/arm/arm-none-eabi/include/c++/10.3.1/bits/stl_pair.h"
 3234              		.file 41 "/Library/DaisyToolchain/0.2.0/arm/arm-none-eabi/include/c++/10.3.1/debug/debug.h"
 3235              		.file 42 "/Library/DaisyToolchain/0.2.0/arm/arm-none-eabi/include/c++/10.3.1/bits/algorithmfwd.h"
 3236              		.file 43 "/Library/DaisyToolchain/0.2.0/arm/arm-none-eabi/include/c++/10.3.1/bits/exception_ptr.h"
 3237              		.file 44 "/Library/DaisyToolchain/0.2.0/arm/arm-none-eabi/include/c++/10.3.1/cstdarg"
 3238              		.file 45 "/Library/DaisyToolchain/0.2.0/arm/arm-none-eabi/include/c++/10.3.1/cstdio"
 3239              		.file 46 "/Library/DaisyToolchain/0.2.0/arm/arm-none-eabi/include/c++/10.3.1/cstring"
 3240              		.file 47 "/Library/DaisyToolchain/0.2.0/arm/arm-none-eabi/include/c++/10.3.1/cwchar"
 3241              		.file 48 "/Library/DaisyToolchain/0.2.0/arm/arm-none-eabi/include/c++/10.3.1/clocale"
 3242              		.file 49 "/Library/DaisyToolchain/0.2.0/arm/arm-none-eabi/include/c++/10.3.1/bits/basic_string.h"
 3243              		.file 50 "/Library/DaisyToolchain/0.2.0/arm/arm-none-eabi/include/c++/10.3.1/bits/stl_iterator.h"
 3244              		.file 51 "/Library/DaisyToolchain/0.2.0/arm/arm-none-eabi/include/c++/10.3.1/bits/uses_allocator.h
 3245              		.file 52 "/Library/DaisyToolchain/0.2.0/arm/arm-none-eabi/include/c++/10.3.1/tuple"
 3246              		.file 53 "/Library/DaisyToolchain/0.2.0/arm/arm-none-eabi/include/c++/10.3.1/functional"
 3247              		.file 54 "/Library/DaisyToolchain/0.2.0/arm/arm-none-eabi/include/c++/10.3.1/bits/stl_function.h"
 3248              		.file 55 "/Library/DaisyToolchain/0.2.0/arm/arm-none-eabi/include/c++/10.3.1/bits/refwrap.h"
 3249              		.file 56 "/Library/DaisyToolchain/0.2.0/arm/arm-none-eabi/include/c++/10.3.1/bits/predefined_ops.h
 3250              		.file 57 "/Library/DaisyToolchain/0.2.0/arm/arm-none-eabi/include/sys/_types.h"
 3251              		.file 58 "/Library/DaisyToolchain/0.2.0/arm/arm-none-eabi/include/sys/reent.h"
 3252              		.file 59 "/Library/DaisyToolchain/0.2.0/arm/arm-none-eabi/include/sys/lock.h"
 3253              		.file 60 "/Library/DaisyToolchain/0.2.0/arm/arm-none-eabi/include/math.h"
 3254              		.file 61 "/Library/DaisyToolchain/0.2.0/arm/arm-none-eabi/include/stdlib.h"
 3255              		.file 62 "/Library/DaisyToolchain/0.2.0/arm/arm-none-eabi/include/c++/10.3.1/math.h"
 3256              		.file 63 "/Library/DaisyToolchain/0.2.0/arm/arm-none-eabi/include/c++/10.3.1/stdlib.h"
 3257              		.file 64 "lib/libdaisy/src/per/tim.h"
 3258              		.file 65 "lib/libdaisy/src/per/sai.h"
 3259              		.file 66 "lib/libdaisy/src/hid/logger_impl.h"
 3260              		.file 67 "lib/libdaisy/src/util/wav_format.h"
 3261              		.file 68 "lib/libdaisy/src/hid/led.h"
 3262              		.file 69 "lib/libdaisy/src/hid/logger.h"
 3263              		.file 70 "lib/libdaisy/src/dev/sdram.h"
 3264              		.file 71 "/Library/DaisyToolchain/0.2.0/arm/lib/gcc/arm-none-eabi/10.3.1/include/stdarg.h"
 3265              		.file 72 "/Library/DaisyToolchain/0.2.0/arm/arm-none-eabi/include/stdio.h"
 3266              		.file 73 "/Library/DaisyToolchain/0.2.0/arm/arm-none-eabi/include/string.h"
 3267              		.file 74 "lib/DaisySP/Source/Control/adenv.h"
 3268              		.file 75 "/Library/DaisyToolchain/0.2.0/arm/arm-none-eabi/include/wchar.h"
 3269              		.file 76 "/Library/DaisyToolchain/0.2.0/arm/arm-none-eabi/include/locale.h"
 3270              		.file 77 "eurorack/stmlib/stmlib.h"
 3271              		.file 78 "eurorack/plaits/dsp/dsp.h"
 3272              		.file 79 "eurorack/plaits/dsp/engine/additive_engine.h"
 3273              		.file 80 "eurorack/plaits/dsp/oscillator/oscillator.h"
 3274              		.file 81 "eurorack/plaits/dsp/engine/chord_engine.h"
 3275              		.file 82 "eurorack/plaits/dsp/physical_modelling/resonator.h"
 3276              		.file 83 "eurorack/plaits/dsp/engine/particle_engine.h"
 3277              		.file 84 "eurorack/plaits/dsp/physical_modelling/string.h"
 3278              		.file 85 "eurorack/plaits/dsp/engine/string_engine.h"
 3279              		.file 86 "eurorack/plaits/dsp/engine/swarm_engine.h"
 3280              		.file 87 "eurorack/plaits/dsp/oscillator/variable_saw_oscillator.h"
 3281              		.file 88 "eurorack/plaits/dsp/voice.h"
 3282              		.file 89 "<built-in>"
 3283              		.file 90 "Thaumazein.h"
 3284              		.file 91 "lib/libdaisy/src/dev/sr_595.h"
ARM GAS  /var/folders/9s/8rp0_f2s1n31qbztm3b5_fdh0000gn/T//ccWYl2xP.s 			page 126


DEFINED SYMBOLS
                            *ABS*:0000000000000000 Interface.cpp
/var/folders/9s/8rp0_f2s1n31qbztm3b5_fdh0000gn/T//ccWYl2xP.s:19     .text._ZN5daisy6SwitchD2Ev:0000000000000000 $t
/var/folders/9s/8rp0_f2s1n31qbztm3b5_fdh0000gn/T//ccWYl2xP.s:25     .text._ZN5daisy6SwitchD2Ev:0000000000000000 _ZN5daisy6SwitchD2Ev
/var/folders/9s/8rp0_f2s1n31qbztm3b5_fdh0000gn/T//ccWYl2xP.s:25     .text._ZN5daisy6SwitchD2Ev:0000000000000000 _ZN5daisy6SwitchD1Ev
/var/folders/9s/8rp0_f2s1n31qbztm3b5_fdh0000gn/T//ccWYl2xP.s:42     .text._ZN5daisy13AnalogControlD2Ev:0000000000000000 $t
/var/folders/9s/8rp0_f2s1n31qbztm3b5_fdh0000gn/T//ccWYl2xP.s:48     .text._ZN5daisy13AnalogControlD2Ev:0000000000000000 _ZN5daisy13AnalogControlD2Ev
/var/folders/9s/8rp0_f2s1n31qbztm3b5_fdh0000gn/T//ccWYl2xP.s:48     .text._ZN5daisy13AnalogControlD2Ev:0000000000000000 _ZN5daisy13AnalogControlD1Ev
/var/folders/9s/8rp0_f2s1n31qbztm3b5_fdh0000gn/T//ccWYl2xP.s:65     .text._ZN5daisy9DaisySeedD2Ev:0000000000000000 $t
/var/folders/9s/8rp0_f2s1n31qbztm3b5_fdh0000gn/T//ccWYl2xP.s:71     .text._ZN5daisy9DaisySeedD2Ev:0000000000000000 _ZN5daisy9DaisySeedD2Ev
/var/folders/9s/8rp0_f2s1n31qbztm3b5_fdh0000gn/T//ccWYl2xP.s:71     .text._ZN5daisy9DaisySeedD2Ev:0000000000000000 _ZN5daisy9DaisySeedD1Ev
/var/folders/9s/8rp0_f2s1n31qbztm3b5_fdh0000gn/T//ccWYl2xP.s:112    .text._ZN6Mpr121D2Ev:0000000000000000 $t
/var/folders/9s/8rp0_f2s1n31qbztm3b5_fdh0000gn/T//ccWYl2xP.s:118    .text._ZN6Mpr121D2Ev:0000000000000000 _ZN6Mpr121D2Ev
/var/folders/9s/8rp0_f2s1n31qbztm3b5_fdh0000gn/T//ccWYl2xP.s:118    .text._ZN6Mpr121D2Ev:0000000000000000 _ZN6Mpr121D1Ev
/var/folders/9s/8rp0_f2s1n31qbztm3b5_fdh0000gn/T//ccWYl2xP.s:135    .text.__tcf_0:0000000000000000 $t
/var/folders/9s/8rp0_f2s1n31qbztm3b5_fdh0000gn/T//ccWYl2xP.s:140    .text.__tcf_0:0000000000000000 __tcf_0
/var/folders/9s/8rp0_f2s1n31qbztm3b5_fdh0000gn/T//ccWYl2xP.s:154    .text._ZN10infrasonic9EchoDelayILj48000EED2Ev:0000000000000000 $t
/var/folders/9s/8rp0_f2s1n31qbztm3b5_fdh0000gn/T//ccWYl2xP.s:160    .text._ZN10infrasonic9EchoDelayILj48000EED2Ev:0000000000000000 _ZN10infrasonic9EchoDelayILj48000EED2Ev
/var/folders/9s/8rp0_f2s1n31qbztm3b5_fdh0000gn/T//ccWYl2xP.s:160    .text._ZN10infrasonic9EchoDelayILj48000EED2Ev:0000000000000000 _ZN10infrasonic9EchoDelayILj48000EED1Ev
/var/folders/9s/8rp0_f2s1n31qbztm3b5_fdh0000gn/T//ccWYl2xP.s:194    .text._ZNSt17_Function_handlerIFviEZ15InitializeSynthvEUliE_E10_M_managerERSt9_Any_dataRKS3_St18_Manager_operation:0000000000000000 $t
/var/folders/9s/8rp0_f2s1n31qbztm3b5_fdh0000gn/T//ccWYl2xP.s:199    .text._ZNSt17_Function_handlerIFviEZ15InitializeSynthvEUliE_E10_M_managerERSt9_Any_dataRKS3_St18_Manager_operation:0000000000000000 _ZNSt17_Function_handlerIFviEZ15InitializeSynthvEUliE_E10_M_managerERSt9_Any_dataRKS3_St18_Manager_operation
/var/folders/9s/8rp0_f2s1n31qbztm3b5_fdh0000gn/T//ccWYl2xP.s:254    .text._ZNSt17_Function_handlerIFviEZ15InitializeSynthvEUliE_E10_M_managerERSt9_Any_dataRKS3_St18_Manager_operation:0000000000000014 $d
/var/folders/9s/8rp0_f2s1n31qbztm3b5_fdh0000gn/T//ccWYl2xP.s:259    .text._ZNSt17_Function_handlerIFviEZ15InitializeSynthvEUliE_E9_M_invokeERKSt9_Any_dataOi:0000000000000000 $t
/var/folders/9s/8rp0_f2s1n31qbztm3b5_fdh0000gn/T//ccWYl2xP.s:264    .text._ZNSt17_Function_handlerIFviEZ15InitializeSynthvEUliE_E9_M_invokeERKSt9_Any_dataOi:0000000000000000 _ZNSt17_Function_handlerIFviEZ15InitializeSynthvEUliE_E9_M_invokeERKSt9_Any_dataOi
/var/folders/9s/8rp0_f2s1n31qbztm3b5_fdh0000gn/T//ccWYl2xP.s:472    .text._ZNSt17_Function_handlerIFviEZ15InitializeSynthvEUliE_E9_M_invokeERKSt9_Any_dataOi:000000000000008c $d
/var/folders/9s/8rp0_f2s1n31qbztm3b5_fdh0000gn/T//ccWYl2xP.s:492    .text._ZNSt14_Function_baseD2Ev:0000000000000000 $t
/var/folders/9s/8rp0_f2s1n31qbztm3b5_fdh0000gn/T//ccWYl2xP.s:498    .text._ZNSt14_Function_baseD2Ev:0000000000000000 _ZNSt14_Function_baseD2Ev
/var/folders/9s/8rp0_f2s1n31qbztm3b5_fdh0000gn/T//ccWYl2xP.s:498    .text._ZNSt14_Function_baseD2Ev:0000000000000000 _ZNSt14_Function_baseD1Ev
/var/folders/9s/8rp0_f2s1n31qbztm3b5_fdh0000gn/T//ccWYl2xP.s:539    .text._ZN11ArpeggiatorD2Ev:0000000000000000 $t
/var/folders/9s/8rp0_f2s1n31qbztm3b5_fdh0000gn/T//ccWYl2xP.s:545    .text._ZN11ArpeggiatorD2Ev:0000000000000000 _ZN11ArpeggiatorD2Ev
/var/folders/9s/8rp0_f2s1n31qbztm3b5_fdh0000gn/T//ccWYl2xP.s:545    .text._ZN11ArpeggiatorD2Ev:0000000000000000 _ZN11ArpeggiatorD1Ev
/var/folders/9s/8rp0_f2s1n31qbztm3b5_fdh0000gn/T//ccWYl2xP.s:591    .text._Z18InitializeHardwarev:0000000000000000 $t
/var/folders/9s/8rp0_f2s1n31qbztm3b5_fdh0000gn/T//ccWYl2xP.s:597    .text._Z18InitializeHardwarev:0000000000000000 _Z18InitializeHardwarev
/var/folders/9s/8rp0_f2s1n31qbztm3b5_fdh0000gn/T//ccWYl2xP.s:653    .text._Z18InitializeHardwarev:0000000000000038 $d
/var/folders/9s/8rp0_f2s1n31qbztm3b5_fdh0000gn/T//ccWYl2xP.s:659    .text._Z18InitializeControlsv:0000000000000000 $t
/var/folders/9s/8rp0_f2s1n31qbztm3b5_fdh0000gn/T//ccWYl2xP.s:665    .text._Z18InitializeControlsv:0000000000000000 _Z18InitializeControlsv
/var/folders/9s/8rp0_f2s1n31qbztm3b5_fdh0000gn/T//ccWYl2xP.s:1017   .text._Z18InitializeControlsv:0000000000000284 $d
/var/folders/9s/8rp0_f2s1n31qbztm3b5_fdh0000gn/T//ccWYl2xP.s:1038   .text._Z21InitializeTouchSensorv:0000000000000000 $t
/var/folders/9s/8rp0_f2s1n31qbztm3b5_fdh0000gn/T//ccWYl2xP.s:1044   .text._Z21InitializeTouchSensorv:0000000000000000 _Z21InitializeTouchSensorv
/var/folders/9s/8rp0_f2s1n31qbztm3b5_fdh0000gn/T//ccWYl2xP.s:1173   .text._Z21InitializeTouchSensorv:0000000000000060 $d
/var/folders/9s/8rp0_f2s1n31qbztm3b5_fdh0000gn/T//ccWYl2xP.s:1180   .text._Z19InitializeTouchLEDsv:0000000000000000 $t
/var/folders/9s/8rp0_f2s1n31qbztm3b5_fdh0000gn/T//ccWYl2xP.s:1186   .text._Z19InitializeTouchLEDsv:0000000000000000 _Z19InitializeTouchLEDsv
/var/folders/9s/8rp0_f2s1n31qbztm3b5_fdh0000gn/T//ccWYl2xP.s:1303   .text._Z19InitializeTouchLEDsv:0000000000000058 $d
/var/folders/9s/8rp0_f2s1n31qbztm3b5_fdh0000gn/T//ccWYl2xP.s:1313   .text._Z8Bootloadv:0000000000000000 $t
/var/folders/9s/8rp0_f2s1n31qbztm3b5_fdh0000gn/T//ccWYl2xP.s:1319   .text._Z8Bootloadv:0000000000000000 _Z8Bootloadv
/var/folders/9s/8rp0_f2s1n31qbztm3b5_fdh0000gn/T//ccWYl2xP.s:1438   .text._Z8Bootloadv:0000000000000074 $d
/var/folders/9s/8rp0_f2s1n31qbztm3b5_fdh0000gn/T//ccWYl2xP.s:1447   .text._Z9UpdateLEDv:0000000000000000 $t
/var/folders/9s/8rp0_f2s1n31qbztm3b5_fdh0000gn/T//ccWYl2xP.s:1453   .text._Z9UpdateLEDv:0000000000000000 _Z9UpdateLEDv
/var/folders/9s/8rp0_f2s1n31qbztm3b5_fdh0000gn/T//ccWYl2xP.s:1521   .text._Z9UpdateLEDv:0000000000000038 $d
/var/folders/9s/8rp0_f2s1n31qbztm3b5_fdh0000gn/T//ccWYl2xP.s:1527   .text._ZN10infrasonic13BiquadCascadeILj1ELNS_13BiquadSection10FilterTypeE2EE18updateCoefficientsEv:0000000000000000 $t
/var/folders/9s/8rp0_f2s1n31qbztm3b5_fdh0000gn/T//ccWYl2xP.s:1533   .text._ZN10infrasonic13BiquadCascadeILj1ELNS_13BiquadSection10FilterTypeE2EE18updateCoefficientsEv:0000000000000000 _ZN10infrasonic13BiquadCascadeILj1ELNS_13BiquadSection10FilterTypeE2EE18updateCoefficientsEv
/var/folders/9s/8rp0_f2s1n31qbztm3b5_fdh0000gn/T//ccWYl2xP.s:1611   .text._Z15InitializeDelayv:0000000000000000 $t
/var/folders/9s/8rp0_f2s1n31qbztm3b5_fdh0000gn/T//ccWYl2xP.s:1617   .text._Z15InitializeDelayv:0000000000000000 _Z15InitializeDelayv
/var/folders/9s/8rp0_f2s1n31qbztm3b5_fdh0000gn/T//ccWYl2xP.s:2016   .text._Z15InitializeDelayv:00000000000000b4 $d
/var/folders/9s/8rp0_f2s1n31qbztm3b5_fdh0000gn/T//ccWYl2xP.s:3065   .bss.delay:0000000000000000 delay
/var/folders/9s/8rp0_f2s1n31qbztm3b5_fdh0000gn/T//ccWYl2xP.s:2043   .text._Z15InitializeSynthv:0000000000000000 $t
/var/folders/9s/8rp0_f2s1n31qbztm3b5_fdh0000gn/T//ccWYl2xP.s:2049   .text._Z15InitializeSynthv:0000000000000000 _Z15InitializeSynthv
ARM GAS  /var/folders/9s/8rp0_f2s1n31qbztm3b5_fdh0000gn/T//ccWYl2xP.s 			page 127


/var/folders/9s/8rp0_f2s1n31qbztm3b5_fdh0000gn/T//ccWYl2xP.s:2414   .text._Z15InitializeSynthv:000000000000010c $d
/var/folders/9s/8rp0_f2s1n31qbztm3b5_fdh0000gn/T//ccWYl2xP.s:2436   .text.startup._GLOBAL__sub_I_hw:0000000000000000 $t
/var/folders/9s/8rp0_f2s1n31qbztm3b5_fdh0000gn/T//ccWYl2xP.s:2441   .text.startup._GLOBAL__sub_I_hw:0000000000000000 _GLOBAL__sub_I_hw
/var/folders/9s/8rp0_f2s1n31qbztm3b5_fdh0000gn/T//ccWYl2xP.s:2921   .text.startup._GLOBAL__sub_I_hw:0000000000000100 $d
/var/folders/9s/8rp0_f2s1n31qbztm3b5_fdh0000gn/T//ccWYl2xP.s:2952   .init_array:0000000000000000 $d
/var/folders/9s/8rp0_f2s1n31qbztm3b5_fdh0000gn/T//ccWYl2xP.s:3059   .bss.button_was_pressed:0000000000000000 button_was_pressed
/var/folders/9s/8rp0_f2s1n31qbztm3b5_fdh0000gn/T//ccWYl2xP.s:3054   .bss.button_held_start_time:0000000000000000 button_held_start_time
/var/folders/9s/8rp0_f2s1n31qbztm3b5_fdh0000gn/T//ccWYl2xP.s:3205   .rodata.BOOTLOADER_HOLD_TIME_MS:0000000000000000 BOOTLOADER_HOLD_TIME_MS
/var/folders/9s/8rp0_f2s1n31qbztm3b5_fdh0000gn/T//ccWYl2xP.s:3160   .bss.smoothed_output_level:0000000000000000 smoothed_output_level
/var/folders/9s/8rp0_f2s1n31qbztm3b5_fdh0000gn/T//ccWYl2xP.s:3186   .bss.update_display:0000000000000000 update_display
/var/folders/9s/8rp0_f2s1n31qbztm3b5_fdh0000gn/T//ccWYl2xP.s:3041   .bss.avg_elapsed_us:0000000000000000 avg_elapsed_us
/var/folders/9s/8rp0_f2s1n31qbztm3b5_fdh0000gn/T//ccWYl2xP.s:3193   .data.sample_rate:0000000000000000 sample_rate
/var/folders/9s/8rp0_f2s1n31qbztm3b5_fdh0000gn/T//ccWYl2xP.s:3114   .bss.mod_wheel:0000000000000000 mod_wheel
/var/folders/9s/8rp0_f2s1n31qbztm3b5_fdh0000gn/T//ccWYl2xP.s:3121   .bss.model_next_pad:0000000000000000 model_next_pad
/var/folders/9s/8rp0_f2s1n31qbztm3b5_fdh0000gn/T//ccWYl2xP.s:3128   .bss.model_prev_pad:0000000000000000 model_prev_pad
/var/folders/9s/8rp0_f2s1n31qbztm3b5_fdh0000gn/T//ccWYl2xP.s:3035   .bss.arp_pad:0000000000000000 arp_pad
/var/folders/9s/8rp0_f2s1n31qbztm3b5_fdh0000gn/T//ccWYl2xP.s:3154   .bss.pitch_knob:0000000000000000 pitch_knob
/var/folders/9s/8rp0_f2s1n31qbztm3b5_fdh0000gn/T//ccWYl2xP.s:3135   .bss.morph_knob:0000000000000000 morph_knob
/var/folders/9s/8rp0_f2s1n31qbztm3b5_fdh0000gn/T//ccWYl2xP.s:3100   .bss.harmonics_knob:0000000000000000 harmonics_knob
/var/folders/9s/8rp0_f2s1n31qbztm3b5_fdh0000gn/T//ccWYl2xP.s:3167   .bss.timbre_knob:0000000000000000 timbre_knob
/var/folders/9s/8rp0_f2s1n31qbztm3b5_fdh0000gn/T//ccWYl2xP.s:3086   .bss.env_attack_knob:0000000000000000 env_attack_knob
/var/folders/9s/8rp0_f2s1n31qbztm3b5_fdh0000gn/T//ccWYl2xP.s:3093   .bss.env_release_knob:0000000000000000 env_release_knob
/var/folders/9s/8rp0_f2s1n31qbztm3b5_fdh0000gn/T//ccWYl2xP.s:3072   .bss.delay_mix_feedback_knob:0000000000000000 delay_mix_feedback_knob
/var/folders/9s/8rp0_f2s1n31qbztm3b5_fdh0000gn/T//ccWYl2xP.s:3079   .bss.delay_time_knob:0000000000000000 delay_time_knob
/var/folders/9s/8rp0_f2s1n31qbztm3b5_fdh0000gn/T//ccWYl2xP.s:3048   .bss.button:0000000000000000 button
/var/folders/9s/8rp0_f2s1n31qbztm3b5_fdh0000gn/T//ccWYl2xP.s:3147   .bss.pad_led_prev_quant:0000000000000000 pad_led_prev_quant
/var/folders/9s/8rp0_f2s1n31qbztm3b5_fdh0000gn/T//ccWYl2xP.s:3141   .bss.pad_led_levels:0000000000000000 pad_led_levels
/var/folders/9s/8rp0_f2s1n31qbztm3b5_fdh0000gn/T//ccWYl2xP.s:3199   .rodata.ARP_LED_DURATION_MS:0000000000000000 ARP_LED_DURATION_MS
/var/folders/9s/8rp0_f2s1n31qbztm3b5_fdh0000gn/T//ccWYl2xP.s:3028   .bss.arp_led_timestamps:0000000000000000 arp_led_timestamps
/var/folders/9s/8rp0_f2s1n31qbztm3b5_fdh0000gn/T//ccWYl2xP.s:3174   .bss.touch_leds:0000000000000000 touch_leds
/var/folders/9s/8rp0_f2s1n31qbztm3b5_fdh0000gn/T//ccWYl2xP.s:3021   .bss.arp:0000000000000000 arp
/var/folders/9s/8rp0_f2s1n31qbztm3b5_fdh0000gn/T//ccWYl2xP.s:3181   .bss.touch_sensor:0000000000000000 touch_sensor
/var/folders/9s/8rp0_f2s1n31qbztm3b5_fdh0000gn/T//ccWYl2xP.s:3107   .bss.hw:0000000000000000 hw
/var/folders/9s/8rp0_f2s1n31qbztm3b5_fdh0000gn/T//ccWYl2xP.s:3017   .bss.arp:0000000000000000 $d
/var/folders/9s/8rp0_f2s1n31qbztm3b5_fdh0000gn/T//ccWYl2xP.s:3024   .bss.arp_led_timestamps:0000000000000000 $d
/var/folders/9s/8rp0_f2s1n31qbztm3b5_fdh0000gn/T//ccWYl2xP.s:3031   .bss.arp_pad:0000000000000000 $d
/var/folders/9s/8rp0_f2s1n31qbztm3b5_fdh0000gn/T//ccWYl2xP.s:3038   .bss.avg_elapsed_us:0000000000000000 $d
/var/folders/9s/8rp0_f2s1n31qbztm3b5_fdh0000gn/T//ccWYl2xP.s:3044   .bss.button:0000000000000000 $d
/var/folders/9s/8rp0_f2s1n31qbztm3b5_fdh0000gn/T//ccWYl2xP.s:3051   .bss.button_held_start_time:0000000000000000 $d
/var/folders/9s/8rp0_f2s1n31qbztm3b5_fdh0000gn/T//ccWYl2xP.s:3060   .bss.button_was_pressed:0000000000000000 $d
/var/folders/9s/8rp0_f2s1n31qbztm3b5_fdh0000gn/T//ccWYl2xP.s:3062   .bss.delay:0000000000000000 $d
/var/folders/9s/8rp0_f2s1n31qbztm3b5_fdh0000gn/T//ccWYl2xP.s:3068   .bss.delay_mix_feedback_knob:0000000000000000 $d
/var/folders/9s/8rp0_f2s1n31qbztm3b5_fdh0000gn/T//ccWYl2xP.s:3075   .bss.delay_time_knob:0000000000000000 $d
/var/folders/9s/8rp0_f2s1n31qbztm3b5_fdh0000gn/T//ccWYl2xP.s:3082   .bss.env_attack_knob:0000000000000000 $d
/var/folders/9s/8rp0_f2s1n31qbztm3b5_fdh0000gn/T//ccWYl2xP.s:3089   .bss.env_release_knob:0000000000000000 $d
/var/folders/9s/8rp0_f2s1n31qbztm3b5_fdh0000gn/T//ccWYl2xP.s:3096   .bss.harmonics_knob:0000000000000000 $d
/var/folders/9s/8rp0_f2s1n31qbztm3b5_fdh0000gn/T//ccWYl2xP.s:3103   .bss.hw:0000000000000000 $d
/var/folders/9s/8rp0_f2s1n31qbztm3b5_fdh0000gn/T//ccWYl2xP.s:3110   .bss.mod_wheel:0000000000000000 $d
/var/folders/9s/8rp0_f2s1n31qbztm3b5_fdh0000gn/T//ccWYl2xP.s:3117   .bss.model_next_pad:0000000000000000 $d
/var/folders/9s/8rp0_f2s1n31qbztm3b5_fdh0000gn/T//ccWYl2xP.s:3124   .bss.model_prev_pad:0000000000000000 $d
/var/folders/9s/8rp0_f2s1n31qbztm3b5_fdh0000gn/T//ccWYl2xP.s:3131   .bss.morph_knob:0000000000000000 $d
/var/folders/9s/8rp0_f2s1n31qbztm3b5_fdh0000gn/T//ccWYl2xP.s:3138   .bss.pad_led_levels:0000000000000000 $d
/var/folders/9s/8rp0_f2s1n31qbztm3b5_fdh0000gn/T//ccWYl2xP.s:3144   .bss.pad_led_prev_quant:0000000000000000 $d
/var/folders/9s/8rp0_f2s1n31qbztm3b5_fdh0000gn/T//ccWYl2xP.s:3150   .bss.pitch_knob:0000000000000000 $d
/var/folders/9s/8rp0_f2s1n31qbztm3b5_fdh0000gn/T//ccWYl2xP.s:3157   .bss.smoothed_output_level:0000000000000000 $d
/var/folders/9s/8rp0_f2s1n31qbztm3b5_fdh0000gn/T//ccWYl2xP.s:3163   .bss.timbre_knob:0000000000000000 $d
/var/folders/9s/8rp0_f2s1n31qbztm3b5_fdh0000gn/T//ccWYl2xP.s:3170   .bss.touch_leds:0000000000000000 $d
ARM GAS  /var/folders/9s/8rp0_f2s1n31qbztm3b5_fdh0000gn/T//ccWYl2xP.s 			page 128


/var/folders/9s/8rp0_f2s1n31qbztm3b5_fdh0000gn/T//ccWYl2xP.s:3177   .bss.touch_sensor:0000000000000000 $d
/var/folders/9s/8rp0_f2s1n31qbztm3b5_fdh0000gn/T//ccWYl2xP.s:3187   .bss.update_display:0000000000000000 $d
/var/folders/9s/8rp0_f2s1n31qbztm3b5_fdh0000gn/T//ccWYl2xP.s:3189   .data.sample_rate:0000000000000000 $d
/var/folders/9s/8rp0_f2s1n31qbztm3b5_fdh0000gn/T//ccWYl2xP.s:3196   .rodata.ARP_LED_DURATION_MS:0000000000000000 $d
/var/folders/9s/8rp0_f2s1n31qbztm3b5_fdh0000gn/T//ccWYl2xP.s:3202   .rodata.BOOTLOADER_HOLD_TIME_MS:0000000000000000 $d
/var/folders/9s/8rp0_f2s1n31qbztm3b5_fdh0000gn/T//ccWYl2xP.s:3208   .rodata._ZTIZ15InitializeSynthvEUliE_:0000000000000000 $d
/var/folders/9s/8rp0_f2s1n31qbztm3b5_fdh0000gn/T//ccWYl2xP.s:3212   .rodata._ZTIZ15InitializeSynthvEUliE_:0000000000000000 _ZTIZ15InitializeSynthvEUliE_
/var/folders/9s/8rp0_f2s1n31qbztm3b5_fdh0000gn/T//ccWYl2xP.s:3218   .rodata._ZTSZ15InitializeSynthvEUliE_:0000000000000000 _ZTSZ15InitializeSynthvEUliE_
                           .group:0000000000000000 _ZN5daisy6SwitchD5Ev
                           .group:0000000000000000 _ZN5daisy13AnalogControlD5Ev
                           .group:0000000000000000 _ZN5daisy9DaisySeedD5Ev
                           .group:0000000000000000 _ZN6Mpr121D5Ev
                           .group:0000000000000000 _ZN10infrasonic9EchoDelayILj48000EED5Ev
                           .group:0000000000000000 _ZNSt14_Function_baseD5Ev
                           .group:0000000000000000 _ZN11ArpeggiatorD5Ev

UNDEFINED SYMBOLS
_ZN5daisy6System6GetNowEv
voice_envelopes
kTouchMidiNotes
voice_note
voice_active
current_engine_index
modulations
_ZN5daisy9DaisySeed9ConfigureEv
_ZN5daisy9DaisySeed4InitEb
_ZN5daisy9DaisySeed17SetAudioBlockSizeEj
_ZN5daisy9DaisySeed15AudioSampleRateEv
_ZN5daisy9DaisySeed18SetAudioSampleRateENS_9SaiHandle6Config10SampleRateE
_ZN5daisy9DaisySeed6GetPinEh
_ZN5daisy16AdcChannelConfig10InitSingleE12dsy_gpio_pin
_ZN5daisy9AdcHandle4InitEPNS_16AdcChannelConfigEjNS0_12OverSamplingE
_ZN5daisy9AdcHandle5StartEv
_ZNK5daisy9AdcHandle6GetPtrEh
_ZN5daisy13AnalogControl4InitEPtfbbf
_ZN5daisy6Switch4InitE12dsy_gpio_pinf
_ZN6Mpr1214InitERKNS_6ConfigE
_ZN5daisy9DaisySeed6SetLedEb
_ZN5daisy6System5DelayEm
_ZN6Mpr12113SetThresholdsEhh
_ZN5daisy3Led4InitE12dsy_gpio_pinbf
_ZN5daisy3Led3SetEf
_ZN5daisy6LoggerILNS_17LoggerDestinationE1EE9PrintLineEPKcz
_ZN5daisy6System17ResetToBootloaderEv
_ZN10infrasonic13BiquadSection21CalculateCoefficientsENS0_10FilterTypeEfff
memset
_Z16InitializeVoicesv
_ZN5daisy6System11GetTickFreqEv
_ZN11Arpeggiator4InitEf
_ZN11Arpeggiator12SetMainTempoEf
_ZN11Arpeggiator22SetNoteTriggerCallbackESt8functionIFviEE
_ZN5daisy9DaisySeed10StartAudioEPFvPKfPfjE
_ZN5daisy6LoggerILNS_17LoggerDestinationE1EE8StartLogEb
sprintf
cpu_meter
_Z13AudioCallbackPKfPfj
MAX_ENGINE_INDEX
ARM GAS  /var/folders/9s/8rp0_f2s1n31qbztm3b5_fdh0000gn/T//ccWYl2xP.s 			page 129


__aeabi_atexit
_ZN11ArpeggiatorC1Ev
__dso_handle
_ZTVN10__cxxabiv117__class_type_infoE
