ARM GAS  /var/folders/9s/8rp0_f2s1n31qbztm3b5_fdh0000gn/T//ccSMtkyz.s 			page 1


   1              		.cpu cortex-m7
   2              		.arch armv7e-m
   3              		.fpu fpv5-d16
   4              		.eabi_attribute 28, 1
   5              		.eabi_attribute 20, 1
   6              		.eabi_attribute 21, 1
   7              		.eabi_attribute 23, 3
   8              		.eabi_attribute 24, 1
   9              		.eabi_attribute 25, 1
  10              		.eabi_attribute 26, 1
  11              		.eabi_attribute 30, 4
  12              		.eabi_attribute 34, 1
  13              		.eabi_attribute 18, 4
  14              		.file	"Interface.cpp"
  15              		.text
  16              	.Ltext0:
  17              		.cfi_sections	.debug_frame
  18              		.section	.text._ZN5daisy6SwitchD2Ev,"axG",%progbits,_ZN5daisy6SwitchD5Ev,comdat
  19              		.align	1
  20              		.weak	_ZN5daisy6SwitchD2Ev
  21              		.syntax unified
  22              		.thumb
  23              		.thumb_func
  25              	_ZN5daisy6SwitchD2Ev:
  26              	.LVL0:
  27              	.LFB1567:
  28              		.file 1 "lib/libdaisy/src/hid/switch.h"
   1:lib/libdaisy/src/hid/switch.h **** #pragma once
   2:lib/libdaisy/src/hid/switch.h **** #ifndef DSY_SWITCH_H
   3:lib/libdaisy/src/hid/switch.h **** #define DSY_SWITCH_H
   4:lib/libdaisy/src/hid/switch.h **** #include "daisy_core.h"
   5:lib/libdaisy/src/hid/switch.h **** #include "per/gpio.h"
   6:lib/libdaisy/src/hid/switch.h **** #include "sys/system.h"
   7:lib/libdaisy/src/hid/switch.h **** 
   8:lib/libdaisy/src/hid/switch.h **** namespace daisy
   9:lib/libdaisy/src/hid/switch.h **** {
  10:lib/libdaisy/src/hid/switch.h **** /** 
  11:lib/libdaisy/src/hid/switch.h ****     Generic Class for handling momentary/latching switches \n 
  12:lib/libdaisy/src/hid/switch.h ****     Inspired/influenced by Mutable Instruments (pichenettes) Switch classes
  13:lib/libdaisy/src/hid/switch.h ****     @author Stephen Hensley
  14:lib/libdaisy/src/hid/switch.h ****     @date December 2019
  15:lib/libdaisy/src/hid/switch.h ****     @ingroup controls
  16:lib/libdaisy/src/hid/switch.h **** */
  17:lib/libdaisy/src/hid/switch.h **** class Switch
  18:lib/libdaisy/src/hid/switch.h **** {
  19:lib/libdaisy/src/hid/switch.h ****   public:
  20:lib/libdaisy/src/hid/switch.h ****     /** Specifies the expected behavior of the switch */
  21:lib/libdaisy/src/hid/switch.h ****     enum Type
  22:lib/libdaisy/src/hid/switch.h ****     {
  23:lib/libdaisy/src/hid/switch.h ****         TYPE_TOGGLE,    /**< & */
  24:lib/libdaisy/src/hid/switch.h ****         TYPE_MOMENTARY, /**< & */
  25:lib/libdaisy/src/hid/switch.h ****     };
  26:lib/libdaisy/src/hid/switch.h ****     /** Specifies whether the pressed is HIGH or LOW. */
  27:lib/libdaisy/src/hid/switch.h ****     enum Polarity
  28:lib/libdaisy/src/hid/switch.h ****     {
  29:lib/libdaisy/src/hid/switch.h ****         POLARITY_NORMAL,   /**< & */
  30:lib/libdaisy/src/hid/switch.h ****         POLARITY_INVERTED, /**< & */
ARM GAS  /var/folders/9s/8rp0_f2s1n31qbztm3b5_fdh0000gn/T//ccSMtkyz.s 			page 2


  31:lib/libdaisy/src/hid/switch.h ****     };
  32:lib/libdaisy/src/hid/switch.h **** 
  33:lib/libdaisy/src/hid/switch.h ****     /** Specifies whether to use built-in Pull Up/Down resistors to hold button at a given state wh
  34:lib/libdaisy/src/hid/switch.h ****     enum Pull
  35:lib/libdaisy/src/hid/switch.h ****     {
  36:lib/libdaisy/src/hid/switch.h ****         PULL_UP,   /**< & */
  37:lib/libdaisy/src/hid/switch.h ****         PULL_DOWN, /**< & */
  38:lib/libdaisy/src/hid/switch.h ****         PULL_NONE, /**< & */
  39:lib/libdaisy/src/hid/switch.h ****     };
  40:lib/libdaisy/src/hid/switch.h **** 
  41:lib/libdaisy/src/hid/switch.h ****     Switch() {}
  42:lib/libdaisy/src/hid/switch.h ****     ~Switch() {}
  29              		.loc 1 42 5 view -0
  30              		.cfi_startproc
  31              		@ args = 0, pretend = 0, frame = 0
  32              		@ frame_needed = 0, uses_anonymous_args = 0
  33              		@ link register save eliminated.
  34              		.loc 1 42 16 is_stmt 0 view .LVU1
  35 0000 7047     		bx	lr
  36              		.cfi_endproc
  37              	.LFE1567:
  39              		.weak	_ZN5daisy6SwitchD1Ev
  40              		.thumb_set _ZN5daisy6SwitchD1Ev,_ZN5daisy6SwitchD2Ev
  41              		.section	.text._ZN5daisy13AnalogControlD2Ev,"axG",%progbits,_ZN5daisy13AnalogControlD5Ev,comdat
  42              		.align	1
  43              		.weak	_ZN5daisy13AnalogControlD2Ev
  44              		.syntax unified
  45              		.thumb
  46              		.thumb_func
  48              	_ZN5daisy13AnalogControlD2Ev:
  49              	.LVL1:
  50              	.LFB1599:
  51              		.file 2 "lib/libdaisy/src/hid/ctrl.h"
   1:lib/libdaisy/src/hid/ctrl.h **** #pragma once
   2:lib/libdaisy/src/hid/ctrl.h **** #ifndef DSY_KNOB_H
   3:lib/libdaisy/src/hid/ctrl.h **** #define DSY_KNOB_H /**< & */
   4:lib/libdaisy/src/hid/ctrl.h **** #include <stdint.h>
   5:lib/libdaisy/src/hid/ctrl.h **** 
   6:lib/libdaisy/src/hid/ctrl.h **** #ifdef __cplusplus
   7:lib/libdaisy/src/hid/ctrl.h **** namespace daisy
   8:lib/libdaisy/src/hid/ctrl.h **** {
   9:lib/libdaisy/src/hid/ctrl.h **** /**
  10:lib/libdaisy/src/hid/ctrl.h ****     @brief Hardware Interface for control inputs \n 
  11:lib/libdaisy/src/hid/ctrl.h ****     Primarily designed for ADC input controls such as \n 
  12:lib/libdaisy/src/hid/ctrl.h ****     potentiometers, and control voltage. \n 
  13:lib/libdaisy/src/hid/ctrl.h ****     @author Stephen Hensley
  14:lib/libdaisy/src/hid/ctrl.h ****     @date November 2019
  15:lib/libdaisy/src/hid/ctrl.h ****     @ingroup controls
  16:lib/libdaisy/src/hid/ctrl.h **** */
  17:lib/libdaisy/src/hid/ctrl.h **** class AnalogControl
  18:lib/libdaisy/src/hid/ctrl.h **** {
  19:lib/libdaisy/src/hid/ctrl.h ****   public:
  20:lib/libdaisy/src/hid/ctrl.h ****     /** Constructor */
  21:lib/libdaisy/src/hid/ctrl.h ****     AnalogControl() {}
  22:lib/libdaisy/src/hid/ctrl.h ****     /** destructor */
  23:lib/libdaisy/src/hid/ctrl.h ****     ~AnalogControl() {}
  52              		.loc 2 23 5 is_stmt 1 view -0
ARM GAS  /var/folders/9s/8rp0_f2s1n31qbztm3b5_fdh0000gn/T//ccSMtkyz.s 			page 3


  53              		.cfi_startproc
  54              		@ args = 0, pretend = 0, frame = 0
  55              		@ frame_needed = 0, uses_anonymous_args = 0
  56              		@ link register save eliminated.
  57              		.loc 2 23 23 is_stmt 0 view .LVU3
  58 0000 7047     		bx	lr
  59              		.cfi_endproc
  60              	.LFE1599:
  62              		.weak	_ZN5daisy13AnalogControlD1Ev
  63              		.thumb_set _ZN5daisy13AnalogControlD1Ev,_ZN5daisy13AnalogControlD2Ev
  64              		.section	.text._ZN5daisy9DaisySeedD2Ev,"axG",%progbits,_ZN5daisy9DaisySeedD5Ev,comdat
  65              		.align	1
  66              		.weak	_ZN5daisy9DaisySeedD2Ev
  67              		.syntax unified
  68              		.thumb
  69              		.thumb_func
  71              	_ZN5daisy9DaisySeedD2Ev:
  72              	.LVL2:
  73              	.LFB2146:
  74              		.file 3 "lib/libdaisy/src/daisy_seed.h"
   1:lib/libdaisy/src/daisy_seed.h **** #pragma once
   2:lib/libdaisy/src/daisy_seed.h **** #ifndef DSY_SEED_H
   3:lib/libdaisy/src/daisy_seed.h **** #define DSY_SEED_H
   4:lib/libdaisy/src/daisy_seed.h **** 
   5:lib/libdaisy/src/daisy_seed.h **** #include "daisy.h"
   6:lib/libdaisy/src/daisy_seed.h **** 
   7:lib/libdaisy/src/daisy_seed.h **** //Uncomment this out if you're still using the rev2 hardware
   8:lib/libdaisy/src/daisy_seed.h **** //#define SEED_REV2
   9:lib/libdaisy/src/daisy_seed.h **** 
  10:lib/libdaisy/src/daisy_seed.h **** namespace daisy
  11:lib/libdaisy/src/daisy_seed.h **** {
  12:lib/libdaisy/src/daisy_seed.h **** /**
  13:lib/libdaisy/src/daisy_seed.h ****    @brief This is the higher-level interface for the Daisy board. \n 
  14:lib/libdaisy/src/daisy_seed.h ****     All basic peripheral configuration/initialization is setup here. \n
  15:lib/libdaisy/src/daisy_seed.h **** 
  16:lib/libdaisy/src/daisy_seed.h ****    @ingroup boards
  17:lib/libdaisy/src/daisy_seed.h **** */
  18:lib/libdaisy/src/daisy_seed.h **** class DaisySeed
  19:lib/libdaisy/src/daisy_seed.h **** {
  20:lib/libdaisy/src/daisy_seed.h ****   public:
  21:lib/libdaisy/src/daisy_seed.h ****     DaisySeed() {}
  22:lib/libdaisy/src/daisy_seed.h ****     ~DaisySeed() {}
  75              		.loc 3 22 5 is_stmt 1 view -0
  76              		.cfi_startproc
  77              		@ args = 0, pretend = 0, frame = 0
  78              		@ frame_needed = 0, uses_anonymous_args = 0
  79              		@ link register save eliminated.
  80              	.LBB224:
  81              	.LBI224:
  82              		.file 4 "lib/libdaisy/src/sys/system.h"
   1:lib/libdaisy/src/sys/system.h **** #ifndef DSY_SYSTEM_H
   2:lib/libdaisy/src/sys/system.h **** #define DSY_SYSTEM_H
   3:lib/libdaisy/src/sys/system.h **** 
   4:lib/libdaisy/src/sys/system.h **** #ifndef UNIT_TEST // for unit tests, a dummy implementation is provided below
   5:lib/libdaisy/src/sys/system.h **** 
   6:lib/libdaisy/src/sys/system.h **** #include <cstdint>
   7:lib/libdaisy/src/sys/system.h **** #include "per/tim.h"
ARM GAS  /var/folders/9s/8rp0_f2s1n31qbztm3b5_fdh0000gn/T//ccSMtkyz.s 			page 4


   8:lib/libdaisy/src/sys/system.h **** 
   9:lib/libdaisy/src/sys/system.h **** namespace daisy
  10:lib/libdaisy/src/sys/system.h **** {
  11:lib/libdaisy/src/sys/system.h **** /** A handle for interacting with the Core System. 
  12:lib/libdaisy/src/sys/system.h ****  ** This includes the Clock tree, MPU, global DMA initialization,
  13:lib/libdaisy/src/sys/system.h ****  ** cache handling, and any other necessary global initiailzation
  14:lib/libdaisy/src/sys/system.h ****  **
  15:lib/libdaisy/src/sys/system.h ****  ** @author shensley
  16:lib/libdaisy/src/sys/system.h ****  ** @addtogroup system
  17:lib/libdaisy/src/sys/system.h ****  */
  18:lib/libdaisy/src/sys/system.h **** class System
  19:lib/libdaisy/src/sys/system.h **** {
  20:lib/libdaisy/src/sys/system.h ****   public:
  21:lib/libdaisy/src/sys/system.h ****     /** Contains settings for initializing the System */
  22:lib/libdaisy/src/sys/system.h ****     struct Config
  23:lib/libdaisy/src/sys/system.h ****     {
  24:lib/libdaisy/src/sys/system.h ****         /** Specifies the system clock frequency that feeds APB/AHB clocks, etc. */
  25:lib/libdaisy/src/sys/system.h ****         enum class SysClkFreq
  26:lib/libdaisy/src/sys/system.h ****         {
  27:lib/libdaisy/src/sys/system.h ****             FREQ_400MHZ,
  28:lib/libdaisy/src/sys/system.h ****             FREQ_480MHZ,
  29:lib/libdaisy/src/sys/system.h ****         };
  30:lib/libdaisy/src/sys/system.h **** 
  31:lib/libdaisy/src/sys/system.h ****         /** Method to call on the struct to set to defaults
  32:lib/libdaisy/src/sys/system.h ****          ** CPU Freq set to 400MHz
  33:lib/libdaisy/src/sys/system.h ****          ** Cache Enabled 
  34:lib/libdaisy/src/sys/system.h ****          ** */
  35:lib/libdaisy/src/sys/system.h ****         void Defaults()
  36:lib/libdaisy/src/sys/system.h ****         {
  37:lib/libdaisy/src/sys/system.h ****             cpu_freq    = SysClkFreq::FREQ_400MHZ;
  38:lib/libdaisy/src/sys/system.h ****             use_dcache  = true;
  39:lib/libdaisy/src/sys/system.h ****             use_icache  = true;
  40:lib/libdaisy/src/sys/system.h ****             skip_clocks = false;
  41:lib/libdaisy/src/sys/system.h ****         }
  42:lib/libdaisy/src/sys/system.h **** 
  43:lib/libdaisy/src/sys/system.h ****         /** Method to call on the struct to set to boost mode:
  44:lib/libdaisy/src/sys/system.h ****          ** CPU Freq set to 480MHz
  45:lib/libdaisy/src/sys/system.h ****          ** Cache Enabled 
  46:lib/libdaisy/src/sys/system.h ****          ** */
  47:lib/libdaisy/src/sys/system.h ****         void Boost()
  48:lib/libdaisy/src/sys/system.h ****         {
  49:lib/libdaisy/src/sys/system.h ****             cpu_freq    = SysClkFreq::FREQ_480MHZ;
  50:lib/libdaisy/src/sys/system.h ****             use_dcache  = true;
  51:lib/libdaisy/src/sys/system.h ****             use_icache  = true;
  52:lib/libdaisy/src/sys/system.h ****             skip_clocks = false;
  53:lib/libdaisy/src/sys/system.h ****         }
  54:lib/libdaisy/src/sys/system.h **** 
  55:lib/libdaisy/src/sys/system.h ****         SysClkFreq cpu_freq;
  56:lib/libdaisy/src/sys/system.h ****         bool       use_dcache;
  57:lib/libdaisy/src/sys/system.h ****         bool       use_icache;
  58:lib/libdaisy/src/sys/system.h ****         bool       skip_clocks;
  59:lib/libdaisy/src/sys/system.h ****     };
  60:lib/libdaisy/src/sys/system.h **** 
  61:lib/libdaisy/src/sys/system.h ****     /** Describes the different regions of memory available to the Daisy
  62:lib/libdaisy/src/sys/system.h ****      * 
  63:lib/libdaisy/src/sys/system.h ****      */
  64:lib/libdaisy/src/sys/system.h ****     enum MemoryRegion
ARM GAS  /var/folders/9s/8rp0_f2s1n31qbztm3b5_fdh0000gn/T//ccSMtkyz.s 			page 5


  65:lib/libdaisy/src/sys/system.h ****     {
  66:lib/libdaisy/src/sys/system.h ****         INTERNAL_FLASH = 0,
  67:lib/libdaisy/src/sys/system.h ****         ITCMRAM,
  68:lib/libdaisy/src/sys/system.h ****         DTCMRAM,
  69:lib/libdaisy/src/sys/system.h ****         SRAM_D1,
  70:lib/libdaisy/src/sys/system.h ****         SRAM_D2,
  71:lib/libdaisy/src/sys/system.h ****         SRAM_D3,
  72:lib/libdaisy/src/sys/system.h ****         SDRAM,
  73:lib/libdaisy/src/sys/system.h ****         QSPI,
  74:lib/libdaisy/src/sys/system.h ****         INVALID_ADDRESS,
  75:lib/libdaisy/src/sys/system.h ****     };
  76:lib/libdaisy/src/sys/system.h **** 
  77:lib/libdaisy/src/sys/system.h ****     System() {}
  78:lib/libdaisy/src/sys/system.h ****     ~System() {}
  83              		.loc 4 78 5 view .LVU5
  84              		.loc 4 78 5 is_stmt 0 view .LVU6
  85              	.LBE224:
  86              	.LBB225:
  87              	.LBI225:
  88              		.file 5 "lib/libdaisy/src/hid/usb.h"
   1:lib/libdaisy/src/hid/usb.h **** #pragma once
   2:lib/libdaisy/src/hid/usb.h **** #ifndef DSY_HID_USB_H
   3:lib/libdaisy/src/hid/usb.h **** #define DSY_HID_USB_H
   4:lib/libdaisy/src/hid/usb.h **** #include <stdint.h>
   5:lib/libdaisy/src/hid/usb.h **** #include <stdlib.h>
   6:lib/libdaisy/src/hid/usb.h **** 
   7:lib/libdaisy/src/hid/usb.h **** namespace daisy
   8:lib/libdaisy/src/hid/usb.h **** /** @addtogroup externals
   9:lib/libdaisy/src/hid/usb.h ****     @{
  10:lib/libdaisy/src/hid/usb.h **** */
  11:lib/libdaisy/src/hid/usb.h **** 
  12:lib/libdaisy/src/hid/usb.h **** {
  13:lib/libdaisy/src/hid/usb.h **** /** 
  14:lib/libdaisy/src/hid/usb.h ****     @brief Interface for initializing and using the USB Peripherals on the daisy
  15:lib/libdaisy/src/hid/usb.h ****     @author Stephen Hensley
  16:lib/libdaisy/src/hid/usb.h ****     @date December 2019
  17:lib/libdaisy/src/hid/usb.h **** */
  18:lib/libdaisy/src/hid/usb.h **** class UsbHandle
  19:lib/libdaisy/src/hid/usb.h **** {
  20:lib/libdaisy/src/hid/usb.h ****   public:
  21:lib/libdaisy/src/hid/usb.h ****     /** Return values for USBHandle Functions */
  22:lib/libdaisy/src/hid/usb.h ****     enum class Result
  23:lib/libdaisy/src/hid/usb.h ****     {
  24:lib/libdaisy/src/hid/usb.h ****         OK,
  25:lib/libdaisy/src/hid/usb.h ****         ERR,
  26:lib/libdaisy/src/hid/usb.h ****     };
  27:lib/libdaisy/src/hid/usb.h **** 
  28:lib/libdaisy/src/hid/usb.h ****     /** Specified which of the two USB Peripherals to initialize. */
  29:lib/libdaisy/src/hid/usb.h ****     enum UsbPeriph
  30:lib/libdaisy/src/hid/usb.h ****     {
  31:lib/libdaisy/src/hid/usb.h ****         FS_INTERNAL, /**< Internal pin */
  32:lib/libdaisy/src/hid/usb.h ****         FS_EXTERNAL, /**< FS External D+ pin is Pin 38 (GPIO32). FS External D- pin is Pin 37 (GPIO
  33:lib/libdaisy/src/hid/usb.h ****         FS_BOTH,     /**< Both */
  34:lib/libdaisy/src/hid/usb.h ****     };
  35:lib/libdaisy/src/hid/usb.h **** 
  36:lib/libdaisy/src/hid/usb.h **** 
  37:lib/libdaisy/src/hid/usb.h ****     /** Function called upon reception of a buffer */
ARM GAS  /var/folders/9s/8rp0_f2s1n31qbztm3b5_fdh0000gn/T//ccSMtkyz.s 			page 6


  38:lib/libdaisy/src/hid/usb.h ****     typedef void (*ReceiveCallback)(uint8_t* buff, uint32_t* len);
  39:lib/libdaisy/src/hid/usb.h **** 
  40:lib/libdaisy/src/hid/usb.h ****     UsbHandle() {}
  41:lib/libdaisy/src/hid/usb.h **** 
  42:lib/libdaisy/src/hid/usb.h ****     ~UsbHandle() {}
  89              		.loc 5 42 5 is_stmt 1 view .LVU7
  90              		.loc 5 42 5 is_stmt 0 view .LVU8
  91              	.LBE225:
  92              	.LBB226:
  93              	.LBI226:
  94              		.file 6 "lib/libdaisy/src/per/adc.h"
   1:lib/libdaisy/src/per/adc.h **** #pragma once
   2:lib/libdaisy/src/per/adc.h **** #ifndef DSY_ADC_H
   3:lib/libdaisy/src/per/adc.h **** #define DSY_ADC_H /**< Macro */
   4:lib/libdaisy/src/per/adc.h **** #include <stdint.h>
   5:lib/libdaisy/src/per/adc.h **** #include <stdlib.h>
   6:lib/libdaisy/src/per/adc.h **** #include "daisy_core.h"
   7:lib/libdaisy/src/per/adc.h **** #include "per/gpio.h"
   8:lib/libdaisy/src/per/adc.h **** 
   9:lib/libdaisy/src/per/adc.h **** #define DSY_ADC_MAX_CHANNELS 16 /**< Maximum number of ADC channels */
  10:lib/libdaisy/src/per/adc.h **** 
  11:lib/libdaisy/src/per/adc.h **** namespace daisy
  12:lib/libdaisy/src/per/adc.h **** {
  13:lib/libdaisy/src/per/adc.h **** /** @addtogroup analog_digital_conversion
  14:lib/libdaisy/src/per/adc.h ****     @{
  15:lib/libdaisy/src/per/adc.h **** */
  16:lib/libdaisy/src/per/adc.h **** 
  17:lib/libdaisy/src/per/adc.h **** /* While there may not be many configuration options here,
  18:lib/libdaisy/src/per/adc.h **** using a struct like this allows us to add more configuration
  19:lib/libdaisy/src/per/adc.h **** later without breaking existing functionality.
  20:lib/libdaisy/src/per/adc.h **** */
  21:lib/libdaisy/src/per/adc.h **** 
  22:lib/libdaisy/src/per/adc.h **** /** Configuration Structure for a given channel */
  23:lib/libdaisy/src/per/adc.h **** struct AdcChannelConfig
  24:lib/libdaisy/src/per/adc.h **** {
  25:lib/libdaisy/src/per/adc.h ****     /** Which pin to use for multiplexing */
  26:lib/libdaisy/src/per/adc.h ****     enum MuxPin
  27:lib/libdaisy/src/per/adc.h ****     {
  28:lib/libdaisy/src/per/adc.h ****         MUX_SEL_0,    /**< & */
  29:lib/libdaisy/src/per/adc.h ****         MUX_SEL_1,    /**< & */
  30:lib/libdaisy/src/per/adc.h ****         MUX_SEL_2,    /**< & */
  31:lib/libdaisy/src/per/adc.h ****         MUX_SEL_LAST, /**< & */
  32:lib/libdaisy/src/per/adc.h ****     };
  33:lib/libdaisy/src/per/adc.h **** 
  34:lib/libdaisy/src/per/adc.h ****     /** Initializes a single ADC pin as an ADC. 
  35:lib/libdaisy/src/per/adc.h ****     \param pin Pin to init.
  36:lib/libdaisy/src/per/adc.h ****      */
  37:lib/libdaisy/src/per/adc.h ****     void InitSingle(dsy_gpio_pin pin);
  38:lib/libdaisy/src/per/adc.h **** 
  39:lib/libdaisy/src/per/adc.h ****     /** 
  40:lib/libdaisy/src/per/adc.h ****     Initializes a single ADC pin as a Multiplexed ADC.
  41:lib/libdaisy/src/per/adc.h ****     Requires a CD405X Multiplexer connected to the pin.
  42:lib/libdaisy/src/per/adc.h ****     You only need to supply the mux pins that are required,
  43:lib/libdaisy/src/per/adc.h ****     e.g. a 4052 mux would only require mux_0 and mux_1.
  44:lib/libdaisy/src/per/adc.h ****     Internal Callbacks handle the pin addressing.
  45:lib/libdaisy/src/per/adc.h ****     \param mux_channels must be 1-8
  46:lib/libdaisy/src/per/adc.h ****     \param mux_0 First mux pin
ARM GAS  /var/folders/9s/8rp0_f2s1n31qbztm3b5_fdh0000gn/T//ccSMtkyz.s 			page 7


  47:lib/libdaisy/src/per/adc.h ****     \param mux_1 Second mux pin
  48:lib/libdaisy/src/per/adc.h ****     \param mux_2 Third mux pin
  49:lib/libdaisy/src/per/adc.h ****     \param adc_pin &
  50:lib/libdaisy/src/per/adc.h ****     */
  51:lib/libdaisy/src/per/adc.h ****     void InitMux(dsy_gpio_pin adc_pin,
  52:lib/libdaisy/src/per/adc.h ****                  size_t       mux_channels,
  53:lib/libdaisy/src/per/adc.h ****                  dsy_gpio_pin mux_0,
  54:lib/libdaisy/src/per/adc.h ****                  dsy_gpio_pin mux_1 = {DSY_GPIOX, 0},
  55:lib/libdaisy/src/per/adc.h ****                  dsy_gpio_pin mux_2 = {DSY_GPIOX, 0});
  56:lib/libdaisy/src/per/adc.h **** 
  57:lib/libdaisy/src/per/adc.h ****     dsy_gpio pin_;                   /**< & */
  58:lib/libdaisy/src/per/adc.h ****     dsy_gpio mux_pin_[MUX_SEL_LAST]; /**< & */
  59:lib/libdaisy/src/per/adc.h ****     uint8_t  mux_channels_;          /**< & */
  60:lib/libdaisy/src/per/adc.h **** };
  61:lib/libdaisy/src/per/adc.h **** 
  62:lib/libdaisy/src/per/adc.h **** /**
  63:lib/libdaisy/src/per/adc.h ****    Handler for analog to digital conversion
  64:lib/libdaisy/src/per/adc.h **** */
  65:lib/libdaisy/src/per/adc.h **** class AdcHandle
  66:lib/libdaisy/src/per/adc.h **** {
  67:lib/libdaisy/src/per/adc.h ****   public:
  68:lib/libdaisy/src/per/adc.h ****     /** Supported oversampling amounts */
  69:lib/libdaisy/src/per/adc.h ****     enum OverSampling
  70:lib/libdaisy/src/per/adc.h ****     {
  71:lib/libdaisy/src/per/adc.h ****         OVS_NONE, /**< & */
  72:lib/libdaisy/src/per/adc.h ****         OVS_4,    /**< & */
  73:lib/libdaisy/src/per/adc.h ****         OVS_8,    /**< & */
  74:lib/libdaisy/src/per/adc.h ****         OVS_16,   /**< & */
  75:lib/libdaisy/src/per/adc.h ****         OVS_32,   /**< & */
  76:lib/libdaisy/src/per/adc.h ****         OVS_64,   /**< & */
  77:lib/libdaisy/src/per/adc.h ****         OVS_128,  /**< & */
  78:lib/libdaisy/src/per/adc.h ****         OVS_256,  /**< & */
  79:lib/libdaisy/src/per/adc.h ****         OVS_512,  /**< & */
  80:lib/libdaisy/src/per/adc.h ****         OVS_1024, /**< & */
  81:lib/libdaisy/src/per/adc.h ****         OVS_LAST, /**< & */
  82:lib/libdaisy/src/per/adc.h ****     };
  83:lib/libdaisy/src/per/adc.h **** 
  84:lib/libdaisy/src/per/adc.h ****     AdcHandle() {}
  85:lib/libdaisy/src/per/adc.h ****     ~AdcHandle() {}
  95              		.loc 6 85 5 is_stmt 1 view .LVU9
  96              		.loc 6 85 5 is_stmt 0 view .LVU10
  97              	.LBE226:
  98              	.LBB227:
  99              	.LBI227:
 100              		.file 7 "lib/libdaisy/src/hid/audio.h"
   1:lib/libdaisy/src/hid/audio.h **** #ifndef DSY_AUDIO_H
   2:lib/libdaisy/src/hid/audio.h **** #define DSY_AUDIO_H /**< & */
   3:lib/libdaisy/src/hid/audio.h **** 
   4:lib/libdaisy/src/hid/audio.h **** #include "per/sai.h"
   5:lib/libdaisy/src/hid/audio.h **** 
   6:lib/libdaisy/src/hid/audio.h **** namespace daisy
   7:lib/libdaisy/src/hid/audio.h **** {
   8:lib/libdaisy/src/hid/audio.h **** class AudioHandle
   9:lib/libdaisy/src/hid/audio.h **** {
  10:lib/libdaisy/src/hid/audio.h ****   public:
  11:lib/libdaisy/src/hid/audio.h ****     /** Manually configurable details about the Audio Engine */
  12:lib/libdaisy/src/hid/audio.h ****     /** TODO: Figure out how to get samplerate in here. */
ARM GAS  /var/folders/9s/8rp0_f2s1n31qbztm3b5_fdh0000gn/T//ccSMtkyz.s 			page 8


  13:lib/libdaisy/src/hid/audio.h ****     struct Config
  14:lib/libdaisy/src/hid/audio.h ****     {
  15:lib/libdaisy/src/hid/audio.h ****         size_t                        blocksize;
  16:lib/libdaisy/src/hid/audio.h ****         SaiHandle::Config::SampleRate samplerate;
  17:lib/libdaisy/src/hid/audio.h ****         float                         postgain;
  18:lib/libdaisy/src/hid/audio.h ****     };
  19:lib/libdaisy/src/hid/audio.h **** 
  20:lib/libdaisy/src/hid/audio.h ****     enum class Result
  21:lib/libdaisy/src/hid/audio.h ****     {
  22:lib/libdaisy/src/hid/audio.h ****         OK,
  23:lib/libdaisy/src/hid/audio.h ****         ERR,
  24:lib/libdaisy/src/hid/audio.h ****     };
  25:lib/libdaisy/src/hid/audio.h **** 
  26:lib/libdaisy/src/hid/audio.h ****     /** Non-Interleaving input buffer
  27:lib/libdaisy/src/hid/audio.h ****      * Buffer arranged by float[chn][sample] 
  28:lib/libdaisy/src/hid/audio.h ****      * const so that the user can't modify the input
  29:lib/libdaisy/src/hid/audio.h ****     */
  30:lib/libdaisy/src/hid/audio.h ****     typedef const float* const* InputBuffer;
  31:lib/libdaisy/src/hid/audio.h **** 
  32:lib/libdaisy/src/hid/audio.h ****     /** Non-Interleaving output buffer
  33:lib/libdaisy/src/hid/audio.h ****      * Arranged by float[chn][sample] 
  34:lib/libdaisy/src/hid/audio.h ****     */
  35:lib/libdaisy/src/hid/audio.h ****     typedef float** OutputBuffer;
  36:lib/libdaisy/src/hid/audio.h **** 
  37:lib/libdaisy/src/hid/audio.h ****     /** Type for a Non-Interleaving audio callback 
  38:lib/libdaisy/src/hid/audio.h ****    * Non-Interleaving audio callbacks in daisy will be of this type
  39:lib/libdaisy/src/hid/audio.h ****   */
  40:lib/libdaisy/src/hid/audio.h ****     typedef void (*AudioCallback)(InputBuffer  in,
  41:lib/libdaisy/src/hid/audio.h ****                                   OutputBuffer out,
  42:lib/libdaisy/src/hid/audio.h ****                                   size_t       size);
  43:lib/libdaisy/src/hid/audio.h **** 
  44:lib/libdaisy/src/hid/audio.h ****     /** Interleaving Input buffer
  45:lib/libdaisy/src/hid/audio.h ****      ** audio is prepared as { L0, R0, L1, R1, . . . LN, RN }]
  46:lib/libdaisy/src/hid/audio.h ****      ** this is const, as the user shouldn't modify it
  47:lib/libdaisy/src/hid/audio.h ****     */
  48:lib/libdaisy/src/hid/audio.h ****     typedef const float* InterleavingInputBuffer;
  49:lib/libdaisy/src/hid/audio.h **** 
  50:lib/libdaisy/src/hid/audio.h ****     /** Interleaving Output buffer 
  51:lib/libdaisy/src/hid/audio.h ****      ** audio is prepared as { L0, R0, L1, R1, . . . LN, RN }
  52:lib/libdaisy/src/hid/audio.h ****     */
  53:lib/libdaisy/src/hid/audio.h ****     typedef float* InterleavingOutputBuffer;
  54:lib/libdaisy/src/hid/audio.h **** 
  55:lib/libdaisy/src/hid/audio.h ****     /** Interleaving Audio Callback 
  56:lib/libdaisy/src/hid/audio.h ****    * Interleaving audio callbacks in daisy must be of this type
  57:lib/libdaisy/src/hid/audio.h ****   */
  58:lib/libdaisy/src/hid/audio.h ****     typedef void (*InterleavingAudioCallback)(InterleavingInputBuffer  in,
  59:lib/libdaisy/src/hid/audio.h ****                                               InterleavingOutputBuffer out,
  60:lib/libdaisy/src/hid/audio.h ****                                               size_t                   size);
  61:lib/libdaisy/src/hid/audio.h **** 
  62:lib/libdaisy/src/hid/audio.h ****     AudioHandle() : pimpl_(nullptr) {}
  63:lib/libdaisy/src/hid/audio.h ****     ~AudioHandle() {}
 101              		.loc 7 63 5 is_stmt 1 view .LVU11
 102              		.loc 7 63 5 is_stmt 0 view .LVU12
 103              	.LBE227:
 104              		.loc 3 22 19 view .LVU13
 105 0000 7047     		bx	lr
 106              		.cfi_endproc
ARM GAS  /var/folders/9s/8rp0_f2s1n31qbztm3b5_fdh0000gn/T//ccSMtkyz.s 			page 9


 107              	.LFE2146:
 109              		.weak	_ZN5daisy9DaisySeedD1Ev
 110              		.thumb_set _ZN5daisy9DaisySeedD1Ev,_ZN5daisy9DaisySeedD2Ev
 111              		.section	.text._ZN6Mpr121D2Ev,"axG",%progbits,_ZN6Mpr121D5Ev,comdat
 112              		.align	1
 113              		.weak	_ZN6Mpr121D2Ev
 114              		.syntax unified
 115              		.thumb
 116              		.thumb_func
 118              	_ZN6Mpr121D2Ev:
 119              	.LVL3:
 120              	.LFB4962:
 121              		.file 8 "mpr121_daisy.h"
   1:mpr121_daisy.h **** #pragma once
   2:mpr121_daisy.h **** #ifndef MPR121_DAISY_H
   3:mpr121_daisy.h **** #define MPR121_DAISY_H
   4:mpr121_daisy.h **** 
   5:mpr121_daisy.h **** #include "daisy_seed.h"
   6:mpr121_daisy.h **** #include "per/i2c.h"
   7:mpr121_daisy.h **** 
   8:mpr121_daisy.h **** using namespace daisy;
   9:mpr121_daisy.h **** 
  10:mpr121_daisy.h **** /// mp
  11:mpr121_daisy.h **** 
  12:mpr121_daisy.h **** // Register map
  13:mpr121_daisy.h **** #define MPR121_TOUCHSTATUS_L 0x00
  14:mpr121_daisy.h **** #define MPR121_TOUCHSTATUS_H 0x01
  15:mpr121_daisy.h **** #define MPR121_FILTDATA_0L 0x04
  16:mpr121_daisy.h **** #define MPR121_FILTDATA_0H 0x05
  17:mpr121_daisy.h **** #define MPR121_BASELINE_0 0x1E
  18:mpr121_daisy.h **** #define MPR121_MHDR 0x2B
  19:mpr121_daisy.h **** #define MPR121_NHDR 0x2C
  20:mpr121_daisy.h **** #define MPR121_NCLR 0x2D
  21:mpr121_daisy.h **** #define MPR121_FDLR 0x2E
  22:mpr121_daisy.h **** #define MPR121_MHDF 0x2F
  23:mpr121_daisy.h **** #define MPR121_NHDF 0x30
  24:mpr121_daisy.h **** #define MPR121_NCLF 0x31
  25:mpr121_daisy.h **** #define MPR121_FDLF 0x32
  26:mpr121_daisy.h **** #define MPR121_NHDT 0x33
  27:mpr121_daisy.h **** #define MPR121_NCLT 0x34
  28:mpr121_daisy.h **** #define MPR121_FDLT 0x35
  29:mpr121_daisy.h **** 
  30:mpr121_daisy.h **** #define MPR121_TOUCHTH_0 0x41
  31:mpr121_daisy.h **** #define MPR121_RELEASETH_0 0x42
  32:mpr121_daisy.h **** #define MPR121_DEBOUNCE 0x5B
  33:mpr121_daisy.h **** #define MPR121_CONFIG1 0x5C
  34:mpr121_daisy.h **** #define MPR121_CONFIG2 0x5D
  35:mpr121_daisy.h **** #define MPR121_CHARGECURR_0 0x5F
  36:mpr121_daisy.h **** #define MPR121_CHARGETIME_1 0x6C
  37:mpr121_daisy.h **** #define MPR121_ECR 0x5E
  38:mpr121_daisy.h **** #define MPR121_AUTOCONFIG0 0x7B
  39:mpr121_daisy.h **** #define MPR121_AUTOCONFIG1 0x7C
  40:mpr121_daisy.h **** #define MPR121_UPLIMIT 0x7D
  41:mpr121_daisy.h **** #define MPR121_LOWLIMIT 0x7E
  42:mpr121_daisy.h **** #define MPR121_TARGETLIMIT 0x7F
  43:mpr121_daisy.h **** 
  44:mpr121_daisy.h **** #define MPR121_GPIODIR 0x76
ARM GAS  /var/folders/9s/8rp0_f2s1n31qbztm3b5_fdh0000gn/T//ccSMtkyz.s 			page 10


  45:mpr121_daisy.h **** #define MPR121_GPIOEN 0x77
  46:mpr121_daisy.h **** #define MPR121_GPIOSET 0x78
  47:mpr121_daisy.h **** #define MPR121_GPIOCLR 0x79
  48:mpr121_daisy.h **** #define MPR121_GPIOTOGGLE 0x7A
  49:mpr121_daisy.h **** 
  50:mpr121_daisy.h **** #define MPR121_SOFTRESET 0x80
  51:mpr121_daisy.h **** #define MPR121_I2CADDR_DEFAULT 0x5A
  52:mpr121_daisy.h **** 
  53:mpr121_daisy.h **** class Mpr121
  54:mpr121_daisy.h **** {
  55:mpr121_daisy.h ****   public:
  56:mpr121_daisy.h ****     Mpr121() {}
  57:mpr121_daisy.h ****     ~Mpr121() {}
 122              		.loc 8 57 5 is_stmt 1 view -0
 123              		.cfi_startproc
 124              		@ args = 0, pretend = 0, frame = 0
 125              		@ frame_needed = 0, uses_anonymous_args = 0
 126              		@ link register save eliminated.
 127              		.loc 8 57 16 is_stmt 0 view .LVU15
 128 0000 7047     		bx	lr
 129              		.cfi_endproc
 130              	.LFE4962:
 132              		.weak	_ZN6Mpr121D1Ev
 133              		.thumb_set _ZN6Mpr121D1Ev,_ZN6Mpr121D2Ev
 134              		.section	.text._ZN10infrasonic9EchoDelayILj48000EED2Ev,"axG",%progbits,_ZN10infrasonic9EchoDelayIL
 135              		.align	1
 136              		.weak	_ZN10infrasonic9EchoDelayILj48000EED2Ev
 137              		.syntax unified
 138              		.thumb
 139              		.thumb_func
 141              	_ZN10infrasonic9EchoDelayILj48000EED2Ev:
 142              	.LVL4:
 143              	.LFB5820:
 144              		.file 9 "Effects/EchoDelay.h"
   1:Effects/EchoDelay.h **** #pragma once
   2:Effects/EchoDelay.h **** #ifndef INFS_ECHODELAY_H
   3:Effects/EchoDelay.h **** #define INFS_ECHODELAY_H
   4:Effects/EchoDelay.h **** 
   5:Effects/EchoDelay.h **** #include <daisysp.h>
   6:Effects/EchoDelay.h **** #include "BiquadFilters.h"
   7:Effects/EchoDelay.h **** #include "DSPUtils.h"
   8:Effects/EchoDelay.h **** 
   9:Effects/EchoDelay.h **** namespace infrasonic {
  10:Effects/EchoDelay.h **** 
  11:Effects/EchoDelay.h **** /**
  12:Effects/EchoDelay.h ****  * @brief
  13:Effects/EchoDelay.h ****  * Tape-ish echo delay.
  14:Effects/EchoDelay.h ****  *   - Feedback is unbounded, but signal is soft-clipped
  15:Effects/EchoDelay.h ****  *   - Output is full-wet, should be mixed with dry signal externally
  16:Effects/EchoDelay.h ****  *
  17:Effects/EchoDelay.h ****  * @tparam MaxLength Max length of delay in samples
  18:Effects/EchoDelay.h ****  */
  19:Effects/EchoDelay.h **** template<size_t MaxLength>
  20:Effects/EchoDelay.h **** class EchoDelay {
  21:Effects/EchoDelay.h **** 
  22:Effects/EchoDelay.h ****     public:
  23:Effects/EchoDelay.h **** 
ARM GAS  /var/folders/9s/8rp0_f2s1n31qbztm3b5_fdh0000gn/T//ccSMtkyz.s 			page 11


  24:Effects/EchoDelay.h ****         EchoDelay() {}
  25:Effects/EchoDelay.h ****         ~EchoDelay() {}
 145              		.loc 9 25 9 is_stmt 1 view -0
 146              		.cfi_startproc
 147              		@ args = 0, pretend = 0, frame = 0
 148              		@ frame_needed = 0, uses_anonymous_args = 0
 149              		@ link register save eliminated.
 150              	.LBB228:
 151              	.LBI228:
 152              		.file 10 "Effects/BiquadFilters.h"
   1:Effects/BiquadFilters.h **** #pragma once
   2:Effects/BiquadFilters.h **** #ifndef INFS_BIQUADFILTERS_H
   3:Effects/BiquadFilters.h **** #define INFS_BIQUADFILTERS_H
   4:Effects/BiquadFilters.h **** 
   5:Effects/BiquadFilters.h **** #include <cassert>
   6:Effects/BiquadFilters.h **** #include <array>
   7:Effects/BiquadFilters.h **** #include <daisysp.h>
   8:Effects/BiquadFilters.h **** 
   9:Effects/BiquadFilters.h **** namespace infrasonic {
  10:Effects/BiquadFilters.h **** 
  11:Effects/BiquadFilters.h **** /**
  12:Effects/BiquadFilters.h ****  *  Single precision 2nd order biquad filter section with support for stereo processing.
  13:Effects/BiquadFilters.h ****  *  NOTE: There are templated filter definitions at the bottom of this file for convenience. 
  14:Effects/BiquadFilters.h ****  */
  15:Effects/BiquadFilters.h **** class BiquadSection {
  16:Effects/BiquadFilters.h **** 
  17:Effects/BiquadFilters.h ****     public:
  18:Effects/BiquadFilters.h **** 
  19:Effects/BiquadFilters.h ****         enum class FilterType {
  20:Effects/BiquadFilters.h ****             LowPass,
  21:Effects/BiquadFilters.h ****             HighPass,
  22:Effects/BiquadFilters.h ****             BandPass
  23:Effects/BiquadFilters.h ****         };
  24:Effects/BiquadFilters.h **** 
  25:Effects/BiquadFilters.h ****         // Assumes normalized coefficients (a0 == 1)
  26:Effects/BiquadFilters.h ****         // Ordering numerator then denominator: {b0, b1, b2, a1, a2}
  27:Effects/BiquadFilters.h ****         using Coefficients = std::array<float, 5>;
  28:Effects/BiquadFilters.h **** 
  29:Effects/BiquadFilters.h ****         static const Coefficients CalculateCoefficients(const FilterType type, 
  30:Effects/BiquadFilters.h ****                                                         const float sample_rate,
  31:Effects/BiquadFilters.h ****                                                         const float cutoff_hz,
  32:Effects/BiquadFilters.h ****                                                         const float q);
  33:Effects/BiquadFilters.h **** 
  34:Effects/BiquadFilters.h ****         BiquadSection() {}
  35:Effects/BiquadFilters.h ****         ~BiquadSection() {}
  36:Effects/BiquadFilters.h **** 
  37:Effects/BiquadFilters.h ****         void SetCoefficients(const Coefficients coefficients) { coefs_ = coefficients; }
  38:Effects/BiquadFilters.h **** 
  39:Effects/BiquadFilters.h ****         inline float Process(const float in, const int channel)
  40:Effects/BiquadFilters.h ****         {
  41:Effects/BiquadFilters.h ****             assert(channel < 2);
  42:Effects/BiquadFilters.h **** 
  43:Effects/BiquadFilters.h ****             // TODO: arm accelerated version
  44:Effects/BiquadFilters.h **** 
  45:Effects/BiquadFilters.h ****             const float &b0 = coefs_[0];
  46:Effects/BiquadFilters.h ****             const float &b1 = coefs_[1];
  47:Effects/BiquadFilters.h ****             const float &b2 = coefs_[2];
ARM GAS  /var/folders/9s/8rp0_f2s1n31qbztm3b5_fdh0000gn/T//ccSMtkyz.s 			page 12


  48:Effects/BiquadFilters.h ****             const float &a1 = coefs_[3];
  49:Effects/BiquadFilters.h ****             const float &a2 = coefs_[4];
  50:Effects/BiquadFilters.h **** 
  51:Effects/BiquadFilters.h ****             // Transposed direct form 2
  52:Effects/BiquadFilters.h ****             float y = b0 * in + s1_[channel];
  53:Effects/BiquadFilters.h ****             s1_[channel] = s2_[channel] + in * b1 - a1 * y;
  54:Effects/BiquadFilters.h ****             s2_[channel] = b2 * in - a2 * y;
  55:Effects/BiquadFilters.h ****             return y;
  56:Effects/BiquadFilters.h ****         }
  57:Effects/BiquadFilters.h **** 
  58:Effects/BiquadFilters.h ****     private:
  59:Effects/BiquadFilters.h ****         // coef
  60:Effects/BiquadFilters.h ****         Coefficients coefs_{0, 0, 0, 0, 0};
  61:Effects/BiquadFilters.h **** 
  62:Effects/BiquadFilters.h ****         // state
  63:Effects/BiquadFilters.h ****         float s1_[2] = {0, 0};
  64:Effects/BiquadFilters.h ****         float s2_[2] = {0, 0};
  65:Effects/BiquadFilters.h **** 
  66:Effects/BiquadFilters.h **** };
  67:Effects/BiquadFilters.h **** 
  68:Effects/BiquadFilters.h **** /// Templated cascaded biquad filter. Filter Order = 2 * NumSections.
  69:Effects/BiquadFilters.h **** /// NOTE: Only supports even-ordered filters.
  70:Effects/BiquadFilters.h **** template<size_t NumSections, BiquadSection::FilterType FilterType>
  71:Effects/BiquadFilters.h **** class BiquadCascade {
  72:Effects/BiquadFilters.h **** 
  73:Effects/BiquadFilters.h ****     static_assert(NumSections > 0, "Must have at least one section");
  74:Effects/BiquadFilters.h **** 
  75:Effects/BiquadFilters.h ****     public:
  76:Effects/BiquadFilters.h ****         BiquadCascade() {}
  77:Effects/BiquadFilters.h ****         ~BiquadCascade() {}
 153              		.loc 10 77 9 view .LVU17
 154              	.LBB229:
 155              	.LBI229:
 156              		.file 11 "/Library/DaisyToolchain/0.2.0/arm/arm-none-eabi/include/c++/10.3.1/array"
   1:/Library/DaisyToolchain/0.2.0/arm/arm-none-eabi/include/c++/10.3.1/array **** // <array> -*- C++ -*-
   2:/Library/DaisyToolchain/0.2.0/arm/arm-none-eabi/include/c++/10.3.1/array **** 
   3:/Library/DaisyToolchain/0.2.0/arm/arm-none-eabi/include/c++/10.3.1/array **** // Copyright (C) 2007-2020 Free Software Foundation, Inc.
   4:/Library/DaisyToolchain/0.2.0/arm/arm-none-eabi/include/c++/10.3.1/array **** //
   5:/Library/DaisyToolchain/0.2.0/arm/arm-none-eabi/include/c++/10.3.1/array **** // This file is part of the GNU ISO C++ Library.  This library is free
   6:/Library/DaisyToolchain/0.2.0/arm/arm-none-eabi/include/c++/10.3.1/array **** // software; you can redistribute it and/or modify it under the
   7:/Library/DaisyToolchain/0.2.0/arm/arm-none-eabi/include/c++/10.3.1/array **** // terms of the GNU General Public License as published by the
   8:/Library/DaisyToolchain/0.2.0/arm/arm-none-eabi/include/c++/10.3.1/array **** // Free Software Foundation; either version 3, or (at your option)
   9:/Library/DaisyToolchain/0.2.0/arm/arm-none-eabi/include/c++/10.3.1/array **** // any later version.
  10:/Library/DaisyToolchain/0.2.0/arm/arm-none-eabi/include/c++/10.3.1/array **** 
  11:/Library/DaisyToolchain/0.2.0/arm/arm-none-eabi/include/c++/10.3.1/array **** // This library is distributed in the hope that it will be useful,
  12:/Library/DaisyToolchain/0.2.0/arm/arm-none-eabi/include/c++/10.3.1/array **** // but WITHOUT ANY WARRANTY; without even the implied warranty of
  13:/Library/DaisyToolchain/0.2.0/arm/arm-none-eabi/include/c++/10.3.1/array **** // MERCHANTABILITY or FITNESS FOR A PARTICULAR PURPOSE.  See the
  14:/Library/DaisyToolchain/0.2.0/arm/arm-none-eabi/include/c++/10.3.1/array **** // GNU General Public License for more details.
  15:/Library/DaisyToolchain/0.2.0/arm/arm-none-eabi/include/c++/10.3.1/array **** 
  16:/Library/DaisyToolchain/0.2.0/arm/arm-none-eabi/include/c++/10.3.1/array **** // Under Section 7 of GPL version 3, you are granted additional
  17:/Library/DaisyToolchain/0.2.0/arm/arm-none-eabi/include/c++/10.3.1/array **** // permissions described in the GCC Runtime Library Exception, version
  18:/Library/DaisyToolchain/0.2.0/arm/arm-none-eabi/include/c++/10.3.1/array **** // 3.1, as published by the Free Software Foundation.
  19:/Library/DaisyToolchain/0.2.0/arm/arm-none-eabi/include/c++/10.3.1/array **** 
  20:/Library/DaisyToolchain/0.2.0/arm/arm-none-eabi/include/c++/10.3.1/array **** // You should have received a copy of the GNU General Public License and
  21:/Library/DaisyToolchain/0.2.0/arm/arm-none-eabi/include/c++/10.3.1/array **** // a copy of the GCC Runtime Library Exception along with this program;
  22:/Library/DaisyToolchain/0.2.0/arm/arm-none-eabi/include/c++/10.3.1/array **** // see the files COPYING3 and COPYING.RUNTIME respectively.  If not, see
  23:/Library/DaisyToolchain/0.2.0/arm/arm-none-eabi/include/c++/10.3.1/array **** // <http://www.gnu.org/licenses/>.
ARM GAS  /var/folders/9s/8rp0_f2s1n31qbztm3b5_fdh0000gn/T//ccSMtkyz.s 			page 13


  24:/Library/DaisyToolchain/0.2.0/arm/arm-none-eabi/include/c++/10.3.1/array **** 
  25:/Library/DaisyToolchain/0.2.0/arm/arm-none-eabi/include/c++/10.3.1/array **** /** @file include/array
  26:/Library/DaisyToolchain/0.2.0/arm/arm-none-eabi/include/c++/10.3.1/array ****  *  This is a Standard C++ Library header.
  27:/Library/DaisyToolchain/0.2.0/arm/arm-none-eabi/include/c++/10.3.1/array ****  */
  28:/Library/DaisyToolchain/0.2.0/arm/arm-none-eabi/include/c++/10.3.1/array **** 
  29:/Library/DaisyToolchain/0.2.0/arm/arm-none-eabi/include/c++/10.3.1/array **** #ifndef _GLIBCXX_ARRAY
  30:/Library/DaisyToolchain/0.2.0/arm/arm-none-eabi/include/c++/10.3.1/array **** #define _GLIBCXX_ARRAY 1
  31:/Library/DaisyToolchain/0.2.0/arm/arm-none-eabi/include/c++/10.3.1/array **** 
  32:/Library/DaisyToolchain/0.2.0/arm/arm-none-eabi/include/c++/10.3.1/array **** #pragma GCC system_header
  33:/Library/DaisyToolchain/0.2.0/arm/arm-none-eabi/include/c++/10.3.1/array **** 
  34:/Library/DaisyToolchain/0.2.0/arm/arm-none-eabi/include/c++/10.3.1/array **** #if __cplusplus < 201103L
  35:/Library/DaisyToolchain/0.2.0/arm/arm-none-eabi/include/c++/10.3.1/array **** # include <bits/c++0x_warning.h>
  36:/Library/DaisyToolchain/0.2.0/arm/arm-none-eabi/include/c++/10.3.1/array **** #else
  37:/Library/DaisyToolchain/0.2.0/arm/arm-none-eabi/include/c++/10.3.1/array **** 
  38:/Library/DaisyToolchain/0.2.0/arm/arm-none-eabi/include/c++/10.3.1/array **** #include <utility>
  39:/Library/DaisyToolchain/0.2.0/arm/arm-none-eabi/include/c++/10.3.1/array **** #include <bits/functexcept.h>
  40:/Library/DaisyToolchain/0.2.0/arm/arm-none-eabi/include/c++/10.3.1/array **** #include <bits/stl_algobase.h>
  41:/Library/DaisyToolchain/0.2.0/arm/arm-none-eabi/include/c++/10.3.1/array **** #include <bits/range_access.h>
  42:/Library/DaisyToolchain/0.2.0/arm/arm-none-eabi/include/c++/10.3.1/array **** 
  43:/Library/DaisyToolchain/0.2.0/arm/arm-none-eabi/include/c++/10.3.1/array **** namespace std _GLIBCXX_VISIBILITY(default)
  44:/Library/DaisyToolchain/0.2.0/arm/arm-none-eabi/include/c++/10.3.1/array **** {
  45:/Library/DaisyToolchain/0.2.0/arm/arm-none-eabi/include/c++/10.3.1/array **** _GLIBCXX_BEGIN_NAMESPACE_CONTAINER
  46:/Library/DaisyToolchain/0.2.0/arm/arm-none-eabi/include/c++/10.3.1/array **** 
  47:/Library/DaisyToolchain/0.2.0/arm/arm-none-eabi/include/c++/10.3.1/array ****   template<typename _Tp, std::size_t _Nm>
  48:/Library/DaisyToolchain/0.2.0/arm/arm-none-eabi/include/c++/10.3.1/array ****     struct __array_traits
  49:/Library/DaisyToolchain/0.2.0/arm/arm-none-eabi/include/c++/10.3.1/array ****     {
  50:/Library/DaisyToolchain/0.2.0/arm/arm-none-eabi/include/c++/10.3.1/array ****       typedef _Tp _Type[_Nm];
  51:/Library/DaisyToolchain/0.2.0/arm/arm-none-eabi/include/c++/10.3.1/array ****       typedef __is_swappable<_Tp> _Is_swappable;
  52:/Library/DaisyToolchain/0.2.0/arm/arm-none-eabi/include/c++/10.3.1/array ****       typedef __is_nothrow_swappable<_Tp> _Is_nothrow_swappable;
  53:/Library/DaisyToolchain/0.2.0/arm/arm-none-eabi/include/c++/10.3.1/array **** 
  54:/Library/DaisyToolchain/0.2.0/arm/arm-none-eabi/include/c++/10.3.1/array ****       static constexpr _Tp&
  55:/Library/DaisyToolchain/0.2.0/arm/arm-none-eabi/include/c++/10.3.1/array ****       _S_ref(const _Type& __t, std::size_t __n) noexcept
  56:/Library/DaisyToolchain/0.2.0/arm/arm-none-eabi/include/c++/10.3.1/array ****       { return const_cast<_Tp&>(__t[__n]); }
  57:/Library/DaisyToolchain/0.2.0/arm/arm-none-eabi/include/c++/10.3.1/array **** 
  58:/Library/DaisyToolchain/0.2.0/arm/arm-none-eabi/include/c++/10.3.1/array ****       static constexpr _Tp*
  59:/Library/DaisyToolchain/0.2.0/arm/arm-none-eabi/include/c++/10.3.1/array ****       _S_ptr(const _Type& __t) noexcept
  60:/Library/DaisyToolchain/0.2.0/arm/arm-none-eabi/include/c++/10.3.1/array ****       { return const_cast<_Tp*>(__t); }
  61:/Library/DaisyToolchain/0.2.0/arm/arm-none-eabi/include/c++/10.3.1/array ****     };
  62:/Library/DaisyToolchain/0.2.0/arm/arm-none-eabi/include/c++/10.3.1/array **** 
  63:/Library/DaisyToolchain/0.2.0/arm/arm-none-eabi/include/c++/10.3.1/array ****  template<typename _Tp>
  64:/Library/DaisyToolchain/0.2.0/arm/arm-none-eabi/include/c++/10.3.1/array ****    struct __array_traits<_Tp, 0>
  65:/Library/DaisyToolchain/0.2.0/arm/arm-none-eabi/include/c++/10.3.1/array ****    {
  66:/Library/DaisyToolchain/0.2.0/arm/arm-none-eabi/include/c++/10.3.1/array ****      struct _Type { };
  67:/Library/DaisyToolchain/0.2.0/arm/arm-none-eabi/include/c++/10.3.1/array ****      typedef true_type _Is_swappable;
  68:/Library/DaisyToolchain/0.2.0/arm/arm-none-eabi/include/c++/10.3.1/array ****      typedef true_type _Is_nothrow_swappable;
  69:/Library/DaisyToolchain/0.2.0/arm/arm-none-eabi/include/c++/10.3.1/array **** 
  70:/Library/DaisyToolchain/0.2.0/arm/arm-none-eabi/include/c++/10.3.1/array ****      static constexpr _Tp&
  71:/Library/DaisyToolchain/0.2.0/arm/arm-none-eabi/include/c++/10.3.1/array ****      _S_ref(const _Type&, std::size_t) noexcept
  72:/Library/DaisyToolchain/0.2.0/arm/arm-none-eabi/include/c++/10.3.1/array ****      { return *static_cast<_Tp*>(nullptr); }
  73:/Library/DaisyToolchain/0.2.0/arm/arm-none-eabi/include/c++/10.3.1/array **** 
  74:/Library/DaisyToolchain/0.2.0/arm/arm-none-eabi/include/c++/10.3.1/array ****      static constexpr _Tp*
  75:/Library/DaisyToolchain/0.2.0/arm/arm-none-eabi/include/c++/10.3.1/array ****      _S_ptr(const _Type&) noexcept
  76:/Library/DaisyToolchain/0.2.0/arm/arm-none-eabi/include/c++/10.3.1/array ****      { return nullptr; }
  77:/Library/DaisyToolchain/0.2.0/arm/arm-none-eabi/include/c++/10.3.1/array ****    };
  78:/Library/DaisyToolchain/0.2.0/arm/arm-none-eabi/include/c++/10.3.1/array **** 
  79:/Library/DaisyToolchain/0.2.0/arm/arm-none-eabi/include/c++/10.3.1/array ****   /**
  80:/Library/DaisyToolchain/0.2.0/arm/arm-none-eabi/include/c++/10.3.1/array ****    *  @brief A standard container for storing a fixed size sequence of elements.
ARM GAS  /var/folders/9s/8rp0_f2s1n31qbztm3b5_fdh0000gn/T//ccSMtkyz.s 			page 14


  81:/Library/DaisyToolchain/0.2.0/arm/arm-none-eabi/include/c++/10.3.1/array ****    *
  82:/Library/DaisyToolchain/0.2.0/arm/arm-none-eabi/include/c++/10.3.1/array ****    *  @ingroup sequences
  83:/Library/DaisyToolchain/0.2.0/arm/arm-none-eabi/include/c++/10.3.1/array ****    *
  84:/Library/DaisyToolchain/0.2.0/arm/arm-none-eabi/include/c++/10.3.1/array ****    *  Meets the requirements of a <a href="tables.html#65">container</a>, a
  85:/Library/DaisyToolchain/0.2.0/arm/arm-none-eabi/include/c++/10.3.1/array ****    *  <a href="tables.html#66">reversible container</a>, and a
  86:/Library/DaisyToolchain/0.2.0/arm/arm-none-eabi/include/c++/10.3.1/array ****    *  <a href="tables.html#67">sequence</a>.
  87:/Library/DaisyToolchain/0.2.0/arm/arm-none-eabi/include/c++/10.3.1/array ****    *
  88:/Library/DaisyToolchain/0.2.0/arm/arm-none-eabi/include/c++/10.3.1/array ****    *  Sets support random access iterators.
  89:/Library/DaisyToolchain/0.2.0/arm/arm-none-eabi/include/c++/10.3.1/array ****    *
  90:/Library/DaisyToolchain/0.2.0/arm/arm-none-eabi/include/c++/10.3.1/array ****    *  @tparam  Tp  Type of element. Required to be a complete type.
  91:/Library/DaisyToolchain/0.2.0/arm/arm-none-eabi/include/c++/10.3.1/array ****    *  @tparam  Nm  Number of elements.
  92:/Library/DaisyToolchain/0.2.0/arm/arm-none-eabi/include/c++/10.3.1/array ****   */
  93:/Library/DaisyToolchain/0.2.0/arm/arm-none-eabi/include/c++/10.3.1/array ****   template<typename _Tp, std::size_t _Nm>
  94:/Library/DaisyToolchain/0.2.0/arm/arm-none-eabi/include/c++/10.3.1/array ****     struct array
 157              		.loc 11 94 12 view .LVU18
 158              		.loc 11 94 12 is_stmt 0 view .LVU19
 159              	.LBE229:
 160              	.LBE228:
 161              	.LBB230:
 162              	.LBI230:
 163              		.file 12 "lib/DaisySP/Source/Utility/delayline.h"
   1:lib/DaisySP/Source/Utility/delayline.h **** /*
   2:lib/DaisySP/Source/Utility/delayline.h **** Copyright (c) 2020 Electrosmith, Corp
   3:lib/DaisySP/Source/Utility/delayline.h **** 
   4:lib/DaisySP/Source/Utility/delayline.h **** Use of this source code is governed by an MIT-style
   5:lib/DaisySP/Source/Utility/delayline.h **** license that can be found in the LICENSE file or at
   6:lib/DaisySP/Source/Utility/delayline.h **** https://opensource.org/licenses/MIT.
   7:lib/DaisySP/Source/Utility/delayline.h **** */
   8:lib/DaisySP/Source/Utility/delayline.h **** 
   9:lib/DaisySP/Source/Utility/delayline.h **** #pragma once
  10:lib/DaisySP/Source/Utility/delayline.h **** #ifndef DSY_DELAY_H
  11:lib/DaisySP/Source/Utility/delayline.h **** #define DSY_DELAY_H
  12:lib/DaisySP/Source/Utility/delayline.h **** #include <stdlib.h>
  13:lib/DaisySP/Source/Utility/delayline.h **** #include <stdint.h>
  14:lib/DaisySP/Source/Utility/delayline.h **** namespace daisysp
  15:lib/DaisySP/Source/Utility/delayline.h **** {
  16:lib/DaisySP/Source/Utility/delayline.h **** /** Simple Delay line.
  17:lib/DaisySP/Source/Utility/delayline.h **** November 2019
  18:lib/DaisySP/Source/Utility/delayline.h **** 
  19:lib/DaisySP/Source/Utility/delayline.h **** Converted to Template December 2019
  20:lib/DaisySP/Source/Utility/delayline.h **** 
  21:lib/DaisySP/Source/Utility/delayline.h **** declaration example: (1 second of floats)
  22:lib/DaisySP/Source/Utility/delayline.h **** 
  23:lib/DaisySP/Source/Utility/delayline.h **** DelayLine<float, SAMPLE_RATE> del;
  24:lib/DaisySP/Source/Utility/delayline.h **** 
  25:lib/DaisySP/Source/Utility/delayline.h **** By: shensley
  26:lib/DaisySP/Source/Utility/delayline.h **** */
  27:lib/DaisySP/Source/Utility/delayline.h **** template <typename T, size_t max_size>
  28:lib/DaisySP/Source/Utility/delayline.h **** class DelayLine
  29:lib/DaisySP/Source/Utility/delayline.h **** {
  30:lib/DaisySP/Source/Utility/delayline.h ****   public:
  31:lib/DaisySP/Source/Utility/delayline.h ****     DelayLine() {}
  32:lib/DaisySP/Source/Utility/delayline.h ****     ~DelayLine() {}
 164              		.loc 12 32 5 is_stmt 1 view .LVU20
 165              		.loc 12 32 5 is_stmt 0 view .LVU21
 166              	.LBE230:
 167              		.loc 9 25 23 view .LVU22
ARM GAS  /var/folders/9s/8rp0_f2s1n31qbztm3b5_fdh0000gn/T//ccSMtkyz.s 			page 15


 168 0000 7047     		bx	lr
 169              		.cfi_endproc
 170              	.LFE5820:
 172              		.weak	_ZN10infrasonic9EchoDelayILj48000EED1Ev
 173              		.thumb_set _ZN10infrasonic9EchoDelayILj48000EED1Ev,_ZN10infrasonic9EchoDelayILj48000EED2Ev
 174              		.section	.text._Z18InitializeHardwarev,"ax",%progbits
 175              		.align	1
 176              		.global	_Z18InitializeHardwarev
 177              		.syntax unified
 178              		.thumb
 179              		.thumb_func
 181              	_Z18InitializeHardwarev:
 182              	.LFB5057:
 183              		.file 13 "Interface.cpp"
   1:Interface.cpp **** #include "Amathia.h"
   2:Interface.cpp **** 
   3:Interface.cpp **** // --- Global hardware variables ---
   4:Interface.cpp **** DaisySeed hw;
   5:Interface.cpp **** Mpr121 touch_sensor;
   6:Interface.cpp **** EchoDelay<48000> delay;
   7:Interface.cpp **** 
   8:Interface.cpp **** // Hardware controls - Order matches new ADC mapping
   9:Interface.cpp **** Switch button;
  10:Interface.cpp **** AnalogControl pitch_knob;          // ADC 0 (Pin 15) Plaits Pitch
  11:Interface.cpp **** AnalogControl harmonics_knob;      // ADC 1 (Pin 16) Plaits Harmonics
  12:Interface.cpp **** AnalogControl timbre_knob;         // ADC 2 (Pin 17) Plaits Timbre/Engine
  13:Interface.cpp **** AnalogControl decay_knob;          // ADC 3 (Pin 18) Plaits Decay
  14:Interface.cpp **** AnalogControl morph_knob;           // ADC 4 (Pin 20) Plaits Morph
  15:Interface.cpp **** AnalogControl delay_feedback_knob;  // ADC 5 (Pin 21) Delay Feedback
  16:Interface.cpp **** AnalogControl delay_time_knob;      // ADC 6 (Pin 22) Delay Time
  17:Interface.cpp **** AnalogControl delay_lag_knob;       // ADC 7 (Pin 23) Delay Lag
  18:Interface.cpp **** AnalogControl delay_mix_knob;       // ADC 8 (Pin 19) Delay Wet/Dry Mix
  19:Interface.cpp **** AnalogControl env_attack_knob;      // ADC 9 (Pin 24) Envelope Attack
  20:Interface.cpp **** AnalogControl env_release_knob;     // ADC 10 (Pin 25) Envelope Release
  21:Interface.cpp **** 
  22:Interface.cpp **** // CPU usage monitoring
  23:Interface.cpp **** float sample_rate = 48000.0f; 
  24:Interface.cpp **** volatile uint32_t avg_elapsed_us = 0; 
  25:Interface.cpp **** volatile bool update_display = false; 
  26:Interface.cpp **** // Output Level monitoring
  27:Interface.cpp **** volatile float smoothed_output_level = 0.0f; 
  28:Interface.cpp **** 
  29:Interface.cpp **** // Bootloader configuration
  30:Interface.cpp **** const uint32_t BOOTLOADER_HOLD_TIME_MS = 3000; // Hold button for 3 seconds
  31:Interface.cpp **** uint32_t button_held_start_time = 0;
  32:Interface.cpp **** bool button_was_pressed = false;
  33:Interface.cpp **** 
  34:Interface.cpp **** // --- Initialization functions ---
  35:Interface.cpp **** void InitializeHardware() {
 184              		.loc 13 35 27 is_stmt 1 view -0
 185              		.cfi_startproc
 186              		@ args = 0, pretend = 0, frame = 0
 187              		@ frame_needed = 0, uses_anonymous_args = 0
  36:Interface.cpp ****     // Initialize Daisy Seed hardware
  37:Interface.cpp ****     hw.Configure();
 188              		.loc 13 37 5 view .LVU24
  35:Interface.cpp ****     // Initialize Daisy Seed hardware
ARM GAS  /var/folders/9s/8rp0_f2s1n31qbztm3b5_fdh0000gn/T//ccSMtkyz.s 			page 16


 189              		.loc 13 35 27 is_stmt 0 view .LVU25
 190 0000 10B5     		push	{r4, lr}
 191              		.cfi_def_cfa_offset 8
 192              		.cfi_offset 4, -8
 193              		.cfi_offset 14, -4
 194              		.loc 13 37 17 view .LVU26
 195 0002 0D48     		ldr	r0, .L7
 196 0004 FFF7FEFF 		bl	_ZN5daisy9DaisySeed9ConfigureEv
 197              	.LVL5:
  38:Interface.cpp ****     hw.Init();
 198              		.loc 13 38 5 is_stmt 1 view .LVU27
 199              		.loc 13 38 12 is_stmt 0 view .LVU28
 200 0008 0021     		movs	r1, #0
 201 000a 0B48     		ldr	r0, .L7
 202 000c FFF7FEFF 		bl	_ZN5daisy9DaisySeed4InitEb
 203              	.LVL6:
  39:Interface.cpp ****     hw.SetAudioBlockSize(BLOCK_SIZE);
 204              		.loc 13 39 5 is_stmt 1 view .LVU29
 205              		.loc 13 39 25 is_stmt 0 view .LVU30
 206 0010 1021     		movs	r1, #16
 207 0012 0948     		ldr	r0, .L7
 208 0014 FFF7FEFF 		bl	_ZN5daisy9DaisySeed17SetAudioBlockSizeEj
 209              	.LVL7:
  40:Interface.cpp ****     sample_rate = hw.AudioSampleRate();
 210              		.loc 13 40 5 is_stmt 1 view .LVU31
 211              		.loc 13 40 17 is_stmt 0 view .LVU32
 212 0018 084C     		ldr	r4, .L7+4
 213              		.loc 13 40 37 view .LVU33
 214 001a 0748     		ldr	r0, .L7
 215 001c FFF7FEFF 		bl	_ZN5daisy9DaisySeed15AudioSampleRateEv
 216              	.LVL8:
  41:Interface.cpp ****     hw.SetAudioSampleRate(SaiHandle::Config::SampleRate::SAI_48KHZ); // Using 48kHz now
 217              		.loc 13 41 26 view .LVU34
 218 0020 0321     		movs	r1, #3
 219 0022 0548     		ldr	r0, .L7
  40:Interface.cpp ****     sample_rate = hw.AudioSampleRate();
 220              		.loc 13 40 17 view .LVU35
 221 0024 84ED000A 		vstr.32	s0, [r4]
 222              		.loc 13 41 5 is_stmt 1 view .LVU36
 223              		.loc 13 41 26 is_stmt 0 view .LVU37
 224 0028 FFF7FEFF 		bl	_ZN5daisy9DaisySeed18SetAudioSampleRateENS_9SaiHandle6Config10SampleRateE
 225              	.LVL9:
  42:Interface.cpp ****     sample_rate = hw.AudioSampleRate(); // Update sample_rate after setting it
 226              		.loc 13 42 5 is_stmt 1 view .LVU38
 227              		.loc 13 42 37 is_stmt 0 view .LVU39
 228 002c 0248     		ldr	r0, .L7
 229 002e FFF7FEFF 		bl	_ZN5daisy9DaisySeed15AudioSampleRateEv
 230              	.LVL10:
 231              		.loc 13 42 17 view .LVU40
 232 0032 84ED000A 		vstr.32	s0, [r4]
  43:Interface.cpp **** }
 233              		.loc 13 43 1 view .LVU41
 234 0036 10BD     		pop	{r4, pc}
 235              	.L8:
 236              		.align	2
 237              	.L7:
 238 0038 00000000 		.word	.LANCHOR0
ARM GAS  /var/folders/9s/8rp0_f2s1n31qbztm3b5_fdh0000gn/T//ccSMtkyz.s 			page 17


 239 003c 00000000 		.word	.LANCHOR1
 240              		.cfi_endproc
 241              	.LFE5057:
 243              		.section	.text._Z18InitializeControlsv,"ax",%progbits
 244              		.align	1
 245              		.global	_Z18InitializeControlsv
 246              		.syntax unified
 247              		.thumb
 248              		.thumb_func
 250              	_Z18InitializeControlsv:
 251              	.LFB5058:
  44:Interface.cpp **** 
  45:Interface.cpp **** void InitializeControls() {
 252              		.loc 13 45 27 is_stmt 1 view -0
 253              		.cfi_startproc
 254              		@ args = 0, pretend = 0, frame = 240
 255              		@ frame_needed = 0, uses_anonymous_args = 0
  46:Interface.cpp ****     // --- Configure ADCs (11 Channels - New Mapping) ---
  47:Interface.cpp ****     AdcChannelConfig adc_config[11]; 
 256              		.loc 13 47 5 view .LVU43
  48:Interface.cpp ****     adc_config[0].InitSingle(hw.GetPin(15)); // ADC 0: Plaits Pitch
 257              		.loc 13 48 5 view .LVU44
  45:Interface.cpp ****     // --- Configure ADCs (11 Channels - New Mapping) ---
 258              		.loc 13 45 27 is_stmt 0 view .LVU45
 259 0000 30B5     		push	{r4, r5, lr}
 260              		.cfi_def_cfa_offset 12
 261              		.cfi_offset 4, -12
 262              		.cfi_offset 5, -8
 263              		.cfi_offset 14, -4
 264 0002 2DED028B 		vpush.64	{d8}
 265              		.cfi_def_cfa_offset 20
 266              		.cfi_offset 80, -20
 267              		.cfi_offset 81, -16
 268 0006 BDB0     		sub	sp, sp, #244
 269              		.cfi_def_cfa_offset 264
 270              		.loc 13 48 29 view .LVU46
 271 0008 0F20     		movs	r0, #15
 272 000a FFF7FEFF 		bl	_ZN5daisy9DaisySeed6GetPinEh
 273              	.LVL11:
  49:Interface.cpp ****     adc_config[1].InitSingle(hw.GetPin(16)); // ADC 1: Plaits Harmonics
  50:Interface.cpp ****     adc_config[2].InitSingle(hw.GetPin(17)); // ADC 2: Plaits Timbre/Engine
  51:Interface.cpp ****     adc_config[3].InitSingle(hw.GetPin(18)); // ADC 3: Plaits Decay
  52:Interface.cpp ****     adc_config[4].InitSingle(hw.GetPin(20)); // ADC 4: Plaits Morph
  53:Interface.cpp ****     adc_config[5].InitSingle(hw.GetPin(21)); // ADC 5: Delay Feedback
  54:Interface.cpp ****     adc_config[6].InitSingle(hw.GetPin(22)); // ADC 6: Delay Time
  55:Interface.cpp ****     adc_config[7].InitSingle(hw.GetPin(23)); // ADC 7: Delay Lag
  56:Interface.cpp ****     adc_config[8].InitSingle(hw.GetPin(19)); // ADC 8: Delay Wet/Dry Mix
  57:Interface.cpp ****     adc_config[9].InitSingle(hw.GetPin(24)); // ADC 9: Envelope Attack
  58:Interface.cpp ****     adc_config[10].InitSingle(hw.GetPin(25)); // ADC 10: Envelope Release
  59:Interface.cpp ****     hw.adc.Init(adc_config, 11); // Initialize 11 channels
 274              		.loc 13 59 16 view .LVU47
 275 000e 914C     		ldr	r4, .L10
  48:Interface.cpp ****     adc_config[1].InitSingle(hw.GetPin(16)); // ADC 1: Plaits Harmonics
 276              		.loc 13 48 29 view .LVU48
 277 0010 ADF80400 		strh	r0, [sp, #4]	@ movhi
 278 0014 0DA8     		add	r0, sp, #52
 279 0016 0199     		ldr	r1, [sp, #4]
ARM GAS  /var/folders/9s/8rp0_f2s1n31qbztm3b5_fdh0000gn/T//ccSMtkyz.s 			page 18


 280 0018 FFF7FEFF 		bl	_ZN5daisy16AdcChannelConfig10InitSingleE12dsy_gpio_pin
 281              	.LVL12:
  49:Interface.cpp ****     adc_config[1].InitSingle(hw.GetPin(16)); // ADC 1: Plaits Harmonics
 282              		.loc 13 49 5 is_stmt 1 view .LVU49
  49:Interface.cpp ****     adc_config[1].InitSingle(hw.GetPin(16)); // ADC 1: Plaits Harmonics
 283              		.loc 13 49 29 is_stmt 0 view .LVU50
 284 001c 1020     		movs	r0, #16
 285 001e FFF7FEFF 		bl	_ZN5daisy9DaisySeed6GetPinEh
 286              	.LVL13:
 287 0022 ADF80800 		strh	r0, [sp, #8]	@ movhi
 288 0026 0299     		ldr	r1, [sp, #8]
 289 0028 0DF14500 		add	r0, sp, #69
 290 002c FFF7FEFF 		bl	_ZN5daisy16AdcChannelConfig10InitSingleE12dsy_gpio_pin
 291              	.LVL14:
  50:Interface.cpp ****     adc_config[3].InitSingle(hw.GetPin(18)); // ADC 3: Plaits Decay
 292              		.loc 13 50 5 is_stmt 1 view .LVU51
  50:Interface.cpp ****     adc_config[3].InitSingle(hw.GetPin(18)); // ADC 3: Plaits Decay
 293              		.loc 13 50 29 is_stmt 0 view .LVU52
 294 0030 1120     		movs	r0, #17
 295 0032 FFF7FEFF 		bl	_ZN5daisy9DaisySeed6GetPinEh
 296              	.LVL15:
 297 0036 ADF80C00 		strh	r0, [sp, #12]	@ movhi
 298 003a 0399     		ldr	r1, [sp, #12]
 299 003c 0DF15600 		add	r0, sp, #86
 300 0040 FFF7FEFF 		bl	_ZN5daisy16AdcChannelConfig10InitSingleE12dsy_gpio_pin
 301              	.LVL16:
  51:Interface.cpp ****     adc_config[4].InitSingle(hw.GetPin(20)); // ADC 4: Plaits Morph
 302              		.loc 13 51 5 is_stmt 1 view .LVU53
  51:Interface.cpp ****     adc_config[4].InitSingle(hw.GetPin(20)); // ADC 4: Plaits Morph
 303              		.loc 13 51 29 is_stmt 0 view .LVU54
 304 0044 1220     		movs	r0, #18
 305 0046 FFF7FEFF 		bl	_ZN5daisy9DaisySeed6GetPinEh
 306              	.LVL17:
 307 004a ADF81000 		strh	r0, [sp, #16]	@ movhi
 308 004e 0499     		ldr	r1, [sp, #16]
 309 0050 0DF16700 		add	r0, sp, #103
 310 0054 FFF7FEFF 		bl	_ZN5daisy16AdcChannelConfig10InitSingleE12dsy_gpio_pin
 311              	.LVL18:
  52:Interface.cpp ****     adc_config[5].InitSingle(hw.GetPin(21)); // ADC 5: Delay Feedback
 312              		.loc 13 52 5 is_stmt 1 view .LVU55
  52:Interface.cpp ****     adc_config[5].InitSingle(hw.GetPin(21)); // ADC 5: Delay Feedback
 313              		.loc 13 52 29 is_stmt 0 view .LVU56
 314 0058 1420     		movs	r0, #20
 315 005a FFF7FEFF 		bl	_ZN5daisy9DaisySeed6GetPinEh
 316              	.LVL19:
 317 005e ADF81400 		strh	r0, [sp, #20]	@ movhi
 318 0062 0599     		ldr	r1, [sp, #20]
 319 0064 1EA8     		add	r0, sp, #120
 320 0066 FFF7FEFF 		bl	_ZN5daisy16AdcChannelConfig10InitSingleE12dsy_gpio_pin
 321              	.LVL20:
  53:Interface.cpp ****     adc_config[6].InitSingle(hw.GetPin(22)); // ADC 6: Delay Time
 322              		.loc 13 53 5 is_stmt 1 view .LVU57
  53:Interface.cpp ****     adc_config[6].InitSingle(hw.GetPin(22)); // ADC 6: Delay Time
 323              		.loc 13 53 29 is_stmt 0 view .LVU58
 324 006a 1520     		movs	r0, #21
 325 006c FFF7FEFF 		bl	_ZN5daisy9DaisySeed6GetPinEh
 326              	.LVL21:
ARM GAS  /var/folders/9s/8rp0_f2s1n31qbztm3b5_fdh0000gn/T//ccSMtkyz.s 			page 19


 327 0070 ADF81800 		strh	r0, [sp, #24]	@ movhi
 328 0074 0699     		ldr	r1, [sp, #24]
 329 0076 0DF18900 		add	r0, sp, #137
 330 007a FFF7FEFF 		bl	_ZN5daisy16AdcChannelConfig10InitSingleE12dsy_gpio_pin
 331              	.LVL22:
  54:Interface.cpp ****     adc_config[7].InitSingle(hw.GetPin(23)); // ADC 7: Delay Lag
 332              		.loc 13 54 5 is_stmt 1 view .LVU59
  54:Interface.cpp ****     adc_config[7].InitSingle(hw.GetPin(23)); // ADC 7: Delay Lag
 333              		.loc 13 54 29 is_stmt 0 view .LVU60
 334 007e 1620     		movs	r0, #22
 335 0080 FFF7FEFF 		bl	_ZN5daisy9DaisySeed6GetPinEh
 336              	.LVL23:
 337 0084 ADF81C00 		strh	r0, [sp, #28]	@ movhi
 338 0088 0799     		ldr	r1, [sp, #28]
 339 008a 0DF19A00 		add	r0, sp, #154
 340 008e FFF7FEFF 		bl	_ZN5daisy16AdcChannelConfig10InitSingleE12dsy_gpio_pin
 341              	.LVL24:
  55:Interface.cpp ****     adc_config[8].InitSingle(hw.GetPin(19)); // ADC 8: Delay Wet/Dry Mix
 342              		.loc 13 55 5 is_stmt 1 view .LVU61
  55:Interface.cpp ****     adc_config[8].InitSingle(hw.GetPin(19)); // ADC 8: Delay Wet/Dry Mix
 343              		.loc 13 55 29 is_stmt 0 view .LVU62
 344 0092 1720     		movs	r0, #23
 345 0094 FFF7FEFF 		bl	_ZN5daisy9DaisySeed6GetPinEh
 346              	.LVL25:
 347 0098 ADF82000 		strh	r0, [sp, #32]	@ movhi
 348 009c 0899     		ldr	r1, [sp, #32]
 349 009e 0DF1AB00 		add	r0, sp, #171
 350 00a2 FFF7FEFF 		bl	_ZN5daisy16AdcChannelConfig10InitSingleE12dsy_gpio_pin
 351              	.LVL26:
  56:Interface.cpp ****     adc_config[9].InitSingle(hw.GetPin(24)); // ADC 9: Envelope Attack
 352              		.loc 13 56 5 is_stmt 1 view .LVU63
  56:Interface.cpp ****     adc_config[9].InitSingle(hw.GetPin(24)); // ADC 9: Envelope Attack
 353              		.loc 13 56 29 is_stmt 0 view .LVU64
 354 00a6 1320     		movs	r0, #19
 355 00a8 FFF7FEFF 		bl	_ZN5daisy9DaisySeed6GetPinEh
 356              	.LVL27:
 357 00ac ADF82400 		strh	r0, [sp, #36]	@ movhi
 358 00b0 0999     		ldr	r1, [sp, #36]
 359 00b2 2FA8     		add	r0, sp, #188
 360 00b4 FFF7FEFF 		bl	_ZN5daisy16AdcChannelConfig10InitSingleE12dsy_gpio_pin
 361              	.LVL28:
  57:Interface.cpp ****     adc_config[10].InitSingle(hw.GetPin(25)); // ADC 10: Envelope Release
 362              		.loc 13 57 5 is_stmt 1 view .LVU65
  57:Interface.cpp ****     adc_config[10].InitSingle(hw.GetPin(25)); // ADC 10: Envelope Release
 363              		.loc 13 57 29 is_stmt 0 view .LVU66
 364 00b8 1820     		movs	r0, #24
 365 00ba FFF7FEFF 		bl	_ZN5daisy9DaisySeed6GetPinEh
 366              	.LVL29:
 367 00be ADF82800 		strh	r0, [sp, #40]	@ movhi
 368 00c2 0A99     		ldr	r1, [sp, #40]
 369 00c4 0DF1CD00 		add	r0, sp, #205
 370 00c8 FFF7FEFF 		bl	_ZN5daisy16AdcChannelConfig10InitSingleE12dsy_gpio_pin
 371              	.LVL30:
  58:Interface.cpp ****     hw.adc.Init(adc_config, 11); // Initialize 11 channels
 372              		.loc 13 58 5 is_stmt 1 view .LVU67
  58:Interface.cpp ****     hw.adc.Init(adc_config, 11); // Initialize 11 channels
 373              		.loc 13 58 30 is_stmt 0 view .LVU68
ARM GAS  /var/folders/9s/8rp0_f2s1n31qbztm3b5_fdh0000gn/T//ccSMtkyz.s 			page 20


 374 00cc 1920     		movs	r0, #25
 375 00ce FFF7FEFF 		bl	_ZN5daisy9DaisySeed6GetPinEh
 376              	.LVL31:
 377 00d2 ADF82C00 		strh	r0, [sp, #44]	@ movhi
 378 00d6 0B99     		ldr	r1, [sp, #44]
 379 00d8 0DF1DE00 		add	r0, sp, #222
 380 00dc FFF7FEFF 		bl	_ZN5daisy16AdcChannelConfig10InitSingleE12dsy_gpio_pin
 381              	.LVL32:
 382              		.loc 13 59 5 is_stmt 1 view .LVU69
 383              		.loc 13 59 16 is_stmt 0 view .LVU70
 384 00e0 0423     		movs	r3, #4
 385 00e2 0B22     		movs	r2, #11
 386 00e4 0DA9     		add	r1, sp, #52
 387 00e6 2046     		mov	r0, r4
  60:Interface.cpp ****     hw.adc.Start();
  61:Interface.cpp **** 
  62:Interface.cpp ****     // --- Initialize Controls (Matches new mapping) ---
  63:Interface.cpp ****     pitch_knob.Init(hw.adc.GetPtr(0), sample_rate);          // ADC 0
 388              		.loc 13 63 20 view .LVU71
 389 00e8 5B4D     		ldr	r5, .L10+4
  59:Interface.cpp ****     hw.adc.Start();
 390              		.loc 13 59 16 view .LVU72
 391 00ea FFF7FEFF 		bl	_ZN5daisy9AdcHandle4InitEPNS_16AdcChannelConfigEjNS0_12OverSamplingE
 392              	.LVL33:
  60:Interface.cpp ****     hw.adc.Start();
 393              		.loc 13 60 5 is_stmt 1 view .LVU73
  60:Interface.cpp ****     hw.adc.Start();
 394              		.loc 13 60 17 is_stmt 0 view .LVU74
 395 00ee 2046     		mov	r0, r4
 396 00f0 FFF7FEFF 		bl	_ZN5daisy9AdcHandle5StartEv
 397              	.LVL34:
 398              		.loc 13 63 5 is_stmt 1 view .LVU75
 399              		.loc 13 63 20 is_stmt 0 view .LVU76
 400 00f4 0021     		movs	r1, #0
 401 00f6 2046     		mov	r0, r4
 402 00f8 9FED588A 		vldr.32	s16, .L10+8
 403 00fc FFF7FEFF 		bl	_ZNK5daisy9AdcHandle6GetPtrEh
 404              	.LVL35:
 405 0100 0023     		movs	r3, #0
 406 0102 F0EE480A 		vmov.f32	s1, s16
 407 0106 95ED000A 		vldr.32	s0, [r5]
 408 010a 1A46     		mov	r2, r3
 409 010c 0146     		mov	r1, r0
 410 010e 5448     		ldr	r0, .L10+12
 411 0110 FFF7FEFF 		bl	_ZN5daisy13AnalogControl4InitEPtfbbf
 412              	.LVL36:
  64:Interface.cpp ****     harmonics_knob.Init(hw.adc.GetPtr(1), sample_rate);      // ADC 1
 413              		.loc 13 64 5 is_stmt 1 view .LVU77
 414              		.loc 13 64 24 is_stmt 0 view .LVU78
 415 0114 0121     		movs	r1, #1
 416 0116 2046     		mov	r0, r4
 417 0118 FFF7FEFF 		bl	_ZNK5daisy9AdcHandle6GetPtrEh
 418              	.LVL37:
 419 011c 0023     		movs	r3, #0
 420 011e F0EE480A 		vmov.f32	s1, s16
 421 0122 95ED000A 		vldr.32	s0, [r5]
 422 0126 1A46     		mov	r2, r3
ARM GAS  /var/folders/9s/8rp0_f2s1n31qbztm3b5_fdh0000gn/T//ccSMtkyz.s 			page 21


 423 0128 0146     		mov	r1, r0
 424 012a 4E48     		ldr	r0, .L10+16
 425 012c FFF7FEFF 		bl	_ZN5daisy13AnalogControl4InitEPtfbbf
 426              	.LVL38:
  65:Interface.cpp ****     timbre_knob.Init(hw.adc.GetPtr(2), sample_rate);         // ADC 2
 427              		.loc 13 65 5 is_stmt 1 view .LVU79
 428              		.loc 13 65 21 is_stmt 0 view .LVU80
 429 0130 0221     		movs	r1, #2
 430 0132 2046     		mov	r0, r4
 431 0134 FFF7FEFF 		bl	_ZNK5daisy9AdcHandle6GetPtrEh
 432              	.LVL39:
 433 0138 0023     		movs	r3, #0
 434 013a F0EE480A 		vmov.f32	s1, s16
 435 013e 95ED000A 		vldr.32	s0, [r5]
 436 0142 1A46     		mov	r2, r3
 437 0144 0146     		mov	r1, r0
 438 0146 4848     		ldr	r0, .L10+20
 439 0148 FFF7FEFF 		bl	_ZN5daisy13AnalogControl4InitEPtfbbf
 440              	.LVL40:
  66:Interface.cpp ****     decay_knob.Init(hw.adc.GetPtr(3), sample_rate);          // ADC 3
 441              		.loc 13 66 5 is_stmt 1 view .LVU81
 442              		.loc 13 66 20 is_stmt 0 view .LVU82
 443 014c 0321     		movs	r1, #3
 444 014e 2046     		mov	r0, r4
 445 0150 FFF7FEFF 		bl	_ZNK5daisy9AdcHandle6GetPtrEh
 446              	.LVL41:
 447 0154 0023     		movs	r3, #0
 448 0156 F0EE480A 		vmov.f32	s1, s16
 449 015a 95ED000A 		vldr.32	s0, [r5]
 450 015e 1A46     		mov	r2, r3
 451 0160 0146     		mov	r1, r0
 452 0162 4248     		ldr	r0, .L10+24
 453 0164 FFF7FEFF 		bl	_ZN5daisy13AnalogControl4InitEPtfbbf
 454              	.LVL42:
  67:Interface.cpp ****     morph_knob.Init(hw.adc.GetPtr(4), sample_rate);           // ADC 4
 455              		.loc 13 67 5 is_stmt 1 view .LVU83
 456              		.loc 13 67 20 is_stmt 0 view .LVU84
 457 0168 0421     		movs	r1, #4
 458 016a 2046     		mov	r0, r4
 459 016c FFF7FEFF 		bl	_ZNK5daisy9AdcHandle6GetPtrEh
 460              	.LVL43:
 461 0170 0023     		movs	r3, #0
 462 0172 F0EE480A 		vmov.f32	s1, s16
 463 0176 95ED000A 		vldr.32	s0, [r5]
 464 017a 1A46     		mov	r2, r3
 465 017c 0146     		mov	r1, r0
 466 017e 3C48     		ldr	r0, .L10+28
 467 0180 FFF7FEFF 		bl	_ZN5daisy13AnalogControl4InitEPtfbbf
 468              	.LVL44:
  68:Interface.cpp ****     delay_feedback_knob.Init(hw.adc.GetPtr(5), sample_rate); // ADC 5
 469              		.loc 13 68 5 is_stmt 1 view .LVU85
 470              		.loc 13 68 29 is_stmt 0 view .LVU86
 471 0184 0521     		movs	r1, #5
 472 0186 2046     		mov	r0, r4
 473 0188 FFF7FEFF 		bl	_ZNK5daisy9AdcHandle6GetPtrEh
 474              	.LVL45:
 475 018c 0023     		movs	r3, #0
ARM GAS  /var/folders/9s/8rp0_f2s1n31qbztm3b5_fdh0000gn/T//ccSMtkyz.s 			page 22


 476 018e F0EE480A 		vmov.f32	s1, s16
 477 0192 95ED000A 		vldr.32	s0, [r5]
 478 0196 1A46     		mov	r2, r3
 479 0198 0146     		mov	r1, r0
 480 019a 3648     		ldr	r0, .L10+32
 481 019c FFF7FEFF 		bl	_ZN5daisy13AnalogControl4InitEPtfbbf
 482              	.LVL46:
  69:Interface.cpp ****     delay_time_knob.Init(hw.adc.GetPtr(6), sample_rate);     // ADC 6
 483              		.loc 13 69 5 is_stmt 1 view .LVU87
 484              		.loc 13 69 25 is_stmt 0 view .LVU88
 485 01a0 0621     		movs	r1, #6
 486 01a2 2046     		mov	r0, r4
 487 01a4 FFF7FEFF 		bl	_ZNK5daisy9AdcHandle6GetPtrEh
 488              	.LVL47:
 489 01a8 0023     		movs	r3, #0
 490 01aa F0EE480A 		vmov.f32	s1, s16
 491 01ae 95ED000A 		vldr.32	s0, [r5]
 492 01b2 1A46     		mov	r2, r3
 493 01b4 0146     		mov	r1, r0
 494 01b6 3048     		ldr	r0, .L10+36
 495 01b8 FFF7FEFF 		bl	_ZN5daisy13AnalogControl4InitEPtfbbf
 496              	.LVL48:
  70:Interface.cpp ****     delay_lag_knob.Init(hw.adc.GetPtr(7), sample_rate);      // ADC 7
 497              		.loc 13 70 5 is_stmt 1 view .LVU89
 498              		.loc 13 70 24 is_stmt 0 view .LVU90
 499 01bc 0721     		movs	r1, #7
 500 01be 2046     		mov	r0, r4
 501 01c0 FFF7FEFF 		bl	_ZNK5daisy9AdcHandle6GetPtrEh
 502              	.LVL49:
 503 01c4 0023     		movs	r3, #0
 504 01c6 F0EE480A 		vmov.f32	s1, s16
 505 01ca 95ED000A 		vldr.32	s0, [r5]
 506 01ce 1A46     		mov	r2, r3
 507 01d0 0146     		mov	r1, r0
 508 01d2 2A48     		ldr	r0, .L10+40
 509 01d4 FFF7FEFF 		bl	_ZN5daisy13AnalogControl4InitEPtfbbf
 510              	.LVL50:
  71:Interface.cpp ****     delay_mix_knob.Init(hw.adc.GetPtr(8), sample_rate);       // ADC 8
 511              		.loc 13 71 5 is_stmt 1 view .LVU91
 512              		.loc 13 71 24 is_stmt 0 view .LVU92
 513 01d8 0821     		movs	r1, #8
 514 01da 2046     		mov	r0, r4
 515 01dc FFF7FEFF 		bl	_ZNK5daisy9AdcHandle6GetPtrEh
 516              	.LVL51:
 517 01e0 0023     		movs	r3, #0
 518 01e2 F0EE480A 		vmov.f32	s1, s16
 519 01e6 95ED000A 		vldr.32	s0, [r5]
 520 01ea 1A46     		mov	r2, r3
 521 01ec 0146     		mov	r1, r0
 522 01ee 2448     		ldr	r0, .L10+44
 523 01f0 FFF7FEFF 		bl	_ZN5daisy13AnalogControl4InitEPtfbbf
 524              	.LVL52:
  72:Interface.cpp ****     env_attack_knob.Init(hw.adc.GetPtr(9), sample_rate);     // ADC 9
 525              		.loc 13 72 5 is_stmt 1 view .LVU93
 526              		.loc 13 72 25 is_stmt 0 view .LVU94
 527 01f4 0921     		movs	r1, #9
 528 01f6 2046     		mov	r0, r4
ARM GAS  /var/folders/9s/8rp0_f2s1n31qbztm3b5_fdh0000gn/T//ccSMtkyz.s 			page 23


 529 01f8 FFF7FEFF 		bl	_ZNK5daisy9AdcHandle6GetPtrEh
 530              	.LVL53:
 531 01fc 0023     		movs	r3, #0
 532 01fe F0EE480A 		vmov.f32	s1, s16
 533 0202 95ED000A 		vldr.32	s0, [r5]
 534 0206 1A46     		mov	r2, r3
 535 0208 0146     		mov	r1, r0
 536 020a 1E48     		ldr	r0, .L10+48
 537 020c FFF7FEFF 		bl	_ZN5daisy13AnalogControl4InitEPtfbbf
 538              	.LVL54:
  73:Interface.cpp ****     env_release_knob.Init(hw.adc.GetPtr(10), sample_rate);   // ADC 10
 539              		.loc 13 73 5 is_stmt 1 view .LVU95
 540              		.loc 13 73 26 is_stmt 0 view .LVU96
 541 0210 0A21     		movs	r1, #10
 542 0212 2046     		mov	r0, r4
 543 0214 FFF7FEFF 		bl	_ZNK5daisy9AdcHandle6GetPtrEh
 544              	.LVL55:
 545 0218 0023     		movs	r3, #0
 546 021a F0EE480A 		vmov.f32	s1, s16
 547 021e 0146     		mov	r1, r0
 548 0220 1A46     		mov	r2, r3
 549 0222 95ED000A 		vldr.32	s0, [r5]
 550 0226 1848     		ldr	r0, .L10+52
 551 0228 FFF7FEFF 		bl	_ZN5daisy13AnalogControl4InitEPtfbbf
 552              	.LVL56:
  74:Interface.cpp **** 
  75:Interface.cpp ****     // --- Initialize Buttons ---
  76:Interface.cpp ****     button.Init(hw.GetPin(27), sample_rate / 48.0f);
 553              		.loc 13 76 5 is_stmt 1 view .LVU97
 554              		.loc 13 76 16 is_stmt 0 view .LVU98
 555 022c 1B20     		movs	r0, #27
 556 022e FFF7FEFF 		bl	_ZN5daisy9DaisySeed6GetPinEh
 557              	.LVL57:
 558 0232 95ED000A 		vldr.32	s0, [r5]
 559 0236 DFED157A 		vldr.32	s15, .L10+56
 560 023a ADF83000 		strh	r0, [sp, #48]	@ movhi
 561 023e 80EE270A 		vdiv.f32	s0, s0, s15
 562 0242 0C99     		ldr	r1, [sp, #48]
 563 0244 1248     		ldr	r0, .L10+60
 564 0246 FFF7FEFF 		bl	_ZN5daisy6Switch4InitE12dsy_gpio_pinf
 565              	.LVL58:
  77:Interface.cpp **** }
 566              		.loc 13 77 1 view .LVU99
 567 024a 3DB0     		add	sp, sp, #244
 568              		.cfi_def_cfa_offset 20
 569              		@ sp needed
 570 024c BDEC028B 		vldm	sp!, {d8}
 571              		.cfi_restore 80
 572              		.cfi_restore 81
 573              		.cfi_def_cfa_offset 12
 574 0250 30BD     		pop	{r4, r5, pc}
 575              	.L11:
 576 0252 00BF     		.align	2
 577              	.L10:
 578 0254 18000000 		.word	.LANCHOR0+24
 579 0258 00000000 		.word	.LANCHOR1
 580 025c 6F12033B 		.word	990057071
ARM GAS  /var/folders/9s/8rp0_f2s1n31qbztm3b5_fdh0000gn/T//ccSMtkyz.s 			page 24


 581 0260 00000000 		.word	.LANCHOR2
 582 0264 00000000 		.word	.LANCHOR3
 583 0268 00000000 		.word	.LANCHOR4
 584 026c 00000000 		.word	.LANCHOR5
 585 0270 00000000 		.word	.LANCHOR6
 586 0274 00000000 		.word	.LANCHOR7
 587 0278 00000000 		.word	.LANCHOR8
 588 027c 00000000 		.word	.LANCHOR9
 589 0280 00000000 		.word	.LANCHOR10
 590 0284 00000000 		.word	.LANCHOR11
 591 0288 00000000 		.word	.LANCHOR12
 592 028c 00004042 		.word	1111490560
 593 0290 00000000 		.word	.LANCHOR13
 594              		.cfi_endproc
 595              	.LFE5058:
 597              		.section	.text._Z21InitializeTouchSensorv,"ax",%progbits
 598              		.align	1
 599              		.global	_Z21InitializeTouchSensorv
 600              		.syntax unified
 601              		.thumb
 602              		.thumb_func
 604              	_Z21InitializeTouchSensorv:
 605              	.LFB5059:
  78:Interface.cpp **** 
  79:Interface.cpp **** void InitializeTouchSensor() {
 606              		.loc 13 79 30 is_stmt 1 view -0
 607              		.cfi_startproc
 608              		@ args = 0, pretend = 0, frame = 24
 609              		@ frame_needed = 0, uses_anonymous_args = 0
  80:Interface.cpp ****     // --- Initialize MPR121 ---
  81:Interface.cpp ****     Mpr121::Config touch_config;
 610              		.loc 13 81 5 view .LVU101
  79:Interface.cpp ****     // --- Initialize MPR121 ---
 611              		.loc 13 79 30 is_stmt 0 view .LVU102
 612 0000 7FB5     		push	{r0, r1, r2, r3, r4, r5, r6, lr}
 613              		.cfi_def_cfa_offset 32
 614              		.cfi_offset 14, -4
 615              	.LVL59:
 616              	.LBB241:
 617              	.LBI241:
  58:mpr121_daisy.h **** 
  59:mpr121_daisy.h ****     struct Config
 618              		.loc 8 59 12 is_stmt 1 view .LVU103
 619              	.LBB242:
 620              	.LBI242:
 621              		.file 14 "lib/libdaisy/src/per/i2c.h"
   1:lib/libdaisy/src/per/i2c.h **** #pragma once
   2:lib/libdaisy/src/per/i2c.h **** #include "daisy_core.h"
   3:lib/libdaisy/src/per/i2c.h **** 
   4:lib/libdaisy/src/per/i2c.h **** namespace daisy
   5:lib/libdaisy/src/per/i2c.h **** {
   6:lib/libdaisy/src/per/i2c.h **** /** A handle for interacting with an I2C peripheral. This is a dumb
   7:lib/libdaisy/src/per/i2c.h ****  *  gateway that internally points to one of the four I2C peripherals
   8:lib/libdaisy/src/per/i2c.h ****  *  after it was initialised. It can then be copied and passed around.
   9:lib/libdaisy/src/per/i2c.h ****  *  Use an I2CHandle like this:
  10:lib/libdaisy/src/per/i2c.h ****  *  
  11:lib/libdaisy/src/per/i2c.h ****  *      // setup the configuration
ARM GAS  /var/folders/9s/8rp0_f2s1n31qbztm3b5_fdh0000gn/T//ccSMtkyz.s 			page 25


  12:lib/libdaisy/src/per/i2c.h ****  *      I2CHandle::Config i2c_conf;
  13:lib/libdaisy/src/per/i2c.h ****  *      i2c_conf.periph = I2CHandle::Config::Peripheral::I2C_1;
  14:lib/libdaisy/src/per/i2c.h ****  *      i2c_conf.speed  = I2CHandle::Config::Speed::I2C_400KHZ;
  15:lib/libdaisy/src/per/i2c.h ****  *      i2c_conf.mode   = I2CHandle::Config::Mode::Master;
  16:lib/libdaisy/src/per/i2c.h ****  *      i2c_conf.pin_config.scl  = {DSY_GPIOB, 8};
  17:lib/libdaisy/src/per/i2c.h ****  *      i2c_conf.pin_config.sda  = {DSY_GPIOB, 9};
  18:lib/libdaisy/src/per/i2c.h ****  *      // initialise the peripheral
  19:lib/libdaisy/src/per/i2c.h ****  *      I2CHandle i2c;
  20:lib/libdaisy/src/per/i2c.h ****  *      i2c.Init(i2c_conf);
  21:lib/libdaisy/src/per/i2c.h ****  *      // now i2c points to the corresponding peripheral and can be used.
  22:lib/libdaisy/src/per/i2c.h ****  *      i2c.TransmitBlocking( ... );
  23:lib/libdaisy/src/per/i2c.h ****  */
  24:lib/libdaisy/src/per/i2c.h **** class I2CHandle
  25:lib/libdaisy/src/per/i2c.h **** {
  26:lib/libdaisy/src/per/i2c.h ****   public:
  27:lib/libdaisy/src/per/i2c.h ****     /** Contains settings for initialising an I2C interface. */
  28:lib/libdaisy/src/per/i2c.h ****     struct Config
 622              		.loc 14 28 12 view .LVU104
 623              	.LBB243:
 624 0002 1023     		movs	r3, #16
 625              	.LBE243:
 626              	.LBE242:
 627              	.LBE241:
 628              	.LBB246:
 629              	.LBB247:
  60:mpr121_daisy.h ****     {
  61:mpr121_daisy.h ****         I2CHandle::Config i2c_config;
  62:mpr121_daisy.h ****         uint8_t          i2c_address;
  63:mpr121_daisy.h **** 
  64:mpr121_daisy.h ****         void Defaults()
  65:mpr121_daisy.h ****         {
  66:mpr121_daisy.h ****             i2c_config.periph = I2CHandle::Config::Peripheral::I2C_1;
  67:mpr121_daisy.h ****             i2c_config.speed  = I2CHandle::Config::Speed::I2C_400KHZ;
 630              		.loc 8 67 31 is_stmt 0 view .LVU105
 631 0004 0122     		movs	r2, #1
 632              	.LBE247:
 633              	.LBE246:
  82:Interface.cpp ****     touch_config.Defaults();
  83:Interface.cpp ****     if (!touch_sensor.Init(touch_config)) {
 634              		.loc 13 83 27 view .LVU106
 635 0006 6946     		mov	r1, sp
 636 0008 1548     		ldr	r0, .L15
 637              	.LBB249:
 638              	.LBB245:
 639              	.LBB244:
 640              		.loc 14 28 12 view .LVU107
 641 000a 8DF81030 		strb	r3, [sp, #16]
 642              	.LVL60:
 643              		.loc 14 28 12 view .LVU108
 644              	.LBE244:
 645              	.LBE245:
 646              	.LBE249:
  82:Interface.cpp ****     touch_config.Defaults();
 647              		.loc 13 82 5 is_stmt 1 view .LVU109
 648              	.LBB250:
 649              	.LBI246:
  64:mpr121_daisy.h ****         {
ARM GAS  /var/folders/9s/8rp0_f2s1n31qbztm3b5_fdh0000gn/T//ccSMtkyz.s 			page 26


 650              		.loc 8 64 14 view .LVU110
 651              	.LBB248:
  66:mpr121_daisy.h ****             i2c_config.speed  = I2CHandle::Config::Speed::I2C_400KHZ;
 652              		.loc 8 66 13 view .LVU111
  66:mpr121_daisy.h ****             i2c_config.speed  = I2CHandle::Config::Speed::I2C_400KHZ;
 653              		.loc 8 66 31 is_stmt 0 view .LVU112
 654 000e 0023     		movs	r3, #0
  68:mpr121_daisy.h ****             i2c_config.mode   = I2CHandle::Config::Mode::I2C_MASTER;
 655              		.loc 8 68 31 view .LVU113
 656 0010 CDE90223 		strd	r2, r3, [sp, #8]
  66:mpr121_daisy.h ****             i2c_config.speed  = I2CHandle::Config::Speed::I2C_400KHZ;
 657              		.loc 8 66 31 view .LVU114
 658 0014 0093     		str	r3, [sp]
  67:mpr121_daisy.h ****             i2c_config.mode   = I2CHandle::Config::Mode::I2C_MASTER;
 659              		.loc 8 67 13 is_stmt 1 view .LVU115
  69:mpr121_daisy.h ****             i2c_config.pin_config.scl = {DSY_GPIOB, 8};
 660              		.loc 8 69 13 view .LVU116
 661              		.loc 8 69 39 is_stmt 0 view .LVU117
 662 0016 134B     		ldr	r3, .L15+4
 663 0018 1A88     		ldrh	r2, [r3]	@ unaligned
  70:mpr121_daisy.h ****             i2c_config.pin_config.sda = {DSY_GPIOB, 9};
 664              		.loc 8 70 39 view .LVU118
 665 001a 5B88     		ldrh	r3, [r3, #2]	@ unaligned
  69:mpr121_daisy.h ****             i2c_config.pin_config.scl = {DSY_GPIOB, 8};
 666              		.loc 8 69 39 view .LVU119
 667 001c ADF80420 		strh	r2, [sp, #4]	@ unaligned
 668              		.loc 8 70 13 is_stmt 1 view .LVU120
 669              		.loc 8 70 39 is_stmt 0 view .LVU121
 670 0020 ADF80630 		strh	r3, [sp, #6]	@ unaligned
  71:mpr121_daisy.h ****             i2c_address               = MPR121_I2CADDR_DEFAULT;
 671              		.loc 8 71 13 is_stmt 1 view .LVU122
 672              		.loc 8 71 39 is_stmt 0 view .LVU123
 673 0024 5A23     		movs	r3, #90
 674 0026 8DF81430 		strb	r3, [sp, #20]
 675              	.LVL61:
 676              		.loc 8 71 39 view .LVU124
 677              	.LBE248:
 678              	.LBE250:
 679              		.loc 13 83 5 is_stmt 1 view .LVU125
 680              		.loc 13 83 27 is_stmt 0 view .LVU126
 681 002a FFF7FEFF 		bl	_ZN6Mpr1214InitERKNS_6ConfigE
 682              	.LVL62:
 683              		.loc 13 83 5 view .LVU127
 684 002e 70B9     		cbnz	r0, .L13
 685              	.L14:
  84:Interface.cpp ****         while(1) { hw.SetLed(true); System::Delay(50); hw.SetLed(false); System::Delay(50); }
 686              		.loc 13 84 9 is_stmt 1 discriminator 1 view .LVU128
 687              		.loc 13 84 20 discriminator 1 view .LVU129
 688              		.loc 13 84 29 is_stmt 0 discriminator 1 view .LVU130
 689 0030 0121     		movs	r1, #1
 690 0032 0D48     		ldr	r0, .L15+8
 691 0034 FFF7FEFF 		bl	_ZN5daisy9DaisySeed6SetLedEb
 692              	.LVL63:
 693              		.loc 13 84 37 is_stmt 1 discriminator 1 view .LVU131
 694              		.loc 13 84 50 is_stmt 0 discriminator 1 view .LVU132
 695 0038 3220     		movs	r0, #50
 696 003a FFF7FEFF 		bl	_ZN5daisy6System5DelayEm
ARM GAS  /var/folders/9s/8rp0_f2s1n31qbztm3b5_fdh0000gn/T//ccSMtkyz.s 			page 27


 697              	.LVL64:
 698              		.loc 13 84 56 is_stmt 1 discriminator 1 view .LVU133
 699              		.loc 13 84 65 is_stmt 0 discriminator 1 view .LVU134
 700 003e 0021     		movs	r1, #0
 701 0040 0948     		ldr	r0, .L15+8
 702 0042 FFF7FEFF 		bl	_ZN5daisy9DaisySeed6SetLedEb
 703              	.LVL65:
 704              		.loc 13 84 74 is_stmt 1 discriminator 1 view .LVU135
 705              		.loc 13 84 87 is_stmt 0 discriminator 1 view .LVU136
 706 0046 3220     		movs	r0, #50
 707 0048 FFF7FEFF 		bl	_ZN5daisy6System5DelayEm
 708              	.LVL66:
 709              		.loc 13 84 9 is_stmt 1 discriminator 1 view .LVU137
 710 004c F0E7     		b	.L14
 711              	.L13:
 712              	.LBB251:
 713              	.LBI251:
  79:Interface.cpp ****     // --- Initialize MPR121 ---
 714              		.loc 13 79 6 view .LVU138
 715              	.LBB252:
  85:Interface.cpp ****     }
  86:Interface.cpp ****     // Override default thresholds for more sensitivity
  87:Interface.cpp ****     touch_sensor.SetThresholds(6, 3); 
 716              		.loc 13 87 5 view .LVU139
 717              		.loc 13 87 31 is_stmt 0 view .LVU140
 718 004e 0322     		movs	r2, #3
 719 0050 0621     		movs	r1, #6
 720 0052 0348     		ldr	r0, .L15
 721 0054 FFF7FEFF 		bl	_ZN6Mpr12113SetThresholdsEhh
 722              	.LVL67:
 723              	.LBE252:
 724              	.LBE251:
  88:Interface.cpp **** }
 725              		.loc 13 88 1 view .LVU141
 726 0058 07B0     		add	sp, sp, #28
 727              		.cfi_def_cfa_offset 4
 728              		@ sp needed
 729 005a 5DF804FB 		ldr	pc, [sp], #4
 730              	.L16:
 731 005e 00BF     		.align	2
 732              	.L15:
 733 0060 00000000 		.word	.LANCHOR15
 734 0064 00000000 		.word	.LANCHOR14
 735 0068 00000000 		.word	.LANCHOR0
 736              		.cfi_endproc
 737              	.LFE5059:
 739              		.section	.rodata._Z17HandleButtonInputv.str1.1,"aMS",%progbits,1
 740              	.LC2:
 741 0000 52657365 		.ascii	"Resetting to bootloader (Button Hold)...\000"
 741      7474696E 
 741      6720746F 
 741      20626F6F 
 741      746C6F61 
 742              		.section	.text._Z17HandleButtonInputv,"ax",%progbits
 743              		.align	1
 744              		.global	_Z17HandleButtonInputv
 745              		.syntax unified
ARM GAS  /var/folders/9s/8rp0_f2s1n31qbztm3b5_fdh0000gn/T//ccSMtkyz.s 			page 28


 746              		.thumb
 747              		.thumb_func
 749              	_Z17HandleButtonInputv:
 750              	.LFB5065:
  89:Interface.cpp **** 
  90:Interface.cpp **** void InitializeDelay() {
  91:Interface.cpp ****     // --- Initialize Echo Delay --- 
  92:Interface.cpp ****     delay.Init(sample_rate); 
  93:Interface.cpp ****     delay.SetLagTime(0.02f);         // Short lag for time changes
  94:Interface.cpp ****     delay.SetDelayTime(0.3f, true); // 300ms delay, set immediately
  95:Interface.cpp ****     delay.SetFeedback(0.5f);         // 50% feedback
  96:Interface.cpp **** }
  97:Interface.cpp **** 
  98:Interface.cpp **** void InitializeSynth() {
  99:Interface.cpp ****     InitializeHardware();
 100:Interface.cpp ****     InitializeVoices(); // Call function from Polyphony.cpp
 101:Interface.cpp ****     InitializeControls();
 102:Interface.cpp ****     InitializeTouchSensor();
 103:Interface.cpp ****     InitializeDelay();
 104:Interface.cpp ****     cpu_meter.Init(sample_rate, BLOCK_SIZE); // Initialize the CPU Load Meter
 105:Interface.cpp ****     
 106:Interface.cpp ****     // --- Start Audio ---
 107:Interface.cpp ****     hw.StartAudio(AudioCallback);
 108:Interface.cpp ****     
 109:Interface.cpp ****     // --- Serial Log (Needs to be started for USB reading) ---
 110:Interface.cpp ****     hw.StartLog(false); // Start log without waiting (important!)
 111:Interface.cpp ****     
 112:Interface.cpp ****     hw.PrintLine("Plaits Synth Started - Ready for Bootloader CMD");
 113:Interface.cpp ****     char settings[64];
 114:Interface.cpp ****     // Print Max Voices (compile time)
 115:Interface.cpp ****     sprintf(settings, "Max Voices: %d | Block: %d | SR: %d", NUM_VOICES, BLOCK_SIZE, (int)sample_ra
 116:Interface.cpp ****     hw.PrintLine(settings);
 117:Interface.cpp ****     sprintf(settings, "Engine Range: 0-%d", MAX_ENGINE_INDEX);
 118:Interface.cpp ****     hw.PrintLine(settings);
 119:Interface.cpp ****     sprintf(settings, "Mode: %s", (MAX_ENGINE_INDEX <=3) ? "Poly (0-3)" : "Dynamic Poly"); // Indic
 120:Interface.cpp ****     hw.PrintLine(settings);
 121:Interface.cpp ****     hw.PrintLine("----------------");
 122:Interface.cpp **** }
 123:Interface.cpp **** 
 124:Interface.cpp **** // --- User Interface Functions ---
 125:Interface.cpp **** void HandleButtonInput() {
 751              		.loc 13 125 26 is_stmt 1 view -0
 752              		.cfi_startproc
 753              		@ args = 0, pretend = 0, frame = 0
 754              		@ frame_needed = 0, uses_anonymous_args = 0
 126:Interface.cpp ****     bool button_pressed_now = button.RawState(); 
 755              		.loc 13 126 5 view .LVU143
 756              	.LVL68:
 757              	.LBB260:
 758              	.LBI260:
  43:lib/libdaisy/src/hid/switch.h **** 
  44:lib/libdaisy/src/hid/switch.h ****     /** 
  45:lib/libdaisy/src/hid/switch.h ****     Initializes the switch object with a given port/pin combo.
  46:lib/libdaisy/src/hid/switch.h ****     \param pin port/pin object to tell the switch which hardware pin to use.
  47:lib/libdaisy/src/hid/switch.h ****     \param update_rate Does nothing. Backwards compatibility until next breaking update.
  48:lib/libdaisy/src/hid/switch.h ****     \param t switch type -- Default: TYPE_MOMENTARY
  49:lib/libdaisy/src/hid/switch.h ****     \param pol switch polarity -- Default: POLARITY_INVERTED
ARM GAS  /var/folders/9s/8rp0_f2s1n31qbztm3b5_fdh0000gn/T//ccSMtkyz.s 			page 29


  50:lib/libdaisy/src/hid/switch.h ****     \param pu switch pull up/down -- Default: PULL_UP
  51:lib/libdaisy/src/hid/switch.h ****     */
  52:lib/libdaisy/src/hid/switch.h ****     void
  53:lib/libdaisy/src/hid/switch.h ****     Init(dsy_gpio_pin pin, float update_rate, Type t, Polarity pol, Pull pu);
  54:lib/libdaisy/src/hid/switch.h **** 
  55:lib/libdaisy/src/hid/switch.h ****     /**
  56:lib/libdaisy/src/hid/switch.h ****        Simplified Init.
  57:lib/libdaisy/src/hid/switch.h ****        \param pin port/pin object to tell the switch which hardware pin to use.
  58:lib/libdaisy/src/hid/switch.h ****        \param update_rate Left for backwards compatibility until next breaking change.
  59:lib/libdaisy/src/hid/switch.h ****     */
  60:lib/libdaisy/src/hid/switch.h ****     void Init(dsy_gpio_pin pin, float update_rate = 0.f);
  61:lib/libdaisy/src/hid/switch.h **** 
  62:lib/libdaisy/src/hid/switch.h ****     /** 
  63:lib/libdaisy/src/hid/switch.h ****     Called at update_rate to debounce and handle timing for the switch.
  64:lib/libdaisy/src/hid/switch.h ****     In order for events not to be missed, its important that the Edge/Pressed checks
  65:lib/libdaisy/src/hid/switch.h ****     be made at the same rate as the debounce function is being called.
  66:lib/libdaisy/src/hid/switch.h ****     */
  67:lib/libdaisy/src/hid/switch.h ****     void Debounce();
  68:lib/libdaisy/src/hid/switch.h **** 
  69:lib/libdaisy/src/hid/switch.h ****     /** \return true if a button was just pressed. */
  70:lib/libdaisy/src/hid/switch.h ****     inline bool RisingEdge() const { return state_ == 0x7f; }
  71:lib/libdaisy/src/hid/switch.h **** 
  72:lib/libdaisy/src/hid/switch.h ****     /** \return true if the button was just released */
  73:lib/libdaisy/src/hid/switch.h ****     inline bool FallingEdge() const { return state_ == 0x80; }
  74:lib/libdaisy/src/hid/switch.h **** 
  75:lib/libdaisy/src/hid/switch.h ****     /** \return true if the button is held down (or if the toggle is on) */
  76:lib/libdaisy/src/hid/switch.h ****     inline bool Pressed() const { return state_ == 0xff; }
  77:lib/libdaisy/src/hid/switch.h **** 
  78:lib/libdaisy/src/hid/switch.h ****     /** \return true if the button is held down, without debouncing */
  79:lib/libdaisy/src/hid/switch.h ****     inline bool RawState()
 759              		.loc 1 79 17 view .LVU144
 760              	.LBB261:
  80:lib/libdaisy/src/hid/switch.h ****     {
  81:lib/libdaisy/src/hid/switch.h ****         return flip_ ? !dsy_gpio_read(&hw_gpio_) : dsy_gpio_read(&hw_gpio_);
 761              		.loc 1 81 9 view .LVU145
 762              		.loc 1 81 16 is_stmt 0 view .LVU146
 763 0000 1848     		ldr	r0, .L28
 764              		.loc 1 81 22 view .LVU147
 765 0002 8379     		ldrb	r3, [r0, #6]	@ zero_extendqisi2
 766              		.loc 1 81 38 view .LVU148
 767 0004 0130     		adds	r0, r0, #1
 768              	.LBE261:
 769              	.LBE260:
 125:Interface.cpp ****     bool button_pressed_now = button.RawState(); 
 770              		.loc 13 125 26 view .LVU149
 771 0006 70B5     		push	{r4, r5, r6, lr}
 772              		.cfi_def_cfa_offset 16
 773              		.cfi_offset 4, -16
 774              		.cfi_offset 5, -12
 775              		.cfi_offset 6, -8
 776              		.cfi_offset 14, -4
 777              	.LBB264:
 778              	.LBB262:
 779              		.loc 1 81 22 view .LVU150
 780 0008 93B1     		cbz	r3, .L18
 781              		.loc 1 81 38 view .LVU151
 782 000a FFF7FEFF 		bl	dsy_gpio_read
ARM GAS  /var/folders/9s/8rp0_f2s1n31qbztm3b5_fdh0000gn/T//ccSMtkyz.s 			page 30


 783              	.LVL69:
 784              		.loc 1 81 24 view .LVU152
 785 000e B0FA80F0 		clz	r0, r0
 786 0012 4009     		lsrs	r0, r0, #5
 787              	.L19:
 788              		.loc 1 81 75 view .LVU153
 789 0014 0028     		cmp	r0, #0
 790 0016 144C     		ldr	r4, .L28+4
 791 0018 14BF     		ite	ne
 792 001a 0126     		movne	r6, #1
 793 001c 0026     		moveq	r6, #0
 794              	.LVL70:
 795              		.loc 1 81 75 view .LVU154
 796              	.LBE262:
 797              	.LBE264:
 127:Interface.cpp ****     if (button_pressed_now && !button_was_pressed) {
 798              		.loc 13 127 5 is_stmt 1 view .LVU155
 799              	.LBB265:
 800              		.loc 13 127 28 is_stmt 0 view .LVU156
 801 001e 2378     		ldrb	r3, [r4]	@ zero_extendqisi2
 802              		.loc 13 127 5 view .LVU157
 803 0020 1AD0     		beq	.L20
 804 0022 124D     		ldr	r5, .L28+8
 805              		.loc 13 127 28 discriminator 1 view .LVU158
 806 0024 3BB9     		cbnz	r3, .L21
 128:Interface.cpp ****         button_held_start_time = System::GetNow();
 807              		.loc 13 128 9 is_stmt 1 view .LVU159
 808              		.loc 13 128 48 is_stmt 0 view .LVU160
 809 0026 FFF7FEFF 		bl	_ZN5daisy6System6GetNowEv
 810              	.LVL71:
 811              		.loc 13 128 32 view .LVU161
 812 002a 2860     		str	r0, [r5]
 813              	.L22:
 814              	.LBE265:
 129:Interface.cpp ****     } else if (button_pressed_now && button_was_pressed) {
 130:Interface.cpp ****         uint32_t held_duration = System::GetNow() - button_held_start_time;
 131:Interface.cpp ****         if (held_duration > BOOTLOADER_HOLD_TIME_MS) { 
 132:Interface.cpp ****             hw.PrintLine("Resetting to bootloader (Button Hold)..."); 
 133:Interface.cpp ****             System::Delay(100); 
 134:Interface.cpp ****             System::ResetToBootloader();
 135:Interface.cpp ****         }
 136:Interface.cpp ****     } else if (!button_pressed_now && button_was_pressed) {
 137:Interface.cpp ****         button_held_start_time = 0;
 138:Interface.cpp ****     }
 139:Interface.cpp ****     button_was_pressed = button_pressed_now;
 815              		.loc 13 139 5 is_stmt 1 view .LVU162
 816              		.loc 13 139 24 is_stmt 0 view .LVU163
 817 002c 2670     		strb	r6, [r4]
 140:Interface.cpp **** }
 818              		.loc 13 140 1 view .LVU164
 819 002e 70BD     		pop	{r4, r5, r6, pc}
 820              	.LVL72:
 821              	.L18:
 822              	.LBB271:
 823              	.LBB263:
 824              		.loc 1 81 65 view .LVU165
 825 0030 FFF7FEFF 		bl	dsy_gpio_read
ARM GAS  /var/folders/9s/8rp0_f2s1n31qbztm3b5_fdh0000gn/T//ccSMtkyz.s 			page 31


 826              	.LVL73:
 827 0034 EEE7     		b	.L19
 828              	.LVL74:
 829              	.L21:
 830              		.loc 1 81 65 view .LVU166
 831              	.LBE263:
 832              	.LBE271:
 129:Interface.cpp ****     } else if (button_pressed_now && button_was_pressed) {
 833              		.loc 13 129 12 is_stmt 1 discriminator 1 view .LVU167
 834              	.LBB272:
 835              	.LBB266:
 836              	.LBB267:
 130:Interface.cpp ****         if (held_duration > BOOTLOADER_HOLD_TIME_MS) { 
 837              		.loc 13 130 9 discriminator 1 view .LVU168
 130:Interface.cpp ****         if (held_duration > BOOTLOADER_HOLD_TIME_MS) { 
 838              		.loc 13 130 48 is_stmt 0 discriminator 1 view .LVU169
 839 0036 FFF7FEFF 		bl	_ZN5daisy6System6GetNowEv
 840              	.LVL75:
 131:Interface.cpp ****             hw.PrintLine("Resetting to bootloader (Button Hold)..."); 
 841              		.loc 13 131 9 is_stmt 1 discriminator 1 view .LVU170
 130:Interface.cpp ****         if (held_duration > BOOTLOADER_HOLD_TIME_MS) { 
 842              		.loc 13 130 53 is_stmt 0 discriminator 1 view .LVU171
 843 003a 2B68     		ldr	r3, [r5]
 844 003c C01A     		subs	r0, r0, r3
 845              	.LVL76:
 131:Interface.cpp ****             hw.PrintLine("Resetting to bootloader (Button Hold)..."); 
 846              		.loc 13 131 9 discriminator 1 view .LVU172
 847 003e 40F6B833 		movw	r3, #3000
 848 0042 9842     		cmp	r0, r3
 849 0044 F2D9     		bls	.L22
 132:Interface.cpp ****             System::Delay(100); 
 850              		.loc 13 132 13 is_stmt 1 view .LVU173
 851              	.LVL77:
 852              	.LBB268:
 853              	.LBI268:
  23:lib/libdaisy/src/daisy_seed.h **** 
  24:lib/libdaisy/src/daisy_seed.h ****     /** This function used to provide a pre-initialization configuraiton 
  25:lib/libdaisy/src/daisy_seed.h ****      *  it has since been deprecated, and does nothing.
  26:lib/libdaisy/src/daisy_seed.h ****      */
  27:lib/libdaisy/src/daisy_seed.h ****     void Configure();
  28:lib/libdaisy/src/daisy_seed.h **** 
  29:lib/libdaisy/src/daisy_seed.h ****     /** 
  30:lib/libdaisy/src/daisy_seed.h ****     Initializes the Daisy Seed and the following peripherals:
  31:lib/libdaisy/src/daisy_seed.h ****     SDRAM, QSPI, 24-bit 48kHz Audio via AK4556, Internal USB,
  32:lib/libdaisy/src/daisy_seed.h ****     as well as the built-in LED and Testpoint.
  33:lib/libdaisy/src/daisy_seed.h **** 
  34:lib/libdaisy/src/daisy_seed.h ****     ADCs, DACs, and other special peripherals (such as I2C, SPI, etc.)
  35:lib/libdaisy/src/daisy_seed.h ****     can be initialized using their specific initializers within libdaisy
  36:lib/libdaisy/src/daisy_seed.h ****     for a specific application.
  37:lib/libdaisy/src/daisy_seed.h ****     */
  38:lib/libdaisy/src/daisy_seed.h ****     void Init(bool boost = false);
  39:lib/libdaisy/src/daisy_seed.h **** 
  40:lib/libdaisy/src/daisy_seed.h ****     /** 
  41:lib/libdaisy/src/daisy_seed.h ****     Deinitializes all peripherals automatically handled by `Init`.
  42:lib/libdaisy/src/daisy_seed.h ****     */
  43:lib/libdaisy/src/daisy_seed.h ****     void DeInit();
  44:lib/libdaisy/src/daisy_seed.h **** 
ARM GAS  /var/folders/9s/8rp0_f2s1n31qbztm3b5_fdh0000gn/T//ccSMtkyz.s 			page 32


  45:lib/libdaisy/src/daisy_seed.h ****     /** 
  46:lib/libdaisy/src/daisy_seed.h ****     Wait some ms before going on.
  47:lib/libdaisy/src/daisy_seed.h ****     \param del Delay time in ms.
  48:lib/libdaisy/src/daisy_seed.h ****     */
  49:lib/libdaisy/src/daisy_seed.h ****     void DelayMs(size_t del);
  50:lib/libdaisy/src/daisy_seed.h **** 
  51:lib/libdaisy/src/daisy_seed.h ****     /** 
  52:lib/libdaisy/src/daisy_seed.h ****     Returns the gpio_pin corresponding to the index 0-31.
  53:lib/libdaisy/src/daisy_seed.h ****     For the given GPIO on the Daisy Seed (labeled 1-32 in docs).
  54:lib/libdaisy/src/daisy_seed.h ****     */
  55:lib/libdaisy/src/daisy_seed.h ****     static dsy_gpio_pin GetPin(uint8_t pin_idx);
  56:lib/libdaisy/src/daisy_seed.h **** 
  57:lib/libdaisy/src/daisy_seed.h ****     /** Begins the audio for the seeds builtin audio.
  58:lib/libdaisy/src/daisy_seed.h ****     the specified callback will get called whenever
  59:lib/libdaisy/src/daisy_seed.h ****     new data is ready to be prepared.
  60:lib/libdaisy/src/daisy_seed.h ****     */
  61:lib/libdaisy/src/daisy_seed.h ****     void StartAudio(AudioHandle::InterleavingAudioCallback cb);
  62:lib/libdaisy/src/daisy_seed.h **** 
  63:lib/libdaisy/src/daisy_seed.h ****     /** Begins the audio for the seeds builtin audio.
  64:lib/libdaisy/src/daisy_seed.h ****     the specified callback will get called whenever
  65:lib/libdaisy/src/daisy_seed.h ****     new data is ready to be prepared.
  66:lib/libdaisy/src/daisy_seed.h ****     This will use the newer non-interleaved callback.
  67:lib/libdaisy/src/daisy_seed.h ****     */
  68:lib/libdaisy/src/daisy_seed.h ****     void StartAudio(AudioHandle::AudioCallback cb);
  69:lib/libdaisy/src/daisy_seed.h **** 
  70:lib/libdaisy/src/daisy_seed.h ****     /** Changes to a new interleaved callback
  71:lib/libdaisy/src/daisy_seed.h ****      */
  72:lib/libdaisy/src/daisy_seed.h ****     void ChangeAudioCallback(AudioHandle::InterleavingAudioCallback cb);
  73:lib/libdaisy/src/daisy_seed.h **** 
  74:lib/libdaisy/src/daisy_seed.h ****     /** Changes to a new multichannel callback
  75:lib/libdaisy/src/daisy_seed.h ****      */
  76:lib/libdaisy/src/daisy_seed.h ****     void ChangeAudioCallback(AudioHandle::AudioCallback cb);
  77:lib/libdaisy/src/daisy_seed.h **** 
  78:lib/libdaisy/src/daisy_seed.h ****     /** Stops the audio if it is running. */
  79:lib/libdaisy/src/daisy_seed.h ****     void StopAudio();
  80:lib/libdaisy/src/daisy_seed.h **** 
  81:lib/libdaisy/src/daisy_seed.h ****     /** Updates the Audio Sample Rate, and reinitializes.
  82:lib/libdaisy/src/daisy_seed.h ****      ** Audio must be stopped for this to work.
  83:lib/libdaisy/src/daisy_seed.h ****      */
  84:lib/libdaisy/src/daisy_seed.h ****     void SetAudioSampleRate(SaiHandle::Config::SampleRate samplerate);
  85:lib/libdaisy/src/daisy_seed.h **** 
  86:lib/libdaisy/src/daisy_seed.h ****     /** Returns the audio sample rate in Hz as a floating point number.
  87:lib/libdaisy/src/daisy_seed.h ****      */
  88:lib/libdaisy/src/daisy_seed.h ****     float AudioSampleRate();
  89:lib/libdaisy/src/daisy_seed.h **** 
  90:lib/libdaisy/src/daisy_seed.h ****     /** Sets the number of samples processed per channel by the audio callback.
  91:lib/libdaisy/src/daisy_seed.h ****      */
  92:lib/libdaisy/src/daisy_seed.h ****     void SetAudioBlockSize(size_t blocksize);
  93:lib/libdaisy/src/daisy_seed.h **** 
  94:lib/libdaisy/src/daisy_seed.h ****     /** Returns the number of samples per channel in a block of audio. */
  95:lib/libdaisy/src/daisy_seed.h ****     size_t AudioBlockSize();
  96:lib/libdaisy/src/daisy_seed.h **** 
  97:lib/libdaisy/src/daisy_seed.h ****     /** Returns the rate in Hz that the Audio callback is called */
  98:lib/libdaisy/src/daisy_seed.h ****     float AudioCallbackRate() const;
  99:lib/libdaisy/src/daisy_seed.h **** 
 100:lib/libdaisy/src/daisy_seed.h ****     /** Sets the state of the built in LED
 101:lib/libdaisy/src/daisy_seed.h ****      */
ARM GAS  /var/folders/9s/8rp0_f2s1n31qbztm3b5_fdh0000gn/T//ccSMtkyz.s 			page 33


 102:lib/libdaisy/src/daisy_seed.h ****     void SetLed(bool state);
 103:lib/libdaisy/src/daisy_seed.h **** 
 104:lib/libdaisy/src/daisy_seed.h ****     /** Sets the state of the test point near pin 10
 105:lib/libdaisy/src/daisy_seed.h ****      */
 106:lib/libdaisy/src/daisy_seed.h ****     void SetTestPoint(bool state);
 107:lib/libdaisy/src/daisy_seed.h **** 
 108:lib/libdaisy/src/daisy_seed.h ****     /** Print formatted debug log message
 109:lib/libdaisy/src/daisy_seed.h ****      */
 110:lib/libdaisy/src/daisy_seed.h ****     template <typename... VA>
 111:lib/libdaisy/src/daisy_seed.h ****     static void Print(const char* format, VA... va)
 112:lib/libdaisy/src/daisy_seed.h ****     {
 113:lib/libdaisy/src/daisy_seed.h ****         Log::Print(format, va...);
 114:lib/libdaisy/src/daisy_seed.h ****     }
 115:lib/libdaisy/src/daisy_seed.h **** 
 116:lib/libdaisy/src/daisy_seed.h ****     /** Print formatted debug log message with automatic line termination
 117:lib/libdaisy/src/daisy_seed.h ****     */
 118:lib/libdaisy/src/daisy_seed.h ****     template <typename... VA>
 119:lib/libdaisy/src/daisy_seed.h ****     static void PrintLine(const char* format, VA... va)
 854              		.loc 3 119 17 view .LVU174
 855              	.LBB269:
 120:lib/libdaisy/src/daisy_seed.h ****     {
 121:lib/libdaisy/src/daisy_seed.h ****         Log::PrintLine(format, va...);
 856              		.loc 3 121 23 is_stmt 0 view .LVU175
 857 0046 0A48     		ldr	r0, .L28+12
 858              	.LVL78:
 859              		.loc 3 121 23 view .LVU176
 860 0048 FFF7FEFF 		bl	_ZN5daisy6LoggerILNS_17LoggerDestinationE1EE9PrintLineEPKcz
 861              	.LVL79:
 862              		.loc 3 121 23 view .LVU177
 863              	.LBE269:
 864              	.LBE268:
 133:Interface.cpp ****             System::ResetToBootloader();
 865              		.loc 13 133 13 is_stmt 1 view .LVU178
 133:Interface.cpp ****             System::ResetToBootloader();
 866              		.loc 13 133 26 is_stmt 0 view .LVU179
 867 004c 6420     		movs	r0, #100
 868 004e FFF7FEFF 		bl	_ZN5daisy6System5DelayEm
 869              	.LVL80:
 134:Interface.cpp ****         }
 870              		.loc 13 134 13 is_stmt 1 view .LVU180
 134:Interface.cpp ****         }
 871              		.loc 13 134 38 is_stmt 0 view .LVU181
 872 0052 FFF7FEFF 		bl	_ZN5daisy6System17ResetToBootloaderEv
 873              	.LVL81:
 874 0056 E9E7     		b	.L22
 875              	.L20:
 134:Interface.cpp ****         }
 876              		.loc 13 134 38 view .LVU182
 877              	.LBE267:
 878              	.LBE266:
 879              	.LBE272:
 129:Interface.cpp ****         uint32_t held_duration = System::GetNow() - button_held_start_time;
 880              		.loc 13 129 12 is_stmt 1 discriminator 1 view .LVU183
 881              	.LBB273:
 882              	.LBB270:
 136:Interface.cpp ****         button_held_start_time = 0;
 883              		.loc 13 136 12 discriminator 1 view .LVU184
ARM GAS  /var/folders/9s/8rp0_f2s1n31qbztm3b5_fdh0000gn/T//ccSMtkyz.s 			page 34


 136:Interface.cpp ****         button_held_start_time = 0;
 884              		.loc 13 136 36 is_stmt 0 discriminator 1 view .LVU185
 885 0058 002B     		cmp	r3, #0
 886 005a E7D0     		beq	.L22
 137:Interface.cpp ****     }
 887              		.loc 13 137 9 is_stmt 1 view .LVU186
 137:Interface.cpp ****     }
 888              		.loc 13 137 32 is_stmt 0 view .LVU187
 889 005c 034B     		ldr	r3, .L28+8
 890 005e 1860     		str	r0, [r3]
 891 0060 E4E7     		b	.L22
 892              	.L29:
 893 0062 00BF     		.align	2
 894              	.L28:
 895 0064 00000000 		.word	.LANCHOR13
 896 0068 00000000 		.word	.LANCHOR16
 897 006c 00000000 		.word	.LANCHOR17
 898 0070 00000000 		.word	.LC2
 899              	.LBE270:
 900              	.LBE273:
 901              		.cfi_endproc
 902              	.LFE5065:
 904              		.section	.text._Z9UpdateLEDv,"ax",%progbits
 905              		.align	1
 906              		.global	_Z9UpdateLEDv
 907              		.syntax unified
 908              		.thumb
 909              		.thumb_func
 911              	_Z9UpdateLEDv:
 912              	.LFB5066:
 141:Interface.cpp **** 
 142:Interface.cpp **** void UpdateLED() {
 913              		.loc 13 142 18 is_stmt 1 view -0
 914              		.cfi_startproc
 915              		@ args = 0, pretend = 0, frame = 0
 916              		@ frame_needed = 0, uses_anonymous_args = 0
 143:Interface.cpp ****     // LED based on voice activity (any voice active)
 144:Interface.cpp ****     bool any_voice_active = false;
 917              		.loc 13 144 5 view .LVU189
 918              	.LVL82:
 145:Interface.cpp ****     for(int v=0; v<NUM_VOICES; ++v) { 
 919              		.loc 13 145 5 view .LVU190
 920              	.LBB274:
 921              		.loc 13 145 19 view .LVU191
 922              	.LBE274:
 142:Interface.cpp ****     // LED based on voice activity (any voice active)
 923              		.loc 13 142 18 is_stmt 0 view .LVU192
 924 0000 08B5     		push	{r3, lr}
 925              		.cfi_def_cfa_offset 8
 926              		.cfi_offset 3, -8
 927              		.cfi_offset 14, -4
 928 0002 0D4A     		ldr	r2, .L35
 929              	.LBB275:
 930              		.loc 13 145 13 view .LVU193
 931 0004 0023     		movs	r3, #0
 932              	.LVL83:
 933              	.L33:
ARM GAS  /var/folders/9s/8rp0_f2s1n31qbztm3b5_fdh0000gn/T//ccSMtkyz.s 			page 35


 146:Interface.cpp ****         if(voice_active[v]) { 
 934              		.loc 13 146 9 is_stmt 1 view .LVU194
 935              		.loc 13 146 26 is_stmt 0 view .LVU195
 936 0006 12F8011B 		ldrb	r1, [r2], #1	@ zero_extendqisi2
 937              		.loc 13 146 9 view .LVU196
 938 000a 79B9     		cbnz	r1, .L31
 145:Interface.cpp ****     for(int v=0; v<NUM_VOICES; ++v) { 
 939              		.loc 13 145 5 is_stmt 1 discriminator 2 view .LVU197
 940 000c 0133     		adds	r3, r3, #1
 941              	.LVL84:
 145:Interface.cpp ****     for(int v=0; v<NUM_VOICES; ++v) { 
 942              		.loc 13 145 19 discriminator 2 view .LVU198
 943 000e 042B     		cmp	r3, #4
 944 0010 F9D1     		bne	.L33
 145:Interface.cpp ****     for(int v=0; v<NUM_VOICES; ++v) { 
 945              		.loc 13 145 19 is_stmt 0 discriminator 2 view .LVU199
 946              	.LBE275:
 147:Interface.cpp ****             any_voice_active = true; 
 148:Interface.cpp ****             break; 
 149:Interface.cpp ****         } 
 150:Interface.cpp ****     }
 151:Interface.cpp ****     
 152:Interface.cpp ****     bool led_on = any_voice_active;
 947              		.loc 13 152 5 is_stmt 1 view .LVU200
 948              	.LVL85:
 153:Interface.cpp ****     if (!any_voice_active && (System::GetNow() % 1000) < 500) { // Blink if inactive
 949              		.loc 13 153 5 view .LVU201
 950              		.loc 13 153 45 is_stmt 0 view .LVU202
 951 0012 FFF7FEFF 		bl	_ZN5daisy6System6GetNowEv
 952              	.LVL86:
 953              		.loc 13 153 48 view .LVU203
 954 0016 4FF47A71 		mov	r1, #1000
 955 001a B0FBF1F3 		udiv	r3, r0, r1
 956 001e 03FB1101 		mls	r1, r3, r1, r0
 957              		.loc 13 153 27 view .LVU204
 958 0022 B1F5FA7F 		cmp	r1, #500
 959 0026 2CBF     		ite	cs
 960 0028 0021     		movcs	r1, #0
 961 002a 0121     		movcc	r1, #1
 962              	.LVL87:
 963              	.L31:
 154:Interface.cpp ****         led_on = true;
 155:Interface.cpp ****     }
 156:Interface.cpp ****     hw.SetLed(led_on);
 964              		.loc 13 156 5 is_stmt 1 view .LVU205
 965              		.loc 13 156 14 is_stmt 0 view .LVU206
 966 002c 0348     		ldr	r0, .L35+4
 157:Interface.cpp **** } ...
 967              		.loc 13 157 1 view .LVU207
 968 002e BDE80840 		pop	{r3, lr}
 969              		.cfi_restore 14
 970              		.cfi_restore 3
 971              		.cfi_def_cfa_offset 0
 156:Interface.cpp ****     hw.SetLed(led_on);
 972              		.loc 13 156 14 view .LVU208
 973 0032 FFF7FEBF 		b	_ZN5daisy9DaisySeed6SetLedEb
 974              	.LVL88:
ARM GAS  /var/folders/9s/8rp0_f2s1n31qbztm3b5_fdh0000gn/T//ccSMtkyz.s 			page 36


 975              	.L36:
 156:Interface.cpp ****     hw.SetLed(led_on);
 976              		.loc 13 156 14 view .LVU209
 977 0036 00BF     		.align	2
 978              	.L35:
 979 0038 00000000 		.word	voice_active
 980 003c 00000000 		.word	.LANCHOR0
 981              		.cfi_endproc
 982              	.LFE5066:
 984              		.section	.text._ZN10infrasonic13BiquadCascadeILj1ELNS_13BiquadSection10FilterTypeE2EE18updateCoeff
 985              		.align	1
 986              		.weak	_ZN10infrasonic13BiquadCascadeILj1ELNS_13BiquadSection10FilterTypeE2EE18updateCoefficientsEv
 987              		.syntax unified
 988              		.thumb
 989              		.thumb_func
 991              	_ZN10infrasonic13BiquadCascadeILj1ELNS_13BiquadSection10FilterTypeE2EE18updateCoefficientsEv:
 992              	.LVL89:
 993              	.LFB5717:
  78:Effects/BiquadFilters.h **** 
  79:Effects/BiquadFilters.h ****         // Individual param update methods recalculate coefficients
  80:Effects/BiquadFilters.h ****         // every time one of them is called. To update everything at once,
  81:Effects/BiquadFilters.h ****         // use SetParams()
  82:Effects/BiquadFilters.h **** 
  83:Effects/BiquadFilters.h ****         void Init(const float sample_rate) {
  84:Effects/BiquadFilters.h ****             sample_rate_ = sample_rate;
  85:Effects/BiquadFilters.h ****             cutoff_hz_ = sample_rate * 0.25f;
  86:Effects/BiquadFilters.h ****             SetFlatResponse();
  87:Effects/BiquadFilters.h ****         }
  88:Effects/BiquadFilters.h **** 
  89:Effects/BiquadFilters.h ****         inline void SetCutoff(const float cutoff_hz)
  90:Effects/BiquadFilters.h ****         {
  91:Effects/BiquadFilters.h ****             cutoff_hz_ = daisysp::fclamp(cutoff_hz, 1.f, sample_rate_ * 0.5f);
  92:Effects/BiquadFilters.h ****             updateCoefficients();
  93:Effects/BiquadFilters.h ****         }
  94:Effects/BiquadFilters.h **** 
  95:Effects/BiquadFilters.h ****         inline void SetQ(const float q)
  96:Effects/BiquadFilters.h ****         {
  97:Effects/BiquadFilters.h ****             for (size_t i=0; i<NumSections; i++) {
  98:Effects/BiquadFilters.h ****                 q_[i] = daisysp::fmax(q, 0.1f);
  99:Effects/BiquadFilters.h ****             }
 100:Effects/BiquadFilters.h ****             updateCoefficients();
 101:Effects/BiquadFilters.h ****         }
 102:Effects/BiquadFilters.h **** 
 103:Effects/BiquadFilters.h ****         /// Update params simultaneously, recalculating coefficients only once 
 104:Effects/BiquadFilters.h ****         inline void SetParams(const float cutoff_hz, const float q)
 105:Effects/BiquadFilters.h ****         {
 106:Effects/BiquadFilters.h ****             cutoff_hz_ = daisysp::fclamp(cutoff_hz, 1.f, sample_rate_ * 0.5f);
 107:Effects/BiquadFilters.h ****             for (size_t i=0; i<NumSections; i++) {
 108:Effects/BiquadFilters.h ****                 q_[i] = daisysp::fmax(q, 0.1f);
 109:Effects/BiquadFilters.h ****             }
 110:Effects/BiquadFilters.h ****             updateCoefficients();
 111:Effects/BiquadFilters.h ****         }
 112:Effects/BiquadFilters.h **** 
 113:Effects/BiquadFilters.h ****         /// Sets Q values in each section for a truly "flat" (-3dB cutoff point) response
 114:Effects/BiquadFilters.h ****         /// NOTE: per limitations of this class this only works for even-order filters
 115:Effects/BiquadFilters.h ****         inline void SetFlatResponse()
 116:Effects/BiquadFilters.h ****         {
ARM GAS  /var/folders/9s/8rp0_f2s1n31qbztm3b5_fdh0000gn/T//ccSMtkyz.s 			page 37


 117:Effects/BiquadFilters.h ****             const float angleIncrement = 1.f / (4.f * static_cast<float>(NumSections));
 118:Effects/BiquadFilters.h ****             for (size_t i=0; i<NumSections; i++) {
 119:Effects/BiquadFilters.h ****                 q_[i] = 1.f / (2.f * cosf(PI_F * (angleIncrement * (i * 2 + 1))));
 120:Effects/BiquadFilters.h ****             }
 121:Effects/BiquadFilters.h ****             updateCoefficients();
 122:Effects/BiquadFilters.h ****         }
 123:Effects/BiquadFilters.h **** 
 124:Effects/BiquadFilters.h ****         inline float Process(const float in)
 125:Effects/BiquadFilters.h ****         {
 126:Effects/BiquadFilters.h ****             float out = in;
 127:Effects/BiquadFilters.h ****             for (auto &biquad : biquads_) {
 128:Effects/BiquadFilters.h ****                 out = biquad.Process(out, 0);
 129:Effects/BiquadFilters.h ****             }
 130:Effects/BiquadFilters.h ****             return out;
 131:Effects/BiquadFilters.h ****         }
 132:Effects/BiquadFilters.h **** 
 133:Effects/BiquadFilters.h ****         /// In-place stereo processing
 134:Effects/BiquadFilters.h ****         inline void ProcessStereo(float &sampL, float &sampR)
 135:Effects/BiquadFilters.h ****         {
 136:Effects/BiquadFilters.h ****             for (auto &biquad : biquads_) {
 137:Effects/BiquadFilters.h ****                 sampL = biquad.Process(sampL, 0);
 138:Effects/BiquadFilters.h ****                 sampR = biquad.Process(sampR, 1);
 139:Effects/BiquadFilters.h ****             }
 140:Effects/BiquadFilters.h ****         }
 141:Effects/BiquadFilters.h **** 
 142:Effects/BiquadFilters.h ****     private:
 143:Effects/BiquadFilters.h **** 
 144:Effects/BiquadFilters.h ****         float sample_rate_;
 145:Effects/BiquadFilters.h ****         float cutoff_hz_, q_[NumSections];
 146:Effects/BiquadFilters.h **** 
 147:Effects/BiquadFilters.h ****         std::array<BiquadSection, NumSections> biquads_;
 148:Effects/BiquadFilters.h **** 
 149:Effects/BiquadFilters.h ****         inline void updateCoefficients() {
 994              		.loc 10 149 21 is_stmt 1 view -0
 995              		.cfi_startproc
 996              		@ args = 0, pretend = 0, frame = 40
 997              		@ frame_needed = 0, uses_anonymous_args = 0
 998              	.LBB276:
 150:Effects/BiquadFilters.h ****             for (size_t i=0; i<NumSections; i++) {
 999              		.loc 10 150 31 view .LVU211
 1000              	.LBB277:
 1001              	.LBI277:
  95:/Library/DaisyToolchain/0.2.0/arm/arm-none-eabi/include/c++/10.3.1/array ****     {
  96:/Library/DaisyToolchain/0.2.0/arm/arm-none-eabi/include/c++/10.3.1/array ****       typedef _Tp 	    			      value_type;
  97:/Library/DaisyToolchain/0.2.0/arm/arm-none-eabi/include/c++/10.3.1/array ****       typedef value_type*			      pointer;
  98:/Library/DaisyToolchain/0.2.0/arm/arm-none-eabi/include/c++/10.3.1/array ****       typedef const value_type*                       const_pointer;
  99:/Library/DaisyToolchain/0.2.0/arm/arm-none-eabi/include/c++/10.3.1/array ****       typedef value_type&                   	      reference;
 100:/Library/DaisyToolchain/0.2.0/arm/arm-none-eabi/include/c++/10.3.1/array ****       typedef const value_type&             	      const_reference;
 101:/Library/DaisyToolchain/0.2.0/arm/arm-none-eabi/include/c++/10.3.1/array ****       typedef value_type*          		      iterator;
 102:/Library/DaisyToolchain/0.2.0/arm/arm-none-eabi/include/c++/10.3.1/array ****       typedef const value_type*			      const_iterator;
 103:/Library/DaisyToolchain/0.2.0/arm/arm-none-eabi/include/c++/10.3.1/array ****       typedef std::size_t                    	      size_type;
 104:/Library/DaisyToolchain/0.2.0/arm/arm-none-eabi/include/c++/10.3.1/array ****       typedef std::ptrdiff_t                   	      difference_type;
 105:/Library/DaisyToolchain/0.2.0/arm/arm-none-eabi/include/c++/10.3.1/array ****       typedef std::reverse_iterator<iterator>	      reverse_iterator;
 106:/Library/DaisyToolchain/0.2.0/arm/arm-none-eabi/include/c++/10.3.1/array ****       typedef std::reverse_iterator<const_iterator>   const_reverse_iterator;
 107:/Library/DaisyToolchain/0.2.0/arm/arm-none-eabi/include/c++/10.3.1/array **** 
 108:/Library/DaisyToolchain/0.2.0/arm/arm-none-eabi/include/c++/10.3.1/array ****       // Support for zero-sized arrays mandatory.
 109:/Library/DaisyToolchain/0.2.0/arm/arm-none-eabi/include/c++/10.3.1/array ****       typedef _GLIBCXX_STD_C::__array_traits<_Tp, _Nm> _AT_Type;
ARM GAS  /var/folders/9s/8rp0_f2s1n31qbztm3b5_fdh0000gn/T//ccSMtkyz.s 			page 38


 110:/Library/DaisyToolchain/0.2.0/arm/arm-none-eabi/include/c++/10.3.1/array ****       typename _AT_Type::_Type                         _M_elems;
 111:/Library/DaisyToolchain/0.2.0/arm/arm-none-eabi/include/c++/10.3.1/array **** 
 112:/Library/DaisyToolchain/0.2.0/arm/arm-none-eabi/include/c++/10.3.1/array ****       // No explicit construct/copy/destroy for aggregate type.
 113:/Library/DaisyToolchain/0.2.0/arm/arm-none-eabi/include/c++/10.3.1/array **** 
 114:/Library/DaisyToolchain/0.2.0/arm/arm-none-eabi/include/c++/10.3.1/array ****       // DR 776.
 115:/Library/DaisyToolchain/0.2.0/arm/arm-none-eabi/include/c++/10.3.1/array ****       _GLIBCXX20_CONSTEXPR void
 116:/Library/DaisyToolchain/0.2.0/arm/arm-none-eabi/include/c++/10.3.1/array ****       fill(const value_type& __u)
 117:/Library/DaisyToolchain/0.2.0/arm/arm-none-eabi/include/c++/10.3.1/array ****       { std::fill_n(begin(), size(), __u); }
 118:/Library/DaisyToolchain/0.2.0/arm/arm-none-eabi/include/c++/10.3.1/array **** 
 119:/Library/DaisyToolchain/0.2.0/arm/arm-none-eabi/include/c++/10.3.1/array ****       _GLIBCXX20_CONSTEXPR void
 120:/Library/DaisyToolchain/0.2.0/arm/arm-none-eabi/include/c++/10.3.1/array ****       swap(array& __other)
 121:/Library/DaisyToolchain/0.2.0/arm/arm-none-eabi/include/c++/10.3.1/array ****       noexcept(_AT_Type::_Is_nothrow_swappable::value)
 122:/Library/DaisyToolchain/0.2.0/arm/arm-none-eabi/include/c++/10.3.1/array ****       { std::swap_ranges(begin(), end(), __other.begin()); }
 123:/Library/DaisyToolchain/0.2.0/arm/arm-none-eabi/include/c++/10.3.1/array **** 
 124:/Library/DaisyToolchain/0.2.0/arm/arm-none-eabi/include/c++/10.3.1/array ****       // Iterators.
 125:/Library/DaisyToolchain/0.2.0/arm/arm-none-eabi/include/c++/10.3.1/array ****       _GLIBCXX17_CONSTEXPR iterator
 126:/Library/DaisyToolchain/0.2.0/arm/arm-none-eabi/include/c++/10.3.1/array ****       begin() noexcept
 127:/Library/DaisyToolchain/0.2.0/arm/arm-none-eabi/include/c++/10.3.1/array ****       { return iterator(data()); }
 128:/Library/DaisyToolchain/0.2.0/arm/arm-none-eabi/include/c++/10.3.1/array **** 
 129:/Library/DaisyToolchain/0.2.0/arm/arm-none-eabi/include/c++/10.3.1/array ****       _GLIBCXX17_CONSTEXPR const_iterator
 130:/Library/DaisyToolchain/0.2.0/arm/arm-none-eabi/include/c++/10.3.1/array ****       begin() const noexcept
 131:/Library/DaisyToolchain/0.2.0/arm/arm-none-eabi/include/c++/10.3.1/array ****       { return const_iterator(data()); }
 132:/Library/DaisyToolchain/0.2.0/arm/arm-none-eabi/include/c++/10.3.1/array **** 
 133:/Library/DaisyToolchain/0.2.0/arm/arm-none-eabi/include/c++/10.3.1/array ****       _GLIBCXX17_CONSTEXPR iterator
 134:/Library/DaisyToolchain/0.2.0/arm/arm-none-eabi/include/c++/10.3.1/array ****       end() noexcept
 135:/Library/DaisyToolchain/0.2.0/arm/arm-none-eabi/include/c++/10.3.1/array ****       { return iterator(data() + _Nm); }
 136:/Library/DaisyToolchain/0.2.0/arm/arm-none-eabi/include/c++/10.3.1/array **** 
 137:/Library/DaisyToolchain/0.2.0/arm/arm-none-eabi/include/c++/10.3.1/array ****       _GLIBCXX17_CONSTEXPR const_iterator
 138:/Library/DaisyToolchain/0.2.0/arm/arm-none-eabi/include/c++/10.3.1/array ****       end() const noexcept
 139:/Library/DaisyToolchain/0.2.0/arm/arm-none-eabi/include/c++/10.3.1/array ****       { return const_iterator(data() + _Nm); }
 140:/Library/DaisyToolchain/0.2.0/arm/arm-none-eabi/include/c++/10.3.1/array **** 
 141:/Library/DaisyToolchain/0.2.0/arm/arm-none-eabi/include/c++/10.3.1/array ****       _GLIBCXX17_CONSTEXPR reverse_iterator
 142:/Library/DaisyToolchain/0.2.0/arm/arm-none-eabi/include/c++/10.3.1/array ****       rbegin() noexcept
 143:/Library/DaisyToolchain/0.2.0/arm/arm-none-eabi/include/c++/10.3.1/array ****       { return reverse_iterator(end()); }
 144:/Library/DaisyToolchain/0.2.0/arm/arm-none-eabi/include/c++/10.3.1/array **** 
 145:/Library/DaisyToolchain/0.2.0/arm/arm-none-eabi/include/c++/10.3.1/array ****       _GLIBCXX17_CONSTEXPR const_reverse_iterator
 146:/Library/DaisyToolchain/0.2.0/arm/arm-none-eabi/include/c++/10.3.1/array ****       rbegin() const noexcept
 147:/Library/DaisyToolchain/0.2.0/arm/arm-none-eabi/include/c++/10.3.1/array ****       { return const_reverse_iterator(end()); }
 148:/Library/DaisyToolchain/0.2.0/arm/arm-none-eabi/include/c++/10.3.1/array **** 
 149:/Library/DaisyToolchain/0.2.0/arm/arm-none-eabi/include/c++/10.3.1/array ****       _GLIBCXX17_CONSTEXPR reverse_iterator
 150:/Library/DaisyToolchain/0.2.0/arm/arm-none-eabi/include/c++/10.3.1/array ****       rend() noexcept
 151:/Library/DaisyToolchain/0.2.0/arm/arm-none-eabi/include/c++/10.3.1/array ****       { return reverse_iterator(begin()); }
 152:/Library/DaisyToolchain/0.2.0/arm/arm-none-eabi/include/c++/10.3.1/array **** 
 153:/Library/DaisyToolchain/0.2.0/arm/arm-none-eabi/include/c++/10.3.1/array ****       _GLIBCXX17_CONSTEXPR const_reverse_iterator
 154:/Library/DaisyToolchain/0.2.0/arm/arm-none-eabi/include/c++/10.3.1/array ****       rend() const noexcept
 155:/Library/DaisyToolchain/0.2.0/arm/arm-none-eabi/include/c++/10.3.1/array ****       { return const_reverse_iterator(begin()); }
 156:/Library/DaisyToolchain/0.2.0/arm/arm-none-eabi/include/c++/10.3.1/array **** 
 157:/Library/DaisyToolchain/0.2.0/arm/arm-none-eabi/include/c++/10.3.1/array ****       _GLIBCXX17_CONSTEXPR const_iterator
 158:/Library/DaisyToolchain/0.2.0/arm/arm-none-eabi/include/c++/10.3.1/array ****       cbegin() const noexcept
 159:/Library/DaisyToolchain/0.2.0/arm/arm-none-eabi/include/c++/10.3.1/array ****       { return const_iterator(data()); }
 160:/Library/DaisyToolchain/0.2.0/arm/arm-none-eabi/include/c++/10.3.1/array **** 
 161:/Library/DaisyToolchain/0.2.0/arm/arm-none-eabi/include/c++/10.3.1/array ****       _GLIBCXX17_CONSTEXPR const_iterator
 162:/Library/DaisyToolchain/0.2.0/arm/arm-none-eabi/include/c++/10.3.1/array ****       cend() const noexcept
 163:/Library/DaisyToolchain/0.2.0/arm/arm-none-eabi/include/c++/10.3.1/array ****       { return const_iterator(data() + _Nm); }
 164:/Library/DaisyToolchain/0.2.0/arm/arm-none-eabi/include/c++/10.3.1/array **** 
 165:/Library/DaisyToolchain/0.2.0/arm/arm-none-eabi/include/c++/10.3.1/array ****       _GLIBCXX17_CONSTEXPR const_reverse_iterator
 166:/Library/DaisyToolchain/0.2.0/arm/arm-none-eabi/include/c++/10.3.1/array ****       crbegin() const noexcept
ARM GAS  /var/folders/9s/8rp0_f2s1n31qbztm3b5_fdh0000gn/T//ccSMtkyz.s 			page 39


 167:/Library/DaisyToolchain/0.2.0/arm/arm-none-eabi/include/c++/10.3.1/array ****       { return const_reverse_iterator(end()); }
 168:/Library/DaisyToolchain/0.2.0/arm/arm-none-eabi/include/c++/10.3.1/array **** 
 169:/Library/DaisyToolchain/0.2.0/arm/arm-none-eabi/include/c++/10.3.1/array ****       _GLIBCXX17_CONSTEXPR const_reverse_iterator
 170:/Library/DaisyToolchain/0.2.0/arm/arm-none-eabi/include/c++/10.3.1/array ****       crend() const noexcept
 171:/Library/DaisyToolchain/0.2.0/arm/arm-none-eabi/include/c++/10.3.1/array ****       { return const_reverse_iterator(begin()); }
 172:/Library/DaisyToolchain/0.2.0/arm/arm-none-eabi/include/c++/10.3.1/array **** 
 173:/Library/DaisyToolchain/0.2.0/arm/arm-none-eabi/include/c++/10.3.1/array ****       // Capacity.
 174:/Library/DaisyToolchain/0.2.0/arm/arm-none-eabi/include/c++/10.3.1/array ****       constexpr size_type
 175:/Library/DaisyToolchain/0.2.0/arm/arm-none-eabi/include/c++/10.3.1/array ****       size() const noexcept { return _Nm; }
 176:/Library/DaisyToolchain/0.2.0/arm/arm-none-eabi/include/c++/10.3.1/array **** 
 177:/Library/DaisyToolchain/0.2.0/arm/arm-none-eabi/include/c++/10.3.1/array ****       constexpr size_type
 178:/Library/DaisyToolchain/0.2.0/arm/arm-none-eabi/include/c++/10.3.1/array ****       max_size() const noexcept { return _Nm; }
 179:/Library/DaisyToolchain/0.2.0/arm/arm-none-eabi/include/c++/10.3.1/array **** 
 180:/Library/DaisyToolchain/0.2.0/arm/arm-none-eabi/include/c++/10.3.1/array ****       _GLIBCXX_NODISCARD constexpr bool
 181:/Library/DaisyToolchain/0.2.0/arm/arm-none-eabi/include/c++/10.3.1/array ****       empty() const noexcept { return size() == 0; }
 182:/Library/DaisyToolchain/0.2.0/arm/arm-none-eabi/include/c++/10.3.1/array **** 
 183:/Library/DaisyToolchain/0.2.0/arm/arm-none-eabi/include/c++/10.3.1/array ****       // Element access.
 184:/Library/DaisyToolchain/0.2.0/arm/arm-none-eabi/include/c++/10.3.1/array ****       _GLIBCXX17_CONSTEXPR reference
 185:/Library/DaisyToolchain/0.2.0/arm/arm-none-eabi/include/c++/10.3.1/array ****       operator[](size_type __n) noexcept
 1002              		.loc 11 185 7 view .LVU212
 1003              	.LBB278:
 1004              	.LBI278:
  55:/Library/DaisyToolchain/0.2.0/arm/arm-none-eabi/include/c++/10.3.1/array ****       { return const_cast<_Tp&>(__t[__n]); }
 1005              		.loc 11 55 7 view .LVU213
  55:/Library/DaisyToolchain/0.2.0/arm/arm-none-eabi/include/c++/10.3.1/array ****       { return const_cast<_Tp&>(__t[__n]); }
 1006              		.loc 11 55 7 is_stmt 0 view .LVU214
 1007              	.LBE278:
 1008              	.LBE277:
 1009              	.LBE276:
 149:Effects/BiquadFilters.h ****             for (size_t i=0; i<NumSections; i++) {
 1010              		.loc 10 149 21 view .LVU215
 1011 0000 70B5     		push	{r4, r5, r6, lr}
 1012              		.cfi_def_cfa_offset 16
 1013              		.cfi_offset 4, -16
 1014              		.cfi_offset 5, -12
 1015              		.cfi_offset 6, -8
 1016              		.cfi_offset 14, -4
 1017 0002 8AB0     		sub	sp, sp, #40
 1018              		.cfi_def_cfa_offset 56
 1019              	.LBB281:
 151:Effects/BiquadFilters.h ****                 biquads_[i].SetCoefficients(BiquadSection::CalculateCoefficients(FilterType, sample
 1020              		.loc 10 151 44 view .LVU216
 1021 0004 90ED021A 		vldr.32	s2, [r0, #8]
 1022 0008 D0ED010A 		vldr.32	s1, [r0, #4]
 1023 000c 0446     		mov	r4, r0
 1024 000e 6D46     		mov	r5, sp
 1025 0010 90ED000A 		vldr.32	s0, [r0]
 1026 0014 0221     		movs	r1, #2
 1027 0016 6846     		mov	r0, sp
 1028              	.LVL90:
 1029              		.loc 10 151 44 view .LVU217
 1030 0018 FFF7FEFF 		bl	_ZN10infrasonic13BiquadSection21CalculateCoefficientsENS0_10FilterTypeEfff
 1031              	.LVL91:
 1032              		.loc 10 151 44 view .LVU218
 1033 001c 05AE     		add	r6, sp, #20
 1034 001e 0C34     		adds	r4, r4, #12
 1035              	.LVL92:
ARM GAS  /var/folders/9s/8rp0_f2s1n31qbztm3b5_fdh0000gn/T//ccSMtkyz.s 			page 40


 1036              		.loc 10 151 44 view .LVU219
 1037 0020 0FCD     		ldmia	r5!, {r0, r1, r2, r3}
 1038 0022 0FC6     		stmia	r6!, {r0, r1, r2, r3}
 1039 0024 2E68     		ldr	r6, [r5]
 1040              	.LBB279:
 1041              	.LBI279:
  37:Effects/BiquadFilters.h **** 
 1042              		.loc 10 37 14 is_stmt 1 view .LVU220
 1043              	.LBB280:
  37:Effects/BiquadFilters.h **** 
 1044              		.loc 10 37 65 view .LVU221
  37:Effects/BiquadFilters.h **** 
 1045              		.loc 10 37 72 is_stmt 0 view .LVU222
 1046 0026 05AD     		add	r5, sp, #20
 1047 0028 0FCD     		ldmia	r5!, {r0, r1, r2, r3}
 1048 002a 0FC4     		stmia	r4!, {r0, r1, r2, r3}
 1049              	.LVL93:
  37:Effects/BiquadFilters.h **** 
 1050              		.loc 10 37 72 view .LVU223
 1051 002c 2660     		str	r6, [r4]
 1052              	.LVL94:
  37:Effects/BiquadFilters.h **** 
 1053              		.loc 10 37 72 view .LVU224
 1054              	.LBE280:
 1055              	.LBE279:
 150:Effects/BiquadFilters.h ****                 biquads_[i].SetCoefficients(BiquadSection::CalculateCoefficients(FilterType, sample
 1056              		.loc 10 150 13 is_stmt 1 view .LVU225
 150:Effects/BiquadFilters.h ****                 biquads_[i].SetCoefficients(BiquadSection::CalculateCoefficients(FilterType, sample
 1057              		.loc 10 150 31 view .LVU226
 1058              	.LBE281:
 152:Effects/BiquadFilters.h ****             }
 153:Effects/BiquadFilters.h ****         }
 1059              		.loc 10 153 9 is_stmt 0 view .LVU227
 1060 002e 0AB0     		add	sp, sp, #40
 1061              		.cfi_def_cfa_offset 16
 1062              		@ sp needed
 1063 0030 70BD     		pop	{r4, r5, r6, pc}
 1064              		.loc 10 153 9 view .LVU228
 1065              		.cfi_endproc
 1066              	.LFE5717:
 1068              		.section	.text._Z15InitializeDelayv,"ax",%progbits
 1069              		.align	1
 1070              		.global	_Z15InitializeDelayv
 1071              		.syntax unified
 1072              		.thumb
 1073              		.thumb_func
 1075              	_Z15InitializeDelayv:
 1076              	.LFB5063:
  90:Interface.cpp **** void InitializeDelay() {
 1077              		.loc 13 90 24 is_stmt 1 view -0
 1078              		.cfi_startproc
 1079              		@ args = 0, pretend = 0, frame = 0
 1080              		@ frame_needed = 0, uses_anonymous_args = 0
  92:Interface.cpp ****     delay.Init(sample_rate); 
 1081              		.loc 13 92 5 view .LVU230
  90:Interface.cpp **** void InitializeDelay() {
 1082              		.loc 13 90 24 is_stmt 0 view .LVU231
ARM GAS  /var/folders/9s/8rp0_f2s1n31qbztm3b5_fdh0000gn/T//ccSMtkyz.s 			page 41


 1083 0000 F8B5     		push	{r3, r4, r5, r6, r7, lr}
 1084              		.cfi_def_cfa_offset 24
 1085              		.cfi_offset 3, -24
 1086              		.cfi_offset 4, -20
 1087              		.cfi_offset 5, -16
 1088              		.cfi_offset 6, -12
 1089              		.cfi_offset 7, -8
 1090              		.cfi_offset 14, -4
 1091              	.LBB314:
 1092              	.LBB315:
  26:Effects/EchoDelay.h **** 
  27:Effects/EchoDelay.h ****         void Init(float sample_rate)
  28:Effects/EchoDelay.h ****         {
  29:Effects/EchoDelay.h ****             sample_rate_ = sample_rate;
 1093              		.loc 9 29 26 view .LVU232
 1094 0002 2C4C     		ldr	r4, .L41
 1095              	.LBB316:
 1096              	.LBB317:
 1097              	.LBB318:
 1098              	.LBB319:
  33:lib/DaisySP/Source/Utility/delayline.h ****     /** initializes the delay line by clearing the values within, and setting delay to 1 sample.
  34:lib/DaisySP/Source/Utility/delayline.h ****     */
  35:lib/DaisySP/Source/Utility/delayline.h ****     void Init() { Reset(); }
  36:lib/DaisySP/Source/Utility/delayline.h ****     /** clears buffer, sets write ptr to 0, and delay to 1 sample.
  37:lib/DaisySP/Source/Utility/delayline.h ****     */
  38:lib/DaisySP/Source/Utility/delayline.h ****     void Reset()
  39:lib/DaisySP/Source/Utility/delayline.h ****     {
  40:lib/DaisySP/Source/Utility/delayline.h ****         for(size_t i = 0; i < max_size; i++)
  41:lib/DaisySP/Source/Utility/delayline.h ****         {
  42:lib/DaisySP/Source/Utility/delayline.h ****             line_[i] = T(0);
 1099              		.loc 12 42 22 view .LVU233
 1100 0004 0021     		movs	r1, #0
 1101              	.LBE319:
 1102              	.LBE318:
 1103              	.LBE317:
 1104              	.LBE316:
 1105              	.LBE315:
 1106              	.LBE314:
  92:Interface.cpp ****     delay.Init(sample_rate); 
 1107              		.loc 13 92 15 view .LVU234
 1108 0006 2C4B     		ldr	r3, .L41+4
 1109              	.LBB377:
 1110              	.LBB374:
 1111              		.loc 9 29 26 view .LVU235
 1112 0008 2046     		mov	r0, r4
 1113              	.LBB328:
 1114              	.LBB325:
 1115              	.LBB322:
 1116              	.LBB320:
 1117              		.loc 12 42 22 view .LVU236
 1118 000a 2C4A     		ldr	r2, .L41+8
 1119              	.LBE320:
 1120              	.LBE322:
 1121              	.LBE325:
 1122              	.LBE328:
 1123              	.LBE374:
 1124              	.LBE377:
ARM GAS  /var/folders/9s/8rp0_f2s1n31qbztm3b5_fdh0000gn/T//ccSMtkyz.s 			page 42


  90:Interface.cpp **** void InitializeDelay() {
 1125              		.loc 13 90 24 view .LVU237
 1126 000c 2DED028B 		vpush.64	{d8}
 1127              		.cfi_def_cfa_offset 32
 1128              		.cfi_offset 80, -32
 1129              		.cfi_offset 81, -28
  92:Interface.cpp ****     delay.Init(sample_rate); 
 1130              		.loc 13 92 15 view .LVU238
 1131 0010 93ED008A 		vldr.32	s16, [r3]
 1132              	.LVL95:
 1133              	.LBB378:
 1134              	.LBI314:
  27:Effects/EchoDelay.h ****         {
 1135              		.loc 9 27 14 is_stmt 1 view .LVU239
 1136              	.LBB375:
 1137              		.loc 9 29 26 is_stmt 0 view .LVU240
 1138 0014 2030     		adds	r0, r0, #32
 1139              	.LBB329:
 1140              	.LBB330:
 106:Effects/BiquadFilters.h ****             for (size_t i=0; i<NumSections; i++) {
 1141              		.loc 10 106 41 view .LVU241
 1142 0016 F6EE008A 		vmov.f32	s17, #5.0e-1
 1143              	.LBE330:
 1144              	.LBE329:
 1145              		.loc 9 29 26 view .LVU242
 1146 001a 84ED008A 		vstr.32	s16, [r4]
 1147              	.LVL96:
 1148              	.LBB352:
 1149              	.LBI316:
  35:lib/DaisySP/Source/Utility/delayline.h ****     /** clears buffer, sets write ptr to 0, and delay to 1 sample.
 1150              		.loc 12 35 10 is_stmt 1 view .LVU243
 1151              	.LBB326:
 1152              	.LBI317:
  38:lib/DaisySP/Source/Utility/delayline.h ****     {
 1153              		.loc 12 38 10 view .LVU244
 1154              	.LBB323:
 1155              	.LBB321:
  40:lib/DaisySP/Source/Utility/delayline.h ****         {
 1156              		.loc 12 40 29 view .LVU245
 1157              		.loc 12 42 22 is_stmt 0 view .LVU246
 1158 001e FFF7FEFF 		bl	memset
 1159              	.LVL97:
 1160              		.loc 12 42 22 view .LVU247
 1161              	.LBE321:
  43:lib/DaisySP/Source/Utility/delayline.h ****         }
  44:lib/DaisySP/Source/Utility/delayline.h ****         write_ptr_ = 0;
  45:lib/DaisySP/Source/Utility/delayline.h ****         delay_     = 1;
 1162              		.loc 12 45 20 view .LVU248
 1163 0022 0022     		movs	r2, #0
 1164 0024 0123     		movs	r3, #1
 1165              	.LBE323:
 1166              	.LBE326:
 1167              	.LBE352:
 1168              	.LBB353:
 1169              	.LBB354:
  85:Effects/BiquadFilters.h ****             SetFlatResponse();
 1170              		.loc 10 85 38 view .LVU249
ARM GAS  /var/folders/9s/8rp0_f2s1n31qbztm3b5_fdh0000gn/T//ccSMtkyz.s 			page 43


 1171 0026 F5EE007A 		vmov.f32	s15, #2.5e-1
 1172              	.LBE354:
 1173              	.LBE353:
 1174              	.LBB368:
 1175              	.LBB327:
 1176              	.LBB324:
 1177              		.loc 12 45 20 view .LVU250
 1178 002a C4E90623 		strd	r2, r3, [r4, #24]
 1179              	.LVL98:
 1180              		.loc 12 45 20 view .LVU251
 1181              	.LBE324:
 1182              	.LBE327:
 1183              	.LBE368:
 1184              	.LBB369:
 1185              	.LBI353:
  83:Effects/BiquadFilters.h ****             sample_rate_ = sample_rate;
 1186              		.loc 10 83 14 is_stmt 1 view .LVU252
 1187              	.LBB366:
  84:Effects/BiquadFilters.h ****             cutoff_hz_ = sample_rate * 0.25f;
 1188              		.loc 10 84 26 is_stmt 0 view .LVU253
 1189 002e 04F53833 		add	r3, r4, #188416
 1190 0032 03F56267 		add	r7, r3, #3616
  85:Effects/BiquadFilters.h ****             SetFlatResponse();
 1191              		.loc 10 85 24 view .LVU254
 1192 0036 03F62466 		addw	r6, r3, #3620
 1193              	.LBB355:
 1194              	.LBB356:
 1195              	.LBB357:
 119:Effects/BiquadFilters.h ****             }
 1196              		.loc 10 119 23 view .LVU255
 1197 003a 03F62865 		addw	r5, r3, #3624
 1198 003e 204B     		ldr	r3, .L41+12
 1199              	.LBE357:
 1200              	.LBE356:
 1201              	.LBE355:
  84:Effects/BiquadFilters.h ****             cutoff_hz_ = sample_rate * 0.25f;
 1202              		.loc 10 84 26 view .LVU256
 1203 0040 87ED008A 		vstr.32	s16, [r7]
  85:Effects/BiquadFilters.h ****             SetFlatResponse();
 1204              		.loc 10 85 38 view .LVU257
 1205 0044 28EE278A 		vmul.f32	s16, s16, s15
 1206              	.LVL99:
 1207              	.LBB363:
 1208              	.LBB360:
 121:Effects/BiquadFilters.h ****         }
 1209              		.loc 10 121 31 view .LVU258
 1210 0048 3846     		mov	r0, r7
 1211              	.LBB358:
 119:Effects/BiquadFilters.h ****             }
 1212              		.loc 10 119 23 view .LVU259
 1213 004a 2B60     		str	r3, [r5]	@ float
 1214              	.LBE358:
 1215              	.LBE360:
 1216              	.LBE363:
  85:Effects/BiquadFilters.h ****             SetFlatResponse();
 1217              		.loc 10 85 24 view .LVU260
 1218 004c 86ED008A 		vstr.32	s16, [r6]
ARM GAS  /var/folders/9s/8rp0_f2s1n31qbztm3b5_fdh0000gn/T//ccSMtkyz.s 			page 44


 1219              	.LVL100:
 1220              	.LBB364:
 1221              	.LBI355:
 115:Effects/BiquadFilters.h ****         {
 1222              		.loc 10 115 21 is_stmt 1 view .LVU261
 1223              	.LBB361:
 1224              	.LBB359:
 118:Effects/BiquadFilters.h ****                 q_[i] = 1.f / (2.f * cosf(PI_F * (angleIncrement * (i * 2 + 1))));
 1225              		.loc 10 118 31 view .LVU262
 118:Effects/BiquadFilters.h ****                 q_[i] = 1.f / (2.f * cosf(PI_F * (angleIncrement * (i * 2 + 1))));
 1226              		.loc 10 118 13 view .LVU263
 118:Effects/BiquadFilters.h ****                 q_[i] = 1.f / (2.f * cosf(PI_F * (angleIncrement * (i * 2 + 1))));
 1227              		.loc 10 118 31 view .LVU264
 1228              	.LBE359:
 1229              	.LBE361:
 1230              	.LBE364:
 1231              	.LBE366:
 1232              	.LBE369:
 1233              	.LBB370:
 1234              	.LBB349:
 1235              	.LBB331:
 1236              	.LBB332:
 1237              	.LBB333:
 1238              		.file 15 "lib/DaisySP/Source/Utility/dsp.h"
   1:lib/DaisySP/Source/Utility/dsp.h **** /*
   2:lib/DaisySP/Source/Utility/dsp.h **** Copyright (c) 2020 Electrosmith, Corp, Emilie Gillet
   3:lib/DaisySP/Source/Utility/dsp.h **** 
   4:lib/DaisySP/Source/Utility/dsp.h **** Use of this source code is governed by an MIT-style
   5:lib/DaisySP/Source/Utility/dsp.h **** license that can be found in the LICENSE file or at
   6:lib/DaisySP/Source/Utility/dsp.h **** https://opensource.org/licenses/MIT.
   7:lib/DaisySP/Source/Utility/dsp.h **** */
   8:lib/DaisySP/Source/Utility/dsp.h **** 
   9:lib/DaisySP/Source/Utility/dsp.h **** /** Helpful defines, functions, and other utilities for use in/with daisysp modules.
  10:lib/DaisySP/Source/Utility/dsp.h **** */
  11:lib/DaisySP/Source/Utility/dsp.h **** #pragma once
  12:lib/DaisySP/Source/Utility/dsp.h **** #ifndef DSY_CORE_DSP
  13:lib/DaisySP/Source/Utility/dsp.h **** #define DSY_CORE_DSP
  14:lib/DaisySP/Source/Utility/dsp.h **** #include <cassert>
  15:lib/DaisySP/Source/Utility/dsp.h **** #include <cstdint>
  16:lib/DaisySP/Source/Utility/dsp.h **** #include <random>
  17:lib/DaisySP/Source/Utility/dsp.h **** #include <cmath>
  18:lib/DaisySP/Source/Utility/dsp.h **** 
  19:lib/DaisySP/Source/Utility/dsp.h **** /** PIs
  20:lib/DaisySP/Source/Utility/dsp.h **** */
  21:lib/DaisySP/Source/Utility/dsp.h **** #define PI_F 3.1415927410125732421875f
  22:lib/DaisySP/Source/Utility/dsp.h **** #define TWOPI_F (2.0f * PI_F)
  23:lib/DaisySP/Source/Utility/dsp.h **** #define HALFPI_F (PI_F * 0.5f)
  24:lib/DaisySP/Source/Utility/dsp.h **** #define DSY_MIN(in, mn) (in < mn ? in : mn)
  25:lib/DaisySP/Source/Utility/dsp.h **** #define DSY_MAX(in, mx) (in > mx ? in : mx)
  26:lib/DaisySP/Source/Utility/dsp.h **** #define DSY_CLAMP(in, mn, mx) (DSY_MIN(DSY_MAX(in, mn), mx))
  27:lib/DaisySP/Source/Utility/dsp.h **** #define DSY_COUNTOF(_arr) (sizeof(_arr) / sizeof(_arr[0]))
  28:lib/DaisySP/Source/Utility/dsp.h **** 
  29:lib/DaisySP/Source/Utility/dsp.h **** namespace daisysp
  30:lib/DaisySP/Source/Utility/dsp.h **** {
  31:lib/DaisySP/Source/Utility/dsp.h **** //Avoids division for random floats. e.g. rand() * kRandFrac
  32:lib/DaisySP/Source/Utility/dsp.h **** static constexpr float kRandFrac = 1.f / (float)RAND_MAX;
  33:lib/DaisySP/Source/Utility/dsp.h **** 
ARM GAS  /var/folders/9s/8rp0_f2s1n31qbztm3b5_fdh0000gn/T//ccSMtkyz.s 			page 45


  34:lib/DaisySP/Source/Utility/dsp.h **** //Convert from semitones to other units. e.g. 2 ^ (kOneTwelfth * x)
  35:lib/DaisySP/Source/Utility/dsp.h **** static constexpr float kOneTwelfth = 1.f / 12.f;
  36:lib/DaisySP/Source/Utility/dsp.h **** 
  37:lib/DaisySP/Source/Utility/dsp.h **** /** efficient floating point min/max
  38:lib/DaisySP/Source/Utility/dsp.h **** c/o stephen mccaul
  39:lib/DaisySP/Source/Utility/dsp.h **** */
  40:lib/DaisySP/Source/Utility/dsp.h **** inline float fmax(float a, float b)
  41:lib/DaisySP/Source/Utility/dsp.h **** {
  42:lib/DaisySP/Source/Utility/dsp.h ****     float r;
  43:lib/DaisySP/Source/Utility/dsp.h **** #ifdef __arm__
  44:lib/DaisySP/Source/Utility/dsp.h ****     asm("vmaxnm.f32 %[d], %[n], %[m]" : [d] "=t"(r) : [n] "t"(a), [m] "t"(b) :);
 1239              		.loc 15 44 5 is_stmt 0 view .LVU265
 1240 0050 B7EE008A 		vmov.f32	s16, #1.0e+0
 1241              	.LBE333:
 1242              	.LBE332:
 1243              	.LBE331:
 1244              	.LBE349:
 1245              	.LBE370:
 1246              	.LBB371:
 1247              	.LBB367:
 1248              	.LBB365:
 1249              	.LBB362:
 121:Effects/BiquadFilters.h ****         }
 1250              		.loc 10 121 31 view .LVU266
 1251 0054 FFF7FEFF 		bl	_ZN10infrasonic13BiquadCascadeILj1ELNS_13BiquadSection10FilterTypeE2EE18updateCoefficientsEv
 1252              	.LVL101:
 121:Effects/BiquadFilters.h ****         }
 1253              		.loc 10 121 31 view .LVU267
 1254              	.LBE362:
 1255              	.LBE365:
 1256              	.LBE367:
 1257              	.LBE371:
 1258              	.LBB372:
 1259              	.LBI329:
 104:Effects/BiquadFilters.h ****         {
 1260              		.loc 10 104 21 is_stmt 1 view .LVU268
 1261              	.LBB350:
 1262              	.LBB342:
 1263              	.LBI331:
  45:lib/DaisySP/Source/Utility/dsp.h **** #else
  46:lib/DaisySP/Source/Utility/dsp.h ****     r = (a > b) ? a : b;
  47:lib/DaisySP/Source/Utility/dsp.h **** #endif // __arm__
  48:lib/DaisySP/Source/Utility/dsp.h ****     return r;
  49:lib/DaisySP/Source/Utility/dsp.h **** }
  50:lib/DaisySP/Source/Utility/dsp.h **** 
  51:lib/DaisySP/Source/Utility/dsp.h **** inline float fmin(float a, float b)
  52:lib/DaisySP/Source/Utility/dsp.h **** {
  53:lib/DaisySP/Source/Utility/dsp.h ****     float r;
  54:lib/DaisySP/Source/Utility/dsp.h **** #ifdef __arm__
  55:lib/DaisySP/Source/Utility/dsp.h ****     asm("vminnm.f32 %[d], %[n], %[m]" : [d] "=t"(r) : [n] "t"(a), [m] "t"(b) :);
  56:lib/DaisySP/Source/Utility/dsp.h **** #else
  57:lib/DaisySP/Source/Utility/dsp.h ****     r = (a < b) ? a : b;
  58:lib/DaisySP/Source/Utility/dsp.h **** #endif // __arm__
  59:lib/DaisySP/Source/Utility/dsp.h ****     return r;
  60:lib/DaisySP/Source/Utility/dsp.h **** }
  61:lib/DaisySP/Source/Utility/dsp.h **** 
  62:lib/DaisySP/Source/Utility/dsp.h **** /** quick fp clamp
ARM GAS  /var/folders/9s/8rp0_f2s1n31qbztm3b5_fdh0000gn/T//ccSMtkyz.s 			page 46


  63:lib/DaisySP/Source/Utility/dsp.h **** */
  64:lib/DaisySP/Source/Utility/dsp.h **** inline float fclamp(float in, float min, float max)
 1264              		.loc 15 64 14 view .LVU269
 1265              	.LBE342:
 1266              	.LBE350:
 1267              	.LBE372:
 1268              	.LBE375:
 1269              	.LBE378:
  65:lib/DaisySP/Source/Utility/dsp.h **** {
  66:lib/DaisySP/Source/Utility/dsp.h ****     return fmin(fmax(in, min), max);
 1270              		.loc 15 66 5 view .LVU270
 1271              	.LBB379:
 1272              	.LBB376:
 1273              	.LBB373:
 1274              	.LBB351:
 1275              	.LBB343:
 1276              	.LBB337:
 1277              	.LBI332:
  40:lib/DaisySP/Source/Utility/dsp.h **** {
 1278              		.loc 15 40 14 view .LVU271
 1279              	.LBB334:
  42:lib/DaisySP/Source/Utility/dsp.h **** #ifdef __arm__
 1280              		.loc 15 42 5 view .LVU272
  44:lib/DaisySP/Source/Utility/dsp.h **** #else
 1281              		.loc 15 44 5 view .LVU273
 1282              	.LBE334:
 1283              	.LBE337:
 1284              	.LBE343:
 106:Effects/BiquadFilters.h ****             for (size_t i=0; i<NumSections; i++) {
 1285              		.loc 10 106 41 is_stmt 0 view .LVU274
 1286 0058 97ED007A 		vldr.32	s14, [r7]
 1287              	.LBB344:
 1288              	.LBB338:
 1289              	.LBB335:
  44:lib/DaisySP/Source/Utility/dsp.h **** #else
 1290              		.loc 15 44 5 view .LVU275
 1291 005c DFED197A 		vldr.32	s15, .L41+16
 1292              	.LBE335:
 1293              	.LBE338:
 1294              	.LBE344:
 110:Effects/BiquadFilters.h ****         }
 1295              		.loc 10 110 31 view .LVU276
 1296 0060 3846     		mov	r0, r7
 106:Effects/BiquadFilters.h ****             for (size_t i=0; i<NumSections; i++) {
 1297              		.loc 10 106 41 view .LVU277
 1298 0062 27EE287A 		vmul.f32	s14, s14, s17
 1299              	.LVL102:
 1300              	.LBB345:
 1301              	.LBB339:
 1302              	.LBB336:
  44:lib/DaisySP/Source/Utility/dsp.h **** #else
 1303              		.loc 15 44 5 view .LVU278
 1304              		.syntax unified
 1305              	@ 44 "lib/DaisySP/Source/Utility/dsp.h" 1
 1306 0066 C7FE887A 		vmaxnm.f32 s15, s15, s16
 1307              	@ 0 "" 2
 1308              	.LVL103:
ARM GAS  /var/folders/9s/8rp0_f2s1n31qbztm3b5_fdh0000gn/T//ccSMtkyz.s 			page 47


  48:lib/DaisySP/Source/Utility/dsp.h **** }
 1309              		.loc 15 48 5 is_stmt 1 view .LVU279
  48:lib/DaisySP/Source/Utility/dsp.h **** }
 1310              		.loc 15 48 5 is_stmt 0 view .LVU280
 1311              		.thumb
 1312              		.syntax unified
 1313              	.LBE336:
 1314              	.LBE339:
 1315              	.LBB340:
 1316              	.LBI340:
  51:lib/DaisySP/Source/Utility/dsp.h **** {
 1317              		.loc 15 51 14 is_stmt 1 view .LVU281
 1318              	.LBB341:
  53:lib/DaisySP/Source/Utility/dsp.h **** #ifdef __arm__
 1319              		.loc 15 53 5 view .LVU282
  55:lib/DaisySP/Source/Utility/dsp.h **** #else
 1320              		.loc 15 55 5 view .LVU283
 1321              		.syntax unified
 1322              	@ 55 "lib/DaisySP/Source/Utility/dsp.h" 1
 1323 006a C7FEC77A 		vminnm.f32 s15, s15, s14
 1324              	@ 0 "" 2
 1325              	.LVL104:
  59:lib/DaisySP/Source/Utility/dsp.h **** }
 1326              		.loc 15 59 5 view .LVU284
  59:lib/DaisySP/Source/Utility/dsp.h **** }
 1327              		.loc 15 59 5 is_stmt 0 view .LVU285
 1328              		.thumb
 1329              		.syntax unified
 1330              	.LBE341:
 1331              	.LBE340:
 1332              	.LBE345:
 106:Effects/BiquadFilters.h ****             for (size_t i=0; i<NumSections; i++) {
 1333              		.loc 10 106 24 view .LVU286
 1334 006e C6ED007A 		vstr.32	s15, [r6]
 1335              	.LVL105:
 1336              	.LBB346:
 107:Effects/BiquadFilters.h ****                 q_[i] = daisysp::fmax(q, 0.1f);
 1337              		.loc 10 107 31 is_stmt 1 view .LVU287
 1338              	.LBB347:
 1339              	.LBI347:
  40:lib/DaisySP/Source/Utility/dsp.h **** {
 1340              		.loc 15 40 14 view .LVU288
 1341              	.LBB348:
  42:lib/DaisySP/Source/Utility/dsp.h **** #ifdef __arm__
 1342              		.loc 15 42 5 view .LVU289
  44:lib/DaisySP/Source/Utility/dsp.h **** #else
 1343              		.loc 15 44 5 view .LVU290
 1344 0072 DFED157A 		vldr.32	s15, .L41+20
 1345              		.syntax unified
 1346              	@ 44 "lib/DaisySP/Source/Utility/dsp.h" 1
 1347 0076 C8FE277A 		vmaxnm.f32 s15, s16, s15
 1348              	@ 0 "" 2
 1349              	.LVL106:
  48:lib/DaisySP/Source/Utility/dsp.h **** }
 1350              		.loc 15 48 5 view .LVU291
  48:lib/DaisySP/Source/Utility/dsp.h **** }
 1351              		.loc 15 48 5 is_stmt 0 view .LVU292
ARM GAS  /var/folders/9s/8rp0_f2s1n31qbztm3b5_fdh0000gn/T//ccSMtkyz.s 			page 48


 1352              		.thumb
 1353              		.syntax unified
 1354              	.LBE348:
 1355              	.LBE347:
 108:Effects/BiquadFilters.h ****             }
 1356              		.loc 10 108 23 view .LVU293
 1357 007a C5ED007A 		vstr.32	s15, [r5]
 107:Effects/BiquadFilters.h ****                 q_[i] = daisysp::fmax(q, 0.1f);
 1358              		.loc 10 107 13 is_stmt 1 view .LVU294
 1359              	.LVL107:
 107:Effects/BiquadFilters.h ****                 q_[i] = daisysp::fmax(q, 0.1f);
 1360              		.loc 10 107 31 view .LVU295
 1361              	.LBE346:
 110:Effects/BiquadFilters.h ****         }
 1362              		.loc 10 110 31 is_stmt 0 view .LVU296
 1363 007e FFF7FEFF 		bl	_ZN10infrasonic13BiquadCascadeILj1ELNS_13BiquadSection10FilterTypeE2EE18updateCoefficientsEv
 1364              	.LVL108:
 110:Effects/BiquadFilters.h ****         }
 1365              		.loc 10 110 31 view .LVU297
 1366              	.LBE351:
 1367              	.LBE373:
 1368              	.LBE376:
 1369              	.LBE379:
  93:Interface.cpp ****     delay.SetLagTime(0.02f);         // Short lag for time changes
 1370              		.loc 13 93 5 is_stmt 1 view .LVU298
 1371              	.LBB380:
 1372              	.LBI380:
  30:Effects/EchoDelay.h ****             delayLine_.Init();
  31:Effects/EchoDelay.h ****             bpf_.Init(sample_rate);
  32:Effects/EchoDelay.h ****             bpf_.SetParams(800.0f, 1.0f);
  33:Effects/EchoDelay.h ****         }
  34:Effects/EchoDelay.h **** 
  35:Effects/EchoDelay.h ****         /**
  36:Effects/EchoDelay.h ****          * @brief Set the approximate lag time (smoothing) for delay time changes, in seconds
  37:Effects/EchoDelay.h ****          */
  38:Effects/EchoDelay.h ****         void SetLagTime(const float time_s)
 1373              		.loc 9 38 14 view .LVU299
 1374              	.LBB381:
  39:Effects/EchoDelay.h ****         {
  40:Effects/EchoDelay.h ****             delay_smooth_coef_ = onepole_coef(time_s, sample_rate_);
 1375              		.loc 9 40 46 is_stmt 0 view .LVU300
 1376 0082 D4ED007A 		vldr.32	s15, [r4]
 1377              	.LVL109:
 1378              	.LBB382:
 1379              	.LBI382:
 1380              		.file 16 "Effects/DSPUtils.h"
   1:Effects/DSPUtils.h **** #pragma once
   2:Effects/DSPUtils.h **** #ifndef INFS_DSPUTILS_H
   3:Effects/DSPUtils.h **** #define INFS_DSPUTILS_H
   4:Effects/DSPUtils.h **** 
   5:Effects/DSPUtils.h **** #include <cmath>
   6:Effects/DSPUtils.h **** #include <Utility/dsp.h>
   7:Effects/DSPUtils.h **** #ifdef __arm__
   8:Effects/DSPUtils.h **** #include <arm_math.h>
   9:Effects/DSPUtils.h **** #endif
  10:Effects/DSPUtils.h **** 
  11:Effects/DSPUtils.h **** namespace infrasonic {
ARM GAS  /var/folders/9s/8rp0_f2s1n31qbztm3b5_fdh0000gn/T//ccSMtkyz.s 			page 49


  12:Effects/DSPUtils.h **** 
  13:Effects/DSPUtils.h **** inline float dbfs2lin(float dbfs) {
  14:Effects/DSPUtils.h ****     return daisysp::pow10f(dbfs * 0.05f);
  15:Effects/DSPUtils.h **** }
  16:Effects/DSPUtils.h **** 
  17:Effects/DSPUtils.h **** inline float lin2dbfs(float lin) {
  18:Effects/DSPUtils.h ****     return daisysp::fastlog10f(lin) * 20.0f;
  19:Effects/DSPUtils.h **** }
  20:Effects/DSPUtils.h **** 
  21:Effects/DSPUtils.h **** // Coefficient for one pole smoothing filter based on Tau time constant for `time_s`
  22:Effects/DSPUtils.h **** inline float onepole_coef(float time_s, float sample_rate) {
 1381              		.loc 16 22 14 is_stmt 1 view .LVU301
 1382              	.LBB383:
  23:Effects/DSPUtils.h ****     if (time_s <= 0.0f || sample_rate <= 0.0f) { return 1.0f; }
 1383              		.loc 16 23 5 view .LVU302
 1384              		.loc 16 23 24 is_stmt 0 view .LVU303
 1385 0086 F5EEC07A 		vcmpe.f32	s15, #0
 1386 008a F1EE10FA 		vmrs	APSR_nzcv, FPSCR
 1387 008e 07D9     		bls	.L39
  24:Effects/DSPUtils.h ****     return daisysp::fmin(1.0f / (time_s * sample_rate), 1.0f);
 1388              		.loc 16 24 5 is_stmt 1 view .LVU304
 1389              	.LVL110:
 1390              	.LBB384:
 1391              	.LBI384:
  51:lib/DaisySP/Source/Utility/dsp.h **** {
 1392              		.loc 15 51 14 view .LVU305
 1393              	.LBB385:
  53:lib/DaisySP/Source/Utility/dsp.h **** #ifdef __arm__
 1394              		.loc 15 53 5 view .LVU306
  55:lib/DaisySP/Source/Utility/dsp.h **** #else
 1395              		.loc 15 55 5 view .LVU307
 1396              	.LBE385:
 1397              	.LBE384:
 1398              		.loc 16 24 41 is_stmt 0 view .LVU308
 1399 0090 9FED0E7A 		vldr.32	s14, .L41+24
 1400 0094 67EE877A 		vmul.f32	s15, s15, s14
 1401              	.LVL111:
 1402              		.loc 16 24 25 view .LVU309
 1403 0098 88EE277A 		vdiv.f32	s14, s16, s15
 1404              	.LVL112:
 1405              	.LBB387:
 1406              	.LBB386:
  55:lib/DaisySP/Source/Utility/dsp.h **** #else
 1407              		.loc 15 55 5 view .LVU310
 1408              		.syntax unified
 1409              	@ 55 "lib/DaisySP/Source/Utility/dsp.h" 1
 1410 009c 87FE488A 		vminnm.f32 s16, s14, s16
 1411              	@ 0 "" 2
 1412              	.LVL113:
  59:lib/DaisySP/Source/Utility/dsp.h **** }
 1413              		.loc 15 59 5 is_stmt 1 view .LVU311
 1414              		.thumb
 1415              		.syntax unified
 1416              	.L39:
  59:lib/DaisySP/Source/Utility/dsp.h **** }
 1417              		.loc 15 59 5 is_stmt 0 view .LVU312
 1418              	.LBE386:
ARM GAS  /var/folders/9s/8rp0_f2s1n31qbztm3b5_fdh0000gn/T//ccSMtkyz.s 			page 50


 1419              	.LBE387:
 1420              	.LBE383:
 1421              	.LBE382:
 1422              	.LBE381:
 1423              	.LBE380:
 1424              	.LBB389:
 1425              	.LBB390:
  41:Effects/EchoDelay.h ****         }
  42:Effects/EchoDelay.h **** 
  43:Effects/EchoDelay.h ****         /**
  44:Effects/EchoDelay.h ****          * @brief Set the Delay Time in seconds
  45:Effects/EchoDelay.h ****          *
  46:Effects/EchoDelay.h ****          * @param time_s Delay time in seconds. Will be truncated to MaxLength.
  47:Effects/EchoDelay.h ****          * @param immediately If true, sets delay time immediately with no smoothing.
  48:Effects/EchoDelay.h ****          */
  49:Effects/EchoDelay.h ****         void SetDelayTime(const float time_s, bool immediately = false)
  50:Effects/EchoDelay.h ****         {
  51:Effects/EchoDelay.h ****             delay_time_target_ = time_s;
 1426              		.loc 9 51 32 view .LVU313
 1427 00a0 0B4B     		ldr	r3, .L41+28
 1428              	.LBE390:
 1429              	.LBE389:
 1430              	.LBB392:
 1431              	.LBB388:
  40:Effects/EchoDelay.h ****         }
 1432              		.loc 9 40 32 view .LVU314
 1433 00a2 84ED038A 		vstr.32	s16, [r4, #12]
 1434              	.LVL114:
  40:Effects/EchoDelay.h ****         }
 1435              		.loc 9 40 32 view .LVU315
 1436              	.LBE388:
 1437              	.LBE392:
  94:Interface.cpp ****     delay.SetDelayTime(0.3f, true); // 300ms delay, set immediately
 1438              		.loc 13 94 5 is_stmt 1 view .LVU316
 1439              	.LBB393:
 1440              	.LBI389:
  49:Effects/EchoDelay.h ****         {
 1441              		.loc 9 49 14 view .LVU317
 1442              	.LBE393:
 1443              	.LBB394:
 1444              	.LBB395:
  52:Effects/EchoDelay.h ****             if (immediately) delay_time_current_ = time_s;
  53:Effects/EchoDelay.h ****         }
  54:Effects/EchoDelay.h **** 
  55:Effects/EchoDelay.h ****         /**
  56:Effects/EchoDelay.h ****          * @brief
  57:Effects/EchoDelay.h ****          * Set the feedback amount (linear multiplier).
  58:Effects/EchoDelay.h ****          * This can be >1 in magnitude for saturated swells, or negative.
  59:Effects/EchoDelay.h ****          *
  60:Effects/EchoDelay.h ****          * NOTE: This is not internally smoothed. Use external smoothing if desired.
  61:Effects/EchoDelay.h ****          *
  62:Effects/EchoDelay.h ****          * @param feedback
  63:Effects/EchoDelay.h ****          */
  64:Effects/EchoDelay.h ****         void SetFeedback(const float feedback)
  65:Effects/EchoDelay.h ****         {
  66:Effects/EchoDelay.h ****             feedback_ = feedback;
 1445              		.loc 9 66 23 is_stmt 0 view .LVU318
ARM GAS  /var/folders/9s/8rp0_f2s1n31qbztm3b5_fdh0000gn/T//ccSMtkyz.s 			page 51


 1446 00a6 C4ED048A 		vstr.32	s17, [r4, #16]
 1447              	.LBE395:
 1448              	.LBE394:
 1449              	.LBB396:
 1450              	.LBB391:
  51:Effects/EchoDelay.h ****             if (immediately) delay_time_current_ = time_s;
 1451              		.loc 9 51 32 view .LVU319
 1452 00aa A360     		str	r3, [r4, #8]	@ float
  52:Effects/EchoDelay.h ****             if (immediately) delay_time_current_ = time_s;
 1453              		.loc 9 52 50 view .LVU320
 1454 00ac 6360     		str	r3, [r4, #4]	@ float
 1455              	.LVL115:
  52:Effects/EchoDelay.h ****             if (immediately) delay_time_current_ = time_s;
 1456              		.loc 9 52 50 view .LVU321
 1457              	.LBE391:
 1458              	.LBE396:
  95:Interface.cpp ****     delay.SetFeedback(0.5f);         // 50% feedback
 1459              		.loc 13 95 5 is_stmt 1 view .LVU322
 1460              	.LBB397:
 1461              	.LBI394:
  64:Effects/EchoDelay.h ****         {
 1462              		.loc 9 64 14 view .LVU323
  64:Effects/EchoDelay.h ****         {
 1463              		.loc 9 64 14 is_stmt 0 view .LVU324
 1464              	.LBE397:
  96:Interface.cpp **** }
 1465              		.loc 13 96 1 view .LVU325
 1466 00ae BDEC028B 		vldm	sp!, {d8}
 1467              		.cfi_restore 80
 1468              		.cfi_restore 81
 1469              		.cfi_def_cfa_offset 24
 1470 00b2 F8BD     		pop	{r3, r4, r5, r6, r7, pc}
 1471              	.L42:
 1472              		.align	2
 1473              	.L41:
 1474 00b4 00000000 		.word	delay
 1475 00b8 00000000 		.word	.LANCHOR1
 1476 00bc 00EE0200 		.word	192000
 1477 00c0 F304353F 		.word	1060439283
 1478 00c4 00004844 		.word	1145569280
 1479 00c8 CDCCCC3D 		.word	1036831949
 1480 00cc 0AD7A33C 		.word	1017370378
 1481 00d0 9A99993E 		.word	1050253722
 1482              		.cfi_endproc
 1483              	.LFE5063:
 1485              		.section	.rodata._Z15InitializeSynthv.str1.1,"aMS",%progbits,1
 1486              	.LC3:
 1487 0000 506F6C79 		.ascii	"Poly (0-3)\000"
 1487      2028302D 
 1487      332900
 1488              	.LC4:
 1489 000b 44796E61 		.ascii	"Dynamic Poly\000"
 1489      6D696320 
 1489      506F6C79 
 1489      00
 1490              	.LC5:
 1491 0018 506C6169 		.ascii	"Plaits Synth Started - Ready for Bootloader CMD\000"
ARM GAS  /var/folders/9s/8rp0_f2s1n31qbztm3b5_fdh0000gn/T//ccSMtkyz.s 			page 52


 1491      74732053 
 1491      796E7468 
 1491      20537461 
 1491      72746564 
 1492              	.LC6:
 1493 0048 4D617820 		.ascii	"Max Voices: %d | Block: %d | SR: %d\000"
 1493      566F6963 
 1493      65733A20 
 1493      2564207C 
 1493      20426C6F 
 1494              	.LC7:
 1495 006c 456E6769 		.ascii	"Engine Range: 0-%d\000"
 1495      6E652052 
 1495      616E6765 
 1495      3A20302D 
 1495      256400
 1496              	.LC8:
 1497 007f 4D6F6465 		.ascii	"Mode: %s\000"
 1497      3A202573 
 1497      00
 1498              	.LC9:
 1499 0088 2D2D2D2D 		.ascii	"----------------\000"
 1499      2D2D2D2D 
 1499      2D2D2D2D 
 1499      2D2D2D2D 
 1499      00
 1500              		.section	.text._Z15InitializeSynthv,"ax",%progbits
 1501              		.align	1
 1502              		.global	_Z15InitializeSynthv
 1503              		.syntax unified
 1504              		.thumb
 1505              		.thumb_func
 1507              	_Z15InitializeSynthv:
 1508              	.LFB5064:
  98:Interface.cpp **** void InitializeSynth() {
 1509              		.loc 13 98 24 is_stmt 1 view -0
 1510              		.cfi_startproc
 1511              		@ args = 0, pretend = 0, frame = 64
 1512              		@ frame_needed = 0, uses_anonymous_args = 0
  99:Interface.cpp ****     InitializeHardware();
 1513              		.loc 13 99 5 view .LVU327
  98:Interface.cpp **** void InitializeSynth() {
 1514              		.loc 13 98 24 is_stmt 0 view .LVU328
 1515 0000 10B5     		push	{r4, lr}
 1516              		.cfi_def_cfa_offset 8
 1517              		.cfi_offset 4, -8
 1518              		.cfi_offset 14, -4
 104:Interface.cpp ****     cpu_meter.Init(sample_rate, BLOCK_SIZE); // Initialize the CPU Load Meter
 1519              		.loc 13 104 19 view .LVU329
 1520 0002 364C     		ldr	r4, .L46
  98:Interface.cpp **** void InitializeSynth() {
 1521              		.loc 13 98 24 view .LVU330
 1522 0004 2DED028B 		vpush.64	{d8}
 1523              		.cfi_def_cfa_offset 16
 1524              		.cfi_offset 80, -16
 1525              		.cfi_offset 81, -12
 1526 0008 92B0     		sub	sp, sp, #72
ARM GAS  /var/folders/9s/8rp0_f2s1n31qbztm3b5_fdh0000gn/T//ccSMtkyz.s 			page 53


 1527              		.cfi_def_cfa_offset 88
  99:Interface.cpp ****     InitializeHardware();
 1528              		.loc 13 99 23 view .LVU331
 1529 000a FFF7FEFF 		bl	_Z18InitializeHardwarev
 1530              	.LVL116:
 100:Interface.cpp ****     InitializeVoices(); // Call function from Polyphony.cpp
 1531              		.loc 13 100 5 is_stmt 1 view .LVU332
 100:Interface.cpp ****     InitializeVoices(); // Call function from Polyphony.cpp
 1532              		.loc 13 100 21 is_stmt 0 view .LVU333
 1533 000e FFF7FEFF 		bl	_Z16InitializeVoicesv
 1534              	.LVL117:
 101:Interface.cpp ****     InitializeControls();
 1535              		.loc 13 101 5 is_stmt 1 view .LVU334
 101:Interface.cpp ****     InitializeControls();
 1536              		.loc 13 101 23 is_stmt 0 view .LVU335
 1537 0012 FFF7FEFF 		bl	_Z18InitializeControlsv
 1538              	.LVL118:
 102:Interface.cpp ****     InitializeTouchSensor();
 1539              		.loc 13 102 5 is_stmt 1 view .LVU336
 102:Interface.cpp ****     InitializeTouchSensor();
 1540              		.loc 13 102 26 is_stmt 0 view .LVU337
 1541 0016 FFF7FEFF 		bl	_Z21InitializeTouchSensorv
 1542              	.LVL119:
 103:Interface.cpp ****     InitializeDelay();
 1543              		.loc 13 103 5 is_stmt 1 view .LVU338
 103:Interface.cpp ****     InitializeDelay();
 1544              		.loc 13 103 20 is_stmt 0 view .LVU339
 1545 001a FFF7FEFF 		bl	_Z15InitializeDelayv
 1546              	.LVL120:
 104:Interface.cpp ****     cpu_meter.Init(sample_rate, BLOCK_SIZE); // Initialize the CPU Load Meter
 1547              		.loc 13 104 5 is_stmt 1 view .LVU340
 104:Interface.cpp ****     cpu_meter.Init(sample_rate, BLOCK_SIZE); // Initialize the CPU Load Meter
 1548              		.loc 13 104 19 is_stmt 0 view .LVU341
 1549 001e 94ED008A 		vldr.32	s16, [r4]
 1550              	.LVL121:
 1551              	.LBB414:
 1552              	.LBI414:
 1553              		.file 17 "lib/libdaisy/src/util/CpuLoadMeter.h"
   1:lib/libdaisy/src/util/CpuLoadMeter.h **** #pragma once
   2:lib/libdaisy/src/util/CpuLoadMeter.h **** 
   3:lib/libdaisy/src/util/CpuLoadMeter.h **** #include "sys/system.h"
   4:lib/libdaisy/src/util/CpuLoadMeter.h **** #include <cmath>
   5:lib/libdaisy/src/util/CpuLoadMeter.h **** 
   6:lib/libdaisy/src/util/CpuLoadMeter.h **** namespace daisy
   7:lib/libdaisy/src/util/CpuLoadMeter.h **** {
   8:lib/libdaisy/src/util/CpuLoadMeter.h **** /** @brief CPU load metering
   9:lib/libdaisy/src/util/CpuLoadMeter.h ****  *  @author jelliesen
  10:lib/libdaisy/src/util/CpuLoadMeter.h ****  *  @addtogroup utility
  11:lib/libdaisy/src/util/CpuLoadMeter.h ****  * 
  12:lib/libdaisy/src/util/CpuLoadMeter.h ****  *  To measure the CPU load of your audio processing, create a CpuLoadMeter
  13:lib/libdaisy/src/util/CpuLoadMeter.h ****  *  and initialize it with your block size and sample rate.
  14:lib/libdaisy/src/util/CpuLoadMeter.h ****  *  Then at the beginning of the audio callback, call `OnBlockStart()`, 
  15:lib/libdaisy/src/util/CpuLoadMeter.h ****  *  and at the end of the audio callback, call `OnBlockEnd()`.
  16:lib/libdaisy/src/util/CpuLoadMeter.h ****  *  You can then read out the minimum, maximum and average CPU load.
  17:lib/libdaisy/src/util/CpuLoadMeter.h ****  */
  18:lib/libdaisy/src/util/CpuLoadMeter.h **** class CpuLoadMeter
  19:lib/libdaisy/src/util/CpuLoadMeter.h **** {
ARM GAS  /var/folders/9s/8rp0_f2s1n31qbztm3b5_fdh0000gn/T//ccSMtkyz.s 			page 54


  20:lib/libdaisy/src/util/CpuLoadMeter.h ****   public:
  21:lib/libdaisy/src/util/CpuLoadMeter.h ****     CpuLoadMeter(){};
  22:lib/libdaisy/src/util/CpuLoadMeter.h **** 
  23:lib/libdaisy/src/util/CpuLoadMeter.h ****     /** Initializes the CpuLoadMeter for a particular sample rate and block size.
  24:lib/libdaisy/src/util/CpuLoadMeter.h ****      *  @param sampleRateInHz           The sample rate in Hz
  25:lib/libdaisy/src/util/CpuLoadMeter.h ****      *  @param blockSizeInSamples       The block size in samples
  26:lib/libdaisy/src/util/CpuLoadMeter.h ****      *  @param smoothingFilterCutoffHz  The cutoff frequency of the smoothing filter that's used to
  27:lib/libdaisy/src/util/CpuLoadMeter.h ****      *                                  create the average CPU load reading.
  28:lib/libdaisy/src/util/CpuLoadMeter.h ****      */
  29:lib/libdaisy/src/util/CpuLoadMeter.h ****     void Init(float sampleRateInHz,
 1554              		.loc 17 29 10 is_stmt 1 view .LVU342
 1555              	.LBB415:
  30:lib/libdaisy/src/util/CpuLoadMeter.h ****               int   blockSizeInSamples,
  31:lib/libdaisy/src/util/CpuLoadMeter.h ****               float smoothingFilterCutoffHz = 1.0f)
  32:lib/libdaisy/src/util/CpuLoadMeter.h ****     {
  33:lib/libdaisy/src/util/CpuLoadMeter.h ****         const auto secPerBlock = float(blockSizeInSamples) / sampleRateInHz;
 1556              		.loc 17 33 9 view .LVU343
  34:lib/libdaisy/src/util/CpuLoadMeter.h ****         const auto ticksPerS   = float(System::GetTickFreq());
 1557              		.loc 17 34 9 view .LVU344
 1558              		.loc 17 34 59 is_stmt 0 view .LVU345
 1559 0022 FFF7FEFF 		bl	_ZN5daisy6System11GetTickFreqEv
 1560              	.LVL122:
  35:lib/libdaisy/src/util/CpuLoadMeter.h ****         ticksPerBlockInv_      = 1.0f / (ticksPerS * secPerBlock);
 1561              		.loc 17 35 9 is_stmt 1 view .LVU346
  33:lib/libdaisy/src/util/CpuLoadMeter.h ****         const auto ticksPerS   = float(System::GetTickFreq());
 1562              		.loc 17 33 20 is_stmt 0 view .LVU347
 1563 0026 B3EE007A 		vmov.f32	s14, #1.6e+1
 1564              		.loc 17 35 32 view .LVU348
 1565 002a 2D4B     		ldr	r3, .L46+4
 1566              	.LBB416:
 1567              	.LBB417:
  36:lib/libdaisy/src/util/CpuLoadMeter.h **** 
  37:lib/libdaisy/src/util/CpuLoadMeter.h ****         // update filter coefficient for smoothing filter (1pole lowpass)
  38:lib/libdaisy/src/util/CpuLoadMeter.h ****         const auto blockRateInHz = sampleRateInHz / float(blockSizeInSamples);
  39:lib/libdaisy/src/util/CpuLoadMeter.h ****         const auto cutoffNormalized
  40:lib/libdaisy/src/util/CpuLoadMeter.h ****             = smoothingFilterCutoffHz * 2.0f * 3.141592653f / blockRateInHz;
  41:lib/libdaisy/src/util/CpuLoadMeter.h ****         // according to
  42:lib/libdaisy/src/util/CpuLoadMeter.h ****         // https://en.wikipedia.org/wiki/Low-pass_filter#Simple_infinite_impulse_response_filter
  43:lib/libdaisy/src/util/CpuLoadMeter.h ****         smoothingConstant_ = cutoffNormalized / (cutoffNormalized + 1.0f);
  44:lib/libdaisy/src/util/CpuLoadMeter.h **** 
  45:lib/libdaisy/src/util/CpuLoadMeter.h ****         Reset();
  46:lib/libdaisy/src/util/CpuLoadMeter.h ****     }
  47:lib/libdaisy/src/util/CpuLoadMeter.h **** 
  48:lib/libdaisy/src/util/CpuLoadMeter.h ****     /** Call this at the beginning of your audio callback */
  49:lib/libdaisy/src/util/CpuLoadMeter.h ****     void OnBlockStart() { currentBlockStartTicks_ = System::GetTick(); }
  50:lib/libdaisy/src/util/CpuLoadMeter.h **** 
  51:lib/libdaisy/src/util/CpuLoadMeter.h ****     /** Call this at the end of your audio callback */
  52:lib/libdaisy/src/util/CpuLoadMeter.h ****     void OnBlockEnd()
  53:lib/libdaisy/src/util/CpuLoadMeter.h ****     {
  54:lib/libdaisy/src/util/CpuLoadMeter.h ****         const auto end         = System::GetTick();
  55:lib/libdaisy/src/util/CpuLoadMeter.h ****         const auto ticksPassed = end - currentBlockStartTicks_;
  56:lib/libdaisy/src/util/CpuLoadMeter.h ****         const auto currentBlockLoad
  57:lib/libdaisy/src/util/CpuLoadMeter.h ****             = float(ticksPassed) * ticksPerBlockInv_; // usPassed / usPerBlock
  58:lib/libdaisy/src/util/CpuLoadMeter.h **** 
  59:lib/libdaisy/src/util/CpuLoadMeter.h ****         if(firstCycle_)
  60:lib/libdaisy/src/util/CpuLoadMeter.h ****         {
  61:lib/libdaisy/src/util/CpuLoadMeter.h ****             max_ = min_ = avg_ = currentBlockLoad;
ARM GAS  /var/folders/9s/8rp0_f2s1n31qbztm3b5_fdh0000gn/T//ccSMtkyz.s 			page 55


  62:lib/libdaisy/src/util/CpuLoadMeter.h ****             firstCycle_        = false;
  63:lib/libdaisy/src/util/CpuLoadMeter.h ****         }
  64:lib/libdaisy/src/util/CpuLoadMeter.h ****         else
  65:lib/libdaisy/src/util/CpuLoadMeter.h ****         {
  66:lib/libdaisy/src/util/CpuLoadMeter.h ****             if(currentBlockLoad > max_)
  67:lib/libdaisy/src/util/CpuLoadMeter.h ****                 max_ = currentBlockLoad;
  68:lib/libdaisy/src/util/CpuLoadMeter.h ****             if(currentBlockLoad < min_)
  69:lib/libdaisy/src/util/CpuLoadMeter.h ****                 min_ = currentBlockLoad;
  70:lib/libdaisy/src/util/CpuLoadMeter.h **** 
  71:lib/libdaisy/src/util/CpuLoadMeter.h ****             avg_ = smoothingConstant_ * currentBlockLoad
  72:lib/libdaisy/src/util/CpuLoadMeter.h ****                    + (1.0f - smoothingConstant_) * avg_;
  73:lib/libdaisy/src/util/CpuLoadMeter.h ****         }
  74:lib/libdaisy/src/util/CpuLoadMeter.h ****     }
  75:lib/libdaisy/src/util/CpuLoadMeter.h **** 
  76:lib/libdaisy/src/util/CpuLoadMeter.h ****     /** Returns the smoothed average CPU load in the range 0..1 */
  77:lib/libdaisy/src/util/CpuLoadMeter.h ****     float GetAvgCpuLoad() const { return avg_; }
  78:lib/libdaisy/src/util/CpuLoadMeter.h ****     /** Returns the minimun CPU load observed since the last call to Reset(). */
  79:lib/libdaisy/src/util/CpuLoadMeter.h ****     float GetMinCpuLoad() const { return min_; }
  80:lib/libdaisy/src/util/CpuLoadMeter.h ****     /** Returns the maximum CPU load observed since the last call to Reset(). */
  81:lib/libdaisy/src/util/CpuLoadMeter.h ****     float GetMaxCpuLoad() const { return max_; }
  82:lib/libdaisy/src/util/CpuLoadMeter.h **** 
  83:lib/libdaisy/src/util/CpuLoadMeter.h ****     /** Resets the minimun, maximum and average load readings. */
  84:lib/libdaisy/src/util/CpuLoadMeter.h ****     void Reset()
  85:lib/libdaisy/src/util/CpuLoadMeter.h ****     {
  86:lib/libdaisy/src/util/CpuLoadMeter.h ****         firstCycle_ = true;
 1568              		.loc 17 86 21 view .LVU349
 1569 002c 0122     		movs	r2, #1
 1570              	.LBE417:
 1571              	.LBE416:
 1572              	.LBE415:
 1573              	.LBE414:
 107:Interface.cpp ****     hw.StartAudio(AudioCallback);
 1574              		.loc 13 107 18 view .LVU350
 1575 002e 2D49     		ldr	r1, .L46+8
 1576              	.LBB428:
 1577              	.LBB426:
  33:lib/libdaisy/src/util/CpuLoadMeter.h ****         const auto ticksPerS   = float(System::GetTickFreq());
 1578              		.loc 17 33 20 view .LVU351
 1579 0030 C7EE087A 		vdiv.f32	s15, s14, s16
 1580              	.LVL123:
  34:lib/libdaisy/src/util/CpuLoadMeter.h ****         ticksPerBlockInv_      = 1.0f / (ticksPerS * secPerBlock);
 1581              		.loc 17 34 61 view .LVU352
 1582 0034 07EE100A 		vmov	s14, r0	@ int
 1583              	.LBB422:
 1584              	.LBB418:
 1585              		.loc 17 86 21 view .LVU353
 1586 0038 1A70     		strb	r2, [r3]
  87:lib/libdaisy/src/util/CpuLoadMeter.h ****         avg_ = max_ = min_ = NAN;
 1587              		.loc 17 87 28 view .LVU354
 1588 003a 2B4A     		ldr	r2, .L46+12
 1589              	.LBE418:
 1590              	.LBE422:
 1591              	.LBE426:
 1592              	.LBE428:
 107:Interface.cpp ****     hw.StartAudio(AudioCallback);
 1593              		.loc 13 107 18 view .LVU355
 1594 003c 2B48     		ldr	r0, .L46+16
ARM GAS  /var/folders/9s/8rp0_f2s1n31qbztm3b5_fdh0000gn/T//ccSMtkyz.s 			page 56


 1595              	.LVL124:
 1596              	.LBB429:
 1597              	.LBB427:
 1598              	.LBB423:
 1599              	.LBB419:
 1600              		.loc 17 87 28 view .LVU356
 1601 003e DA60     		str	r2, [r3, #12]	@ float
 1602              	.LBE419:
 1603              	.LBE423:
  34:lib/libdaisy/src/util/CpuLoadMeter.h ****         ticksPerBlockInv_      = 1.0f / (ticksPerS * secPerBlock);
 1604              		.loc 17 34 61 view .LVU357
 1605 0040 B8EE477A 		vcvt.f32.u32	s14, s14
 1606              	.LVL125:
 1607              	.LBB424:
 1608              	.LBB420:
 1609              		.loc 17 87 21 view .LVU358
 1610 0044 1A61     		str	r2, [r3, #16]	@ float
 1611              		.loc 17 87 14 view .LVU359
 1612 0046 5A61     		str	r2, [r3, #20]	@ float
 1613              	.LBE420:
 1614              	.LBE424:
  35:lib/libdaisy/src/util/CpuLoadMeter.h **** 
 1615              		.loc 17 35 52 view .LVU360
 1616 0048 27EE877A 		vmul.f32	s14, s15, s14
 1617              	.LVL126:
  35:lib/libdaisy/src/util/CpuLoadMeter.h **** 
 1618              		.loc 17 35 39 view .LVU361
 1619 004c F7EE007A 		vmov.f32	s15, #1.0e+0
 1620              	.LVL127:
  35:lib/libdaisy/src/util/CpuLoadMeter.h **** 
 1621              		.loc 17 35 39 view .LVU362
 1622 0050 C7EE876A 		vdiv.f32	s13, s15, s14
  38:lib/libdaisy/src/util/CpuLoadMeter.h ****         const auto cutoffNormalized
 1623              		.loc 17 38 20 view .LVU363
 1624 0054 9FED267A 		vldr.32	s14, .L46+20
 1625 0058 28EE078A 		vmul.f32	s16, s16, s14
 1626              	.LVL128:
  35:lib/libdaisy/src/util/CpuLoadMeter.h **** 
 1627              		.loc 17 35 32 view .LVU364
 1628 005c C3ED016A 		vstr.32	s13, [r3, #4]
  38:lib/libdaisy/src/util/CpuLoadMeter.h ****         const auto cutoffNormalized
 1629              		.loc 17 38 9 is_stmt 1 view .LVU365
  39:lib/libdaisy/src/util/CpuLoadMeter.h ****             = smoothingFilterCutoffHz * 2.0f * 3.141592653f / blockRateInHz;
 1630              		.loc 17 39 9 view .LVU366
  39:lib/libdaisy/src/util/CpuLoadMeter.h ****             = smoothingFilterCutoffHz * 2.0f * 3.141592653f / blockRateInHz;
 1631              		.loc 17 39 20 is_stmt 0 view .LVU367
 1632 0060 DFED246A 		vldr.32	s13, .L46+24
 1633 0064 86EE887A 		vdiv.f32	s14, s13, s16
 1634              	.LVL129:
  43:lib/libdaisy/src/util/CpuLoadMeter.h **** 
 1635              		.loc 17 43 9 is_stmt 1 view .LVU368
  43:lib/libdaisy/src/util/CpuLoadMeter.h **** 
 1636              		.loc 17 43 67 is_stmt 0 view .LVU369
 1637 0068 77EE277A 		vadd.f32	s15, s14, s15
  43:lib/libdaisy/src/util/CpuLoadMeter.h **** 
 1638              		.loc 17 43 47 view .LVU370
 1639 006c C7EE276A 		vdiv.f32	s13, s14, s15
ARM GAS  /var/folders/9s/8rp0_f2s1n31qbztm3b5_fdh0000gn/T//ccSMtkyz.s 			page 57


  43:lib/libdaisy/src/util/CpuLoadMeter.h **** 
 1640              		.loc 17 43 28 view .LVU371
 1641 0070 C3ED066A 		vstr.32	s13, [r3, #24]
  45:lib/libdaisy/src/util/CpuLoadMeter.h ****     }
 1642              		.loc 17 45 9 is_stmt 1 view .LVU372
 1643              	.LVL130:
 1644              	.LBB425:
 1645              	.LBI416:
  84:lib/libdaisy/src/util/CpuLoadMeter.h ****     {
 1646              		.loc 17 84 10 view .LVU373
 1647              	.LBB421:
  86:lib/libdaisy/src/util/CpuLoadMeter.h ****         avg_ = max_ = min_ = NAN;
 1648              		.loc 17 86 9 view .LVU374
 1649              		.loc 17 87 9 view .LVU375
 1650              		.loc 17 87 9 is_stmt 0 view .LVU376
 1651              	.LBE421:
 1652              	.LBE425:
 1653              	.LBE427:
 1654              	.LBE429:
 107:Interface.cpp ****     hw.StartAudio(AudioCallback);
 1655              		.loc 13 107 5 is_stmt 1 view .LVU377
 107:Interface.cpp ****     hw.StartAudio(AudioCallback);
 1656              		.loc 13 107 18 is_stmt 0 view .LVU378
 1657 0074 FFF7FEFF 		bl	_ZN5daisy9DaisySeed10StartAudioEPFvPKfPfjE
 1658              	.LVL131:
 110:Interface.cpp ****     hw.StartLog(false); // Start log without waiting (important!)
 1659              		.loc 13 110 5 is_stmt 1 view .LVU379
 1660              	.LBB430:
 1661              	.LBI430:
 122:lib/libdaisy/src/daisy_seed.h ****     }
 123:lib/libdaisy/src/daisy_seed.h **** 
 124:lib/libdaisy/src/daisy_seed.h ****     /** Start the logging session. Optionally wait for terminal connection before proceeding.
 125:lib/libdaisy/src/daisy_seed.h ****     */
 126:lib/libdaisy/src/daisy_seed.h ****     static void StartLog(bool wait_for_pc = false)
 1662              		.loc 3 126 17 view .LVU380
 1663              	.LBB431:
 127:lib/libdaisy/src/daisy_seed.h ****     {
 128:lib/libdaisy/src/daisy_seed.h ****         Log::StartLog(wait_for_pc);
 1664              		.loc 3 128 9 view .LVU381
 1665              		.loc 3 128 22 is_stmt 0 view .LVU382
 1666 0078 0020     		movs	r0, #0
 1667 007a FFF7FEFF 		bl	_ZN5daisy6LoggerILNS_17LoggerDestinationE1EE8StartLogEb
 1668              	.LVL132:
 1669              		.loc 3 128 22 view .LVU383
 1670              	.LBE431:
 1671              	.LBE430:
 112:Interface.cpp ****     hw.PrintLine("Plaits Synth Started - Ready for Bootloader CMD");
 1672              		.loc 13 112 5 is_stmt 1 view .LVU384
 1673              	.LBB432:
 1674              	.LBI432:
 119:lib/libdaisy/src/daisy_seed.h ****     {
 1675              		.loc 3 119 17 view .LVU385
 1676              	.LBB433:
 121:lib/libdaisy/src/daisy_seed.h ****     }
 1677              		.loc 3 121 23 is_stmt 0 view .LVU386
 1678 007e 1E48     		ldr	r0, .L46+28
 1679 0080 FFF7FEFF 		bl	_ZN5daisy6LoggerILNS_17LoggerDestinationE1EE9PrintLineEPKcz
ARM GAS  /var/folders/9s/8rp0_f2s1n31qbztm3b5_fdh0000gn/T//ccSMtkyz.s 			page 58


 1680              	.LVL133:
 121:lib/libdaisy/src/daisy_seed.h ****     }
 1681              		.loc 3 121 23 view .LVU387
 1682              	.LBE433:
 1683              	.LBE432:
 113:Interface.cpp ****     char settings[64];
 1684              		.loc 13 113 5 is_stmt 1 view .LVU388
 115:Interface.cpp ****     sprintf(settings, "Max Voices: %d | Block: %d | SR: %d", NUM_VOICES, BLOCK_SIZE, (int)sample_ra
 1685              		.loc 13 115 5 view .LVU389
 115:Interface.cpp ****     sprintf(settings, "Max Voices: %d | Block: %d | SR: %d", NUM_VOICES, BLOCK_SIZE, (int)sample_ra
 1686              		.loc 13 115 12 is_stmt 0 view .LVU390
 1687 0084 D4ED007A 		vldr.32	s15, [r4]
 1688 0088 1023     		movs	r3, #16
 1689 008a 0422     		movs	r2, #4
 1690 008c FDEEE77A 		vcvt.s32.f32	s15, s15
 1691 0090 1A49     		ldr	r1, .L46+32
 1692 0092 02A8     		add	r0, sp, #8
 1693 0094 CDED007A 		vstr.32	s15, [sp]	@ int
 1694 0098 FFF7FEFF 		bl	sprintf
 1695              	.LVL134:
 116:Interface.cpp ****     hw.PrintLine(settings);
 1696              		.loc 13 116 5 is_stmt 1 view .LVU391
 1697              	.LBB434:
 1698              	.LBI434:
 119:lib/libdaisy/src/daisy_seed.h ****     {
 1699              		.loc 3 119 17 view .LVU392
 1700              	.LBB435:
 121:lib/libdaisy/src/daisy_seed.h ****     }
 1701              		.loc 3 121 23 is_stmt 0 view .LVU393
 1702 009c 02A8     		add	r0, sp, #8
 1703              	.LVL135:
 121:lib/libdaisy/src/daisy_seed.h ****     }
 1704              		.loc 3 121 23 view .LVU394
 1705 009e FFF7FEFF 		bl	_ZN5daisy6LoggerILNS_17LoggerDestinationE1EE9PrintLineEPKcz
 1706              	.LVL136:
 121:lib/libdaisy/src/daisy_seed.h ****     }
 1707              		.loc 3 121 23 view .LVU395
 1708              	.LBE435:
 1709              	.LBE434:
 117:Interface.cpp ****     sprintf(settings, "Engine Range: 0-%d", MAX_ENGINE_INDEX);
 1710              		.loc 13 117 5 is_stmt 1 view .LVU396
 117:Interface.cpp ****     sprintf(settings, "Engine Range: 0-%d", MAX_ENGINE_INDEX);
 1711              		.loc 13 117 12 is_stmt 0 view .LVU397
 1712 00a2 174B     		ldr	r3, .L46+36
 1713 00a4 1749     		ldr	r1, .L46+40
 1714 00a6 02A8     		add	r0, sp, #8
 1715 00a8 1C68     		ldr	r4, [r3]
 1716 00aa 2246     		mov	r2, r4
 1717 00ac FFF7FEFF 		bl	sprintf
 1718              	.LVL137:
 118:Interface.cpp ****     hw.PrintLine(settings);
 1719              		.loc 13 118 5 is_stmt 1 view .LVU398
 1720              	.LBB436:
 1721              	.LBI436:
 119:lib/libdaisy/src/daisy_seed.h ****     {
 1722              		.loc 3 119 17 view .LVU399
 1723              	.LBB437:
ARM GAS  /var/folders/9s/8rp0_f2s1n31qbztm3b5_fdh0000gn/T//ccSMtkyz.s 			page 59


 121:lib/libdaisy/src/daisy_seed.h ****     }
 1724              		.loc 3 121 23 is_stmt 0 view .LVU400
 1725 00b0 02A8     		add	r0, sp, #8
 1726              	.LVL138:
 121:lib/libdaisy/src/daisy_seed.h ****     }
 1727              		.loc 3 121 23 view .LVU401
 1728 00b2 FFF7FEFF 		bl	_ZN5daisy6LoggerILNS_17LoggerDestinationE1EE9PrintLineEPKcz
 1729              	.LVL139:
 121:lib/libdaisy/src/daisy_seed.h ****     }
 1730              		.loc 3 121 23 view .LVU402
 1731              	.LBE437:
 1732              	.LBE436:
 119:Interface.cpp ****     sprintf(settings, "Mode: %s", (MAX_ENGINE_INDEX <=3) ? "Poly (0-3)" : "Dynamic Poly"); // Indic
 1733              		.loc 13 119 5 is_stmt 1 view .LVU403
 119:Interface.cpp ****     sprintf(settings, "Mode: %s", (MAX_ENGINE_INDEX <=3) ? "Poly (0-3)" : "Dynamic Poly"); // Indic
 1734              		.loc 13 119 12 is_stmt 0 view .LVU404
 1735 00b6 144B     		ldr	r3, .L46+44
 1736 00b8 144A     		ldr	r2, .L46+48
 1737 00ba 02A8     		add	r0, sp, #8
 1738 00bc 1449     		ldr	r1, .L46+52
 1739 00be 032C     		cmp	r4, #3
 1740 00c0 C8BF     		it	gt
 1741 00c2 1A46     		movgt	r2, r3
 1742 00c4 FFF7FEFF 		bl	sprintf
 1743              	.LVL140:
 120:Interface.cpp ****     hw.PrintLine(settings);
 1744              		.loc 13 120 5 is_stmt 1 view .LVU405
 1745              	.LBB438:
 1746              	.LBI438:
 119:lib/libdaisy/src/daisy_seed.h ****     {
 1747              		.loc 3 119 17 view .LVU406
 1748              	.LBB439:
 121:lib/libdaisy/src/daisy_seed.h ****     }
 1749              		.loc 3 121 23 is_stmt 0 view .LVU407
 1750 00c8 02A8     		add	r0, sp, #8
 1751              	.LVL141:
 121:lib/libdaisy/src/daisy_seed.h ****     }
 1752              		.loc 3 121 23 view .LVU408
 1753 00ca FFF7FEFF 		bl	_ZN5daisy6LoggerILNS_17LoggerDestinationE1EE9PrintLineEPKcz
 1754              	.LVL142:
 121:lib/libdaisy/src/daisy_seed.h ****     }
 1755              		.loc 3 121 23 view .LVU409
 1756              	.LBE439:
 1757              	.LBE438:
 121:Interface.cpp ****     hw.PrintLine("----------------");
 1758              		.loc 13 121 5 is_stmt 1 view .LVU410
 1759              	.LBB440:
 1760              	.LBI440:
 119:lib/libdaisy/src/daisy_seed.h ****     {
 1761              		.loc 3 119 17 view .LVU411
 1762              	.LBB441:
 121:lib/libdaisy/src/daisy_seed.h ****     }
 1763              		.loc 3 121 23 is_stmt 0 view .LVU412
 1764 00ce 1148     		ldr	r0, .L46+56
 1765 00d0 FFF7FEFF 		bl	_ZN5daisy6LoggerILNS_17LoggerDestinationE1EE9PrintLineEPKcz
 1766              	.LVL143:
 121:lib/libdaisy/src/daisy_seed.h ****     }
ARM GAS  /var/folders/9s/8rp0_f2s1n31qbztm3b5_fdh0000gn/T//ccSMtkyz.s 			page 60


 1767              		.loc 3 121 23 view .LVU413
 1768              	.LBE441:
 1769              	.LBE440:
 122:Interface.cpp **** }
 1770              		.loc 13 122 1 view .LVU414
 1771 00d4 12B0     		add	sp, sp, #72
 1772              		.cfi_def_cfa_offset 16
 1773              		@ sp needed
 1774 00d6 BDEC028B 		vldm	sp!, {d8}
 1775              		.cfi_restore 80
 1776              		.cfi_restore 81
 1777              		.cfi_def_cfa_offset 8
 1778 00da 10BD     		pop	{r4, pc}
 1779              	.L47:
 1780              		.align	2
 1781              	.L46:
 1782 00dc 00000000 		.word	.LANCHOR1
 1783 00e0 00000000 		.word	cpu_meter
 1784 00e4 00000000 		.word	_Z13AudioCallbackPKfPfj
 1785 00e8 0000C07F 		.word	2143289344
 1786 00ec 00000000 		.word	.LANCHOR0
 1787 00f0 0000803D 		.word	1031798784
 1788 00f4 DB0FC940 		.word	1086918619
 1789 00f8 18000000 		.word	.LC5
 1790 00fc 48000000 		.word	.LC6
 1791 0100 00000000 		.word	MAX_ENGINE_INDEX
 1792 0104 6C000000 		.word	.LC7
 1793 0108 0B000000 		.word	.LC4
 1794 010c 00000000 		.word	.LC3
 1795 0110 7F000000 		.word	.LC8
 1796 0114 88000000 		.word	.LC9
 1797              		.cfi_endproc
 1798              	.LFE5064:
 1800              		.section	.text.startup._GLOBAL__sub_I_hw,"ax",%progbits
 1801              		.align	1
 1802              		.syntax unified
 1803              		.thumb
 1804              		.thumb_func
 1806              	_GLOBAL__sub_I_hw:
 1807              	.LFB5822:
 1808              		.loc 13 157 1 is_stmt 1 view -0
 1809              		.cfi_startproc
 1810              		@ args = 0, pretend = 0, frame = 0
 1811              		@ frame_needed = 0, uses_anonymous_args = 0
 1812              	.LBB503:
 1813              	.LBI503:
 1814              		.loc 13 157 1 view .LVU416
 1815              	.LVL144:
 1816              	.LBB504:
 1817              	.LBB505:
 1818              	.LBI505:
  21:lib/libdaisy/src/daisy_seed.h ****     ~DaisySeed() {}
 1819              		.loc 3 21 5 view .LVU417
 1820              	.LBB506:
 1821              	.LBB507:
 1822              	.LBI507:
 1823              		.file 18 "lib/libdaisy/src/per/qspi.h"
ARM GAS  /var/folders/9s/8rp0_f2s1n31qbztm3b5_fdh0000gn/T//ccSMtkyz.s 			page 61


   1:lib/libdaisy/src/per/qspi.h **** #ifndef DSY_QSPI
   2:lib/libdaisy/src/per/qspi.h **** #define DSY_QSPI /**< Macro */
   3:lib/libdaisy/src/per/qspi.h **** 
   4:lib/libdaisy/src/per/qspi.h **** #ifndef UNIT_TEST // for unit tests, a dummy implementation
   5:lib/libdaisy/src/per/qspi.h **** 
   6:lib/libdaisy/src/per/qspi.h **** #include <cstdint>
   7:lib/libdaisy/src/per/qspi.h **** #include "daisy_core.h" // Added for dsy_gpio_pin typedef
   8:lib/libdaisy/src/per/qspi.h **** 
   9:lib/libdaisy/src/per/qspi.h **** #define DSY_QSPI_TEXT       \
  10:lib/libdaisy/src/per/qspi.h ****     __attribute__((section( \
  11:lib/libdaisy/src/per/qspi.h ****         ".qspiflash_text"))) /**< used for reading memory in memory_mapped mode. */
  12:lib/libdaisy/src/per/qspi.h **** #define DSY_QSPI_DATA       \
  13:lib/libdaisy/src/per/qspi.h ****     __attribute__((section( \
  14:lib/libdaisy/src/per/qspi.h ****         ".qspiflash_data"))) /**< used for reading memory in memory_mapped mode. */
  15:lib/libdaisy/src/per/qspi.h **** #define DSY_QSPI_BSS        \
  16:lib/libdaisy/src/per/qspi.h ****     __attribute__((section( \
  17:lib/libdaisy/src/per/qspi.h ****         ".qspiflash_bss"))) /**< used for reading memory in memory_mapped mode. */
  18:lib/libdaisy/src/per/qspi.h **** 
  19:lib/libdaisy/src/per/qspi.h **** namespace daisy
  20:lib/libdaisy/src/per/qspi.h **** {
  21:lib/libdaisy/src/per/qspi.h **** /** @addtogroup serial
  22:lib/libdaisy/src/per/qspi.h **** @{
  23:lib/libdaisy/src/per/qspi.h **** */
  24:lib/libdaisy/src/per/qspi.h **** 
  25:lib/libdaisy/src/per/qspi.h **** /** 
  26:lib/libdaisy/src/per/qspi.h ****  Driver for QSPI peripheral to interface with external flash memory. \n 
  27:lib/libdaisy/src/per/qspi.h ****     Currently supported QSPI Devices: \n 
  28:lib/libdaisy/src/per/qspi.h ****     * IS25LP080D
  29:lib/libdaisy/src/per/qspi.h **** */
  30:lib/libdaisy/src/per/qspi.h **** class QSPIHandle
  31:lib/libdaisy/src/per/qspi.h **** {
  32:lib/libdaisy/src/per/qspi.h ****   public:
  33:lib/libdaisy/src/per/qspi.h ****     enum Result
  34:lib/libdaisy/src/per/qspi.h ****     {
  35:lib/libdaisy/src/per/qspi.h ****         OK = 0,
  36:lib/libdaisy/src/per/qspi.h ****         ERR
  37:lib/libdaisy/src/per/qspi.h ****     };
  38:lib/libdaisy/src/per/qspi.h **** 
  39:lib/libdaisy/src/per/qspi.h ****     /** Indicates the current status of the module. 
  40:lib/libdaisy/src/per/qspi.h ****          *  Warnings are indicated by a leading W.
  41:lib/libdaisy/src/per/qspi.h ****          *  Errors are indicated by a leading E and cause an immediate exit.
  42:lib/libdaisy/src/per/qspi.h ****          * 
  43:lib/libdaisy/src/per/qspi.h ****          *  \param GOOD - No errors have been reported.
  44:lib/libdaisy/src/per/qspi.h ****          *  \param E_HAL_ERROR - HAL code did not return HAL_OK.
  45:lib/libdaisy/src/per/qspi.h ****          *  \param E_SWITCHING_MODES - An error was encountered while switching QSPI peripheral mod
  46:lib/libdaisy/src/per/qspi.h ****          *  \param E_INVALID_MODE - QSPI should not be written to while the program is executing fr
  47:lib/libdaisy/src/per/qspi.h ****          */
  48:lib/libdaisy/src/per/qspi.h ****     enum Status
  49:lib/libdaisy/src/per/qspi.h ****     {
  50:lib/libdaisy/src/per/qspi.h ****         GOOD = 0,
  51:lib/libdaisy/src/per/qspi.h ****         E_HAL_ERROR,
  52:lib/libdaisy/src/per/qspi.h ****         E_SWITCHING_MODES,
  53:lib/libdaisy/src/per/qspi.h ****         E_INVALID_MODE,
  54:lib/libdaisy/src/per/qspi.h ****     };
  55:lib/libdaisy/src/per/qspi.h **** 
  56:lib/libdaisy/src/per/qspi.h ****     /** Configuration structure for interfacing with QSPI Driver */
  57:lib/libdaisy/src/per/qspi.h ****     struct Config
ARM GAS  /var/folders/9s/8rp0_f2s1n31qbztm3b5_fdh0000gn/T//ccSMtkyz.s 			page 62


  58:lib/libdaisy/src/per/qspi.h ****     {
  59:lib/libdaisy/src/per/qspi.h ****         /** Flash Devices supported. (Both of these are more-or-less the same, just different sizes
  60:lib/libdaisy/src/per/qspi.h ****         enum Device
  61:lib/libdaisy/src/per/qspi.h ****         {
  62:lib/libdaisy/src/per/qspi.h ****             IS25LP080D,  /**< & */
  63:lib/libdaisy/src/per/qspi.h ****             IS25LP064A,  /**< & */
  64:lib/libdaisy/src/per/qspi.h ****             DEVICE_LAST, /**< & */
  65:lib/libdaisy/src/per/qspi.h ****         };
  66:lib/libdaisy/src/per/qspi.h **** 
  67:lib/libdaisy/src/per/qspi.h ****         /** 
  68:lib/libdaisy/src/per/qspi.h ****         Modes of operation.
  69:lib/libdaisy/src/per/qspi.h ****         Memory Mapped mode: QSPI configured so that the QSPI can be
  70:lib/libdaisy/src/per/qspi.h ****         read from starting address 0x90000000. Writing is not
  71:lib/libdaisy/src/per/qspi.h ****         possible in this mode. \n 
  72:lib/libdaisy/src/per/qspi.h ****         Indirect Polling mode: Device driver enabled. 
  73:lib/libdaisy/src/per/qspi.h ****         */
  74:lib/libdaisy/src/per/qspi.h ****         enum Mode
  75:lib/libdaisy/src/per/qspi.h ****         {
  76:lib/libdaisy/src/per/qspi.h ****             MEMORY_MAPPED,    /**< & */
  77:lib/libdaisy/src/per/qspi.h ****             INDIRECT_POLLING, /**< & */
  78:lib/libdaisy/src/per/qspi.h ****             MODE_LAST,
  79:lib/libdaisy/src/per/qspi.h ****         };
  80:lib/libdaisy/src/per/qspi.h **** 
  81:lib/libdaisy/src/per/qspi.h ****         //SCK,  CE# (active low)
  82:lib/libdaisy/src/per/qspi.h ****         struct
  83:lib/libdaisy/src/per/qspi.h ****         {
  84:lib/libdaisy/src/per/qspi.h ****             dsy_gpio_pin io0; /**< & */
  85:lib/libdaisy/src/per/qspi.h ****             dsy_gpio_pin io1; /**< & */
  86:lib/libdaisy/src/per/qspi.h ****             dsy_gpio_pin io2; /**< & */
  87:lib/libdaisy/src/per/qspi.h ****             dsy_gpio_pin io3; /**< & */
  88:lib/libdaisy/src/per/qspi.h ****             dsy_gpio_pin clk; /**< & */
  89:lib/libdaisy/src/per/qspi.h ****             dsy_gpio_pin ncs; /**< & */
  90:lib/libdaisy/src/per/qspi.h ****         } pin_config;
  91:lib/libdaisy/src/per/qspi.h **** 
  92:lib/libdaisy/src/per/qspi.h ****         Device device;
  93:lib/libdaisy/src/per/qspi.h ****         Mode   mode;
  94:lib/libdaisy/src/per/qspi.h ****     };
  95:lib/libdaisy/src/per/qspi.h **** 
  96:lib/libdaisy/src/per/qspi.h ****     /** 
  97:lib/libdaisy/src/per/qspi.h ****         Initializes QSPI peripheral, and Resets, and prepares memory for access.
  98:lib/libdaisy/src/per/qspi.h ****         \param config should be populated with the mode, device and pin_config before calling this 
  99:lib/libdaisy/src/per/qspi.h ****         \return Result::OK or Result::ERR
 100:lib/libdaisy/src/per/qspi.h ****         */
 101:lib/libdaisy/src/per/qspi.h ****     Result Init(const Config& config);
 102:lib/libdaisy/src/per/qspi.h **** 
 103:lib/libdaisy/src/per/qspi.h ****     /** Returns the current config. */
 104:lib/libdaisy/src/per/qspi.h ****     const Config& GetConfig() const;
 105:lib/libdaisy/src/per/qspi.h **** 
 106:lib/libdaisy/src/per/qspi.h ****     // Couldn't this just be called before anything else in init? That
 107:lib/libdaisy/src/per/qspi.h ****     // would make manually calling it unnecessary.
 108:lib/libdaisy/src/per/qspi.h ****     /** 
 109:lib/libdaisy/src/per/qspi.h ****         Deinitializes the peripheral
 110:lib/libdaisy/src/per/qspi.h ****         This should be called before reinitializing QSPI in a different mode.
 111:lib/libdaisy/src/per/qspi.h ****         \return Result::OK or Result::ERR
 112:lib/libdaisy/src/per/qspi.h ****         */
 113:lib/libdaisy/src/per/qspi.h ****     Result DeInit();
 114:lib/libdaisy/src/per/qspi.h **** 
ARM GAS  /var/folders/9s/8rp0_f2s1n31qbztm3b5_fdh0000gn/T//ccSMtkyz.s 			page 63


 115:lib/libdaisy/src/per/qspi.h ****     /** 
 116:lib/libdaisy/src/per/qspi.h ****         Writes a single page to to the specified address on the QSPI chip.
 117:lib/libdaisy/src/per/qspi.h ****         For IS25LP*, page size is 256 bytes.
 118:lib/libdaisy/src/per/qspi.h ****         \param address Address to write to
 119:lib/libdaisy/src/per/qspi.h ****         \param size Buffer size
 120:lib/libdaisy/src/per/qspi.h ****         \param buffer Buffer to write
 121:lib/libdaisy/src/per/qspi.h ****         \return Result::OK or Result::ERR
 122:lib/libdaisy/src/per/qspi.h ****         */
 123:lib/libdaisy/src/per/qspi.h ****     Result WritePage(uint32_t address, uint32_t size, uint8_t* buffer);
 124:lib/libdaisy/src/per/qspi.h **** 
 125:lib/libdaisy/src/per/qspi.h ****     /** 
 126:lib/libdaisy/src/per/qspi.h ****         Writes data in buffer to to the QSPI. Starting at address to address+size 
 127:lib/libdaisy/src/per/qspi.h ****         \param address Address to write to
 128:lib/libdaisy/src/per/qspi.h ****         \param size Buffer size
 129:lib/libdaisy/src/per/qspi.h ****         \param buffer Buffer to write
 130:lib/libdaisy/src/per/qspi.h ****         \return Result::OK or Result::ERR
 131:lib/libdaisy/src/per/qspi.h ****         */
 132:lib/libdaisy/src/per/qspi.h ****     Result Write(uint32_t address, uint32_t size, uint8_t* buffer);
 133:lib/libdaisy/src/per/qspi.h **** 
 134:lib/libdaisy/src/per/qspi.h ****     /** 
 135:lib/libdaisy/src/per/qspi.h ****         Erases the area specified on the chip.
 136:lib/libdaisy/src/per/qspi.h ****         Erasures will happen by 4K, 32K or 64K increments.
 137:lib/libdaisy/src/per/qspi.h ****         Smallest erase possible is 4kB at a time. (on IS25LP*)
 138:lib/libdaisy/src/per/qspi.h ****         \param start_addr Address to begin erasing from
 139:lib/libdaisy/src/per/qspi.h ****         \param end_addr  Address to stop erasing at
 140:lib/libdaisy/src/per/qspi.h ****         \return Result::OK or Result::ERR
 141:lib/libdaisy/src/per/qspi.h ****         */
 142:lib/libdaisy/src/per/qspi.h ****     Result Erase(uint32_t start_addr, uint32_t end_addr);
 143:lib/libdaisy/src/per/qspi.h **** 
 144:lib/libdaisy/src/per/qspi.h ****     /**  
 145:lib/libdaisy/src/per/qspi.h ****          Erases a single sector of the chip.  
 146:lib/libdaisy/src/per/qspi.h ****         TODO: Document the size of this function. 
 147:lib/libdaisy/src/per/qspi.h ****         \param addr Address of sector to erase
 148:lib/libdaisy/src/per/qspi.h ****         \return Result::OK or Result::ERR
 149:lib/libdaisy/src/per/qspi.h ****         */
 150:lib/libdaisy/src/per/qspi.h ****     Result EraseSector(uint32_t address);
 151:lib/libdaisy/src/per/qspi.h **** 
 152:lib/libdaisy/src/per/qspi.h ****     /** Returns the current class status. Useful for debugging.
 153:lib/libdaisy/src/per/qspi.h ****      *  \returns Status
 154:lib/libdaisy/src/per/qspi.h ****      */
 155:lib/libdaisy/src/per/qspi.h ****     Status GetStatus();
 156:lib/libdaisy/src/per/qspi.h **** 
 157:lib/libdaisy/src/per/qspi.h ****     /** Returns a pointer to the actual memory used 
 158:lib/libdaisy/src/per/qspi.h ****      *  The memory at this address is read-only
 159:lib/libdaisy/src/per/qspi.h ****      *  to write to it use the Write function.
 160:lib/libdaisy/src/per/qspi.h ****      * 
 161:lib/libdaisy/src/per/qspi.h ****      *  \param offset returns the pointer starting this 
 162:lib/libdaisy/src/per/qspi.h ****      *                many bytes into the memory
 163:lib/libdaisy/src/per/qspi.h ****     */
 164:lib/libdaisy/src/per/qspi.h ****     void* GetData(uint32_t offset = 0);
 165:lib/libdaisy/src/per/qspi.h **** 
 166:lib/libdaisy/src/per/qspi.h ****     QSPIHandle() : pimpl_(nullptr) {}
 1824              		.loc 18 166 5 view .LVU418
 1825              	.LBE507:
 1826              	.LBE506:
 1827              	.LBE505:
 1828              	.LBE504:
ARM GAS  /var/folders/9s/8rp0_f2s1n31qbztm3b5_fdh0000gn/T//ccSMtkyz.s 			page 64


 1829              	.LBE503:
 1830              		.loc 13 157 1 is_stmt 0 view .LVU419
 1831 0000 F8B5     		push	{r3, r4, r5, r6, r7, lr}
 1832              		.cfi_def_cfa_offset 24
 1833              		.cfi_offset 3, -24
 1834              		.cfi_offset 4, -20
 1835              		.cfi_offset 5, -16
 1836              		.cfi_offset 6, -12
 1837              		.cfi_offset 7, -8
 1838              		.cfi_offset 14, -4
 1839              	.LBB602:
 1840              	.LBB598:
 1841              	.LBB527:
 1842              	.LBB524:
 1843              	.LBB512:
 1844              	.LBB508:
 1845              	.LBB509:
 1846              		.loc 18 166 34 view .LVU420
 1847 0002 3548     		ldr	r0, .L49
 1848 0004 0026     		movs	r6, #0
 1849              	.LBE509:
 1850              	.LBE508:
 1851              	.LBE512:
 1852              	.LBE524:
 1853              	.LBE527:
   4:Interface.cpp **** EchoDelay<48000> delay;
 1854              		.loc 13 4 11 view .LVU421
 1855 0006 354C     		ldr	r4, .L49+4
 1856              	.LBB528:
 1857              	.LBB529:
 1858              	.LBB530:
 1859              	.LBB531:
 1860              	.LBB532:
 1861              	.LBB533:
 1862              	.LBB534:
 1863              	.LBB535:
  34:Effects/BiquadFilters.h ****         ~BiquadSection() {}
 1864              		.loc 10 34 25 view .LVU422
 1865 0008 354F     		ldr	r7, .L49+8
 1866              	.LBE535:
 1867              	.LBE534:
 1868              	.LBE533:
 1869              	.LBE532:
 1870              	.LBE531:
 1871              	.LBE530:
 1872              	.LBE529:
 1873              	.LBE528:
   4:Interface.cpp **** EchoDelay<48000> delay;
 1874              		.loc 13 4 11 view .LVU423
 1875 000a 2246     		mov	r2, r4
 1876 000c 3549     		ldr	r1, .L49+12
 1877              	.LBB569:
 1878              	.LBB525:
 1879              	.LBB513:
 1880              	.LBB511:
 1881              	.LBB510:
 1882              		.loc 18 166 34 view .LVU424
ARM GAS  /var/folders/9s/8rp0_f2s1n31qbztm3b5_fdh0000gn/T//ccSMtkyz.s 			page 65


 1883 000e 0660     		str	r6, [r0]
 1884              	.LVL145:
 1885              		.loc 18 166 34 view .LVU425
 1886              	.LBE510:
 1887              	.LBE511:
 1888              	.LBE513:
 1889              	.LBB514:
 1890              	.LBI514:
  62:lib/libdaisy/src/hid/audio.h ****     ~AudioHandle() {}
 1891              		.loc 7 62 5 is_stmt 1 view .LVU426
 1892              	.LBE514:
 1893              	.LBE525:
 1894              	.LBE569:
 1895              	.LBB570:
 1896              	.LBB564:
 1897              	.LBB558:
 1898              	.LBB553:
 1899              	.LBB548:
 1900              	.LBB544:
 1901              	.LBB540:
 1902              	.LBB536:
  34:Effects/BiquadFilters.h ****         ~BiquadSection() {}
 1903              		.loc 10 34 25 is_stmt 0 view .LVU427
 1904 0010 07F53835 		add	r5, r7, #188416
 1905              	.LBE536:
 1906              	.LBE540:
 1907              	.LBE544:
 1908              	.LBE548:
 1909              	.LBE553:
 1910              	.LBE558:
 1911              	.LBE564:
 1912              	.LBE570:
 1913              	.LBB571:
 1914              	.LBB526:
 1915              	.LBB517:
 1916              	.LBB515:
 1917              	.LBB516:
  62:lib/libdaisy/src/hid/audio.h ****     ~AudioHandle() {}
 1918              		.loc 7 62 35 view .LVU428
 1919 0014 4661     		str	r6, [r0, #20]
 1920              	.LVL146:
  62:lib/libdaisy/src/hid/audio.h ****     ~AudioHandle() {}
 1921              		.loc 7 62 35 view .LVU429
 1922              	.LBE516:
 1923              	.LBE515:
 1924              	.LBE517:
 1925              	.LBB518:
 1926              	.LBI518:
  84:lib/libdaisy/src/per/adc.h ****     ~AdcHandle() {}
 1927              		.loc 6 84 5 is_stmt 1 view .LVU430
  84:lib/libdaisy/src/per/adc.h ****     ~AdcHandle() {}
 1928              		.loc 6 84 5 is_stmt 0 view .LVU431
 1929              	.LBE518:
 1930              	.LBB519:
 1931              	.LBI519:
 1932              		.file 19 "lib/libdaisy/src/per/dac.h"
   1:lib/libdaisy/src/per/dac.h **** #pragma once
ARM GAS  /var/folders/9s/8rp0_f2s1n31qbztm3b5_fdh0000gn/T//ccSMtkyz.s 			page 66


   2:lib/libdaisy/src/per/dac.h **** #ifndef DSY_DAC_H
   3:lib/libdaisy/src/per/dac.h **** #define DSY_DAC_H
   4:lib/libdaisy/src/per/dac.h **** 
   5:lib/libdaisy/src/per/dac.h **** #include "daisy_core.h"
   6:lib/libdaisy/src/per/dac.h **** 
   7:lib/libdaisy/src/per/dac.h **** namespace daisy
   8:lib/libdaisy/src/per/dac.h **** {
   9:lib/libdaisy/src/per/dac.h **** /** DAC handle for Built-in DAC Peripheral 
  10:lib/libdaisy/src/per/dac.h ****  ** 
  11:lib/libdaisy/src/per/dac.h ****  ** For now only Normal Mode is supported,
  12:lib/libdaisy/src/per/dac.h ****  ** Sample and hold mode provides reduced power consumption, but requires a bit more setup.
  13:lib/libdaisy/src/per/dac.h ****  **
  14:lib/libdaisy/src/per/dac.h ****  ** For now connecting the DAC through other internal periphearls is also not supported.
  15:lib/libdaisy/src/per/dac.h ****  **
  16:lib/libdaisy/src/per/dac.h ****  ** Since the DAC channels have dedicated pins we don't need to pass in a pin config like with
  17:lib/libdaisy/src/per/dac.h ****  ** other modules. However, it is still important to not try to use the DAC pins for anything else.
  18:lib/libdaisy/src/per/dac.h ****  ** DAC Channel 1 is on PA4, and DAC Channel 2 is on PA5
  19:lib/libdaisy/src/per/dac.h ****  ***/
  20:lib/libdaisy/src/per/dac.h **** class DacHandle
  21:lib/libdaisy/src/per/dac.h **** {
  22:lib/libdaisy/src/per/dac.h ****   public:
  23:lib/libdaisy/src/per/dac.h ****     /** Return Values for the DacHandle class */
  24:lib/libdaisy/src/per/dac.h ****     enum class Result
  25:lib/libdaisy/src/per/dac.h ****     {
  26:lib/libdaisy/src/per/dac.h ****         OK,
  27:lib/libdaisy/src/per/dac.h ****         ERR,
  28:lib/libdaisy/src/per/dac.h ****     };
  29:lib/libdaisy/src/per/dac.h **** 
  30:lib/libdaisy/src/per/dac.h ****     /** Selects which channel(s) will be configured for use. */
  31:lib/libdaisy/src/per/dac.h ****     enum class Channel
  32:lib/libdaisy/src/per/dac.h ****     {
  33:lib/libdaisy/src/per/dac.h ****         ONE,
  34:lib/libdaisy/src/per/dac.h ****         TWO,
  35:lib/libdaisy/src/per/dac.h ****         BOTH,
  36:lib/libdaisy/src/per/dac.h ****     };
  37:lib/libdaisy/src/per/dac.h **** 
  38:lib/libdaisy/src/per/dac.h ****     /** Sets the Mode for the DAC channels.
  39:lib/libdaisy/src/per/dac.h ****      **
  40:lib/libdaisy/src/per/dac.h ****      ** Polling mode uses the blocking mode to transmit a single value at a time.
  41:lib/libdaisy/src/per/dac.h ****      **
  42:lib/libdaisy/src/per/dac.h ****      ** DMA mode uses a buffer, and periodically transmits it triggering a 
  43:lib/libdaisy/src/per/dac.h ****      ** callback to fill the buffer when it is ready for more samples.
  44:lib/libdaisy/src/per/dac.h ****      ***/
  45:lib/libdaisy/src/per/dac.h ****     enum class Mode
  46:lib/libdaisy/src/per/dac.h ****     {
  47:lib/libdaisy/src/per/dac.h ****         POLLING,
  48:lib/libdaisy/src/per/dac.h ****         DMA,
  49:lib/libdaisy/src/per/dac.h ****     };
  50:lib/libdaisy/src/per/dac.h **** 
  51:lib/libdaisy/src/per/dac.h ****     /** Sets the number of bits per sample transmitted out of the DAC.
  52:lib/libdaisy/src/per/dac.h ****      ** The output range will be: 0V - VDDA
  53:lib/libdaisy/src/per/dac.h ****      ** The resolution will be roughly: bitdepth / (VDDA - 0V) 
  54:lib/libdaisy/src/per/dac.h ****      ***/
  55:lib/libdaisy/src/per/dac.h ****     enum class BitDepth
  56:lib/libdaisy/src/per/dac.h ****     {
  57:lib/libdaisy/src/per/dac.h ****         BITS_8,
  58:lib/libdaisy/src/per/dac.h ****         BITS_12
ARM GAS  /var/folders/9s/8rp0_f2s1n31qbztm3b5_fdh0000gn/T//ccSMtkyz.s 			page 67


  59:lib/libdaisy/src/per/dac.h ****     };
  60:lib/libdaisy/src/per/dac.h **** 
  61:lib/libdaisy/src/per/dac.h ****     /** Sets whether the DAC output is buffered for higher drive ability. */
  62:lib/libdaisy/src/per/dac.h ****     enum class BufferState
  63:lib/libdaisy/src/per/dac.h ****     {
  64:lib/libdaisy/src/per/dac.h ****         ENABLED,
  65:lib/libdaisy/src/per/dac.h ****         DISABLED,
  66:lib/libdaisy/src/per/dac.h ****     };
  67:lib/libdaisy/src/per/dac.h **** 
  68:lib/libdaisy/src/per/dac.h ****     /** Configuration structure for initializing the DAC structure. */
  69:lib/libdaisy/src/per/dac.h ****     struct Config
  70:lib/libdaisy/src/per/dac.h ****     {
  71:lib/libdaisy/src/per/dac.h ****         /** Target Samplerate in Hz used to configure the internal 
  72:lib/libdaisy/src/per/dac.h ****          ** timebase for DMA mode. Does nothing in POLLING mode.
  73:lib/libdaisy/src/per/dac.h ****          ** If the value is 0 at Init time this will default to 48000Hz 
  74:lib/libdaisy/src/per/dac.h ****          ** otherwise the driver will attempt meet the target.*/
  75:lib/libdaisy/src/per/dac.h ****         uint32_t target_samplerate;
  76:lib/libdaisy/src/per/dac.h **** 
  77:lib/libdaisy/src/per/dac.h ****         Channel     chn;
  78:lib/libdaisy/src/per/dac.h ****         Mode        mode;
  79:lib/libdaisy/src/per/dac.h ****         BitDepth    bitdepth;
  80:lib/libdaisy/src/per/dac.h ****         BufferState buff_state;
  81:lib/libdaisy/src/per/dac.h ****     };
  82:lib/libdaisy/src/per/dac.h **** 
  83:lib/libdaisy/src/per/dac.h ****     DacHandle() : pimpl_(nullptr) {}
 1933              		.loc 19 83 5 is_stmt 1 view .LVU432
 1934              	.LBB520:
 1935              	.LBB521:
 1936              		.loc 19 83 33 is_stmt 0 view .LVU433
 1937 0016 0662     		str	r6, [r0, #32]
 1938              	.LVL147:
 1939              		.loc 19 83 33 view .LVU434
 1940              	.LBE521:
 1941              	.LBE520:
 1942              	.LBE519:
 1943              	.LBB522:
 1944              	.LBI522:
  40:lib/libdaisy/src/hid/usb.h **** 
 1945              		.loc 5 40 5 is_stmt 1 view .LVU435
  40:lib/libdaisy/src/hid/usb.h **** 
 1946              		.loc 5 40 5 is_stmt 0 view .LVU436
 1947              	.LBE522:
 1948              	.LBB523:
 1949              	.LBI523:
  77:lib/libdaisy/src/sys/system.h ****     ~System() {}
 1950              		.loc 4 77 5 is_stmt 1 view .LVU437
  77:lib/libdaisy/src/sys/system.h ****     ~System() {}
 1951              		.loc 4 77 5 is_stmt 0 view .LVU438
 1952              	.LBE523:
 1953              	.LBE526:
 1954              	.LBE571:
   4:Interface.cpp **** EchoDelay<48000> delay;
 1955              		.loc 13 4 11 view .LVU439
 1956 0018 FFF7FEFF 		bl	__aeabi_atexit
 1957              	.LVL148:
 1958              	.LBB572:
 1959              	.LBI572:
ARM GAS  /var/folders/9s/8rp0_f2s1n31qbztm3b5_fdh0000gn/T//ccSMtkyz.s 			page 68


  56:mpr121_daisy.h ****     ~Mpr121() {}
 1960              		.loc 8 56 5 is_stmt 1 view .LVU440
 1961              	.LBB573:
 1962              	.LBB574:
 1963              	.LBI574:
  29:lib/libdaisy/src/per/i2c.h ****     {
  30:lib/libdaisy/src/per/i2c.h ****         /** Specifies whether the interface will operate in master or slave mode. */
  31:lib/libdaisy/src/per/i2c.h ****         enum class Mode
  32:lib/libdaisy/src/per/i2c.h ****         {
  33:lib/libdaisy/src/per/i2c.h ****             I2C_MASTER,
  34:lib/libdaisy/src/per/i2c.h ****             I2C_SLAVE,
  35:lib/libdaisy/src/per/i2c.h ****         };
  36:lib/libdaisy/src/per/i2c.h **** 
  37:lib/libdaisy/src/per/i2c.h ****         /** Specifices the internal peripheral to use (these are mapped to different pins on the ha
  38:lib/libdaisy/src/per/i2c.h ****         enum class Peripheral
  39:lib/libdaisy/src/per/i2c.h ****         {
  40:lib/libdaisy/src/per/i2c.h ****             I2C_1 = 0, /**< & */
  41:lib/libdaisy/src/per/i2c.h ****             I2C_2,     /**< & */
  42:lib/libdaisy/src/per/i2c.h ****             I2C_3,     /**< & */
  43:lib/libdaisy/src/per/i2c.h ****             I2C_4,     /**< & */
  44:lib/libdaisy/src/per/i2c.h ****         };
  45:lib/libdaisy/src/per/i2c.h **** 
  46:lib/libdaisy/src/per/i2c.h ****         /** Rate at which the clock/data will be sent/received. The device being used will have max
  47:lib/libdaisy/src/per/i2c.h ****          *  1MHZ Mode is currently 886kHz
  48:lib/libdaisy/src/per/i2c.h ****          */
  49:lib/libdaisy/src/per/i2c.h ****         enum class Speed
  50:lib/libdaisy/src/per/i2c.h ****         {
  51:lib/libdaisy/src/per/i2c.h ****             I2C_100KHZ, /**< & */
  52:lib/libdaisy/src/per/i2c.h ****             I2C_400KHZ, /**< & */
  53:lib/libdaisy/src/per/i2c.h ****             I2C_1MHZ,   /**< & */
  54:lib/libdaisy/src/per/i2c.h ****         };
  55:lib/libdaisy/src/per/i2c.h **** 
  56:lib/libdaisy/src/per/i2c.h ****         Peripheral periph; /**< & */
  57:lib/libdaisy/src/per/i2c.h ****         struct
  58:lib/libdaisy/src/per/i2c.h ****         {
  59:lib/libdaisy/src/per/i2c.h ****             dsy_gpio_pin scl; /**< & */
  60:lib/libdaisy/src/per/i2c.h ****             dsy_gpio_pin sda; /**< & */
  61:lib/libdaisy/src/per/i2c.h ****         } pin_config;         /**< & */
  62:lib/libdaisy/src/per/i2c.h **** 
  63:lib/libdaisy/src/per/i2c.h ****         Speed speed; /**< & */
  64:lib/libdaisy/src/per/i2c.h ****         Mode  mode;  /**< & */
  65:lib/libdaisy/src/per/i2c.h ****         // 0x10 is chosen as a default to avoid conflicts with reserved addresses
  66:lib/libdaisy/src/per/i2c.h ****         uint8_t address = 0x10; /**< & */
  67:lib/libdaisy/src/per/i2c.h ****     };
  68:lib/libdaisy/src/per/i2c.h **** 
  69:lib/libdaisy/src/per/i2c.h ****     /** Return values for I2C functions. */
  70:lib/libdaisy/src/per/i2c.h ****     enum class Result
  71:lib/libdaisy/src/per/i2c.h ****     {
  72:lib/libdaisy/src/per/i2c.h ****         OK, /**< & */
  73:lib/libdaisy/src/per/i2c.h ****         ERR /**< & */
  74:lib/libdaisy/src/per/i2c.h ****     };
  75:lib/libdaisy/src/per/i2c.h **** 
  76:lib/libdaisy/src/per/i2c.h ****     enum class Direction
  77:lib/libdaisy/src/per/i2c.h ****     {
  78:lib/libdaisy/src/per/i2c.h ****         TRANSMIT, /**< & */
  79:lib/libdaisy/src/per/i2c.h ****         RECEIVE,  /**< & */
  80:lib/libdaisy/src/per/i2c.h ****     };
ARM GAS  /var/folders/9s/8rp0_f2s1n31qbztm3b5_fdh0000gn/T//ccSMtkyz.s 			page 69


  81:lib/libdaisy/src/per/i2c.h **** 
  82:lib/libdaisy/src/per/i2c.h ****     I2CHandle() : pimpl_(nullptr) {}
 1964              		.loc 14 82 5 view .LVU441
 1965              	.LBB575:
 1966              	.LBB576:
 1967              		.loc 14 82 33 is_stmt 0 view .LVU442
 1968 001c 3248     		ldr	r0, .L49+16
 1969              	.LBE576:
 1970              	.LBE575:
 1971              	.LBE574:
 1972              	.LBE573:
 1973              	.LBE572:
   5:Interface.cpp **** Mpr121 touch_sensor;
 1974              		.loc 13 5 8 view .LVU443
 1975 001e 2246     		mov	r2, r4
 1976 0020 3249     		ldr	r1, .L49+20
 1977              	.LBB581:
 1978              	.LBB580:
 1979              	.LBB579:
 1980              	.LBB578:
 1981              	.LBB577:
 1982              		.loc 14 82 33 view .LVU444
 1983 0022 0660     		str	r6, [r0]
 1984              	.LBE577:
 1985              	.LBE578:
 1986              	.LBE579:
  56:mpr121_daisy.h ****     ~Mpr121() {}
 1987              		.loc 8 56 14 view .LVU445
 1988 0024 8680     		strh	r6, [r0, #4]	@ movhi
 1989              	.LVL149:
  56:mpr121_daisy.h ****     ~Mpr121() {}
 1990              		.loc 8 56 14 view .LVU446
 1991              	.LBE580:
 1992              	.LBE581:
   5:Interface.cpp **** Mpr121 touch_sensor;
 1993              		.loc 13 5 8 view .LVU447
 1994 0026 FFF7FEFF 		bl	__aeabi_atexit
 1995              	.LVL150:
 1996              	.LBB582:
 1997              	.LBI528:
  24:Effects/EchoDelay.h ****         ~EchoDelay() {}
 1998              		.loc 9 24 9 is_stmt 1 view .LVU448
 1999              	.LBB565:
 2000              	.LBB559:
 2001              	.LBI559:
  31:lib/DaisySP/Source/Utility/delayline.h ****     ~DelayLine() {}
 2002              		.loc 12 31 5 view .LVU449
  31:lib/DaisySP/Source/Utility/delayline.h ****     ~DelayLine() {}
 2003              		.loc 12 31 5 is_stmt 0 view .LVU450
 2004              	.LBE559:
 2005              	.LBB560:
 2006              	.LBI530:
  76:Effects/BiquadFilters.h ****         ~BiquadCascade() {}
 2007              		.loc 10 76 9 is_stmt 1 view .LVU451
 2008              	.LBB554:
 2009              	.LBB549:
 2010              	.LBI532:
ARM GAS  /var/folders/9s/8rp0_f2s1n31qbztm3b5_fdh0000gn/T//ccSMtkyz.s 			page 70


  94:/Library/DaisyToolchain/0.2.0/arm/arm-none-eabi/include/c++/10.3.1/array ****     {
 2011              		.loc 11 94 12 view .LVU452
 2012              	.LBE549:
 2013              	.LBE554:
 2014              	.LBE560:
 2015              	.LBE565:
 2016              	.LBE582:
 2017              	.LBE598:
 2018              	.LBE602:
  94:/Library/DaisyToolchain/0.2.0/arm/arm-none-eabi/include/c++/10.3.1/array ****     {
 2019              		.loc 11 94 12 view .LVU453
 2020              	.LBB603:
 2021              	.LBB599:
 2022              	.LBB583:
 2023              	.LBB566:
 2024              	.LBB561:
 2025              	.LBB555:
 2026              	.LBB550:
 2027              	.LBB545:
 2028              	.LBI533:
  34:Effects/BiquadFilters.h ****         ~BiquadSection() {}
 2029              		.loc 10 34 9 view .LVU454
 2030              	.LBB541:
 2031              	.LBB537:
  34:Effects/BiquadFilters.h ****         ~BiquadSection() {}
 2032              		.loc 10 34 25 is_stmt 0 view .LVU455
 2033 002a 3146     		mov	r1, r6
 2034 002c 1422     		movs	r2, #20
 2035 002e 05F62C60 		addw	r0, r5, #3628
 2036 0032 FFF7FEFF 		bl	memset
 2037              	.LVL151:
 2038 0036 0023     		movs	r3, #0
 2039 0038 05F56462 		add	r2, r5, #3648
 2040              	.LBE537:
 2041              	.LBE541:
 2042              	.LBE545:
 2043              	.LBE550:
 2044              	.LBE555:
 2045              	.LBE561:
 2046              	.LBE566:
 2047              	.LBE583:
   6:Interface.cpp **** EchoDelay<48000> delay;
 2048              		.loc 13 6 18 view .LVU456
 2049 003c 2C49     		ldr	r1, .L49+24
 2050 003e 3846     		mov	r0, r7
 2051              	.LBB584:
 2052              	.LBB567:
 2053              	.LBB562:
 2054              	.LBB556:
 2055              	.LBB551:
 2056              	.LBB546:
 2057              	.LBB542:
 2058              	.LBB538:
  34:Effects/BiquadFilters.h ****         ~BiquadSection() {}
 2059              		.loc 10 34 25 view .LVU457
 2060 0040 1360     		str	r3, [r2]	@ float
 2061 0042 05F64462 		addw	r2, r5, #3652
ARM GAS  /var/folders/9s/8rp0_f2s1n31qbztm3b5_fdh0000gn/T//ccSMtkyz.s 			page 71


 2062 0046 1360     		str	r3, [r2]	@ float
 2063 0048 05F64862 		addw	r2, r5, #3656
 2064 004c 05F64C65 		addw	r5, r5, #3660
 2065 0050 1360     		str	r3, [r2]	@ float
 2066              	.LBE538:
 2067              	.LBE542:
 2068              	.LBE546:
 2069              	.LBE551:
 2070              	.LBE556:
 2071              	.LBE562:
 2072              	.LBE567:
 2073              	.LBE584:
   6:Interface.cpp **** EchoDelay<48000> delay;
 2074              		.loc 13 6 18 view .LVU458
 2075 0052 2246     		mov	r2, r4
 2076              	.LBB585:
 2077              	.LBB568:
 2078              	.LBB563:
 2079              	.LBB557:
 2080              	.LBB552:
 2081              	.LBB547:
 2082              	.LBB543:
 2083              	.LBB539:
  34:Effects/BiquadFilters.h ****         ~BiquadSection() {}
 2084              		.loc 10 34 25 view .LVU459
 2085 0054 2B60     		str	r3, [r5]	@ float
 2086              	.LVL152:
  34:Effects/BiquadFilters.h ****         ~BiquadSection() {}
 2087              		.loc 10 34 25 view .LVU460
 2088              	.LBE539:
 2089              	.LBE543:
 2090              	.LBE547:
 2091              	.LBE552:
 2092              	.LBE557:
 2093              	.LBE563:
 2094              	.LBE568:
 2095              	.LBE585:
 2096              	.LBE599:
 2097              	.LBE603:
  94:/Library/DaisyToolchain/0.2.0/arm/arm-none-eabi/include/c++/10.3.1/array ****     {
 2098              		.loc 11 94 12 is_stmt 1 view .LVU461
  94:/Library/DaisyToolchain/0.2.0/arm/arm-none-eabi/include/c++/10.3.1/array ****     {
 2099              		.loc 11 94 12 view .LVU462
 2100              	.LBB604:
 2101              	.LBB600:
  10:Interface.cpp **** AnalogControl pitch_knob;          // ADC 0 (Pin 15) Plaits Pitch
 2102              		.loc 13 10 15 is_stmt 0 view .LVU463
 2103 0056 274D     		ldr	r5, .L49+28
   6:Interface.cpp **** EchoDelay<48000> delay;
 2104              		.loc 13 6 18 view .LVU464
 2105 0058 FFF7FEFF 		bl	__aeabi_atexit
 2106              	.LVL153:
 2107              	.LBB586:
 2108              	.LBI586:
  41:lib/libdaisy/src/hid/switch.h ****     ~Switch() {}
 2109              		.loc 1 41 5 is_stmt 1 view .LVU465
  41:lib/libdaisy/src/hid/switch.h ****     ~Switch() {}
ARM GAS  /var/folders/9s/8rp0_f2s1n31qbztm3b5_fdh0000gn/T//ccSMtkyz.s 			page 72


 2110              		.loc 1 41 5 is_stmt 0 view .LVU466
 2111              	.LBE586:
   9:Interface.cpp **** Switch button;
 2112              		.loc 13 9 8 view .LVU467
 2113 005c 2246     		mov	r2, r4
 2114 005e 2649     		ldr	r1, .L49+32
 2115 0060 2648     		ldr	r0, .L49+36
 2116 0062 FFF7FEFF 		bl	__aeabi_atexit
 2117              	.LVL154:
 2118              	.LBB587:
 2119              	.LBI587:
  21:lib/libdaisy/src/hid/ctrl.h ****     /** destructor */
 2120              		.loc 2 21 5 is_stmt 1 view .LVU468
  21:lib/libdaisy/src/hid/ctrl.h ****     /** destructor */
 2121              		.loc 2 21 5 is_stmt 0 view .LVU469
 2122              	.LBE587:
  10:Interface.cpp **** AnalogControl pitch_knob;          // ADC 0 (Pin 15) Plaits Pitch
 2123              		.loc 13 10 15 view .LVU470
 2124 0066 2246     		mov	r2, r4
 2125 0068 2946     		mov	r1, r5
 2126 006a 2548     		ldr	r0, .L49+40
 2127 006c FFF7FEFF 		bl	__aeabi_atexit
 2128              	.LVL155:
 2129              	.LBB588:
 2130              	.LBI588:
  21:lib/libdaisy/src/hid/ctrl.h ****     /** destructor */
 2131              		.loc 2 21 5 is_stmt 1 view .LVU471
  21:lib/libdaisy/src/hid/ctrl.h ****     /** destructor */
 2132              		.loc 2 21 5 is_stmt 0 view .LVU472
 2133              	.LBE588:
  11:Interface.cpp **** AnalogControl harmonics_knob;      // ADC 1 (Pin 16) Plaits Harmonics
 2134              		.loc 13 11 15 view .LVU473
 2135 0070 2246     		mov	r2, r4
 2136 0072 2946     		mov	r1, r5
 2137 0074 2348     		ldr	r0, .L49+44
 2138 0076 FFF7FEFF 		bl	__aeabi_atexit
 2139              	.LVL156:
 2140              	.LBB589:
 2141              	.LBI589:
  21:lib/libdaisy/src/hid/ctrl.h ****     /** destructor */
 2142              		.loc 2 21 5 is_stmt 1 view .LVU474
  21:lib/libdaisy/src/hid/ctrl.h ****     /** destructor */
 2143              		.loc 2 21 5 is_stmt 0 view .LVU475
 2144              	.LBE589:
  12:Interface.cpp **** AnalogControl timbre_knob;         // ADC 2 (Pin 17) Plaits Timbre/Engine
 2145              		.loc 13 12 15 view .LVU476
 2146 007a 2246     		mov	r2, r4
 2147 007c 2946     		mov	r1, r5
 2148 007e 2248     		ldr	r0, .L49+48
 2149 0080 FFF7FEFF 		bl	__aeabi_atexit
 2150              	.LVL157:
 2151              	.LBB590:
 2152              	.LBI590:
  21:lib/libdaisy/src/hid/ctrl.h ****     /** destructor */
 2153              		.loc 2 21 5 is_stmt 1 view .LVU477
  21:lib/libdaisy/src/hid/ctrl.h ****     /** destructor */
 2154              		.loc 2 21 5 is_stmt 0 view .LVU478
ARM GAS  /var/folders/9s/8rp0_f2s1n31qbztm3b5_fdh0000gn/T//ccSMtkyz.s 			page 73


 2155              	.LBE590:
  13:Interface.cpp **** AnalogControl decay_knob;          // ADC 3 (Pin 18) Plaits Decay
 2156              		.loc 13 13 15 view .LVU479
 2157 0084 2246     		mov	r2, r4
 2158 0086 2946     		mov	r1, r5
 2159 0088 2048     		ldr	r0, .L49+52
 2160 008a FFF7FEFF 		bl	__aeabi_atexit
 2161              	.LVL158:
 2162              	.LBB591:
 2163              	.LBI591:
  21:lib/libdaisy/src/hid/ctrl.h ****     /** destructor */
 2164              		.loc 2 21 5 is_stmt 1 view .LVU480
  21:lib/libdaisy/src/hid/ctrl.h ****     /** destructor */
 2165              		.loc 2 21 5 is_stmt 0 view .LVU481
 2166              	.LBE591:
  14:Interface.cpp **** AnalogControl morph_knob;           // ADC 4 (Pin 20) Plaits Morph
 2167              		.loc 13 14 15 view .LVU482
 2168 008e 2246     		mov	r2, r4
 2169 0090 2946     		mov	r1, r5
 2170 0092 1F48     		ldr	r0, .L49+56
 2171 0094 FFF7FEFF 		bl	__aeabi_atexit
 2172              	.LVL159:
 2173              	.LBB592:
 2174              	.LBI592:
  21:lib/libdaisy/src/hid/ctrl.h ****     /** destructor */
 2175              		.loc 2 21 5 is_stmt 1 view .LVU483
  21:lib/libdaisy/src/hid/ctrl.h ****     /** destructor */
 2176              		.loc 2 21 5 is_stmt 0 view .LVU484
 2177              	.LBE592:
  15:Interface.cpp **** AnalogControl delay_feedback_knob;  // ADC 5 (Pin 21) Delay Feedback
 2178              		.loc 13 15 15 view .LVU485
 2179 0098 2246     		mov	r2, r4
 2180 009a 2946     		mov	r1, r5
 2181 009c 1D48     		ldr	r0, .L49+60
 2182 009e FFF7FEFF 		bl	__aeabi_atexit
 2183              	.LVL160:
 2184              	.LBB593:
 2185              	.LBI593:
  21:lib/libdaisy/src/hid/ctrl.h ****     /** destructor */
 2186              		.loc 2 21 5 is_stmt 1 view .LVU486
  21:lib/libdaisy/src/hid/ctrl.h ****     /** destructor */
 2187              		.loc 2 21 5 is_stmt 0 view .LVU487
 2188              	.LBE593:
  16:Interface.cpp **** AnalogControl delay_time_knob;      // ADC 6 (Pin 22) Delay Time
 2189              		.loc 13 16 15 view .LVU488
 2190 00a2 2246     		mov	r2, r4
 2191 00a4 2946     		mov	r1, r5
 2192 00a6 1C48     		ldr	r0, .L49+64
 2193 00a8 FFF7FEFF 		bl	__aeabi_atexit
 2194              	.LVL161:
 2195              	.LBB594:
 2196              	.LBI594:
  21:lib/libdaisy/src/hid/ctrl.h ****     /** destructor */
 2197              		.loc 2 21 5 is_stmt 1 view .LVU489
  21:lib/libdaisy/src/hid/ctrl.h ****     /** destructor */
 2198              		.loc 2 21 5 is_stmt 0 view .LVU490
 2199              	.LBE594:
ARM GAS  /var/folders/9s/8rp0_f2s1n31qbztm3b5_fdh0000gn/T//ccSMtkyz.s 			page 74


  17:Interface.cpp **** AnalogControl delay_lag_knob;       // ADC 7 (Pin 23) Delay Lag
 2200              		.loc 13 17 15 view .LVU491
 2201 00ac 2246     		mov	r2, r4
 2202 00ae 2946     		mov	r1, r5
 2203 00b0 1A48     		ldr	r0, .L49+68
 2204 00b2 FFF7FEFF 		bl	__aeabi_atexit
 2205              	.LVL162:
 2206              	.LBB595:
 2207              	.LBI595:
  21:lib/libdaisy/src/hid/ctrl.h ****     /** destructor */
 2208              		.loc 2 21 5 is_stmt 1 view .LVU492
  21:lib/libdaisy/src/hid/ctrl.h ****     /** destructor */
 2209              		.loc 2 21 5 is_stmt 0 view .LVU493
 2210              	.LBE595:
  18:Interface.cpp **** AnalogControl delay_mix_knob;       // ADC 8 (Pin 19) Delay Wet/Dry Mix
 2211              		.loc 13 18 15 view .LVU494
 2212 00b6 2246     		mov	r2, r4
 2213 00b8 2946     		mov	r1, r5
 2214 00ba 1948     		ldr	r0, .L49+72
 2215 00bc FFF7FEFF 		bl	__aeabi_atexit
 2216              	.LVL163:
 2217              	.LBB596:
 2218              	.LBI596:
  21:lib/libdaisy/src/hid/ctrl.h ****     /** destructor */
 2219              		.loc 2 21 5 is_stmt 1 view .LVU495
  21:lib/libdaisy/src/hid/ctrl.h ****     /** destructor */
 2220              		.loc 2 21 5 is_stmt 0 view .LVU496
 2221              	.LBE596:
  19:Interface.cpp **** AnalogControl env_attack_knob;      // ADC 9 (Pin 24) Envelope Attack
 2222              		.loc 13 19 15 view .LVU497
 2223 00c0 2246     		mov	r2, r4
 2224 00c2 2946     		mov	r1, r5
 2225 00c4 1748     		ldr	r0, .L49+76
 2226 00c6 FFF7FEFF 		bl	__aeabi_atexit
 2227              	.LVL164:
 2228              	.LBB597:
 2229              	.LBI597:
  21:lib/libdaisy/src/hid/ctrl.h ****     /** destructor */
 2230              		.loc 2 21 5 is_stmt 1 view .LVU498
  21:lib/libdaisy/src/hid/ctrl.h ****     /** destructor */
 2231              		.loc 2 21 5 is_stmt 0 view .LVU499
 2232              	.LBE597:
  20:Interface.cpp **** AnalogControl env_release_knob;     // ADC 10 (Pin 25) Envelope Release
 2233              		.loc 13 20 15 view .LVU500
 2234 00ca 2246     		mov	r2, r4
 2235 00cc 2946     		mov	r1, r5
 2236 00ce 1648     		ldr	r0, .L49+80
 2237              	.LBE600:
 2238              	.LBE604:
 2239              		.loc 13 157 1 view .LVU501
 2240 00d0 BDE8F840 		pop	{r3, r4, r5, r6, r7, lr}
 2241              		.cfi_restore 14
 2242              		.cfi_restore 7
 2243              		.cfi_restore 6
 2244              		.cfi_restore 5
 2245              		.cfi_restore 4
 2246              		.cfi_restore 3
ARM GAS  /var/folders/9s/8rp0_f2s1n31qbztm3b5_fdh0000gn/T//ccSMtkyz.s 			page 75


 2247              		.cfi_def_cfa_offset 0
 2248              	.LBB605:
 2249              	.LBB601:
  20:Interface.cpp **** AnalogControl env_release_knob;     // ADC 10 (Pin 25) Envelope Release
 2250              		.loc 13 20 15 view .LVU502
 2251 00d4 FFF7FEBF 		b	__aeabi_atexit
 2252              	.LVL165:
 2253              	.L50:
 2254              		.align	2
 2255              	.L49:
 2256 00d8 00000000 		.word	.LANCHOR0
 2257 00dc 00000000 		.word	__dso_handle
 2258 00e0 00000000 		.word	delay
 2259 00e4 00000000 		.word	_ZN5daisy9DaisySeedD1Ev
 2260 00e8 00000000 		.word	.LANCHOR15
 2261 00ec 00000000 		.word	_ZN6Mpr121D1Ev
 2262 00f0 00000000 		.word	_ZN10infrasonic9EchoDelayILj48000EED1Ev
 2263 00f4 00000000 		.word	_ZN5daisy13AnalogControlD1Ev
 2264 00f8 00000000 		.word	_ZN5daisy6SwitchD1Ev
 2265 00fc 00000000 		.word	.LANCHOR13
 2266 0100 00000000 		.word	.LANCHOR2
 2267 0104 00000000 		.word	.LANCHOR3
 2268 0108 00000000 		.word	.LANCHOR4
 2269 010c 00000000 		.word	.LANCHOR5
 2270 0110 00000000 		.word	.LANCHOR6
 2271 0114 00000000 		.word	.LANCHOR7
 2272 0118 00000000 		.word	.LANCHOR8
 2273 011c 00000000 		.word	.LANCHOR9
 2274 0120 00000000 		.word	.LANCHOR10
 2275 0124 00000000 		.word	.LANCHOR11
 2276 0128 00000000 		.word	.LANCHOR12
 2277              	.LBE601:
 2278              	.LBE605:
 2279              		.cfi_endproc
 2280              	.LFE5822:
 2282              		.section	.init_array,"aw",%init_array
 2283              		.align	2
 2284 0000 00000000 		.word	_GLOBAL__sub_I_hw(target1)
 2285              		.global	button_was_pressed
 2286              		.global	button_held_start_time
 2287              		.global	BOOTLOADER_HOLD_TIME_MS
 2288              		.global	smoothed_output_level
 2289              		.global	update_display
 2290              		.global	avg_elapsed_us
 2291              		.global	sample_rate
 2292              		.global	env_release_knob
 2293              		.global	env_attack_knob
 2294              		.global	delay_mix_knob
 2295              		.global	delay_lag_knob
 2296              		.global	delay_time_knob
 2297              		.global	delay_feedback_knob
 2298              		.global	morph_knob
 2299              		.global	decay_knob
 2300              		.global	timbre_knob
 2301              		.global	harmonics_knob
 2302              		.global	pitch_knob
 2303              		.global	button
ARM GAS  /var/folders/9s/8rp0_f2s1n31qbztm3b5_fdh0000gn/T//ccSMtkyz.s 			page 76


 2304              		.global	delay
 2305              		.global	touch_sensor
 2306              		.global	hw
 2307              		.section	.rodata
 2308              		.set	.LANCHOR14,. + 0
 2309              	.LC0:
 2310 0000 01       		.byte	1
 2311 0001 08       		.byte	8
 2312              	.LC1:
 2313 0002 01       		.byte	1
 2314 0003 09       		.byte	9
 2315              		.section	.bss.avg_elapsed_us,"aw",%nobits
 2316              		.align	2
 2319              	avg_elapsed_us:
 2320 0000 00000000 		.space	4
 2321              		.section	.bss.button,"aw",%nobits
 2322              		.align	2
 2323              		.set	.LANCHOR13,. + 0
 2326              	button:
 2327 0000 00000000 		.space	12
 2327      00000000 
 2327      00000000 
 2328              		.section	.bss.button_held_start_time,"aw",%nobits
 2329              		.align	2
 2330              		.set	.LANCHOR17,. + 0
 2333              	button_held_start_time:
 2334 0000 00000000 		.space	4
 2335              		.section	.bss.button_was_pressed,"aw",%nobits
 2336              		.set	.LANCHOR16,. + 0
 2339              	button_was_pressed:
 2340 0000 00       		.space	1
 2341              		.section	.bss.decay_knob,"aw",%nobits
 2342              		.align	2
 2343              		.set	.LANCHOR5,. + 0
 2346              	decay_knob:
 2347 0000 00000000 		.space	32
 2347      00000000 
 2347      00000000 
 2347      00000000 
 2347      00000000 
 2348              		.section	.bss.delay,"aw",%nobits
 2349              		.align	2
 2352              	delay:
 2353 0000 00000000 		.space	192080
 2353      00000000 
 2353      00000000 
 2353      00000000 
 2353      00000000 
 2354              		.section	.bss.delay_feedback_knob,"aw",%nobits
 2355              		.align	2
 2356              		.set	.LANCHOR7,. + 0
 2359              	delay_feedback_knob:
 2360 0000 00000000 		.space	32
 2360      00000000 
 2360      00000000 
 2360      00000000 
 2360      00000000 
ARM GAS  /var/folders/9s/8rp0_f2s1n31qbztm3b5_fdh0000gn/T//ccSMtkyz.s 			page 77


 2361              		.section	.bss.delay_lag_knob,"aw",%nobits
 2362              		.align	2
 2363              		.set	.LANCHOR9,. + 0
 2366              	delay_lag_knob:
 2367 0000 00000000 		.space	32
 2367      00000000 
 2367      00000000 
 2367      00000000 
 2367      00000000 
 2368              		.section	.bss.delay_mix_knob,"aw",%nobits
 2369              		.align	2
 2370              		.set	.LANCHOR10,. + 0
 2373              	delay_mix_knob:
 2374 0000 00000000 		.space	32
 2374      00000000 
 2374      00000000 
 2374      00000000 
 2374      00000000 
 2375              		.section	.bss.delay_time_knob,"aw",%nobits
 2376              		.align	2
 2377              		.set	.LANCHOR8,. + 0
 2380              	delay_time_knob:
 2381 0000 00000000 		.space	32
 2381      00000000 
 2381      00000000 
 2381      00000000 
 2381      00000000 
 2382              		.section	.bss.env_attack_knob,"aw",%nobits
 2383              		.align	2
 2384              		.set	.LANCHOR11,. + 0
 2387              	env_attack_knob:
 2388 0000 00000000 		.space	32
 2388      00000000 
 2388      00000000 
 2388      00000000 
 2388      00000000 
 2389              		.section	.bss.env_release_knob,"aw",%nobits
 2390              		.align	2
 2391              		.set	.LANCHOR12,. + 0
 2394              	env_release_knob:
 2395 0000 00000000 		.space	32
 2395      00000000 
 2395      00000000 
 2395      00000000 
 2395      00000000 
 2396              		.section	.bss.harmonics_knob,"aw",%nobits
 2397              		.align	2
 2398              		.set	.LANCHOR3,. + 0
 2401              	harmonics_knob:
 2402 0000 00000000 		.space	32
 2402      00000000 
 2402      00000000 
 2402      00000000 
 2402      00000000 
 2403              		.section	.bss.hw,"aw",%nobits
 2404              		.align	2
 2405              		.set	.LANCHOR0,. + 0
ARM GAS  /var/folders/9s/8rp0_f2s1n31qbztm3b5_fdh0000gn/T//ccSMtkyz.s 			page 78


 2408              	hw:
 2409 0000 00000000 		.space	60
 2409      00000000 
 2409      00000000 
 2409      00000000 
 2409      00000000 
 2410              		.section	.bss.morph_knob,"aw",%nobits
 2411              		.align	2
 2412              		.set	.LANCHOR6,. + 0
 2415              	morph_knob:
 2416 0000 00000000 		.space	32
 2416      00000000 
 2416      00000000 
 2416      00000000 
 2416      00000000 
 2417              		.section	.bss.pitch_knob,"aw",%nobits
 2418              		.align	2
 2419              		.set	.LANCHOR2,. + 0
 2422              	pitch_knob:
 2423 0000 00000000 		.space	32
 2423      00000000 
 2423      00000000 
 2423      00000000 
 2423      00000000 
 2424              		.section	.bss.smoothed_output_level,"aw",%nobits
 2425              		.align	2
 2428              	smoothed_output_level:
 2429 0000 00000000 		.space	4
 2430              		.section	.bss.timbre_knob,"aw",%nobits
 2431              		.align	2
 2432              		.set	.LANCHOR4,. + 0
 2435              	timbre_knob:
 2436 0000 00000000 		.space	32
 2436      00000000 
 2436      00000000 
 2436      00000000 
 2436      00000000 
 2437              		.section	.bss.touch_sensor,"aw",%nobits
 2438              		.align	2
 2439              		.set	.LANCHOR15,. + 0
 2442              	touch_sensor:
 2443 0000 00000000 		.space	8
 2443      00000000 
 2444              		.section	.bss.update_display,"aw",%nobits
 2447              	update_display:
 2448 0000 00       		.space	1
 2449              		.section	.data.sample_rate,"aw"
 2450              		.align	2
 2451              		.set	.LANCHOR1,. + 0
 2454              	sample_rate:
 2455 0000 00803B47 		.word	1195081728
 2456              		.section	.rodata.BOOTLOADER_HOLD_TIME_MS,"a"
 2457              		.align	2
 2460              	BOOTLOADER_HOLD_TIME_MS:
 2461 0000 B80B0000 		.word	3000
 2462              		.text
 2463              	.Letext0:
ARM GAS  /var/folders/9s/8rp0_f2s1n31qbztm3b5_fdh0000gn/T//ccSMtkyz.s 			page 79


 2464              		.file 20 "/Library/DaisyToolchain/0.2.0/arm/arm-none-eabi/include/machine/_default_types.h"
 2465              		.file 21 "/Library/DaisyToolchain/0.2.0/arm/arm-none-eabi/include/sys/_stdint.h"
 2466              		.file 22 "/Library/DaisyToolchain/0.2.0/arm/arm-none-eabi/include/stdint.h"
 2467              		.file 23 "/Library/DaisyToolchain/0.2.0/arm/lib/gcc/arm-none-eabi/10.3.1/include/stddef.h"
 2468              		.file 24 "/Library/DaisyToolchain/0.2.0/arm/arm-none-eabi/include/c++/10.3.1/cmath"
 2469              		.file 25 "/Library/DaisyToolchain/0.2.0/arm/arm-none-eabi/include/c++/10.3.1/bits/std_abs.h"
 2470              		.file 26 "/Library/DaisyToolchain/0.2.0/arm/arm-none-eabi/include/c++/10.3.1/cstdlib"
 2471              		.file 27 "/Library/DaisyToolchain/0.2.0/arm/arm-none-eabi/include/c++/10.3.1/cstdint"
 2472              		.file 28 "/Library/DaisyToolchain/0.2.0/arm/arm-none-eabi/include/c++/10.3.1/arm-none-eabi/thumb/v
 2473              		.file 29 "/Library/DaisyToolchain/0.2.0/arm/arm-none-eabi/include/c++/10.3.1/type_traits"
 2474              		.file 30 "/Library/DaisyToolchain/0.2.0/arm/arm-none-eabi/include/c++/10.3.1/bits/cpp_type_traits.
 2475              		.file 31 "/Library/DaisyToolchain/0.2.0/arm/arm-none-eabi/include/c++/10.3.1/bits/stl_pair.h"
 2476              		.file 32 "/Library/DaisyToolchain/0.2.0/arm/arm-none-eabi/include/c++/10.3.1/debug/debug.h"
 2477              		.file 33 "/Library/DaisyToolchain/0.2.0/arm/arm-none-eabi/include/c++/10.3.1/bits/algorithmfwd.h"
 2478              		.file 34 "/Library/DaisyToolchain/0.2.0/arm/arm-none-eabi/include/c++/10.3.1/bits/exception_ptr.h"
 2479              		.file 35 "/Library/DaisyToolchain/0.2.0/arm/arm-none-eabi/include/c++/10.3.1/cstdarg"
 2480              		.file 36 "/Library/DaisyToolchain/0.2.0/arm/arm-none-eabi/include/c++/10.3.1/cstdio"
 2481              		.file 37 "/Library/DaisyToolchain/0.2.0/arm/arm-none-eabi/include/c++/10.3.1/cstring"
 2482              		.file 38 "/Library/DaisyToolchain/0.2.0/arm/arm-none-eabi/include/c++/10.3.1/cwchar"
 2483              		.file 39 "/Library/DaisyToolchain/0.2.0/arm/arm-none-eabi/include/c++/10.3.1/clocale"
 2484              		.file 40 "/Library/DaisyToolchain/0.2.0/arm/arm-none-eabi/include/c++/10.3.1/bits/basic_string.h"
 2485              		.file 41 "/Library/DaisyToolchain/0.2.0/arm/arm-none-eabi/include/c++/10.3.1/bits/stl_iterator.h"
 2486              		.file 42 "/Library/DaisyToolchain/0.2.0/arm/arm-none-eabi/include/c++/10.3.1/bits/predefined_ops.h
 2487              		.file 43 "/Library/DaisyToolchain/0.2.0/arm/arm-none-eabi/include/sys/_types.h"
 2488              		.file 44 "/Library/DaisyToolchain/0.2.0/arm/arm-none-eabi/include/sys/reent.h"
 2489              		.file 45 "/Library/DaisyToolchain/0.2.0/arm/arm-none-eabi/include/sys/lock.h"
 2490              		.file 46 "/Library/DaisyToolchain/0.2.0/arm/arm-none-eabi/include/math.h"
 2491              		.file 47 "/Library/DaisyToolchain/0.2.0/arm/arm-none-eabi/include/stdlib.h"
 2492              		.file 48 "/Library/DaisyToolchain/0.2.0/arm/arm-none-eabi/include/c++/10.3.1/math.h"
 2493              		.file 49 "/Library/DaisyToolchain/0.2.0/arm/arm-none-eabi/include/c++/10.3.1/stdlib.h"
 2494              		.file 50 "lib/libdaisy/src/daisy_core.h"
 2495              		.file 51 "lib/libdaisy/src/per/tim.h"
 2496              		.file 52 "lib/libdaisy/src/per/sai.h"
 2497              		.file 53 "lib/libdaisy/src/hid/logger_impl.h"
 2498              		.file 54 "lib/libdaisy/src/util/wav_format.h"
 2499              		.file 55 "lib/libdaisy/src/hid/logger.h"
 2500              		.file 56 "lib/libdaisy/src/per/gpio.h"
 2501              		.file 57 "lib/libdaisy/src/dev/sdram.h"
 2502              		.file 58 "/Library/DaisyToolchain/0.2.0/arm/lib/gcc/arm-none-eabi/10.3.1/include/stdarg.h"
 2503              		.file 59 "/Library/DaisyToolchain/0.2.0/arm/arm-none-eabi/include/stdio.h"
 2504              		.file 60 "/Library/DaisyToolchain/0.2.0/arm/arm-none-eabi/include/string.h"
 2505              		.file 61 "lib/DaisySP/Source/Control/adenv.h"
 2506              		.file 62 "/Library/DaisyToolchain/0.2.0/arm/arm-none-eabi/include/wchar.h"
 2507              		.file 63 "/Library/DaisyToolchain/0.2.0/arm/arm-none-eabi/include/locale.h"
 2508              		.file 64 "eurorack/stmlib/stmlib.h"
 2509              		.file 65 "eurorack/plaits/dsp/dsp.h"
 2510              		.file 66 "eurorack/plaits/dsp/engine/additive_engine.h"
 2511              		.file 67 "eurorack/plaits/dsp/oscillator/oscillator.h"
 2512              		.file 68 "eurorack/plaits/dsp/engine/chord_engine.h"
 2513              		.file 69 "eurorack/plaits/dsp/physical_modelling/resonator.h"
 2514              		.file 70 "eurorack/plaits/dsp/engine/particle_engine.h"
 2515              		.file 71 "eurorack/plaits/dsp/physical_modelling/string.h"
 2516              		.file 72 "eurorack/plaits/dsp/engine/string_engine.h"
 2517              		.file 73 "eurorack/plaits/dsp/engine/swarm_engine.h"
 2518              		.file 74 "eurorack/plaits/dsp/oscillator/variable_saw_oscillator.h"
 2519              		.file 75 "eurorack/plaits/dsp/voice.h"
 2520              		.file 76 "Amathia.h"
ARM GAS  /var/folders/9s/8rp0_f2s1n31qbztm3b5_fdh0000gn/T//ccSMtkyz.s 			page 80


 2521              		.file 77 "lib/libdaisy/src/dev/sr_595.h"
 2522              		.file 78 "<built-in>"
ARM GAS  /var/folders/9s/8rp0_f2s1n31qbztm3b5_fdh0000gn/T//ccSMtkyz.s 			page 81


DEFINED SYMBOLS
                            *ABS*:0000000000000000 Interface.cpp
/var/folders/9s/8rp0_f2s1n31qbztm3b5_fdh0000gn/T//ccSMtkyz.s:19     .text._ZN5daisy6SwitchD2Ev:0000000000000000 $t
/var/folders/9s/8rp0_f2s1n31qbztm3b5_fdh0000gn/T//ccSMtkyz.s:25     .text._ZN5daisy6SwitchD2Ev:0000000000000000 _ZN5daisy6SwitchD2Ev
/var/folders/9s/8rp0_f2s1n31qbztm3b5_fdh0000gn/T//ccSMtkyz.s:25     .text._ZN5daisy6SwitchD2Ev:0000000000000000 _ZN5daisy6SwitchD1Ev
/var/folders/9s/8rp0_f2s1n31qbztm3b5_fdh0000gn/T//ccSMtkyz.s:42     .text._ZN5daisy13AnalogControlD2Ev:0000000000000000 $t
/var/folders/9s/8rp0_f2s1n31qbztm3b5_fdh0000gn/T//ccSMtkyz.s:48     .text._ZN5daisy13AnalogControlD2Ev:0000000000000000 _ZN5daisy13AnalogControlD2Ev
/var/folders/9s/8rp0_f2s1n31qbztm3b5_fdh0000gn/T//ccSMtkyz.s:48     .text._ZN5daisy13AnalogControlD2Ev:0000000000000000 _ZN5daisy13AnalogControlD1Ev
/var/folders/9s/8rp0_f2s1n31qbztm3b5_fdh0000gn/T//ccSMtkyz.s:65     .text._ZN5daisy9DaisySeedD2Ev:0000000000000000 $t
/var/folders/9s/8rp0_f2s1n31qbztm3b5_fdh0000gn/T//ccSMtkyz.s:71     .text._ZN5daisy9DaisySeedD2Ev:0000000000000000 _ZN5daisy9DaisySeedD2Ev
/var/folders/9s/8rp0_f2s1n31qbztm3b5_fdh0000gn/T//ccSMtkyz.s:71     .text._ZN5daisy9DaisySeedD2Ev:0000000000000000 _ZN5daisy9DaisySeedD1Ev
/var/folders/9s/8rp0_f2s1n31qbztm3b5_fdh0000gn/T//ccSMtkyz.s:112    .text._ZN6Mpr121D2Ev:0000000000000000 $t
/var/folders/9s/8rp0_f2s1n31qbztm3b5_fdh0000gn/T//ccSMtkyz.s:118    .text._ZN6Mpr121D2Ev:0000000000000000 _ZN6Mpr121D2Ev
/var/folders/9s/8rp0_f2s1n31qbztm3b5_fdh0000gn/T//ccSMtkyz.s:118    .text._ZN6Mpr121D2Ev:0000000000000000 _ZN6Mpr121D1Ev
/var/folders/9s/8rp0_f2s1n31qbztm3b5_fdh0000gn/T//ccSMtkyz.s:135    .text._ZN10infrasonic9EchoDelayILj48000EED2Ev:0000000000000000 $t
/var/folders/9s/8rp0_f2s1n31qbztm3b5_fdh0000gn/T//ccSMtkyz.s:141    .text._ZN10infrasonic9EchoDelayILj48000EED2Ev:0000000000000000 _ZN10infrasonic9EchoDelayILj48000EED2Ev
/var/folders/9s/8rp0_f2s1n31qbztm3b5_fdh0000gn/T//ccSMtkyz.s:141    .text._ZN10infrasonic9EchoDelayILj48000EED2Ev:0000000000000000 _ZN10infrasonic9EchoDelayILj48000EED1Ev
/var/folders/9s/8rp0_f2s1n31qbztm3b5_fdh0000gn/T//ccSMtkyz.s:175    .text._Z18InitializeHardwarev:0000000000000000 $t
/var/folders/9s/8rp0_f2s1n31qbztm3b5_fdh0000gn/T//ccSMtkyz.s:181    .text._Z18InitializeHardwarev:0000000000000000 _Z18InitializeHardwarev
/var/folders/9s/8rp0_f2s1n31qbztm3b5_fdh0000gn/T//ccSMtkyz.s:238    .text._Z18InitializeHardwarev:0000000000000038 $d
/var/folders/9s/8rp0_f2s1n31qbztm3b5_fdh0000gn/T//ccSMtkyz.s:244    .text._Z18InitializeControlsv:0000000000000000 $t
/var/folders/9s/8rp0_f2s1n31qbztm3b5_fdh0000gn/T//ccSMtkyz.s:250    .text._Z18InitializeControlsv:0000000000000000 _Z18InitializeControlsv
/var/folders/9s/8rp0_f2s1n31qbztm3b5_fdh0000gn/T//ccSMtkyz.s:578    .text._Z18InitializeControlsv:0000000000000254 $d
/var/folders/9s/8rp0_f2s1n31qbztm3b5_fdh0000gn/T//ccSMtkyz.s:598    .text._Z21InitializeTouchSensorv:0000000000000000 $t
/var/folders/9s/8rp0_f2s1n31qbztm3b5_fdh0000gn/T//ccSMtkyz.s:604    .text._Z21InitializeTouchSensorv:0000000000000000 _Z21InitializeTouchSensorv
/var/folders/9s/8rp0_f2s1n31qbztm3b5_fdh0000gn/T//ccSMtkyz.s:733    .text._Z21InitializeTouchSensorv:0000000000000060 $d
/var/folders/9s/8rp0_f2s1n31qbztm3b5_fdh0000gn/T//ccSMtkyz.s:743    .text._Z17HandleButtonInputv:0000000000000000 $t
/var/folders/9s/8rp0_f2s1n31qbztm3b5_fdh0000gn/T//ccSMtkyz.s:749    .text._Z17HandleButtonInputv:0000000000000000 _Z17HandleButtonInputv
/var/folders/9s/8rp0_f2s1n31qbztm3b5_fdh0000gn/T//ccSMtkyz.s:895    .text._Z17HandleButtonInputv:0000000000000064 $d
/var/folders/9s/8rp0_f2s1n31qbztm3b5_fdh0000gn/T//ccSMtkyz.s:905    .text._Z9UpdateLEDv:0000000000000000 $t
/var/folders/9s/8rp0_f2s1n31qbztm3b5_fdh0000gn/T//ccSMtkyz.s:911    .text._Z9UpdateLEDv:0000000000000000 _Z9UpdateLEDv
/var/folders/9s/8rp0_f2s1n31qbztm3b5_fdh0000gn/T//ccSMtkyz.s:979    .text._Z9UpdateLEDv:0000000000000038 $d
/var/folders/9s/8rp0_f2s1n31qbztm3b5_fdh0000gn/T//ccSMtkyz.s:985    .text._ZN10infrasonic13BiquadCascadeILj1ELNS_13BiquadSection10FilterTypeE2EE18updateCoefficientsEv:0000000000000000 $t
/var/folders/9s/8rp0_f2s1n31qbztm3b5_fdh0000gn/T//ccSMtkyz.s:991    .text._ZN10infrasonic13BiquadCascadeILj1ELNS_13BiquadSection10FilterTypeE2EE18updateCoefficientsEv:0000000000000000 _ZN10infrasonic13BiquadCascadeILj1ELNS_13BiquadSection10FilterTypeE2EE18updateCoefficientsEv
/var/folders/9s/8rp0_f2s1n31qbztm3b5_fdh0000gn/T//ccSMtkyz.s:1069   .text._Z15InitializeDelayv:0000000000000000 $t
/var/folders/9s/8rp0_f2s1n31qbztm3b5_fdh0000gn/T//ccSMtkyz.s:1075   .text._Z15InitializeDelayv:0000000000000000 _Z15InitializeDelayv
/var/folders/9s/8rp0_f2s1n31qbztm3b5_fdh0000gn/T//ccSMtkyz.s:1474   .text._Z15InitializeDelayv:00000000000000b4 $d
/var/folders/9s/8rp0_f2s1n31qbztm3b5_fdh0000gn/T//ccSMtkyz.s:2352   .bss.delay:0000000000000000 delay
/var/folders/9s/8rp0_f2s1n31qbztm3b5_fdh0000gn/T//ccSMtkyz.s:1501   .text._Z15InitializeSynthv:0000000000000000 $t
/var/folders/9s/8rp0_f2s1n31qbztm3b5_fdh0000gn/T//ccSMtkyz.s:1507   .text._Z15InitializeSynthv:0000000000000000 _Z15InitializeSynthv
/var/folders/9s/8rp0_f2s1n31qbztm3b5_fdh0000gn/T//ccSMtkyz.s:1782   .text._Z15InitializeSynthv:00000000000000dc $d
/var/folders/9s/8rp0_f2s1n31qbztm3b5_fdh0000gn/T//ccSMtkyz.s:1801   .text.startup._GLOBAL__sub_I_hw:0000000000000000 $t
/var/folders/9s/8rp0_f2s1n31qbztm3b5_fdh0000gn/T//ccSMtkyz.s:1806   .text.startup._GLOBAL__sub_I_hw:0000000000000000 _GLOBAL__sub_I_hw
/var/folders/9s/8rp0_f2s1n31qbztm3b5_fdh0000gn/T//ccSMtkyz.s:2256   .text.startup._GLOBAL__sub_I_hw:00000000000000d8 $d
/var/folders/9s/8rp0_f2s1n31qbztm3b5_fdh0000gn/T//ccSMtkyz.s:2283   .init_array:0000000000000000 $d
/var/folders/9s/8rp0_f2s1n31qbztm3b5_fdh0000gn/T//ccSMtkyz.s:2339   .bss.button_was_pressed:0000000000000000 button_was_pressed
/var/folders/9s/8rp0_f2s1n31qbztm3b5_fdh0000gn/T//ccSMtkyz.s:2333   .bss.button_held_start_time:0000000000000000 button_held_start_time
/var/folders/9s/8rp0_f2s1n31qbztm3b5_fdh0000gn/T//ccSMtkyz.s:2460   .rodata.BOOTLOADER_HOLD_TIME_MS:0000000000000000 BOOTLOADER_HOLD_TIME_MS
/var/folders/9s/8rp0_f2s1n31qbztm3b5_fdh0000gn/T//ccSMtkyz.s:2428   .bss.smoothed_output_level:0000000000000000 smoothed_output_level
/var/folders/9s/8rp0_f2s1n31qbztm3b5_fdh0000gn/T//ccSMtkyz.s:2447   .bss.update_display:0000000000000000 update_display
/var/folders/9s/8rp0_f2s1n31qbztm3b5_fdh0000gn/T//ccSMtkyz.s:2319   .bss.avg_elapsed_us:0000000000000000 avg_elapsed_us
/var/folders/9s/8rp0_f2s1n31qbztm3b5_fdh0000gn/T//ccSMtkyz.s:2454   .data.sample_rate:0000000000000000 sample_rate
/var/folders/9s/8rp0_f2s1n31qbztm3b5_fdh0000gn/T//ccSMtkyz.s:2394   .bss.env_release_knob:0000000000000000 env_release_knob
/var/folders/9s/8rp0_f2s1n31qbztm3b5_fdh0000gn/T//ccSMtkyz.s:2387   .bss.env_attack_knob:0000000000000000 env_attack_knob
/var/folders/9s/8rp0_f2s1n31qbztm3b5_fdh0000gn/T//ccSMtkyz.s:2373   .bss.delay_mix_knob:0000000000000000 delay_mix_knob
/var/folders/9s/8rp0_f2s1n31qbztm3b5_fdh0000gn/T//ccSMtkyz.s:2366   .bss.delay_lag_knob:0000000000000000 delay_lag_knob
/var/folders/9s/8rp0_f2s1n31qbztm3b5_fdh0000gn/T//ccSMtkyz.s:2380   .bss.delay_time_knob:0000000000000000 delay_time_knob
ARM GAS  /var/folders/9s/8rp0_f2s1n31qbztm3b5_fdh0000gn/T//ccSMtkyz.s 			page 82


/var/folders/9s/8rp0_f2s1n31qbztm3b5_fdh0000gn/T//ccSMtkyz.s:2359   .bss.delay_feedback_knob:0000000000000000 delay_feedback_knob
/var/folders/9s/8rp0_f2s1n31qbztm3b5_fdh0000gn/T//ccSMtkyz.s:2415   .bss.morph_knob:0000000000000000 morph_knob
/var/folders/9s/8rp0_f2s1n31qbztm3b5_fdh0000gn/T//ccSMtkyz.s:2346   .bss.decay_knob:0000000000000000 decay_knob
/var/folders/9s/8rp0_f2s1n31qbztm3b5_fdh0000gn/T//ccSMtkyz.s:2435   .bss.timbre_knob:0000000000000000 timbre_knob
/var/folders/9s/8rp0_f2s1n31qbztm3b5_fdh0000gn/T//ccSMtkyz.s:2401   .bss.harmonics_knob:0000000000000000 harmonics_knob
/var/folders/9s/8rp0_f2s1n31qbztm3b5_fdh0000gn/T//ccSMtkyz.s:2422   .bss.pitch_knob:0000000000000000 pitch_knob
/var/folders/9s/8rp0_f2s1n31qbztm3b5_fdh0000gn/T//ccSMtkyz.s:2326   .bss.button:0000000000000000 button
/var/folders/9s/8rp0_f2s1n31qbztm3b5_fdh0000gn/T//ccSMtkyz.s:2442   .bss.touch_sensor:0000000000000000 touch_sensor
/var/folders/9s/8rp0_f2s1n31qbztm3b5_fdh0000gn/T//ccSMtkyz.s:2408   .bss.hw:0000000000000000 hw
/var/folders/9s/8rp0_f2s1n31qbztm3b5_fdh0000gn/T//ccSMtkyz.s:2316   .bss.avg_elapsed_us:0000000000000000 $d
/var/folders/9s/8rp0_f2s1n31qbztm3b5_fdh0000gn/T//ccSMtkyz.s:2322   .bss.button:0000000000000000 $d
/var/folders/9s/8rp0_f2s1n31qbztm3b5_fdh0000gn/T//ccSMtkyz.s:2329   .bss.button_held_start_time:0000000000000000 $d
/var/folders/9s/8rp0_f2s1n31qbztm3b5_fdh0000gn/T//ccSMtkyz.s:2340   .bss.button_was_pressed:0000000000000000 $d
/var/folders/9s/8rp0_f2s1n31qbztm3b5_fdh0000gn/T//ccSMtkyz.s:2342   .bss.decay_knob:0000000000000000 $d
/var/folders/9s/8rp0_f2s1n31qbztm3b5_fdh0000gn/T//ccSMtkyz.s:2349   .bss.delay:0000000000000000 $d
/var/folders/9s/8rp0_f2s1n31qbztm3b5_fdh0000gn/T//ccSMtkyz.s:2355   .bss.delay_feedback_knob:0000000000000000 $d
/var/folders/9s/8rp0_f2s1n31qbztm3b5_fdh0000gn/T//ccSMtkyz.s:2362   .bss.delay_lag_knob:0000000000000000 $d
/var/folders/9s/8rp0_f2s1n31qbztm3b5_fdh0000gn/T//ccSMtkyz.s:2369   .bss.delay_mix_knob:0000000000000000 $d
/var/folders/9s/8rp0_f2s1n31qbztm3b5_fdh0000gn/T//ccSMtkyz.s:2376   .bss.delay_time_knob:0000000000000000 $d
/var/folders/9s/8rp0_f2s1n31qbztm3b5_fdh0000gn/T//ccSMtkyz.s:2383   .bss.env_attack_knob:0000000000000000 $d
/var/folders/9s/8rp0_f2s1n31qbztm3b5_fdh0000gn/T//ccSMtkyz.s:2390   .bss.env_release_knob:0000000000000000 $d
/var/folders/9s/8rp0_f2s1n31qbztm3b5_fdh0000gn/T//ccSMtkyz.s:2397   .bss.harmonics_knob:0000000000000000 $d
/var/folders/9s/8rp0_f2s1n31qbztm3b5_fdh0000gn/T//ccSMtkyz.s:2404   .bss.hw:0000000000000000 $d
/var/folders/9s/8rp0_f2s1n31qbztm3b5_fdh0000gn/T//ccSMtkyz.s:2411   .bss.morph_knob:0000000000000000 $d
/var/folders/9s/8rp0_f2s1n31qbztm3b5_fdh0000gn/T//ccSMtkyz.s:2418   .bss.pitch_knob:0000000000000000 $d
/var/folders/9s/8rp0_f2s1n31qbztm3b5_fdh0000gn/T//ccSMtkyz.s:2425   .bss.smoothed_output_level:0000000000000000 $d
/var/folders/9s/8rp0_f2s1n31qbztm3b5_fdh0000gn/T//ccSMtkyz.s:2431   .bss.timbre_knob:0000000000000000 $d
/var/folders/9s/8rp0_f2s1n31qbztm3b5_fdh0000gn/T//ccSMtkyz.s:2438   .bss.touch_sensor:0000000000000000 $d
/var/folders/9s/8rp0_f2s1n31qbztm3b5_fdh0000gn/T//ccSMtkyz.s:2448   .bss.update_display:0000000000000000 $d
/var/folders/9s/8rp0_f2s1n31qbztm3b5_fdh0000gn/T//ccSMtkyz.s:2450   .data.sample_rate:0000000000000000 $d
/var/folders/9s/8rp0_f2s1n31qbztm3b5_fdh0000gn/T//ccSMtkyz.s:2457   .rodata.BOOTLOADER_HOLD_TIME_MS:0000000000000000 $d
                           .group:0000000000000000 _ZN5daisy6SwitchD5Ev
                           .group:0000000000000000 _ZN5daisy13AnalogControlD5Ev
                           .group:0000000000000000 _ZN5daisy9DaisySeedD5Ev
                           .group:0000000000000000 _ZN6Mpr121D5Ev
                           .group:0000000000000000 _ZN10infrasonic9EchoDelayILj48000EED5Ev

UNDEFINED SYMBOLS
_ZN5daisy9DaisySeed9ConfigureEv
_ZN5daisy9DaisySeed4InitEb
_ZN5daisy9DaisySeed17SetAudioBlockSizeEj
_ZN5daisy9DaisySeed15AudioSampleRateEv
_ZN5daisy9DaisySeed18SetAudioSampleRateENS_9SaiHandle6Config10SampleRateE
_ZN5daisy9DaisySeed6GetPinEh
_ZN5daisy16AdcChannelConfig10InitSingleE12dsy_gpio_pin
_ZN5daisy9AdcHandle4InitEPNS_16AdcChannelConfigEjNS0_12OverSamplingE
_ZN5daisy9AdcHandle5StartEv
_ZNK5daisy9AdcHandle6GetPtrEh
_ZN5daisy13AnalogControl4InitEPtfbbf
_ZN5daisy6Switch4InitE12dsy_gpio_pinf
_ZN6Mpr1214InitERKNS_6ConfigE
_ZN5daisy9DaisySeed6SetLedEb
_ZN5daisy6System5DelayEm
_ZN6Mpr12113SetThresholdsEhh
dsy_gpio_read
_ZN5daisy6System6GetNowEv
_ZN5daisy6LoggerILNS_17LoggerDestinationE1EE9PrintLineEPKcz
ARM GAS  /var/folders/9s/8rp0_f2s1n31qbztm3b5_fdh0000gn/T//ccSMtkyz.s 			page 83


_ZN5daisy6System17ResetToBootloaderEv
voice_active
_ZN10infrasonic13BiquadSection21CalculateCoefficientsENS0_10FilterTypeEfff
memset
_Z16InitializeVoicesv
_ZN5daisy6System11GetTickFreqEv
_ZN5daisy9DaisySeed10StartAudioEPFvPKfPfjE
_ZN5daisy6LoggerILNS_17LoggerDestinationE1EE8StartLogEb
sprintf
cpu_meter
_Z13AudioCallbackPKfPfj
MAX_ENGINE_INDEX
__aeabi_atexit
__dso_handle
