ARM GAS  /var/folders/9s/8rp0_f2s1n31qbztm3b5_fdh0000gn/T//ccmN9iqX.s 			page 1


   1              		.cpu cortex-m7
   2              		.arch armv7e-m
   3              		.fpu fpv5-d16
   4              		.eabi_attribute 28, 1
   5              		.eabi_attribute 20, 1
   6              		.eabi_attribute 21, 1
   7              		.eabi_attribute 23, 3
   8              		.eabi_attribute 24, 1
   9              		.eabi_attribute 25, 1
  10              		.eabi_attribute 26, 1
  11              		.eabi_attribute 30, 4
  12              		.eabi_attribute 34, 1
  13              		.eabi_attribute 18, 4
  14              		.file	"lpc_speech_synth_controller.cc"
  15              		.text
  16              	.Ltext0:
  17              		.cfi_sections	.debug_frame
  18              		.section	.text._ZN6plaits14LPCSpeechSynth9PlayFrameEPKNS0_5FrameEfb,"axG",%progbits,_ZN6plaits14LP
  19              		.align	1
  20              		.weak	_ZN6plaits14LPCSpeechSynth9PlayFrameEPKNS0_5FrameEfb
  21              		.syntax unified
  22              		.thumb
  23              		.thumb_func
  25              	_ZN6plaits14LPCSpeechSynth9PlayFrameEPKNS0_5FrameEfb:
  26              	.LVL0:
  27              	.LFB562:
  28              		.file 1 "eurorack/plaits/dsp/speech/lpc_speech_synth.h"
   1:eurorack/plaits/dsp/speech/lpc_speech_synth.h **** // Copyright 2016 Emilie Gillet.
   2:eurorack/plaits/dsp/speech/lpc_speech_synth.h **** //
   3:eurorack/plaits/dsp/speech/lpc_speech_synth.h **** // Author: Emilie Gillet (emilie.o.gillet@gmail.com)
   4:eurorack/plaits/dsp/speech/lpc_speech_synth.h **** //
   5:eurorack/plaits/dsp/speech/lpc_speech_synth.h **** // Permission is hereby granted, free of charge, to any person obtaining a copy
   6:eurorack/plaits/dsp/speech/lpc_speech_synth.h **** // of this software and associated documentation files (the "Software"), to deal
   7:eurorack/plaits/dsp/speech/lpc_speech_synth.h **** // in the Software without restriction, including without limitation the rights
   8:eurorack/plaits/dsp/speech/lpc_speech_synth.h **** // to use, copy, modify, merge, publish, distribute, sublicense, and/or sell
   9:eurorack/plaits/dsp/speech/lpc_speech_synth.h **** // copies of the Software, and to permit persons to whom the Software is
  10:eurorack/plaits/dsp/speech/lpc_speech_synth.h **** // furnished to do so, subject to the following conditions:
  11:eurorack/plaits/dsp/speech/lpc_speech_synth.h **** // 
  12:eurorack/plaits/dsp/speech/lpc_speech_synth.h **** // The above copyright notice and this permission notice shall be included in
  13:eurorack/plaits/dsp/speech/lpc_speech_synth.h **** // all copies or substantial portions of the Software.
  14:eurorack/plaits/dsp/speech/lpc_speech_synth.h **** // 
  15:eurorack/plaits/dsp/speech/lpc_speech_synth.h **** // THE SOFTWARE IS PROVIDED "AS IS", WITHOUT WARRANTY OF ANY KIND, EXPRESS OR
  16:eurorack/plaits/dsp/speech/lpc_speech_synth.h **** // IMPLIED, INCLUDING BUT NOT LIMITED TO THE WARRANTIES OF MERCHANTABILITY,
  17:eurorack/plaits/dsp/speech/lpc_speech_synth.h **** // FITNESS FOR A PARTICULAR PURPOSE AND NONINFRINGEMENT. IN NO EVENT SHALL THE
  18:eurorack/plaits/dsp/speech/lpc_speech_synth.h **** // AUTHORS OR COPYRIGHT HOLDERS BE LIABLE FOR ANY CLAIM, DAMAGES OR OTHER
  19:eurorack/plaits/dsp/speech/lpc_speech_synth.h **** // LIABILITY, WHETHER IN AN ACTION OF CONTRACT, TORT OR OTHERWISE, ARISING FROM,
  20:eurorack/plaits/dsp/speech/lpc_speech_synth.h **** // OUT OF OR IN CONNECTION WITH THE SOFTWARE OR THE USE OR OTHER DEALINGS IN
  21:eurorack/plaits/dsp/speech/lpc_speech_synth.h **** // THE SOFTWARE.
  22:eurorack/plaits/dsp/speech/lpc_speech_synth.h **** // 
  23:eurorack/plaits/dsp/speech/lpc_speech_synth.h **** // See http://creativecommons.org/licenses/MIT/ for more information.
  24:eurorack/plaits/dsp/speech/lpc_speech_synth.h **** //
  25:eurorack/plaits/dsp/speech/lpc_speech_synth.h **** // -----------------------------------------------------------------------------
  26:eurorack/plaits/dsp/speech/lpc_speech_synth.h **** //
  27:eurorack/plaits/dsp/speech/lpc_speech_synth.h **** // LPC10 speech synth.
  28:eurorack/plaits/dsp/speech/lpc_speech_synth.h **** 
  29:eurorack/plaits/dsp/speech/lpc_speech_synth.h **** #ifndef PLAITS_DSP_SPEECH_LPC_SPEECH_SYNTH_H_
  30:eurorack/plaits/dsp/speech/lpc_speech_synth.h **** #define PLAITS_DSP_SPEECH_LPC_SPEECH_SYNTH_H_
ARM GAS  /var/folders/9s/8rp0_f2s1n31qbztm3b5_fdh0000gn/T//ccmN9iqX.s 			page 2


  31:eurorack/plaits/dsp/speech/lpc_speech_synth.h **** 
  32:eurorack/plaits/dsp/speech/lpc_speech_synth.h **** #include "stmlib/dsp/dsp.h"
  33:eurorack/plaits/dsp/speech/lpc_speech_synth.h **** 
  34:eurorack/plaits/dsp/speech/lpc_speech_synth.h **** #include "plaits/dsp/dsp.h"
  35:eurorack/plaits/dsp/speech/lpc_speech_synth.h **** 
  36:eurorack/plaits/dsp/speech/lpc_speech_synth.h **** namespace plaits {
  37:eurorack/plaits/dsp/speech/lpc_speech_synth.h **** 
  38:eurorack/plaits/dsp/speech/lpc_speech_synth.h **** const int kLPCOrder = 10;
  39:eurorack/plaits/dsp/speech/lpc_speech_synth.h **** 
  40:eurorack/plaits/dsp/speech/lpc_speech_synth.h **** const float kLPCSpeechSynthDefaultF0 = 100.0f;
  41:eurorack/plaits/dsp/speech/lpc_speech_synth.h **** 
  42:eurorack/plaits/dsp/speech/lpc_speech_synth.h **** class LPCSpeechSynth {
  43:eurorack/plaits/dsp/speech/lpc_speech_synth.h ****  public:
  44:eurorack/plaits/dsp/speech/lpc_speech_synth.h ****   LPCSpeechSynth() { }
  45:eurorack/plaits/dsp/speech/lpc_speech_synth.h ****   ~LPCSpeechSynth() { }
  46:eurorack/plaits/dsp/speech/lpc_speech_synth.h **** 
  47:eurorack/plaits/dsp/speech/lpc_speech_synth.h ****   struct Frame {
  48:eurorack/plaits/dsp/speech/lpc_speech_synth.h ****     // 14 bytes.
  49:eurorack/plaits/dsp/speech/lpc_speech_synth.h ****     uint8_t energy;
  50:eurorack/plaits/dsp/speech/lpc_speech_synth.h ****     uint8_t period;
  51:eurorack/plaits/dsp/speech/lpc_speech_synth.h ****     int16_t k0;
  52:eurorack/plaits/dsp/speech/lpc_speech_synth.h ****     int16_t k1;
  53:eurorack/plaits/dsp/speech/lpc_speech_synth.h ****     int8_t k2;
  54:eurorack/plaits/dsp/speech/lpc_speech_synth.h ****     int8_t k3;
  55:eurorack/plaits/dsp/speech/lpc_speech_synth.h ****     int8_t k4;
  56:eurorack/plaits/dsp/speech/lpc_speech_synth.h ****     int8_t k5;
  57:eurorack/plaits/dsp/speech/lpc_speech_synth.h ****     int8_t k6;
  58:eurorack/plaits/dsp/speech/lpc_speech_synth.h ****     int8_t k7;
  59:eurorack/plaits/dsp/speech/lpc_speech_synth.h ****     int8_t k8;
  60:eurorack/plaits/dsp/speech/lpc_speech_synth.h ****     int8_t k9;
  61:eurorack/plaits/dsp/speech/lpc_speech_synth.h ****   };
  62:eurorack/plaits/dsp/speech/lpc_speech_synth.h **** 
  63:eurorack/plaits/dsp/speech/lpc_speech_synth.h ****   void Init();
  64:eurorack/plaits/dsp/speech/lpc_speech_synth.h ****   
  65:eurorack/plaits/dsp/speech/lpc_speech_synth.h ****   void Render(
  66:eurorack/plaits/dsp/speech/lpc_speech_synth.h ****       float prosody_amount,
  67:eurorack/plaits/dsp/speech/lpc_speech_synth.h ****       float pitch_shift,
  68:eurorack/plaits/dsp/speech/lpc_speech_synth.h ****       float* excitation,
  69:eurorack/plaits/dsp/speech/lpc_speech_synth.h ****       float* output,
  70:eurorack/plaits/dsp/speech/lpc_speech_synth.h ****       size_t size);
  71:eurorack/plaits/dsp/speech/lpc_speech_synth.h ****   
  72:eurorack/plaits/dsp/speech/lpc_speech_synth.h ****   void PlayFrame(const Frame* frames, float frame, bool interpolate) {
  29              		.loc 1 72 8 view -0
  30              		.cfi_startproc
  31              		@ args = 0, pretend = 0, frame = 0
  32              		@ frame_needed = 0, uses_anonymous_args = 0
  33              		@ link register save eliminated.
  73:eurorack/plaits/dsp/speech/lpc_speech_synth.h ****     MAKE_INTEGRAL_FRACTIONAL(frame);
  34              		.loc 1 73 5 view .LVU1
  35 0000 FDEEC07A 		vcvt.s32.f32	s15, s0
  36              	.LVL1:
  37              		.loc 1 73 5 view .LVU2
  38              		.loc 1 73 36 view .LVU3
  74:eurorack/plaits/dsp/speech/lpc_speech_synth.h ****     
  75:eurorack/plaits/dsp/speech/lpc_speech_synth.h ****     if (!interpolate) {
  39              		.loc 1 75 5 view .LVU4
  40 0004 6AB1     		cbz	r2, .L3
ARM GAS  /var/folders/9s/8rp0_f2s1n31qbztm3b5_fdh0000gn/T//ccmN9iqX.s 			page 3


  73:eurorack/plaits/dsp/speech/lpc_speech_synth.h ****     MAKE_INTEGRAL_FRACTIONAL(frame);
  41              		.loc 1 73 5 is_stmt 0 view .LVU5
  42 0006 B8EEE77A 		vcvt.f32.s32	s14, s15
  43              	.LVL2:
  73:eurorack/plaits/dsp/speech/lpc_speech_synth.h ****     MAKE_INTEGRAL_FRACTIONAL(frame);
  44              		.loc 1 73 5 view .LVU6
  45 000a 30EE470A 		vsub.f32	s0, s0, s14
  46              	.LVL3:
  47              	.L2:
  76:eurorack/plaits/dsp/speech/lpc_speech_synth.h ****       frame_fractional = 0.0f;
  77:eurorack/plaits/dsp/speech/lpc_speech_synth.h ****     }
  78:eurorack/plaits/dsp/speech/lpc_speech_synth.h ****     PlayFrame(
  48              		.loc 1 78 5 is_stmt 1 view .LVU7
  79:eurorack/plaits/dsp/speech/lpc_speech_synth.h ****         frames[frame_integral],
  49              		.loc 1 79 30 is_stmt 0 view .LVU8
  50 000e 0E23     		movs	r3, #14
  51 0010 17EE902A 		vmov	r2, s15	@ int
  52              	.LVL4:
  53              		.loc 1 79 30 view .LVU9
  54 0014 5A43     		muls	r2, r3, r2
  55 0016 1346     		mov	r3, r2
  78:eurorack/plaits/dsp/speech/lpc_speech_synth.h ****         frames[frame_integral],
  56              		.loc 1 78 14 view .LVU10
  57 0018 0E32     		adds	r2, r2, #14
  58 001a 0A44     		add	r2, r2, r1
  59 001c 1944     		add	r1, r1, r3
  60              	.LVL5:
  78:eurorack/plaits/dsp/speech/lpc_speech_synth.h ****         frames[frame_integral],
  61              		.loc 1 78 14 view .LVU11
  62 001e FFF7FEBF 		b	_ZN6plaits14LPCSpeechSynth9PlayFrameERKNS0_5FrameES3_f
  63              	.LVL6:
  64              	.L3:
  76:eurorack/plaits/dsp/speech/lpc_speech_synth.h ****       frame_fractional = 0.0f;
  65              		.loc 1 76 24 view .LVU12
  66 0022 9FED010A 		vldr.32	s0, .L4
  67              	.LVL7:
  76:eurorack/plaits/dsp/speech/lpc_speech_synth.h ****       frame_fractional = 0.0f;
  68              		.loc 1 76 24 view .LVU13
  69 0026 F2E7     		b	.L2
  70              	.L5:
  71              		.align	2
  72              	.L4:
  73 0028 00000000 		.word	0
  74              		.cfi_endproc
  75              	.LFE562:
  77              		.section	.text._ZN6plaits9BitStream7GetBitsEi,"axG",%progbits,_ZN6plaits9BitStream7GetBitsEi,comda
  78              		.align	1
  79              		.weak	_ZN6plaits9BitStream7GetBitsEi
  80              		.syntax unified
  81              		.thumb
  82              		.thumb_func
  84              	_ZN6plaits9BitStream7GetBitsEi:
  85              	.LVL8:
  86              	.LFB586:
  87              		.file 2 "eurorack/plaits/dsp/speech/lpc_speech_synth_controller.h"
   1:eurorack/plaits/dsp/speech/lpc_speech_synth_controller.h **** // Copyright 2016 Emilie Gillet.
   2:eurorack/plaits/dsp/speech/lpc_speech_synth_controller.h **** //
ARM GAS  /var/folders/9s/8rp0_f2s1n31qbztm3b5_fdh0000gn/T//ccmN9iqX.s 			page 4


   3:eurorack/plaits/dsp/speech/lpc_speech_synth_controller.h **** // Author: Emilie Gillet (emilie.o.gillet@gmail.com)
   4:eurorack/plaits/dsp/speech/lpc_speech_synth_controller.h **** //
   5:eurorack/plaits/dsp/speech/lpc_speech_synth_controller.h **** // Permission is hereby granted, free of charge, to any person obtaining a copy
   6:eurorack/plaits/dsp/speech/lpc_speech_synth_controller.h **** // of this software and associated documentation files (the "Software"), to deal
   7:eurorack/plaits/dsp/speech/lpc_speech_synth_controller.h **** // in the Software without restriction, including without limitation the rights
   8:eurorack/plaits/dsp/speech/lpc_speech_synth_controller.h **** // to use, copy, modify, merge, publish, distribute, sublicense, and/or sell
   9:eurorack/plaits/dsp/speech/lpc_speech_synth_controller.h **** // copies of the Software, and to permit persons to whom the Software is
  10:eurorack/plaits/dsp/speech/lpc_speech_synth_controller.h **** // furnished to do so, subject to the following conditions:
  11:eurorack/plaits/dsp/speech/lpc_speech_synth_controller.h **** // 
  12:eurorack/plaits/dsp/speech/lpc_speech_synth_controller.h **** // The above copyright notice and this permission notice shall be included in
  13:eurorack/plaits/dsp/speech/lpc_speech_synth_controller.h **** // all copies or substantial portions of the Software.
  14:eurorack/plaits/dsp/speech/lpc_speech_synth_controller.h **** // 
  15:eurorack/plaits/dsp/speech/lpc_speech_synth_controller.h **** // THE SOFTWARE IS PROVIDED "AS IS", WITHOUT WARRANTY OF ANY KIND, EXPRESS OR
  16:eurorack/plaits/dsp/speech/lpc_speech_synth_controller.h **** // IMPLIED, INCLUDING BUT NOT LIMITED TO THE WARRANTIES OF MERCHANTABILITY,
  17:eurorack/plaits/dsp/speech/lpc_speech_synth_controller.h **** // FITNESS FOR A PARTICULAR PURPOSE AND NONINFRINGEMENT. IN NO EVENT SHALL THE
  18:eurorack/plaits/dsp/speech/lpc_speech_synth_controller.h **** // AUTHORS OR COPYRIGHT HOLDERS BE LIABLE FOR ANY CLAIM, DAMAGES OR OTHER
  19:eurorack/plaits/dsp/speech/lpc_speech_synth_controller.h **** // LIABILITY, WHETHER IN AN ACTION OF CONTRACT, TORT OR OTHERWISE, ARISING FROM,
  20:eurorack/plaits/dsp/speech/lpc_speech_synth_controller.h **** // OUT OF OR IN CONNECTION WITH THE SOFTWARE OR THE USE OR OTHER DEALINGS IN
  21:eurorack/plaits/dsp/speech/lpc_speech_synth_controller.h **** // THE SOFTWARE.
  22:eurorack/plaits/dsp/speech/lpc_speech_synth_controller.h **** // 
  23:eurorack/plaits/dsp/speech/lpc_speech_synth_controller.h **** // See http://creativecommons.org/licenses/MIT/ for more information.
  24:eurorack/plaits/dsp/speech/lpc_speech_synth_controller.h **** //
  25:eurorack/plaits/dsp/speech/lpc_speech_synth_controller.h **** // -----------------------------------------------------------------------------
  26:eurorack/plaits/dsp/speech/lpc_speech_synth_controller.h **** //
  27:eurorack/plaits/dsp/speech/lpc_speech_synth_controller.h **** // Feeds frames to the LPC10 speech synth.
  28:eurorack/plaits/dsp/speech/lpc_speech_synth_controller.h **** 
  29:eurorack/plaits/dsp/speech/lpc_speech_synth_controller.h **** #ifndef PLAITS_DSP_SPEECH_LPC_SPEECH_SYNTH_CONTROLLER_H_
  30:eurorack/plaits/dsp/speech/lpc_speech_synth_controller.h **** #define PLAITS_DSP_SPEECH_LPC_SPEECH_SYNTH_CONTROLLER_H_
  31:eurorack/plaits/dsp/speech/lpc_speech_synth_controller.h **** 
  32:eurorack/plaits/dsp/speech/lpc_speech_synth_controller.h **** #include "plaits/dsp/speech/lpc_speech_synth.h"
  33:eurorack/plaits/dsp/speech/lpc_speech_synth_controller.h **** 
  34:eurorack/plaits/dsp/speech/lpc_speech_synth_controller.h **** #include "stmlib/utils/buffer_allocator.h"
  35:eurorack/plaits/dsp/speech/lpc_speech_synth_controller.h **** 
  36:eurorack/plaits/dsp/speech/lpc_speech_synth_controller.h **** namespace plaits {
  37:eurorack/plaits/dsp/speech/lpc_speech_synth_controller.h **** 
  38:eurorack/plaits/dsp/speech/lpc_speech_synth_controller.h **** class BitStream {
  39:eurorack/plaits/dsp/speech/lpc_speech_synth_controller.h ****  public:
  40:eurorack/plaits/dsp/speech/lpc_speech_synth_controller.h ****   BitStream() { }
  41:eurorack/plaits/dsp/speech/lpc_speech_synth_controller.h ****   ~BitStream() { }
  42:eurorack/plaits/dsp/speech/lpc_speech_synth_controller.h **** 
  43:eurorack/plaits/dsp/speech/lpc_speech_synth_controller.h ****   inline void Init(const uint8_t* p) {
  44:eurorack/plaits/dsp/speech/lpc_speech_synth_controller.h ****     p_ = p;
  45:eurorack/plaits/dsp/speech/lpc_speech_synth_controller.h ****     available_ = 0;
  46:eurorack/plaits/dsp/speech/lpc_speech_synth_controller.h ****     bits_ = 0;
  47:eurorack/plaits/dsp/speech/lpc_speech_synth_controller.h ****   }
  48:eurorack/plaits/dsp/speech/lpc_speech_synth_controller.h **** 
  49:eurorack/plaits/dsp/speech/lpc_speech_synth_controller.h ****   inline void Flush() {
  50:eurorack/plaits/dsp/speech/lpc_speech_synth_controller.h ****     while (available_) {
  51:eurorack/plaits/dsp/speech/lpc_speech_synth_controller.h ****       GetBits(1);
  52:eurorack/plaits/dsp/speech/lpc_speech_synth_controller.h ****     }
  53:eurorack/plaits/dsp/speech/lpc_speech_synth_controller.h ****   }
  54:eurorack/plaits/dsp/speech/lpc_speech_synth_controller.h **** 
  55:eurorack/plaits/dsp/speech/lpc_speech_synth_controller.h ****   inline uint8_t GetBits(int num_bits) {
  88              		.loc 2 55 18 is_stmt 1 view -0
  89              		.cfi_startproc
  90              		@ args = 0, pretend = 0, frame = 0
  91              		@ frame_needed = 0, uses_anonymous_args = 0
ARM GAS  /var/folders/9s/8rp0_f2s1n31qbztm3b5_fdh0000gn/T//ccmN9iqX.s 			page 5


  56:eurorack/plaits/dsp/speech/lpc_speech_synth_controller.h ****     int shift = num_bits;
  92              		.loc 2 56 5 view .LVU15
  57:eurorack/plaits/dsp/speech/lpc_speech_synth_controller.h ****     if (num_bits > available_) {
  93              		.loc 2 57 5 view .LVU16
  55:eurorack/plaits/dsp/speech/lpc_speech_synth_controller.h ****     int shift = num_bits;
  94              		.loc 2 55 18 is_stmt 0 view .LVU17
  95 0000 F0B5     		push	{r4, r5, r6, r7, lr}
  96              		.cfi_def_cfa_offset 20
  97              		.cfi_offset 4, -20
  98              		.cfi_offset 5, -16
  99              		.cfi_offset 6, -12
 100              		.cfi_offset 7, -8
 101              		.cfi_offset 14, -4
 102              		.loc 2 57 20 view .LVU18
 103 0002 4668     		ldr	r6, [r0, #4]
 104              		.loc 2 57 5 view .LVU19
 105 0004 8E42     		cmp	r6, r1
 106 0006 28DA     		bge	.L8
  58:eurorack/plaits/dsp/speech/lpc_speech_synth_controller.h ****       bits_ <<= available_;
 107              		.loc 2 58 7 is_stmt 1 view .LVU20
 108              		.loc 2 58 13 is_stmt 0 view .LVU21
 109 0008 0489     		ldrh	r4, [r0, #8]
  59:eurorack/plaits/dsp/speech/lpc_speech_synth_controller.h ****       shift -= available_;
 110              		.loc 2 59 13 view .LVU22
 111 000a 8D1B     		subs	r5, r1, r6
  60:eurorack/plaits/dsp/speech/lpc_speech_synth_controller.h ****       bits_ |= Reverse(*p_++);
 112              		.loc 2 60 25 view .LVU23
 113 000c 0368     		ldr	r3, [r0]
  58:eurorack/plaits/dsp/speech/lpc_speech_synth_controller.h ****       bits_ <<= available_;
 114              		.loc 2 58 13 view .LVU24
 115 000e B440     		lsls	r4, r4, r6
  61:eurorack/plaits/dsp/speech/lpc_speech_synth_controller.h ****       available_ += 8;
 116              		.loc 2 61 18 view .LVU25
 117 0010 0836     		adds	r6, r6, #8
  60:eurorack/plaits/dsp/speech/lpc_speech_synth_controller.h ****       bits_ |= Reverse(*p_++);
 118              		.loc 2 60 27 view .LVU26
 119 0012 5A1C     		adds	r2, r3, #1
  58:eurorack/plaits/dsp/speech/lpc_speech_synth_controller.h ****       shift -= available_;
 120              		.loc 2 58 13 view .LVU27
 121 0014 A4B2     		uxth	r4, r4
  60:eurorack/plaits/dsp/speech/lpc_speech_synth_controller.h ****       bits_ |= Reverse(*p_++);
 122              		.loc 2 60 27 view .LVU28
 123 0016 0260     		str	r2, [r0]
  58:eurorack/plaits/dsp/speech/lpc_speech_synth_controller.h ****       shift -= available_;
 124              		.loc 2 58 13 view .LVU29
 125 0018 0481     		strh	r4, [r0, #8]	@ movhi
  59:eurorack/plaits/dsp/speech/lpc_speech_synth_controller.h ****       bits_ |= Reverse(*p_++);
 126              		.loc 2 59 7 is_stmt 1 view .LVU30
 127              	.LVL9:
  60:eurorack/plaits/dsp/speech/lpc_speech_synth_controller.h ****       available_ += 8;
 128              		.loc 2 60 7 view .LVU31
  60:eurorack/plaits/dsp/speech/lpc_speech_synth_controller.h ****       available_ += 8;
 129              		.loc 2 60 23 is_stmt 0 view .LVU32
 130 001a 1B78     		ldrb	r3, [r3]	@ zero_extendqisi2
 131              	.LVL10:
 132              	.LBB102:
 133              	.LBI102:
ARM GAS  /var/folders/9s/8rp0_f2s1n31qbztm3b5_fdh0000gn/T//ccmN9iqX.s 			page 6


  62:eurorack/plaits/dsp/speech/lpc_speech_synth_controller.h ****     }
  63:eurorack/plaits/dsp/speech/lpc_speech_synth_controller.h ****     bits_ <<= shift;
  64:eurorack/plaits/dsp/speech/lpc_speech_synth_controller.h ****     uint8_t result = bits_ >> 8;
  65:eurorack/plaits/dsp/speech/lpc_speech_synth_controller.h ****     bits_ &= 0xff;
  66:eurorack/plaits/dsp/speech/lpc_speech_synth_controller.h ****     available_ -= num_bits;
  67:eurorack/plaits/dsp/speech/lpc_speech_synth_controller.h ****     return result;
  68:eurorack/plaits/dsp/speech/lpc_speech_synth_controller.h ****   }
  69:eurorack/plaits/dsp/speech/lpc_speech_synth_controller.h **** 
  70:eurorack/plaits/dsp/speech/lpc_speech_synth_controller.h ****   inline const uint8_t* ptr() const { return p_; }
  71:eurorack/plaits/dsp/speech/lpc_speech_synth_controller.h **** 
  72:eurorack/plaits/dsp/speech/lpc_speech_synth_controller.h ****  private:
  73:eurorack/plaits/dsp/speech/lpc_speech_synth_controller.h ****   inline uint8_t Reverse(uint8_t b) const {
 134              		.loc 2 73 18 is_stmt 1 view .LVU33
 135              	.LBB103:
  74:eurorack/plaits/dsp/speech/lpc_speech_synth_controller.h ****     b = (b >> 4) | (b << 4);
 136              		.loc 2 74 5 view .LVU34
 137              	.LBE103:
 138              	.LBE102:
  61:eurorack/plaits/dsp/speech/lpc_speech_synth_controller.h ****     }
 139              		.loc 2 61 18 is_stmt 0 view .LVU35
 140 001c 4660     		str	r6, [r0, #4]
 141              	.LBB105:
 142              	.LBB104:
 143              		.loc 2 74 23 view .LVU36
 144 001e 1A01     		lsls	r2, r3, #4
 145              		.loc 2 74 18 view .LVU37
 146 0020 42EA1312 		orr	r2, r2, r3, lsr #4
 147              	.LVL11:
  75:eurorack/plaits/dsp/speech/lpc_speech_synth_controller.h ****   	b = ((b & 0xcc) >> 2) | ((b & 0x33) << 2);
 148              		.loc 2 75 4 is_stmt 1 view .LVU38
 149              		.loc 2 75 20 is_stmt 0 view .LVU39
 150 0024 C2F38503 		ubfx	r3, r2, #2, #6
 151 0028 03F03307 		and	r7, r3, #51
 152              		.loc 2 75 40 view .LVU40
 153 002c 9300     		lsls	r3, r2, #2
 154              		.loc 2 75 26 view .LVU41
 155 002e 03F0CC03 		and	r3, r3, #204
 156              		.loc 2 75 6 view .LVU42
 157 0032 3B43     		orrs	r3, r3, r7
 158              	.LVL12:
  76:eurorack/plaits/dsp/speech/lpc_speech_synth_controller.h ****   	b = ((b & 0xaa) >> 1) | ((b & 0x55) << 1);
 159              		.loc 2 76 4 is_stmt 1 view .LVU43
 160              		.loc 2 76 20 is_stmt 0 view .LVU44
 161 0034 5A08     		lsrs	r2, r3, #1
 162              		.loc 2 76 40 view .LVU45
 163 0036 5B00     		lsls	r3, r3, #1
 164              	.LVL13:
 165              		.loc 2 76 20 view .LVU46
 166 0038 02F05502 		and	r2, r2, #85
 167              		.loc 2 76 26 view .LVU47
 168 003c 03F0AA03 		and	r3, r3, #170
  77:eurorack/plaits/dsp/speech/lpc_speech_synth_controller.h ****     return b;
 169              		.loc 2 77 5 is_stmt 1 view .LVU48
 170              	.LVL14:
 171              		.loc 2 77 5 is_stmt 0 view .LVU49
 172              	.LBE104:
 173              	.LBE105:
ARM GAS  /var/folders/9s/8rp0_f2s1n31qbztm3b5_fdh0000gn/T//ccmN9iqX.s 			page 7


  60:eurorack/plaits/dsp/speech/lpc_speech_synth_controller.h ****       available_ += 8;
 174              		.loc 2 60 13 view .LVU50
 175 0040 1343     		orrs	r3, r3, r2
 176 0042 1C43     		orrs	r4, r4, r3
 177 0044 0481     		strh	r4, [r0, #8]	@ movhi
  61:eurorack/plaits/dsp/speech/lpc_speech_synth_controller.h ****     }
 178              		.loc 2 61 7 is_stmt 1 view .LVU51
 179              	.L7:
  63:eurorack/plaits/dsp/speech/lpc_speech_synth_controller.h ****     uint8_t result = bits_ >> 8;
 180              		.loc 2 63 5 view .LVU52
  64:eurorack/plaits/dsp/speech/lpc_speech_synth_controller.h ****     bits_ &= 0xff;
 181              		.loc 2 64 5 view .LVU53
  63:eurorack/plaits/dsp/speech/lpc_speech_synth_controller.h ****     uint8_t result = bits_ >> 8;
 182              		.loc 2 63 11 is_stmt 0 view .LVU54
 183 0046 0389     		ldrh	r3, [r0, #8]
 184 0048 AB40     		lsls	r3, r3, r5
 185              	.LVL15:
  65:eurorack/plaits/dsp/speech/lpc_speech_synth_controller.h ****     available_ -= num_bits;
 186              		.loc 2 65 5 is_stmt 1 view .LVU55
  65:eurorack/plaits/dsp/speech/lpc_speech_synth_controller.h ****     available_ -= num_bits;
 187              		.loc 2 65 11 is_stmt 0 view .LVU56
 188 004a DAB2     		uxtb	r2, r3
 189 004c 0281     		strh	r2, [r0, #8]	@ movhi
  66:eurorack/plaits/dsp/speech/lpc_speech_synth_controller.h ****     return result;
 190              		.loc 2 66 5 is_stmt 1 view .LVU57
  66:eurorack/plaits/dsp/speech/lpc_speech_synth_controller.h ****     return result;
 191              		.loc 2 66 16 is_stmt 0 view .LVU58
 192 004e 4268     		ldr	r2, [r0, #4]
 193 0050 511A     		subs	r1, r2, r1
 194              	.LVL16:
  66:eurorack/plaits/dsp/speech/lpc_speech_synth_controller.h ****     return result;
 195              		.loc 2 66 16 view .LVU59
 196 0052 4160     		str	r1, [r0, #4]
  67:eurorack/plaits/dsp/speech/lpc_speech_synth_controller.h ****   }
 197              		.loc 2 67 5 is_stmt 1 view .LVU60
  68:eurorack/plaits/dsp/speech/lpc_speech_synth_controller.h **** 
 198              		.loc 2 68 3 is_stmt 0 view .LVU61
 199 0054 C3F30720 		ubfx	r0, r3, #8, #8
 200              	.LVL17:
  68:eurorack/plaits/dsp/speech/lpc_speech_synth_controller.h **** 
 201              		.loc 2 68 3 view .LVU62
 202 0058 F0BD     		pop	{r4, r5, r6, r7, pc}
 203              	.LVL18:
 204              	.L8:
  68:eurorack/plaits/dsp/speech/lpc_speech_synth_controller.h **** 
 205              		.loc 2 68 3 view .LVU63
 206 005a 0D46     		mov	r5, r1
 207 005c F3E7     		b	.L7
 208              		.cfi_endproc
 209              	.LFE586:
 211              		.section	.text._ZN6stmlib16SemitonesToRatioEf,"axG",%progbits,_ZN6stmlib16SemitonesToRatioEf,comda
 212              		.align	1
 213              		.weak	_ZN6stmlib16SemitonesToRatioEf
 214              		.syntax unified
 215              		.thumb
 216              		.thumb_func
 218              	_ZN6stmlib16SemitonesToRatioEf:
ARM GAS  /var/folders/9s/8rp0_f2s1n31qbztm3b5_fdh0000gn/T//ccmN9iqX.s 			page 8


 219              	.LVL19:
 220              	.LFB1443:
 221              		.file 3 "eurorack/stmlib/dsp/units.h"
   1:eurorack/stmlib/dsp/units.h **** // Copyright 2014 Emilie Gillet.
   2:eurorack/stmlib/dsp/units.h **** //
   3:eurorack/stmlib/dsp/units.h **** // Author: Emilie Gillet (emilie.o.gillet@gmail.com)
   4:eurorack/stmlib/dsp/units.h **** //
   5:eurorack/stmlib/dsp/units.h **** // Permission is hereby granted, free of charge, to any person obtaining a copy
   6:eurorack/stmlib/dsp/units.h **** // of this software and associated documentation files (the "Software"), to deal
   7:eurorack/stmlib/dsp/units.h **** // in the Software without restriction, including without limitation the rights
   8:eurorack/stmlib/dsp/units.h **** // to use, copy, modify, merge, publish, distribute, sublicense, and/or sell
   9:eurorack/stmlib/dsp/units.h **** // copies of the Software, and to permit persons to whom the Software is
  10:eurorack/stmlib/dsp/units.h **** // furnished to do so, subject to the following conditions:
  11:eurorack/stmlib/dsp/units.h **** // 
  12:eurorack/stmlib/dsp/units.h **** // The above copyright notice and this permission notice shall be included in
  13:eurorack/stmlib/dsp/units.h **** // all copies or substantial portions of the Software.
  14:eurorack/stmlib/dsp/units.h **** // 
  15:eurorack/stmlib/dsp/units.h **** // THE SOFTWARE IS PROVIDED "AS IS", WITHOUT WARRANTY OF ANY KIND, EXPRESS OR
  16:eurorack/stmlib/dsp/units.h **** // IMPLIED, INCLUDING BUT NOT LIMITED TO THE WARRANTIES OF MERCHANTABILITY,
  17:eurorack/stmlib/dsp/units.h **** // FITNESS FOR A PARTICULAR PURPOSE AND NONINFRINGEMENT. IN NO EVENT SHALL THE
  18:eurorack/stmlib/dsp/units.h **** // AUTHORS OR COPYRIGHT HOLDERS BE LIABLE FOR ANY CLAIM, DAMAGES OR OTHER
  19:eurorack/stmlib/dsp/units.h **** // LIABILITY, WHETHER IN AN ACTION OF CONTRACT, TORT OR OTHERWISE, ARISING FROM,
  20:eurorack/stmlib/dsp/units.h **** // OUT OF OR IN CONNECTION WITH THE SOFTWARE OR THE USE OR OTHER DEALINGS IN
  21:eurorack/stmlib/dsp/units.h **** // THE SOFTWARE.
  22:eurorack/stmlib/dsp/units.h **** // 
  23:eurorack/stmlib/dsp/units.h **** // See http://creativecommons.org/licenses/MIT/ for more information.
  24:eurorack/stmlib/dsp/units.h **** //
  25:eurorack/stmlib/dsp/units.h **** // -----------------------------------------------------------------------------
  26:eurorack/stmlib/dsp/units.h **** //
  27:eurorack/stmlib/dsp/units.h **** // Conversion from semitones to frequency ratio.
  28:eurorack/stmlib/dsp/units.h **** 
  29:eurorack/stmlib/dsp/units.h **** #ifndef STMLIB_DSP_UNITS_H_
  30:eurorack/stmlib/dsp/units.h **** #define STMLIB_DSP_UNITS_H_
  31:eurorack/stmlib/dsp/units.h **** 
  32:eurorack/stmlib/dsp/units.h **** #include "stmlib/stmlib.h"
  33:eurorack/stmlib/dsp/units.h **** #include "stmlib/dsp/dsp.h"
  34:eurorack/stmlib/dsp/units.h **** 
  35:eurorack/stmlib/dsp/units.h **** namespace stmlib {
  36:eurorack/stmlib/dsp/units.h **** 
  37:eurorack/stmlib/dsp/units.h **** extern const float lut_pitch_ratio_high[257];
  38:eurorack/stmlib/dsp/units.h **** extern const float lut_pitch_ratio_low[257];
  39:eurorack/stmlib/dsp/units.h **** 
  40:eurorack/stmlib/dsp/units.h **** inline float SemitonesToRatio(float semitones) {
 222              		.loc 3 40 48 is_stmt 1 view -0
 223              		.cfi_startproc
 224              		@ args = 0, pretend = 0, frame = 0
 225              		@ frame_needed = 0, uses_anonymous_args = 0
 226              		@ link register save eliminated.
  41:eurorack/stmlib/dsp/units.h ****   float pitch = semitones + 128.0f;
 227              		.loc 3 41 3 view .LVU65
 228              		.loc 3 41 9 is_stmt 0 view .LVU66
 229 0000 DFED0E7A 		vldr.32	s15, .L10
  42:eurorack/stmlib/dsp/units.h ****   MAKE_INTEGRAL_FRACTIONAL(pitch)
  43:eurorack/stmlib/dsp/units.h **** 
  44:eurorack/stmlib/dsp/units.h ****   return lut_pitch_ratio_high[pitch_integral] * \
  45:eurorack/stmlib/dsp/units.h ****       lut_pitch_ratio_low[static_cast<int32_t>(pitch_fractional * 256.0f)];
 230              		.loc 3 45 74 view .LVU67
ARM GAS  /var/folders/9s/8rp0_f2s1n31qbztm3b5_fdh0000gn/T//ccmN9iqX.s 			page 9


 231 0004 0E4A     		ldr	r2, .L10+4
  41:eurorack/stmlib/dsp/units.h ****   float pitch = semitones + 128.0f;
 232              		.loc 3 41 9 view .LVU68
 233 0006 30EE270A 		vadd.f32	s0, s0, s15
 234              	.LVL20:
  42:eurorack/stmlib/dsp/units.h ****   MAKE_INTEGRAL_FRACTIONAL(pitch)
 235              		.loc 3 42 3 is_stmt 1 view .LVU69
 236 000a FDEEC07A 		vcvt.s32.f32	s15, s0
 237              	.LVL21:
  42:eurorack/stmlib/dsp/units.h ****   MAKE_INTEGRAL_FRACTIONAL(pitch)
 238              		.loc 3 42 3 view .LVU70
  44:eurorack/stmlib/dsp/units.h ****       lut_pitch_ratio_low[static_cast<int32_t>(pitch_fractional * 256.0f)];
 239              		.loc 3 44 3 view .LVU71
  42:eurorack/stmlib/dsp/units.h ****   MAKE_INTEGRAL_FRACTIONAL(pitch)
 240              		.loc 3 42 3 is_stmt 0 view .LVU72
 241 000e B8EEE77A 		vcvt.f32.s32	s14, s15
  44:eurorack/stmlib/dsp/units.h ****       lut_pitch_ratio_low[static_cast<int32_t>(pitch_fractional * 256.0f)];
 242              		.loc 3 44 45 view .LVU73
 243 0012 17EE901A 		vmov	r1, s15	@ int
  42:eurorack/stmlib/dsp/units.h ****   MAKE_INTEGRAL_FRACTIONAL(pitch)
 244              		.loc 3 42 3 view .LVU74
 245 0016 30EE470A 		vsub.f32	s0, s0, s14
 246              	.LVL22:
 247              		.loc 3 45 27 view .LVU75
 248 001a BEEECC0A 		vcvt.s32.f32	s0, s0, #8
 249              	.LVL23:
 250              		.loc 3 45 74 view .LVU76
 251 001e 10EE103A 		vmov	r3, s0	@ int
 252 0022 02EB8302 		add	r2, r2, r3, lsl #2
  44:eurorack/stmlib/dsp/units.h ****       lut_pitch_ratio_low[static_cast<int32_t>(pitch_fractional * 256.0f)];
 253              		.loc 3 44 45 view .LVU77
 254 0026 074B     		ldr	r3, .L10+8
 255 0028 03EB8103 		add	r3, r3, r1, lsl #2
 256              		.loc 3 45 74 view .LVU78
 257 002c 92ED000A 		vldr.32	s0, [r2]
 258 0030 D3ED007A 		vldr.32	s15, [r3]
 259              	.LVL24:
  46:eurorack/stmlib/dsp/units.h **** }
 260              		.loc 3 46 1 view .LVU79
 261 0034 20EE270A 		vmul.f32	s0, s0, s15
 262 0038 7047     		bx	lr
 263              	.L11:
 264 003a 00BF     		.align	2
 265              	.L10:
 266 003c 00000043 		.word	1124073472
 267 0040 00000000 		.word	_ZN6stmlib19lut_pitch_ratio_lowE
 268 0044 00000000 		.word	_ZN6stmlib20lut_pitch_ratio_highE
 269              		.cfi_endproc
 270              	.LFE1443:
 272              		.section	.text._ZN6plaits22LPCSpeechSynthWordBank5ResetEv,"ax",%progbits
 273              		.align	1
 274              		.global	_ZN6plaits22LPCSpeechSynthWordBank5ResetEv
 275              		.syntax unified
 276              		.thumb
 277              		.thumb_func
 279              	_ZN6plaits22LPCSpeechSynthWordBank5ResetEv:
 280              	.LVL25:
ARM GAS  /var/folders/9s/8rp0_f2s1n31qbztm3b5_fdh0000gn/T//ccmN9iqX.s 			page 10


 281              	.LFB1481:
 282              		.file 4 "eurorack/plaits/dsp/speech/lpc_speech_synth_controller.cc"
   1:eurorack/plaits/dsp/speech/lpc_speech_synth_controller.cc **** // Copyright 2016 Emilie Gillet.
   2:eurorack/plaits/dsp/speech/lpc_speech_synth_controller.cc **** //
   3:eurorack/plaits/dsp/speech/lpc_speech_synth_controller.cc **** // Author: Emilie Gillet (emilie.o.gillet@gmail.com)
   4:eurorack/plaits/dsp/speech/lpc_speech_synth_controller.cc **** //
   5:eurorack/plaits/dsp/speech/lpc_speech_synth_controller.cc **** // Permission is hereby granted, free of charge, to any person obtaining a copy
   6:eurorack/plaits/dsp/speech/lpc_speech_synth_controller.cc **** // of this software and associated documentation files (the "Software"), to deal
   7:eurorack/plaits/dsp/speech/lpc_speech_synth_controller.cc **** // in the Software without restriction, including without limitation the rights
   8:eurorack/plaits/dsp/speech/lpc_speech_synth_controller.cc **** // to use, copy, modify, merge, publish, distribute, sublicense, and/or sell
   9:eurorack/plaits/dsp/speech/lpc_speech_synth_controller.cc **** // copies of the Software, and to permit persons to whom the Software is
  10:eurorack/plaits/dsp/speech/lpc_speech_synth_controller.cc **** // furnished to do so, subject to the following conditions:
  11:eurorack/plaits/dsp/speech/lpc_speech_synth_controller.cc **** // 
  12:eurorack/plaits/dsp/speech/lpc_speech_synth_controller.cc **** // The above copyright notice and this permission notice shall be included in
  13:eurorack/plaits/dsp/speech/lpc_speech_synth_controller.cc **** // all copies or substantial portions of the Software.
  14:eurorack/plaits/dsp/speech/lpc_speech_synth_controller.cc **** // 
  15:eurorack/plaits/dsp/speech/lpc_speech_synth_controller.cc **** // THE SOFTWARE IS PROVIDED "AS IS", WITHOUT WARRANTY OF ANY KIND, EXPRESS OR
  16:eurorack/plaits/dsp/speech/lpc_speech_synth_controller.cc **** // IMPLIED, INCLUDING BUT NOT LIMITED TO THE WARRANTIES OF MERCHANTABILITY,
  17:eurorack/plaits/dsp/speech/lpc_speech_synth_controller.cc **** // FITNESS FOR A PARTICULAR PURPOSE AND NONINFRINGEMENT. IN NO EVENT SHALL THE
  18:eurorack/plaits/dsp/speech/lpc_speech_synth_controller.cc **** // AUTHORS OR COPYRIGHT HOLDERS BE LIABLE FOR ANY CLAIM, DAMAGES OR OTHER
  19:eurorack/plaits/dsp/speech/lpc_speech_synth_controller.cc **** // LIABILITY, WHETHER IN AN ACTION OF CONTRACT, TORT OR OTHERWISE, ARISING FROM,
  20:eurorack/plaits/dsp/speech/lpc_speech_synth_controller.cc **** // OUT OF OR IN CONNECTION WITH THE SOFTWARE OR THE USE OR OTHER DEALINGS IN
  21:eurorack/plaits/dsp/speech/lpc_speech_synth_controller.cc **** // THE SOFTWARE.
  22:eurorack/plaits/dsp/speech/lpc_speech_synth_controller.cc **** // 
  23:eurorack/plaits/dsp/speech/lpc_speech_synth_controller.cc **** // See http://creativecommons.org/licenses/MIT/ for more information.
  24:eurorack/plaits/dsp/speech/lpc_speech_synth_controller.cc **** //
  25:eurorack/plaits/dsp/speech/lpc_speech_synth_controller.cc **** // -----------------------------------------------------------------------------
  26:eurorack/plaits/dsp/speech/lpc_speech_synth_controller.cc **** //
  27:eurorack/plaits/dsp/speech/lpc_speech_synth_controller.cc **** // Feeds frames to the LPC10 speech synth.
  28:eurorack/plaits/dsp/speech/lpc_speech_synth_controller.cc **** 
  29:eurorack/plaits/dsp/speech/lpc_speech_synth_controller.cc **** #include "plaits/dsp/speech/lpc_speech_synth_controller.h"
  30:eurorack/plaits/dsp/speech/lpc_speech_synth_controller.cc **** 
  31:eurorack/plaits/dsp/speech/lpc_speech_synth_controller.cc **** #include <algorithm>
  32:eurorack/plaits/dsp/speech/lpc_speech_synth_controller.cc **** 
  33:eurorack/plaits/dsp/speech/lpc_speech_synth_controller.cc **** #include "stmlib/dsp/units.h"
  34:eurorack/plaits/dsp/speech/lpc_speech_synth_controller.cc **** #include "stmlib/utils/random.h"
  35:eurorack/plaits/dsp/speech/lpc_speech_synth_controller.cc **** 
  36:eurorack/plaits/dsp/speech/lpc_speech_synth_controller.cc **** #include "plaits/dsp/oscillator/oscillator.h"
  37:eurorack/plaits/dsp/speech/lpc_speech_synth_controller.cc **** 
  38:eurorack/plaits/dsp/speech/lpc_speech_synth_controller.cc **** namespace plaits {
  39:eurorack/plaits/dsp/speech/lpc_speech_synth_controller.cc **** 
  40:eurorack/plaits/dsp/speech/lpc_speech_synth_controller.cc **** using namespace std;
  41:eurorack/plaits/dsp/speech/lpc_speech_synth_controller.cc **** using namespace stmlib;
  42:eurorack/plaits/dsp/speech/lpc_speech_synth_controller.cc **** 
  43:eurorack/plaits/dsp/speech/lpc_speech_synth_controller.cc **** /* static */
  44:eurorack/plaits/dsp/speech/lpc_speech_synth_controller.cc **** uint8_t LPCSpeechSynthWordBank::energy_lut_[16] = {
  45:eurorack/plaits/dsp/speech/lpc_speech_synth_controller.cc ****   0x00, 0x02, 0x03, 0x04, 0x05, 0x07, 0x0a, 0x0f,
  46:eurorack/plaits/dsp/speech/lpc_speech_synth_controller.cc ****   0x14, 0x20, 0x29, 0x39, 0x51, 0x72, 0xa1, 0xff
  47:eurorack/plaits/dsp/speech/lpc_speech_synth_controller.cc **** };
  48:eurorack/plaits/dsp/speech/lpc_speech_synth_controller.cc **** 
  49:eurorack/plaits/dsp/speech/lpc_speech_synth_controller.cc **** /* static */
  50:eurorack/plaits/dsp/speech/lpc_speech_synth_controller.cc **** uint8_t LPCSpeechSynthWordBank::period_lut_[64] = {
  51:eurorack/plaits/dsp/speech/lpc_speech_synth_controller.cc ****   0, 16, 17, 18, 19, 20, 21, 22, 23, 24, 25, 26, 27, 28, 29, 30, 31,
  52:eurorack/plaits/dsp/speech/lpc_speech_synth_controller.cc ****  32, 33, 34, 35, 36, 37, 38, 39, 40, 41, 42, 43, 45, 47, 49, 51, 53,
  53:eurorack/plaits/dsp/speech/lpc_speech_synth_controller.cc ****  54, 57, 59, 61, 63, 66, 69, 71, 73, 77, 79, 81, 85, 87, 92, 95, 99,
  54:eurorack/plaits/dsp/speech/lpc_speech_synth_controller.cc ****  102, 106, 110, 115, 119, 123, 128, 133, 138, 143, 149, 154, 160
  55:eurorack/plaits/dsp/speech/lpc_speech_synth_controller.cc **** };
ARM GAS  /var/folders/9s/8rp0_f2s1n31qbztm3b5_fdh0000gn/T//ccmN9iqX.s 			page 11


  56:eurorack/plaits/dsp/speech/lpc_speech_synth_controller.cc **** 
  57:eurorack/plaits/dsp/speech/lpc_speech_synth_controller.cc **** /* static */
  58:eurorack/plaits/dsp/speech/lpc_speech_synth_controller.cc **** int16_t LPCSpeechSynthWordBank::k0_lut_[32] = {
  59:eurorack/plaits/dsp/speech/lpc_speech_synth_controller.cc ****   -32064, -31872, -31808, -31680, -31552, -31424, -31232, -30848,
  60:eurorack/plaits/dsp/speech/lpc_speech_synth_controller.cc ****   -30592, -30336, -30016, -29696, -29376, -28928, -28480, -27968,
  61:eurorack/plaits/dsp/speech/lpc_speech_synth_controller.cc ****   -26368, -24256, -21632, -18368, -14528, -10048,  -5184,      0,
  62:eurorack/plaits/dsp/speech/lpc_speech_synth_controller.cc ****     5184,  10048,  14528,  18368,  21632,  24256,  26368,  27968
  63:eurorack/plaits/dsp/speech/lpc_speech_synth_controller.cc **** };
  64:eurorack/plaits/dsp/speech/lpc_speech_synth_controller.cc **** 
  65:eurorack/plaits/dsp/speech/lpc_speech_synth_controller.cc **** /* static */
  66:eurorack/plaits/dsp/speech/lpc_speech_synth_controller.cc **** int16_t LPCSpeechSynthWordBank::k1_lut_[32] = {
  67:eurorack/plaits/dsp/speech/lpc_speech_synth_controller.cc ****   -20992, -19328, -17536, -15552, -13440, -11200,  -8768,  -6272,
  68:eurorack/plaits/dsp/speech/lpc_speech_synth_controller.cc ****   -3712,   -1088,   1536,   4160,   6720,   9216,  11584,  13824,
  69:eurorack/plaits/dsp/speech/lpc_speech_synth_controller.cc ****   15936,   17856,  19648,  21248,  22656,  24000,  25152,  26176,
  70:eurorack/plaits/dsp/speech/lpc_speech_synth_controller.cc ****   27072,   27840,  28544,  29120,  29632,  30080,  30464,  32384
  71:eurorack/plaits/dsp/speech/lpc_speech_synth_controller.cc **** };
  72:eurorack/plaits/dsp/speech/lpc_speech_synth_controller.cc **** 
  73:eurorack/plaits/dsp/speech/lpc_speech_synth_controller.cc **** /* static */
  74:eurorack/plaits/dsp/speech/lpc_speech_synth_controller.cc **** int8_t LPCSpeechSynthWordBank::k2_lut_[16] = {
  75:eurorack/plaits/dsp/speech/lpc_speech_synth_controller.cc **** -110, -97, -83, -70, -56, -43, -29, -16, -2, 11, 25, 38, 52, 65, 79, 92
  76:eurorack/plaits/dsp/speech/lpc_speech_synth_controller.cc **** };
  77:eurorack/plaits/dsp/speech/lpc_speech_synth_controller.cc **** 
  78:eurorack/plaits/dsp/speech/lpc_speech_synth_controller.cc **** /* static */
  79:eurorack/plaits/dsp/speech/lpc_speech_synth_controller.cc **** int8_t LPCSpeechSynthWordBank::k3_lut_[16] = {
  80:eurorack/plaits/dsp/speech/lpc_speech_synth_controller.cc **** -82, -68, -54, -40, -26, -12, 1, 15, 29, 43, 57, 71, 85, 99, 113, 126
  81:eurorack/plaits/dsp/speech/lpc_speech_synth_controller.cc **** };
  82:eurorack/plaits/dsp/speech/lpc_speech_synth_controller.cc **** 
  83:eurorack/plaits/dsp/speech/lpc_speech_synth_controller.cc **** /* static */
  84:eurorack/plaits/dsp/speech/lpc_speech_synth_controller.cc **** int8_t LPCSpeechSynthWordBank::k4_lut_[16] = {
  85:eurorack/plaits/dsp/speech/lpc_speech_synth_controller.cc ****  -82, -70, -59, -47, -35, -24, -12, -1, 11, 23, 34, 46, 57, 69, 81, 92
  86:eurorack/plaits/dsp/speech/lpc_speech_synth_controller.cc **** };
  87:eurorack/plaits/dsp/speech/lpc_speech_synth_controller.cc **** 
  88:eurorack/plaits/dsp/speech/lpc_speech_synth_controller.cc **** /* static */
  89:eurorack/plaits/dsp/speech/lpc_speech_synth_controller.cc **** int8_t LPCSpeechSynthWordBank::k5_lut_[16] = {
  90:eurorack/plaits/dsp/speech/lpc_speech_synth_controller.cc ****   -64, -53, -42, -31, -20, -9, 3, 14, 25, 36, 47, 58, 69, 80, 91, 102
  91:eurorack/plaits/dsp/speech/lpc_speech_synth_controller.cc **** };
  92:eurorack/plaits/dsp/speech/lpc_speech_synth_controller.cc **** 
  93:eurorack/plaits/dsp/speech/lpc_speech_synth_controller.cc **** /* static */
  94:eurorack/plaits/dsp/speech/lpc_speech_synth_controller.cc **** int8_t LPCSpeechSynthWordBank::k6_lut_[16] = {
  95:eurorack/plaits/dsp/speech/lpc_speech_synth_controller.cc ****   -77, -65, -53, -41, -29, -17, -5, 7, 19, 31, 43, 55, 67, 79, 90, 102
  96:eurorack/plaits/dsp/speech/lpc_speech_synth_controller.cc **** };
  97:eurorack/plaits/dsp/speech/lpc_speech_synth_controller.cc **** 
  98:eurorack/plaits/dsp/speech/lpc_speech_synth_controller.cc **** /* static */
  99:eurorack/plaits/dsp/speech/lpc_speech_synth_controller.cc **** int8_t LPCSpeechSynthWordBank::k7_lut_[8] = {
 100:eurorack/plaits/dsp/speech/lpc_speech_synth_controller.cc **** -64, -40, -16, 7, 31, 55, 79, 102
 101:eurorack/plaits/dsp/speech/lpc_speech_synth_controller.cc **** };
 102:eurorack/plaits/dsp/speech/lpc_speech_synth_controller.cc **** 
 103:eurorack/plaits/dsp/speech/lpc_speech_synth_controller.cc **** /* static */
 104:eurorack/plaits/dsp/speech/lpc_speech_synth_controller.cc **** int8_t LPCSpeechSynthWordBank::k8_lut_[8] = {
 105:eurorack/plaits/dsp/speech/lpc_speech_synth_controller.cc ****   -64, -44, -24, -4, 16, 37, 57, 77
 106:eurorack/plaits/dsp/speech/lpc_speech_synth_controller.cc **** };
 107:eurorack/plaits/dsp/speech/lpc_speech_synth_controller.cc **** 
 108:eurorack/plaits/dsp/speech/lpc_speech_synth_controller.cc **** /* static */
 109:eurorack/plaits/dsp/speech/lpc_speech_synth_controller.cc **** int8_t LPCSpeechSynthWordBank::k9_lut_[8] = {
 110:eurorack/plaits/dsp/speech/lpc_speech_synth_controller.cc ****   -51, -33, -15, 4, 22, 32, 59, 77
 111:eurorack/plaits/dsp/speech/lpc_speech_synth_controller.cc **** };
 112:eurorack/plaits/dsp/speech/lpc_speech_synth_controller.cc **** 
ARM GAS  /var/folders/9s/8rp0_f2s1n31qbztm3b5_fdh0000gn/T//ccmN9iqX.s 			page 12


 113:eurorack/plaits/dsp/speech/lpc_speech_synth_controller.cc **** void LPCSpeechSynthWordBank::Init(
 114:eurorack/plaits/dsp/speech/lpc_speech_synth_controller.cc ****     const LPCSpeechSynthWordBankData* word_banks,
 115:eurorack/plaits/dsp/speech/lpc_speech_synth_controller.cc ****     int num_banks,
 116:eurorack/plaits/dsp/speech/lpc_speech_synth_controller.cc ****     BufferAllocator* allocator) {
 117:eurorack/plaits/dsp/speech/lpc_speech_synth_controller.cc ****   word_banks_ = word_banks;
 118:eurorack/plaits/dsp/speech/lpc_speech_synth_controller.cc ****   num_banks_ = num_banks;
 119:eurorack/plaits/dsp/speech/lpc_speech_synth_controller.cc ****   frames_ = allocator->Allocate<LPCSpeechSynth::Frame>(
 120:eurorack/plaits/dsp/speech/lpc_speech_synth_controller.cc ****       kLPCSpeechSynthMaxFrames);
 121:eurorack/plaits/dsp/speech/lpc_speech_synth_controller.cc ****   Reset();
 122:eurorack/plaits/dsp/speech/lpc_speech_synth_controller.cc **** }
 123:eurorack/plaits/dsp/speech/lpc_speech_synth_controller.cc **** 
 124:eurorack/plaits/dsp/speech/lpc_speech_synth_controller.cc **** void LPCSpeechSynthWordBank::Reset() {
 283              		.loc 4 124 38 is_stmt 1 view -0
 284              		.cfi_startproc
 285              		@ args = 0, pretend = 0, frame = 0
 286              		@ frame_needed = 0, uses_anonymous_args = 0
 287              		@ link register save eliminated.
 125:eurorack/plaits/dsp/speech/lpc_speech_synth_controller.cc ****   loaded_bank_ = -1;
 288              		.loc 4 125 3 view .LVU81
 126:eurorack/plaits/dsp/speech/lpc_speech_synth_controller.cc ****   num_frames_ = 0;
 289              		.loc 4 126 15 is_stmt 0 view .LVU82
 290 0000 0021     		movs	r1, #0
 291 0002 4FF0FF33 		mov	r3, #-1
 292              	.LBB111:
 293              	.LBB112:
 294              	.LBB113:
 295              	.LBB114:
 296              		.file 5 "/Library/DaisyToolchain/0.2.0/arm/arm-none-eabi/include/c++/10.3.1/bits/stl_algobase.h"
   1:/Library/DaisyToolchain/0.2.0/arm/arm-none-eabi/include/c++/10.3.1/bits/stl_algobase.h **** // Core algorithmic facilities -*- C++ -*-
   2:/Library/DaisyToolchain/0.2.0/arm/arm-none-eabi/include/c++/10.3.1/bits/stl_algobase.h **** 
   3:/Library/DaisyToolchain/0.2.0/arm/arm-none-eabi/include/c++/10.3.1/bits/stl_algobase.h **** // Copyright (C) 2001-2020 Free Software Foundation, Inc.
   4:/Library/DaisyToolchain/0.2.0/arm/arm-none-eabi/include/c++/10.3.1/bits/stl_algobase.h **** //
   5:/Library/DaisyToolchain/0.2.0/arm/arm-none-eabi/include/c++/10.3.1/bits/stl_algobase.h **** // This file is part of the GNU ISO C++ Library.  This library is free
   6:/Library/DaisyToolchain/0.2.0/arm/arm-none-eabi/include/c++/10.3.1/bits/stl_algobase.h **** // software; you can redistribute it and/or modify it under the
   7:/Library/DaisyToolchain/0.2.0/arm/arm-none-eabi/include/c++/10.3.1/bits/stl_algobase.h **** // terms of the GNU General Public License as published by the
   8:/Library/DaisyToolchain/0.2.0/arm/arm-none-eabi/include/c++/10.3.1/bits/stl_algobase.h **** // Free Software Foundation; either version 3, or (at your option)
   9:/Library/DaisyToolchain/0.2.0/arm/arm-none-eabi/include/c++/10.3.1/bits/stl_algobase.h **** // any later version.
  10:/Library/DaisyToolchain/0.2.0/arm/arm-none-eabi/include/c++/10.3.1/bits/stl_algobase.h **** 
  11:/Library/DaisyToolchain/0.2.0/arm/arm-none-eabi/include/c++/10.3.1/bits/stl_algobase.h **** // This library is distributed in the hope that it will be useful,
  12:/Library/DaisyToolchain/0.2.0/arm/arm-none-eabi/include/c++/10.3.1/bits/stl_algobase.h **** // but WITHOUT ANY WARRANTY; without even the implied warranty of
  13:/Library/DaisyToolchain/0.2.0/arm/arm-none-eabi/include/c++/10.3.1/bits/stl_algobase.h **** // MERCHANTABILITY or FITNESS FOR A PARTICULAR PURPOSE.  See the
  14:/Library/DaisyToolchain/0.2.0/arm/arm-none-eabi/include/c++/10.3.1/bits/stl_algobase.h **** // GNU General Public License for more details.
  15:/Library/DaisyToolchain/0.2.0/arm/arm-none-eabi/include/c++/10.3.1/bits/stl_algobase.h **** 
  16:/Library/DaisyToolchain/0.2.0/arm/arm-none-eabi/include/c++/10.3.1/bits/stl_algobase.h **** // Under Section 7 of GPL version 3, you are granted additional
  17:/Library/DaisyToolchain/0.2.0/arm/arm-none-eabi/include/c++/10.3.1/bits/stl_algobase.h **** // permissions described in the GCC Runtime Library Exception, version
  18:/Library/DaisyToolchain/0.2.0/arm/arm-none-eabi/include/c++/10.3.1/bits/stl_algobase.h **** // 3.1, as published by the Free Software Foundation.
  19:/Library/DaisyToolchain/0.2.0/arm/arm-none-eabi/include/c++/10.3.1/bits/stl_algobase.h **** 
  20:/Library/DaisyToolchain/0.2.0/arm/arm-none-eabi/include/c++/10.3.1/bits/stl_algobase.h **** // You should have received a copy of the GNU General Public License and
  21:/Library/DaisyToolchain/0.2.0/arm/arm-none-eabi/include/c++/10.3.1/bits/stl_algobase.h **** // a copy of the GCC Runtime Library Exception along with this program;
  22:/Library/DaisyToolchain/0.2.0/arm/arm-none-eabi/include/c++/10.3.1/bits/stl_algobase.h **** // see the files COPYING3 and COPYING.RUNTIME respectively.  If not, see
  23:/Library/DaisyToolchain/0.2.0/arm/arm-none-eabi/include/c++/10.3.1/bits/stl_algobase.h **** // <http://www.gnu.org/licenses/>.
  24:/Library/DaisyToolchain/0.2.0/arm/arm-none-eabi/include/c++/10.3.1/bits/stl_algobase.h **** 
  25:/Library/DaisyToolchain/0.2.0/arm/arm-none-eabi/include/c++/10.3.1/bits/stl_algobase.h **** /*
  26:/Library/DaisyToolchain/0.2.0/arm/arm-none-eabi/include/c++/10.3.1/bits/stl_algobase.h ****  *
  27:/Library/DaisyToolchain/0.2.0/arm/arm-none-eabi/include/c++/10.3.1/bits/stl_algobase.h ****  * Copyright (c) 1994
  28:/Library/DaisyToolchain/0.2.0/arm/arm-none-eabi/include/c++/10.3.1/bits/stl_algobase.h ****  * Hewlett-Packard Company
  29:/Library/DaisyToolchain/0.2.0/arm/arm-none-eabi/include/c++/10.3.1/bits/stl_algobase.h ****  *
ARM GAS  /var/folders/9s/8rp0_f2s1n31qbztm3b5_fdh0000gn/T//ccmN9iqX.s 			page 13


  30:/Library/DaisyToolchain/0.2.0/arm/arm-none-eabi/include/c++/10.3.1/bits/stl_algobase.h ****  * Permission to use, copy, modify, distribute and sell this software
  31:/Library/DaisyToolchain/0.2.0/arm/arm-none-eabi/include/c++/10.3.1/bits/stl_algobase.h ****  * and its documentation for any purpose is hereby granted without fee,
  32:/Library/DaisyToolchain/0.2.0/arm/arm-none-eabi/include/c++/10.3.1/bits/stl_algobase.h ****  * provided that the above copyright notice appear in all copies and
  33:/Library/DaisyToolchain/0.2.0/arm/arm-none-eabi/include/c++/10.3.1/bits/stl_algobase.h ****  * that both that copyright notice and this permission notice appear
  34:/Library/DaisyToolchain/0.2.0/arm/arm-none-eabi/include/c++/10.3.1/bits/stl_algobase.h ****  * in supporting documentation.  Hewlett-Packard Company makes no
  35:/Library/DaisyToolchain/0.2.0/arm/arm-none-eabi/include/c++/10.3.1/bits/stl_algobase.h ****  * representations about the suitability of this software for any
  36:/Library/DaisyToolchain/0.2.0/arm/arm-none-eabi/include/c++/10.3.1/bits/stl_algobase.h ****  * purpose.  It is provided "as is" without express or implied warranty.
  37:/Library/DaisyToolchain/0.2.0/arm/arm-none-eabi/include/c++/10.3.1/bits/stl_algobase.h ****  *
  38:/Library/DaisyToolchain/0.2.0/arm/arm-none-eabi/include/c++/10.3.1/bits/stl_algobase.h ****  *
  39:/Library/DaisyToolchain/0.2.0/arm/arm-none-eabi/include/c++/10.3.1/bits/stl_algobase.h ****  * Copyright (c) 1996-1998
  40:/Library/DaisyToolchain/0.2.0/arm/arm-none-eabi/include/c++/10.3.1/bits/stl_algobase.h ****  * Silicon Graphics Computer Systems, Inc.
  41:/Library/DaisyToolchain/0.2.0/arm/arm-none-eabi/include/c++/10.3.1/bits/stl_algobase.h ****  *
  42:/Library/DaisyToolchain/0.2.0/arm/arm-none-eabi/include/c++/10.3.1/bits/stl_algobase.h ****  * Permission to use, copy, modify, distribute and sell this software
  43:/Library/DaisyToolchain/0.2.0/arm/arm-none-eabi/include/c++/10.3.1/bits/stl_algobase.h ****  * and its documentation for any purpose is hereby granted without fee,
  44:/Library/DaisyToolchain/0.2.0/arm/arm-none-eabi/include/c++/10.3.1/bits/stl_algobase.h ****  * provided that the above copyright notice appear in all copies and
  45:/Library/DaisyToolchain/0.2.0/arm/arm-none-eabi/include/c++/10.3.1/bits/stl_algobase.h ****  * that both that copyright notice and this permission notice appear
  46:/Library/DaisyToolchain/0.2.0/arm/arm-none-eabi/include/c++/10.3.1/bits/stl_algobase.h ****  * in supporting documentation.  Silicon Graphics makes no
  47:/Library/DaisyToolchain/0.2.0/arm/arm-none-eabi/include/c++/10.3.1/bits/stl_algobase.h ****  * representations about the suitability of this software for any
  48:/Library/DaisyToolchain/0.2.0/arm/arm-none-eabi/include/c++/10.3.1/bits/stl_algobase.h ****  * purpose.  It is provided "as is" without express or implied warranty.
  49:/Library/DaisyToolchain/0.2.0/arm/arm-none-eabi/include/c++/10.3.1/bits/stl_algobase.h ****  */
  50:/Library/DaisyToolchain/0.2.0/arm/arm-none-eabi/include/c++/10.3.1/bits/stl_algobase.h **** 
  51:/Library/DaisyToolchain/0.2.0/arm/arm-none-eabi/include/c++/10.3.1/bits/stl_algobase.h **** /** @file bits/stl_algobase.h
  52:/Library/DaisyToolchain/0.2.0/arm/arm-none-eabi/include/c++/10.3.1/bits/stl_algobase.h ****  *  This is an internal header file, included by other library headers.
  53:/Library/DaisyToolchain/0.2.0/arm/arm-none-eabi/include/c++/10.3.1/bits/stl_algobase.h ****  *  Do not attempt to use it directly. @headername{algorithm}
  54:/Library/DaisyToolchain/0.2.0/arm/arm-none-eabi/include/c++/10.3.1/bits/stl_algobase.h ****  */
  55:/Library/DaisyToolchain/0.2.0/arm/arm-none-eabi/include/c++/10.3.1/bits/stl_algobase.h **** 
  56:/Library/DaisyToolchain/0.2.0/arm/arm-none-eabi/include/c++/10.3.1/bits/stl_algobase.h **** #ifndef _STL_ALGOBASE_H
  57:/Library/DaisyToolchain/0.2.0/arm/arm-none-eabi/include/c++/10.3.1/bits/stl_algobase.h **** #define _STL_ALGOBASE_H 1
  58:/Library/DaisyToolchain/0.2.0/arm/arm-none-eabi/include/c++/10.3.1/bits/stl_algobase.h **** 
  59:/Library/DaisyToolchain/0.2.0/arm/arm-none-eabi/include/c++/10.3.1/bits/stl_algobase.h **** #include <bits/c++config.h>
  60:/Library/DaisyToolchain/0.2.0/arm/arm-none-eabi/include/c++/10.3.1/bits/stl_algobase.h **** #include <bits/functexcept.h>
  61:/Library/DaisyToolchain/0.2.0/arm/arm-none-eabi/include/c++/10.3.1/bits/stl_algobase.h **** #include <bits/cpp_type_traits.h>
  62:/Library/DaisyToolchain/0.2.0/arm/arm-none-eabi/include/c++/10.3.1/bits/stl_algobase.h **** #include <ext/type_traits.h>
  63:/Library/DaisyToolchain/0.2.0/arm/arm-none-eabi/include/c++/10.3.1/bits/stl_algobase.h **** #include <ext/numeric_traits.h>
  64:/Library/DaisyToolchain/0.2.0/arm/arm-none-eabi/include/c++/10.3.1/bits/stl_algobase.h **** #include <bits/stl_pair.h>
  65:/Library/DaisyToolchain/0.2.0/arm/arm-none-eabi/include/c++/10.3.1/bits/stl_algobase.h **** #include <bits/stl_iterator_base_types.h>
  66:/Library/DaisyToolchain/0.2.0/arm/arm-none-eabi/include/c++/10.3.1/bits/stl_algobase.h **** #include <bits/stl_iterator_base_funcs.h>
  67:/Library/DaisyToolchain/0.2.0/arm/arm-none-eabi/include/c++/10.3.1/bits/stl_algobase.h **** #include <bits/stl_iterator.h>
  68:/Library/DaisyToolchain/0.2.0/arm/arm-none-eabi/include/c++/10.3.1/bits/stl_algobase.h **** #include <bits/concept_check.h>
  69:/Library/DaisyToolchain/0.2.0/arm/arm-none-eabi/include/c++/10.3.1/bits/stl_algobase.h **** #include <debug/debug.h>
  70:/Library/DaisyToolchain/0.2.0/arm/arm-none-eabi/include/c++/10.3.1/bits/stl_algobase.h **** #include <bits/move.h> // For std::swap
  71:/Library/DaisyToolchain/0.2.0/arm/arm-none-eabi/include/c++/10.3.1/bits/stl_algobase.h **** #include <bits/predefined_ops.h>
  72:/Library/DaisyToolchain/0.2.0/arm/arm-none-eabi/include/c++/10.3.1/bits/stl_algobase.h **** #if __cplusplus >= 201103L
  73:/Library/DaisyToolchain/0.2.0/arm/arm-none-eabi/include/c++/10.3.1/bits/stl_algobase.h **** # include <type_traits>
  74:/Library/DaisyToolchain/0.2.0/arm/arm-none-eabi/include/c++/10.3.1/bits/stl_algobase.h **** #endif
  75:/Library/DaisyToolchain/0.2.0/arm/arm-none-eabi/include/c++/10.3.1/bits/stl_algobase.h **** #if __cplusplus > 201703L
  76:/Library/DaisyToolchain/0.2.0/arm/arm-none-eabi/include/c++/10.3.1/bits/stl_algobase.h **** # include <compare>
  77:/Library/DaisyToolchain/0.2.0/arm/arm-none-eabi/include/c++/10.3.1/bits/stl_algobase.h **** #endif
  78:/Library/DaisyToolchain/0.2.0/arm/arm-none-eabi/include/c++/10.3.1/bits/stl_algobase.h **** 
  79:/Library/DaisyToolchain/0.2.0/arm/arm-none-eabi/include/c++/10.3.1/bits/stl_algobase.h **** namespace std _GLIBCXX_VISIBILITY(default)
  80:/Library/DaisyToolchain/0.2.0/arm/arm-none-eabi/include/c++/10.3.1/bits/stl_algobase.h **** {
  81:/Library/DaisyToolchain/0.2.0/arm/arm-none-eabi/include/c++/10.3.1/bits/stl_algobase.h **** _GLIBCXX_BEGIN_NAMESPACE_VERSION
  82:/Library/DaisyToolchain/0.2.0/arm/arm-none-eabi/include/c++/10.3.1/bits/stl_algobase.h **** 
  83:/Library/DaisyToolchain/0.2.0/arm/arm-none-eabi/include/c++/10.3.1/bits/stl_algobase.h ****   /*
  84:/Library/DaisyToolchain/0.2.0/arm/arm-none-eabi/include/c++/10.3.1/bits/stl_algobase.h ****    * A constexpr wrapper for __builtin_memcmp.
  85:/Library/DaisyToolchain/0.2.0/arm/arm-none-eabi/include/c++/10.3.1/bits/stl_algobase.h ****    * @param __num The number of elements of type _Tp (not bytes).
  86:/Library/DaisyToolchain/0.2.0/arm/arm-none-eabi/include/c++/10.3.1/bits/stl_algobase.h ****    */
ARM GAS  /var/folders/9s/8rp0_f2s1n31qbztm3b5_fdh0000gn/T//ccmN9iqX.s 			page 14


  87:/Library/DaisyToolchain/0.2.0/arm/arm-none-eabi/include/c++/10.3.1/bits/stl_algobase.h ****   template<typename _Tp, typename _Up>
  88:/Library/DaisyToolchain/0.2.0/arm/arm-none-eabi/include/c++/10.3.1/bits/stl_algobase.h ****     _GLIBCXX14_CONSTEXPR
  89:/Library/DaisyToolchain/0.2.0/arm/arm-none-eabi/include/c++/10.3.1/bits/stl_algobase.h ****     inline int
  90:/Library/DaisyToolchain/0.2.0/arm/arm-none-eabi/include/c++/10.3.1/bits/stl_algobase.h ****     __memcmp(const _Tp* __first1, const _Up* __first2, size_t __num)
  91:/Library/DaisyToolchain/0.2.0/arm/arm-none-eabi/include/c++/10.3.1/bits/stl_algobase.h ****     {
  92:/Library/DaisyToolchain/0.2.0/arm/arm-none-eabi/include/c++/10.3.1/bits/stl_algobase.h **** #if __cplusplus >= 201103L
  93:/Library/DaisyToolchain/0.2.0/arm/arm-none-eabi/include/c++/10.3.1/bits/stl_algobase.h ****       static_assert(sizeof(_Tp) == sizeof(_Up), "can be compared with memcmp");
  94:/Library/DaisyToolchain/0.2.0/arm/arm-none-eabi/include/c++/10.3.1/bits/stl_algobase.h **** #endif
  95:/Library/DaisyToolchain/0.2.0/arm/arm-none-eabi/include/c++/10.3.1/bits/stl_algobase.h **** #ifdef __cpp_lib_is_constant_evaluated
  96:/Library/DaisyToolchain/0.2.0/arm/arm-none-eabi/include/c++/10.3.1/bits/stl_algobase.h ****       if (std::is_constant_evaluated())
  97:/Library/DaisyToolchain/0.2.0/arm/arm-none-eabi/include/c++/10.3.1/bits/stl_algobase.h **** 	{
  98:/Library/DaisyToolchain/0.2.0/arm/arm-none-eabi/include/c++/10.3.1/bits/stl_algobase.h **** 	  for(; __num > 0; ++__first1, ++__first2, --__num)
  99:/Library/DaisyToolchain/0.2.0/arm/arm-none-eabi/include/c++/10.3.1/bits/stl_algobase.h **** 	    if (*__first1 != *__first2)
 100:/Library/DaisyToolchain/0.2.0/arm/arm-none-eabi/include/c++/10.3.1/bits/stl_algobase.h **** 	      return *__first1 < *__first2 ? -1 : 1;
 101:/Library/DaisyToolchain/0.2.0/arm/arm-none-eabi/include/c++/10.3.1/bits/stl_algobase.h **** 	  return 0;
 102:/Library/DaisyToolchain/0.2.0/arm/arm-none-eabi/include/c++/10.3.1/bits/stl_algobase.h **** 	}
 103:/Library/DaisyToolchain/0.2.0/arm/arm-none-eabi/include/c++/10.3.1/bits/stl_algobase.h ****       else
 104:/Library/DaisyToolchain/0.2.0/arm/arm-none-eabi/include/c++/10.3.1/bits/stl_algobase.h **** #endif
 105:/Library/DaisyToolchain/0.2.0/arm/arm-none-eabi/include/c++/10.3.1/bits/stl_algobase.h **** 	return __builtin_memcmp(__first1, __first2, sizeof(_Tp) * __num);
 106:/Library/DaisyToolchain/0.2.0/arm/arm-none-eabi/include/c++/10.3.1/bits/stl_algobase.h ****     }
 107:/Library/DaisyToolchain/0.2.0/arm/arm-none-eabi/include/c++/10.3.1/bits/stl_algobase.h **** 
 108:/Library/DaisyToolchain/0.2.0/arm/arm-none-eabi/include/c++/10.3.1/bits/stl_algobase.h **** #if __cplusplus < 201103L
 109:/Library/DaisyToolchain/0.2.0/arm/arm-none-eabi/include/c++/10.3.1/bits/stl_algobase.h ****   // See http://gcc.gnu.org/ml/libstdc++/2004-08/msg00167.html: in a
 110:/Library/DaisyToolchain/0.2.0/arm/arm-none-eabi/include/c++/10.3.1/bits/stl_algobase.h ****   // nutshell, we are partially implementing the resolution of DR 187,
 111:/Library/DaisyToolchain/0.2.0/arm/arm-none-eabi/include/c++/10.3.1/bits/stl_algobase.h ****   // when it's safe, i.e., the value_types are equal.
 112:/Library/DaisyToolchain/0.2.0/arm/arm-none-eabi/include/c++/10.3.1/bits/stl_algobase.h ****   template<bool _BoolType>
 113:/Library/DaisyToolchain/0.2.0/arm/arm-none-eabi/include/c++/10.3.1/bits/stl_algobase.h ****     struct __iter_swap
 114:/Library/DaisyToolchain/0.2.0/arm/arm-none-eabi/include/c++/10.3.1/bits/stl_algobase.h ****     {
 115:/Library/DaisyToolchain/0.2.0/arm/arm-none-eabi/include/c++/10.3.1/bits/stl_algobase.h ****       template<typename _ForwardIterator1, typename _ForwardIterator2>
 116:/Library/DaisyToolchain/0.2.0/arm/arm-none-eabi/include/c++/10.3.1/bits/stl_algobase.h **** 	static void
 117:/Library/DaisyToolchain/0.2.0/arm/arm-none-eabi/include/c++/10.3.1/bits/stl_algobase.h **** 	iter_swap(_ForwardIterator1 __a, _ForwardIterator2 __b)
 118:/Library/DaisyToolchain/0.2.0/arm/arm-none-eabi/include/c++/10.3.1/bits/stl_algobase.h **** 	{
 119:/Library/DaisyToolchain/0.2.0/arm/arm-none-eabi/include/c++/10.3.1/bits/stl_algobase.h **** 	  typedef typename iterator_traits<_ForwardIterator1>::value_type
 120:/Library/DaisyToolchain/0.2.0/arm/arm-none-eabi/include/c++/10.3.1/bits/stl_algobase.h **** 	    _ValueType1;
 121:/Library/DaisyToolchain/0.2.0/arm/arm-none-eabi/include/c++/10.3.1/bits/stl_algobase.h **** 	  _ValueType1 __tmp = *__a;
 122:/Library/DaisyToolchain/0.2.0/arm/arm-none-eabi/include/c++/10.3.1/bits/stl_algobase.h **** 	  *__a = *__b;
 123:/Library/DaisyToolchain/0.2.0/arm/arm-none-eabi/include/c++/10.3.1/bits/stl_algobase.h **** 	  *__b = __tmp;
 124:/Library/DaisyToolchain/0.2.0/arm/arm-none-eabi/include/c++/10.3.1/bits/stl_algobase.h **** 	}
 125:/Library/DaisyToolchain/0.2.0/arm/arm-none-eabi/include/c++/10.3.1/bits/stl_algobase.h ****     };
 126:/Library/DaisyToolchain/0.2.0/arm/arm-none-eabi/include/c++/10.3.1/bits/stl_algobase.h **** 
 127:/Library/DaisyToolchain/0.2.0/arm/arm-none-eabi/include/c++/10.3.1/bits/stl_algobase.h ****   template<>
 128:/Library/DaisyToolchain/0.2.0/arm/arm-none-eabi/include/c++/10.3.1/bits/stl_algobase.h ****     struct __iter_swap<true>
 129:/Library/DaisyToolchain/0.2.0/arm/arm-none-eabi/include/c++/10.3.1/bits/stl_algobase.h ****     {
 130:/Library/DaisyToolchain/0.2.0/arm/arm-none-eabi/include/c++/10.3.1/bits/stl_algobase.h ****       template<typename _ForwardIterator1, typename _ForwardIterator2>
 131:/Library/DaisyToolchain/0.2.0/arm/arm-none-eabi/include/c++/10.3.1/bits/stl_algobase.h **** 	static void
 132:/Library/DaisyToolchain/0.2.0/arm/arm-none-eabi/include/c++/10.3.1/bits/stl_algobase.h **** 	iter_swap(_ForwardIterator1 __a, _ForwardIterator2 __b)
 133:/Library/DaisyToolchain/0.2.0/arm/arm-none-eabi/include/c++/10.3.1/bits/stl_algobase.h **** 	{
 134:/Library/DaisyToolchain/0.2.0/arm/arm-none-eabi/include/c++/10.3.1/bits/stl_algobase.h **** 	  swap(*__a, *__b);
 135:/Library/DaisyToolchain/0.2.0/arm/arm-none-eabi/include/c++/10.3.1/bits/stl_algobase.h **** 	}
 136:/Library/DaisyToolchain/0.2.0/arm/arm-none-eabi/include/c++/10.3.1/bits/stl_algobase.h ****     };
 137:/Library/DaisyToolchain/0.2.0/arm/arm-none-eabi/include/c++/10.3.1/bits/stl_algobase.h **** #endif // C++03
 138:/Library/DaisyToolchain/0.2.0/arm/arm-none-eabi/include/c++/10.3.1/bits/stl_algobase.h **** 
 139:/Library/DaisyToolchain/0.2.0/arm/arm-none-eabi/include/c++/10.3.1/bits/stl_algobase.h ****   /**
 140:/Library/DaisyToolchain/0.2.0/arm/arm-none-eabi/include/c++/10.3.1/bits/stl_algobase.h ****    *  @brief Swaps the contents of two iterators.
 141:/Library/DaisyToolchain/0.2.0/arm/arm-none-eabi/include/c++/10.3.1/bits/stl_algobase.h ****    *  @ingroup mutating_algorithms
 142:/Library/DaisyToolchain/0.2.0/arm/arm-none-eabi/include/c++/10.3.1/bits/stl_algobase.h ****    *  @param  __a  An iterator.
 143:/Library/DaisyToolchain/0.2.0/arm/arm-none-eabi/include/c++/10.3.1/bits/stl_algobase.h ****    *  @param  __b  Another iterator.
ARM GAS  /var/folders/9s/8rp0_f2s1n31qbztm3b5_fdh0000gn/T//ccmN9iqX.s 			page 15


 144:/Library/DaisyToolchain/0.2.0/arm/arm-none-eabi/include/c++/10.3.1/bits/stl_algobase.h ****    *  @return   Nothing.
 145:/Library/DaisyToolchain/0.2.0/arm/arm-none-eabi/include/c++/10.3.1/bits/stl_algobase.h ****    *
 146:/Library/DaisyToolchain/0.2.0/arm/arm-none-eabi/include/c++/10.3.1/bits/stl_algobase.h ****    *  This function swaps the values pointed to by two iterators, not the
 147:/Library/DaisyToolchain/0.2.0/arm/arm-none-eabi/include/c++/10.3.1/bits/stl_algobase.h ****    *  iterators themselves.
 148:/Library/DaisyToolchain/0.2.0/arm/arm-none-eabi/include/c++/10.3.1/bits/stl_algobase.h ****   */
 149:/Library/DaisyToolchain/0.2.0/arm/arm-none-eabi/include/c++/10.3.1/bits/stl_algobase.h ****   template<typename _ForwardIterator1, typename _ForwardIterator2>
 150:/Library/DaisyToolchain/0.2.0/arm/arm-none-eabi/include/c++/10.3.1/bits/stl_algobase.h ****     _GLIBCXX20_CONSTEXPR
 151:/Library/DaisyToolchain/0.2.0/arm/arm-none-eabi/include/c++/10.3.1/bits/stl_algobase.h ****     inline void
 152:/Library/DaisyToolchain/0.2.0/arm/arm-none-eabi/include/c++/10.3.1/bits/stl_algobase.h ****     iter_swap(_ForwardIterator1 __a, _ForwardIterator2 __b)
 153:/Library/DaisyToolchain/0.2.0/arm/arm-none-eabi/include/c++/10.3.1/bits/stl_algobase.h ****     {
 154:/Library/DaisyToolchain/0.2.0/arm/arm-none-eabi/include/c++/10.3.1/bits/stl_algobase.h ****       // concept requirements
 155:/Library/DaisyToolchain/0.2.0/arm/arm-none-eabi/include/c++/10.3.1/bits/stl_algobase.h ****       __glibcxx_function_requires(_Mutable_ForwardIteratorConcept<
 156:/Library/DaisyToolchain/0.2.0/arm/arm-none-eabi/include/c++/10.3.1/bits/stl_algobase.h **** 				  _ForwardIterator1>)
 157:/Library/DaisyToolchain/0.2.0/arm/arm-none-eabi/include/c++/10.3.1/bits/stl_algobase.h ****       __glibcxx_function_requires(_Mutable_ForwardIteratorConcept<
 158:/Library/DaisyToolchain/0.2.0/arm/arm-none-eabi/include/c++/10.3.1/bits/stl_algobase.h **** 				  _ForwardIterator2>)
 159:/Library/DaisyToolchain/0.2.0/arm/arm-none-eabi/include/c++/10.3.1/bits/stl_algobase.h **** 
 160:/Library/DaisyToolchain/0.2.0/arm/arm-none-eabi/include/c++/10.3.1/bits/stl_algobase.h **** #if __cplusplus < 201103L
 161:/Library/DaisyToolchain/0.2.0/arm/arm-none-eabi/include/c++/10.3.1/bits/stl_algobase.h ****       typedef typename iterator_traits<_ForwardIterator1>::value_type
 162:/Library/DaisyToolchain/0.2.0/arm/arm-none-eabi/include/c++/10.3.1/bits/stl_algobase.h **** 	_ValueType1;
 163:/Library/DaisyToolchain/0.2.0/arm/arm-none-eabi/include/c++/10.3.1/bits/stl_algobase.h ****       typedef typename iterator_traits<_ForwardIterator2>::value_type
 164:/Library/DaisyToolchain/0.2.0/arm/arm-none-eabi/include/c++/10.3.1/bits/stl_algobase.h **** 	_ValueType2;
 165:/Library/DaisyToolchain/0.2.0/arm/arm-none-eabi/include/c++/10.3.1/bits/stl_algobase.h **** 
 166:/Library/DaisyToolchain/0.2.0/arm/arm-none-eabi/include/c++/10.3.1/bits/stl_algobase.h ****       __glibcxx_function_requires(_ConvertibleConcept<_ValueType1,
 167:/Library/DaisyToolchain/0.2.0/arm/arm-none-eabi/include/c++/10.3.1/bits/stl_algobase.h **** 				  _ValueType2>)
 168:/Library/DaisyToolchain/0.2.0/arm/arm-none-eabi/include/c++/10.3.1/bits/stl_algobase.h ****       __glibcxx_function_requires(_ConvertibleConcept<_ValueType2,
 169:/Library/DaisyToolchain/0.2.0/arm/arm-none-eabi/include/c++/10.3.1/bits/stl_algobase.h **** 				  _ValueType1>)
 170:/Library/DaisyToolchain/0.2.0/arm/arm-none-eabi/include/c++/10.3.1/bits/stl_algobase.h **** 
 171:/Library/DaisyToolchain/0.2.0/arm/arm-none-eabi/include/c++/10.3.1/bits/stl_algobase.h ****       typedef typename iterator_traits<_ForwardIterator1>::reference
 172:/Library/DaisyToolchain/0.2.0/arm/arm-none-eabi/include/c++/10.3.1/bits/stl_algobase.h **** 	_ReferenceType1;
 173:/Library/DaisyToolchain/0.2.0/arm/arm-none-eabi/include/c++/10.3.1/bits/stl_algobase.h ****       typedef typename iterator_traits<_ForwardIterator2>::reference
 174:/Library/DaisyToolchain/0.2.0/arm/arm-none-eabi/include/c++/10.3.1/bits/stl_algobase.h **** 	_ReferenceType2;
 175:/Library/DaisyToolchain/0.2.0/arm/arm-none-eabi/include/c++/10.3.1/bits/stl_algobase.h ****       std::__iter_swap<__are_same<_ValueType1, _ValueType2>::__value
 176:/Library/DaisyToolchain/0.2.0/arm/arm-none-eabi/include/c++/10.3.1/bits/stl_algobase.h **** 	&& __are_same<_ValueType1&, _ReferenceType1>::__value
 177:/Library/DaisyToolchain/0.2.0/arm/arm-none-eabi/include/c++/10.3.1/bits/stl_algobase.h **** 	&& __are_same<_ValueType2&, _ReferenceType2>::__value>::
 178:/Library/DaisyToolchain/0.2.0/arm/arm-none-eabi/include/c++/10.3.1/bits/stl_algobase.h **** 	iter_swap(__a, __b);
 179:/Library/DaisyToolchain/0.2.0/arm/arm-none-eabi/include/c++/10.3.1/bits/stl_algobase.h **** #else
 180:/Library/DaisyToolchain/0.2.0/arm/arm-none-eabi/include/c++/10.3.1/bits/stl_algobase.h ****       // _GLIBCXX_RESOLVE_LIB_DEFECTS
 181:/Library/DaisyToolchain/0.2.0/arm/arm-none-eabi/include/c++/10.3.1/bits/stl_algobase.h ****       // 187. iter_swap underspecified
 182:/Library/DaisyToolchain/0.2.0/arm/arm-none-eabi/include/c++/10.3.1/bits/stl_algobase.h ****       swap(*__a, *__b);
 183:/Library/DaisyToolchain/0.2.0/arm/arm-none-eabi/include/c++/10.3.1/bits/stl_algobase.h **** #endif
 184:/Library/DaisyToolchain/0.2.0/arm/arm-none-eabi/include/c++/10.3.1/bits/stl_algobase.h ****     }
 185:/Library/DaisyToolchain/0.2.0/arm/arm-none-eabi/include/c++/10.3.1/bits/stl_algobase.h **** 
 186:/Library/DaisyToolchain/0.2.0/arm/arm-none-eabi/include/c++/10.3.1/bits/stl_algobase.h ****   /**
 187:/Library/DaisyToolchain/0.2.0/arm/arm-none-eabi/include/c++/10.3.1/bits/stl_algobase.h ****    *  @brief Swap the elements of two sequences.
 188:/Library/DaisyToolchain/0.2.0/arm/arm-none-eabi/include/c++/10.3.1/bits/stl_algobase.h ****    *  @ingroup mutating_algorithms
 189:/Library/DaisyToolchain/0.2.0/arm/arm-none-eabi/include/c++/10.3.1/bits/stl_algobase.h ****    *  @param  __first1  A forward iterator.
 190:/Library/DaisyToolchain/0.2.0/arm/arm-none-eabi/include/c++/10.3.1/bits/stl_algobase.h ****    *  @param  __last1   A forward iterator.
 191:/Library/DaisyToolchain/0.2.0/arm/arm-none-eabi/include/c++/10.3.1/bits/stl_algobase.h ****    *  @param  __first2  A forward iterator.
 192:/Library/DaisyToolchain/0.2.0/arm/arm-none-eabi/include/c++/10.3.1/bits/stl_algobase.h ****    *  @return   An iterator equal to @p first2+(last1-first1).
 193:/Library/DaisyToolchain/0.2.0/arm/arm-none-eabi/include/c++/10.3.1/bits/stl_algobase.h ****    *
 194:/Library/DaisyToolchain/0.2.0/arm/arm-none-eabi/include/c++/10.3.1/bits/stl_algobase.h ****    *  Swaps each element in the range @p [first1,last1) with the
 195:/Library/DaisyToolchain/0.2.0/arm/arm-none-eabi/include/c++/10.3.1/bits/stl_algobase.h ****    *  corresponding element in the range @p [first2,(last1-first1)).
 196:/Library/DaisyToolchain/0.2.0/arm/arm-none-eabi/include/c++/10.3.1/bits/stl_algobase.h ****    *  The ranges must not overlap.
 197:/Library/DaisyToolchain/0.2.0/arm/arm-none-eabi/include/c++/10.3.1/bits/stl_algobase.h ****   */
 198:/Library/DaisyToolchain/0.2.0/arm/arm-none-eabi/include/c++/10.3.1/bits/stl_algobase.h ****   template<typename _ForwardIterator1, typename _ForwardIterator2>
 199:/Library/DaisyToolchain/0.2.0/arm/arm-none-eabi/include/c++/10.3.1/bits/stl_algobase.h ****     _GLIBCXX20_CONSTEXPR
 200:/Library/DaisyToolchain/0.2.0/arm/arm-none-eabi/include/c++/10.3.1/bits/stl_algobase.h ****     _ForwardIterator2
ARM GAS  /var/folders/9s/8rp0_f2s1n31qbztm3b5_fdh0000gn/T//ccmN9iqX.s 			page 16


 201:/Library/DaisyToolchain/0.2.0/arm/arm-none-eabi/include/c++/10.3.1/bits/stl_algobase.h ****     swap_ranges(_ForwardIterator1 __first1, _ForwardIterator1 __last1,
 202:/Library/DaisyToolchain/0.2.0/arm/arm-none-eabi/include/c++/10.3.1/bits/stl_algobase.h **** 		_ForwardIterator2 __first2)
 203:/Library/DaisyToolchain/0.2.0/arm/arm-none-eabi/include/c++/10.3.1/bits/stl_algobase.h ****     {
 204:/Library/DaisyToolchain/0.2.0/arm/arm-none-eabi/include/c++/10.3.1/bits/stl_algobase.h ****       // concept requirements
 205:/Library/DaisyToolchain/0.2.0/arm/arm-none-eabi/include/c++/10.3.1/bits/stl_algobase.h ****       __glibcxx_function_requires(_Mutable_ForwardIteratorConcept<
 206:/Library/DaisyToolchain/0.2.0/arm/arm-none-eabi/include/c++/10.3.1/bits/stl_algobase.h **** 				  _ForwardIterator1>)
 207:/Library/DaisyToolchain/0.2.0/arm/arm-none-eabi/include/c++/10.3.1/bits/stl_algobase.h ****       __glibcxx_function_requires(_Mutable_ForwardIteratorConcept<
 208:/Library/DaisyToolchain/0.2.0/arm/arm-none-eabi/include/c++/10.3.1/bits/stl_algobase.h **** 				  _ForwardIterator2>)
 209:/Library/DaisyToolchain/0.2.0/arm/arm-none-eabi/include/c++/10.3.1/bits/stl_algobase.h ****       __glibcxx_requires_valid_range(__first1, __last1);
 210:/Library/DaisyToolchain/0.2.0/arm/arm-none-eabi/include/c++/10.3.1/bits/stl_algobase.h **** 
 211:/Library/DaisyToolchain/0.2.0/arm/arm-none-eabi/include/c++/10.3.1/bits/stl_algobase.h ****       for (; __first1 != __last1; ++__first1, (void)++__first2)
 212:/Library/DaisyToolchain/0.2.0/arm/arm-none-eabi/include/c++/10.3.1/bits/stl_algobase.h **** 	std::iter_swap(__first1, __first2);
 213:/Library/DaisyToolchain/0.2.0/arm/arm-none-eabi/include/c++/10.3.1/bits/stl_algobase.h ****       return __first2;
 214:/Library/DaisyToolchain/0.2.0/arm/arm-none-eabi/include/c++/10.3.1/bits/stl_algobase.h ****     }
 215:/Library/DaisyToolchain/0.2.0/arm/arm-none-eabi/include/c++/10.3.1/bits/stl_algobase.h **** 
 216:/Library/DaisyToolchain/0.2.0/arm/arm-none-eabi/include/c++/10.3.1/bits/stl_algobase.h ****   /**
 217:/Library/DaisyToolchain/0.2.0/arm/arm-none-eabi/include/c++/10.3.1/bits/stl_algobase.h ****    *  @brief This does what you think it does.
 218:/Library/DaisyToolchain/0.2.0/arm/arm-none-eabi/include/c++/10.3.1/bits/stl_algobase.h ****    *  @ingroup sorting_algorithms
 219:/Library/DaisyToolchain/0.2.0/arm/arm-none-eabi/include/c++/10.3.1/bits/stl_algobase.h ****    *  @param  __a  A thing of arbitrary type.
 220:/Library/DaisyToolchain/0.2.0/arm/arm-none-eabi/include/c++/10.3.1/bits/stl_algobase.h ****    *  @param  __b  Another thing of arbitrary type.
 221:/Library/DaisyToolchain/0.2.0/arm/arm-none-eabi/include/c++/10.3.1/bits/stl_algobase.h ****    *  @return   The lesser of the parameters.
 222:/Library/DaisyToolchain/0.2.0/arm/arm-none-eabi/include/c++/10.3.1/bits/stl_algobase.h ****    *
 223:/Library/DaisyToolchain/0.2.0/arm/arm-none-eabi/include/c++/10.3.1/bits/stl_algobase.h ****    *  This is the simple classic generic implementation.  It will work on
 224:/Library/DaisyToolchain/0.2.0/arm/arm-none-eabi/include/c++/10.3.1/bits/stl_algobase.h ****    *  temporary expressions, since they are only evaluated once, unlike a
 225:/Library/DaisyToolchain/0.2.0/arm/arm-none-eabi/include/c++/10.3.1/bits/stl_algobase.h ****    *  preprocessor macro.
 226:/Library/DaisyToolchain/0.2.0/arm/arm-none-eabi/include/c++/10.3.1/bits/stl_algobase.h ****   */
 227:/Library/DaisyToolchain/0.2.0/arm/arm-none-eabi/include/c++/10.3.1/bits/stl_algobase.h ****   template<typename _Tp>
 228:/Library/DaisyToolchain/0.2.0/arm/arm-none-eabi/include/c++/10.3.1/bits/stl_algobase.h ****     _GLIBCXX14_CONSTEXPR
 229:/Library/DaisyToolchain/0.2.0/arm/arm-none-eabi/include/c++/10.3.1/bits/stl_algobase.h ****     inline const _Tp&
 230:/Library/DaisyToolchain/0.2.0/arm/arm-none-eabi/include/c++/10.3.1/bits/stl_algobase.h ****     min(const _Tp& __a, const _Tp& __b)
 231:/Library/DaisyToolchain/0.2.0/arm/arm-none-eabi/include/c++/10.3.1/bits/stl_algobase.h ****     {
 232:/Library/DaisyToolchain/0.2.0/arm/arm-none-eabi/include/c++/10.3.1/bits/stl_algobase.h ****       // concept requirements
 233:/Library/DaisyToolchain/0.2.0/arm/arm-none-eabi/include/c++/10.3.1/bits/stl_algobase.h ****       __glibcxx_function_requires(_LessThanComparableConcept<_Tp>)
 234:/Library/DaisyToolchain/0.2.0/arm/arm-none-eabi/include/c++/10.3.1/bits/stl_algobase.h ****       //return __b < __a ? __b : __a;
 235:/Library/DaisyToolchain/0.2.0/arm/arm-none-eabi/include/c++/10.3.1/bits/stl_algobase.h ****       if (__b < __a)
 236:/Library/DaisyToolchain/0.2.0/arm/arm-none-eabi/include/c++/10.3.1/bits/stl_algobase.h **** 	return __b;
 237:/Library/DaisyToolchain/0.2.0/arm/arm-none-eabi/include/c++/10.3.1/bits/stl_algobase.h ****       return __a;
 238:/Library/DaisyToolchain/0.2.0/arm/arm-none-eabi/include/c++/10.3.1/bits/stl_algobase.h ****     }
 239:/Library/DaisyToolchain/0.2.0/arm/arm-none-eabi/include/c++/10.3.1/bits/stl_algobase.h **** 
 240:/Library/DaisyToolchain/0.2.0/arm/arm-none-eabi/include/c++/10.3.1/bits/stl_algobase.h ****   /**
 241:/Library/DaisyToolchain/0.2.0/arm/arm-none-eabi/include/c++/10.3.1/bits/stl_algobase.h ****    *  @brief This does what you think it does.
 242:/Library/DaisyToolchain/0.2.0/arm/arm-none-eabi/include/c++/10.3.1/bits/stl_algobase.h ****    *  @ingroup sorting_algorithms
 243:/Library/DaisyToolchain/0.2.0/arm/arm-none-eabi/include/c++/10.3.1/bits/stl_algobase.h ****    *  @param  __a  A thing of arbitrary type.
 244:/Library/DaisyToolchain/0.2.0/arm/arm-none-eabi/include/c++/10.3.1/bits/stl_algobase.h ****    *  @param  __b  Another thing of arbitrary type.
 245:/Library/DaisyToolchain/0.2.0/arm/arm-none-eabi/include/c++/10.3.1/bits/stl_algobase.h ****    *  @return   The greater of the parameters.
 246:/Library/DaisyToolchain/0.2.0/arm/arm-none-eabi/include/c++/10.3.1/bits/stl_algobase.h ****    *
 247:/Library/DaisyToolchain/0.2.0/arm/arm-none-eabi/include/c++/10.3.1/bits/stl_algobase.h ****    *  This is the simple classic generic implementation.  It will work on
 248:/Library/DaisyToolchain/0.2.0/arm/arm-none-eabi/include/c++/10.3.1/bits/stl_algobase.h ****    *  temporary expressions, since they are only evaluated once, unlike a
 249:/Library/DaisyToolchain/0.2.0/arm/arm-none-eabi/include/c++/10.3.1/bits/stl_algobase.h ****    *  preprocessor macro.
 250:/Library/DaisyToolchain/0.2.0/arm/arm-none-eabi/include/c++/10.3.1/bits/stl_algobase.h ****   */
 251:/Library/DaisyToolchain/0.2.0/arm/arm-none-eabi/include/c++/10.3.1/bits/stl_algobase.h ****   template<typename _Tp>
 252:/Library/DaisyToolchain/0.2.0/arm/arm-none-eabi/include/c++/10.3.1/bits/stl_algobase.h ****     _GLIBCXX14_CONSTEXPR
 253:/Library/DaisyToolchain/0.2.0/arm/arm-none-eabi/include/c++/10.3.1/bits/stl_algobase.h ****     inline const _Tp&
 254:/Library/DaisyToolchain/0.2.0/arm/arm-none-eabi/include/c++/10.3.1/bits/stl_algobase.h ****     max(const _Tp& __a, const _Tp& __b)
 255:/Library/DaisyToolchain/0.2.0/arm/arm-none-eabi/include/c++/10.3.1/bits/stl_algobase.h ****     {
 256:/Library/DaisyToolchain/0.2.0/arm/arm-none-eabi/include/c++/10.3.1/bits/stl_algobase.h ****       // concept requirements
 257:/Library/DaisyToolchain/0.2.0/arm/arm-none-eabi/include/c++/10.3.1/bits/stl_algobase.h ****       __glibcxx_function_requires(_LessThanComparableConcept<_Tp>)
ARM GAS  /var/folders/9s/8rp0_f2s1n31qbztm3b5_fdh0000gn/T//ccmN9iqX.s 			page 17


 258:/Library/DaisyToolchain/0.2.0/arm/arm-none-eabi/include/c++/10.3.1/bits/stl_algobase.h ****       //return  __a < __b ? __b : __a;
 259:/Library/DaisyToolchain/0.2.0/arm/arm-none-eabi/include/c++/10.3.1/bits/stl_algobase.h ****       if (__a < __b)
 260:/Library/DaisyToolchain/0.2.0/arm/arm-none-eabi/include/c++/10.3.1/bits/stl_algobase.h **** 	return __b;
 261:/Library/DaisyToolchain/0.2.0/arm/arm-none-eabi/include/c++/10.3.1/bits/stl_algobase.h ****       return __a;
 262:/Library/DaisyToolchain/0.2.0/arm/arm-none-eabi/include/c++/10.3.1/bits/stl_algobase.h ****     }
 263:/Library/DaisyToolchain/0.2.0/arm/arm-none-eabi/include/c++/10.3.1/bits/stl_algobase.h **** 
 264:/Library/DaisyToolchain/0.2.0/arm/arm-none-eabi/include/c++/10.3.1/bits/stl_algobase.h ****   /**
 265:/Library/DaisyToolchain/0.2.0/arm/arm-none-eabi/include/c++/10.3.1/bits/stl_algobase.h ****    *  @brief This does what you think it does.
 266:/Library/DaisyToolchain/0.2.0/arm/arm-none-eabi/include/c++/10.3.1/bits/stl_algobase.h ****    *  @ingroup sorting_algorithms
 267:/Library/DaisyToolchain/0.2.0/arm/arm-none-eabi/include/c++/10.3.1/bits/stl_algobase.h ****    *  @param  __a  A thing of arbitrary type.
 268:/Library/DaisyToolchain/0.2.0/arm/arm-none-eabi/include/c++/10.3.1/bits/stl_algobase.h ****    *  @param  __b  Another thing of arbitrary type.
 269:/Library/DaisyToolchain/0.2.0/arm/arm-none-eabi/include/c++/10.3.1/bits/stl_algobase.h ****    *  @param  __comp  A @link comparison_functors comparison functor@endlink.
 270:/Library/DaisyToolchain/0.2.0/arm/arm-none-eabi/include/c++/10.3.1/bits/stl_algobase.h ****    *  @return   The lesser of the parameters.
 271:/Library/DaisyToolchain/0.2.0/arm/arm-none-eabi/include/c++/10.3.1/bits/stl_algobase.h ****    *
 272:/Library/DaisyToolchain/0.2.0/arm/arm-none-eabi/include/c++/10.3.1/bits/stl_algobase.h ****    *  This will work on temporary expressions, since they are only evaluated
 273:/Library/DaisyToolchain/0.2.0/arm/arm-none-eabi/include/c++/10.3.1/bits/stl_algobase.h ****    *  once, unlike a preprocessor macro.
 274:/Library/DaisyToolchain/0.2.0/arm/arm-none-eabi/include/c++/10.3.1/bits/stl_algobase.h ****   */
 275:/Library/DaisyToolchain/0.2.0/arm/arm-none-eabi/include/c++/10.3.1/bits/stl_algobase.h ****   template<typename _Tp, typename _Compare>
 276:/Library/DaisyToolchain/0.2.0/arm/arm-none-eabi/include/c++/10.3.1/bits/stl_algobase.h ****     _GLIBCXX14_CONSTEXPR
 277:/Library/DaisyToolchain/0.2.0/arm/arm-none-eabi/include/c++/10.3.1/bits/stl_algobase.h ****     inline const _Tp&
 278:/Library/DaisyToolchain/0.2.0/arm/arm-none-eabi/include/c++/10.3.1/bits/stl_algobase.h ****     min(const _Tp& __a, const _Tp& __b, _Compare __comp)
 279:/Library/DaisyToolchain/0.2.0/arm/arm-none-eabi/include/c++/10.3.1/bits/stl_algobase.h ****     {
 280:/Library/DaisyToolchain/0.2.0/arm/arm-none-eabi/include/c++/10.3.1/bits/stl_algobase.h ****       //return __comp(__b, __a) ? __b : __a;
 281:/Library/DaisyToolchain/0.2.0/arm/arm-none-eabi/include/c++/10.3.1/bits/stl_algobase.h ****       if (__comp(__b, __a))
 282:/Library/DaisyToolchain/0.2.0/arm/arm-none-eabi/include/c++/10.3.1/bits/stl_algobase.h **** 	return __b;
 283:/Library/DaisyToolchain/0.2.0/arm/arm-none-eabi/include/c++/10.3.1/bits/stl_algobase.h ****       return __a;
 284:/Library/DaisyToolchain/0.2.0/arm/arm-none-eabi/include/c++/10.3.1/bits/stl_algobase.h ****     }
 285:/Library/DaisyToolchain/0.2.0/arm/arm-none-eabi/include/c++/10.3.1/bits/stl_algobase.h **** 
 286:/Library/DaisyToolchain/0.2.0/arm/arm-none-eabi/include/c++/10.3.1/bits/stl_algobase.h ****   /**
 287:/Library/DaisyToolchain/0.2.0/arm/arm-none-eabi/include/c++/10.3.1/bits/stl_algobase.h ****    *  @brief This does what you think it does.
 288:/Library/DaisyToolchain/0.2.0/arm/arm-none-eabi/include/c++/10.3.1/bits/stl_algobase.h ****    *  @ingroup sorting_algorithms
 289:/Library/DaisyToolchain/0.2.0/arm/arm-none-eabi/include/c++/10.3.1/bits/stl_algobase.h ****    *  @param  __a  A thing of arbitrary type.
 290:/Library/DaisyToolchain/0.2.0/arm/arm-none-eabi/include/c++/10.3.1/bits/stl_algobase.h ****    *  @param  __b  Another thing of arbitrary type.
 291:/Library/DaisyToolchain/0.2.0/arm/arm-none-eabi/include/c++/10.3.1/bits/stl_algobase.h ****    *  @param  __comp  A @link comparison_functors comparison functor@endlink.
 292:/Library/DaisyToolchain/0.2.0/arm/arm-none-eabi/include/c++/10.3.1/bits/stl_algobase.h ****    *  @return   The greater of the parameters.
 293:/Library/DaisyToolchain/0.2.0/arm/arm-none-eabi/include/c++/10.3.1/bits/stl_algobase.h ****    *
 294:/Library/DaisyToolchain/0.2.0/arm/arm-none-eabi/include/c++/10.3.1/bits/stl_algobase.h ****    *  This will work on temporary expressions, since they are only evaluated
 295:/Library/DaisyToolchain/0.2.0/arm/arm-none-eabi/include/c++/10.3.1/bits/stl_algobase.h ****    *  once, unlike a preprocessor macro.
 296:/Library/DaisyToolchain/0.2.0/arm/arm-none-eabi/include/c++/10.3.1/bits/stl_algobase.h ****   */
 297:/Library/DaisyToolchain/0.2.0/arm/arm-none-eabi/include/c++/10.3.1/bits/stl_algobase.h ****   template<typename _Tp, typename _Compare>
 298:/Library/DaisyToolchain/0.2.0/arm/arm-none-eabi/include/c++/10.3.1/bits/stl_algobase.h ****     _GLIBCXX14_CONSTEXPR
 299:/Library/DaisyToolchain/0.2.0/arm/arm-none-eabi/include/c++/10.3.1/bits/stl_algobase.h ****     inline const _Tp&
 300:/Library/DaisyToolchain/0.2.0/arm/arm-none-eabi/include/c++/10.3.1/bits/stl_algobase.h ****     max(const _Tp& __a, const _Tp& __b, _Compare __comp)
 301:/Library/DaisyToolchain/0.2.0/arm/arm-none-eabi/include/c++/10.3.1/bits/stl_algobase.h ****     {
 302:/Library/DaisyToolchain/0.2.0/arm/arm-none-eabi/include/c++/10.3.1/bits/stl_algobase.h ****       //return __comp(__a, __b) ? __b : __a;
 303:/Library/DaisyToolchain/0.2.0/arm/arm-none-eabi/include/c++/10.3.1/bits/stl_algobase.h ****       if (__comp(__a, __b))
 304:/Library/DaisyToolchain/0.2.0/arm/arm-none-eabi/include/c++/10.3.1/bits/stl_algobase.h **** 	return __b;
 305:/Library/DaisyToolchain/0.2.0/arm/arm-none-eabi/include/c++/10.3.1/bits/stl_algobase.h ****       return __a;
 306:/Library/DaisyToolchain/0.2.0/arm/arm-none-eabi/include/c++/10.3.1/bits/stl_algobase.h ****     }
 307:/Library/DaisyToolchain/0.2.0/arm/arm-none-eabi/include/c++/10.3.1/bits/stl_algobase.h **** 
 308:/Library/DaisyToolchain/0.2.0/arm/arm-none-eabi/include/c++/10.3.1/bits/stl_algobase.h ****   // Fallback implementation of the function in bits/stl_iterator.h used to
 309:/Library/DaisyToolchain/0.2.0/arm/arm-none-eabi/include/c++/10.3.1/bits/stl_algobase.h ****   // remove the __normal_iterator wrapper. See copy, fill, ...
 310:/Library/DaisyToolchain/0.2.0/arm/arm-none-eabi/include/c++/10.3.1/bits/stl_algobase.h ****   template<typename _Iterator>
 311:/Library/DaisyToolchain/0.2.0/arm/arm-none-eabi/include/c++/10.3.1/bits/stl_algobase.h ****     _GLIBCXX20_CONSTEXPR
 312:/Library/DaisyToolchain/0.2.0/arm/arm-none-eabi/include/c++/10.3.1/bits/stl_algobase.h ****     inline _Iterator
 313:/Library/DaisyToolchain/0.2.0/arm/arm-none-eabi/include/c++/10.3.1/bits/stl_algobase.h ****     __niter_base(_Iterator __it)
 314:/Library/DaisyToolchain/0.2.0/arm/arm-none-eabi/include/c++/10.3.1/bits/stl_algobase.h ****     _GLIBCXX_NOEXCEPT_IF(std::is_nothrow_copy_constructible<_Iterator>::value)
ARM GAS  /var/folders/9s/8rp0_f2s1n31qbztm3b5_fdh0000gn/T//ccmN9iqX.s 			page 18


 315:/Library/DaisyToolchain/0.2.0/arm/arm-none-eabi/include/c++/10.3.1/bits/stl_algobase.h ****     { return __it; }
 316:/Library/DaisyToolchain/0.2.0/arm/arm-none-eabi/include/c++/10.3.1/bits/stl_algobase.h **** 
 317:/Library/DaisyToolchain/0.2.0/arm/arm-none-eabi/include/c++/10.3.1/bits/stl_algobase.h ****   // Reverse the __niter_base transformation to get a
 318:/Library/DaisyToolchain/0.2.0/arm/arm-none-eabi/include/c++/10.3.1/bits/stl_algobase.h ****   // __normal_iterator back again (this assumes that __normal_iterator
 319:/Library/DaisyToolchain/0.2.0/arm/arm-none-eabi/include/c++/10.3.1/bits/stl_algobase.h ****   // is only used to wrap random access iterators, like pointers).
 320:/Library/DaisyToolchain/0.2.0/arm/arm-none-eabi/include/c++/10.3.1/bits/stl_algobase.h ****   template<typename _From, typename _To>
 321:/Library/DaisyToolchain/0.2.0/arm/arm-none-eabi/include/c++/10.3.1/bits/stl_algobase.h ****     _GLIBCXX20_CONSTEXPR
 322:/Library/DaisyToolchain/0.2.0/arm/arm-none-eabi/include/c++/10.3.1/bits/stl_algobase.h ****     inline _From
 323:/Library/DaisyToolchain/0.2.0/arm/arm-none-eabi/include/c++/10.3.1/bits/stl_algobase.h ****     __niter_wrap(_From __from, _To __res)
 324:/Library/DaisyToolchain/0.2.0/arm/arm-none-eabi/include/c++/10.3.1/bits/stl_algobase.h ****     { return __from + (__res - std::__niter_base(__from)); }
 325:/Library/DaisyToolchain/0.2.0/arm/arm-none-eabi/include/c++/10.3.1/bits/stl_algobase.h **** 
 326:/Library/DaisyToolchain/0.2.0/arm/arm-none-eabi/include/c++/10.3.1/bits/stl_algobase.h ****   // No need to wrap, iterator already has the right type.
 327:/Library/DaisyToolchain/0.2.0/arm/arm-none-eabi/include/c++/10.3.1/bits/stl_algobase.h ****   template<typename _Iterator>
 328:/Library/DaisyToolchain/0.2.0/arm/arm-none-eabi/include/c++/10.3.1/bits/stl_algobase.h ****     _GLIBCXX20_CONSTEXPR
 329:/Library/DaisyToolchain/0.2.0/arm/arm-none-eabi/include/c++/10.3.1/bits/stl_algobase.h ****     inline _Iterator
 330:/Library/DaisyToolchain/0.2.0/arm/arm-none-eabi/include/c++/10.3.1/bits/stl_algobase.h ****     __niter_wrap(const _Iterator&, _Iterator __res)
 331:/Library/DaisyToolchain/0.2.0/arm/arm-none-eabi/include/c++/10.3.1/bits/stl_algobase.h ****     { return __res; }
 332:/Library/DaisyToolchain/0.2.0/arm/arm-none-eabi/include/c++/10.3.1/bits/stl_algobase.h **** 
 333:/Library/DaisyToolchain/0.2.0/arm/arm-none-eabi/include/c++/10.3.1/bits/stl_algobase.h ****   // All of these auxiliary structs serve two purposes.  (1) Replace
 334:/Library/DaisyToolchain/0.2.0/arm/arm-none-eabi/include/c++/10.3.1/bits/stl_algobase.h ****   // calls to copy with memmove whenever possible.  (Memmove, not memcpy,
 335:/Library/DaisyToolchain/0.2.0/arm/arm-none-eabi/include/c++/10.3.1/bits/stl_algobase.h ****   // because the input and output ranges are permitted to overlap.)
 336:/Library/DaisyToolchain/0.2.0/arm/arm-none-eabi/include/c++/10.3.1/bits/stl_algobase.h ****   // (2) If we're using random access iterators, then write the loop as
 337:/Library/DaisyToolchain/0.2.0/arm/arm-none-eabi/include/c++/10.3.1/bits/stl_algobase.h ****   // a for loop with an explicit count.
 338:/Library/DaisyToolchain/0.2.0/arm/arm-none-eabi/include/c++/10.3.1/bits/stl_algobase.h **** 
 339:/Library/DaisyToolchain/0.2.0/arm/arm-none-eabi/include/c++/10.3.1/bits/stl_algobase.h ****   template<bool _IsMove, bool _IsSimple, typename _Category>
 340:/Library/DaisyToolchain/0.2.0/arm/arm-none-eabi/include/c++/10.3.1/bits/stl_algobase.h ****     struct __copy_move
 341:/Library/DaisyToolchain/0.2.0/arm/arm-none-eabi/include/c++/10.3.1/bits/stl_algobase.h ****     {
 342:/Library/DaisyToolchain/0.2.0/arm/arm-none-eabi/include/c++/10.3.1/bits/stl_algobase.h ****       template<typename _II, typename _OI>
 343:/Library/DaisyToolchain/0.2.0/arm/arm-none-eabi/include/c++/10.3.1/bits/stl_algobase.h **** 	_GLIBCXX20_CONSTEXPR
 344:/Library/DaisyToolchain/0.2.0/arm/arm-none-eabi/include/c++/10.3.1/bits/stl_algobase.h **** 	static _OI
 345:/Library/DaisyToolchain/0.2.0/arm/arm-none-eabi/include/c++/10.3.1/bits/stl_algobase.h **** 	__copy_m(_II __first, _II __last, _OI __result)
 346:/Library/DaisyToolchain/0.2.0/arm/arm-none-eabi/include/c++/10.3.1/bits/stl_algobase.h **** 	{
 347:/Library/DaisyToolchain/0.2.0/arm/arm-none-eabi/include/c++/10.3.1/bits/stl_algobase.h **** 	  for (; __first != __last; ++__result, (void)++__first)
 348:/Library/DaisyToolchain/0.2.0/arm/arm-none-eabi/include/c++/10.3.1/bits/stl_algobase.h **** 	    *__result = *__first;
 349:/Library/DaisyToolchain/0.2.0/arm/arm-none-eabi/include/c++/10.3.1/bits/stl_algobase.h **** 	  return __result;
 350:/Library/DaisyToolchain/0.2.0/arm/arm-none-eabi/include/c++/10.3.1/bits/stl_algobase.h **** 	}
 351:/Library/DaisyToolchain/0.2.0/arm/arm-none-eabi/include/c++/10.3.1/bits/stl_algobase.h ****     };
 352:/Library/DaisyToolchain/0.2.0/arm/arm-none-eabi/include/c++/10.3.1/bits/stl_algobase.h **** 
 353:/Library/DaisyToolchain/0.2.0/arm/arm-none-eabi/include/c++/10.3.1/bits/stl_algobase.h **** #if __cplusplus >= 201103L
 354:/Library/DaisyToolchain/0.2.0/arm/arm-none-eabi/include/c++/10.3.1/bits/stl_algobase.h ****   template<typename _Category>
 355:/Library/DaisyToolchain/0.2.0/arm/arm-none-eabi/include/c++/10.3.1/bits/stl_algobase.h ****     struct __copy_move<true, false, _Category>
 356:/Library/DaisyToolchain/0.2.0/arm/arm-none-eabi/include/c++/10.3.1/bits/stl_algobase.h ****     {
 357:/Library/DaisyToolchain/0.2.0/arm/arm-none-eabi/include/c++/10.3.1/bits/stl_algobase.h ****       template<typename _II, typename _OI>
 358:/Library/DaisyToolchain/0.2.0/arm/arm-none-eabi/include/c++/10.3.1/bits/stl_algobase.h **** 	_GLIBCXX20_CONSTEXPR
 359:/Library/DaisyToolchain/0.2.0/arm/arm-none-eabi/include/c++/10.3.1/bits/stl_algobase.h **** 	static _OI
 360:/Library/DaisyToolchain/0.2.0/arm/arm-none-eabi/include/c++/10.3.1/bits/stl_algobase.h **** 	__copy_m(_II __first, _II __last, _OI __result)
 361:/Library/DaisyToolchain/0.2.0/arm/arm-none-eabi/include/c++/10.3.1/bits/stl_algobase.h **** 	{
 362:/Library/DaisyToolchain/0.2.0/arm/arm-none-eabi/include/c++/10.3.1/bits/stl_algobase.h **** 	  for (; __first != __last; ++__result, (void)++__first)
 363:/Library/DaisyToolchain/0.2.0/arm/arm-none-eabi/include/c++/10.3.1/bits/stl_algobase.h **** 	    *__result = std::move(*__first);
 364:/Library/DaisyToolchain/0.2.0/arm/arm-none-eabi/include/c++/10.3.1/bits/stl_algobase.h **** 	  return __result;
 365:/Library/DaisyToolchain/0.2.0/arm/arm-none-eabi/include/c++/10.3.1/bits/stl_algobase.h **** 	}
 366:/Library/DaisyToolchain/0.2.0/arm/arm-none-eabi/include/c++/10.3.1/bits/stl_algobase.h ****     };
 367:/Library/DaisyToolchain/0.2.0/arm/arm-none-eabi/include/c++/10.3.1/bits/stl_algobase.h **** #endif
 368:/Library/DaisyToolchain/0.2.0/arm/arm-none-eabi/include/c++/10.3.1/bits/stl_algobase.h **** 
 369:/Library/DaisyToolchain/0.2.0/arm/arm-none-eabi/include/c++/10.3.1/bits/stl_algobase.h ****   template<>
 370:/Library/DaisyToolchain/0.2.0/arm/arm-none-eabi/include/c++/10.3.1/bits/stl_algobase.h ****     struct __copy_move<false, false, random_access_iterator_tag>
 371:/Library/DaisyToolchain/0.2.0/arm/arm-none-eabi/include/c++/10.3.1/bits/stl_algobase.h ****     {
ARM GAS  /var/folders/9s/8rp0_f2s1n31qbztm3b5_fdh0000gn/T//ccmN9iqX.s 			page 19


 372:/Library/DaisyToolchain/0.2.0/arm/arm-none-eabi/include/c++/10.3.1/bits/stl_algobase.h ****       template<typename _II, typename _OI>
 373:/Library/DaisyToolchain/0.2.0/arm/arm-none-eabi/include/c++/10.3.1/bits/stl_algobase.h **** 	_GLIBCXX20_CONSTEXPR
 374:/Library/DaisyToolchain/0.2.0/arm/arm-none-eabi/include/c++/10.3.1/bits/stl_algobase.h **** 	static _OI
 375:/Library/DaisyToolchain/0.2.0/arm/arm-none-eabi/include/c++/10.3.1/bits/stl_algobase.h **** 	__copy_m(_II __first, _II __last, _OI __result)
 376:/Library/DaisyToolchain/0.2.0/arm/arm-none-eabi/include/c++/10.3.1/bits/stl_algobase.h **** 	{
 377:/Library/DaisyToolchain/0.2.0/arm/arm-none-eabi/include/c++/10.3.1/bits/stl_algobase.h **** 	  typedef typename iterator_traits<_II>::difference_type _Distance;
 378:/Library/DaisyToolchain/0.2.0/arm/arm-none-eabi/include/c++/10.3.1/bits/stl_algobase.h **** 	  for(_Distance __n = __last - __first; __n > 0; --__n)
 379:/Library/DaisyToolchain/0.2.0/arm/arm-none-eabi/include/c++/10.3.1/bits/stl_algobase.h **** 	    {
 380:/Library/DaisyToolchain/0.2.0/arm/arm-none-eabi/include/c++/10.3.1/bits/stl_algobase.h **** 	      *__result = *__first;
 381:/Library/DaisyToolchain/0.2.0/arm/arm-none-eabi/include/c++/10.3.1/bits/stl_algobase.h **** 	      ++__first;
 382:/Library/DaisyToolchain/0.2.0/arm/arm-none-eabi/include/c++/10.3.1/bits/stl_algobase.h **** 	      ++__result;
 383:/Library/DaisyToolchain/0.2.0/arm/arm-none-eabi/include/c++/10.3.1/bits/stl_algobase.h **** 	    }
 384:/Library/DaisyToolchain/0.2.0/arm/arm-none-eabi/include/c++/10.3.1/bits/stl_algobase.h **** 	  return __result;
 385:/Library/DaisyToolchain/0.2.0/arm/arm-none-eabi/include/c++/10.3.1/bits/stl_algobase.h **** 	}
 386:/Library/DaisyToolchain/0.2.0/arm/arm-none-eabi/include/c++/10.3.1/bits/stl_algobase.h ****     };
 387:/Library/DaisyToolchain/0.2.0/arm/arm-none-eabi/include/c++/10.3.1/bits/stl_algobase.h **** 
 388:/Library/DaisyToolchain/0.2.0/arm/arm-none-eabi/include/c++/10.3.1/bits/stl_algobase.h **** #if __cplusplus >= 201103L
 389:/Library/DaisyToolchain/0.2.0/arm/arm-none-eabi/include/c++/10.3.1/bits/stl_algobase.h ****   template<>
 390:/Library/DaisyToolchain/0.2.0/arm/arm-none-eabi/include/c++/10.3.1/bits/stl_algobase.h ****     struct __copy_move<true, false, random_access_iterator_tag>
 391:/Library/DaisyToolchain/0.2.0/arm/arm-none-eabi/include/c++/10.3.1/bits/stl_algobase.h ****     {
 392:/Library/DaisyToolchain/0.2.0/arm/arm-none-eabi/include/c++/10.3.1/bits/stl_algobase.h ****       template<typename _II, typename _OI>
 393:/Library/DaisyToolchain/0.2.0/arm/arm-none-eabi/include/c++/10.3.1/bits/stl_algobase.h **** 	_GLIBCXX20_CONSTEXPR
 394:/Library/DaisyToolchain/0.2.0/arm/arm-none-eabi/include/c++/10.3.1/bits/stl_algobase.h **** 	static _OI
 395:/Library/DaisyToolchain/0.2.0/arm/arm-none-eabi/include/c++/10.3.1/bits/stl_algobase.h **** 	__copy_m(_II __first, _II __last, _OI __result)
 396:/Library/DaisyToolchain/0.2.0/arm/arm-none-eabi/include/c++/10.3.1/bits/stl_algobase.h **** 	{
 397:/Library/DaisyToolchain/0.2.0/arm/arm-none-eabi/include/c++/10.3.1/bits/stl_algobase.h **** 	  typedef typename iterator_traits<_II>::difference_type _Distance;
 398:/Library/DaisyToolchain/0.2.0/arm/arm-none-eabi/include/c++/10.3.1/bits/stl_algobase.h **** 	  for(_Distance __n = __last - __first; __n > 0; --__n)
 399:/Library/DaisyToolchain/0.2.0/arm/arm-none-eabi/include/c++/10.3.1/bits/stl_algobase.h **** 	    {
 400:/Library/DaisyToolchain/0.2.0/arm/arm-none-eabi/include/c++/10.3.1/bits/stl_algobase.h **** 	      *__result = std::move(*__first);
 401:/Library/DaisyToolchain/0.2.0/arm/arm-none-eabi/include/c++/10.3.1/bits/stl_algobase.h **** 	      ++__first;
 402:/Library/DaisyToolchain/0.2.0/arm/arm-none-eabi/include/c++/10.3.1/bits/stl_algobase.h **** 	      ++__result;
 403:/Library/DaisyToolchain/0.2.0/arm/arm-none-eabi/include/c++/10.3.1/bits/stl_algobase.h **** 	    }
 404:/Library/DaisyToolchain/0.2.0/arm/arm-none-eabi/include/c++/10.3.1/bits/stl_algobase.h **** 	  return __result;
 405:/Library/DaisyToolchain/0.2.0/arm/arm-none-eabi/include/c++/10.3.1/bits/stl_algobase.h **** 	}
 406:/Library/DaisyToolchain/0.2.0/arm/arm-none-eabi/include/c++/10.3.1/bits/stl_algobase.h ****     };
 407:/Library/DaisyToolchain/0.2.0/arm/arm-none-eabi/include/c++/10.3.1/bits/stl_algobase.h **** #endif
 408:/Library/DaisyToolchain/0.2.0/arm/arm-none-eabi/include/c++/10.3.1/bits/stl_algobase.h **** 
 409:/Library/DaisyToolchain/0.2.0/arm/arm-none-eabi/include/c++/10.3.1/bits/stl_algobase.h ****   template<bool _IsMove>
 410:/Library/DaisyToolchain/0.2.0/arm/arm-none-eabi/include/c++/10.3.1/bits/stl_algobase.h ****     struct __copy_move<_IsMove, true, random_access_iterator_tag>
 411:/Library/DaisyToolchain/0.2.0/arm/arm-none-eabi/include/c++/10.3.1/bits/stl_algobase.h ****     {
 412:/Library/DaisyToolchain/0.2.0/arm/arm-none-eabi/include/c++/10.3.1/bits/stl_algobase.h ****       template<typename _Tp>
 413:/Library/DaisyToolchain/0.2.0/arm/arm-none-eabi/include/c++/10.3.1/bits/stl_algobase.h **** 	_GLIBCXX20_CONSTEXPR
 414:/Library/DaisyToolchain/0.2.0/arm/arm-none-eabi/include/c++/10.3.1/bits/stl_algobase.h **** 	static _Tp*
 415:/Library/DaisyToolchain/0.2.0/arm/arm-none-eabi/include/c++/10.3.1/bits/stl_algobase.h **** 	__copy_m(const _Tp* __first, const _Tp* __last, _Tp* __result)
 416:/Library/DaisyToolchain/0.2.0/arm/arm-none-eabi/include/c++/10.3.1/bits/stl_algobase.h **** 	{
 417:/Library/DaisyToolchain/0.2.0/arm/arm-none-eabi/include/c++/10.3.1/bits/stl_algobase.h **** #if __cplusplus >= 201103L
 418:/Library/DaisyToolchain/0.2.0/arm/arm-none-eabi/include/c++/10.3.1/bits/stl_algobase.h **** 	  using __assignable = conditional<_IsMove,
 419:/Library/DaisyToolchain/0.2.0/arm/arm-none-eabi/include/c++/10.3.1/bits/stl_algobase.h **** 					   is_move_assignable<_Tp>,
 420:/Library/DaisyToolchain/0.2.0/arm/arm-none-eabi/include/c++/10.3.1/bits/stl_algobase.h **** 					   is_copy_assignable<_Tp>>;
 421:/Library/DaisyToolchain/0.2.0/arm/arm-none-eabi/include/c++/10.3.1/bits/stl_algobase.h **** 	  // trivial types can have deleted assignment
 422:/Library/DaisyToolchain/0.2.0/arm/arm-none-eabi/include/c++/10.3.1/bits/stl_algobase.h **** 	  static_assert( __assignable::type::value, "type is not assignable" );
 423:/Library/DaisyToolchain/0.2.0/arm/arm-none-eabi/include/c++/10.3.1/bits/stl_algobase.h **** #endif
 424:/Library/DaisyToolchain/0.2.0/arm/arm-none-eabi/include/c++/10.3.1/bits/stl_algobase.h **** 	  const ptrdiff_t _Num = __last - __first;
 425:/Library/DaisyToolchain/0.2.0/arm/arm-none-eabi/include/c++/10.3.1/bits/stl_algobase.h **** 	  if (_Num)
 426:/Library/DaisyToolchain/0.2.0/arm/arm-none-eabi/include/c++/10.3.1/bits/stl_algobase.h **** 	    __builtin_memmove(__result, __first, sizeof(_Tp) * _Num);
 427:/Library/DaisyToolchain/0.2.0/arm/arm-none-eabi/include/c++/10.3.1/bits/stl_algobase.h **** 	  return __result + _Num;
 428:/Library/DaisyToolchain/0.2.0/arm/arm-none-eabi/include/c++/10.3.1/bits/stl_algobase.h **** 	}
ARM GAS  /var/folders/9s/8rp0_f2s1n31qbztm3b5_fdh0000gn/T//ccmN9iqX.s 			page 20


 429:/Library/DaisyToolchain/0.2.0/arm/arm-none-eabi/include/c++/10.3.1/bits/stl_algobase.h ****     };
 430:/Library/DaisyToolchain/0.2.0/arm/arm-none-eabi/include/c++/10.3.1/bits/stl_algobase.h **** 
 431:/Library/DaisyToolchain/0.2.0/arm/arm-none-eabi/include/c++/10.3.1/bits/stl_algobase.h ****   // Helpers for streambuf iterators (either istream or ostream).
 432:/Library/DaisyToolchain/0.2.0/arm/arm-none-eabi/include/c++/10.3.1/bits/stl_algobase.h ****   // NB: avoid including <iosfwd>, relatively large.
 433:/Library/DaisyToolchain/0.2.0/arm/arm-none-eabi/include/c++/10.3.1/bits/stl_algobase.h ****   template<typename _CharT>
 434:/Library/DaisyToolchain/0.2.0/arm/arm-none-eabi/include/c++/10.3.1/bits/stl_algobase.h ****     struct char_traits;
 435:/Library/DaisyToolchain/0.2.0/arm/arm-none-eabi/include/c++/10.3.1/bits/stl_algobase.h **** 
 436:/Library/DaisyToolchain/0.2.0/arm/arm-none-eabi/include/c++/10.3.1/bits/stl_algobase.h ****   template<typename _CharT, typename _Traits>
 437:/Library/DaisyToolchain/0.2.0/arm/arm-none-eabi/include/c++/10.3.1/bits/stl_algobase.h ****     class istreambuf_iterator;
 438:/Library/DaisyToolchain/0.2.0/arm/arm-none-eabi/include/c++/10.3.1/bits/stl_algobase.h **** 
 439:/Library/DaisyToolchain/0.2.0/arm/arm-none-eabi/include/c++/10.3.1/bits/stl_algobase.h ****   template<typename _CharT, typename _Traits>
 440:/Library/DaisyToolchain/0.2.0/arm/arm-none-eabi/include/c++/10.3.1/bits/stl_algobase.h ****     class ostreambuf_iterator;
 441:/Library/DaisyToolchain/0.2.0/arm/arm-none-eabi/include/c++/10.3.1/bits/stl_algobase.h **** 
 442:/Library/DaisyToolchain/0.2.0/arm/arm-none-eabi/include/c++/10.3.1/bits/stl_algobase.h ****   template<bool _IsMove, typename _CharT>
 443:/Library/DaisyToolchain/0.2.0/arm/arm-none-eabi/include/c++/10.3.1/bits/stl_algobase.h ****     typename __gnu_cxx::__enable_if<__is_char<_CharT>::__value,
 444:/Library/DaisyToolchain/0.2.0/arm/arm-none-eabi/include/c++/10.3.1/bits/stl_algobase.h **** 	     ostreambuf_iterator<_CharT, char_traits<_CharT> > >::__type
 445:/Library/DaisyToolchain/0.2.0/arm/arm-none-eabi/include/c++/10.3.1/bits/stl_algobase.h ****     __copy_move_a2(_CharT*, _CharT*,
 446:/Library/DaisyToolchain/0.2.0/arm/arm-none-eabi/include/c++/10.3.1/bits/stl_algobase.h **** 		   ostreambuf_iterator<_CharT, char_traits<_CharT> >);
 447:/Library/DaisyToolchain/0.2.0/arm/arm-none-eabi/include/c++/10.3.1/bits/stl_algobase.h **** 
 448:/Library/DaisyToolchain/0.2.0/arm/arm-none-eabi/include/c++/10.3.1/bits/stl_algobase.h ****   template<bool _IsMove, typename _CharT>
 449:/Library/DaisyToolchain/0.2.0/arm/arm-none-eabi/include/c++/10.3.1/bits/stl_algobase.h ****     typename __gnu_cxx::__enable_if<__is_char<_CharT>::__value,
 450:/Library/DaisyToolchain/0.2.0/arm/arm-none-eabi/include/c++/10.3.1/bits/stl_algobase.h **** 	     ostreambuf_iterator<_CharT, char_traits<_CharT> > >::__type
 451:/Library/DaisyToolchain/0.2.0/arm/arm-none-eabi/include/c++/10.3.1/bits/stl_algobase.h ****     __copy_move_a2(const _CharT*, const _CharT*,
 452:/Library/DaisyToolchain/0.2.0/arm/arm-none-eabi/include/c++/10.3.1/bits/stl_algobase.h **** 		   ostreambuf_iterator<_CharT, char_traits<_CharT> >);
 453:/Library/DaisyToolchain/0.2.0/arm/arm-none-eabi/include/c++/10.3.1/bits/stl_algobase.h **** 
 454:/Library/DaisyToolchain/0.2.0/arm/arm-none-eabi/include/c++/10.3.1/bits/stl_algobase.h ****   template<bool _IsMove, typename _CharT>
 455:/Library/DaisyToolchain/0.2.0/arm/arm-none-eabi/include/c++/10.3.1/bits/stl_algobase.h ****     typename __gnu_cxx::__enable_if<__is_char<_CharT>::__value,
 456:/Library/DaisyToolchain/0.2.0/arm/arm-none-eabi/include/c++/10.3.1/bits/stl_algobase.h **** 				    _CharT*>::__type
 457:/Library/DaisyToolchain/0.2.0/arm/arm-none-eabi/include/c++/10.3.1/bits/stl_algobase.h ****     __copy_move_a2(istreambuf_iterator<_CharT, char_traits<_CharT> >,
 458:/Library/DaisyToolchain/0.2.0/arm/arm-none-eabi/include/c++/10.3.1/bits/stl_algobase.h **** 		   istreambuf_iterator<_CharT, char_traits<_CharT> >, _CharT*);
 459:/Library/DaisyToolchain/0.2.0/arm/arm-none-eabi/include/c++/10.3.1/bits/stl_algobase.h **** 
 460:/Library/DaisyToolchain/0.2.0/arm/arm-none-eabi/include/c++/10.3.1/bits/stl_algobase.h ****   template<bool _IsMove, typename _II, typename _OI>
 461:/Library/DaisyToolchain/0.2.0/arm/arm-none-eabi/include/c++/10.3.1/bits/stl_algobase.h ****     _GLIBCXX20_CONSTEXPR
 462:/Library/DaisyToolchain/0.2.0/arm/arm-none-eabi/include/c++/10.3.1/bits/stl_algobase.h ****     inline _OI
 463:/Library/DaisyToolchain/0.2.0/arm/arm-none-eabi/include/c++/10.3.1/bits/stl_algobase.h ****     __copy_move_a2(_II __first, _II __last, _OI __result)
 464:/Library/DaisyToolchain/0.2.0/arm/arm-none-eabi/include/c++/10.3.1/bits/stl_algobase.h ****     {
 465:/Library/DaisyToolchain/0.2.0/arm/arm-none-eabi/include/c++/10.3.1/bits/stl_algobase.h ****       typedef typename iterator_traits<_II>::iterator_category _Category;
 466:/Library/DaisyToolchain/0.2.0/arm/arm-none-eabi/include/c++/10.3.1/bits/stl_algobase.h **** #ifdef __cpp_lib_is_constant_evaluated
 467:/Library/DaisyToolchain/0.2.0/arm/arm-none-eabi/include/c++/10.3.1/bits/stl_algobase.h ****       if (std::is_constant_evaluated())
 468:/Library/DaisyToolchain/0.2.0/arm/arm-none-eabi/include/c++/10.3.1/bits/stl_algobase.h **** 	return std::__copy_move<_IsMove, false, _Category>::
 469:/Library/DaisyToolchain/0.2.0/arm/arm-none-eabi/include/c++/10.3.1/bits/stl_algobase.h **** 	  __copy_m(__first, __last, __result);
 470:/Library/DaisyToolchain/0.2.0/arm/arm-none-eabi/include/c++/10.3.1/bits/stl_algobase.h **** #endif
 471:/Library/DaisyToolchain/0.2.0/arm/arm-none-eabi/include/c++/10.3.1/bits/stl_algobase.h ****       return std::__copy_move<_IsMove, __memcpyable<_OI, _II>::__value,
 472:/Library/DaisyToolchain/0.2.0/arm/arm-none-eabi/include/c++/10.3.1/bits/stl_algobase.h **** 			      _Category>::__copy_m(__first, __last, __result);
 473:/Library/DaisyToolchain/0.2.0/arm/arm-none-eabi/include/c++/10.3.1/bits/stl_algobase.h ****     }
 474:/Library/DaisyToolchain/0.2.0/arm/arm-none-eabi/include/c++/10.3.1/bits/stl_algobase.h **** 
 475:/Library/DaisyToolchain/0.2.0/arm/arm-none-eabi/include/c++/10.3.1/bits/stl_algobase.h **** _GLIBCXX_BEGIN_NAMESPACE_CONTAINER
 476:/Library/DaisyToolchain/0.2.0/arm/arm-none-eabi/include/c++/10.3.1/bits/stl_algobase.h **** 
 477:/Library/DaisyToolchain/0.2.0/arm/arm-none-eabi/include/c++/10.3.1/bits/stl_algobase.h ****   template<typename _Tp, typename _Ref, typename _Ptr>
 478:/Library/DaisyToolchain/0.2.0/arm/arm-none-eabi/include/c++/10.3.1/bits/stl_algobase.h ****     struct _Deque_iterator;
 479:/Library/DaisyToolchain/0.2.0/arm/arm-none-eabi/include/c++/10.3.1/bits/stl_algobase.h **** 
 480:/Library/DaisyToolchain/0.2.0/arm/arm-none-eabi/include/c++/10.3.1/bits/stl_algobase.h **** _GLIBCXX_END_NAMESPACE_CONTAINER
 481:/Library/DaisyToolchain/0.2.0/arm/arm-none-eabi/include/c++/10.3.1/bits/stl_algobase.h **** 
 482:/Library/DaisyToolchain/0.2.0/arm/arm-none-eabi/include/c++/10.3.1/bits/stl_algobase.h ****   template<bool _IsMove,
 483:/Library/DaisyToolchain/0.2.0/arm/arm-none-eabi/include/c++/10.3.1/bits/stl_algobase.h **** 	   typename _Tp, typename _Ref, typename _Ptr, typename _OI>
 484:/Library/DaisyToolchain/0.2.0/arm/arm-none-eabi/include/c++/10.3.1/bits/stl_algobase.h ****     _OI
 485:/Library/DaisyToolchain/0.2.0/arm/arm-none-eabi/include/c++/10.3.1/bits/stl_algobase.h ****     __copy_move_a1(_GLIBCXX_STD_C::_Deque_iterator<_Tp, _Ref, _Ptr>,
ARM GAS  /var/folders/9s/8rp0_f2s1n31qbztm3b5_fdh0000gn/T//ccmN9iqX.s 			page 21


 486:/Library/DaisyToolchain/0.2.0/arm/arm-none-eabi/include/c++/10.3.1/bits/stl_algobase.h **** 		   _GLIBCXX_STD_C::_Deque_iterator<_Tp, _Ref, _Ptr>,
 487:/Library/DaisyToolchain/0.2.0/arm/arm-none-eabi/include/c++/10.3.1/bits/stl_algobase.h **** 		   _OI);
 488:/Library/DaisyToolchain/0.2.0/arm/arm-none-eabi/include/c++/10.3.1/bits/stl_algobase.h **** 
 489:/Library/DaisyToolchain/0.2.0/arm/arm-none-eabi/include/c++/10.3.1/bits/stl_algobase.h ****   template<bool _IsMove,
 490:/Library/DaisyToolchain/0.2.0/arm/arm-none-eabi/include/c++/10.3.1/bits/stl_algobase.h **** 	   typename _ITp, typename _IRef, typename _IPtr, typename _OTp>
 491:/Library/DaisyToolchain/0.2.0/arm/arm-none-eabi/include/c++/10.3.1/bits/stl_algobase.h ****     _GLIBCXX_STD_C::_Deque_iterator<_OTp, _OTp&, _OTp*>
 492:/Library/DaisyToolchain/0.2.0/arm/arm-none-eabi/include/c++/10.3.1/bits/stl_algobase.h ****     __copy_move_a1(_GLIBCXX_STD_C::_Deque_iterator<_ITp, _IRef, _IPtr>,
 493:/Library/DaisyToolchain/0.2.0/arm/arm-none-eabi/include/c++/10.3.1/bits/stl_algobase.h **** 		   _GLIBCXX_STD_C::_Deque_iterator<_ITp, _IRef, _IPtr>,
 494:/Library/DaisyToolchain/0.2.0/arm/arm-none-eabi/include/c++/10.3.1/bits/stl_algobase.h **** 		   _GLIBCXX_STD_C::_Deque_iterator<_OTp, _OTp&, _OTp*>);
 495:/Library/DaisyToolchain/0.2.0/arm/arm-none-eabi/include/c++/10.3.1/bits/stl_algobase.h **** 
 496:/Library/DaisyToolchain/0.2.0/arm/arm-none-eabi/include/c++/10.3.1/bits/stl_algobase.h ****   template<bool _IsMove, typename _II, typename _Tp>
 497:/Library/DaisyToolchain/0.2.0/arm/arm-none-eabi/include/c++/10.3.1/bits/stl_algobase.h ****     typename __gnu_cxx::__enable_if<
 498:/Library/DaisyToolchain/0.2.0/arm/arm-none-eabi/include/c++/10.3.1/bits/stl_algobase.h ****       __is_random_access_iter<_II>::__value,
 499:/Library/DaisyToolchain/0.2.0/arm/arm-none-eabi/include/c++/10.3.1/bits/stl_algobase.h ****       _GLIBCXX_STD_C::_Deque_iterator<_Tp, _Tp&, _Tp*> >::__type
 500:/Library/DaisyToolchain/0.2.0/arm/arm-none-eabi/include/c++/10.3.1/bits/stl_algobase.h ****     __copy_move_a1(_II, _II, _GLIBCXX_STD_C::_Deque_iterator<_Tp, _Tp&, _Tp*>);
 501:/Library/DaisyToolchain/0.2.0/arm/arm-none-eabi/include/c++/10.3.1/bits/stl_algobase.h **** 
 502:/Library/DaisyToolchain/0.2.0/arm/arm-none-eabi/include/c++/10.3.1/bits/stl_algobase.h ****   template<bool _IsMove, typename _II, typename _OI>
 503:/Library/DaisyToolchain/0.2.0/arm/arm-none-eabi/include/c++/10.3.1/bits/stl_algobase.h ****     _GLIBCXX20_CONSTEXPR
 504:/Library/DaisyToolchain/0.2.0/arm/arm-none-eabi/include/c++/10.3.1/bits/stl_algobase.h ****     inline _OI
 505:/Library/DaisyToolchain/0.2.0/arm/arm-none-eabi/include/c++/10.3.1/bits/stl_algobase.h ****     __copy_move_a1(_II __first, _II __last, _OI __result)
 506:/Library/DaisyToolchain/0.2.0/arm/arm-none-eabi/include/c++/10.3.1/bits/stl_algobase.h ****     { return std::__copy_move_a2<_IsMove>(__first, __last, __result); }
 507:/Library/DaisyToolchain/0.2.0/arm/arm-none-eabi/include/c++/10.3.1/bits/stl_algobase.h **** 
 508:/Library/DaisyToolchain/0.2.0/arm/arm-none-eabi/include/c++/10.3.1/bits/stl_algobase.h ****   template<bool _IsMove, typename _II, typename _OI>
 509:/Library/DaisyToolchain/0.2.0/arm/arm-none-eabi/include/c++/10.3.1/bits/stl_algobase.h ****     _GLIBCXX20_CONSTEXPR
 510:/Library/DaisyToolchain/0.2.0/arm/arm-none-eabi/include/c++/10.3.1/bits/stl_algobase.h ****     inline _OI
 511:/Library/DaisyToolchain/0.2.0/arm/arm-none-eabi/include/c++/10.3.1/bits/stl_algobase.h ****     __copy_move_a(_II __first, _II __last, _OI __result)
 512:/Library/DaisyToolchain/0.2.0/arm/arm-none-eabi/include/c++/10.3.1/bits/stl_algobase.h ****     {
 513:/Library/DaisyToolchain/0.2.0/arm/arm-none-eabi/include/c++/10.3.1/bits/stl_algobase.h ****       return std::__niter_wrap(__result,
 514:/Library/DaisyToolchain/0.2.0/arm/arm-none-eabi/include/c++/10.3.1/bits/stl_algobase.h **** 		std::__copy_move_a1<_IsMove>(std::__niter_base(__first),
 515:/Library/DaisyToolchain/0.2.0/arm/arm-none-eabi/include/c++/10.3.1/bits/stl_algobase.h **** 					     std::__niter_base(__last),
 516:/Library/DaisyToolchain/0.2.0/arm/arm-none-eabi/include/c++/10.3.1/bits/stl_algobase.h **** 					     std::__niter_base(__result)));
 517:/Library/DaisyToolchain/0.2.0/arm/arm-none-eabi/include/c++/10.3.1/bits/stl_algobase.h ****     }
 518:/Library/DaisyToolchain/0.2.0/arm/arm-none-eabi/include/c++/10.3.1/bits/stl_algobase.h **** 
 519:/Library/DaisyToolchain/0.2.0/arm/arm-none-eabi/include/c++/10.3.1/bits/stl_algobase.h ****   template<bool _IsMove,
 520:/Library/DaisyToolchain/0.2.0/arm/arm-none-eabi/include/c++/10.3.1/bits/stl_algobase.h **** 	   typename _Ite, typename _Seq, typename _Cat, typename _OI>
 521:/Library/DaisyToolchain/0.2.0/arm/arm-none-eabi/include/c++/10.3.1/bits/stl_algobase.h ****     _OI
 522:/Library/DaisyToolchain/0.2.0/arm/arm-none-eabi/include/c++/10.3.1/bits/stl_algobase.h ****     __copy_move_a(const ::__gnu_debug::_Safe_iterator<_Ite, _Seq, _Cat>&,
 523:/Library/DaisyToolchain/0.2.0/arm/arm-none-eabi/include/c++/10.3.1/bits/stl_algobase.h **** 		  const ::__gnu_debug::_Safe_iterator<_Ite, _Seq, _Cat>&,
 524:/Library/DaisyToolchain/0.2.0/arm/arm-none-eabi/include/c++/10.3.1/bits/stl_algobase.h **** 		  _OI);
 525:/Library/DaisyToolchain/0.2.0/arm/arm-none-eabi/include/c++/10.3.1/bits/stl_algobase.h **** 
 526:/Library/DaisyToolchain/0.2.0/arm/arm-none-eabi/include/c++/10.3.1/bits/stl_algobase.h ****   template<bool _IsMove,
 527:/Library/DaisyToolchain/0.2.0/arm/arm-none-eabi/include/c++/10.3.1/bits/stl_algobase.h **** 	   typename _II, typename _Ite, typename _Seq, typename _Cat>
 528:/Library/DaisyToolchain/0.2.0/arm/arm-none-eabi/include/c++/10.3.1/bits/stl_algobase.h ****     __gnu_debug::_Safe_iterator<_Ite, _Seq, _Cat>
 529:/Library/DaisyToolchain/0.2.0/arm/arm-none-eabi/include/c++/10.3.1/bits/stl_algobase.h ****     __copy_move_a(_II, _II,
 530:/Library/DaisyToolchain/0.2.0/arm/arm-none-eabi/include/c++/10.3.1/bits/stl_algobase.h **** 		  const ::__gnu_debug::_Safe_iterator<_Ite, _Seq, _Cat>&);
 531:/Library/DaisyToolchain/0.2.0/arm/arm-none-eabi/include/c++/10.3.1/bits/stl_algobase.h **** 
 532:/Library/DaisyToolchain/0.2.0/arm/arm-none-eabi/include/c++/10.3.1/bits/stl_algobase.h ****   template<bool _IsMove,
 533:/Library/DaisyToolchain/0.2.0/arm/arm-none-eabi/include/c++/10.3.1/bits/stl_algobase.h **** 	   typename _IIte, typename _ISeq, typename _ICat,
 534:/Library/DaisyToolchain/0.2.0/arm/arm-none-eabi/include/c++/10.3.1/bits/stl_algobase.h **** 	   typename _OIte, typename _OSeq, typename _OCat>
 535:/Library/DaisyToolchain/0.2.0/arm/arm-none-eabi/include/c++/10.3.1/bits/stl_algobase.h ****     ::__gnu_debug::_Safe_iterator<_OIte, _OSeq, _OCat>
 536:/Library/DaisyToolchain/0.2.0/arm/arm-none-eabi/include/c++/10.3.1/bits/stl_algobase.h ****     __copy_move_a(const ::__gnu_debug::_Safe_iterator<_IIte, _ISeq, _ICat>&,
 537:/Library/DaisyToolchain/0.2.0/arm/arm-none-eabi/include/c++/10.3.1/bits/stl_algobase.h **** 		  const ::__gnu_debug::_Safe_iterator<_IIte, _ISeq, _ICat>&,
 538:/Library/DaisyToolchain/0.2.0/arm/arm-none-eabi/include/c++/10.3.1/bits/stl_algobase.h **** 		  const ::__gnu_debug::_Safe_iterator<_OIte, _OSeq, _OCat>&);
 539:/Library/DaisyToolchain/0.2.0/arm/arm-none-eabi/include/c++/10.3.1/bits/stl_algobase.h **** 
 540:/Library/DaisyToolchain/0.2.0/arm/arm-none-eabi/include/c++/10.3.1/bits/stl_algobase.h ****   /**
 541:/Library/DaisyToolchain/0.2.0/arm/arm-none-eabi/include/c++/10.3.1/bits/stl_algobase.h ****    *  @brief Copies the range [first,last) into result.
 542:/Library/DaisyToolchain/0.2.0/arm/arm-none-eabi/include/c++/10.3.1/bits/stl_algobase.h ****    *  @ingroup mutating_algorithms
ARM GAS  /var/folders/9s/8rp0_f2s1n31qbztm3b5_fdh0000gn/T//ccmN9iqX.s 			page 22


 543:/Library/DaisyToolchain/0.2.0/arm/arm-none-eabi/include/c++/10.3.1/bits/stl_algobase.h ****    *  @param  __first  An input iterator.
 544:/Library/DaisyToolchain/0.2.0/arm/arm-none-eabi/include/c++/10.3.1/bits/stl_algobase.h ****    *  @param  __last   An input iterator.
 545:/Library/DaisyToolchain/0.2.0/arm/arm-none-eabi/include/c++/10.3.1/bits/stl_algobase.h ****    *  @param  __result An output iterator.
 546:/Library/DaisyToolchain/0.2.0/arm/arm-none-eabi/include/c++/10.3.1/bits/stl_algobase.h ****    *  @return   result + (last - first)
 547:/Library/DaisyToolchain/0.2.0/arm/arm-none-eabi/include/c++/10.3.1/bits/stl_algobase.h ****    *
 548:/Library/DaisyToolchain/0.2.0/arm/arm-none-eabi/include/c++/10.3.1/bits/stl_algobase.h ****    *  This inline function will boil down to a call to @c memmove whenever
 549:/Library/DaisyToolchain/0.2.0/arm/arm-none-eabi/include/c++/10.3.1/bits/stl_algobase.h ****    *  possible.  Failing that, if random access iterators are passed, then the
 550:/Library/DaisyToolchain/0.2.0/arm/arm-none-eabi/include/c++/10.3.1/bits/stl_algobase.h ****    *  loop count will be known (and therefore a candidate for compiler
 551:/Library/DaisyToolchain/0.2.0/arm/arm-none-eabi/include/c++/10.3.1/bits/stl_algobase.h ****    *  optimizations such as unrolling).  Result may not be contained within
 552:/Library/DaisyToolchain/0.2.0/arm/arm-none-eabi/include/c++/10.3.1/bits/stl_algobase.h ****    *  [first,last); the copy_backward function should be used instead.
 553:/Library/DaisyToolchain/0.2.0/arm/arm-none-eabi/include/c++/10.3.1/bits/stl_algobase.h ****    *
 554:/Library/DaisyToolchain/0.2.0/arm/arm-none-eabi/include/c++/10.3.1/bits/stl_algobase.h ****    *  Note that the end of the output range is permitted to be contained
 555:/Library/DaisyToolchain/0.2.0/arm/arm-none-eabi/include/c++/10.3.1/bits/stl_algobase.h ****    *  within [first,last).
 556:/Library/DaisyToolchain/0.2.0/arm/arm-none-eabi/include/c++/10.3.1/bits/stl_algobase.h ****   */
 557:/Library/DaisyToolchain/0.2.0/arm/arm-none-eabi/include/c++/10.3.1/bits/stl_algobase.h ****   template<typename _II, typename _OI>
 558:/Library/DaisyToolchain/0.2.0/arm/arm-none-eabi/include/c++/10.3.1/bits/stl_algobase.h ****     _GLIBCXX20_CONSTEXPR
 559:/Library/DaisyToolchain/0.2.0/arm/arm-none-eabi/include/c++/10.3.1/bits/stl_algobase.h ****     inline _OI
 560:/Library/DaisyToolchain/0.2.0/arm/arm-none-eabi/include/c++/10.3.1/bits/stl_algobase.h ****     copy(_II __first, _II __last, _OI __result)
 561:/Library/DaisyToolchain/0.2.0/arm/arm-none-eabi/include/c++/10.3.1/bits/stl_algobase.h ****     {
 562:/Library/DaisyToolchain/0.2.0/arm/arm-none-eabi/include/c++/10.3.1/bits/stl_algobase.h ****       // concept requirements
 563:/Library/DaisyToolchain/0.2.0/arm/arm-none-eabi/include/c++/10.3.1/bits/stl_algobase.h ****       __glibcxx_function_requires(_InputIteratorConcept<_II>)
 564:/Library/DaisyToolchain/0.2.0/arm/arm-none-eabi/include/c++/10.3.1/bits/stl_algobase.h ****       __glibcxx_function_requires(_OutputIteratorConcept<_OI,
 565:/Library/DaisyToolchain/0.2.0/arm/arm-none-eabi/include/c++/10.3.1/bits/stl_algobase.h **** 	    typename iterator_traits<_II>::value_type>)
 566:/Library/DaisyToolchain/0.2.0/arm/arm-none-eabi/include/c++/10.3.1/bits/stl_algobase.h ****       __glibcxx_requires_can_increment_range(__first, __last, __result);
 567:/Library/DaisyToolchain/0.2.0/arm/arm-none-eabi/include/c++/10.3.1/bits/stl_algobase.h **** 
 568:/Library/DaisyToolchain/0.2.0/arm/arm-none-eabi/include/c++/10.3.1/bits/stl_algobase.h ****       return std::__copy_move_a<__is_move_iterator<_II>::__value>
 569:/Library/DaisyToolchain/0.2.0/arm/arm-none-eabi/include/c++/10.3.1/bits/stl_algobase.h **** 	     (std::__miter_base(__first), std::__miter_base(__last), __result);
 570:/Library/DaisyToolchain/0.2.0/arm/arm-none-eabi/include/c++/10.3.1/bits/stl_algobase.h ****     }
 571:/Library/DaisyToolchain/0.2.0/arm/arm-none-eabi/include/c++/10.3.1/bits/stl_algobase.h **** 
 572:/Library/DaisyToolchain/0.2.0/arm/arm-none-eabi/include/c++/10.3.1/bits/stl_algobase.h **** #if __cplusplus >= 201103L
 573:/Library/DaisyToolchain/0.2.0/arm/arm-none-eabi/include/c++/10.3.1/bits/stl_algobase.h ****   /**
 574:/Library/DaisyToolchain/0.2.0/arm/arm-none-eabi/include/c++/10.3.1/bits/stl_algobase.h ****    *  @brief Moves the range [first,last) into result.
 575:/Library/DaisyToolchain/0.2.0/arm/arm-none-eabi/include/c++/10.3.1/bits/stl_algobase.h ****    *  @ingroup mutating_algorithms
 576:/Library/DaisyToolchain/0.2.0/arm/arm-none-eabi/include/c++/10.3.1/bits/stl_algobase.h ****    *  @param  __first  An input iterator.
 577:/Library/DaisyToolchain/0.2.0/arm/arm-none-eabi/include/c++/10.3.1/bits/stl_algobase.h ****    *  @param  __last   An input iterator.
 578:/Library/DaisyToolchain/0.2.0/arm/arm-none-eabi/include/c++/10.3.1/bits/stl_algobase.h ****    *  @param  __result An output iterator.
 579:/Library/DaisyToolchain/0.2.0/arm/arm-none-eabi/include/c++/10.3.1/bits/stl_algobase.h ****    *  @return   result + (last - first)
 580:/Library/DaisyToolchain/0.2.0/arm/arm-none-eabi/include/c++/10.3.1/bits/stl_algobase.h ****    *
 581:/Library/DaisyToolchain/0.2.0/arm/arm-none-eabi/include/c++/10.3.1/bits/stl_algobase.h ****    *  This inline function will boil down to a call to @c memmove whenever
 582:/Library/DaisyToolchain/0.2.0/arm/arm-none-eabi/include/c++/10.3.1/bits/stl_algobase.h ****    *  possible.  Failing that, if random access iterators are passed, then the
 583:/Library/DaisyToolchain/0.2.0/arm/arm-none-eabi/include/c++/10.3.1/bits/stl_algobase.h ****    *  loop count will be known (and therefore a candidate for compiler
 584:/Library/DaisyToolchain/0.2.0/arm/arm-none-eabi/include/c++/10.3.1/bits/stl_algobase.h ****    *  optimizations such as unrolling).  Result may not be contained within
 585:/Library/DaisyToolchain/0.2.0/arm/arm-none-eabi/include/c++/10.3.1/bits/stl_algobase.h ****    *  [first,last); the move_backward function should be used instead.
 586:/Library/DaisyToolchain/0.2.0/arm/arm-none-eabi/include/c++/10.3.1/bits/stl_algobase.h ****    *
 587:/Library/DaisyToolchain/0.2.0/arm/arm-none-eabi/include/c++/10.3.1/bits/stl_algobase.h ****    *  Note that the end of the output range is permitted to be contained
 588:/Library/DaisyToolchain/0.2.0/arm/arm-none-eabi/include/c++/10.3.1/bits/stl_algobase.h ****    *  within [first,last).
 589:/Library/DaisyToolchain/0.2.0/arm/arm-none-eabi/include/c++/10.3.1/bits/stl_algobase.h ****   */
 590:/Library/DaisyToolchain/0.2.0/arm/arm-none-eabi/include/c++/10.3.1/bits/stl_algobase.h ****   template<typename _II, typename _OI>
 591:/Library/DaisyToolchain/0.2.0/arm/arm-none-eabi/include/c++/10.3.1/bits/stl_algobase.h ****     _GLIBCXX20_CONSTEXPR
 592:/Library/DaisyToolchain/0.2.0/arm/arm-none-eabi/include/c++/10.3.1/bits/stl_algobase.h ****     inline _OI
 593:/Library/DaisyToolchain/0.2.0/arm/arm-none-eabi/include/c++/10.3.1/bits/stl_algobase.h ****     move(_II __first, _II __last, _OI __result)
 594:/Library/DaisyToolchain/0.2.0/arm/arm-none-eabi/include/c++/10.3.1/bits/stl_algobase.h ****     {
 595:/Library/DaisyToolchain/0.2.0/arm/arm-none-eabi/include/c++/10.3.1/bits/stl_algobase.h ****       // concept requirements
 596:/Library/DaisyToolchain/0.2.0/arm/arm-none-eabi/include/c++/10.3.1/bits/stl_algobase.h ****       __glibcxx_function_requires(_InputIteratorConcept<_II>)
 597:/Library/DaisyToolchain/0.2.0/arm/arm-none-eabi/include/c++/10.3.1/bits/stl_algobase.h ****       __glibcxx_function_requires(_OutputIteratorConcept<_OI,
 598:/Library/DaisyToolchain/0.2.0/arm/arm-none-eabi/include/c++/10.3.1/bits/stl_algobase.h **** 	    typename iterator_traits<_II>::value_type>)
 599:/Library/DaisyToolchain/0.2.0/arm/arm-none-eabi/include/c++/10.3.1/bits/stl_algobase.h ****       __glibcxx_requires_can_increment_range(__first, __last, __result);
ARM GAS  /var/folders/9s/8rp0_f2s1n31qbztm3b5_fdh0000gn/T//ccmN9iqX.s 			page 23


 600:/Library/DaisyToolchain/0.2.0/arm/arm-none-eabi/include/c++/10.3.1/bits/stl_algobase.h **** 
 601:/Library/DaisyToolchain/0.2.0/arm/arm-none-eabi/include/c++/10.3.1/bits/stl_algobase.h ****       return std::__copy_move_a<true>(std::__miter_base(__first),
 602:/Library/DaisyToolchain/0.2.0/arm/arm-none-eabi/include/c++/10.3.1/bits/stl_algobase.h **** 				      std::__miter_base(__last), __result);
 603:/Library/DaisyToolchain/0.2.0/arm/arm-none-eabi/include/c++/10.3.1/bits/stl_algobase.h ****     }
 604:/Library/DaisyToolchain/0.2.0/arm/arm-none-eabi/include/c++/10.3.1/bits/stl_algobase.h **** 
 605:/Library/DaisyToolchain/0.2.0/arm/arm-none-eabi/include/c++/10.3.1/bits/stl_algobase.h **** #define _GLIBCXX_MOVE3(_Tp, _Up, _Vp) std::move(_Tp, _Up, _Vp)
 606:/Library/DaisyToolchain/0.2.0/arm/arm-none-eabi/include/c++/10.3.1/bits/stl_algobase.h **** #else
 607:/Library/DaisyToolchain/0.2.0/arm/arm-none-eabi/include/c++/10.3.1/bits/stl_algobase.h **** #define _GLIBCXX_MOVE3(_Tp, _Up, _Vp) std::copy(_Tp, _Up, _Vp)
 608:/Library/DaisyToolchain/0.2.0/arm/arm-none-eabi/include/c++/10.3.1/bits/stl_algobase.h **** #endif
 609:/Library/DaisyToolchain/0.2.0/arm/arm-none-eabi/include/c++/10.3.1/bits/stl_algobase.h **** 
 610:/Library/DaisyToolchain/0.2.0/arm/arm-none-eabi/include/c++/10.3.1/bits/stl_algobase.h ****   template<bool _IsMove, bool _IsSimple, typename _Category>
 611:/Library/DaisyToolchain/0.2.0/arm/arm-none-eabi/include/c++/10.3.1/bits/stl_algobase.h ****     struct __copy_move_backward
 612:/Library/DaisyToolchain/0.2.0/arm/arm-none-eabi/include/c++/10.3.1/bits/stl_algobase.h ****     {
 613:/Library/DaisyToolchain/0.2.0/arm/arm-none-eabi/include/c++/10.3.1/bits/stl_algobase.h ****       template<typename _BI1, typename _BI2>
 614:/Library/DaisyToolchain/0.2.0/arm/arm-none-eabi/include/c++/10.3.1/bits/stl_algobase.h **** 	_GLIBCXX20_CONSTEXPR
 615:/Library/DaisyToolchain/0.2.0/arm/arm-none-eabi/include/c++/10.3.1/bits/stl_algobase.h **** 	static _BI2
 616:/Library/DaisyToolchain/0.2.0/arm/arm-none-eabi/include/c++/10.3.1/bits/stl_algobase.h **** 	__copy_move_b(_BI1 __first, _BI1 __last, _BI2 __result)
 617:/Library/DaisyToolchain/0.2.0/arm/arm-none-eabi/include/c++/10.3.1/bits/stl_algobase.h **** 	{
 618:/Library/DaisyToolchain/0.2.0/arm/arm-none-eabi/include/c++/10.3.1/bits/stl_algobase.h **** 	  while (__first != __last)
 619:/Library/DaisyToolchain/0.2.0/arm/arm-none-eabi/include/c++/10.3.1/bits/stl_algobase.h **** 	    *--__result = *--__last;
 620:/Library/DaisyToolchain/0.2.0/arm/arm-none-eabi/include/c++/10.3.1/bits/stl_algobase.h **** 	  return __result;
 621:/Library/DaisyToolchain/0.2.0/arm/arm-none-eabi/include/c++/10.3.1/bits/stl_algobase.h **** 	}
 622:/Library/DaisyToolchain/0.2.0/arm/arm-none-eabi/include/c++/10.3.1/bits/stl_algobase.h ****     };
 623:/Library/DaisyToolchain/0.2.0/arm/arm-none-eabi/include/c++/10.3.1/bits/stl_algobase.h **** 
 624:/Library/DaisyToolchain/0.2.0/arm/arm-none-eabi/include/c++/10.3.1/bits/stl_algobase.h **** #if __cplusplus >= 201103L
 625:/Library/DaisyToolchain/0.2.0/arm/arm-none-eabi/include/c++/10.3.1/bits/stl_algobase.h ****   template<typename _Category>
 626:/Library/DaisyToolchain/0.2.0/arm/arm-none-eabi/include/c++/10.3.1/bits/stl_algobase.h ****     struct __copy_move_backward<true, false, _Category>
 627:/Library/DaisyToolchain/0.2.0/arm/arm-none-eabi/include/c++/10.3.1/bits/stl_algobase.h ****     {
 628:/Library/DaisyToolchain/0.2.0/arm/arm-none-eabi/include/c++/10.3.1/bits/stl_algobase.h ****       template<typename _BI1, typename _BI2>
 629:/Library/DaisyToolchain/0.2.0/arm/arm-none-eabi/include/c++/10.3.1/bits/stl_algobase.h **** 	_GLIBCXX20_CONSTEXPR
 630:/Library/DaisyToolchain/0.2.0/arm/arm-none-eabi/include/c++/10.3.1/bits/stl_algobase.h **** 	static _BI2
 631:/Library/DaisyToolchain/0.2.0/arm/arm-none-eabi/include/c++/10.3.1/bits/stl_algobase.h **** 	__copy_move_b(_BI1 __first, _BI1 __last, _BI2 __result)
 632:/Library/DaisyToolchain/0.2.0/arm/arm-none-eabi/include/c++/10.3.1/bits/stl_algobase.h **** 	{
 633:/Library/DaisyToolchain/0.2.0/arm/arm-none-eabi/include/c++/10.3.1/bits/stl_algobase.h **** 	  while (__first != __last)
 634:/Library/DaisyToolchain/0.2.0/arm/arm-none-eabi/include/c++/10.3.1/bits/stl_algobase.h **** 	    *--__result = std::move(*--__last);
 635:/Library/DaisyToolchain/0.2.0/arm/arm-none-eabi/include/c++/10.3.1/bits/stl_algobase.h **** 	  return __result;
 636:/Library/DaisyToolchain/0.2.0/arm/arm-none-eabi/include/c++/10.3.1/bits/stl_algobase.h **** 	}
 637:/Library/DaisyToolchain/0.2.0/arm/arm-none-eabi/include/c++/10.3.1/bits/stl_algobase.h ****     };
 638:/Library/DaisyToolchain/0.2.0/arm/arm-none-eabi/include/c++/10.3.1/bits/stl_algobase.h **** #endif
 639:/Library/DaisyToolchain/0.2.0/arm/arm-none-eabi/include/c++/10.3.1/bits/stl_algobase.h **** 
 640:/Library/DaisyToolchain/0.2.0/arm/arm-none-eabi/include/c++/10.3.1/bits/stl_algobase.h ****   template<>
 641:/Library/DaisyToolchain/0.2.0/arm/arm-none-eabi/include/c++/10.3.1/bits/stl_algobase.h ****     struct __copy_move_backward<false, false, random_access_iterator_tag>
 642:/Library/DaisyToolchain/0.2.0/arm/arm-none-eabi/include/c++/10.3.1/bits/stl_algobase.h ****     {
 643:/Library/DaisyToolchain/0.2.0/arm/arm-none-eabi/include/c++/10.3.1/bits/stl_algobase.h ****       template<typename _BI1, typename _BI2>
 644:/Library/DaisyToolchain/0.2.0/arm/arm-none-eabi/include/c++/10.3.1/bits/stl_algobase.h **** 	_GLIBCXX20_CONSTEXPR
 645:/Library/DaisyToolchain/0.2.0/arm/arm-none-eabi/include/c++/10.3.1/bits/stl_algobase.h **** 	static _BI2
 646:/Library/DaisyToolchain/0.2.0/arm/arm-none-eabi/include/c++/10.3.1/bits/stl_algobase.h **** 	__copy_move_b(_BI1 __first, _BI1 __last, _BI2 __result)
 647:/Library/DaisyToolchain/0.2.0/arm/arm-none-eabi/include/c++/10.3.1/bits/stl_algobase.h **** 	{
 648:/Library/DaisyToolchain/0.2.0/arm/arm-none-eabi/include/c++/10.3.1/bits/stl_algobase.h **** 	  typename iterator_traits<_BI1>::difference_type
 649:/Library/DaisyToolchain/0.2.0/arm/arm-none-eabi/include/c++/10.3.1/bits/stl_algobase.h **** 	    __n = __last - __first;
 650:/Library/DaisyToolchain/0.2.0/arm/arm-none-eabi/include/c++/10.3.1/bits/stl_algobase.h **** 	  for (; __n > 0; --__n)
 651:/Library/DaisyToolchain/0.2.0/arm/arm-none-eabi/include/c++/10.3.1/bits/stl_algobase.h **** 	    *--__result = *--__last;
 652:/Library/DaisyToolchain/0.2.0/arm/arm-none-eabi/include/c++/10.3.1/bits/stl_algobase.h **** 	  return __result;
 653:/Library/DaisyToolchain/0.2.0/arm/arm-none-eabi/include/c++/10.3.1/bits/stl_algobase.h **** 	}
 654:/Library/DaisyToolchain/0.2.0/arm/arm-none-eabi/include/c++/10.3.1/bits/stl_algobase.h ****     };
 655:/Library/DaisyToolchain/0.2.0/arm/arm-none-eabi/include/c++/10.3.1/bits/stl_algobase.h **** 
 656:/Library/DaisyToolchain/0.2.0/arm/arm-none-eabi/include/c++/10.3.1/bits/stl_algobase.h **** #if __cplusplus >= 201103L
ARM GAS  /var/folders/9s/8rp0_f2s1n31qbztm3b5_fdh0000gn/T//ccmN9iqX.s 			page 24


 657:/Library/DaisyToolchain/0.2.0/arm/arm-none-eabi/include/c++/10.3.1/bits/stl_algobase.h ****   template<>
 658:/Library/DaisyToolchain/0.2.0/arm/arm-none-eabi/include/c++/10.3.1/bits/stl_algobase.h ****     struct __copy_move_backward<true, false, random_access_iterator_tag>
 659:/Library/DaisyToolchain/0.2.0/arm/arm-none-eabi/include/c++/10.3.1/bits/stl_algobase.h ****     {
 660:/Library/DaisyToolchain/0.2.0/arm/arm-none-eabi/include/c++/10.3.1/bits/stl_algobase.h ****       template<typename _BI1, typename _BI2>
 661:/Library/DaisyToolchain/0.2.0/arm/arm-none-eabi/include/c++/10.3.1/bits/stl_algobase.h **** 	_GLIBCXX20_CONSTEXPR
 662:/Library/DaisyToolchain/0.2.0/arm/arm-none-eabi/include/c++/10.3.1/bits/stl_algobase.h **** 	static _BI2
 663:/Library/DaisyToolchain/0.2.0/arm/arm-none-eabi/include/c++/10.3.1/bits/stl_algobase.h **** 	__copy_move_b(_BI1 __first, _BI1 __last, _BI2 __result)
 664:/Library/DaisyToolchain/0.2.0/arm/arm-none-eabi/include/c++/10.3.1/bits/stl_algobase.h **** 	{
 665:/Library/DaisyToolchain/0.2.0/arm/arm-none-eabi/include/c++/10.3.1/bits/stl_algobase.h **** 	  typename iterator_traits<_BI1>::difference_type
 666:/Library/DaisyToolchain/0.2.0/arm/arm-none-eabi/include/c++/10.3.1/bits/stl_algobase.h **** 	    __n = __last - __first;
 667:/Library/DaisyToolchain/0.2.0/arm/arm-none-eabi/include/c++/10.3.1/bits/stl_algobase.h **** 	  for (; __n > 0; --__n)
 668:/Library/DaisyToolchain/0.2.0/arm/arm-none-eabi/include/c++/10.3.1/bits/stl_algobase.h **** 	    *--__result = std::move(*--__last);
 669:/Library/DaisyToolchain/0.2.0/arm/arm-none-eabi/include/c++/10.3.1/bits/stl_algobase.h **** 	  return __result;
 670:/Library/DaisyToolchain/0.2.0/arm/arm-none-eabi/include/c++/10.3.1/bits/stl_algobase.h **** 	}
 671:/Library/DaisyToolchain/0.2.0/arm/arm-none-eabi/include/c++/10.3.1/bits/stl_algobase.h ****     };
 672:/Library/DaisyToolchain/0.2.0/arm/arm-none-eabi/include/c++/10.3.1/bits/stl_algobase.h **** #endif
 673:/Library/DaisyToolchain/0.2.0/arm/arm-none-eabi/include/c++/10.3.1/bits/stl_algobase.h **** 
 674:/Library/DaisyToolchain/0.2.0/arm/arm-none-eabi/include/c++/10.3.1/bits/stl_algobase.h ****   template<bool _IsMove>
 675:/Library/DaisyToolchain/0.2.0/arm/arm-none-eabi/include/c++/10.3.1/bits/stl_algobase.h ****     struct __copy_move_backward<_IsMove, true, random_access_iterator_tag>
 676:/Library/DaisyToolchain/0.2.0/arm/arm-none-eabi/include/c++/10.3.1/bits/stl_algobase.h ****     {
 677:/Library/DaisyToolchain/0.2.0/arm/arm-none-eabi/include/c++/10.3.1/bits/stl_algobase.h ****       template<typename _Tp>
 678:/Library/DaisyToolchain/0.2.0/arm/arm-none-eabi/include/c++/10.3.1/bits/stl_algobase.h **** 	_GLIBCXX20_CONSTEXPR
 679:/Library/DaisyToolchain/0.2.0/arm/arm-none-eabi/include/c++/10.3.1/bits/stl_algobase.h **** 	static _Tp*
 680:/Library/DaisyToolchain/0.2.0/arm/arm-none-eabi/include/c++/10.3.1/bits/stl_algobase.h **** 	__copy_move_b(const _Tp* __first, const _Tp* __last, _Tp* __result)
 681:/Library/DaisyToolchain/0.2.0/arm/arm-none-eabi/include/c++/10.3.1/bits/stl_algobase.h **** 	{
 682:/Library/DaisyToolchain/0.2.0/arm/arm-none-eabi/include/c++/10.3.1/bits/stl_algobase.h **** #if __cplusplus >= 201103L
 683:/Library/DaisyToolchain/0.2.0/arm/arm-none-eabi/include/c++/10.3.1/bits/stl_algobase.h **** 	  using __assignable = conditional<_IsMove,
 684:/Library/DaisyToolchain/0.2.0/arm/arm-none-eabi/include/c++/10.3.1/bits/stl_algobase.h **** 					   is_move_assignable<_Tp>,
 685:/Library/DaisyToolchain/0.2.0/arm/arm-none-eabi/include/c++/10.3.1/bits/stl_algobase.h **** 					   is_copy_assignable<_Tp>>;
 686:/Library/DaisyToolchain/0.2.0/arm/arm-none-eabi/include/c++/10.3.1/bits/stl_algobase.h **** 	  // trivial types can have deleted assignment
 687:/Library/DaisyToolchain/0.2.0/arm/arm-none-eabi/include/c++/10.3.1/bits/stl_algobase.h **** 	  static_assert( __assignable::type::value, "type is not assignable" );
 688:/Library/DaisyToolchain/0.2.0/arm/arm-none-eabi/include/c++/10.3.1/bits/stl_algobase.h **** #endif
 689:/Library/DaisyToolchain/0.2.0/arm/arm-none-eabi/include/c++/10.3.1/bits/stl_algobase.h **** 	  const ptrdiff_t _Num = __last - __first;
 690:/Library/DaisyToolchain/0.2.0/arm/arm-none-eabi/include/c++/10.3.1/bits/stl_algobase.h **** 	  if (_Num)
 691:/Library/DaisyToolchain/0.2.0/arm/arm-none-eabi/include/c++/10.3.1/bits/stl_algobase.h **** 	    __builtin_memmove(__result - _Num, __first, sizeof(_Tp) * _Num);
 692:/Library/DaisyToolchain/0.2.0/arm/arm-none-eabi/include/c++/10.3.1/bits/stl_algobase.h **** 	  return __result - _Num;
 693:/Library/DaisyToolchain/0.2.0/arm/arm-none-eabi/include/c++/10.3.1/bits/stl_algobase.h **** 	}
 694:/Library/DaisyToolchain/0.2.0/arm/arm-none-eabi/include/c++/10.3.1/bits/stl_algobase.h ****     };
 695:/Library/DaisyToolchain/0.2.0/arm/arm-none-eabi/include/c++/10.3.1/bits/stl_algobase.h **** 
 696:/Library/DaisyToolchain/0.2.0/arm/arm-none-eabi/include/c++/10.3.1/bits/stl_algobase.h ****   template<bool _IsMove, typename _BI1, typename _BI2>
 697:/Library/DaisyToolchain/0.2.0/arm/arm-none-eabi/include/c++/10.3.1/bits/stl_algobase.h ****     _GLIBCXX20_CONSTEXPR
 698:/Library/DaisyToolchain/0.2.0/arm/arm-none-eabi/include/c++/10.3.1/bits/stl_algobase.h ****     inline _BI2
 699:/Library/DaisyToolchain/0.2.0/arm/arm-none-eabi/include/c++/10.3.1/bits/stl_algobase.h ****     __copy_move_backward_a2(_BI1 __first, _BI1 __last, _BI2 __result)
 700:/Library/DaisyToolchain/0.2.0/arm/arm-none-eabi/include/c++/10.3.1/bits/stl_algobase.h ****     {
 701:/Library/DaisyToolchain/0.2.0/arm/arm-none-eabi/include/c++/10.3.1/bits/stl_algobase.h ****       typedef typename iterator_traits<_BI1>::iterator_category _Category;
 702:/Library/DaisyToolchain/0.2.0/arm/arm-none-eabi/include/c++/10.3.1/bits/stl_algobase.h **** #ifdef __cpp_lib_is_constant_evaluated
 703:/Library/DaisyToolchain/0.2.0/arm/arm-none-eabi/include/c++/10.3.1/bits/stl_algobase.h ****       if (std::is_constant_evaluated())
 704:/Library/DaisyToolchain/0.2.0/arm/arm-none-eabi/include/c++/10.3.1/bits/stl_algobase.h **** 	return std::__copy_move_backward<_IsMove, false, _Category>::
 705:/Library/DaisyToolchain/0.2.0/arm/arm-none-eabi/include/c++/10.3.1/bits/stl_algobase.h **** 	  __copy_move_b(__first, __last, __result);
 706:/Library/DaisyToolchain/0.2.0/arm/arm-none-eabi/include/c++/10.3.1/bits/stl_algobase.h **** #endif
 707:/Library/DaisyToolchain/0.2.0/arm/arm-none-eabi/include/c++/10.3.1/bits/stl_algobase.h ****       return std::__copy_move_backward<_IsMove,
 708:/Library/DaisyToolchain/0.2.0/arm/arm-none-eabi/include/c++/10.3.1/bits/stl_algobase.h **** 				       __memcpyable<_BI2, _BI1>::__value,
 709:/Library/DaisyToolchain/0.2.0/arm/arm-none-eabi/include/c++/10.3.1/bits/stl_algobase.h **** 				       _Category>::__copy_move_b(__first,
 710:/Library/DaisyToolchain/0.2.0/arm/arm-none-eabi/include/c++/10.3.1/bits/stl_algobase.h **** 								 __last,
 711:/Library/DaisyToolchain/0.2.0/arm/arm-none-eabi/include/c++/10.3.1/bits/stl_algobase.h **** 								 __result);
 712:/Library/DaisyToolchain/0.2.0/arm/arm-none-eabi/include/c++/10.3.1/bits/stl_algobase.h ****     }
 713:/Library/DaisyToolchain/0.2.0/arm/arm-none-eabi/include/c++/10.3.1/bits/stl_algobase.h **** 
ARM GAS  /var/folders/9s/8rp0_f2s1n31qbztm3b5_fdh0000gn/T//ccmN9iqX.s 			page 25


 714:/Library/DaisyToolchain/0.2.0/arm/arm-none-eabi/include/c++/10.3.1/bits/stl_algobase.h ****   template<bool _IsMove, typename _BI1, typename _BI2>
 715:/Library/DaisyToolchain/0.2.0/arm/arm-none-eabi/include/c++/10.3.1/bits/stl_algobase.h ****     _GLIBCXX20_CONSTEXPR
 716:/Library/DaisyToolchain/0.2.0/arm/arm-none-eabi/include/c++/10.3.1/bits/stl_algobase.h ****     inline _BI2
 717:/Library/DaisyToolchain/0.2.0/arm/arm-none-eabi/include/c++/10.3.1/bits/stl_algobase.h ****     __copy_move_backward_a1(_BI1 __first, _BI1 __last, _BI2 __result)
 718:/Library/DaisyToolchain/0.2.0/arm/arm-none-eabi/include/c++/10.3.1/bits/stl_algobase.h ****     { return std::__copy_move_backward_a2<_IsMove>(__first, __last, __result); }
 719:/Library/DaisyToolchain/0.2.0/arm/arm-none-eabi/include/c++/10.3.1/bits/stl_algobase.h **** 
 720:/Library/DaisyToolchain/0.2.0/arm/arm-none-eabi/include/c++/10.3.1/bits/stl_algobase.h ****   template<bool _IsMove,
 721:/Library/DaisyToolchain/0.2.0/arm/arm-none-eabi/include/c++/10.3.1/bits/stl_algobase.h **** 	   typename _Tp, typename _Ref, typename _Ptr, typename _OI>
 722:/Library/DaisyToolchain/0.2.0/arm/arm-none-eabi/include/c++/10.3.1/bits/stl_algobase.h ****     _OI
 723:/Library/DaisyToolchain/0.2.0/arm/arm-none-eabi/include/c++/10.3.1/bits/stl_algobase.h ****     __copy_move_backward_a1(_GLIBCXX_STD_C::_Deque_iterator<_Tp, _Ref, _Ptr>,
 724:/Library/DaisyToolchain/0.2.0/arm/arm-none-eabi/include/c++/10.3.1/bits/stl_algobase.h **** 			    _GLIBCXX_STD_C::_Deque_iterator<_Tp, _Ref, _Ptr>,
 725:/Library/DaisyToolchain/0.2.0/arm/arm-none-eabi/include/c++/10.3.1/bits/stl_algobase.h **** 			    _OI);
 726:/Library/DaisyToolchain/0.2.0/arm/arm-none-eabi/include/c++/10.3.1/bits/stl_algobase.h **** 
 727:/Library/DaisyToolchain/0.2.0/arm/arm-none-eabi/include/c++/10.3.1/bits/stl_algobase.h ****   template<bool _IsMove,
 728:/Library/DaisyToolchain/0.2.0/arm/arm-none-eabi/include/c++/10.3.1/bits/stl_algobase.h **** 	   typename _ITp, typename _IRef, typename _IPtr, typename _OTp>
 729:/Library/DaisyToolchain/0.2.0/arm/arm-none-eabi/include/c++/10.3.1/bits/stl_algobase.h ****     _GLIBCXX_STD_C::_Deque_iterator<_OTp, _OTp&, _OTp*>
 730:/Library/DaisyToolchain/0.2.0/arm/arm-none-eabi/include/c++/10.3.1/bits/stl_algobase.h ****     __copy_move_backward_a1(
 731:/Library/DaisyToolchain/0.2.0/arm/arm-none-eabi/include/c++/10.3.1/bits/stl_algobase.h **** 			_GLIBCXX_STD_C::_Deque_iterator<_ITp, _IRef, _IPtr>,
 732:/Library/DaisyToolchain/0.2.0/arm/arm-none-eabi/include/c++/10.3.1/bits/stl_algobase.h **** 			_GLIBCXX_STD_C::_Deque_iterator<_ITp, _IRef, _IPtr>,
 733:/Library/DaisyToolchain/0.2.0/arm/arm-none-eabi/include/c++/10.3.1/bits/stl_algobase.h **** 			_GLIBCXX_STD_C::_Deque_iterator<_OTp, _OTp&, _OTp*>);
 734:/Library/DaisyToolchain/0.2.0/arm/arm-none-eabi/include/c++/10.3.1/bits/stl_algobase.h **** 
 735:/Library/DaisyToolchain/0.2.0/arm/arm-none-eabi/include/c++/10.3.1/bits/stl_algobase.h ****   template<bool _IsMove, typename _II, typename _Tp>
 736:/Library/DaisyToolchain/0.2.0/arm/arm-none-eabi/include/c++/10.3.1/bits/stl_algobase.h ****     typename __gnu_cxx::__enable_if<
 737:/Library/DaisyToolchain/0.2.0/arm/arm-none-eabi/include/c++/10.3.1/bits/stl_algobase.h ****       __is_random_access_iter<_II>::__value,
 738:/Library/DaisyToolchain/0.2.0/arm/arm-none-eabi/include/c++/10.3.1/bits/stl_algobase.h ****       _GLIBCXX_STD_C::_Deque_iterator<_Tp, _Tp&, _Tp*> >::__type
 739:/Library/DaisyToolchain/0.2.0/arm/arm-none-eabi/include/c++/10.3.1/bits/stl_algobase.h ****     __copy_move_backward_a1(_II, _II,
 740:/Library/DaisyToolchain/0.2.0/arm/arm-none-eabi/include/c++/10.3.1/bits/stl_algobase.h **** 			    _GLIBCXX_STD_C::_Deque_iterator<_Tp, _Tp&, _Tp*>);
 741:/Library/DaisyToolchain/0.2.0/arm/arm-none-eabi/include/c++/10.3.1/bits/stl_algobase.h **** 
 742:/Library/DaisyToolchain/0.2.0/arm/arm-none-eabi/include/c++/10.3.1/bits/stl_algobase.h ****   template<bool _IsMove, typename _II, typename _OI>
 743:/Library/DaisyToolchain/0.2.0/arm/arm-none-eabi/include/c++/10.3.1/bits/stl_algobase.h ****     _GLIBCXX20_CONSTEXPR
 744:/Library/DaisyToolchain/0.2.0/arm/arm-none-eabi/include/c++/10.3.1/bits/stl_algobase.h ****     inline _OI
 745:/Library/DaisyToolchain/0.2.0/arm/arm-none-eabi/include/c++/10.3.1/bits/stl_algobase.h ****     __copy_move_backward_a(_II __first, _II __last, _OI __result)
 746:/Library/DaisyToolchain/0.2.0/arm/arm-none-eabi/include/c++/10.3.1/bits/stl_algobase.h ****     {
 747:/Library/DaisyToolchain/0.2.0/arm/arm-none-eabi/include/c++/10.3.1/bits/stl_algobase.h ****       return std::__niter_wrap(__result,
 748:/Library/DaisyToolchain/0.2.0/arm/arm-none-eabi/include/c++/10.3.1/bits/stl_algobase.h **** 		std::__copy_move_backward_a1<_IsMove>
 749:/Library/DaisyToolchain/0.2.0/arm/arm-none-eabi/include/c++/10.3.1/bits/stl_algobase.h **** 		  (std::__niter_base(__first), std::__niter_base(__last),
 750:/Library/DaisyToolchain/0.2.0/arm/arm-none-eabi/include/c++/10.3.1/bits/stl_algobase.h **** 		   std::__niter_base(__result)));
 751:/Library/DaisyToolchain/0.2.0/arm/arm-none-eabi/include/c++/10.3.1/bits/stl_algobase.h ****     }
 752:/Library/DaisyToolchain/0.2.0/arm/arm-none-eabi/include/c++/10.3.1/bits/stl_algobase.h **** 
 753:/Library/DaisyToolchain/0.2.0/arm/arm-none-eabi/include/c++/10.3.1/bits/stl_algobase.h ****   template<bool _IsMove,
 754:/Library/DaisyToolchain/0.2.0/arm/arm-none-eabi/include/c++/10.3.1/bits/stl_algobase.h **** 	   typename _Ite, typename _Seq, typename _Cat, typename _OI>
 755:/Library/DaisyToolchain/0.2.0/arm/arm-none-eabi/include/c++/10.3.1/bits/stl_algobase.h ****     _OI
 756:/Library/DaisyToolchain/0.2.0/arm/arm-none-eabi/include/c++/10.3.1/bits/stl_algobase.h ****     __copy_move_backward_a(
 757:/Library/DaisyToolchain/0.2.0/arm/arm-none-eabi/include/c++/10.3.1/bits/stl_algobase.h **** 		const ::__gnu_debug::_Safe_iterator<_Ite, _Seq, _Cat>&,
 758:/Library/DaisyToolchain/0.2.0/arm/arm-none-eabi/include/c++/10.3.1/bits/stl_algobase.h **** 		const ::__gnu_debug::_Safe_iterator<_Ite, _Seq, _Cat>&,
 759:/Library/DaisyToolchain/0.2.0/arm/arm-none-eabi/include/c++/10.3.1/bits/stl_algobase.h **** 		_OI);
 760:/Library/DaisyToolchain/0.2.0/arm/arm-none-eabi/include/c++/10.3.1/bits/stl_algobase.h **** 
 761:/Library/DaisyToolchain/0.2.0/arm/arm-none-eabi/include/c++/10.3.1/bits/stl_algobase.h ****   template<bool _IsMove,
 762:/Library/DaisyToolchain/0.2.0/arm/arm-none-eabi/include/c++/10.3.1/bits/stl_algobase.h **** 	   typename _II, typename _Ite, typename _Seq, typename _Cat>
 763:/Library/DaisyToolchain/0.2.0/arm/arm-none-eabi/include/c++/10.3.1/bits/stl_algobase.h ****     __gnu_debug::_Safe_iterator<_Ite, _Seq, _Cat>
 764:/Library/DaisyToolchain/0.2.0/arm/arm-none-eabi/include/c++/10.3.1/bits/stl_algobase.h ****     __copy_move_backward_a(_II, _II,
 765:/Library/DaisyToolchain/0.2.0/arm/arm-none-eabi/include/c++/10.3.1/bits/stl_algobase.h **** 		const ::__gnu_debug::_Safe_iterator<_Ite, _Seq, _Cat>&);
 766:/Library/DaisyToolchain/0.2.0/arm/arm-none-eabi/include/c++/10.3.1/bits/stl_algobase.h **** 
 767:/Library/DaisyToolchain/0.2.0/arm/arm-none-eabi/include/c++/10.3.1/bits/stl_algobase.h ****   template<bool _IsMove,
 768:/Library/DaisyToolchain/0.2.0/arm/arm-none-eabi/include/c++/10.3.1/bits/stl_algobase.h **** 	   typename _IIte, typename _ISeq, typename _ICat,
 769:/Library/DaisyToolchain/0.2.0/arm/arm-none-eabi/include/c++/10.3.1/bits/stl_algobase.h **** 	   typename _OIte, typename _OSeq, typename _OCat>
 770:/Library/DaisyToolchain/0.2.0/arm/arm-none-eabi/include/c++/10.3.1/bits/stl_algobase.h ****     ::__gnu_debug::_Safe_iterator<_OIte, _OSeq, _OCat>
ARM GAS  /var/folders/9s/8rp0_f2s1n31qbztm3b5_fdh0000gn/T//ccmN9iqX.s 			page 26


 771:/Library/DaisyToolchain/0.2.0/arm/arm-none-eabi/include/c++/10.3.1/bits/stl_algobase.h ****     __copy_move_backward_a(
 772:/Library/DaisyToolchain/0.2.0/arm/arm-none-eabi/include/c++/10.3.1/bits/stl_algobase.h **** 		const ::__gnu_debug::_Safe_iterator<_IIte, _ISeq, _ICat>&,
 773:/Library/DaisyToolchain/0.2.0/arm/arm-none-eabi/include/c++/10.3.1/bits/stl_algobase.h **** 		const ::__gnu_debug::_Safe_iterator<_IIte, _ISeq, _ICat>&,
 774:/Library/DaisyToolchain/0.2.0/arm/arm-none-eabi/include/c++/10.3.1/bits/stl_algobase.h **** 		const ::__gnu_debug::_Safe_iterator<_OIte, _OSeq, _OCat>&);
 775:/Library/DaisyToolchain/0.2.0/arm/arm-none-eabi/include/c++/10.3.1/bits/stl_algobase.h **** 
 776:/Library/DaisyToolchain/0.2.0/arm/arm-none-eabi/include/c++/10.3.1/bits/stl_algobase.h ****   /**
 777:/Library/DaisyToolchain/0.2.0/arm/arm-none-eabi/include/c++/10.3.1/bits/stl_algobase.h ****    *  @brief Copies the range [first,last) into result.
 778:/Library/DaisyToolchain/0.2.0/arm/arm-none-eabi/include/c++/10.3.1/bits/stl_algobase.h ****    *  @ingroup mutating_algorithms
 779:/Library/DaisyToolchain/0.2.0/arm/arm-none-eabi/include/c++/10.3.1/bits/stl_algobase.h ****    *  @param  __first  A bidirectional iterator.
 780:/Library/DaisyToolchain/0.2.0/arm/arm-none-eabi/include/c++/10.3.1/bits/stl_algobase.h ****    *  @param  __last   A bidirectional iterator.
 781:/Library/DaisyToolchain/0.2.0/arm/arm-none-eabi/include/c++/10.3.1/bits/stl_algobase.h ****    *  @param  __result A bidirectional iterator.
 782:/Library/DaisyToolchain/0.2.0/arm/arm-none-eabi/include/c++/10.3.1/bits/stl_algobase.h ****    *  @return   result - (last - first)
 783:/Library/DaisyToolchain/0.2.0/arm/arm-none-eabi/include/c++/10.3.1/bits/stl_algobase.h ****    *
 784:/Library/DaisyToolchain/0.2.0/arm/arm-none-eabi/include/c++/10.3.1/bits/stl_algobase.h ****    *  The function has the same effect as copy, but starts at the end of the
 785:/Library/DaisyToolchain/0.2.0/arm/arm-none-eabi/include/c++/10.3.1/bits/stl_algobase.h ****    *  range and works its way to the start, returning the start of the result.
 786:/Library/DaisyToolchain/0.2.0/arm/arm-none-eabi/include/c++/10.3.1/bits/stl_algobase.h ****    *  This inline function will boil down to a call to @c memmove whenever
 787:/Library/DaisyToolchain/0.2.0/arm/arm-none-eabi/include/c++/10.3.1/bits/stl_algobase.h ****    *  possible.  Failing that, if random access iterators are passed, then the
 788:/Library/DaisyToolchain/0.2.0/arm/arm-none-eabi/include/c++/10.3.1/bits/stl_algobase.h ****    *  loop count will be known (and therefore a candidate for compiler
 789:/Library/DaisyToolchain/0.2.0/arm/arm-none-eabi/include/c++/10.3.1/bits/stl_algobase.h ****    *  optimizations such as unrolling).
 790:/Library/DaisyToolchain/0.2.0/arm/arm-none-eabi/include/c++/10.3.1/bits/stl_algobase.h ****    *
 791:/Library/DaisyToolchain/0.2.0/arm/arm-none-eabi/include/c++/10.3.1/bits/stl_algobase.h ****    *  Result may not be in the range (first,last].  Use copy instead.  Note
 792:/Library/DaisyToolchain/0.2.0/arm/arm-none-eabi/include/c++/10.3.1/bits/stl_algobase.h ****    *  that the start of the output range may overlap [first,last).
 793:/Library/DaisyToolchain/0.2.0/arm/arm-none-eabi/include/c++/10.3.1/bits/stl_algobase.h ****   */
 794:/Library/DaisyToolchain/0.2.0/arm/arm-none-eabi/include/c++/10.3.1/bits/stl_algobase.h ****   template<typename _BI1, typename _BI2>
 795:/Library/DaisyToolchain/0.2.0/arm/arm-none-eabi/include/c++/10.3.1/bits/stl_algobase.h ****     _GLIBCXX20_CONSTEXPR
 796:/Library/DaisyToolchain/0.2.0/arm/arm-none-eabi/include/c++/10.3.1/bits/stl_algobase.h ****     inline _BI2
 797:/Library/DaisyToolchain/0.2.0/arm/arm-none-eabi/include/c++/10.3.1/bits/stl_algobase.h ****     copy_backward(_BI1 __first, _BI1 __last, _BI2 __result)
 798:/Library/DaisyToolchain/0.2.0/arm/arm-none-eabi/include/c++/10.3.1/bits/stl_algobase.h ****     {
 799:/Library/DaisyToolchain/0.2.0/arm/arm-none-eabi/include/c++/10.3.1/bits/stl_algobase.h ****       // concept requirements
 800:/Library/DaisyToolchain/0.2.0/arm/arm-none-eabi/include/c++/10.3.1/bits/stl_algobase.h ****       __glibcxx_function_requires(_BidirectionalIteratorConcept<_BI1>)
 801:/Library/DaisyToolchain/0.2.0/arm/arm-none-eabi/include/c++/10.3.1/bits/stl_algobase.h ****       __glibcxx_function_requires(_Mutable_BidirectionalIteratorConcept<_BI2>)
 802:/Library/DaisyToolchain/0.2.0/arm/arm-none-eabi/include/c++/10.3.1/bits/stl_algobase.h ****       __glibcxx_function_requires(_ConvertibleConcept<
 803:/Library/DaisyToolchain/0.2.0/arm/arm-none-eabi/include/c++/10.3.1/bits/stl_algobase.h **** 	    typename iterator_traits<_BI1>::value_type,
 804:/Library/DaisyToolchain/0.2.0/arm/arm-none-eabi/include/c++/10.3.1/bits/stl_algobase.h **** 	    typename iterator_traits<_BI2>::value_type>)
 805:/Library/DaisyToolchain/0.2.0/arm/arm-none-eabi/include/c++/10.3.1/bits/stl_algobase.h ****       __glibcxx_requires_can_decrement_range(__first, __last, __result);
 806:/Library/DaisyToolchain/0.2.0/arm/arm-none-eabi/include/c++/10.3.1/bits/stl_algobase.h **** 
 807:/Library/DaisyToolchain/0.2.0/arm/arm-none-eabi/include/c++/10.3.1/bits/stl_algobase.h ****       return std::__copy_move_backward_a<__is_move_iterator<_BI1>::__value>
 808:/Library/DaisyToolchain/0.2.0/arm/arm-none-eabi/include/c++/10.3.1/bits/stl_algobase.h **** 	     (std::__miter_base(__first), std::__miter_base(__last), __result);
 809:/Library/DaisyToolchain/0.2.0/arm/arm-none-eabi/include/c++/10.3.1/bits/stl_algobase.h ****     }
 810:/Library/DaisyToolchain/0.2.0/arm/arm-none-eabi/include/c++/10.3.1/bits/stl_algobase.h **** 
 811:/Library/DaisyToolchain/0.2.0/arm/arm-none-eabi/include/c++/10.3.1/bits/stl_algobase.h **** #if __cplusplus >= 201103L
 812:/Library/DaisyToolchain/0.2.0/arm/arm-none-eabi/include/c++/10.3.1/bits/stl_algobase.h ****   /**
 813:/Library/DaisyToolchain/0.2.0/arm/arm-none-eabi/include/c++/10.3.1/bits/stl_algobase.h ****    *  @brief Moves the range [first,last) into result.
 814:/Library/DaisyToolchain/0.2.0/arm/arm-none-eabi/include/c++/10.3.1/bits/stl_algobase.h ****    *  @ingroup mutating_algorithms
 815:/Library/DaisyToolchain/0.2.0/arm/arm-none-eabi/include/c++/10.3.1/bits/stl_algobase.h ****    *  @param  __first  A bidirectional iterator.
 816:/Library/DaisyToolchain/0.2.0/arm/arm-none-eabi/include/c++/10.3.1/bits/stl_algobase.h ****    *  @param  __last   A bidirectional iterator.
 817:/Library/DaisyToolchain/0.2.0/arm/arm-none-eabi/include/c++/10.3.1/bits/stl_algobase.h ****    *  @param  __result A bidirectional iterator.
 818:/Library/DaisyToolchain/0.2.0/arm/arm-none-eabi/include/c++/10.3.1/bits/stl_algobase.h ****    *  @return   result - (last - first)
 819:/Library/DaisyToolchain/0.2.0/arm/arm-none-eabi/include/c++/10.3.1/bits/stl_algobase.h ****    *
 820:/Library/DaisyToolchain/0.2.0/arm/arm-none-eabi/include/c++/10.3.1/bits/stl_algobase.h ****    *  The function has the same effect as move, but starts at the end of the
 821:/Library/DaisyToolchain/0.2.0/arm/arm-none-eabi/include/c++/10.3.1/bits/stl_algobase.h ****    *  range and works its way to the start, returning the start of the result.
 822:/Library/DaisyToolchain/0.2.0/arm/arm-none-eabi/include/c++/10.3.1/bits/stl_algobase.h ****    *  This inline function will boil down to a call to @c memmove whenever
 823:/Library/DaisyToolchain/0.2.0/arm/arm-none-eabi/include/c++/10.3.1/bits/stl_algobase.h ****    *  possible.  Failing that, if random access iterators are passed, then the
 824:/Library/DaisyToolchain/0.2.0/arm/arm-none-eabi/include/c++/10.3.1/bits/stl_algobase.h ****    *  loop count will be known (and therefore a candidate for compiler
 825:/Library/DaisyToolchain/0.2.0/arm/arm-none-eabi/include/c++/10.3.1/bits/stl_algobase.h ****    *  optimizations such as unrolling).
 826:/Library/DaisyToolchain/0.2.0/arm/arm-none-eabi/include/c++/10.3.1/bits/stl_algobase.h ****    *
 827:/Library/DaisyToolchain/0.2.0/arm/arm-none-eabi/include/c++/10.3.1/bits/stl_algobase.h ****    *  Result may not be in the range (first,last].  Use move instead.  Note
ARM GAS  /var/folders/9s/8rp0_f2s1n31qbztm3b5_fdh0000gn/T//ccmN9iqX.s 			page 27


 828:/Library/DaisyToolchain/0.2.0/arm/arm-none-eabi/include/c++/10.3.1/bits/stl_algobase.h ****    *  that the start of the output range may overlap [first,last).
 829:/Library/DaisyToolchain/0.2.0/arm/arm-none-eabi/include/c++/10.3.1/bits/stl_algobase.h ****   */
 830:/Library/DaisyToolchain/0.2.0/arm/arm-none-eabi/include/c++/10.3.1/bits/stl_algobase.h ****   template<typename _BI1, typename _BI2>
 831:/Library/DaisyToolchain/0.2.0/arm/arm-none-eabi/include/c++/10.3.1/bits/stl_algobase.h ****     _GLIBCXX20_CONSTEXPR
 832:/Library/DaisyToolchain/0.2.0/arm/arm-none-eabi/include/c++/10.3.1/bits/stl_algobase.h ****     inline _BI2
 833:/Library/DaisyToolchain/0.2.0/arm/arm-none-eabi/include/c++/10.3.1/bits/stl_algobase.h ****     move_backward(_BI1 __first, _BI1 __last, _BI2 __result)
 834:/Library/DaisyToolchain/0.2.0/arm/arm-none-eabi/include/c++/10.3.1/bits/stl_algobase.h ****     {
 835:/Library/DaisyToolchain/0.2.0/arm/arm-none-eabi/include/c++/10.3.1/bits/stl_algobase.h ****       // concept requirements
 836:/Library/DaisyToolchain/0.2.0/arm/arm-none-eabi/include/c++/10.3.1/bits/stl_algobase.h ****       __glibcxx_function_requires(_BidirectionalIteratorConcept<_BI1>)
 837:/Library/DaisyToolchain/0.2.0/arm/arm-none-eabi/include/c++/10.3.1/bits/stl_algobase.h ****       __glibcxx_function_requires(_Mutable_BidirectionalIteratorConcept<_BI2>)
 838:/Library/DaisyToolchain/0.2.0/arm/arm-none-eabi/include/c++/10.3.1/bits/stl_algobase.h ****       __glibcxx_function_requires(_ConvertibleConcept<
 839:/Library/DaisyToolchain/0.2.0/arm/arm-none-eabi/include/c++/10.3.1/bits/stl_algobase.h **** 	    typename iterator_traits<_BI1>::value_type,
 840:/Library/DaisyToolchain/0.2.0/arm/arm-none-eabi/include/c++/10.3.1/bits/stl_algobase.h **** 	    typename iterator_traits<_BI2>::value_type>)
 841:/Library/DaisyToolchain/0.2.0/arm/arm-none-eabi/include/c++/10.3.1/bits/stl_algobase.h ****       __glibcxx_requires_can_decrement_range(__first, __last, __result);
 842:/Library/DaisyToolchain/0.2.0/arm/arm-none-eabi/include/c++/10.3.1/bits/stl_algobase.h **** 
 843:/Library/DaisyToolchain/0.2.0/arm/arm-none-eabi/include/c++/10.3.1/bits/stl_algobase.h ****       return std::__copy_move_backward_a<true>(std::__miter_base(__first),
 844:/Library/DaisyToolchain/0.2.0/arm/arm-none-eabi/include/c++/10.3.1/bits/stl_algobase.h **** 					       std::__miter_base(__last),
 845:/Library/DaisyToolchain/0.2.0/arm/arm-none-eabi/include/c++/10.3.1/bits/stl_algobase.h **** 					       __result);
 846:/Library/DaisyToolchain/0.2.0/arm/arm-none-eabi/include/c++/10.3.1/bits/stl_algobase.h ****     }
 847:/Library/DaisyToolchain/0.2.0/arm/arm-none-eabi/include/c++/10.3.1/bits/stl_algobase.h **** 
 848:/Library/DaisyToolchain/0.2.0/arm/arm-none-eabi/include/c++/10.3.1/bits/stl_algobase.h **** #define _GLIBCXX_MOVE_BACKWARD3(_Tp, _Up, _Vp) std::move_backward(_Tp, _Up, _Vp)
 849:/Library/DaisyToolchain/0.2.0/arm/arm-none-eabi/include/c++/10.3.1/bits/stl_algobase.h **** #else
 850:/Library/DaisyToolchain/0.2.0/arm/arm-none-eabi/include/c++/10.3.1/bits/stl_algobase.h **** #define _GLIBCXX_MOVE_BACKWARD3(_Tp, _Up, _Vp) std::copy_backward(_Tp, _Up, _Vp)
 851:/Library/DaisyToolchain/0.2.0/arm/arm-none-eabi/include/c++/10.3.1/bits/stl_algobase.h **** #endif
 852:/Library/DaisyToolchain/0.2.0/arm/arm-none-eabi/include/c++/10.3.1/bits/stl_algobase.h **** 
 853:/Library/DaisyToolchain/0.2.0/arm/arm-none-eabi/include/c++/10.3.1/bits/stl_algobase.h ****   template<typename _ForwardIterator, typename _Tp>
 854:/Library/DaisyToolchain/0.2.0/arm/arm-none-eabi/include/c++/10.3.1/bits/stl_algobase.h ****     _GLIBCXX20_CONSTEXPR
 855:/Library/DaisyToolchain/0.2.0/arm/arm-none-eabi/include/c++/10.3.1/bits/stl_algobase.h ****     inline typename
 856:/Library/DaisyToolchain/0.2.0/arm/arm-none-eabi/include/c++/10.3.1/bits/stl_algobase.h ****     __gnu_cxx::__enable_if<!__is_scalar<_Tp>::__value, void>::__type
 857:/Library/DaisyToolchain/0.2.0/arm/arm-none-eabi/include/c++/10.3.1/bits/stl_algobase.h ****     __fill_a1(_ForwardIterator __first, _ForwardIterator __last,
 858:/Library/DaisyToolchain/0.2.0/arm/arm-none-eabi/include/c++/10.3.1/bits/stl_algobase.h **** 	      const _Tp& __value)
 859:/Library/DaisyToolchain/0.2.0/arm/arm-none-eabi/include/c++/10.3.1/bits/stl_algobase.h ****     {
 860:/Library/DaisyToolchain/0.2.0/arm/arm-none-eabi/include/c++/10.3.1/bits/stl_algobase.h ****       for (; __first != __last; ++__first)
 861:/Library/DaisyToolchain/0.2.0/arm/arm-none-eabi/include/c++/10.3.1/bits/stl_algobase.h **** 	*__first = __value;
 862:/Library/DaisyToolchain/0.2.0/arm/arm-none-eabi/include/c++/10.3.1/bits/stl_algobase.h ****     }
 863:/Library/DaisyToolchain/0.2.0/arm/arm-none-eabi/include/c++/10.3.1/bits/stl_algobase.h **** 
 864:/Library/DaisyToolchain/0.2.0/arm/arm-none-eabi/include/c++/10.3.1/bits/stl_algobase.h ****   template<typename _ForwardIterator, typename _Tp>
 865:/Library/DaisyToolchain/0.2.0/arm/arm-none-eabi/include/c++/10.3.1/bits/stl_algobase.h ****     _GLIBCXX20_CONSTEXPR
 866:/Library/DaisyToolchain/0.2.0/arm/arm-none-eabi/include/c++/10.3.1/bits/stl_algobase.h ****     inline typename
 867:/Library/DaisyToolchain/0.2.0/arm/arm-none-eabi/include/c++/10.3.1/bits/stl_algobase.h ****     __gnu_cxx::__enable_if<__is_scalar<_Tp>::__value, void>::__type
 868:/Library/DaisyToolchain/0.2.0/arm/arm-none-eabi/include/c++/10.3.1/bits/stl_algobase.h ****     __fill_a1(_ForwardIterator __first, _ForwardIterator __last,
 869:/Library/DaisyToolchain/0.2.0/arm/arm-none-eabi/include/c++/10.3.1/bits/stl_algobase.h **** 	      const _Tp& __value)
 870:/Library/DaisyToolchain/0.2.0/arm/arm-none-eabi/include/c++/10.3.1/bits/stl_algobase.h ****     {
 871:/Library/DaisyToolchain/0.2.0/arm/arm-none-eabi/include/c++/10.3.1/bits/stl_algobase.h ****       const _Tp __tmp = __value;
 872:/Library/DaisyToolchain/0.2.0/arm/arm-none-eabi/include/c++/10.3.1/bits/stl_algobase.h ****       for (; __first != __last; ++__first)
 873:/Library/DaisyToolchain/0.2.0/arm/arm-none-eabi/include/c++/10.3.1/bits/stl_algobase.h **** 	*__first = __tmp;
 297              		.loc 5 873 11 view .LVU83
 298 0006 8022     		movs	r2, #128
 299              	.LBE114:
 300              	.LBE113:
 301              	.LBE112:
 302              	.LBE111:
 127:eurorack/plaits/dsp/speech/lpc_speech_synth_controller.cc ****   num_words_ = 0;
 303              		.loc 4 127 14 view .LVU84
 304 0008 0161     		str	r1, [r0, #16]
 126:eurorack/plaits/dsp/speech/lpc_speech_synth_controller.cc ****   num_frames_ = 0;
 305              		.loc 4 126 15 view .LVU85
ARM GAS  /var/folders/9s/8rp0_f2s1n31qbztm3b5_fdh0000gn/T//ccmN9iqX.s 			page 28


 306 000a C0E90231 		strd	r3, r1, [r0, #8]
 307              		.loc 4 127 3 is_stmt 1 view .LVU86
 128:eurorack/plaits/dsp/speech/lpc_speech_synth_controller.cc ****   fill(
 308              		.loc 4 128 3 view .LVU87
 309              	.LVL26:
 310              	.LBB118:
 311              	.LBI111:
 874:/Library/DaisyToolchain/0.2.0/arm/arm-none-eabi/include/c++/10.3.1/bits/stl_algobase.h ****     }
 875:/Library/DaisyToolchain/0.2.0/arm/arm-none-eabi/include/c++/10.3.1/bits/stl_algobase.h **** 
 876:/Library/DaisyToolchain/0.2.0/arm/arm-none-eabi/include/c++/10.3.1/bits/stl_algobase.h ****   // Specialization: for char types we can use memset.
 877:/Library/DaisyToolchain/0.2.0/arm/arm-none-eabi/include/c++/10.3.1/bits/stl_algobase.h ****   template<typename _Tp>
 878:/Library/DaisyToolchain/0.2.0/arm/arm-none-eabi/include/c++/10.3.1/bits/stl_algobase.h ****     _GLIBCXX20_CONSTEXPR
 879:/Library/DaisyToolchain/0.2.0/arm/arm-none-eabi/include/c++/10.3.1/bits/stl_algobase.h ****     inline typename
 880:/Library/DaisyToolchain/0.2.0/arm/arm-none-eabi/include/c++/10.3.1/bits/stl_algobase.h ****     __gnu_cxx::__enable_if<__is_byte<_Tp>::__value, void>::__type
 881:/Library/DaisyToolchain/0.2.0/arm/arm-none-eabi/include/c++/10.3.1/bits/stl_algobase.h ****     __fill_a1(_Tp* __first, _Tp* __last, const _Tp& __c)
 882:/Library/DaisyToolchain/0.2.0/arm/arm-none-eabi/include/c++/10.3.1/bits/stl_algobase.h ****     {
 883:/Library/DaisyToolchain/0.2.0/arm/arm-none-eabi/include/c++/10.3.1/bits/stl_algobase.h ****       const _Tp __tmp = __c;
 884:/Library/DaisyToolchain/0.2.0/arm/arm-none-eabi/include/c++/10.3.1/bits/stl_algobase.h **** #if __cpp_lib_is_constant_evaluated
 885:/Library/DaisyToolchain/0.2.0/arm/arm-none-eabi/include/c++/10.3.1/bits/stl_algobase.h ****       if (std::is_constant_evaluated())
 886:/Library/DaisyToolchain/0.2.0/arm/arm-none-eabi/include/c++/10.3.1/bits/stl_algobase.h **** 	{
 887:/Library/DaisyToolchain/0.2.0/arm/arm-none-eabi/include/c++/10.3.1/bits/stl_algobase.h **** 	  for (; __first != __last; ++__first)
 888:/Library/DaisyToolchain/0.2.0/arm/arm-none-eabi/include/c++/10.3.1/bits/stl_algobase.h **** 	    *__first = __tmp;
 889:/Library/DaisyToolchain/0.2.0/arm/arm-none-eabi/include/c++/10.3.1/bits/stl_algobase.h **** 	  return;
 890:/Library/DaisyToolchain/0.2.0/arm/arm-none-eabi/include/c++/10.3.1/bits/stl_algobase.h **** 	}
 891:/Library/DaisyToolchain/0.2.0/arm/arm-none-eabi/include/c++/10.3.1/bits/stl_algobase.h **** #endif
 892:/Library/DaisyToolchain/0.2.0/arm/arm-none-eabi/include/c++/10.3.1/bits/stl_algobase.h ****       if (const size_t __len = __last - __first)
 893:/Library/DaisyToolchain/0.2.0/arm/arm-none-eabi/include/c++/10.3.1/bits/stl_algobase.h **** 	__builtin_memset(__first, static_cast<unsigned char>(__tmp), __len);
 894:/Library/DaisyToolchain/0.2.0/arm/arm-none-eabi/include/c++/10.3.1/bits/stl_algobase.h ****     }
 895:/Library/DaisyToolchain/0.2.0/arm/arm-none-eabi/include/c++/10.3.1/bits/stl_algobase.h **** 
 896:/Library/DaisyToolchain/0.2.0/arm/arm-none-eabi/include/c++/10.3.1/bits/stl_algobase.h ****   template<typename _Ite, typename _Cont, typename _Tp>
 897:/Library/DaisyToolchain/0.2.0/arm/arm-none-eabi/include/c++/10.3.1/bits/stl_algobase.h ****     _GLIBCXX20_CONSTEXPR
 898:/Library/DaisyToolchain/0.2.0/arm/arm-none-eabi/include/c++/10.3.1/bits/stl_algobase.h ****     inline void
 899:/Library/DaisyToolchain/0.2.0/arm/arm-none-eabi/include/c++/10.3.1/bits/stl_algobase.h ****     __fill_a1(::__gnu_cxx::__normal_iterator<_Ite, _Cont> __first,
 900:/Library/DaisyToolchain/0.2.0/arm/arm-none-eabi/include/c++/10.3.1/bits/stl_algobase.h **** 	      ::__gnu_cxx::__normal_iterator<_Ite, _Cont> __last,
 901:/Library/DaisyToolchain/0.2.0/arm/arm-none-eabi/include/c++/10.3.1/bits/stl_algobase.h **** 	      const _Tp& __value)
 902:/Library/DaisyToolchain/0.2.0/arm/arm-none-eabi/include/c++/10.3.1/bits/stl_algobase.h ****     { std::__fill_a1(__first.base(), __last.base(), __value); }
 903:/Library/DaisyToolchain/0.2.0/arm/arm-none-eabi/include/c++/10.3.1/bits/stl_algobase.h **** 
 904:/Library/DaisyToolchain/0.2.0/arm/arm-none-eabi/include/c++/10.3.1/bits/stl_algobase.h ****   template<typename _Tp, typename _VTp>
 905:/Library/DaisyToolchain/0.2.0/arm/arm-none-eabi/include/c++/10.3.1/bits/stl_algobase.h ****     void
 906:/Library/DaisyToolchain/0.2.0/arm/arm-none-eabi/include/c++/10.3.1/bits/stl_algobase.h ****     __fill_a1(const _GLIBCXX_STD_C::_Deque_iterator<_Tp, _Tp&, _Tp*>&,
 907:/Library/DaisyToolchain/0.2.0/arm/arm-none-eabi/include/c++/10.3.1/bits/stl_algobase.h **** 	      const _GLIBCXX_STD_C::_Deque_iterator<_Tp, _Tp&, _Tp*>&,
 908:/Library/DaisyToolchain/0.2.0/arm/arm-none-eabi/include/c++/10.3.1/bits/stl_algobase.h **** 	      const _VTp&);
 909:/Library/DaisyToolchain/0.2.0/arm/arm-none-eabi/include/c++/10.3.1/bits/stl_algobase.h **** 
 910:/Library/DaisyToolchain/0.2.0/arm/arm-none-eabi/include/c++/10.3.1/bits/stl_algobase.h ****   template<typename _FIte, typename _Tp>
 911:/Library/DaisyToolchain/0.2.0/arm/arm-none-eabi/include/c++/10.3.1/bits/stl_algobase.h ****     _GLIBCXX20_CONSTEXPR
 912:/Library/DaisyToolchain/0.2.0/arm/arm-none-eabi/include/c++/10.3.1/bits/stl_algobase.h ****     inline void
 913:/Library/DaisyToolchain/0.2.0/arm/arm-none-eabi/include/c++/10.3.1/bits/stl_algobase.h ****     __fill_a(_FIte __first, _FIte __last, const _Tp& __value)
 914:/Library/DaisyToolchain/0.2.0/arm/arm-none-eabi/include/c++/10.3.1/bits/stl_algobase.h ****     { std::__fill_a1(__first, __last, __value); }
 915:/Library/DaisyToolchain/0.2.0/arm/arm-none-eabi/include/c++/10.3.1/bits/stl_algobase.h **** 
 916:/Library/DaisyToolchain/0.2.0/arm/arm-none-eabi/include/c++/10.3.1/bits/stl_algobase.h ****   template<typename _Ite, typename _Seq, typename _Cat, typename _Tp>
 917:/Library/DaisyToolchain/0.2.0/arm/arm-none-eabi/include/c++/10.3.1/bits/stl_algobase.h ****     void
 918:/Library/DaisyToolchain/0.2.0/arm/arm-none-eabi/include/c++/10.3.1/bits/stl_algobase.h ****     __fill_a(const ::__gnu_debug::_Safe_iterator<_Ite, _Seq, _Cat>&,
 919:/Library/DaisyToolchain/0.2.0/arm/arm-none-eabi/include/c++/10.3.1/bits/stl_algobase.h **** 	     const ::__gnu_debug::_Safe_iterator<_Ite, _Seq, _Cat>&,
 920:/Library/DaisyToolchain/0.2.0/arm/arm-none-eabi/include/c++/10.3.1/bits/stl_algobase.h **** 	     const _Tp&);
 921:/Library/DaisyToolchain/0.2.0/arm/arm-none-eabi/include/c++/10.3.1/bits/stl_algobase.h **** 
 922:/Library/DaisyToolchain/0.2.0/arm/arm-none-eabi/include/c++/10.3.1/bits/stl_algobase.h ****   /**
 923:/Library/DaisyToolchain/0.2.0/arm/arm-none-eabi/include/c++/10.3.1/bits/stl_algobase.h ****    *  @brief Fills the range [first,last) with copies of value.
ARM GAS  /var/folders/9s/8rp0_f2s1n31qbztm3b5_fdh0000gn/T//ccmN9iqX.s 			page 29


 924:/Library/DaisyToolchain/0.2.0/arm/arm-none-eabi/include/c++/10.3.1/bits/stl_algobase.h ****    *  @ingroup mutating_algorithms
 925:/Library/DaisyToolchain/0.2.0/arm/arm-none-eabi/include/c++/10.3.1/bits/stl_algobase.h ****    *  @param  __first  A forward iterator.
 926:/Library/DaisyToolchain/0.2.0/arm/arm-none-eabi/include/c++/10.3.1/bits/stl_algobase.h ****    *  @param  __last   A forward iterator.
 927:/Library/DaisyToolchain/0.2.0/arm/arm-none-eabi/include/c++/10.3.1/bits/stl_algobase.h ****    *  @param  __value  A reference-to-const of arbitrary type.
 928:/Library/DaisyToolchain/0.2.0/arm/arm-none-eabi/include/c++/10.3.1/bits/stl_algobase.h ****    *  @return   Nothing.
 929:/Library/DaisyToolchain/0.2.0/arm/arm-none-eabi/include/c++/10.3.1/bits/stl_algobase.h ****    *
 930:/Library/DaisyToolchain/0.2.0/arm/arm-none-eabi/include/c++/10.3.1/bits/stl_algobase.h ****    *  This function fills a range with copies of the same value.  For char
 931:/Library/DaisyToolchain/0.2.0/arm/arm-none-eabi/include/c++/10.3.1/bits/stl_algobase.h ****    *  types filling contiguous areas of memory, this becomes an inline call
 932:/Library/DaisyToolchain/0.2.0/arm/arm-none-eabi/include/c++/10.3.1/bits/stl_algobase.h ****    *  to @c memset or @c wmemset.
 933:/Library/DaisyToolchain/0.2.0/arm/arm-none-eabi/include/c++/10.3.1/bits/stl_algobase.h ****   */
 934:/Library/DaisyToolchain/0.2.0/arm/arm-none-eabi/include/c++/10.3.1/bits/stl_algobase.h ****   template<typename _ForwardIterator, typename _Tp>
 935:/Library/DaisyToolchain/0.2.0/arm/arm-none-eabi/include/c++/10.3.1/bits/stl_algobase.h ****     _GLIBCXX20_CONSTEXPR
 936:/Library/DaisyToolchain/0.2.0/arm/arm-none-eabi/include/c++/10.3.1/bits/stl_algobase.h ****     inline void
 937:/Library/DaisyToolchain/0.2.0/arm/arm-none-eabi/include/c++/10.3.1/bits/stl_algobase.h ****     fill(_ForwardIterator __first, _ForwardIterator __last, const _Tp& __value)
 312              		.loc 5 937 5 view .LVU88
 313              	.LBB117:
 314              	.LBI112:
 913:/Library/DaisyToolchain/0.2.0/arm/arm-none-eabi/include/c++/10.3.1/bits/stl_algobase.h ****     { std::__fill_a1(__first, __last, __value); }
 315              		.loc 5 913 5 view .LVU89
 316              	.LBB116:
 317              	.LBI113:
 868:/Library/DaisyToolchain/0.2.0/arm/arm-none-eabi/include/c++/10.3.1/bits/stl_algobase.h **** 	      const _Tp& __value)
 318              		.loc 5 868 5 view .LVU90
 319              	.LBB115:
 873:/Library/DaisyToolchain/0.2.0/arm/arm-none-eabi/include/c++/10.3.1/bits/stl_algobase.h ****     }
 320              		.loc 5 873 11 is_stmt 0 view .LVU91
 321 000e 1430     		adds	r0, r0, #20
 322              	.LVL27:
 873:/Library/DaisyToolchain/0.2.0/arm/arm-none-eabi/include/c++/10.3.1/bits/stl_algobase.h ****     }
 323              		.loc 5 873 11 view .LVU92
 324 0010 FFF7FEBF 		b	memset
 325              	.LVL28:
 873:/Library/DaisyToolchain/0.2.0/arm/arm-none-eabi/include/c++/10.3.1/bits/stl_algobase.h ****     }
 326              		.loc 5 873 11 view .LVU93
 327              	.LBE115:
 328              	.LBE116:
 329              	.LBE117:
 330              	.LBE118:
 331              		.cfi_endproc
 332              	.LFE1481:
 334              		.section	.text._ZN6plaits22LPCSpeechSynthWordBank4InitEPKNS_26LPCSpeechSynthWordBankDataEiPN6stmli
 335              		.align	1
 336              		.global	_ZN6plaits22LPCSpeechSynthWordBank4InitEPKNS_26LPCSpeechSynthWordBankDataEiPN6stmlib15Buff
 337              		.syntax unified
 338              		.thumb
 339              		.thumb_func
 341              	_ZN6plaits22LPCSpeechSynthWordBank4InitEPKNS_26LPCSpeechSynthWordBankDataEiPN6stmlib15BufferAllocat
 342              	.LVL29:
 343              	.LFB1480:
 116:eurorack/plaits/dsp/speech/lpc_speech_synth_controller.cc ****   word_banks_ = word_banks;
 344              		.loc 4 116 33 is_stmt 1 view -0
 345              		.cfi_startproc
 346              		@ args = 0, pretend = 0, frame = 0
 347              		@ frame_needed = 0, uses_anonymous_args = 0
 348              		@ link register save eliminated.
 117:eurorack/plaits/dsp/speech/lpc_speech_synth_controller.cc ****   num_banks_ = num_banks;
 349              		.loc 4 117 3 view .LVU95
ARM GAS  /var/folders/9s/8rp0_f2s1n31qbztm3b5_fdh0000gn/T//ccmN9iqX.s 			page 30


 118:eurorack/plaits/dsp/speech/lpc_speech_synth_controller.cc ****   frames_ = allocator->Allocate<LPCSpeechSynth::Frame>(
 350              		.loc 4 118 14 is_stmt 0 view .LVU96
 351 0000 C0E90012 		strd	r1, r2, [r0]
 119:eurorack/plaits/dsp/speech/lpc_speech_synth_controller.cc ****       kLPCSpeechSynthMaxFrames);
 352              		.loc 4 119 3 is_stmt 1 view .LVU97
 353              	.LVL30:
 354              	.LBB123:
 355              	.LBI123:
 356              		.file 6 "eurorack/stmlib/utils/buffer_allocator.h"
   1:eurorack/stmlib/utils/buffer_allocator.h **** // Copyright 2014 Emilie Gillet.
   2:eurorack/stmlib/utils/buffer_allocator.h **** //
   3:eurorack/stmlib/utils/buffer_allocator.h **** // Author: Emilie Gillet (emilie.o.gillet@gmail.com)
   4:eurorack/stmlib/utils/buffer_allocator.h **** //
   5:eurorack/stmlib/utils/buffer_allocator.h **** // Permission is hereby granted, free of charge, to any person obtaining a copy
   6:eurorack/stmlib/utils/buffer_allocator.h **** // of this software and associated documentation files (the "Software"), to deal
   7:eurorack/stmlib/utils/buffer_allocator.h **** // in the Software without restriction, including without limitation the rights
   8:eurorack/stmlib/utils/buffer_allocator.h **** // to use, copy, modify, merge, publish, distribute, sublicense, and/or sell
   9:eurorack/stmlib/utils/buffer_allocator.h **** // copies of the Software, and to permit persons to whom the Software is
  10:eurorack/stmlib/utils/buffer_allocator.h **** // furnished to do so, subject to the following conditions:
  11:eurorack/stmlib/utils/buffer_allocator.h **** // 
  12:eurorack/stmlib/utils/buffer_allocator.h **** // The above copyright notice and this permission notice shall be included in
  13:eurorack/stmlib/utils/buffer_allocator.h **** // all copies or substantial portions of the Software.
  14:eurorack/stmlib/utils/buffer_allocator.h **** // 
  15:eurorack/stmlib/utils/buffer_allocator.h **** // THE SOFTWARE IS PROVIDED "AS IS", WITHOUT WARRANTY OF ANY KIND, EXPRESS OR
  16:eurorack/stmlib/utils/buffer_allocator.h **** // IMPLIED, INCLUDING BUT NOT LIMITED TO THE WARRANTIES OF MERCHANTABILITY,
  17:eurorack/stmlib/utils/buffer_allocator.h **** // FITNESS FOR A PARTICULAR PURPOSE AND NONINFRINGEMENT. IN NO EVENT SHALL THE
  18:eurorack/stmlib/utils/buffer_allocator.h **** // AUTHORS OR COPYRIGHT HOLDERS BE LIABLE FOR ANY CLAIM, DAMAGES OR OTHER
  19:eurorack/stmlib/utils/buffer_allocator.h **** // LIABILITY, WHETHER IN AN ACTION OF CONTRACT, TORT OR OTHERWISE, ARISING FROM,
  20:eurorack/stmlib/utils/buffer_allocator.h **** // OUT OF OR IN CONNECTION WITH THE SOFTWARE OR THE USE OR OTHER DEALINGS IN
  21:eurorack/stmlib/utils/buffer_allocator.h **** // THE SOFTWARE.
  22:eurorack/stmlib/utils/buffer_allocator.h **** // 
  23:eurorack/stmlib/utils/buffer_allocator.h **** // See http://creativecommons.org/licenses/MIT/ for more information.
  24:eurorack/stmlib/utils/buffer_allocator.h **** //
  25:eurorack/stmlib/utils/buffer_allocator.h **** // -----------------------------------------------------------------------------
  26:eurorack/stmlib/utils/buffer_allocator.h **** //
  27:eurorack/stmlib/utils/buffer_allocator.h **** // Stream buffer for serialization.
  28:eurorack/stmlib/utils/buffer_allocator.h **** 
  29:eurorack/stmlib/utils/buffer_allocator.h **** #ifndef STMLIB_UTILS_BUFFER_ALLOCATOR_H_
  30:eurorack/stmlib/utils/buffer_allocator.h **** #define STMLIB_UTILS_BUFFER_ALLOCATOR_H_
  31:eurorack/stmlib/utils/buffer_allocator.h **** 
  32:eurorack/stmlib/utils/buffer_allocator.h **** #include "stmlib/stmlib.h"
  33:eurorack/stmlib/utils/buffer_allocator.h **** 
  34:eurorack/stmlib/utils/buffer_allocator.h **** namespace stmlib {
  35:eurorack/stmlib/utils/buffer_allocator.h **** 
  36:eurorack/stmlib/utils/buffer_allocator.h **** class BufferAllocator {
  37:eurorack/stmlib/utils/buffer_allocator.h ****  public:
  38:eurorack/stmlib/utils/buffer_allocator.h ****   BufferAllocator() { }
  39:eurorack/stmlib/utils/buffer_allocator.h ****   ~BufferAllocator() { }
  40:eurorack/stmlib/utils/buffer_allocator.h ****   
  41:eurorack/stmlib/utils/buffer_allocator.h ****   BufferAllocator(void* buffer, size_t size) {
  42:eurorack/stmlib/utils/buffer_allocator.h ****     Init(buffer, size);
  43:eurorack/stmlib/utils/buffer_allocator.h ****   }
  44:eurorack/stmlib/utils/buffer_allocator.h ****   
  45:eurorack/stmlib/utils/buffer_allocator.h ****   inline void Init(void* buffer, size_t size) {
  46:eurorack/stmlib/utils/buffer_allocator.h ****     buffer_ = static_cast<uint8_t*>(buffer);
  47:eurorack/stmlib/utils/buffer_allocator.h ****     size_ = size;
  48:eurorack/stmlib/utils/buffer_allocator.h ****     Free();
ARM GAS  /var/folders/9s/8rp0_f2s1n31qbztm3b5_fdh0000gn/T//ccmN9iqX.s 			page 31


  49:eurorack/stmlib/utils/buffer_allocator.h ****   }
  50:eurorack/stmlib/utils/buffer_allocator.h **** 
  51:eurorack/stmlib/utils/buffer_allocator.h ****   template<typename T>
  52:eurorack/stmlib/utils/buffer_allocator.h ****   inline T* Allocate() {
  53:eurorack/stmlib/utils/buffer_allocator.h ****     return Allocate<T>(1);
  54:eurorack/stmlib/utils/buffer_allocator.h ****   }
  55:eurorack/stmlib/utils/buffer_allocator.h ****   
  56:eurorack/stmlib/utils/buffer_allocator.h ****   template<typename T>
  57:eurorack/stmlib/utils/buffer_allocator.h ****   inline T* Allocate(size_t size) {
 357              		.loc 6 57 13 view .LVU98
 358              	.LBB124:
 359              	.LBB125:
  58:eurorack/stmlib/utils/buffer_allocator.h ****     size_t size_bytes = sizeof(T) * size;
  59:eurorack/stmlib/utils/buffer_allocator.h ****     if (size_bytes <= free_) {
 360              		.loc 6 59 23 is_stmt 0 view .LVU99
 361 0004 9A68     		ldr	r2, [r3, #8]
 362              	.LVL31:
 363              		.loc 6 59 5 view .LVU100
 364 0006 B2F5605F 		cmp	r2, #14336
 365              	.LBB126:
  60:eurorack/stmlib/utils/buffer_allocator.h ****       T* start = static_cast<T*>(static_cast<void*>(next_));
 366              		.loc 6 60 10 view .LVU101
 367 000a 25BF     		ittet	cs
 368 000c 1968     		ldrcs	r1, [r3]
 369              	.LVL32:
  61:eurorack/stmlib/utils/buffer_allocator.h ****       next_ += size_bytes;
  62:eurorack/stmlib/utils/buffer_allocator.h ****       free_ -= size_bytes;
 370              		.loc 6 62 13 view .LVU102
 371 000e A2F56052 		subcs	r2, r2, #14336
 372              	.LBE126:
  63:eurorack/stmlib/utils/buffer_allocator.h ****       return start;
  64:eurorack/stmlib/utils/buffer_allocator.h ****     } else {
  65:eurorack/stmlib/utils/buffer_allocator.h ****       return NULL;
 373              		.loc 6 65 14 view .LVU103
 374 0012 0021     		movcc	r1, #0
 375              	.LVL33:
 376              	.LBB127:
  62:eurorack/stmlib/utils/buffer_allocator.h ****       return start;
 377              		.loc 6 62 13 view .LVU104
 378 0014 9A60     		strcs	r2, [r3, #8]
 379              	.LBE127:
 380              	.LBE125:
 381              	.LBE124:
 382              	.LBE123:
 116:eurorack/plaits/dsp/speech/lpc_speech_synth_controller.cc ****   word_banks_ = word_banks;
 383              		.loc 4 116 33 view .LVU105
 384 0016 10B4     		push	{r4}
 385              		.cfi_def_cfa_offset 4
 386              		.cfi_offset 4, -4
 387              	.LBB131:
 388              	.LBB130:
 389              	.LBB129:
 390              	.LBB128:
  61:eurorack/stmlib/utils/buffer_allocator.h ****       free_ -= size_bytes;
 391              		.loc 6 61 13 view .LVU106
 392 0018 24BF     		itt	cs
 393 001a 01F56054 		addcs	r4, r1, #14336
ARM GAS  /var/folders/9s/8rp0_f2s1n31qbztm3b5_fdh0000gn/T//ccmN9iqX.s 			page 32


 394 001e 1C60     		strcs	r4, [r3]
 395              	.LBE128:
 396              	.LBE129:
 397              	.LBE130:
 398              	.LBE131:
 122:eurorack/plaits/dsp/speech/lpc_speech_synth_controller.cc **** 
 399              		.loc 4 122 1 view .LVU107
 400 0020 5DF8044B 		ldr	r4, [sp], #4
 401              		.cfi_restore 4
 402              		.cfi_def_cfa_offset 0
 119:eurorack/plaits/dsp/speech/lpc_speech_synth_controller.cc ****       kLPCSpeechSynthMaxFrames);
 403              		.loc 4 119 11 view .LVU108
 404 0024 C0F89410 		str	r1, [r0, #148]
 121:eurorack/plaits/dsp/speech/lpc_speech_synth_controller.cc **** }
 405              		.loc 4 121 3 is_stmt 1 view .LVU109
 121:eurorack/plaits/dsp/speech/lpc_speech_synth_controller.cc **** }
 406              		.loc 4 121 8 is_stmt 0 view .LVU110
 407 0028 FFF7FEBF 		b	_ZN6plaits22LPCSpeechSynthWordBank5ResetEv
 408              	.LVL34:
 121:eurorack/plaits/dsp/speech/lpc_speech_synth_controller.cc **** }
 409              		.loc 4 121 8 view .LVU111
 410              		.cfi_endproc
 411              	.LFE1480:
 413              		.section	.text._ZN6plaits22LPCSpeechSynthWordBank12LoadNextWordEPKh,"ax",%progbits
 414              		.align	1
 415              		.global	_ZN6plaits22LPCSpeechSynthWordBank12LoadNextWordEPKh
 416              		.syntax unified
 417              		.thumb
 418              		.thumb_func
 420              	_ZN6plaits22LPCSpeechSynthWordBank12LoadNextWordEPKh:
 421              	.LVL35:
 422              	.LFB1482:
 129:eurorack/plaits/dsp/speech/lpc_speech_synth_controller.cc ****       &word_boundaries_[0],
 130:eurorack/plaits/dsp/speech/lpc_speech_synth_controller.cc ****       &word_boundaries_[kLPCSpeechSynthMaxWords], 0);
 131:eurorack/plaits/dsp/speech/lpc_speech_synth_controller.cc **** }
 132:eurorack/plaits/dsp/speech/lpc_speech_synth_controller.cc **** 
 133:eurorack/plaits/dsp/speech/lpc_speech_synth_controller.cc **** size_t LPCSpeechSynthWordBank::LoadNextWord(const uint8_t* data) {
 423              		.loc 4 133 66 is_stmt 1 view -0
 424              		.cfi_startproc
 425              		@ args = 0, pretend = 0, frame = 48
 426              		@ frame_needed = 0, uses_anonymous_args = 0
 134:eurorack/plaits/dsp/speech/lpc_speech_synth_controller.cc ****   BitStream bitstream;
 427              		.loc 4 134 3 view .LVU113
 133:eurorack/plaits/dsp/speech/lpc_speech_synth_controller.cc ****   BitStream bitstream;
 428              		.loc 4 133 66 is_stmt 0 view .LVU114
 429 0000 2DE9F04F 		push	{r4, r5, r6, r7, r8, r9, r10, fp, lr}
 430              		.cfi_def_cfa_offset 36
 431              		.cfi_offset 4, -36
 432              		.cfi_offset 5, -32
 433              		.cfi_offset 6, -28
 434              		.cfi_offset 7, -24
 435              		.cfi_offset 8, -20
 436              		.cfi_offset 9, -16
 437              		.cfi_offset 10, -12
 438              		.cfi_offset 11, -8
 439              		.cfi_offset 14, -4
 440              	.LBB145:
ARM GAS  /var/folders/9s/8rp0_f2s1n31qbztm3b5_fdh0000gn/T//ccmN9iqX.s 			page 33


 441              	.LBB146:
  45:eurorack/plaits/dsp/speech/lpc_speech_synth_controller.h ****     bits_ = 0;
 442              		.loc 2 45 16 view .LVU115
 443 0004 0024     		movs	r4, #0
 444              	.LBE146:
 445              	.LBE145:
 133:eurorack/plaits/dsp/speech/lpc_speech_synth_controller.cc ****   BitStream bitstream;
 446              		.loc 4 133 66 view .LVU116
 447 0006 8DB0     		sub	sp, sp, #52
 448              		.cfi_def_cfa_offset 88
 449              	.LVL36:
 450              	.LBB149:
 451              	.LBI149:
  40:eurorack/plaits/dsp/speech/lpc_speech_synth_controller.h ****   ~BitStream() { }
 452              		.loc 2 40 3 is_stmt 1 view .LVU117
  40:eurorack/plaits/dsp/speech/lpc_speech_synth_controller.h ****   ~BitStream() { }
 453              		.loc 2 40 3 is_stmt 0 view .LVU118
 454              	.LBE149:
 135:eurorack/plaits/dsp/speech/lpc_speech_synth_controller.cc ****   bitstream.Init(data);
 455              		.loc 4 135 3 is_stmt 1 view .LVU119
 456              	.LBB150:
 457              	.LBI145:
  43:eurorack/plaits/dsp/speech/lpc_speech_synth_controller.h ****     p_ = p;
 458              		.loc 2 43 15 view .LVU120
 459              	.LBB147:
  44:eurorack/plaits/dsp/speech/lpc_speech_synth_controller.h ****     available_ = 0;
 460              		.loc 2 44 5 view .LVU121
 461              	.LBE147:
 462              	.LBE150:
 133:eurorack/plaits/dsp/speech/lpc_speech_synth_controller.cc ****   BitStream bitstream;
 463              		.loc 4 133 66 is_stmt 0 view .LVU122
 464 0008 0546     		mov	r5, r0
 136:eurorack/plaits/dsp/speech/lpc_speech_synth_controller.cc **** 
 137:eurorack/plaits/dsp/speech/lpc_speech_synth_controller.cc ****   LPCSpeechSynth::Frame frame;
 138:eurorack/plaits/dsp/speech/lpc_speech_synth_controller.cc ****   frame.energy = 0;
 139:eurorack/plaits/dsp/speech/lpc_speech_synth_controller.cc ****   frame.period = 0;
 140:eurorack/plaits/dsp/speech/lpc_speech_synth_controller.cc ****   frame.k0 = 0;
 141:eurorack/plaits/dsp/speech/lpc_speech_synth_controller.cc ****   frame.k1 = 0;
 142:eurorack/plaits/dsp/speech/lpc_speech_synth_controller.cc ****   frame.k2 = 0;
 143:eurorack/plaits/dsp/speech/lpc_speech_synth_controller.cc ****   frame.k3 = 0;
 144:eurorack/plaits/dsp/speech/lpc_speech_synth_controller.cc ****   frame.k4 = 0;
 145:eurorack/plaits/dsp/speech/lpc_speech_synth_controller.cc ****   frame.k5 = 0;
 146:eurorack/plaits/dsp/speech/lpc_speech_synth_controller.cc ****   frame.k6 = 0;
 147:eurorack/plaits/dsp/speech/lpc_speech_synth_controller.cc ****   frame.k7 = 0;
 148:eurorack/plaits/dsp/speech/lpc_speech_synth_controller.cc ****   frame.k8 = 0;
 465              		.loc 4 148 12 view .LVU123
 466 000a 2746     		mov	r7, r4
 147:eurorack/plaits/dsp/speech/lpc_speech_synth_controller.cc ****   frame.k8 = 0;
 467              		.loc 4 147 12 view .LVU124
 468 000c A046     		mov	r8, r4
 143:eurorack/plaits/dsp/speech/lpc_speech_synth_controller.cc ****   frame.k4 = 0;
 469              		.loc 4 143 12 view .LVU125
 470 000e A146     		mov	r9, r4
 142:eurorack/plaits/dsp/speech/lpc_speech_synth_controller.cc ****   frame.k3 = 0;
 471              		.loc 4 142 12 view .LVU126
 472 0010 A246     		mov	r10, r4
 141:eurorack/plaits/dsp/speech/lpc_speech_synth_controller.cc ****   frame.k2 = 0;
ARM GAS  /var/folders/9s/8rp0_f2s1n31qbztm3b5_fdh0000gn/T//ccmN9iqX.s 			page 34


 473              		.loc 4 141 12 view .LVU127
 474 0012 A346     		mov	fp, r4
 139:eurorack/plaits/dsp/speech/lpc_speech_synth_controller.cc ****   frame.k0 = 0;
 475              		.loc 4 139 16 view .LVU128
 476 0014 2646     		mov	r6, r4
 133:eurorack/plaits/dsp/speech/lpc_speech_synth_controller.cc ****   BitStream bitstream;
 477              		.loc 4 133 66 view .LVU129
 478 0016 0691     		str	r1, [sp, #24]
 479              	.LVL37:
 480              	.LBB151:
 481              	.LBB148:
  44:eurorack/plaits/dsp/speech/lpc_speech_synth_controller.h ****     available_ = 0;
 482              		.loc 2 44 8 view .LVU130
 483 0018 0991     		str	r1, [sp, #36]
  45:eurorack/plaits/dsp/speech/lpc_speech_synth_controller.h ****     bits_ = 0;
 484              		.loc 2 45 5 is_stmt 1 view .LVU131
  45:eurorack/plaits/dsp/speech/lpc_speech_synth_controller.h ****     bits_ = 0;
 485              		.loc 2 45 16 is_stmt 0 view .LVU132
 486 001a 0A94     		str	r4, [sp, #40]
  46:eurorack/plaits/dsp/speech/lpc_speech_synth_controller.h ****   }
 487              		.loc 2 46 5 is_stmt 1 view .LVU133
  46:eurorack/plaits/dsp/speech/lpc_speech_synth_controller.h ****   }
 488              		.loc 2 46 11 is_stmt 0 view .LVU134
 489 001c ADF82C40 		strh	r4, [sp, #44]	@ movhi
 490              	.LVL38:
  46:eurorack/plaits/dsp/speech/lpc_speech_synth_controller.h ****   }
 491              		.loc 2 46 11 view .LVU135
 492              	.LBE148:
 493              	.LBE151:
 137:eurorack/plaits/dsp/speech/lpc_speech_synth_controller.cc ****   frame.energy = 0;
 494              		.loc 4 137 3 is_stmt 1 view .LVU136
 138:eurorack/plaits/dsp/speech/lpc_speech_synth_controller.cc ****   frame.period = 0;
 495              		.loc 4 138 3 view .LVU137
 139:eurorack/plaits/dsp/speech/lpc_speech_synth_controller.cc ****   frame.k0 = 0;
 496              		.loc 4 139 3 view .LVU138
 140:eurorack/plaits/dsp/speech/lpc_speech_synth_controller.cc ****   frame.k1 = 0;
 497              		.loc 4 140 3 view .LVU139
 141:eurorack/plaits/dsp/speech/lpc_speech_synth_controller.cc ****   frame.k2 = 0;
 498              		.loc 4 141 3 view .LVU140
 142:eurorack/plaits/dsp/speech/lpc_speech_synth_controller.cc ****   frame.k3 = 0;
 499              		.loc 4 142 3 view .LVU141
 143:eurorack/plaits/dsp/speech/lpc_speech_synth_controller.cc ****   frame.k4 = 0;
 500              		.loc 4 143 3 view .LVU142
 144:eurorack/plaits/dsp/speech/lpc_speech_synth_controller.cc ****   frame.k5 = 0;
 501              		.loc 4 144 3 view .LVU143
 145:eurorack/plaits/dsp/speech/lpc_speech_synth_controller.cc ****   frame.k6 = 0;
 502              		.loc 4 145 3 view .LVU144
 146:eurorack/plaits/dsp/speech/lpc_speech_synth_controller.cc ****   frame.k7 = 0;
 503              		.loc 4 146 3 view .LVU145
 147:eurorack/plaits/dsp/speech/lpc_speech_synth_controller.cc ****   frame.k8 = 0;
 504              		.loc 4 147 3 view .LVU146
 505              		.loc 4 148 3 view .LVU147
 149:eurorack/plaits/dsp/speech/lpc_speech_synth_controller.cc ****   frame.k9 = 0;
 506              		.loc 4 149 3 view .LVU148
 144:eurorack/plaits/dsp/speech/lpc_speech_synth_controller.cc ****   frame.k5 = 0;
 507              		.loc 4 144 12 is_stmt 0 view .LVU149
 508 0020 0394     		str	r4, [sp, #12]
ARM GAS  /var/folders/9s/8rp0_f2s1n31qbztm3b5_fdh0000gn/T//ccmN9iqX.s 			page 35


 140:eurorack/plaits/dsp/speech/lpc_speech_synth_controller.cc ****   frame.k1 = 0;
 509              		.loc 4 140 12 view .LVU150
 510 0022 0294     		str	r4, [sp, #8]
 145:eurorack/plaits/dsp/speech/lpc_speech_synth_controller.cc ****   frame.k6 = 0;
 511              		.loc 4 145 12 view .LVU151
 512 0024 CDE90444 		strd	r4, r4, [sp, #16]
 513              	.LVL39:
 514              	.L21:
 150:eurorack/plaits/dsp/speech/lpc_speech_synth_controller.cc **** 
 151:eurorack/plaits/dsp/speech/lpc_speech_synth_controller.cc ****   while (true) {
 515              		.loc 4 151 3 is_stmt 1 view .LVU152
 516              	.LBB152:
 152:eurorack/plaits/dsp/speech/lpc_speech_synth_controller.cc ****     int energy = bitstream.GetBits(4);
 517              		.loc 4 152 5 view .LVU153
 518              		.loc 4 152 35 is_stmt 0 view .LVU154
 519 0028 0421     		movs	r1, #4
 520 002a 09A8     		add	r0, sp, #36
 521 002c FFF7FEFF 		bl	_ZN6plaits9BitStream7GetBitsEi
 522              	.LVL40:
 153:eurorack/plaits/dsp/speech/lpc_speech_synth_controller.cc ****     if (energy == 0) {
 523              		.loc 4 153 5 is_stmt 1 view .LVU155
 524              	.LBB153:
 525 0030 0028     		cmp	r0, #0
 526 0032 7ED0     		beq	.L22
 527              	.LBE153:
 528              	.LBE152:
 154:eurorack/plaits/dsp/speech/lpc_speech_synth_controller.cc ****       frame.energy = 0;
 155:eurorack/plaits/dsp/speech/lpc_speech_synth_controller.cc ****     } else if (energy == 0xf) {
 529              		.loc 4 155 12 view .LVU156
 530              	.LBB161:
 531              	.LBB159:
 532              	.LBB154:
 533 0034 0F28     		cmp	r0, #15
 534 0036 07D1     		bne	.L18
 535              	.LVL41:
 536              	.L20:
 537              	.LBB155:
 538              	.LBB156:
  50:eurorack/plaits/dsp/speech/lpc_speech_synth_controller.h ****       GetBits(1);
 539              		.loc 2 50 5 view .LVU157
  50:eurorack/plaits/dsp/speech/lpc_speech_synth_controller.h ****       GetBits(1);
 540              		.loc 2 50 12 view .LVU158
 541 0038 0A9B     		ldr	r3, [sp, #40]
 542 003a 002B     		cmp	r3, #0
 543 003c 7BD0     		beq	.L19
  51:eurorack/plaits/dsp/speech/lpc_speech_synth_controller.h ****     }
 544              		.loc 2 51 7 view .LVU159
  51:eurorack/plaits/dsp/speech/lpc_speech_synth_controller.h ****     }
 545              		.loc 2 51 14 is_stmt 0 view .LVU160
 546 003e 0121     		movs	r1, #1
 547 0040 09A8     		add	r0, sp, #36
 548 0042 FFF7FEFF 		bl	_ZN6plaits9BitStream7GetBitsEi
 549              	.LVL42:
  50:eurorack/plaits/dsp/speech/lpc_speech_synth_controller.h ****       GetBits(1);
 550              		.loc 2 50 5 view .LVU161
 551 0046 F7E7     		b	.L20
 552              	.LVL43:
ARM GAS  /var/folders/9s/8rp0_f2s1n31qbztm3b5_fdh0000gn/T//ccmN9iqX.s 			page 36


 553              	.L18:
  50:eurorack/plaits/dsp/speech/lpc_speech_synth_controller.h ****       GetBits(1);
 554              		.loc 2 50 5 view .LVU162
 555              	.LBE156:
 556              	.LBE155:
 557              	.LBB157:
 156:eurorack/plaits/dsp/speech/lpc_speech_synth_controller.cc ****       bitstream.Flush();
 157:eurorack/plaits/dsp/speech/lpc_speech_synth_controller.cc ****       break;
 158:eurorack/plaits/dsp/speech/lpc_speech_synth_controller.cc ****     } else {
 159:eurorack/plaits/dsp/speech/lpc_speech_synth_controller.cc ****       frame.energy = energy_lut_[energy];
 558              		.loc 4 159 7 is_stmt 1 view .LVU163
 559              		.loc 4 159 40 is_stmt 0 view .LVU164
 560 0048 3E4A     		ldr	r2, .L27
 160:eurorack/plaits/dsp/speech/lpc_speech_synth_controller.cc ****       bool repeat = bitstream.GetBits(1);
 561              		.loc 4 160 38 view .LVU165
 562 004a 0121     		movs	r1, #1
 159:eurorack/plaits/dsp/speech/lpc_speech_synth_controller.cc ****       bool repeat = bitstream.GetBits(1);
 563              		.loc 4 159 40 view .LVU166
 564 004c 135C     		ldrb	r3, [r2, r0]	@ zero_extendqisi2
 565              		.loc 4 160 38 view .LVU167
 566 004e 09A8     		add	r0, sp, #36
 567              	.LVL44:
 159:eurorack/plaits/dsp/speech/lpc_speech_synth_controller.cc ****       bool repeat = bitstream.GetBits(1);
 568              		.loc 4 159 40 view .LVU168
 569 0050 0193     		str	r3, [sp, #4]
 570              	.LVL45:
 571              		.loc 4 160 7 is_stmt 1 view .LVU169
 572              		.loc 4 160 38 is_stmt 0 view .LVU170
 573 0052 FFF7FEFF 		bl	_ZN6plaits9BitStream7GetBitsEi
 574              	.LVL46:
 161:eurorack/plaits/dsp/speech/lpc_speech_synth_controller.cc ****       frame.period = period_lut_[bitstream.GetBits(6)];
 575              		.loc 4 161 51 view .LVU171
 576 0056 0621     		movs	r1, #6
 160:eurorack/plaits/dsp/speech/lpc_speech_synth_controller.cc ****       bool repeat = bitstream.GetBits(1);
 577              		.loc 4 160 38 view .LVU172
 578 0058 0790     		str	r0, [sp, #28]
 579              	.LVL47:
 580              		.loc 4 161 7 is_stmt 1 view .LVU173
 581              		.loc 4 161 51 is_stmt 0 view .LVU174
 582 005a 09A8     		add	r0, sp, #36
 583 005c FFF7FEFF 		bl	_ZN6plaits9BitStream7GetBitsEi
 584              	.LVL48:
 585              		.loc 4 161 54 view .LVU175
 586 0060 3949     		ldr	r1, .L27+4
 162:eurorack/plaits/dsp/speech/lpc_speech_synth_controller.cc ****       if (!repeat) {
 587              		.loc 4 162 7 view .LVU176
 588 0062 079A     		ldr	r2, [sp, #28]
 161:eurorack/plaits/dsp/speech/lpc_speech_synth_controller.cc ****       frame.period = period_lut_[bitstream.GetBits(6)];
 589              		.loc 4 161 54 view .LVU177
 590 0064 0E5C     		ldrb	r6, [r1, r0]	@ zero_extendqisi2
 591              	.LVL49:
 592              		.loc 4 162 7 is_stmt 1 view .LVU178
 593 0066 002A     		cmp	r2, #0
 594 0068 45D1     		bne	.L17
 163:eurorack/plaits/dsp/speech/lpc_speech_synth_controller.cc ****         frame.k0 = k0_lut_[bitstream.GetBits(5)];
 595              		.loc 4 163 9 view .LVU179
 596              		.loc 4 163 45 is_stmt 0 view .LVU180
ARM GAS  /var/folders/9s/8rp0_f2s1n31qbztm3b5_fdh0000gn/T//ccmN9iqX.s 			page 37


 597 006a 0521     		movs	r1, #5
 598 006c 09A8     		add	r0, sp, #36
 599 006e FFF7FEFF 		bl	_ZN6plaits9BitStream7GetBitsEi
 600              	.LVL50:
 601              		.loc 4 163 48 view .LVU181
 602 0072 364A     		ldr	r2, .L27+8
 164:eurorack/plaits/dsp/speech/lpc_speech_synth_controller.cc ****         frame.k1 = k1_lut_[bitstream.GetBits(5)];
 603              		.loc 4 164 45 view .LVU182
 604 0074 0521     		movs	r1, #5
 163:eurorack/plaits/dsp/speech/lpc_speech_synth_controller.cc ****         frame.k0 = k0_lut_[bitstream.GetBits(5)];
 605              		.loc 4 163 48 view .LVU183
 606 0076 32F91030 		ldrsh	r3, [r2, r0, lsl #1]
 607              		.loc 4 164 45 view .LVU184
 608 007a 09A8     		add	r0, sp, #36
 163:eurorack/plaits/dsp/speech/lpc_speech_synth_controller.cc ****         frame.k0 = k0_lut_[bitstream.GetBits(5)];
 609              		.loc 4 163 48 view .LVU185
 610 007c 0293     		str	r3, [sp, #8]
 611              	.LVL51:
 612              		.loc 4 164 9 is_stmt 1 view .LVU186
 613              		.loc 4 164 45 is_stmt 0 view .LVU187
 614 007e FFF7FEFF 		bl	_ZN6plaits9BitStream7GetBitsEi
 615              	.LVL52:
 616              		.loc 4 164 48 view .LVU188
 617 0082 334A     		ldr	r2, .L27+12
 165:eurorack/plaits/dsp/speech/lpc_speech_synth_controller.cc ****         frame.k2 = k2_lut_[bitstream.GetBits(4)];
 618              		.loc 4 165 45 view .LVU189
 619 0084 0421     		movs	r1, #4
 164:eurorack/plaits/dsp/speech/lpc_speech_synth_controller.cc ****         frame.k1 = k1_lut_[bitstream.GetBits(5)];
 620              		.loc 4 164 48 view .LVU190
 621 0086 32F910B0 		ldrsh	fp, [r2, r0, lsl #1]
 622              	.LVL53:
 623              		.loc 4 165 9 is_stmt 1 view .LVU191
 624              		.loc 4 165 45 is_stmt 0 view .LVU192
 625 008a 09A8     		add	r0, sp, #36
 626 008c FFF7FEFF 		bl	_ZN6plaits9BitStream7GetBitsEi
 627              	.LVL54:
 628              		.loc 4 165 48 view .LVU193
 629 0090 304A     		ldr	r2, .L27+16
 166:eurorack/plaits/dsp/speech/lpc_speech_synth_controller.cc ****         frame.k3 = k3_lut_[bitstream.GetBits(4)];
 630              		.loc 4 166 45 view .LVU194
 631 0092 0421     		movs	r1, #4
 165:eurorack/plaits/dsp/speech/lpc_speech_synth_controller.cc ****         frame.k2 = k2_lut_[bitstream.GetBits(4)];
 632              		.loc 4 165 48 view .LVU195
 633 0094 12F900A0 		ldrsb	r10, [r2, r0]
 634              	.LVL55:
 635              		.loc 4 166 9 is_stmt 1 view .LVU196
 636              		.loc 4 166 45 is_stmt 0 view .LVU197
 637 0098 09A8     		add	r0, sp, #36
 638 009a FFF7FEFF 		bl	_ZN6plaits9BitStream7GetBitsEi
 639              	.LVL56:
 640              		.loc 4 166 48 view .LVU198
 641 009e 2E4A     		ldr	r2, .L27+20
 642 00a0 12F90090 		ldrsb	r9, [r2, r0]
 643              	.LVL57:
 167:eurorack/plaits/dsp/speech/lpc_speech_synth_controller.cc ****         if (frame.period) {
 644              		.loc 4 167 9 is_stmt 1 view .LVU199
 645 00a4 3EB3     		cbz	r6, .L17
ARM GAS  /var/folders/9s/8rp0_f2s1n31qbztm3b5_fdh0000gn/T//ccmN9iqX.s 			page 38


 168:eurorack/plaits/dsp/speech/lpc_speech_synth_controller.cc ****           frame.k4 = k4_lut_[bitstream.GetBits(4)];
 646              		.loc 4 168 11 view .LVU200
 647              		.loc 4 168 47 is_stmt 0 view .LVU201
 648 00a6 0421     		movs	r1, #4
 649 00a8 09A8     		add	r0, sp, #36
 650 00aa FFF7FEFF 		bl	_ZN6plaits9BitStream7GetBitsEi
 651              	.LVL58:
 652              		.loc 4 168 50 view .LVU202
 653 00ae 2B4B     		ldr	r3, .L27+24
 169:eurorack/plaits/dsp/speech/lpc_speech_synth_controller.cc ****           frame.k5 = k5_lut_[bitstream.GetBits(4)];
 654              		.loc 4 169 47 view .LVU203
 655 00b0 0421     		movs	r1, #4
 168:eurorack/plaits/dsp/speech/lpc_speech_synth_controller.cc ****           frame.k4 = k4_lut_[bitstream.GetBits(4)];
 656              		.loc 4 168 50 view .LVU204
 657 00b2 1B56     		ldrsb	r3, [r3, r0]
 658              		.loc 4 169 47 view .LVU205
 659 00b4 09A8     		add	r0, sp, #36
 168:eurorack/plaits/dsp/speech/lpc_speech_synth_controller.cc ****           frame.k4 = k4_lut_[bitstream.GetBits(4)];
 660              		.loc 4 168 50 view .LVU206
 661 00b6 0393     		str	r3, [sp, #12]
 662              	.LVL59:
 663              		.loc 4 169 11 is_stmt 1 view .LVU207
 664              		.loc 4 169 47 is_stmt 0 view .LVU208
 665 00b8 FFF7FEFF 		bl	_ZN6plaits9BitStream7GetBitsEi
 666              	.LVL60:
 667              		.loc 4 169 50 view .LVU209
 668 00bc 284B     		ldr	r3, .L27+28
 170:eurorack/plaits/dsp/speech/lpc_speech_synth_controller.cc ****           frame.k6 = k6_lut_[bitstream.GetBits(4)];
 669              		.loc 4 170 47 view .LVU210
 670 00be 0421     		movs	r1, #4
 169:eurorack/plaits/dsp/speech/lpc_speech_synth_controller.cc ****           frame.k5 = k5_lut_[bitstream.GetBits(4)];
 671              		.loc 4 169 50 view .LVU211
 672 00c0 1B56     		ldrsb	r3, [r3, r0]
 673              		.loc 4 170 47 view .LVU212
 674 00c2 09A8     		add	r0, sp, #36
 169:eurorack/plaits/dsp/speech/lpc_speech_synth_controller.cc ****           frame.k5 = k5_lut_[bitstream.GetBits(4)];
 675              		.loc 4 169 50 view .LVU213
 676 00c4 0493     		str	r3, [sp, #16]
 677              	.LVL61:
 678              		.loc 4 170 11 is_stmt 1 view .LVU214
 679              		.loc 4 170 47 is_stmt 0 view .LVU215
 680 00c6 FFF7FEFF 		bl	_ZN6plaits9BitStream7GetBitsEi
 681              	.LVL62:
 682              		.loc 4 170 50 view .LVU216
 683 00ca 264B     		ldr	r3, .L27+32
 171:eurorack/plaits/dsp/speech/lpc_speech_synth_controller.cc ****           frame.k7 = k7_lut_[bitstream.GetBits(3)];
 684              		.loc 4 171 47 view .LVU217
 685 00cc 0321     		movs	r1, #3
 170:eurorack/plaits/dsp/speech/lpc_speech_synth_controller.cc ****           frame.k6 = k6_lut_[bitstream.GetBits(4)];
 686              		.loc 4 170 50 view .LVU218
 687 00ce 1B56     		ldrsb	r3, [r3, r0]
 688              		.loc 4 171 47 view .LVU219
 689 00d0 09A8     		add	r0, sp, #36
 170:eurorack/plaits/dsp/speech/lpc_speech_synth_controller.cc ****           frame.k6 = k6_lut_[bitstream.GetBits(4)];
 690              		.loc 4 170 50 view .LVU220
 691 00d2 0593     		str	r3, [sp, #20]
 692              	.LVL63:
ARM GAS  /var/folders/9s/8rp0_f2s1n31qbztm3b5_fdh0000gn/T//ccmN9iqX.s 			page 39


 693              		.loc 4 171 11 is_stmt 1 view .LVU221
 694              		.loc 4 171 47 is_stmt 0 view .LVU222
 695 00d4 FFF7FEFF 		bl	_ZN6plaits9BitStream7GetBitsEi
 696              	.LVL64:
 697              		.loc 4 171 50 view .LVU223
 698 00d8 234B     		ldr	r3, .L27+36
 172:eurorack/plaits/dsp/speech/lpc_speech_synth_controller.cc ****           frame.k8 = k8_lut_[bitstream.GetBits(3)];
 699              		.loc 4 172 47 view .LVU224
 700 00da 0321     		movs	r1, #3
 171:eurorack/plaits/dsp/speech/lpc_speech_synth_controller.cc ****           frame.k7 = k7_lut_[bitstream.GetBits(3)];
 701              		.loc 4 171 50 view .LVU225
 702 00dc 13F90080 		ldrsb	r8, [r3, r0]
 703              	.LVL65:
 704              		.loc 4 172 11 is_stmt 1 view .LVU226
 705              		.loc 4 172 47 is_stmt 0 view .LVU227
 706 00e0 09A8     		add	r0, sp, #36
 707 00e2 FFF7FEFF 		bl	_ZN6plaits9BitStream7GetBitsEi
 708              	.LVL66:
 709              		.loc 4 172 50 view .LVU228
 710 00e6 214B     		ldr	r3, .L27+40
 173:eurorack/plaits/dsp/speech/lpc_speech_synth_controller.cc ****           frame.k9 = k9_lut_[bitstream.GetBits(3)];
 711              		.loc 4 173 47 view .LVU229
 712 00e8 0321     		movs	r1, #3
 172:eurorack/plaits/dsp/speech/lpc_speech_synth_controller.cc ****           frame.k8 = k8_lut_[bitstream.GetBits(3)];
 713              		.loc 4 172 50 view .LVU230
 714 00ea 1F56     		ldrsb	r7, [r3, r0]
 715              	.LVL67:
 716              		.loc 4 173 11 is_stmt 1 view .LVU231
 717              		.loc 4 173 47 is_stmt 0 view .LVU232
 718 00ec 09A8     		add	r0, sp, #36
 719 00ee FFF7FEFF 		bl	_ZN6plaits9BitStream7GetBitsEi
 720              	.LVL68:
 721              		.loc 4 173 50 view .LVU233
 722 00f2 1F4B     		ldr	r3, .L27+44
 723 00f4 1C56     		ldrsb	r4, [r3, r0]
 724              	.LVL69:
 725              	.L17:
 726              		.loc 4 173 50 view .LVU234
 727              	.LBE157:
 728              	.LBE154:
 729              	.LBE159:
 174:eurorack/plaits/dsp/speech/lpc_speech_synth_controller.cc ****         }
 175:eurorack/plaits/dsp/speech/lpc_speech_synth_controller.cc ****       }
 176:eurorack/plaits/dsp/speech/lpc_speech_synth_controller.cc ****     }
 177:eurorack/plaits/dsp/speech/lpc_speech_synth_controller.cc ****     frames_[num_frames_++] = frame;
 730              		.loc 4 177 5 is_stmt 1 view .LVU235
 731              		.loc 4 177 13 is_stmt 0 view .LVU236
 732 00f6 E968     		ldr	r1, [r5, #12]
 733              		.loc 4 177 5 view .LVU237
 734 00f8 D5F89400 		ldr	r0, [r5, #148]
 735              		.loc 4 177 24 view .LVU238
 736 00fc 4A1C     		adds	r2, r1, #1
 737              		.loc 4 177 28 view .LVU239
 738 00fe 019B     		ldr	r3, [sp, #4]
 739              		.loc 4 177 24 view .LVU240
 740 0100 EA60     		str	r2, [r5, #12]
 741              		.loc 4 177 28 view .LVU241
ARM GAS  /var/folders/9s/8rp0_f2s1n31qbztm3b5_fdh0000gn/T//ccmN9iqX.s 			page 40


 742 0102 0E22     		movs	r2, #14
 743 0104 5143     		muls	r1, r2, r1
 744 0106 4354     		strb	r3, [r0, r1]
 745 0108 4218     		adds	r2, r0, r1
 746 010a 029B     		ldr	r3, [sp, #8]
 747 010c 5670     		strb	r6, [r2, #1]
 748 010e 5380     		strh	r3, [r2, #2]	@ movhi
 749 0110 039B     		ldr	r3, [sp, #12]
 750 0112 A2F804B0 		strh	fp, [r2, #4]	@ movhi
 751 0116 1372     		strb	r3, [r2, #8]
 752 0118 049B     		ldr	r3, [sp, #16]
 753 011a 82F806A0 		strb	r10, [r2, #6]
 754 011e 5372     		strb	r3, [r2, #9]
 755 0120 059B     		ldr	r3, [sp, #20]
 756 0122 82F80790 		strb	r9, [r2, #7]
 757 0126 9372     		strb	r3, [r2, #10]
 758 0128 82F80B80 		strb	r8, [r2, #11]
 759 012c 1773     		strb	r7, [r2, #12]
 760 012e 5473     		strb	r4, [r2, #13]
 761              	.LBE161:
 151:eurorack/plaits/dsp/speech/lpc_speech_synth_controller.cc ****     int energy = bitstream.GetBits(4);
 762              		.loc 4 151 3 is_stmt 1 view .LVU242
 178:eurorack/plaits/dsp/speech/lpc_speech_synth_controller.cc ****   }
 763              		.loc 4 178 3 is_stmt 0 view .LVU243
 764 0130 7AE7     		b	.L21
 765              	.LVL70:
 766              	.L22:
 767              	.LBB162:
 768              	.LBB160:
 154:eurorack/plaits/dsp/speech/lpc_speech_synth_controller.cc ****     } else if (energy == 0xf) {
 769              		.loc 4 154 20 view .LVU244
 770 0132 0190     		str	r0, [sp, #4]
 771 0134 DFE7     		b	.L17
 772              	.LVL71:
 773              	.L19:
 774              	.LBB158:
 157:eurorack/plaits/dsp/speech/lpc_speech_synth_controller.cc ****     } else {
 775              		.loc 4 157 7 is_stmt 1 view .LVU245
 776              	.LBE158:
 777              	.LBE160:
 778              	.LBE162:
 179:eurorack/plaits/dsp/speech/lpc_speech_synth_controller.cc ****   return bitstream.ptr() - data;
 779              		.loc 4 179 3 view .LVU246
 780              	.LBB163:
 781              	.LBI163:
  70:eurorack/plaits/dsp/speech/lpc_speech_synth_controller.h **** 
 782              		.loc 2 70 25 view .LVU247
 783              	.LBB164:
  70:eurorack/plaits/dsp/speech/lpc_speech_synth_controller.h **** 
 784              		.loc 2 70 39 view .LVU248
  70:eurorack/plaits/dsp/speech/lpc_speech_synth_controller.h **** 
 785              		.loc 2 70 39 is_stmt 0 view .LVU249
 786              	.LBE164:
 787              	.LBE163:
 788              		.loc 4 179 26 view .LVU250
 789 0136 0998     		ldr	r0, [sp, #36]
 790 0138 069B     		ldr	r3, [sp, #24]
ARM GAS  /var/folders/9s/8rp0_f2s1n31qbztm3b5_fdh0000gn/T//ccmN9iqX.s 			page 41


 791 013a C01A     		subs	r0, r0, r3
 792              	.LVL72:
 793              	.LBB165:
 794              	.LBI165:
  41:eurorack/plaits/dsp/speech/lpc_speech_synth_controller.h **** 
 795              		.loc 2 41 3 is_stmt 1 view .LVU251
  41:eurorack/plaits/dsp/speech/lpc_speech_synth_controller.h **** 
 796              		.loc 2 41 3 is_stmt 0 view .LVU252
 797              	.LBE165:
 180:eurorack/plaits/dsp/speech/lpc_speech_synth_controller.cc **** }
 798              		.loc 4 180 1 view .LVU253
 799 013c 0DB0     		add	sp, sp, #52
 800              		.cfi_def_cfa_offset 36
 801              		@ sp needed
 802 013e BDE8F08F 		pop	{r4, r5, r6, r7, r8, r9, r10, fp, pc}
 803              	.LVL73:
 804              	.L28:
 805              		.loc 4 180 1 view .LVU254
 806 0142 00BF     		.align	2
 807              	.L27:
 808 0144 00000000 		.word	.LANCHOR0
 809 0148 00000000 		.word	.LANCHOR1
 810 014c 00000000 		.word	.LANCHOR2
 811 0150 00000000 		.word	.LANCHOR3
 812 0154 00000000 		.word	.LANCHOR4
 813 0158 00000000 		.word	.LANCHOR5
 814 015c 00000000 		.word	.LANCHOR6
 815 0160 00000000 		.word	.LANCHOR7
 816 0164 00000000 		.word	.LANCHOR8
 817 0168 00000000 		.word	.LANCHOR9
 818 016c 00000000 		.word	.LANCHOR10
 819 0170 00000000 		.word	.LANCHOR11
 820              		.cfi_endproc
 821              	.LFE1482:
 823              		.section	.text._ZN6plaits22LPCSpeechSynthWordBank4LoadEi,"ax",%progbits
 824              		.align	1
 825              		.global	_ZN6plaits22LPCSpeechSynthWordBank4LoadEi
 826              		.syntax unified
 827              		.thumb
 828              		.thumb_func
 830              	_ZN6plaits22LPCSpeechSynthWordBank4LoadEi:
 831              	.LVL74:
 832              	.LFB1483:
 181:eurorack/plaits/dsp/speech/lpc_speech_synth_controller.cc **** 
 182:eurorack/plaits/dsp/speech/lpc_speech_synth_controller.cc **** bool LPCSpeechSynthWordBank::Load(int bank) {
 833              		.loc 4 182 45 is_stmt 1 view -0
 834              		.cfi_startproc
 835              		@ args = 0, pretend = 0, frame = 0
 836              		@ frame_needed = 0, uses_anonymous_args = 0
 183:eurorack/plaits/dsp/speech/lpc_speech_synth_controller.cc ****   if (bank == loaded_bank_ || bank >= num_banks_) {
 837              		.loc 4 183 3 view .LVU256
 182:eurorack/plaits/dsp/speech/lpc_speech_synth_controller.cc ****   if (bank == loaded_bank_ || bank >= num_banks_) {
 838              		.loc 4 182 45 is_stmt 0 view .LVU257
 839 0000 F8B5     		push	{r3, r4, r5, r6, r7, lr}
 840              		.cfi_def_cfa_offset 24
 841              		.cfi_offset 3, -24
 842              		.cfi_offset 4, -20
ARM GAS  /var/folders/9s/8rp0_f2s1n31qbztm3b5_fdh0000gn/T//ccmN9iqX.s 			page 42


 843              		.cfi_offset 5, -16
 844              		.cfi_offset 6, -12
 845              		.cfi_offset 7, -8
 846              		.cfi_offset 14, -4
 847              		.loc 4 183 3 view .LVU258
 848 0002 8368     		ldr	r3, [r0, #8]
 182:eurorack/plaits/dsp/speech/lpc_speech_synth_controller.cc ****   if (bank == loaded_bank_ || bank >= num_banks_) {
 849              		.loc 4 182 45 view .LVU259
 850 0004 0446     		mov	r4, r0
 851 0006 0D46     		mov	r5, r1
 852 0008 0020     		movs	r0, #0
 853              	.LVL75:
 854              		.loc 4 183 3 view .LVU260
 855 000a 8B42     		cmp	r3, r1
 856 000c 1DD0     		beq	.L30
 857              		.loc 4 183 28 discriminator 1 view .LVU261
 858 000e 6368     		ldr	r3, [r4, #4]
 859 0010 8B42     		cmp	r3, r1
 860 0012 1ADD     		ble	.L30
 861              	.LVL76:
 862              	.LBB169:
 863              	.LBI169:
 182:eurorack/plaits/dsp/speech/lpc_speech_synth_controller.cc ****   if (bank == loaded_bank_ || bank >= num_banks_) {
 864              		.loc 4 182 6 is_stmt 1 view .LVU262
 865              	.LBB170:
 184:eurorack/plaits/dsp/speech/lpc_speech_synth_controller.cc ****     return false;
 185:eurorack/plaits/dsp/speech/lpc_speech_synth_controller.cc ****   }
 186:eurorack/plaits/dsp/speech/lpc_speech_synth_controller.cc **** 
 187:eurorack/plaits/dsp/speech/lpc_speech_synth_controller.cc ****   num_frames_ = 0;
 866              		.loc 4 187 3 view .LVU263
 188:eurorack/plaits/dsp/speech/lpc_speech_synth_controller.cc ****   num_words_ = 0;
 189:eurorack/plaits/dsp/speech/lpc_speech_synth_controller.cc ****   
 190:eurorack/plaits/dsp/speech/lpc_speech_synth_controller.cc ****   const uint8_t* data = word_banks_[bank].data;
 867              		.loc 4 190 41 is_stmt 0 view .LVU264
 868 0014 2368     		ldr	r3, [r4]
 869 0016 03EBC102 		add	r2, r3, r1, lsl #3
 870              		.loc 4 190 18 view .LVU265
 871 001a 53F83170 		ldr	r7, [r3, r1, lsl #3]
 191:eurorack/plaits/dsp/speech/lpc_speech_synth_controller.cc ****   size_t size = word_banks_[bank].size;
 872              		.loc 4 191 10 view .LVU266
 873 001e 5668     		ldr	r6, [r2, #4]
 188:eurorack/plaits/dsp/speech/lpc_speech_synth_controller.cc ****   num_words_ = 0;
 874              		.loc 4 188 14 view .LVU267
 875 0020 C4E90300 		strd	r0, r0, [r4, #12]
 190:eurorack/plaits/dsp/speech/lpc_speech_synth_controller.cc ****   size_t size = word_banks_[bank].size;
 876              		.loc 4 190 3 is_stmt 1 view .LVU268
 877              	.LVL77:
 878              		.loc 4 191 3 view .LVU269
 879              	.L32:
 192:eurorack/plaits/dsp/speech/lpc_speech_synth_controller.cc ****   
 193:eurorack/plaits/dsp/speech/lpc_speech_synth_controller.cc ****   while (size) {
 880              		.loc 4 193 3 view .LVU270
 881              		.loc 4 193 10 view .LVU271
 882              	.LBB171:
 194:eurorack/plaits/dsp/speech/lpc_speech_synth_controller.cc ****     word_boundaries_[num_words_] = num_frames_;
 883              		.loc 4 194 36 is_stmt 0 view .LVU272
 884 0024 D4E90323 		ldrd	r2, r3, [r4, #12]
ARM GAS  /var/folders/9s/8rp0_f2s1n31qbztm3b5_fdh0000gn/T//ccmN9iqX.s 			page 43


 885 0028 0433     		adds	r3, r3, #4
 886              	.LBE171:
 195:eurorack/plaits/dsp/speech/lpc_speech_synth_controller.cc ****     size_t consumed = LoadNextWord(data);
 196:eurorack/plaits/dsp/speech/lpc_speech_synth_controller.cc **** 
 197:eurorack/plaits/dsp/speech/lpc_speech_synth_controller.cc ****     data += consumed;
 198:eurorack/plaits/dsp/speech/lpc_speech_synth_controller.cc ****     size -= consumed;
 199:eurorack/plaits/dsp/speech/lpc_speech_synth_controller.cc ****     ++num_words_;
 200:eurorack/plaits/dsp/speech/lpc_speech_synth_controller.cc ****   }
 201:eurorack/plaits/dsp/speech/lpc_speech_synth_controller.cc ****   word_boundaries_[num_words_] = num_frames_;
 887              		.loc 4 201 32 view .LVU273
 888 002a 04EB8303 		add	r3, r4, r3, lsl #2
 889 002e 5A60     		str	r2, [r3, #4]
 193:eurorack/plaits/dsp/speech/lpc_speech_synth_controller.cc ****     word_boundaries_[num_words_] = num_frames_;
 890              		.loc 4 193 10 view .LVU274
 891 0030 4EB1     		cbz	r6, .L31
 892              	.LBB172:
 194:eurorack/plaits/dsp/speech/lpc_speech_synth_controller.cc ****     word_boundaries_[num_words_] = num_frames_;
 893              		.loc 4 194 5 is_stmt 1 view .LVU275
 195:eurorack/plaits/dsp/speech/lpc_speech_synth_controller.cc ****     size_t consumed = LoadNextWord(data);
 894              		.loc 4 195 5 view .LVU276
 195:eurorack/plaits/dsp/speech/lpc_speech_synth_controller.cc ****     size_t consumed = LoadNextWord(data);
 895              		.loc 4 195 35 is_stmt 0 view .LVU277
 896 0032 3946     		mov	r1, r7
 897 0034 2046     		mov	r0, r4
 898 0036 FFF7FEFF 		bl	_ZN6plaits22LPCSpeechSynthWordBank12LoadNextWordEPKh
 899              	.LVL78:
 197:eurorack/plaits/dsp/speech/lpc_speech_synth_controller.cc ****     size -= consumed;
 900              		.loc 4 197 5 is_stmt 1 view .LVU278
 199:eurorack/plaits/dsp/speech/lpc_speech_synth_controller.cc ****   }
 901              		.loc 4 199 5 is_stmt 0 view .LVU279
 902 003a 2369     		ldr	r3, [r4, #16]
 197:eurorack/plaits/dsp/speech/lpc_speech_synth_controller.cc ****     size -= consumed;
 903              		.loc 4 197 10 view .LVU280
 904 003c 0744     		add	r7, r7, r0
 905              	.LVL79:
 198:eurorack/plaits/dsp/speech/lpc_speech_synth_controller.cc ****     ++num_words_;
 906              		.loc 4 198 5 is_stmt 1 view .LVU281
 198:eurorack/plaits/dsp/speech/lpc_speech_synth_controller.cc ****     ++num_words_;
 907              		.loc 4 198 10 is_stmt 0 view .LVU282
 908 003e 361A     		subs	r6, r6, r0
 909              	.LVL80:
 199:eurorack/plaits/dsp/speech/lpc_speech_synth_controller.cc ****   }
 910              		.loc 4 199 5 is_stmt 1 view .LVU283
 911 0040 0133     		adds	r3, r3, #1
 912 0042 2361     		str	r3, [r4, #16]
 913              	.LBE172:
 193:eurorack/plaits/dsp/speech/lpc_speech_synth_controller.cc ****     word_boundaries_[num_words_] = num_frames_;
 914              		.loc 4 193 3 is_stmt 0 view .LVU284
 915 0044 EEE7     		b	.L32
 916              	.LVL81:
 917              	.L31:
 918              		.loc 4 201 3 is_stmt 1 view .LVU285
 202:eurorack/plaits/dsp/speech/lpc_speech_synth_controller.cc ****   loaded_bank_ = bank;
 919              		.loc 4 202 3 view .LVU286
 920              		.loc 4 202 16 is_stmt 0 view .LVU287
 921 0046 0120     		movs	r0, #1
 922 0048 A560     		str	r5, [r4, #8]
ARM GAS  /var/folders/9s/8rp0_f2s1n31qbztm3b5_fdh0000gn/T//ccmN9iqX.s 			page 44


 203:eurorack/plaits/dsp/speech/lpc_speech_synth_controller.cc ****   return true;
 923              		.loc 4 203 3 is_stmt 1 view .LVU288
 924              	.LVL82:
 925              	.L30:
 926              		.loc 4 203 3 is_stmt 0 view .LVU289
 927              	.LBE170:
 928              	.LBE169:
 204:eurorack/plaits/dsp/speech/lpc_speech_synth_controller.cc **** }
 929              		.loc 4 204 1 view .LVU290
 930 004a F8BD     		pop	{r3, r4, r5, r6, r7, pc}
 931              		.loc 4 204 1 view .LVU291
 932              		.cfi_endproc
 933              	.LFE1483:
 935              		.section	.text._ZN6plaits24LPCSpeechSynthController4InitEPNS_22LPCSpeechSynthWordBankE,"ax",%progb
 936              		.align	1
 937              		.global	_ZN6plaits24LPCSpeechSynthController4InitEPNS_22LPCSpeechSynthWordBankE
 938              		.syntax unified
 939              		.thumb
 940              		.thumb_func
 942              	_ZN6plaits24LPCSpeechSynthController4InitEPNS_22LPCSpeechSynthWordBankE:
 943              	.LVL83:
 944              	.LFB1484:
 205:eurorack/plaits/dsp/speech/lpc_speech_synth_controller.cc **** 
 206:eurorack/plaits/dsp/speech/lpc_speech_synth_controller.cc **** void LPCSpeechSynthController::Init(LPCSpeechSynthWordBank* word_bank) {
 945              		.loc 4 206 72 is_stmt 1 view -0
 946              		.cfi_startproc
 947              		@ args = 0, pretend = 0, frame = 0
 948              		@ frame_needed = 0, uses_anonymous_args = 0
 949              		@ link register save eliminated.
 207:eurorack/plaits/dsp/speech/lpc_speech_synth_controller.cc ****   word_bank_ = word_bank;
 950              		.loc 4 207 3 view .LVU293
 208:eurorack/plaits/dsp/speech/lpc_speech_synth_controller.cc ****   
 209:eurorack/plaits/dsp/speech/lpc_speech_synth_controller.cc ****   clock_phase_ = 0.0f;
 210:eurorack/plaits/dsp/speech/lpc_speech_synth_controller.cc ****   playback_frame_ = -1;
 951              		.loc 4 210 19 is_stmt 0 view .LVU294
 952 0000 4FF0FF32 		mov	r2, #-1
 209:eurorack/plaits/dsp/speech/lpc_speech_synth_controller.cc ****   playback_frame_ = -1;
 953              		.loc 4 209 16 view .LVU295
 954 0004 0023     		movs	r3, #0
 207:eurorack/plaits/dsp/speech/lpc_speech_synth_controller.cc ****   word_bank_ = word_bank;
 955              		.loc 4 207 14 view .LVU296
 956 0006 C0F89010 		str	r1, [r0, #144]
 209:eurorack/plaits/dsp/speech/lpc_speech_synth_controller.cc ****   playback_frame_ = -1;
 957              		.loc 4 209 3 is_stmt 1 view .LVU297
 209:eurorack/plaits/dsp/speech/lpc_speech_synth_controller.cc ****   playback_frame_ = -1;
 958              		.loc 4 209 16 is_stmt 0 view .LVU298
 959 000a 0360     		str	r3, [r0]	@ float
 960              		.loc 4 210 3 is_stmt 1 view .LVU299
 961              	.LBB183:
 962              	.LBB184:
 963              	.LBB185:
 964              	.LBB186:
 873:/Library/DaisyToolchain/0.2.0/arm/arm-none-eabi/include/c++/10.3.1/bits/stl_algobase.h ****     }
 965              		.loc 5 873 11 is_stmt 0 view .LVU300
 966 000c 4360     		str	r3, [r0, #4]	@ float
 967 000e 8360     		str	r3, [r0, #8]	@ float
 968              	.LBE186:
ARM GAS  /var/folders/9s/8rp0_f2s1n31qbztm3b5_fdh0000gn/T//ccmN9iqX.s 			page 45


 969              	.LBE185:
 970              	.LBE184:
 971              	.LBE183:
 972              	.LBB190:
 973              	.LBB191:
 974              	.LBB192:
 975              	.LBB193:
 976 0010 C360     		str	r3, [r0, #12]	@ float
 977 0012 0361     		str	r3, [r0, #16]	@ float
 978              	.LBE193:
 979              	.LBE192:
 980              	.LBE191:
 981              	.LBE190:
 211:eurorack/plaits/dsp/speech/lpc_speech_synth_controller.cc ****   last_playback_frame_ = -1;
 212:eurorack/plaits/dsp/speech/lpc_speech_synth_controller.cc ****   remaining_frame_samples_ = 0;
 213:eurorack/plaits/dsp/speech/lpc_speech_synth_controller.cc **** 
 214:eurorack/plaits/dsp/speech/lpc_speech_synth_controller.cc ****   fill(&sample_[0], &sample_[2], 0.0f);
 215:eurorack/plaits/dsp/speech/lpc_speech_synth_controller.cc ****   fill(&next_sample_[0], &next_sample_[2], 0.0f);
 216:eurorack/plaits/dsp/speech/lpc_speech_synth_controller.cc **** 
 217:eurorack/plaits/dsp/speech/lpc_speech_synth_controller.cc ****   gain_ = 0.0f;
 982              		.loc 4 217 9 view .LVU301
 983 0014 4361     		str	r3, [r0, #20]	@ float
 211:eurorack/plaits/dsp/speech/lpc_speech_synth_controller.cc ****   last_playback_frame_ = -1;
 984              		.loc 4 211 24 view .LVU302
 985 0016 C0E92122 		strd	r2, r2, [r0, #132]
 212:eurorack/plaits/dsp/speech/lpc_speech_synth_controller.cc **** 
 986              		.loc 4 212 3 is_stmt 1 view .LVU303
 212:eurorack/plaits/dsp/speech/lpc_speech_synth_controller.cc **** 
 987              		.loc 4 212 28 is_stmt 0 view .LVU304
 988 001a 0022     		movs	r2, #0
 218:eurorack/plaits/dsp/speech/lpc_speech_synth_controller.cc ****   
 219:eurorack/plaits/dsp/speech/lpc_speech_synth_controller.cc ****   synth_.Init();
 989              		.loc 4 219 14 view .LVU305
 990 001c 1830     		adds	r0, r0, #24
 991              	.LVL84:
 212:eurorack/plaits/dsp/speech/lpc_speech_synth_controller.cc **** 
 992              		.loc 4 212 28 view .LVU306
 993 001e 4267     		str	r2, [r0, #116]
 214:eurorack/plaits/dsp/speech/lpc_speech_synth_controller.cc ****   fill(&next_sample_[0], &next_sample_[2], 0.0f);
 994              		.loc 4 214 3 is_stmt 1 view .LVU307
 995              	.LVL85:
 996              	.LBB197:
 997              	.LBI183:
 998              		.loc 5 937 5 view .LVU308
 999              	.LBB189:
 1000              	.LBI184:
 913:/Library/DaisyToolchain/0.2.0/arm/arm-none-eabi/include/c++/10.3.1/bits/stl_algobase.h ****     { std::__fill_a1(__first, __last, __value); }
 1001              		.loc 5 913 5 view .LVU309
 1002              	.LBB188:
 1003              	.LBI185:
 868:/Library/DaisyToolchain/0.2.0/arm/arm-none-eabi/include/c++/10.3.1/bits/stl_algobase.h **** 	      const _Tp& __value)
 1004              		.loc 5 868 5 view .LVU310
 1005              	.LBB187:
 872:/Library/DaisyToolchain/0.2.0/arm/arm-none-eabi/include/c++/10.3.1/bits/stl_algobase.h **** 	*__first = __tmp;
 1006              		.loc 5 872 22 view .LVU311
 872:/Library/DaisyToolchain/0.2.0/arm/arm-none-eabi/include/c++/10.3.1/bits/stl_algobase.h **** 	*__first = __tmp;
 1007              		.loc 5 872 7 view .LVU312
ARM GAS  /var/folders/9s/8rp0_f2s1n31qbztm3b5_fdh0000gn/T//ccmN9iqX.s 			page 46


 872:/Library/DaisyToolchain/0.2.0/arm/arm-none-eabi/include/c++/10.3.1/bits/stl_algobase.h **** 	*__first = __tmp;
 1008              		.loc 5 872 22 view .LVU313
 872:/Library/DaisyToolchain/0.2.0/arm/arm-none-eabi/include/c++/10.3.1/bits/stl_algobase.h **** 	*__first = __tmp;
 1009              		.loc 5 872 7 view .LVU314
 872:/Library/DaisyToolchain/0.2.0/arm/arm-none-eabi/include/c++/10.3.1/bits/stl_algobase.h **** 	*__first = __tmp;
 1010              		.loc 5 872 22 view .LVU315
 872:/Library/DaisyToolchain/0.2.0/arm/arm-none-eabi/include/c++/10.3.1/bits/stl_algobase.h **** 	*__first = __tmp;
 1011              		.loc 5 872 22 is_stmt 0 view .LVU316
 1012              	.LBE187:
 1013              	.LBE188:
 1014              	.LBE189:
 1015              	.LBE197:
 215:eurorack/plaits/dsp/speech/lpc_speech_synth_controller.cc **** 
 1016              		.loc 4 215 3 is_stmt 1 view .LVU317
 1017              	.LBB198:
 1018              	.LBI190:
 1019              		.loc 5 937 5 view .LVU318
 1020              	.LBB196:
 1021              	.LBI191:
 913:/Library/DaisyToolchain/0.2.0/arm/arm-none-eabi/include/c++/10.3.1/bits/stl_algobase.h ****     { std::__fill_a1(__first, __last, __value); }
 1022              		.loc 5 913 5 view .LVU319
 1023              	.LBB195:
 1024              	.LBI192:
 868:/Library/DaisyToolchain/0.2.0/arm/arm-none-eabi/include/c++/10.3.1/bits/stl_algobase.h **** 	      const _Tp& __value)
 1025              		.loc 5 868 5 view .LVU320
 1026              	.LBB194:
 872:/Library/DaisyToolchain/0.2.0/arm/arm-none-eabi/include/c++/10.3.1/bits/stl_algobase.h **** 	*__first = __tmp;
 1027              		.loc 5 872 22 view .LVU321
 872:/Library/DaisyToolchain/0.2.0/arm/arm-none-eabi/include/c++/10.3.1/bits/stl_algobase.h **** 	*__first = __tmp;
 1028              		.loc 5 872 7 view .LVU322
 872:/Library/DaisyToolchain/0.2.0/arm/arm-none-eabi/include/c++/10.3.1/bits/stl_algobase.h **** 	*__first = __tmp;
 1029              		.loc 5 872 22 view .LVU323
 872:/Library/DaisyToolchain/0.2.0/arm/arm-none-eabi/include/c++/10.3.1/bits/stl_algobase.h **** 	*__first = __tmp;
 1030              		.loc 5 872 7 view .LVU324
 872:/Library/DaisyToolchain/0.2.0/arm/arm-none-eabi/include/c++/10.3.1/bits/stl_algobase.h **** 	*__first = __tmp;
 1031              		.loc 5 872 22 view .LVU325
 872:/Library/DaisyToolchain/0.2.0/arm/arm-none-eabi/include/c++/10.3.1/bits/stl_algobase.h **** 	*__first = __tmp;
 1032              		.loc 5 872 22 is_stmt 0 view .LVU326
 1033              	.LBE194:
 1034              	.LBE195:
 1035              	.LBE196:
 1036              	.LBE198:
 217:eurorack/plaits/dsp/speech/lpc_speech_synth_controller.cc ****   
 1037              		.loc 4 217 3 is_stmt 1 view .LVU327
 1038              		.loc 4 219 3 view .LVU328
 1039              		.loc 4 219 14 is_stmt 0 view .LVU329
 1040 0020 FFF7FEBF 		b	_ZN6plaits14LPCSpeechSynth4InitEv
 1041              	.LVL86:
 1042              		.loc 4 219 14 view .LVU330
 1043              		.cfi_endproc
 1044              	.LFE1484:
 1046              		.section	.text._ZN6plaits24LPCSpeechSynthController6RenderEbbiffffffPfS1_j,"ax",%progbits
 1047              		.align	1
 1048              		.global	_ZN6plaits24LPCSpeechSynthController6RenderEbbiffffffPfS1_j
 1049              		.syntax unified
 1050              		.thumb
 1051              		.thumb_func
ARM GAS  /var/folders/9s/8rp0_f2s1n31qbztm3b5_fdh0000gn/T//ccmN9iqX.s 			page 47


 1053              	_ZN6plaits24LPCSpeechSynthController6RenderEbbiffffffPfS1_j:
 1054              	.LVL87:
 1055              	.LFB1485:
 220:eurorack/plaits/dsp/speech/lpc_speech_synth_controller.cc **** }
 221:eurorack/plaits/dsp/speech/lpc_speech_synth_controller.cc **** 
 222:eurorack/plaits/dsp/speech/lpc_speech_synth_controller.cc **** void LPCSpeechSynthController::Render(
 223:eurorack/plaits/dsp/speech/lpc_speech_synth_controller.cc ****     bool free_running,
 224:eurorack/plaits/dsp/speech/lpc_speech_synth_controller.cc ****     bool trigger,
 225:eurorack/plaits/dsp/speech/lpc_speech_synth_controller.cc ****     int bank,
 226:eurorack/plaits/dsp/speech/lpc_speech_synth_controller.cc ****     float frequency,
 227:eurorack/plaits/dsp/speech/lpc_speech_synth_controller.cc ****     float prosody_amount,
 228:eurorack/plaits/dsp/speech/lpc_speech_synth_controller.cc ****     float speed,
 229:eurorack/plaits/dsp/speech/lpc_speech_synth_controller.cc ****     float address,
 230:eurorack/plaits/dsp/speech/lpc_speech_synth_controller.cc ****     float formant_shift,
 231:eurorack/plaits/dsp/speech/lpc_speech_synth_controller.cc ****     float gain,
 232:eurorack/plaits/dsp/speech/lpc_speech_synth_controller.cc ****     float* excitation,
 233:eurorack/plaits/dsp/speech/lpc_speech_synth_controller.cc ****     float* output,
 234:eurorack/plaits/dsp/speech/lpc_speech_synth_controller.cc ****     size_t size) {
 1056              		.loc 4 234 18 is_stmt 1 view -0
 1057              		.cfi_startproc
 1058              		@ args = 12, pretend = 0, frame = 16
 1059              		@ frame_needed = 0, uses_anonymous_args = 0
 235:eurorack/plaits/dsp/speech/lpc_speech_synth_controller.cc ****   const float rate_ratio = SemitonesToRatio((formant_shift - 0.5f) * 36.0f);
 1060              		.loc 4 235 3 view .LVU332
 234:eurorack/plaits/dsp/speech/lpc_speech_synth_controller.cc ****   const float rate_ratio = SemitonesToRatio((formant_shift - 0.5f) * 36.0f);
 1061              		.loc 4 234 18 is_stmt 0 view .LVU333
 1062 0000 2DE9F047 		push	{r4, r5, r6, r7, r8, r9, r10, lr}
 1063              		.cfi_def_cfa_offset 32
 1064              		.cfi_offset 4, -32
 1065              		.cfi_offset 5, -28
 1066              		.cfi_offset 6, -24
 1067              		.cfi_offset 7, -20
 1068              		.cfi_offset 8, -16
 1069              		.cfi_offset 9, -12
 1070              		.cfi_offset 10, -8
 1071              		.cfi_offset 14, -4
 1072 0004 2DED0A8B 		vpush.64	{d8, d9, d10, d11, d12}
 1073              		.cfi_def_cfa_offset 72
 1074              		.cfi_offset 80, -72
 1075              		.cfi_offset 81, -68
 1076              		.cfi_offset 82, -64
 1077              		.cfi_offset 83, -60
 1078              		.cfi_offset 84, -56
 1079              		.cfi_offset 85, -52
 1080              		.cfi_offset 86, -48
 1081              		.cfi_offset 87, -44
 1082              		.cfi_offset 88, -40
 1083              		.cfi_offset 89, -36
 1084              		.loc 4 235 60 view .LVU334
 1085 0008 F6EE009A 		vmov.f32	s19, #5.0e-1
 1086              		.loc 4 235 44 view .LVU335
 1087 000c DFEDBF7A 		vldr.32	s15, .L74
 234:eurorack/plaits/dsp/speech/lpc_speech_synth_controller.cc ****   const float rate_ratio = SemitonesToRatio((formant_shift - 0.5f) * 36.0f);
 1088              		.loc 4 234 18 view .LVU336
 1089 0010 F0EE40BA 		vmov.f32	s23, s0
 1090 0014 84B0     		sub	sp, sp, #16
 1091              		.cfi_def_cfa_offset 88
ARM GAS  /var/folders/9s/8rp0_f2s1n31qbztm3b5_fdh0000gn/T//ccmN9iqX.s 			page 48


 234:eurorack/plaits/dsp/speech/lpc_speech_synth_controller.cc ****   const float rate_ratio = SemitonesToRatio((formant_shift - 0.5f) * 36.0f);
 1092              		.loc 4 234 18 view .LVU337
 1093 0016 B0EE41CA 		vmov.f32	s24, s2
 1094 001a 0446     		mov	r4, r0
 1095              		.loc 4 235 60 view .LVU338
 1096 001c 32EE690A 		vsub.f32	s0, s4, s19
 1097              	.LVL88:
 234:eurorack/plaits/dsp/speech/lpc_speech_synth_controller.cc ****   const float rate_ratio = SemitonesToRatio((formant_shift - 0.5f) * 36.0f);
 1098              		.loc 4 234 18 view .LVU339
 1099 0020 0F46     		mov	r7, r1
 1100 0022 B0EE428A 		vmov.f32	s16, s4
 1101 0026 9246     		mov	r10, r2
 1102 0028 F0EE608A 		vmov.f32	s17, s1
 1103 002c 1D46     		mov	r5, r3
 1104              		.loc 4 235 44 view .LVU340
 1105 002e 20EE270A 		vmul.f32	s0, s0, s15
 234:eurorack/plaits/dsp/speech/lpc_speech_synth_controller.cc ****   const float rate_ratio = SemitonesToRatio((formant_shift - 0.5f) * 36.0f);
 1106              		.loc 4 234 18 view .LVU341
 1107 0032 189E     		ldr	r6, [sp, #96]
 1108 0034 F0EE61AA 		vmov.f32	s21, s3
 1109 0038 B0EE62BA 		vmov.f32	s22, s5
 1110              		.loc 4 235 44 view .LVU342
 1111 003c FFF7FEFF 		bl	_ZN6stmlib16SemitonesToRatioEf
 1112              	.LVL89:
 236:eurorack/plaits/dsp/speech/lpc_speech_synth_controller.cc ****   const float rate = rate_ratio / 6.0f;
 1113              		.loc 4 236 3 is_stmt 1 view .LVU343
 1114              		.loc 4 236 15 is_stmt 0 view .LVU344
 1115 0040 F1EE087A 		vmov.f32	s15, #6.0e+0
 237:eurorack/plaits/dsp/speech/lpc_speech_synth_controller.cc ****   
 238:eurorack/plaits/dsp/speech/lpc_speech_synth_controller.cc ****   // All utterances have been normalized for an average f0 of 100 Hz.
 239:eurorack/plaits/dsp/speech/lpc_speech_synth_controller.cc ****   const float pitch_shift = frequency / \
 240:eurorack/plaits/dsp/speech/lpc_speech_synth_controller.cc ****       (rate_ratio * kLPCSpeechSynthDefaultF0 / kCorrectedSampleRate);
 1116              		.loc 4 240 46 view .LVU345
 1117 0044 9FEDB27A 		vldr.32	s14, .L74+4
 234:eurorack/plaits/dsp/speech/lpc_speech_synth_controller.cc ****   const float rate_ratio = SemitonesToRatio((formant_shift - 0.5f) * 36.0f);
 1118              		.loc 4 234 18 view .LVU346
 1119 0048 DDE91689 		ldrd	r8, r9, [sp, #88]
 236:eurorack/plaits/dsp/speech/lpc_speech_synth_controller.cc ****   const float rate = rate_ratio / 6.0f;
 1120              		.loc 4 236 15 view .LVU347
 1121 004c 80EE279A 		vdiv.f32	s18, s0, s15
 1122              	.LVL90:
 239:eurorack/plaits/dsp/speech/lpc_speech_synth_controller.cc ****       (rate_ratio * kLPCSpeechSynthDefaultF0 / kCorrectedSampleRate);
 1123              		.loc 4 239 3 is_stmt 1 view .LVU348
 1124              		.loc 4 240 19 is_stmt 0 view .LVU349
 1125 0050 DFEDB07A 		vldr.32	s15, .L74+8
 1126 0054 20EE270A 		vmul.f32	s0, s0, s15
 1127              	.LVL91:
 1128              		.loc 4 240 46 view .LVU350
 1129 0058 C0EE077A 		vdiv.f32	s15, s0, s14
 241:eurorack/plaits/dsp/speech/lpc_speech_synth_controller.cc ****   const float time_stretch = SemitonesToRatio(-speed * 24.0f +
 1130              		.loc 4 241 54 view .LVU351
 1131 005c B3EE080A 		vmov.f32	s0, #2.4e+1
 1132 0060 2CEE400A 		vnmul.f32	s0, s24, s0
 239:eurorack/plaits/dsp/speech/lpc_speech_synth_controller.cc ****       (rate_ratio * kLPCSpeechSynthDefaultF0 / kCorrectedSampleRate);
 1133              		.loc 4 239 15 view .LVU352
 1134 0064 8BEEA7AA 		vdiv.f32	s20, s23, s15
 1135              	.LVL92:
ARM GAS  /var/folders/9s/8rp0_f2s1n31qbztm3b5_fdh0000gn/T//ccmN9iqX.s 			page 49


 1136              		.loc 4 241 3 is_stmt 1 view .LVU353
 242:eurorack/plaits/dsp/speech/lpc_speech_synth_controller.cc ****         (formant_shift < 0.4f ? (formant_shift - 0.4f) * -45.0f
 1137              		.loc 4 242 31 is_stmt 0 view .LVU354
 1138 0068 DFEDAB7A 		vldr.32	s15, .L74+12
 1139 006c B4EEE78A 		vcmpe.f32	s16, s15
 1140 0070 F1EE10FA 		vmrs	APSR_nzcv, FPSCR
 1141 0074 2BD5     		bpl	.L69
 1142              	.L72:
 243:eurorack/plaits/dsp/speech/lpc_speech_synth_controller.cc ****             : (formant_shift > 0.6f ? (formant_shift - 0.6f) * -45.0f : 0.0f)));
 1143              		.loc 4 243 54 discriminator 1 view .LVU355
 1144 0076 78EE677A 		vsub.f32	s15, s16, s15
 1145              		.loc 4 243 37 discriminator 1 view .LVU356
 1146 007a 9FEDA87A 		vldr.32	s14, .L74+16
 1147 007e 67EE877A 		vmul.f32	s15, s15, s14
 1148              	.L39:
 241:eurorack/plaits/dsp/speech/lpc_speech_synth_controller.cc ****   const float time_stretch = SemitonesToRatio(-speed * 24.0f +
 1149              		.loc 4 241 46 view .LVU357
 1150 0082 30EE270A 		vadd.f32	s0, s0, s15
 1151 0086 FFF7FEFF 		bl	_ZN6stmlib16SemitonesToRatioEf
 1152              	.LVL93:
 1153              	.LBB258:
 244:eurorack/plaits/dsp/speech/lpc_speech_synth_controller.cc ****   
 245:eurorack/plaits/dsp/speech/lpc_speech_synth_controller.cc ****   if (bank != -1) {
 1154              		.loc 4 245 3 view .LVU358
 1155 008a 6B1C     		adds	r3, r5, #1
 1156              	.LBE258:
 241:eurorack/plaits/dsp/speech/lpc_speech_synth_controller.cc ****         (formant_shift < 0.4f ? (formant_shift - 0.4f) * -45.0f
 1157              		.loc 4 241 46 view .LVU359
 1158 008c B0EE40CA 		vmov.f32	s24, s0
 1159              	.LVL94:
 1160              		.loc 4 245 3 is_stmt 1 view .LVU360
 1161              	.LBB260:
 1162 0090 00F03581 		beq	.L41
 1163              	.LBB259:
 246:eurorack/plaits/dsp/speech/lpc_speech_synth_controller.cc ****     bool reset_everything = word_bank_->Load(bank);
 1164              		.loc 4 246 5 view .LVU361
 1165              		.loc 4 246 45 is_stmt 0 view .LVU362
 1166 0094 2946     		mov	r1, r5
 1167 0096 D4F89000 		ldr	r0, [r4, #144]
 1168 009a FFF7FEFF 		bl	_ZN6plaits22LPCSpeechSynthWordBank4LoadEi
 1169              	.LVL95:
 247:eurorack/plaits/dsp/speech/lpc_speech_synth_controller.cc ****     if (reset_everything) {
 1170              		.loc 4 247 5 is_stmt 1 view .LVU363
 1171 009e 18B1     		cbz	r0, .L42
 248:eurorack/plaits/dsp/speech/lpc_speech_synth_controller.cc ****       playback_frame_ = -1;
 1172              		.loc 4 248 7 view .LVU364
 1173              		.loc 4 248 23 is_stmt 0 view .LVU365
 1174 00a0 4FF0FF33 		mov	r3, #-1
 249:eurorack/plaits/dsp/speech/lpc_speech_synth_controller.cc ****       last_playback_frame_ = -1;
 1175              		.loc 4 249 28 view .LVU366
 1176 00a4 C4E92133 		strd	r3, r3, [r4, #132]
 1177              	.L42:
 1178              	.LBE259:
 1179              	.LBE260:
 250:eurorack/plaits/dsp/speech/lpc_speech_synth_controller.cc ****     }
 251:eurorack/plaits/dsp/speech/lpc_speech_synth_controller.cc ****   }
 252:eurorack/plaits/dsp/speech/lpc_speech_synth_controller.cc ****   
ARM GAS  /var/folders/9s/8rp0_f2s1n31qbztm3b5_fdh0000gn/T//ccmN9iqX.s 			page 50


 253:eurorack/plaits/dsp/speech/lpc_speech_synth_controller.cc ****   const int num_frames = bank == -1
 1180              		.loc 4 253 3 is_stmt 1 view .LVU367
 254:eurorack/plaits/dsp/speech/lpc_speech_synth_controller.cc ****       ? kLPCSpeechSynthNumVowels
 255:eurorack/plaits/dsp/speech/lpc_speech_synth_controller.cc ****       : word_bank_->num_frames();
 1181              		.loc 4 255 9 is_stmt 0 view .LVU368
 1182 00a8 D4F89030 		ldr	r3, [r4, #144]
 1183              	.LVL96:
 1184              	.LBB261:
 1185              	.LBI261:
  78:eurorack/plaits/dsp/speech/lpc_speech_synth_controller.h ****   }
  79:eurorack/plaits/dsp/speech/lpc_speech_synth_controller.h **** 
  80:eurorack/plaits/dsp/speech/lpc_speech_synth_controller.h ****   const uint8_t* p_;
  81:eurorack/plaits/dsp/speech/lpc_speech_synth_controller.h ****   int available_;
  82:eurorack/plaits/dsp/speech/lpc_speech_synth_controller.h ****   uint16_t bits_;
  83:eurorack/plaits/dsp/speech/lpc_speech_synth_controller.h **** 
  84:eurorack/plaits/dsp/speech/lpc_speech_synth_controller.h ****   DISALLOW_COPY_AND_ASSIGN(BitStream);
  85:eurorack/plaits/dsp/speech/lpc_speech_synth_controller.h **** };
  86:eurorack/plaits/dsp/speech/lpc_speech_synth_controller.h **** 
  87:eurorack/plaits/dsp/speech/lpc_speech_synth_controller.h **** const int kLPCSpeechSynthMaxWords = 32;
  88:eurorack/plaits/dsp/speech/lpc_speech_synth_controller.h **** const int kLPCSpeechSynthMaxFrames = 1024;
  89:eurorack/plaits/dsp/speech/lpc_speech_synth_controller.h **** const int kLPCSpeechSynthNumVowels = 5;
  90:eurorack/plaits/dsp/speech/lpc_speech_synth_controller.h **** const int kLPCSpeechSynthNumConsonants = 10;
  91:eurorack/plaits/dsp/speech/lpc_speech_synth_controller.h **** const int kLPCSpeechSynthNumPhonemes = \
  92:eurorack/plaits/dsp/speech/lpc_speech_synth_controller.h ****     kLPCSpeechSynthNumVowels + kLPCSpeechSynthNumConsonants;
  93:eurorack/plaits/dsp/speech/lpc_speech_synth_controller.h **** const float kLPCSpeechSynthFPS = 40.0f;
  94:eurorack/plaits/dsp/speech/lpc_speech_synth_controller.h **** 
  95:eurorack/plaits/dsp/speech/lpc_speech_synth_controller.h **** struct LPCSpeechSynthWordBankData {
  96:eurorack/plaits/dsp/speech/lpc_speech_synth_controller.h ****   const uint8_t* data;
  97:eurorack/plaits/dsp/speech/lpc_speech_synth_controller.h ****   size_t size;
  98:eurorack/plaits/dsp/speech/lpc_speech_synth_controller.h **** };
  99:eurorack/plaits/dsp/speech/lpc_speech_synth_controller.h **** 
 100:eurorack/plaits/dsp/speech/lpc_speech_synth_controller.h **** class LPCSpeechSynthWordBank {
 101:eurorack/plaits/dsp/speech/lpc_speech_synth_controller.h ****  public:
 102:eurorack/plaits/dsp/speech/lpc_speech_synth_controller.h ****   LPCSpeechSynthWordBank() { }
 103:eurorack/plaits/dsp/speech/lpc_speech_synth_controller.h ****   ~LPCSpeechSynthWordBank() { }
 104:eurorack/plaits/dsp/speech/lpc_speech_synth_controller.h **** 
 105:eurorack/plaits/dsp/speech/lpc_speech_synth_controller.h ****   void Init(
 106:eurorack/plaits/dsp/speech/lpc_speech_synth_controller.h ****       const LPCSpeechSynthWordBankData* word_banks,
 107:eurorack/plaits/dsp/speech/lpc_speech_synth_controller.h ****       int num_banks,
 108:eurorack/plaits/dsp/speech/lpc_speech_synth_controller.h ****       stmlib::BufferAllocator* allocator);
 109:eurorack/plaits/dsp/speech/lpc_speech_synth_controller.h ****   
 110:eurorack/plaits/dsp/speech/lpc_speech_synth_controller.h ****   bool Load(int index);
 111:eurorack/plaits/dsp/speech/lpc_speech_synth_controller.h ****   void Reset();
 112:eurorack/plaits/dsp/speech/lpc_speech_synth_controller.h ****   
 113:eurorack/plaits/dsp/speech/lpc_speech_synth_controller.h ****   inline int num_frames() const { return num_frames_; }
 1186              		.loc 2 113 14 is_stmt 1 view .LVU369
 1187              	.LBB262:
 1188              		.loc 2 113 35 view .LVU370
 1189              		.loc 2 113 42 is_stmt 0 view .LVU371
 1190 00ac D868     		ldr	r0, [r3, #12]
 1191              	.LVL97:
 1192              		.loc 2 113 42 view .LVU372
 1193              	.LBE262:
 1194              	.LBE261:
 256:eurorack/plaits/dsp/speech/lpc_speech_synth_controller.cc **** 
 257:eurorack/plaits/dsp/speech/lpc_speech_synth_controller.cc ****   const LPCSpeechSynth::Frame* frames = bank == -1
 1195              		.loc 4 257 3 is_stmt 1 view .LVU373
ARM GAS  /var/folders/9s/8rp0_f2s1n31qbztm3b5_fdh0000gn/T//ccmN9iqX.s 			page 51


 1196              	.LBB263:
 1197              	.LBI263:
 114:eurorack/plaits/dsp/speech/lpc_speech_synth_controller.h ****   inline const LPCSpeechSynth::Frame* frames() const { return frames_; }
 1198              		.loc 2 114 39 view .LVU374
 1199              	.LBB264:
 1200              		.loc 2 114 56 view .LVU375
 1201              		.loc 2 114 63 is_stmt 0 view .LVU376
 1202 00ae D3F89410 		ldr	r1, [r3, #148]
 1203              	.LVL98:
 1204              		.loc 2 114 63 view .LVU377
 1205              	.LBE264:
 1206              	.LBE263:
 258:eurorack/plaits/dsp/speech/lpc_speech_synth_controller.cc ****       ? phonemes_
 259:eurorack/plaits/dsp/speech/lpc_speech_synth_controller.cc ****       : word_bank_->frames();
 260:eurorack/plaits/dsp/speech/lpc_speech_synth_controller.cc ****   
 261:eurorack/plaits/dsp/speech/lpc_speech_synth_controller.cc ****   if (trigger) {
 1207              		.loc 4 261 3 is_stmt 1 view .LVU378
 1208              	.LBB265:
 1209 00b2 BAF1000F 		cmp	r10, #0
 1210 00b6 34D0     		beq	.L57
 1211              	.LBB266:
 1212              	.LBB267:
 262:eurorack/plaits/dsp/speech/lpc_speech_synth_controller.cc ****     if (bank == -1) {
 263:eurorack/plaits/dsp/speech/lpc_speech_synth_controller.cc ****       // Pick a pseudo-random consonant, and play it for the duration of a
 264:eurorack/plaits/dsp/speech/lpc_speech_synth_controller.cc ****       // frame.
 265:eurorack/plaits/dsp/speech/lpc_speech_synth_controller.cc ****       int r = (address + 3.0f * formant_shift + 7.0f * frequency) * 8.0f;
 266:eurorack/plaits/dsp/speech/lpc_speech_synth_controller.cc ****       playback_frame_ = (r % kLPCSpeechSynthNumConsonants);
 267:eurorack/plaits/dsp/speech/lpc_speech_synth_controller.cc ****       playback_frame_ += kLPCSpeechSynthNumVowels;
 268:eurorack/plaits/dsp/speech/lpc_speech_synth_controller.cc ****       last_playback_frame_ = playback_frame_ + 1;
 269:eurorack/plaits/dsp/speech/lpc_speech_synth_controller.cc ****     } else {
 270:eurorack/plaits/dsp/speech/lpc_speech_synth_controller.cc ****       word_bank_->GetWordBoundaries(
 1213              		.loc 4 270 7 view .LVU379
 1214              	.LVL99:
 1215              	.LBB268:
 1216              	.LBI268:
 115:eurorack/plaits/dsp/speech/lpc_speech_synth_controller.h ****   
 116:eurorack/plaits/dsp/speech/lpc_speech_synth_controller.h ****   inline void GetWordBoundaries(float address, int* start, int* end) {
 1217              		.loc 2 116 15 view .LVU380
 1218              	.LBE268:
 1219              	.LBE267:
 1220              	.LBE266:
 1221              	.LBE265:
 117:eurorack/plaits/dsp/speech/lpc_speech_synth_controller.h ****     if (num_words_ == 0) {
 1222              		.loc 2 117 5 view .LVU381
 1223              	.LBB287:
 1224              	.LBB282:
 1225              	.LBB277:
 1226              	.LBB272:
 1227              	.LBB269:
 1228              		.loc 2 117 9 is_stmt 0 view .LVU382
 1229 00b8 D3F810C0 		ldr	ip, [r3, #16]
 1230              		.loc 2 117 5 view .LVU383
 1231 00bc BCF1000F 		cmp	ip, #0
 1232 00c0 40F08C80 		bne	.L44
 118:eurorack/plaits/dsp/speech/lpc_speech_synth_controller.h ****       *start = *end = -1;
 1233              		.loc 2 118 7 is_stmt 1 view .LVU384
 1234              		.loc 2 118 21 is_stmt 0 view .LVU385
ARM GAS  /var/folders/9s/8rp0_f2s1n31qbztm3b5_fdh0000gn/T//ccmN9iqX.s 			page 52


 1235 00c4 4FF0FF33 		mov	r3, #-1
 1236              	.LVL100:
 1237              		.loc 2 118 14 view .LVU386
 1238 00c8 C4E92133 		strd	r3, r3, [r4, #132]
 1239 00cc 26E0     		b	.L43
 1240              	.LVL101:
 1241              	.L69:
 1242              		.loc 2 118 14 view .LVU387
 1243              	.LBE269:
 1244              	.LBE272:
 1245              	.LBE277:
 1246              	.LBE282:
 1247              	.LBE287:
 243:eurorack/plaits/dsp/speech/lpc_speech_synth_controller.cc ****   
 1248              		.loc 4 243 37 view .LVU388
 1249 00ce DFED947A 		vldr.32	s15, .L74+20
 1250 00d2 B4EEE78A 		vcmpe.f32	s16, s15
 1251 00d6 F1EE10FA 		vmrs	APSR_nzcv, FPSCR
 1252 00da CCDC     		bgt	.L72
 1253 00dc DFED917A 		vldr.32	s15, .L74+24
 1254 00e0 CFE7     		b	.L39
 1255              	.LVL102:
 1256              	.L56:
 1257              	.LBB288:
 1258              	.LBB283:
 1259              	.LBB278:
 1260              	.LBB273:
 265:eurorack/plaits/dsp/speech/lpc_speech_synth_controller.cc ****       playback_frame_ = (r % kLPCSpeechSynthNumConsonants);
 1261              		.loc 4 265 7 is_stmt 1 view .LVU389
 265:eurorack/plaits/dsp/speech/lpc_speech_synth_controller.cc ****       playback_frame_ = (r % kLPCSpeechSynthNumConsonants);
 1262              		.loc 4 265 24 is_stmt 0 view .LVU390
 1263 00e2 B0EE087A 		vmov.f32	s14, #3.0e+0
 266:eurorack/plaits/dsp/speech/lpc_speech_synth_controller.cc ****       playback_frame_ += kLPCSpeechSynthNumVowels;
 1264              		.loc 4 266 28 view .LVU391
 1265 00e6 0A23     		movs	r3, #10
 265:eurorack/plaits/dsp/speech/lpc_speech_synth_controller.cc ****       playback_frame_ = (r % kLPCSpeechSynthNumConsonants);
 1266              		.loc 4 265 24 view .LVU392
 1267 00e8 F0EE6A7A 		vmov.f32	s15, s21
 1268              	.LBE273:
 1269              	.LBE278:
 1270              	.LBE283:
 1271              	.LBE288:
 254:eurorack/plaits/dsp/speech/lpc_speech_synth_controller.cc ****       : word_bank_->num_frames();
 1272              		.loc 4 254 7 view .LVU393
 1273 00ec 0520     		movs	r0, #5
 1274              	.LBB289:
 1275              	.LBB284:
 1276              	.LBB279:
 1277              	.LBB274:
