ARM GAS  /var/folders/9s/8rp0_f2s1n31qbztm3b5_fdh0000gn/T//ccUUhLUh.s 			page 1


   1              		.cpu cortex-m7
   2              		.arch armv7e-m
   3              		.fpu fpv5-d16
   4              		.eabi_attribute 28, 1
   5              		.eabi_attribute 20, 1
   6              		.eabi_attribute 21, 1
   7              		.eabi_attribute 23, 3
   8              		.eabi_attribute 24, 1
   9              		.eabi_attribute 25, 1
  10              		.eabi_attribute 26, 1
  11              		.eabi_attribute 30, 4
  12              		.eabi_attribute 34, 1
  13              		.eabi_attribute 18, 4
  14              		.file	"naive_speech_synth.cc"
  15              		.text
  16              	.Ltext0:
  17              		.cfi_sections	.debug_frame
  18              		.section	.text._ZN6stmlib3Svf4InitEv,"axG",%progbits,_ZN6stmlib3Svf4InitEv,comdat
  19              		.align	1
  20              		.weak	_ZN6stmlib3Svf4InitEv
  21              		.syntax unified
  22              		.thumb
  23              		.thumb_func
  25              	_ZN6stmlib3Svf4InitEv:
  26              	.LVL0:
  27              	.LFB1410:
  28              		.file 1 "eurorack/stmlib/dsp/filter.h"
   1:eurorack/stmlib/dsp/filter.h **** // Copyright 2014 Emilie Gillet.
   2:eurorack/stmlib/dsp/filter.h **** //
   3:eurorack/stmlib/dsp/filter.h **** // Author: Emilie Gillet (emilie.o.gillet@gmail.com)
   4:eurorack/stmlib/dsp/filter.h **** //
   5:eurorack/stmlib/dsp/filter.h **** // Permission is hereby granted, free of charge, to any person obtaining a copy
   6:eurorack/stmlib/dsp/filter.h **** // of this software and associated documentation files (the "Software"), to deal
   7:eurorack/stmlib/dsp/filter.h **** // in the Software without restriction, including without limitation the rights
   8:eurorack/stmlib/dsp/filter.h **** // to use, copy, modify, merge, publish, distribute, sublicense, and/or sell
   9:eurorack/stmlib/dsp/filter.h **** // copies of the Software, and to permit persons to whom the Software is
  10:eurorack/stmlib/dsp/filter.h **** // furnished to do so, subject to the following conditions:
  11:eurorack/stmlib/dsp/filter.h **** // 
  12:eurorack/stmlib/dsp/filter.h **** // The above copyright notice and this permission notice shall be included in
  13:eurorack/stmlib/dsp/filter.h **** // all copies or substantial portions of the Software.
  14:eurorack/stmlib/dsp/filter.h **** // 
  15:eurorack/stmlib/dsp/filter.h **** // THE SOFTWARE IS PROVIDED "AS IS", WITHOUT WARRANTY OF ANY KIND, EXPRESS OR
  16:eurorack/stmlib/dsp/filter.h **** // IMPLIED, INCLUDING BUT NOT LIMITED TO THE WARRANTIES OF MERCHANTABILITY,
  17:eurorack/stmlib/dsp/filter.h **** // FITNESS FOR A PARTICULAR PURPOSE AND NONINFRINGEMENT. IN NO EVENT SHALL THE
  18:eurorack/stmlib/dsp/filter.h **** // AUTHORS OR COPYRIGHT HOLDERS BE LIABLE FOR ANY CLAIM, DAMAGES OR OTHER
  19:eurorack/stmlib/dsp/filter.h **** // LIABILITY, WHETHER IN AN ACTION OF CONTRACT, TORT OR OTHERWISE, ARISING FROM,
  20:eurorack/stmlib/dsp/filter.h **** // OUT OF OR IN CONNECTION WITH THE SOFTWARE OR THE USE OR OTHER DEALINGS IN
  21:eurorack/stmlib/dsp/filter.h **** // THE SOFTWARE.
  22:eurorack/stmlib/dsp/filter.h **** // 
  23:eurorack/stmlib/dsp/filter.h **** // See http://creativecommons.org/licenses/MIT/ for more information.
  24:eurorack/stmlib/dsp/filter.h **** //
  25:eurorack/stmlib/dsp/filter.h **** // -----------------------------------------------------------------------------
  26:eurorack/stmlib/dsp/filter.h **** //
  27:eurorack/stmlib/dsp/filter.h **** // Zero-delay-feedback filters (one pole and SVF).
  28:eurorack/stmlib/dsp/filter.h **** // Naive SVF.
  29:eurorack/stmlib/dsp/filter.h **** 
  30:eurorack/stmlib/dsp/filter.h **** #ifndef STMLIB_DSP_FILTER_H_
ARM GAS  /var/folders/9s/8rp0_f2s1n31qbztm3b5_fdh0000gn/T//ccUUhLUh.s 			page 2


  31:eurorack/stmlib/dsp/filter.h **** #define STMLIB_DSP_FILTER_H_
  32:eurorack/stmlib/dsp/filter.h **** 
  33:eurorack/stmlib/dsp/filter.h **** #include "stmlib/stmlib.h"
  34:eurorack/stmlib/dsp/filter.h **** 
  35:eurorack/stmlib/dsp/filter.h **** #include <cmath>
  36:eurorack/stmlib/dsp/filter.h **** #include <algorithm>
  37:eurorack/stmlib/dsp/filter.h **** 
  38:eurorack/stmlib/dsp/filter.h **** namespace stmlib {
  39:eurorack/stmlib/dsp/filter.h **** 
  40:eurorack/stmlib/dsp/filter.h **** enum FilterMode {
  41:eurorack/stmlib/dsp/filter.h ****   FILTER_MODE_LOW_PASS,
  42:eurorack/stmlib/dsp/filter.h ****   FILTER_MODE_BAND_PASS,
  43:eurorack/stmlib/dsp/filter.h ****   FILTER_MODE_BAND_PASS_NORMALIZED,
  44:eurorack/stmlib/dsp/filter.h ****   FILTER_MODE_HIGH_PASS
  45:eurorack/stmlib/dsp/filter.h **** };
  46:eurorack/stmlib/dsp/filter.h **** 
  47:eurorack/stmlib/dsp/filter.h **** enum FrequencyApproximation {
  48:eurorack/stmlib/dsp/filter.h ****   FREQUENCY_EXACT,
  49:eurorack/stmlib/dsp/filter.h ****   FREQUENCY_ACCURATE,
  50:eurorack/stmlib/dsp/filter.h ****   FREQUENCY_FAST,
  51:eurorack/stmlib/dsp/filter.h ****   FREQUENCY_DIRTY
  52:eurorack/stmlib/dsp/filter.h **** };
  53:eurorack/stmlib/dsp/filter.h **** 
  54:eurorack/stmlib/dsp/filter.h **** #define M_PI_F float(M_PI)
  55:eurorack/stmlib/dsp/filter.h **** #define M_PI_POW_2 M_PI * M_PI
  56:eurorack/stmlib/dsp/filter.h **** #define M_PI_POW_3 M_PI_POW_2 * M_PI
  57:eurorack/stmlib/dsp/filter.h **** #define M_PI_POW_5 M_PI_POW_3 * M_PI_POW_2
  58:eurorack/stmlib/dsp/filter.h **** #define M_PI_POW_7 M_PI_POW_5 * M_PI_POW_2
  59:eurorack/stmlib/dsp/filter.h **** #define M_PI_POW_9 M_PI_POW_7 * M_PI_POW_2
  60:eurorack/stmlib/dsp/filter.h **** #define M_PI_POW_11 M_PI_POW_9 * M_PI_POW_2
  61:eurorack/stmlib/dsp/filter.h **** 
  62:eurorack/stmlib/dsp/filter.h **** class DCBlocker {
  63:eurorack/stmlib/dsp/filter.h ****  public:
  64:eurorack/stmlib/dsp/filter.h ****   DCBlocker() { }
  65:eurorack/stmlib/dsp/filter.h ****   ~DCBlocker() { }
  66:eurorack/stmlib/dsp/filter.h ****   
  67:eurorack/stmlib/dsp/filter.h ****   void Init(float pole) {
  68:eurorack/stmlib/dsp/filter.h ****     x_ = 0.0f;
  69:eurorack/stmlib/dsp/filter.h ****     y_ = 0.0f;
  70:eurorack/stmlib/dsp/filter.h ****     pole_ = pole;
  71:eurorack/stmlib/dsp/filter.h ****   }
  72:eurorack/stmlib/dsp/filter.h ****   
  73:eurorack/stmlib/dsp/filter.h ****   inline void Process(float* in_out, size_t size) {
  74:eurorack/stmlib/dsp/filter.h ****     float x = x_;
  75:eurorack/stmlib/dsp/filter.h ****     float y = y_;
  76:eurorack/stmlib/dsp/filter.h ****     const float pole = pole_;
  77:eurorack/stmlib/dsp/filter.h ****     while (size--) {
  78:eurorack/stmlib/dsp/filter.h ****       float old_x = x;
  79:eurorack/stmlib/dsp/filter.h ****       x = *in_out;
  80:eurorack/stmlib/dsp/filter.h ****       *in_out++ = y = y * pole + x - old_x;
  81:eurorack/stmlib/dsp/filter.h ****     }
  82:eurorack/stmlib/dsp/filter.h ****     x_ = x;
  83:eurorack/stmlib/dsp/filter.h ****     y_ = y;
  84:eurorack/stmlib/dsp/filter.h ****   }
  85:eurorack/stmlib/dsp/filter.h ****   
  86:eurorack/stmlib/dsp/filter.h ****  private:
  87:eurorack/stmlib/dsp/filter.h ****   float pole_;
ARM GAS  /var/folders/9s/8rp0_f2s1n31qbztm3b5_fdh0000gn/T//ccUUhLUh.s 			page 3


  88:eurorack/stmlib/dsp/filter.h ****   float x_;
  89:eurorack/stmlib/dsp/filter.h ****   float y_;
  90:eurorack/stmlib/dsp/filter.h **** };
  91:eurorack/stmlib/dsp/filter.h **** 
  92:eurorack/stmlib/dsp/filter.h **** class OnePole {
  93:eurorack/stmlib/dsp/filter.h ****  public:
  94:eurorack/stmlib/dsp/filter.h ****   OnePole() { }
  95:eurorack/stmlib/dsp/filter.h ****   ~OnePole() { }
  96:eurorack/stmlib/dsp/filter.h ****   
  97:eurorack/stmlib/dsp/filter.h ****   void Init() {
  98:eurorack/stmlib/dsp/filter.h ****     set_f<FREQUENCY_DIRTY>(0.01f);
  99:eurorack/stmlib/dsp/filter.h ****     Reset();
 100:eurorack/stmlib/dsp/filter.h ****   }
 101:eurorack/stmlib/dsp/filter.h ****   
 102:eurorack/stmlib/dsp/filter.h ****   void Reset() {
 103:eurorack/stmlib/dsp/filter.h ****     state_ = 0.0f;
 104:eurorack/stmlib/dsp/filter.h ****   }
 105:eurorack/stmlib/dsp/filter.h ****   
 106:eurorack/stmlib/dsp/filter.h ****   template<FrequencyApproximation approximation>
 107:eurorack/stmlib/dsp/filter.h ****   static inline float tan(float f) {
 108:eurorack/stmlib/dsp/filter.h ****     if (approximation == FREQUENCY_EXACT) {
 109:eurorack/stmlib/dsp/filter.h ****       // Clip coefficient to about 100.
 110:eurorack/stmlib/dsp/filter.h ****       f = f < 0.497f ? f : 0.497f;
 111:eurorack/stmlib/dsp/filter.h ****       return tanf(M_PI_F * f);
 112:eurorack/stmlib/dsp/filter.h ****     } else if (approximation == FREQUENCY_DIRTY) {
 113:eurorack/stmlib/dsp/filter.h ****       // Optimized for frequencies below 8kHz.
 114:eurorack/stmlib/dsp/filter.h ****       const float a = 3.736e-01f * M_PI_POW_3;
 115:eurorack/stmlib/dsp/filter.h ****       return f * (M_PI_F + a * f * f);
 116:eurorack/stmlib/dsp/filter.h ****     } else if (approximation == FREQUENCY_FAST) {
 117:eurorack/stmlib/dsp/filter.h ****       // The usual tangent approximation uses 3.1755e-01 and 2.033e-01, but
 118:eurorack/stmlib/dsp/filter.h ****       // the coefficients used here are optimized to minimize error for the
 119:eurorack/stmlib/dsp/filter.h ****       // 16Hz to 16kHz range, with a sample rate of 48kHz.
 120:eurorack/stmlib/dsp/filter.h ****       const float a = 3.260e-01f * M_PI_POW_3;
 121:eurorack/stmlib/dsp/filter.h ****       const float b = 1.823e-01f * M_PI_POW_5;
 122:eurorack/stmlib/dsp/filter.h ****       float f2 = f * f;
 123:eurorack/stmlib/dsp/filter.h ****       return f * (M_PI_F + f2 * (a + b * f2));
 124:eurorack/stmlib/dsp/filter.h ****     } else if (approximation == FREQUENCY_ACCURATE) {
 125:eurorack/stmlib/dsp/filter.h ****       // These coefficients don't need to be tweaked for the audio range.
 126:eurorack/stmlib/dsp/filter.h ****       const float a = 3.333314036e-01f * M_PI_POW_3;
 127:eurorack/stmlib/dsp/filter.h ****       const float b = 1.333923995e-01f * M_PI_POW_5;
 128:eurorack/stmlib/dsp/filter.h ****       const float c = 5.33740603e-02f * M_PI_POW_7;
 129:eurorack/stmlib/dsp/filter.h ****       const float d = 2.900525e-03f * M_PI_POW_9;
 130:eurorack/stmlib/dsp/filter.h ****       const float e = 9.5168091e-03f * M_PI_POW_11;
 131:eurorack/stmlib/dsp/filter.h ****       float f2 = f * f;
 132:eurorack/stmlib/dsp/filter.h ****       return f * (M_PI_F + f2 * (a + f2 * (b + f2 * (c + f2 * (d + f2 * e)))));
 133:eurorack/stmlib/dsp/filter.h ****     }
 134:eurorack/stmlib/dsp/filter.h ****   }
 135:eurorack/stmlib/dsp/filter.h ****   
 136:eurorack/stmlib/dsp/filter.h ****   // Set frequency and resonance from true units. Various approximations
 137:eurorack/stmlib/dsp/filter.h ****   // are available to avoid the cost of tanf.
 138:eurorack/stmlib/dsp/filter.h ****   template<FrequencyApproximation approximation>
 139:eurorack/stmlib/dsp/filter.h ****   inline void set_f(float f) {
 140:eurorack/stmlib/dsp/filter.h ****     g_ = tan<approximation>(f);
 141:eurorack/stmlib/dsp/filter.h ****     gi_ = 1.0f / (1.0f + g_);
 142:eurorack/stmlib/dsp/filter.h ****   }
 143:eurorack/stmlib/dsp/filter.h ****   
 144:eurorack/stmlib/dsp/filter.h ****   template<FilterMode mode>
ARM GAS  /var/folders/9s/8rp0_f2s1n31qbztm3b5_fdh0000gn/T//ccUUhLUh.s 			page 4


 145:eurorack/stmlib/dsp/filter.h ****   inline float Process(float in) {
 146:eurorack/stmlib/dsp/filter.h ****     float lp;
 147:eurorack/stmlib/dsp/filter.h ****     lp = (g_ * in + state_) * gi_;
 148:eurorack/stmlib/dsp/filter.h ****     state_ = g_ * (in - lp) + lp;
 149:eurorack/stmlib/dsp/filter.h **** 
 150:eurorack/stmlib/dsp/filter.h ****     if (mode == FILTER_MODE_LOW_PASS) {
 151:eurorack/stmlib/dsp/filter.h ****       return lp;
 152:eurorack/stmlib/dsp/filter.h ****     } else if (mode == FILTER_MODE_HIGH_PASS) {
 153:eurorack/stmlib/dsp/filter.h ****       return in - lp;
 154:eurorack/stmlib/dsp/filter.h ****     } else {
 155:eurorack/stmlib/dsp/filter.h ****       return 0.0f;
 156:eurorack/stmlib/dsp/filter.h ****     }
 157:eurorack/stmlib/dsp/filter.h ****   }
 158:eurorack/stmlib/dsp/filter.h ****   
 159:eurorack/stmlib/dsp/filter.h ****   template<FilterMode mode>
 160:eurorack/stmlib/dsp/filter.h ****   inline void Process(float* in_out, size_t size) {
 161:eurorack/stmlib/dsp/filter.h ****     while (size--) {
 162:eurorack/stmlib/dsp/filter.h ****       *in_out = Process<mode>(*in_out);
 163:eurorack/stmlib/dsp/filter.h ****       ++in_out;
 164:eurorack/stmlib/dsp/filter.h ****     }
 165:eurorack/stmlib/dsp/filter.h ****   }
 166:eurorack/stmlib/dsp/filter.h ****   
 167:eurorack/stmlib/dsp/filter.h ****  private:
 168:eurorack/stmlib/dsp/filter.h ****   float g_;
 169:eurorack/stmlib/dsp/filter.h ****   float gi_;
 170:eurorack/stmlib/dsp/filter.h ****   float state_;
 171:eurorack/stmlib/dsp/filter.h ****   
 172:eurorack/stmlib/dsp/filter.h ****   DISALLOW_COPY_AND_ASSIGN(OnePole);
 173:eurorack/stmlib/dsp/filter.h **** };
 174:eurorack/stmlib/dsp/filter.h **** 
 175:eurorack/stmlib/dsp/filter.h **** 
 176:eurorack/stmlib/dsp/filter.h **** 
 177:eurorack/stmlib/dsp/filter.h **** class Svf {
 178:eurorack/stmlib/dsp/filter.h ****  public:
 179:eurorack/stmlib/dsp/filter.h ****   Svf() { }
 180:eurorack/stmlib/dsp/filter.h ****   ~Svf() { }
 181:eurorack/stmlib/dsp/filter.h ****   
 182:eurorack/stmlib/dsp/filter.h ****   void Init() {
  29              		.loc 1 182 8 view -0
  30              		.cfi_startproc
  31              		@ args = 0, pretend = 0, frame = 0
  32              		@ frame_needed = 0, uses_anonymous_args = 0
  33              		@ link register save eliminated.
 183:eurorack/stmlib/dsp/filter.h ****     set_f_q<FREQUENCY_DIRTY>(0.01f, 100.0f);
  34              		.loc 1 183 5 view .LVU1
  35              	.LBB68:
  36              	.LBI68:
 184:eurorack/stmlib/dsp/filter.h ****     Reset();
 185:eurorack/stmlib/dsp/filter.h ****   }
 186:eurorack/stmlib/dsp/filter.h ****   
 187:eurorack/stmlib/dsp/filter.h ****   void Reset() {
 188:eurorack/stmlib/dsp/filter.h ****     state_1_ = state_2_ = 0.0f;
 189:eurorack/stmlib/dsp/filter.h ****   }
 190:eurorack/stmlib/dsp/filter.h ****   
 191:eurorack/stmlib/dsp/filter.h ****   // Copy settings from another filter.
 192:eurorack/stmlib/dsp/filter.h ****   inline void set(const Svf& f) {
 193:eurorack/stmlib/dsp/filter.h ****     g_ = f.g();
ARM GAS  /var/folders/9s/8rp0_f2s1n31qbztm3b5_fdh0000gn/T//ccUUhLUh.s 			page 5


 194:eurorack/stmlib/dsp/filter.h ****     r_ = f.r();
 195:eurorack/stmlib/dsp/filter.h ****     h_ = f.h();
 196:eurorack/stmlib/dsp/filter.h ****   }
 197:eurorack/stmlib/dsp/filter.h **** 
 198:eurorack/stmlib/dsp/filter.h ****   // Set all parameters from LUT.
 199:eurorack/stmlib/dsp/filter.h ****   inline void set_g_r_h(float g, float r, float h) {
 200:eurorack/stmlib/dsp/filter.h ****     g_ = g;
 201:eurorack/stmlib/dsp/filter.h ****     r_ = r;
 202:eurorack/stmlib/dsp/filter.h ****     h_ = h;
 203:eurorack/stmlib/dsp/filter.h ****   }
 204:eurorack/stmlib/dsp/filter.h ****   
 205:eurorack/stmlib/dsp/filter.h ****   // Set frequency and resonance coefficients from LUT, adjust remaining
 206:eurorack/stmlib/dsp/filter.h ****   // parameter.
 207:eurorack/stmlib/dsp/filter.h ****   inline void set_g_r(float g, float r) {
 208:eurorack/stmlib/dsp/filter.h ****     g_ = g;
 209:eurorack/stmlib/dsp/filter.h ****     r_ = r;
 210:eurorack/stmlib/dsp/filter.h ****     h_ = 1.0f / (1.0f + r_ * g_ + g_ * g_);
 211:eurorack/stmlib/dsp/filter.h ****   }
 212:eurorack/stmlib/dsp/filter.h **** 
 213:eurorack/stmlib/dsp/filter.h ****   // Set frequency from LUT, resonance in true units, adjust the rest.
 214:eurorack/stmlib/dsp/filter.h ****   inline void set_g_q(float g, float resonance) {
 215:eurorack/stmlib/dsp/filter.h ****     g_ = g;
 216:eurorack/stmlib/dsp/filter.h ****     r_ = 1.0f / resonance;
 217:eurorack/stmlib/dsp/filter.h ****     h_ = 1.0f / (1.0f + r_ * g_ + g_ * g_);
 218:eurorack/stmlib/dsp/filter.h ****   }
 219:eurorack/stmlib/dsp/filter.h **** 
 220:eurorack/stmlib/dsp/filter.h ****   // Set frequency and resonance from true units. Various approximations
 221:eurorack/stmlib/dsp/filter.h ****   // are available to avoid the cost of tanf.
 222:eurorack/stmlib/dsp/filter.h ****   template<FrequencyApproximation approximation>
 223:eurorack/stmlib/dsp/filter.h ****   inline void set_f_q(float f, float resonance) {
  37              		.loc 1 223 15 view .LVU2
  38              	.LBB69:
 224:eurorack/stmlib/dsp/filter.h ****     g_ = OnePole::tan<approximation>(f);
  39              		.loc 1 224 8 is_stmt 0 view .LVU3
  40 0000 044B     		ldr	r3, .L2
  41 0002 0360     		str	r3, [r0]	@ float
 225:eurorack/stmlib/dsp/filter.h ****     r_ = 1.0f / resonance;
  42              		.loc 1 225 8 view .LVU4
  43 0004 044B     		ldr	r3, .L2+4
  44 0006 4360     		str	r3, [r0, #4]	@ float
 226:eurorack/stmlib/dsp/filter.h ****     h_ = 1.0f / (1.0f + r_ * g_ + g_ * g_);
  45              		.loc 1 226 8 view .LVU5
  46 0008 044B     		ldr	r3, .L2+8
  47 000a 8360     		str	r3, [r0, #8]	@ float
  48              	.LVL1:
  49              		.loc 1 226 8 view .LVU6
  50              	.LBE69:
  51              	.LBE68:
 184:eurorack/stmlib/dsp/filter.h ****   }
  52              		.loc 1 184 5 is_stmt 1 view .LVU7
  53              	.LBB70:
  54              	.LBI70:
 187:eurorack/stmlib/dsp/filter.h ****     state_1_ = state_2_ = 0.0f;
  55              		.loc 1 187 8 view .LVU8
  56              	.LBB71:
 188:eurorack/stmlib/dsp/filter.h ****   }
  57              		.loc 1 188 5 view .LVU9
ARM GAS  /var/folders/9s/8rp0_f2s1n31qbztm3b5_fdh0000gn/T//ccUUhLUh.s 			page 6


 188:eurorack/stmlib/dsp/filter.h ****   }
  58              		.loc 1 188 25 is_stmt 0 view .LVU10
  59 000c 0023     		movs	r3, #0
  60 000e 0361     		str	r3, [r0, #16]	@ float
 188:eurorack/stmlib/dsp/filter.h ****   }
  61              		.loc 1 188 14 view .LVU11
  62 0010 C360     		str	r3, [r0, #12]	@ float
  63              	.LVL2:
 188:eurorack/stmlib/dsp/filter.h ****   }
  64              		.loc 1 188 14 view .LVU12
  65              	.LBE71:
  66              	.LBE70:
 185:eurorack/stmlib/dsp/filter.h ****   
  67              		.loc 1 185 3 view .LVU13
  68 0012 7047     		bx	lr
  69              	.L3:
  70              		.align	2
  71              	.L2:
  72 0014 22BA003D 		.word	1023457826
  73 0018 0AD7233C 		.word	1008981770
  74 001c CAAA7F3F 		.word	1065331402
  75              		.cfi_endproc
  76              	.LFE1410:
  78              		.section	.text._ZN6plaits16NaiveSpeechSynth4InitEv,"ax",%progbits
  79              		.align	1
  80              		.global	_ZN6plaits16NaiveSpeechSynth4InitEv
  81              		.syntax unified
  82              		.thumb
  83              		.thumb_func
  85              	_ZN6plaits16NaiveSpeechSynth4InitEv:
  86              	.LVL3:
  87              	.LFB1519:
  88              		.file 2 "eurorack/plaits/dsp/speech/naive_speech_synth.cc"
   1:eurorack/plaits/dsp/speech/naive_speech_synth.cc **** // Copyright 2016 Emilie Gillet.
   2:eurorack/plaits/dsp/speech/naive_speech_synth.cc **** //
   3:eurorack/plaits/dsp/speech/naive_speech_synth.cc **** // Author: Emilie Gillet (emilie.o.gillet@gmail.com)
   4:eurorack/plaits/dsp/speech/naive_speech_synth.cc **** //
   5:eurorack/plaits/dsp/speech/naive_speech_synth.cc **** // Permission is hereby granted, free of charge, to any person obtaining a copy
   6:eurorack/plaits/dsp/speech/naive_speech_synth.cc **** // of this software and associated documentation files (the "Software"), to deal
   7:eurorack/plaits/dsp/speech/naive_speech_synth.cc **** // in the Software without restriction, including without limitation the rights
   8:eurorack/plaits/dsp/speech/naive_speech_synth.cc **** // to use, copy, modify, merge, publish, distribute, sublicense, and/or sell
   9:eurorack/plaits/dsp/speech/naive_speech_synth.cc **** // copies of the Software, and to permit persons to whom the Software is
  10:eurorack/plaits/dsp/speech/naive_speech_synth.cc **** // furnished to do so, subject to the following conditions:
  11:eurorack/plaits/dsp/speech/naive_speech_synth.cc **** // 
  12:eurorack/plaits/dsp/speech/naive_speech_synth.cc **** // The above copyright notice and this permission notice shall be included in
  13:eurorack/plaits/dsp/speech/naive_speech_synth.cc **** // all copies or substantial portions of the Software.
  14:eurorack/plaits/dsp/speech/naive_speech_synth.cc **** // 
  15:eurorack/plaits/dsp/speech/naive_speech_synth.cc **** // THE SOFTWARE IS PROVIDED "AS IS", WITHOUT WARRANTY OF ANY KIND, EXPRESS OR
  16:eurorack/plaits/dsp/speech/naive_speech_synth.cc **** // IMPLIED, INCLUDING BUT NOT LIMITED TO THE WARRANTIES OF MERCHANTABILITY,
  17:eurorack/plaits/dsp/speech/naive_speech_synth.cc **** // FITNESS FOR A PARTICULAR PURPOSE AND NONINFRINGEMENT. IN NO EVENT SHALL THE
  18:eurorack/plaits/dsp/speech/naive_speech_synth.cc **** // AUTHORS OR COPYRIGHT HOLDERS BE LIABLE FOR ANY CLAIM, DAMAGES OR OTHER
  19:eurorack/plaits/dsp/speech/naive_speech_synth.cc **** // LIABILITY, WHETHER IN AN ACTION OF CONTRACT, TORT OR OTHERWISE, ARISING FROM,
  20:eurorack/plaits/dsp/speech/naive_speech_synth.cc **** // OUT OF OR IN CONNECTION WITH THE SOFTWARE OR THE USE OR OTHER DEALINGS IN
  21:eurorack/plaits/dsp/speech/naive_speech_synth.cc **** // THE SOFTWARE.
  22:eurorack/plaits/dsp/speech/naive_speech_synth.cc **** // 
  23:eurorack/plaits/dsp/speech/naive_speech_synth.cc **** // See http://creativecommons.org/licenses/MIT/ for more information.
  24:eurorack/plaits/dsp/speech/naive_speech_synth.cc **** //
ARM GAS  /var/folders/9s/8rp0_f2s1n31qbztm3b5_fdh0000gn/T//ccUUhLUh.s 			page 7


  25:eurorack/plaits/dsp/speech/naive_speech_synth.cc **** // -----------------------------------------------------------------------------
  26:eurorack/plaits/dsp/speech/naive_speech_synth.cc **** //
  27:eurorack/plaits/dsp/speech/naive_speech_synth.cc **** // Naive speech synth - made from "synthesizer" building blocks (pulse
  28:eurorack/plaits/dsp/speech/naive_speech_synth.cc **** // oscillator and zero-delay SVF).
  29:eurorack/plaits/dsp/speech/naive_speech_synth.cc **** 
  30:eurorack/plaits/dsp/speech/naive_speech_synth.cc **** #include "plaits/dsp/speech/naive_speech_synth.h"
  31:eurorack/plaits/dsp/speech/naive_speech_synth.cc **** 
  32:eurorack/plaits/dsp/speech/naive_speech_synth.cc **** #include <algorithm>
  33:eurorack/plaits/dsp/speech/naive_speech_synth.cc **** 
  34:eurorack/plaits/dsp/speech/naive_speech_synth.cc **** #include "stmlib/dsp/dsp.h"
  35:eurorack/plaits/dsp/speech/naive_speech_synth.cc **** #include "stmlib/dsp/units.h"
  36:eurorack/plaits/dsp/speech/naive_speech_synth.cc **** #include "stmlib/utils/random.h"
  37:eurorack/plaits/dsp/speech/naive_speech_synth.cc **** 
  38:eurorack/plaits/dsp/speech/naive_speech_synth.cc **** #include "plaits/resources.h"
  39:eurorack/plaits/dsp/speech/naive_speech_synth.cc **** 
  40:eurorack/plaits/dsp/speech/naive_speech_synth.cc **** namespace plaits {
  41:eurorack/plaits/dsp/speech/naive_speech_synth.cc **** 
  42:eurorack/plaits/dsp/speech/naive_speech_synth.cc **** using namespace std;
  43:eurorack/plaits/dsp/speech/naive_speech_synth.cc **** using namespace stmlib;
  44:eurorack/plaits/dsp/speech/naive_speech_synth.cc **** 
  45:eurorack/plaits/dsp/speech/naive_speech_synth.cc **** /* static */
  46:eurorack/plaits/dsp/speech/naive_speech_synth.cc **** NaiveSpeechSynth::Phoneme NaiveSpeechSynth::phonemes_[][kNaiveSpeechNumRegisters] = {
  47:eurorack/plaits/dsp/speech/naive_speech_synth.cc ****   {
  48:eurorack/plaits/dsp/speech/naive_speech_synth.cc ****     { { { 74, 255 }, { 83, 114 }, { 97, 90 }, { 98, 90 }, { 100, 25 } } },
  49:eurorack/plaits/dsp/speech/naive_speech_synth.cc ****     { { { 75, 255 }, { 84, 128 }, { 100, 114 }, { 101, 101 }, { 103, 20 } } },
  50:eurorack/plaits/dsp/speech/naive_speech_synth.cc ****     { { { 76, 255 }, { 85, 128 }, { 100, 18 }, { 102, 16 }, { 104, 3 } } },
  51:eurorack/plaits/dsp/speech/naive_speech_synth.cc ****     { { { 79, 255 }, { 85, 161 }, { 101, 25 }, { 104, 4 }, { 110, 0 } } },
  52:eurorack/plaits/dsp/speech/naive_speech_synth.cc ****     { { { 79, 255 }, { 85, 128 }, { 101, 6 }, { 106, 25 }, { 110, 0 } } }
  53:eurorack/plaits/dsp/speech/naive_speech_synth.cc ****   },
  54:eurorack/plaits/dsp/speech/naive_speech_synth.cc ****   {
  55:eurorack/plaits/dsp/speech/naive_speech_synth.cc ****     { { { 67, 255 }, { 91, 64 }, { 98, 90 }, { 101, 64 }, { 102, 32 } } },
  56:eurorack/plaits/dsp/speech/naive_speech_synth.cc ****     { { { 67, 255 }, { 92, 51 }, { 99, 64 }, { 103, 51 }, { 105, 25 } } },
  57:eurorack/plaits/dsp/speech/naive_speech_synth.cc ****     { { { 69, 255 }, { 93, 51 }, { 100, 32 }, { 102, 25 }, { 103, 25 } } },
  58:eurorack/plaits/dsp/speech/naive_speech_synth.cc ****     { { { 67, 255 }, { 91, 16 }, { 100, 8 }, { 103, 4 }, { 110, 0 } } },
  59:eurorack/plaits/dsp/speech/naive_speech_synth.cc ****     { { { 65, 255 }, { 95, 25 }, { 101, 45 }, { 105, 2 }, { 110, 0 } } }
  60:eurorack/plaits/dsp/speech/naive_speech_synth.cc ****   },
  61:eurorack/plaits/dsp/speech/naive_speech_synth.cc ****   {
  62:eurorack/plaits/dsp/speech/naive_speech_synth.cc ****     { { { 59, 255 }, { 92, 8 }, { 99, 40 }, { 102, 20 }, { 104, 10 } } },
  63:eurorack/plaits/dsp/speech/naive_speech_synth.cc ****     { { { 61, 255 }, { 94, 45 }, { 101, 32 }, { 103, 25 }, { 105, 8 } } },
  64:eurorack/plaits/dsp/speech/naive_speech_synth.cc ****     { { { 60, 255 }, { 93, 16 }, { 101, 16 }, { 104, 4 }, { 105, 4 } } },
  65:eurorack/plaits/dsp/speech/naive_speech_synth.cc ****     { { { 65, 255 }, { 92, 25 }, { 100, 8 }, { 105, 4 }, { 110, 0 } } },
  66:eurorack/plaits/dsp/speech/naive_speech_synth.cc ****     { { { 60, 255 }, { 96, 64 }, { 101, 12 }, { 106, 12 }, { 110, 1 } } }
  67:eurorack/plaits/dsp/speech/naive_speech_synth.cc ****   },
  68:eurorack/plaits/dsp/speech/naive_speech_synth.cc ****   {
  69:eurorack/plaits/dsp/speech/naive_speech_synth.cc ****     { { { 67, 255 }, { 78, 72 }, { 98, 22 }, { 99, 25 }, { 101, 2 } } },
  70:eurorack/plaits/dsp/speech/naive_speech_synth.cc ****     { { { 67, 255 }, { 79, 80 }, { 99, 64 }, { 101, 64 }, { 102, 12 } } },
  71:eurorack/plaits/dsp/speech/naive_speech_synth.cc ****     { { { 68, 255 }, { 79, 80 }, { 100, 12 }, { 102, 20 }, { 103, 5 } } },
  72:eurorack/plaits/dsp/speech/naive_speech_synth.cc ****     { { { 69, 255 }, { 79, 90 }, { 101, 40 }, { 104, 10 }, { 110, 0 } } },
  73:eurorack/plaits/dsp/speech/naive_speech_synth.cc ****     { { { 69, 255 }, { 79, 72 }, { 101, 20 }, { 106, 20 }, { 110, 0 } } }
  74:eurorack/plaits/dsp/speech/naive_speech_synth.cc ****   },
  75:eurorack/plaits/dsp/speech/naive_speech_synth.cc ****   {
  76:eurorack/plaits/dsp/speech/naive_speech_synth.cc ****     { { { 65, 255 }, { 74, 25 }, { 98, 6 }, { 100, 10 }, { 101, 4 } } },
  77:eurorack/plaits/dsp/speech/naive_speech_synth.cc ****     { { { 65, 255 }, { 74, 25 }, { 100, 36 }, { 101, 51 }, { 103, 12 } } },
  78:eurorack/plaits/dsp/speech/naive_speech_synth.cc ****     { { { 66, 255 }, { 75, 25 }, { 100, 18 }, { 102, 8 }, { 104, 5 } } },
  79:eurorack/plaits/dsp/speech/naive_speech_synth.cc ****     { { { 63, 255 }, { 77, 64 }, { 99, 8 }, { 104, 2 }, { 110, 0 } } },
  80:eurorack/plaits/dsp/speech/naive_speech_synth.cc ****     { { { 63, 255 }, { 77, 40 }, { 100, 4 }, { 106, 2 }, { 110, 0 } } }
  81:eurorack/plaits/dsp/speech/naive_speech_synth.cc ****   },
ARM GAS  /var/folders/9s/8rp0_f2s1n31qbztm3b5_fdh0000gn/T//ccUUhLUh.s 			page 8


  82:eurorack/plaits/dsp/speech/naive_speech_synth.cc **** };
  83:eurorack/plaits/dsp/speech/naive_speech_synth.cc **** 
  84:eurorack/plaits/dsp/speech/naive_speech_synth.cc **** void NaiveSpeechSynth::Init() {
  89              		.loc 2 84 31 is_stmt 1 view -0
  90              		.cfi_startproc
  91              		@ args = 0, pretend = 0, frame = 0
  92              		@ frame_needed = 0, uses_anonymous_args = 0
  85:eurorack/plaits/dsp/speech/naive_speech_synth.cc ****   pulse_.Init();
  93              		.loc 2 85 3 view .LVU15
  94              	.LBB80:
  95              	.LBI80:
  96              		.file 3 "eurorack/plaits/dsp/oscillator/oscillator.h"
   1:eurorack/plaits/dsp/oscillator/oscillator.h **** // Copyright 2016 Emilie Gillet.
   2:eurorack/plaits/dsp/oscillator/oscillator.h **** //
   3:eurorack/plaits/dsp/oscillator/oscillator.h **** // Author: Emilie Gillet (emilie.o.gillet@gmail.com)
   4:eurorack/plaits/dsp/oscillator/oscillator.h **** //
   5:eurorack/plaits/dsp/oscillator/oscillator.h **** // Permission is hereby granted, free of charge, to any person obtaining a copy
   6:eurorack/plaits/dsp/oscillator/oscillator.h **** // of this software and associated documentation files (the "Software"), to deal
   7:eurorack/plaits/dsp/oscillator/oscillator.h **** // in the Software without restriction, including without limitation the rights
   8:eurorack/plaits/dsp/oscillator/oscillator.h **** // to use, copy, modify, merge, publish, distribute, sublicense, and/or sell
   9:eurorack/plaits/dsp/oscillator/oscillator.h **** // copies of the Software, and to permit persons to whom the Software is
  10:eurorack/plaits/dsp/oscillator/oscillator.h **** // furnished to do so, subject to the following conditions:
  11:eurorack/plaits/dsp/oscillator/oscillator.h **** // 
  12:eurorack/plaits/dsp/oscillator/oscillator.h **** // The above copyright notice and this permission notice shall be included in
  13:eurorack/plaits/dsp/oscillator/oscillator.h **** // all copies or substantial portions of the Software.
  14:eurorack/plaits/dsp/oscillator/oscillator.h **** // 
  15:eurorack/plaits/dsp/oscillator/oscillator.h **** // THE SOFTWARE IS PROVIDED "AS IS", WITHOUT WARRANTY OF ANY KIND, EXPRESS OR
  16:eurorack/plaits/dsp/oscillator/oscillator.h **** // IMPLIED, INCLUDING BUT NOT LIMITED TO THE WARRANTIES OF MERCHANTABILITY,
  17:eurorack/plaits/dsp/oscillator/oscillator.h **** // FITNESS FOR A PARTICULAR PURPOSE AND NONINFRINGEMENT. IN NO EVENT SHALL THE
  18:eurorack/plaits/dsp/oscillator/oscillator.h **** // AUTHORS OR COPYRIGHT HOLDERS BE LIABLE FOR ANY CLAIM, DAMAGES OR OTHER
  19:eurorack/plaits/dsp/oscillator/oscillator.h **** // LIABILITY, WHETHER IN AN ACTION OF CONTRACT, TORT OR OTHERWISE, ARISING FROM,
  20:eurorack/plaits/dsp/oscillator/oscillator.h **** // OUT OF OR IN CONNECTION WITH THE SOFTWARE OR THE USE OR OTHER DEALINGS IN
  21:eurorack/plaits/dsp/oscillator/oscillator.h **** // THE SOFTWARE.
  22:eurorack/plaits/dsp/oscillator/oscillator.h **** // 
  23:eurorack/plaits/dsp/oscillator/oscillator.h **** // See http://creativecommons.org/licenses/MIT/ for more information.
  24:eurorack/plaits/dsp/oscillator/oscillator.h **** //
  25:eurorack/plaits/dsp/oscillator/oscillator.h **** // -----------------------------------------------------------------------------
  26:eurorack/plaits/dsp/oscillator/oscillator.h **** //
  27:eurorack/plaits/dsp/oscillator/oscillator.h **** // Single waveform oscillator. Can optionally do audio-rate linear FM, with
  28:eurorack/plaits/dsp/oscillator/oscillator.h **** // through-zero capabilities (negative frequencies).
  29:eurorack/plaits/dsp/oscillator/oscillator.h **** 
  30:eurorack/plaits/dsp/oscillator/oscillator.h **** #ifndef PLAITS_DSP_OSCILLATOR_OSCILLATOR_H_
  31:eurorack/plaits/dsp/oscillator/oscillator.h **** #define PLAITS_DSP_OSCILLATOR_OSCILLATOR_H_
  32:eurorack/plaits/dsp/oscillator/oscillator.h **** 
  33:eurorack/plaits/dsp/oscillator/oscillator.h **** #include "stmlib/dsp/dsp.h"
  34:eurorack/plaits/dsp/oscillator/oscillator.h **** #include "stmlib/dsp/parameter_interpolator.h"
  35:eurorack/plaits/dsp/oscillator/oscillator.h **** #include "stmlib/dsp/polyblep.h"
  36:eurorack/plaits/dsp/oscillator/oscillator.h **** 
  37:eurorack/plaits/dsp/oscillator/oscillator.h **** namespace plaits {
  38:eurorack/plaits/dsp/oscillator/oscillator.h **** 
  39:eurorack/plaits/dsp/oscillator/oscillator.h **** enum OscillatorShape {
  40:eurorack/plaits/dsp/oscillator/oscillator.h ****   OSCILLATOR_SHAPE_IMPULSE_TRAIN,
  41:eurorack/plaits/dsp/oscillator/oscillator.h ****   OSCILLATOR_SHAPE_SAW,
  42:eurorack/plaits/dsp/oscillator/oscillator.h ****   OSCILLATOR_SHAPE_TRIANGLE,
  43:eurorack/plaits/dsp/oscillator/oscillator.h ****   OSCILLATOR_SHAPE_SLOPE,
  44:eurorack/plaits/dsp/oscillator/oscillator.h ****   OSCILLATOR_SHAPE_SQUARE,
  45:eurorack/plaits/dsp/oscillator/oscillator.h ****   OSCILLATOR_SHAPE_SQUARE_BRIGHT,
ARM GAS  /var/folders/9s/8rp0_f2s1n31qbztm3b5_fdh0000gn/T//ccUUhLUh.s 			page 9


  46:eurorack/plaits/dsp/oscillator/oscillator.h ****   OSCILLATOR_SHAPE_SQUARE_DARK,
  47:eurorack/plaits/dsp/oscillator/oscillator.h ****   OSCILLATOR_SHAPE_SQUARE_TRIANGLE
  48:eurorack/plaits/dsp/oscillator/oscillator.h **** };
  49:eurorack/plaits/dsp/oscillator/oscillator.h **** 
  50:eurorack/plaits/dsp/oscillator/oscillator.h **** const float kMaxFrequency = 0.25f;
  51:eurorack/plaits/dsp/oscillator/oscillator.h **** const float kMinFrequency = 0.000001f;
  52:eurorack/plaits/dsp/oscillator/oscillator.h **** 
  53:eurorack/plaits/dsp/oscillator/oscillator.h **** class Oscillator {
  54:eurorack/plaits/dsp/oscillator/oscillator.h ****  public:
  55:eurorack/plaits/dsp/oscillator/oscillator.h ****   Oscillator() { }
  56:eurorack/plaits/dsp/oscillator/oscillator.h ****   ~Oscillator() { }
  57:eurorack/plaits/dsp/oscillator/oscillator.h ****   
  58:eurorack/plaits/dsp/oscillator/oscillator.h ****   void Init() {
  97              		.loc 3 58 8 view .LVU16
  98              	.LBB81:
  59:eurorack/plaits/dsp/oscillator/oscillator.h ****     phase_ = 0.5f;
  99              		.loc 3 59 5 view .LVU17
  60:eurorack/plaits/dsp/oscillator/oscillator.h ****     next_sample_ = 0.0f;
  61:eurorack/plaits/dsp/oscillator/oscillator.h ****     lp_state_ = 1.0f;
 100              		.loc 3 61 15 is_stmt 0 view .LVU18
 101 0000 4FF07E51 		mov	r1, #1065353216
  60:eurorack/plaits/dsp/oscillator/oscillator.h ****     next_sample_ = 0.0f;
 102              		.loc 3 60 18 view .LVU19
 103 0004 0023     		movs	r3, #0
  59:eurorack/plaits/dsp/oscillator/oscillator.h ****     phase_ = 0.5f;
 104              		.loc 3 59 12 view .LVU20
 105 0006 4FF07C52 		mov	r2, #1056964608
 106              	.LBE81:
 107              	.LBE80:
  84:eurorack/plaits/dsp/speech/naive_speech_synth.cc ****   pulse_.Init();
 108              		.loc 2 84 31 view .LVU21
 109 000a 70B5     		push	{r4, r5, r6, lr}
 110              		.cfi_def_cfa_offset 16
 111              		.cfi_offset 4, -16
 112              		.cfi_offset 5, -12
 113              		.cfi_offset 6, -8
 114              		.cfi_offset 14, -4
 115              	.LBB85:
 116              	.LBB82:
 117              		.loc 3 61 15 view .LVU22
 118 000c 8160     		str	r1, [r0, #8]	@ float
  62:eurorack/plaits/dsp/oscillator/oscillator.h ****     hp_state_ = 0.0f;
  63:eurorack/plaits/dsp/oscillator/oscillator.h ****     high_ = true;
 119              		.loc 3 63 11 view .LVU23
 120 000e 0121     		movs	r1, #1
  60:eurorack/plaits/dsp/oscillator/oscillator.h ****     lp_state_ = 1.0f;
 121              		.loc 3 60 18 view .LVU24
 122 0010 4360     		str	r3, [r0, #4]	@ float
 123              	.LBE82:
 124              	.LBE85:
  84:eurorack/plaits/dsp/speech/naive_speech_synth.cc ****   pulse_.Init();
 125              		.loc 2 84 31 view .LVU25
 126 0012 0446     		mov	r4, r0
 127              	.LBB86:
 128              	.LBB83:
  62:eurorack/plaits/dsp/oscillator/oscillator.h ****     hp_state_ = 0.0f;
 129              		.loc 3 62 15 view .LVU26
ARM GAS  /var/folders/9s/8rp0_f2s1n31qbztm3b5_fdh0000gn/T//ccUUhLUh.s 			page 10


 130 0014 C360     		str	r3, [r0, #12]	@ float
 131 0016 00F12405 		add	r5, r0, #36
 132              		.loc 3 63 11 view .LVU27
 133 001a 0174     		strb	r1, [r0, #16]
 134 001c 00F18806 		add	r6, r0, #136
  64:eurorack/plaits/dsp/oscillator/oscillator.h **** 
  65:eurorack/plaits/dsp/oscillator/oscillator.h ****     frequency_ = 0.001f;
 135              		.loc 3 65 16 view .LVU28
 136 0020 0D49     		ldr	r1, .L7
 137              	.LBE83:
 138              	.LBE86:
  86:eurorack/plaits/dsp/speech/naive_speech_synth.cc ****   frequency_ = 0.0f;
 139              		.loc 2 86 14 view .LVU29
 140 0022 C361     		str	r3, [r0, #28]	@ float
  87:eurorack/plaits/dsp/speech/naive_speech_synth.cc ****   click_duration_ = 0;
 141              		.loc 2 87 19 view .LVU30
 142 0024 0023     		movs	r3, #0
 143              	.LBB87:
 144              	.LBB84:
  59:eurorack/plaits/dsp/oscillator/oscillator.h ****     next_sample_ = 0.0f;
 145              		.loc 3 59 12 view .LVU31
 146 0026 0260     		str	r2, [r0]	@ float
  60:eurorack/plaits/dsp/oscillator/oscillator.h ****     lp_state_ = 1.0f;
 147              		.loc 3 60 5 is_stmt 1 view .LVU32
  61:eurorack/plaits/dsp/oscillator/oscillator.h ****     hp_state_ = 0.0f;
 148              		.loc 3 61 5 view .LVU33
  62:eurorack/plaits/dsp/oscillator/oscillator.h ****     high_ = true;
 149              		.loc 3 62 5 view .LVU34
  63:eurorack/plaits/dsp/oscillator/oscillator.h **** 
 150              		.loc 3 63 5 view .LVU35
 151              		.loc 3 65 5 view .LVU36
 152              		.loc 3 65 16 is_stmt 0 view .LVU37
 153 0028 4161     		str	r1, [r0, #20]	@ float
  66:eurorack/plaits/dsp/oscillator/oscillator.h ****     pw_ = 0.5f;
 154              		.loc 3 66 5 is_stmt 1 view .LVU38
 155              		.loc 3 66 9 is_stmt 0 view .LVU39
 156 002a 8261     		str	r2, [r0, #24]	@ float
 157              	.LVL4:
 158              		.loc 3 66 9 view .LVU40
 159              	.LBE84:
 160              	.LBE87:
  86:eurorack/plaits/dsp/speech/naive_speech_synth.cc ****   click_duration_ = 0;
 161              		.loc 2 86 3 is_stmt 1 view .LVU41
 162              		.loc 2 87 3 view .LVU42
 163              		.loc 2 87 19 is_stmt 0 view .LVU43
 164 002c 0362     		str	r3, [r0, #32]
  88:eurorack/plaits/dsp/speech/naive_speech_synth.cc ****   
  89:eurorack/plaits/dsp/speech/naive_speech_synth.cc ****   for (int i = 0; i < kNaiveSpeechNumFormants; ++i) {
 165              		.loc 2 89 3 is_stmt 1 view .LVU44
 166              	.LVL5:
 167              	.LBB88:
 168              		.loc 2 89 21 view .LVU45
 169              	.L5:
  90:eurorack/plaits/dsp/speech/naive_speech_synth.cc ****     filter_[i].Init();
 170              		.loc 2 90 5 discriminator 2 view .LVU46
 171              		.loc 2 90 20 is_stmt 0 discriminator 2 view .LVU47
 172 002e 2846     		mov	r0, r5
ARM GAS  /var/folders/9s/8rp0_f2s1n31qbztm3b5_fdh0000gn/T//ccUUhLUh.s 			page 11


  89:eurorack/plaits/dsp/speech/naive_speech_synth.cc ****     filter_[i].Init();
 173              		.loc 2 89 21 discriminator 2 view .LVU48
 174 0030 1435     		adds	r5, r5, #20
 175              		.loc 2 90 20 discriminator 2 view .LVU49
 176 0032 FFF7FEFF 		bl	_ZN6stmlib3Svf4InitEv
 177              	.LVL6:
  89:eurorack/plaits/dsp/speech/naive_speech_synth.cc ****     filter_[i].Init();
 178              		.loc 2 89 3 is_stmt 1 discriminator 2 view .LVU50
  89:eurorack/plaits/dsp/speech/naive_speech_synth.cc ****     filter_[i].Init();
 179              		.loc 2 89 21 discriminator 2 view .LVU51
 180 0036 AE42     		cmp	r6, r5
 181 0038 F9D1     		bne	.L5
 182              	.LBE88:
  91:eurorack/plaits/dsp/speech/naive_speech_synth.cc ****   }
  92:eurorack/plaits/dsp/speech/naive_speech_synth.cc ****   pulse_coloration_.Init();
 183              		.loc 2 92 3 view .LVU52
 184              		.loc 2 92 25 is_stmt 0 view .LVU53
 185 003a 3046     		mov	r0, r6
 186 003c FFF7FEFF 		bl	_ZN6stmlib3Svf4InitEv
 187              	.LVL7:
  93:eurorack/plaits/dsp/speech/naive_speech_synth.cc ****   pulse_coloration_.set_f_q<FREQUENCY_DIRTY>(800.0f / kSampleRate, 0.5f);
 188              		.loc 2 93 3 is_stmt 1 view .LVU54
 189              	.LBB89:
 190              	.LBI89:
 223:eurorack/stmlib/dsp/filter.h ****     g_ = OnePole::tan<approximation>(f);
 191              		.loc 1 223 15 view .LVU55
 192              	.LBB90:
 224:eurorack/stmlib/dsp/filter.h ****     r_ = 1.0f / resonance;
 193              		.loc 1 224 8 is_stmt 0 view .LVU56
 194 0040 064B     		ldr	r3, .L7+4
 195 0042 C4F88830 		str	r3, [r4, #136]	@ float
 225:eurorack/stmlib/dsp/filter.h ****     h_ = 1.0f / (1.0f + r_ * g_ + g_ * g_);
 196              		.loc 1 225 8 view .LVU57
 197 0046 4FF08043 		mov	r3, #1073741824
 198 004a C4F88C30 		str	r3, [r4, #140]	@ float
 199              		.loc 1 226 8 view .LVU58
 200 004e 044B     		ldr	r3, .L7+8
 201 0050 C4F89030 		str	r3, [r4, #144]	@ float
 202              	.LVL8:
 203              		.loc 1 226 8 view .LVU59
 204              	.LBE90:
 205              	.LBE89:
  94:eurorack/plaits/dsp/speech/naive_speech_synth.cc **** }
 206              		.loc 2 94 1 view .LVU60
 207 0054 70BD     		pop	{r4, r5, r6, pc}
 208              	.LVL9:
 209              	.L8:
 210              		.loc 2 94 1 view .LVU61
 211 0056 00BF     		.align	2
 212              	.L7:
 213 0058 6F12833A 		.word	981668463
 214 005c 8CAF563D 		.word	1029091212
 215 0060 C122673F 		.word	1063723713
 216              		.cfi_endproc
 217              	.LFE1519:
 219              		.section	.text._ZN6plaits16NaiveSpeechSynth6RenderEbfffPfS1_S1_j,"ax",%progbits
 220              		.align	1
ARM GAS  /var/folders/9s/8rp0_f2s1n31qbztm3b5_fdh0000gn/T//ccUUhLUh.s 			page 12


 221              		.global	_ZN6plaits16NaiveSpeechSynth6RenderEbfffPfS1_S1_j
 222              		.syntax unified
 223              		.thumb
 224              		.thumb_func
 226              	_ZN6plaits16NaiveSpeechSynth6RenderEbfffPfS1_S1_j:
 227              	.LVL10:
 228              	.LFB1520:
  95:eurorack/plaits/dsp/speech/naive_speech_synth.cc **** 
  96:eurorack/plaits/dsp/speech/naive_speech_synth.cc **** void NaiveSpeechSynth::Render(
  97:eurorack/plaits/dsp/speech/naive_speech_synth.cc ****     bool click,
  98:eurorack/plaits/dsp/speech/naive_speech_synth.cc ****     float frequency,
  99:eurorack/plaits/dsp/speech/naive_speech_synth.cc ****     float phoneme,
 100:eurorack/plaits/dsp/speech/naive_speech_synth.cc ****     float vocal_register,
 101:eurorack/plaits/dsp/speech/naive_speech_synth.cc ****     float* temp,
 102:eurorack/plaits/dsp/speech/naive_speech_synth.cc ****     float* excitation,
 103:eurorack/plaits/dsp/speech/naive_speech_synth.cc ****     float* output,
 104:eurorack/plaits/dsp/speech/naive_speech_synth.cc ****     size_t size) {
 229              		.loc 2 104 18 is_stmt 1 view -0
 230              		.cfi_startproc
 231              		@ args = 8, pretend = 0, frame = 0
 232              		@ frame_needed = 0, uses_anonymous_args = 0
 105:eurorack/plaits/dsp/speech/naive_speech_synth.cc ****   if (click) {
 233              		.loc 2 105 3 view .LVU63
 104:eurorack/plaits/dsp/speech/naive_speech_synth.cc ****   if (click) {
 234              		.loc 2 104 18 is_stmt 0 view .LVU64
 235 0000 F8B5     		push	{r3, r4, r5, r6, r7, lr}
 236              		.cfi_def_cfa_offset 24
 237              		.cfi_offset 3, -24
 238              		.cfi_offset 4, -20
 239              		.cfi_offset 5, -16
 240              		.cfi_offset 6, -12
 241              		.cfi_offset 7, -8
 242              		.cfi_offset 14, -4
 243 0002 0446     		mov	r4, r0
 244 0004 1D46     		mov	r5, r3
 245 0006 2DED068B 		vpush.64	{d8, d9, d10}
 246              		.cfi_def_cfa_offset 48
 247              		.cfi_offset 80, -48
 248              		.cfi_offset 81, -44
 249              		.cfi_offset 82, -40
 250              		.cfi_offset 83, -36
 251              		.cfi_offset 84, -32
 252              		.cfi_offset 85, -28
 104:eurorack/plaits/dsp/speech/naive_speech_synth.cc ****   if (click) {
 253              		.loc 2 104 18 view .LVU65
 254 000a DDE90C30 		ldrd	r3, r0, [sp, #48]
 255              	.LVL11:
 256              		.loc 2 105 3 view .LVU66
 257 000e 11B1     		cbz	r1, .L10
 106:eurorack/plaits/dsp/speech/naive_speech_synth.cc ****     click_duration_ = kSampleRate * 0.05f;
 258              		.loc 2 106 5 is_stmt 1 view .LVU67
 259              		.loc 2 106 21 is_stmt 0 view .LVU68
 260 0010 4FF41662 		mov	r2, #2400
 261              	.LVL12:
 262              		.loc 2 106 21 view .LVU69
 263 0014 2262     		str	r2, [r4, #32]
 264              	.L10:
ARM GAS  /var/folders/9s/8rp0_f2s1n31qbztm3b5_fdh0000gn/T//ccUUhLUh.s 			page 13


 107:eurorack/plaits/dsp/speech/naive_speech_synth.cc ****   }
 108:eurorack/plaits/dsp/speech/naive_speech_synth.cc ****   click_duration_ -= min(click_duration_, size);
 265              		.loc 2 108 3 is_stmt 1 view .LVU70
 266              	.LVL13:
 267              	.LBB144:
 268              	.LBI144:
 269              		.file 4 "/Library/DaisyToolchain/0.2.0/arm/arm-none-eabi/include/c++/10.3.1/bits/stl_algobase.h"
   1:/Library/DaisyToolchain/0.2.0/arm/arm-none-eabi/include/c++/10.3.1/bits/stl_algobase.h **** // Core algorithmic facilities -*- C++ -*-
   2:/Library/DaisyToolchain/0.2.0/arm/arm-none-eabi/include/c++/10.3.1/bits/stl_algobase.h **** 
   3:/Library/DaisyToolchain/0.2.0/arm/arm-none-eabi/include/c++/10.3.1/bits/stl_algobase.h **** // Copyright (C) 2001-2020 Free Software Foundation, Inc.
   4:/Library/DaisyToolchain/0.2.0/arm/arm-none-eabi/include/c++/10.3.1/bits/stl_algobase.h **** //
   5:/Library/DaisyToolchain/0.2.0/arm/arm-none-eabi/include/c++/10.3.1/bits/stl_algobase.h **** // This file is part of the GNU ISO C++ Library.  This library is free
   6:/Library/DaisyToolchain/0.2.0/arm/arm-none-eabi/include/c++/10.3.1/bits/stl_algobase.h **** // software; you can redistribute it and/or modify it under the
   7:/Library/DaisyToolchain/0.2.0/arm/arm-none-eabi/include/c++/10.3.1/bits/stl_algobase.h **** // terms of the GNU General Public License as published by the
   8:/Library/DaisyToolchain/0.2.0/arm/arm-none-eabi/include/c++/10.3.1/bits/stl_algobase.h **** // Free Software Foundation; either version 3, or (at your option)
   9:/Library/DaisyToolchain/0.2.0/arm/arm-none-eabi/include/c++/10.3.1/bits/stl_algobase.h **** // any later version.
  10:/Library/DaisyToolchain/0.2.0/arm/arm-none-eabi/include/c++/10.3.1/bits/stl_algobase.h **** 
  11:/Library/DaisyToolchain/0.2.0/arm/arm-none-eabi/include/c++/10.3.1/bits/stl_algobase.h **** // This library is distributed in the hope that it will be useful,
  12:/Library/DaisyToolchain/0.2.0/arm/arm-none-eabi/include/c++/10.3.1/bits/stl_algobase.h **** // but WITHOUT ANY WARRANTY; without even the implied warranty of
  13:/Library/DaisyToolchain/0.2.0/arm/arm-none-eabi/include/c++/10.3.1/bits/stl_algobase.h **** // MERCHANTABILITY or FITNESS FOR A PARTICULAR PURPOSE.  See the
  14:/Library/DaisyToolchain/0.2.0/arm/arm-none-eabi/include/c++/10.3.1/bits/stl_algobase.h **** // GNU General Public License for more details.
  15:/Library/DaisyToolchain/0.2.0/arm/arm-none-eabi/include/c++/10.3.1/bits/stl_algobase.h **** 
  16:/Library/DaisyToolchain/0.2.0/arm/arm-none-eabi/include/c++/10.3.1/bits/stl_algobase.h **** // Under Section 7 of GPL version 3, you are granted additional
  17:/Library/DaisyToolchain/0.2.0/arm/arm-none-eabi/include/c++/10.3.1/bits/stl_algobase.h **** // permissions described in the GCC Runtime Library Exception, version
  18:/Library/DaisyToolchain/0.2.0/arm/arm-none-eabi/include/c++/10.3.1/bits/stl_algobase.h **** // 3.1, as published by the Free Software Foundation.
  19:/Library/DaisyToolchain/0.2.0/arm/arm-none-eabi/include/c++/10.3.1/bits/stl_algobase.h **** 
  20:/Library/DaisyToolchain/0.2.0/arm/arm-none-eabi/include/c++/10.3.1/bits/stl_algobase.h **** // You should have received a copy of the GNU General Public License and
  21:/Library/DaisyToolchain/0.2.0/arm/arm-none-eabi/include/c++/10.3.1/bits/stl_algobase.h **** // a copy of the GCC Runtime Library Exception along with this program;
  22:/Library/DaisyToolchain/0.2.0/arm/arm-none-eabi/include/c++/10.3.1/bits/stl_algobase.h **** // see the files COPYING3 and COPYING.RUNTIME respectively.  If not, see
  23:/Library/DaisyToolchain/0.2.0/arm/arm-none-eabi/include/c++/10.3.1/bits/stl_algobase.h **** // <http://www.gnu.org/licenses/>.
  24:/Library/DaisyToolchain/0.2.0/arm/arm-none-eabi/include/c++/10.3.1/bits/stl_algobase.h **** 
  25:/Library/DaisyToolchain/0.2.0/arm/arm-none-eabi/include/c++/10.3.1/bits/stl_algobase.h **** /*
  26:/Library/DaisyToolchain/0.2.0/arm/arm-none-eabi/include/c++/10.3.1/bits/stl_algobase.h ****  *
  27:/Library/DaisyToolchain/0.2.0/arm/arm-none-eabi/include/c++/10.3.1/bits/stl_algobase.h ****  * Copyright (c) 1994
  28:/Library/DaisyToolchain/0.2.0/arm/arm-none-eabi/include/c++/10.3.1/bits/stl_algobase.h ****  * Hewlett-Packard Company
  29:/Library/DaisyToolchain/0.2.0/arm/arm-none-eabi/include/c++/10.3.1/bits/stl_algobase.h ****  *
  30:/Library/DaisyToolchain/0.2.0/arm/arm-none-eabi/include/c++/10.3.1/bits/stl_algobase.h ****  * Permission to use, copy, modify, distribute and sell this software
  31:/Library/DaisyToolchain/0.2.0/arm/arm-none-eabi/include/c++/10.3.1/bits/stl_algobase.h ****  * and its documentation for any purpose is hereby granted without fee,
  32:/Library/DaisyToolchain/0.2.0/arm/arm-none-eabi/include/c++/10.3.1/bits/stl_algobase.h ****  * provided that the above copyright notice appear in all copies and
  33:/Library/DaisyToolchain/0.2.0/arm/arm-none-eabi/include/c++/10.3.1/bits/stl_algobase.h ****  * that both that copyright notice and this permission notice appear
  34:/Library/DaisyToolchain/0.2.0/arm/arm-none-eabi/include/c++/10.3.1/bits/stl_algobase.h ****  * in supporting documentation.  Hewlett-Packard Company makes no
  35:/Library/DaisyToolchain/0.2.0/arm/arm-none-eabi/include/c++/10.3.1/bits/stl_algobase.h ****  * representations about the suitability of this software for any
  36:/Library/DaisyToolchain/0.2.0/arm/arm-none-eabi/include/c++/10.3.1/bits/stl_algobase.h ****  * purpose.  It is provided "as is" without express or implied warranty.
  37:/Library/DaisyToolchain/0.2.0/arm/arm-none-eabi/include/c++/10.3.1/bits/stl_algobase.h ****  *
  38:/Library/DaisyToolchain/0.2.0/arm/arm-none-eabi/include/c++/10.3.1/bits/stl_algobase.h ****  *
  39:/Library/DaisyToolchain/0.2.0/arm/arm-none-eabi/include/c++/10.3.1/bits/stl_algobase.h ****  * Copyright (c) 1996-1998
  40:/Library/DaisyToolchain/0.2.0/arm/arm-none-eabi/include/c++/10.3.1/bits/stl_algobase.h ****  * Silicon Graphics Computer Systems, Inc.
  41:/Library/DaisyToolchain/0.2.0/arm/arm-none-eabi/include/c++/10.3.1/bits/stl_algobase.h ****  *
  42:/Library/DaisyToolchain/0.2.0/arm/arm-none-eabi/include/c++/10.3.1/bits/stl_algobase.h ****  * Permission to use, copy, modify, distribute and sell this software
  43:/Library/DaisyToolchain/0.2.0/arm/arm-none-eabi/include/c++/10.3.1/bits/stl_algobase.h ****  * and its documentation for any purpose is hereby granted without fee,
  44:/Library/DaisyToolchain/0.2.0/arm/arm-none-eabi/include/c++/10.3.1/bits/stl_algobase.h ****  * provided that the above copyright notice appear in all copies and
  45:/Library/DaisyToolchain/0.2.0/arm/arm-none-eabi/include/c++/10.3.1/bits/stl_algobase.h ****  * that both that copyright notice and this permission notice appear
  46:/Library/DaisyToolchain/0.2.0/arm/arm-none-eabi/include/c++/10.3.1/bits/stl_algobase.h ****  * in supporting documentation.  Silicon Graphics makes no
  47:/Library/DaisyToolchain/0.2.0/arm/arm-none-eabi/include/c++/10.3.1/bits/stl_algobase.h ****  * representations about the suitability of this software for any
  48:/Library/DaisyToolchain/0.2.0/arm/arm-none-eabi/include/c++/10.3.1/bits/stl_algobase.h ****  * purpose.  It is provided "as is" without express or implied warranty.
  49:/Library/DaisyToolchain/0.2.0/arm/arm-none-eabi/include/c++/10.3.1/bits/stl_algobase.h ****  */
  50:/Library/DaisyToolchain/0.2.0/arm/arm-none-eabi/include/c++/10.3.1/bits/stl_algobase.h **** 
ARM GAS  /var/folders/9s/8rp0_f2s1n31qbztm3b5_fdh0000gn/T//ccUUhLUh.s 			page 14


  51:/Library/DaisyToolchain/0.2.0/arm/arm-none-eabi/include/c++/10.3.1/bits/stl_algobase.h **** /** @file bits/stl_algobase.h
  52:/Library/DaisyToolchain/0.2.0/arm/arm-none-eabi/include/c++/10.3.1/bits/stl_algobase.h ****  *  This is an internal header file, included by other library headers.
  53:/Library/DaisyToolchain/0.2.0/arm/arm-none-eabi/include/c++/10.3.1/bits/stl_algobase.h ****  *  Do not attempt to use it directly. @headername{algorithm}
  54:/Library/DaisyToolchain/0.2.0/arm/arm-none-eabi/include/c++/10.3.1/bits/stl_algobase.h ****  */
  55:/Library/DaisyToolchain/0.2.0/arm/arm-none-eabi/include/c++/10.3.1/bits/stl_algobase.h **** 
  56:/Library/DaisyToolchain/0.2.0/arm/arm-none-eabi/include/c++/10.3.1/bits/stl_algobase.h **** #ifndef _STL_ALGOBASE_H
  57:/Library/DaisyToolchain/0.2.0/arm/arm-none-eabi/include/c++/10.3.1/bits/stl_algobase.h **** #define _STL_ALGOBASE_H 1
  58:/Library/DaisyToolchain/0.2.0/arm/arm-none-eabi/include/c++/10.3.1/bits/stl_algobase.h **** 
  59:/Library/DaisyToolchain/0.2.0/arm/arm-none-eabi/include/c++/10.3.1/bits/stl_algobase.h **** #include <bits/c++config.h>
  60:/Library/DaisyToolchain/0.2.0/arm/arm-none-eabi/include/c++/10.3.1/bits/stl_algobase.h **** #include <bits/functexcept.h>
  61:/Library/DaisyToolchain/0.2.0/arm/arm-none-eabi/include/c++/10.3.1/bits/stl_algobase.h **** #include <bits/cpp_type_traits.h>
  62:/Library/DaisyToolchain/0.2.0/arm/arm-none-eabi/include/c++/10.3.1/bits/stl_algobase.h **** #include <ext/type_traits.h>
  63:/Library/DaisyToolchain/0.2.0/arm/arm-none-eabi/include/c++/10.3.1/bits/stl_algobase.h **** #include <ext/numeric_traits.h>
  64:/Library/DaisyToolchain/0.2.0/arm/arm-none-eabi/include/c++/10.3.1/bits/stl_algobase.h **** #include <bits/stl_pair.h>
  65:/Library/DaisyToolchain/0.2.0/arm/arm-none-eabi/include/c++/10.3.1/bits/stl_algobase.h **** #include <bits/stl_iterator_base_types.h>
  66:/Library/DaisyToolchain/0.2.0/arm/arm-none-eabi/include/c++/10.3.1/bits/stl_algobase.h **** #include <bits/stl_iterator_base_funcs.h>
  67:/Library/DaisyToolchain/0.2.0/arm/arm-none-eabi/include/c++/10.3.1/bits/stl_algobase.h **** #include <bits/stl_iterator.h>
  68:/Library/DaisyToolchain/0.2.0/arm/arm-none-eabi/include/c++/10.3.1/bits/stl_algobase.h **** #include <bits/concept_check.h>
  69:/Library/DaisyToolchain/0.2.0/arm/arm-none-eabi/include/c++/10.3.1/bits/stl_algobase.h **** #include <debug/debug.h>
  70:/Library/DaisyToolchain/0.2.0/arm/arm-none-eabi/include/c++/10.3.1/bits/stl_algobase.h **** #include <bits/move.h> // For std::swap
  71:/Library/DaisyToolchain/0.2.0/arm/arm-none-eabi/include/c++/10.3.1/bits/stl_algobase.h **** #include <bits/predefined_ops.h>
  72:/Library/DaisyToolchain/0.2.0/arm/arm-none-eabi/include/c++/10.3.1/bits/stl_algobase.h **** #if __cplusplus >= 201103L
  73:/Library/DaisyToolchain/0.2.0/arm/arm-none-eabi/include/c++/10.3.1/bits/stl_algobase.h **** # include <type_traits>
  74:/Library/DaisyToolchain/0.2.0/arm/arm-none-eabi/include/c++/10.3.1/bits/stl_algobase.h **** #endif
  75:/Library/DaisyToolchain/0.2.0/arm/arm-none-eabi/include/c++/10.3.1/bits/stl_algobase.h **** #if __cplusplus > 201703L
  76:/Library/DaisyToolchain/0.2.0/arm/arm-none-eabi/include/c++/10.3.1/bits/stl_algobase.h **** # include <compare>
  77:/Library/DaisyToolchain/0.2.0/arm/arm-none-eabi/include/c++/10.3.1/bits/stl_algobase.h **** #endif
  78:/Library/DaisyToolchain/0.2.0/arm/arm-none-eabi/include/c++/10.3.1/bits/stl_algobase.h **** 
  79:/Library/DaisyToolchain/0.2.0/arm/arm-none-eabi/include/c++/10.3.1/bits/stl_algobase.h **** namespace std _GLIBCXX_VISIBILITY(default)
  80:/Library/DaisyToolchain/0.2.0/arm/arm-none-eabi/include/c++/10.3.1/bits/stl_algobase.h **** {
  81:/Library/DaisyToolchain/0.2.0/arm/arm-none-eabi/include/c++/10.3.1/bits/stl_algobase.h **** _GLIBCXX_BEGIN_NAMESPACE_VERSION
  82:/Library/DaisyToolchain/0.2.0/arm/arm-none-eabi/include/c++/10.3.1/bits/stl_algobase.h **** 
  83:/Library/DaisyToolchain/0.2.0/arm/arm-none-eabi/include/c++/10.3.1/bits/stl_algobase.h ****   /*
  84:/Library/DaisyToolchain/0.2.0/arm/arm-none-eabi/include/c++/10.3.1/bits/stl_algobase.h ****    * A constexpr wrapper for __builtin_memcmp.
  85:/Library/DaisyToolchain/0.2.0/arm/arm-none-eabi/include/c++/10.3.1/bits/stl_algobase.h ****    * @param __num The number of elements of type _Tp (not bytes).
  86:/Library/DaisyToolchain/0.2.0/arm/arm-none-eabi/include/c++/10.3.1/bits/stl_algobase.h ****    */
  87:/Library/DaisyToolchain/0.2.0/arm/arm-none-eabi/include/c++/10.3.1/bits/stl_algobase.h ****   template<typename _Tp, typename _Up>
  88:/Library/DaisyToolchain/0.2.0/arm/arm-none-eabi/include/c++/10.3.1/bits/stl_algobase.h ****     _GLIBCXX14_CONSTEXPR
  89:/Library/DaisyToolchain/0.2.0/arm/arm-none-eabi/include/c++/10.3.1/bits/stl_algobase.h ****     inline int
  90:/Library/DaisyToolchain/0.2.0/arm/arm-none-eabi/include/c++/10.3.1/bits/stl_algobase.h ****     __memcmp(const _Tp* __first1, const _Up* __first2, size_t __num)
  91:/Library/DaisyToolchain/0.2.0/arm/arm-none-eabi/include/c++/10.3.1/bits/stl_algobase.h ****     {
  92:/Library/DaisyToolchain/0.2.0/arm/arm-none-eabi/include/c++/10.3.1/bits/stl_algobase.h **** #if __cplusplus >= 201103L
  93:/Library/DaisyToolchain/0.2.0/arm/arm-none-eabi/include/c++/10.3.1/bits/stl_algobase.h ****       static_assert(sizeof(_Tp) == sizeof(_Up), "can be compared with memcmp");
  94:/Library/DaisyToolchain/0.2.0/arm/arm-none-eabi/include/c++/10.3.1/bits/stl_algobase.h **** #endif
  95:/Library/DaisyToolchain/0.2.0/arm/arm-none-eabi/include/c++/10.3.1/bits/stl_algobase.h **** #ifdef __cpp_lib_is_constant_evaluated
  96:/Library/DaisyToolchain/0.2.0/arm/arm-none-eabi/include/c++/10.3.1/bits/stl_algobase.h ****       if (std::is_constant_evaluated())
  97:/Library/DaisyToolchain/0.2.0/arm/arm-none-eabi/include/c++/10.3.1/bits/stl_algobase.h **** 	{
  98:/Library/DaisyToolchain/0.2.0/arm/arm-none-eabi/include/c++/10.3.1/bits/stl_algobase.h **** 	  for(; __num > 0; ++__first1, ++__first2, --__num)
  99:/Library/DaisyToolchain/0.2.0/arm/arm-none-eabi/include/c++/10.3.1/bits/stl_algobase.h **** 	    if (*__first1 != *__first2)
 100:/Library/DaisyToolchain/0.2.0/arm/arm-none-eabi/include/c++/10.3.1/bits/stl_algobase.h **** 	      return *__first1 < *__first2 ? -1 : 1;
 101:/Library/DaisyToolchain/0.2.0/arm/arm-none-eabi/include/c++/10.3.1/bits/stl_algobase.h **** 	  return 0;
 102:/Library/DaisyToolchain/0.2.0/arm/arm-none-eabi/include/c++/10.3.1/bits/stl_algobase.h **** 	}
 103:/Library/DaisyToolchain/0.2.0/arm/arm-none-eabi/include/c++/10.3.1/bits/stl_algobase.h ****       else
 104:/Library/DaisyToolchain/0.2.0/arm/arm-none-eabi/include/c++/10.3.1/bits/stl_algobase.h **** #endif
 105:/Library/DaisyToolchain/0.2.0/arm/arm-none-eabi/include/c++/10.3.1/bits/stl_algobase.h **** 	return __builtin_memcmp(__first1, __first2, sizeof(_Tp) * __num);
 106:/Library/DaisyToolchain/0.2.0/arm/arm-none-eabi/include/c++/10.3.1/bits/stl_algobase.h ****     }
 107:/Library/DaisyToolchain/0.2.0/arm/arm-none-eabi/include/c++/10.3.1/bits/stl_algobase.h **** 
ARM GAS  /var/folders/9s/8rp0_f2s1n31qbztm3b5_fdh0000gn/T//ccUUhLUh.s 			page 15


 108:/Library/DaisyToolchain/0.2.0/arm/arm-none-eabi/include/c++/10.3.1/bits/stl_algobase.h **** #if __cplusplus < 201103L
 109:/Library/DaisyToolchain/0.2.0/arm/arm-none-eabi/include/c++/10.3.1/bits/stl_algobase.h ****   // See http://gcc.gnu.org/ml/libstdc++/2004-08/msg00167.html: in a
 110:/Library/DaisyToolchain/0.2.0/arm/arm-none-eabi/include/c++/10.3.1/bits/stl_algobase.h ****   // nutshell, we are partially implementing the resolution of DR 187,
 111:/Library/DaisyToolchain/0.2.0/arm/arm-none-eabi/include/c++/10.3.1/bits/stl_algobase.h ****   // when it's safe, i.e., the value_types are equal.
 112:/Library/DaisyToolchain/0.2.0/arm/arm-none-eabi/include/c++/10.3.1/bits/stl_algobase.h ****   template<bool _BoolType>
 113:/Library/DaisyToolchain/0.2.0/arm/arm-none-eabi/include/c++/10.3.1/bits/stl_algobase.h ****     struct __iter_swap
 114:/Library/DaisyToolchain/0.2.0/arm/arm-none-eabi/include/c++/10.3.1/bits/stl_algobase.h ****     {
 115:/Library/DaisyToolchain/0.2.0/arm/arm-none-eabi/include/c++/10.3.1/bits/stl_algobase.h ****       template<typename _ForwardIterator1, typename _ForwardIterator2>
 116:/Library/DaisyToolchain/0.2.0/arm/arm-none-eabi/include/c++/10.3.1/bits/stl_algobase.h **** 	static void
 117:/Library/DaisyToolchain/0.2.0/arm/arm-none-eabi/include/c++/10.3.1/bits/stl_algobase.h **** 	iter_swap(_ForwardIterator1 __a, _ForwardIterator2 __b)
 118:/Library/DaisyToolchain/0.2.0/arm/arm-none-eabi/include/c++/10.3.1/bits/stl_algobase.h **** 	{
 119:/Library/DaisyToolchain/0.2.0/arm/arm-none-eabi/include/c++/10.3.1/bits/stl_algobase.h **** 	  typedef typename iterator_traits<_ForwardIterator1>::value_type
 120:/Library/DaisyToolchain/0.2.0/arm/arm-none-eabi/include/c++/10.3.1/bits/stl_algobase.h **** 	    _ValueType1;
 121:/Library/DaisyToolchain/0.2.0/arm/arm-none-eabi/include/c++/10.3.1/bits/stl_algobase.h **** 	  _ValueType1 __tmp = *__a;
 122:/Library/DaisyToolchain/0.2.0/arm/arm-none-eabi/include/c++/10.3.1/bits/stl_algobase.h **** 	  *__a = *__b;
 123:/Library/DaisyToolchain/0.2.0/arm/arm-none-eabi/include/c++/10.3.1/bits/stl_algobase.h **** 	  *__b = __tmp;
 124:/Library/DaisyToolchain/0.2.0/arm/arm-none-eabi/include/c++/10.3.1/bits/stl_algobase.h **** 	}
 125:/Library/DaisyToolchain/0.2.0/arm/arm-none-eabi/include/c++/10.3.1/bits/stl_algobase.h ****     };
 126:/Library/DaisyToolchain/0.2.0/arm/arm-none-eabi/include/c++/10.3.1/bits/stl_algobase.h **** 
 127:/Library/DaisyToolchain/0.2.0/arm/arm-none-eabi/include/c++/10.3.1/bits/stl_algobase.h ****   template<>
 128:/Library/DaisyToolchain/0.2.0/arm/arm-none-eabi/include/c++/10.3.1/bits/stl_algobase.h ****     struct __iter_swap<true>
 129:/Library/DaisyToolchain/0.2.0/arm/arm-none-eabi/include/c++/10.3.1/bits/stl_algobase.h ****     {
 130:/Library/DaisyToolchain/0.2.0/arm/arm-none-eabi/include/c++/10.3.1/bits/stl_algobase.h ****       template<typename _ForwardIterator1, typename _ForwardIterator2>
 131:/Library/DaisyToolchain/0.2.0/arm/arm-none-eabi/include/c++/10.3.1/bits/stl_algobase.h **** 	static void
 132:/Library/DaisyToolchain/0.2.0/arm/arm-none-eabi/include/c++/10.3.1/bits/stl_algobase.h **** 	iter_swap(_ForwardIterator1 __a, _ForwardIterator2 __b)
 133:/Library/DaisyToolchain/0.2.0/arm/arm-none-eabi/include/c++/10.3.1/bits/stl_algobase.h **** 	{
 134:/Library/DaisyToolchain/0.2.0/arm/arm-none-eabi/include/c++/10.3.1/bits/stl_algobase.h **** 	  swap(*__a, *__b);
 135:/Library/DaisyToolchain/0.2.0/arm/arm-none-eabi/include/c++/10.3.1/bits/stl_algobase.h **** 	}
 136:/Library/DaisyToolchain/0.2.0/arm/arm-none-eabi/include/c++/10.3.1/bits/stl_algobase.h ****     };
 137:/Library/DaisyToolchain/0.2.0/arm/arm-none-eabi/include/c++/10.3.1/bits/stl_algobase.h **** #endif // C++03
 138:/Library/DaisyToolchain/0.2.0/arm/arm-none-eabi/include/c++/10.3.1/bits/stl_algobase.h **** 
 139:/Library/DaisyToolchain/0.2.0/arm/arm-none-eabi/include/c++/10.3.1/bits/stl_algobase.h ****   /**
 140:/Library/DaisyToolchain/0.2.0/arm/arm-none-eabi/include/c++/10.3.1/bits/stl_algobase.h ****    *  @brief Swaps the contents of two iterators.
 141:/Library/DaisyToolchain/0.2.0/arm/arm-none-eabi/include/c++/10.3.1/bits/stl_algobase.h ****    *  @ingroup mutating_algorithms
 142:/Library/DaisyToolchain/0.2.0/arm/arm-none-eabi/include/c++/10.3.1/bits/stl_algobase.h ****    *  @param  __a  An iterator.
 143:/Library/DaisyToolchain/0.2.0/arm/arm-none-eabi/include/c++/10.3.1/bits/stl_algobase.h ****    *  @param  __b  Another iterator.
 144:/Library/DaisyToolchain/0.2.0/arm/arm-none-eabi/include/c++/10.3.1/bits/stl_algobase.h ****    *  @return   Nothing.
 145:/Library/DaisyToolchain/0.2.0/arm/arm-none-eabi/include/c++/10.3.1/bits/stl_algobase.h ****    *
 146:/Library/DaisyToolchain/0.2.0/arm/arm-none-eabi/include/c++/10.3.1/bits/stl_algobase.h ****    *  This function swaps the values pointed to by two iterators, not the
 147:/Library/DaisyToolchain/0.2.0/arm/arm-none-eabi/include/c++/10.3.1/bits/stl_algobase.h ****    *  iterators themselves.
 148:/Library/DaisyToolchain/0.2.0/arm/arm-none-eabi/include/c++/10.3.1/bits/stl_algobase.h ****   */
 149:/Library/DaisyToolchain/0.2.0/arm/arm-none-eabi/include/c++/10.3.1/bits/stl_algobase.h ****   template<typename _ForwardIterator1, typename _ForwardIterator2>
 150:/Library/DaisyToolchain/0.2.0/arm/arm-none-eabi/include/c++/10.3.1/bits/stl_algobase.h ****     _GLIBCXX20_CONSTEXPR
 151:/Library/DaisyToolchain/0.2.0/arm/arm-none-eabi/include/c++/10.3.1/bits/stl_algobase.h ****     inline void
 152:/Library/DaisyToolchain/0.2.0/arm/arm-none-eabi/include/c++/10.3.1/bits/stl_algobase.h ****     iter_swap(_ForwardIterator1 __a, _ForwardIterator2 __b)
 153:/Library/DaisyToolchain/0.2.0/arm/arm-none-eabi/include/c++/10.3.1/bits/stl_algobase.h ****     {
 154:/Library/DaisyToolchain/0.2.0/arm/arm-none-eabi/include/c++/10.3.1/bits/stl_algobase.h ****       // concept requirements
 155:/Library/DaisyToolchain/0.2.0/arm/arm-none-eabi/include/c++/10.3.1/bits/stl_algobase.h ****       __glibcxx_function_requires(_Mutable_ForwardIteratorConcept<
 156:/Library/DaisyToolchain/0.2.0/arm/arm-none-eabi/include/c++/10.3.1/bits/stl_algobase.h **** 				  _ForwardIterator1>)
 157:/Library/DaisyToolchain/0.2.0/arm/arm-none-eabi/include/c++/10.3.1/bits/stl_algobase.h ****       __glibcxx_function_requires(_Mutable_ForwardIteratorConcept<
 158:/Library/DaisyToolchain/0.2.0/arm/arm-none-eabi/include/c++/10.3.1/bits/stl_algobase.h **** 				  _ForwardIterator2>)
 159:/Library/DaisyToolchain/0.2.0/arm/arm-none-eabi/include/c++/10.3.1/bits/stl_algobase.h **** 
 160:/Library/DaisyToolchain/0.2.0/arm/arm-none-eabi/include/c++/10.3.1/bits/stl_algobase.h **** #if __cplusplus < 201103L
 161:/Library/DaisyToolchain/0.2.0/arm/arm-none-eabi/include/c++/10.3.1/bits/stl_algobase.h ****       typedef typename iterator_traits<_ForwardIterator1>::value_type
 162:/Library/DaisyToolchain/0.2.0/arm/arm-none-eabi/include/c++/10.3.1/bits/stl_algobase.h **** 	_ValueType1;
 163:/Library/DaisyToolchain/0.2.0/arm/arm-none-eabi/include/c++/10.3.1/bits/stl_algobase.h ****       typedef typename iterator_traits<_ForwardIterator2>::value_type
 164:/Library/DaisyToolchain/0.2.0/arm/arm-none-eabi/include/c++/10.3.1/bits/stl_algobase.h **** 	_ValueType2;
ARM GAS  /var/folders/9s/8rp0_f2s1n31qbztm3b5_fdh0000gn/T//ccUUhLUh.s 			page 16


 165:/Library/DaisyToolchain/0.2.0/arm/arm-none-eabi/include/c++/10.3.1/bits/stl_algobase.h **** 
 166:/Library/DaisyToolchain/0.2.0/arm/arm-none-eabi/include/c++/10.3.1/bits/stl_algobase.h ****       __glibcxx_function_requires(_ConvertibleConcept<_ValueType1,
 167:/Library/DaisyToolchain/0.2.0/arm/arm-none-eabi/include/c++/10.3.1/bits/stl_algobase.h **** 				  _ValueType2>)
 168:/Library/DaisyToolchain/0.2.0/arm/arm-none-eabi/include/c++/10.3.1/bits/stl_algobase.h ****       __glibcxx_function_requires(_ConvertibleConcept<_ValueType2,
 169:/Library/DaisyToolchain/0.2.0/arm/arm-none-eabi/include/c++/10.3.1/bits/stl_algobase.h **** 				  _ValueType1>)
 170:/Library/DaisyToolchain/0.2.0/arm/arm-none-eabi/include/c++/10.3.1/bits/stl_algobase.h **** 
 171:/Library/DaisyToolchain/0.2.0/arm/arm-none-eabi/include/c++/10.3.1/bits/stl_algobase.h ****       typedef typename iterator_traits<_ForwardIterator1>::reference
 172:/Library/DaisyToolchain/0.2.0/arm/arm-none-eabi/include/c++/10.3.1/bits/stl_algobase.h **** 	_ReferenceType1;
 173:/Library/DaisyToolchain/0.2.0/arm/arm-none-eabi/include/c++/10.3.1/bits/stl_algobase.h ****       typedef typename iterator_traits<_ForwardIterator2>::reference
 174:/Library/DaisyToolchain/0.2.0/arm/arm-none-eabi/include/c++/10.3.1/bits/stl_algobase.h **** 	_ReferenceType2;
 175:/Library/DaisyToolchain/0.2.0/arm/arm-none-eabi/include/c++/10.3.1/bits/stl_algobase.h ****       std::__iter_swap<__are_same<_ValueType1, _ValueType2>::__value
 176:/Library/DaisyToolchain/0.2.0/arm/arm-none-eabi/include/c++/10.3.1/bits/stl_algobase.h **** 	&& __are_same<_ValueType1&, _ReferenceType1>::__value
 177:/Library/DaisyToolchain/0.2.0/arm/arm-none-eabi/include/c++/10.3.1/bits/stl_algobase.h **** 	&& __are_same<_ValueType2&, _ReferenceType2>::__value>::
 178:/Library/DaisyToolchain/0.2.0/arm/arm-none-eabi/include/c++/10.3.1/bits/stl_algobase.h **** 	iter_swap(__a, __b);
 179:/Library/DaisyToolchain/0.2.0/arm/arm-none-eabi/include/c++/10.3.1/bits/stl_algobase.h **** #else
 180:/Library/DaisyToolchain/0.2.0/arm/arm-none-eabi/include/c++/10.3.1/bits/stl_algobase.h ****       // _GLIBCXX_RESOLVE_LIB_DEFECTS
 181:/Library/DaisyToolchain/0.2.0/arm/arm-none-eabi/include/c++/10.3.1/bits/stl_algobase.h ****       // 187. iter_swap underspecified
 182:/Library/DaisyToolchain/0.2.0/arm/arm-none-eabi/include/c++/10.3.1/bits/stl_algobase.h ****       swap(*__a, *__b);
 183:/Library/DaisyToolchain/0.2.0/arm/arm-none-eabi/include/c++/10.3.1/bits/stl_algobase.h **** #endif
 184:/Library/DaisyToolchain/0.2.0/arm/arm-none-eabi/include/c++/10.3.1/bits/stl_algobase.h ****     }
 185:/Library/DaisyToolchain/0.2.0/arm/arm-none-eabi/include/c++/10.3.1/bits/stl_algobase.h **** 
 186:/Library/DaisyToolchain/0.2.0/arm/arm-none-eabi/include/c++/10.3.1/bits/stl_algobase.h ****   /**
 187:/Library/DaisyToolchain/0.2.0/arm/arm-none-eabi/include/c++/10.3.1/bits/stl_algobase.h ****    *  @brief Swap the elements of two sequences.
 188:/Library/DaisyToolchain/0.2.0/arm/arm-none-eabi/include/c++/10.3.1/bits/stl_algobase.h ****    *  @ingroup mutating_algorithms
 189:/Library/DaisyToolchain/0.2.0/arm/arm-none-eabi/include/c++/10.3.1/bits/stl_algobase.h ****    *  @param  __first1  A forward iterator.
 190:/Library/DaisyToolchain/0.2.0/arm/arm-none-eabi/include/c++/10.3.1/bits/stl_algobase.h ****    *  @param  __last1   A forward iterator.
 191:/Library/DaisyToolchain/0.2.0/arm/arm-none-eabi/include/c++/10.3.1/bits/stl_algobase.h ****    *  @param  __first2  A forward iterator.
 192:/Library/DaisyToolchain/0.2.0/arm/arm-none-eabi/include/c++/10.3.1/bits/stl_algobase.h ****    *  @return   An iterator equal to @p first2+(last1-first1).
 193:/Library/DaisyToolchain/0.2.0/arm/arm-none-eabi/include/c++/10.3.1/bits/stl_algobase.h ****    *
 194:/Library/DaisyToolchain/0.2.0/arm/arm-none-eabi/include/c++/10.3.1/bits/stl_algobase.h ****    *  Swaps each element in the range @p [first1,last1) with the
 195:/Library/DaisyToolchain/0.2.0/arm/arm-none-eabi/include/c++/10.3.1/bits/stl_algobase.h ****    *  corresponding element in the range @p [first2,(last1-first1)).
 196:/Library/DaisyToolchain/0.2.0/arm/arm-none-eabi/include/c++/10.3.1/bits/stl_algobase.h ****    *  The ranges must not overlap.
 197:/Library/DaisyToolchain/0.2.0/arm/arm-none-eabi/include/c++/10.3.1/bits/stl_algobase.h ****   */
 198:/Library/DaisyToolchain/0.2.0/arm/arm-none-eabi/include/c++/10.3.1/bits/stl_algobase.h ****   template<typename _ForwardIterator1, typename _ForwardIterator2>
 199:/Library/DaisyToolchain/0.2.0/arm/arm-none-eabi/include/c++/10.3.1/bits/stl_algobase.h ****     _GLIBCXX20_CONSTEXPR
 200:/Library/DaisyToolchain/0.2.0/arm/arm-none-eabi/include/c++/10.3.1/bits/stl_algobase.h ****     _ForwardIterator2
 201:/Library/DaisyToolchain/0.2.0/arm/arm-none-eabi/include/c++/10.3.1/bits/stl_algobase.h ****     swap_ranges(_ForwardIterator1 __first1, _ForwardIterator1 __last1,
 202:/Library/DaisyToolchain/0.2.0/arm/arm-none-eabi/include/c++/10.3.1/bits/stl_algobase.h **** 		_ForwardIterator2 __first2)
 203:/Library/DaisyToolchain/0.2.0/arm/arm-none-eabi/include/c++/10.3.1/bits/stl_algobase.h ****     {
 204:/Library/DaisyToolchain/0.2.0/arm/arm-none-eabi/include/c++/10.3.1/bits/stl_algobase.h ****       // concept requirements
 205:/Library/DaisyToolchain/0.2.0/arm/arm-none-eabi/include/c++/10.3.1/bits/stl_algobase.h ****       __glibcxx_function_requires(_Mutable_ForwardIteratorConcept<
 206:/Library/DaisyToolchain/0.2.0/arm/arm-none-eabi/include/c++/10.3.1/bits/stl_algobase.h **** 				  _ForwardIterator1>)
 207:/Library/DaisyToolchain/0.2.0/arm/arm-none-eabi/include/c++/10.3.1/bits/stl_algobase.h ****       __glibcxx_function_requires(_Mutable_ForwardIteratorConcept<
 208:/Library/DaisyToolchain/0.2.0/arm/arm-none-eabi/include/c++/10.3.1/bits/stl_algobase.h **** 				  _ForwardIterator2>)
 209:/Library/DaisyToolchain/0.2.0/arm/arm-none-eabi/include/c++/10.3.1/bits/stl_algobase.h ****       __glibcxx_requires_valid_range(__first1, __last1);
 210:/Library/DaisyToolchain/0.2.0/arm/arm-none-eabi/include/c++/10.3.1/bits/stl_algobase.h **** 
 211:/Library/DaisyToolchain/0.2.0/arm/arm-none-eabi/include/c++/10.3.1/bits/stl_algobase.h ****       for (; __first1 != __last1; ++__first1, (void)++__first2)
 212:/Library/DaisyToolchain/0.2.0/arm/arm-none-eabi/include/c++/10.3.1/bits/stl_algobase.h **** 	std::iter_swap(__first1, __first2);
 213:/Library/DaisyToolchain/0.2.0/arm/arm-none-eabi/include/c++/10.3.1/bits/stl_algobase.h ****       return __first2;
 214:/Library/DaisyToolchain/0.2.0/arm/arm-none-eabi/include/c++/10.3.1/bits/stl_algobase.h ****     }
 215:/Library/DaisyToolchain/0.2.0/arm/arm-none-eabi/include/c++/10.3.1/bits/stl_algobase.h **** 
 216:/Library/DaisyToolchain/0.2.0/arm/arm-none-eabi/include/c++/10.3.1/bits/stl_algobase.h ****   /**
 217:/Library/DaisyToolchain/0.2.0/arm/arm-none-eabi/include/c++/10.3.1/bits/stl_algobase.h ****    *  @brief This does what you think it does.
 218:/Library/DaisyToolchain/0.2.0/arm/arm-none-eabi/include/c++/10.3.1/bits/stl_algobase.h ****    *  @ingroup sorting_algorithms
 219:/Library/DaisyToolchain/0.2.0/arm/arm-none-eabi/include/c++/10.3.1/bits/stl_algobase.h ****    *  @param  __a  A thing of arbitrary type.
 220:/Library/DaisyToolchain/0.2.0/arm/arm-none-eabi/include/c++/10.3.1/bits/stl_algobase.h ****    *  @param  __b  Another thing of arbitrary type.
 221:/Library/DaisyToolchain/0.2.0/arm/arm-none-eabi/include/c++/10.3.1/bits/stl_algobase.h ****    *  @return   The lesser of the parameters.
ARM GAS  /var/folders/9s/8rp0_f2s1n31qbztm3b5_fdh0000gn/T//ccUUhLUh.s 			page 17


 222:/Library/DaisyToolchain/0.2.0/arm/arm-none-eabi/include/c++/10.3.1/bits/stl_algobase.h ****    *
 223:/Library/DaisyToolchain/0.2.0/arm/arm-none-eabi/include/c++/10.3.1/bits/stl_algobase.h ****    *  This is the simple classic generic implementation.  It will work on
 224:/Library/DaisyToolchain/0.2.0/arm/arm-none-eabi/include/c++/10.3.1/bits/stl_algobase.h ****    *  temporary expressions, since they are only evaluated once, unlike a
 225:/Library/DaisyToolchain/0.2.0/arm/arm-none-eabi/include/c++/10.3.1/bits/stl_algobase.h ****    *  preprocessor macro.
 226:/Library/DaisyToolchain/0.2.0/arm/arm-none-eabi/include/c++/10.3.1/bits/stl_algobase.h ****   */
 227:/Library/DaisyToolchain/0.2.0/arm/arm-none-eabi/include/c++/10.3.1/bits/stl_algobase.h ****   template<typename _Tp>
 228:/Library/DaisyToolchain/0.2.0/arm/arm-none-eabi/include/c++/10.3.1/bits/stl_algobase.h ****     _GLIBCXX14_CONSTEXPR
 229:/Library/DaisyToolchain/0.2.0/arm/arm-none-eabi/include/c++/10.3.1/bits/stl_algobase.h ****     inline const _Tp&
 230:/Library/DaisyToolchain/0.2.0/arm/arm-none-eabi/include/c++/10.3.1/bits/stl_algobase.h ****     min(const _Tp& __a, const _Tp& __b)
 270              		.loc 4 230 5 view .LVU71
 271              	.LBB145:
 231:/Library/DaisyToolchain/0.2.0/arm/arm-none-eabi/include/c++/10.3.1/bits/stl_algobase.h ****     {
 232:/Library/DaisyToolchain/0.2.0/arm/arm-none-eabi/include/c++/10.3.1/bits/stl_algobase.h ****       // concept requirements
 233:/Library/DaisyToolchain/0.2.0/arm/arm-none-eabi/include/c++/10.3.1/bits/stl_algobase.h ****       __glibcxx_function_requires(_LessThanComparableConcept<_Tp>)
 234:/Library/DaisyToolchain/0.2.0/arm/arm-none-eabi/include/c++/10.3.1/bits/stl_algobase.h ****       //return __b < __a ? __b : __a;
 235:/Library/DaisyToolchain/0.2.0/arm/arm-none-eabi/include/c++/10.3.1/bits/stl_algobase.h ****       if (__b < __a)
 272              		.loc 4 235 15 is_stmt 0 view .LVU72
 273 0016 266A     		ldr	r6, [r4, #32]
 274              	.LVL14:
 275              		.loc 4 235 15 view .LVU73
 276 0018 F6EE008A 		vmov.f32	s17, #5.0e-1
 277              	.LBE145:
 278              	.LBE144:
 279              		.loc 2 108 19 view .LVU74
 280 001c 8642     		cmp	r6, r0
 281 001e 94BF     		ite	ls
 282 0020 B61B     		subls	r6, r6, r6
 283 0022 361A     		subhi	r6, r6, r0
 284 0024 2662     		str	r6, [r4, #32]
 109:eurorack/plaits/dsp/speech/naive_speech_synth.cc ****   
 110:eurorack/plaits/dsp/speech/naive_speech_synth.cc ****   if (click_duration_) {
 285              		.loc 2 110 3 is_stmt 1 view .LVU75
 286 0026 0EB1     		cbz	r6, .L11
 111:eurorack/plaits/dsp/speech/naive_speech_synth.cc ****     frequency *= 0.5f;
 287              		.loc 2 111 5 view .LVU76
 288              		.loc 2 111 15 is_stmt 0 view .LVU77
 289 0028 20EE280A 		vmul.f32	s0, s0, s17
 290              	.LVL15:
 291              	.L11:
 112:eurorack/plaits/dsp/speech/naive_speech_synth.cc ****   }
 113:eurorack/plaits/dsp/speech/naive_speech_synth.cc ****   
 114:eurorack/plaits/dsp/speech/naive_speech_synth.cc ****   // Generate excitation signal (glottal pulse).
 115:eurorack/plaits/dsp/speech/naive_speech_synth.cc ****   pulse_.Render<OSCILLATOR_SHAPE_IMPULSE_TRAIN>(
 292              		.loc 2 115 3 is_stmt 1 view .LVU78
 293              	.LBB148:
 294              	.LBI148:
  67:eurorack/plaits/dsp/oscillator/oscillator.h ****   }
  68:eurorack/plaits/dsp/oscillator/oscillator.h **** 
  69:eurorack/plaits/dsp/oscillator/oscillator.h ****   template<OscillatorShape shape>
  70:eurorack/plaits/dsp/oscillator/oscillator.h ****   void Render(float frequency, float pw, float* out, size_t size) {
 295              		.loc 3 70 8 view .LVU79
 296              	.LBB149:
 297              	.LBI149:
  71:eurorack/plaits/dsp/oscillator/oscillator.h ****     Render<shape, false, false>(frequency, pw, NULL, out, size);
  72:eurorack/plaits/dsp/oscillator/oscillator.h ****   }
  73:eurorack/plaits/dsp/oscillator/oscillator.h ****   
  74:eurorack/plaits/dsp/oscillator/oscillator.h ****   template<OscillatorShape shape>
ARM GAS  /var/folders/9s/8rp0_f2s1n31qbztm3b5_fdh0000gn/T//ccUUhLUh.s 			page 18


  75:eurorack/plaits/dsp/oscillator/oscillator.h ****   void Render(
  76:eurorack/plaits/dsp/oscillator/oscillator.h ****       float frequency,
  77:eurorack/plaits/dsp/oscillator/oscillator.h ****       float pw,
  78:eurorack/plaits/dsp/oscillator/oscillator.h ****       const float* fm,
  79:eurorack/plaits/dsp/oscillator/oscillator.h ****       float* out,
  80:eurorack/plaits/dsp/oscillator/oscillator.h ****       size_t size) {
  81:eurorack/plaits/dsp/oscillator/oscillator.h ****     if (!fm) {
  82:eurorack/plaits/dsp/oscillator/oscillator.h ****       Render<shape, false, false>(frequency, pw, NULL, out, size);
  83:eurorack/plaits/dsp/oscillator/oscillator.h ****     } else {
  84:eurorack/plaits/dsp/oscillator/oscillator.h ****       Render<shape, true, true>(frequency, pw, fm, out, size);
  85:eurorack/plaits/dsp/oscillator/oscillator.h ****     }
  86:eurorack/plaits/dsp/oscillator/oscillator.h ****   }
  87:eurorack/plaits/dsp/oscillator/oscillator.h **** 
  88:eurorack/plaits/dsp/oscillator/oscillator.h ****   template<OscillatorShape shape, bool has_external_fm, bool through_zero_fm>
  89:eurorack/plaits/dsp/oscillator/oscillator.h ****   void Render(
 298              		.loc 3 89 8 view .LVU80
 299              	.LBB150:
  90:eurorack/plaits/dsp/oscillator/oscillator.h ****       float frequency,
  91:eurorack/plaits/dsp/oscillator/oscillator.h ****       float pw,
  92:eurorack/plaits/dsp/oscillator/oscillator.h ****       const float* external_fm,
  93:eurorack/plaits/dsp/oscillator/oscillator.h ****       float* out,
  94:eurorack/plaits/dsp/oscillator/oscillator.h ****       size_t size) {
  95:eurorack/plaits/dsp/oscillator/oscillator.h ****     
  96:eurorack/plaits/dsp/oscillator/oscillator.h ****     if (!has_external_fm) {
  97:eurorack/plaits/dsp/oscillator/oscillator.h ****       if (!through_zero_fm) {
  98:eurorack/plaits/dsp/oscillator/oscillator.h ****         CONSTRAIN(frequency, kMinFrequency, kMaxFrequency);
 300              		.loc 3 98 9 is_stmt 0 view .LVU81
 301 002c DFEDD67A 		vldr.32	s15, .L48
 302 0030 B4EEE70A 		vcmpe.f32	s0, s15
 303 0034 F1EE10FA 		vmrs	APSR_nzcv, FPSCR
 304 0038 61D4     		bmi	.L30
 305              		.loc 3 98 9 view .LVU82
 306 003a F5EE007A 		vmov.f32	s15, #2.5e-1
 307 003e B4EE670A 		vcmp.f32	s0, s15
 308 0042 F1EE10FA 		vmrs	APSR_nzcv, FPSCR
 309 0046 37FE800A 		vselgt.f32	s0, s15, s0
 310              	.LVL16:
 311              	.L12:
  99:eurorack/plaits/dsp/oscillator/oscillator.h ****       } else {
 100:eurorack/plaits/dsp/oscillator/oscillator.h ****         CONSTRAIN(frequency, -kMaxFrequency, kMaxFrequency);
 101:eurorack/plaits/dsp/oscillator/oscillator.h ****       }
 102:eurorack/plaits/dsp/oscillator/oscillator.h ****       CONSTRAIN(pw, fabsf(frequency) * 2.0f, 1.0f - 2.0f * fabsf(frequency))
 312              		.loc 3 102 7 view .LVU83
 313 004a F0EEC07A 		vabs.f32	s15, s0
 314 004e 77EEA77A 		vadd.f32	s15, s15, s15
 315 0052 F4EEE87A 		vcmpe.f32	s15, s17
 316 0056 F1EE10FA 		vmrs	APSR_nzcv, FPSCR
 317 005a 0CDC     		bgt	.L14
 318              		.loc 3 102 7 view .LVU84
 319 005c B7EE007A 		vmov.f32	s14, #1.0e+0
 320 0060 77EE677A 		vsub.f32	s15, s14, s15
 321 0064 B6EE007A 		vmov.f32	s14, #5.0e-1
 322 0068 F4EEE87A 		vcmpe.f32	s15, s17
 323 006c F1EE10FA 		vmrs	APSR_nzcv, FPSCR
 324 0070 58BF     		it	pl
 325 0072 F0EE477A 		vmovpl.f32	s15, s14
 326              	.L14:
ARM GAS  /var/folders/9s/8rp0_f2s1n31qbztm3b5_fdh0000gn/T//ccUUhLUh.s 			page 19


 327              	.LVL17:
 328              	.LBB151:
 329              	.LBI151:
 330              		.file 5 "eurorack/stmlib/dsp/parameter_interpolator.h"
   1:eurorack/stmlib/dsp/parameter_interpolator.h **** // Copyright 2015 Emilie Gillet.
   2:eurorack/stmlib/dsp/parameter_interpolator.h **** //
   3:eurorack/stmlib/dsp/parameter_interpolator.h **** // Author: Emilie Gillet (emilie.o.gillet@gmail.com)
   4:eurorack/stmlib/dsp/parameter_interpolator.h **** //
   5:eurorack/stmlib/dsp/parameter_interpolator.h **** // Permission is hereby granted, free of charge, to any person obtaining a copy
   6:eurorack/stmlib/dsp/parameter_interpolator.h **** // of this software and associated documentation files (the "Software"), to deal
   7:eurorack/stmlib/dsp/parameter_interpolator.h **** // in the Software without restriction, including without limitation the rights
   8:eurorack/stmlib/dsp/parameter_interpolator.h **** // to use, copy, modify, merge, publish, distribute, sublicense, and/or sell
   9:eurorack/stmlib/dsp/parameter_interpolator.h **** // copies of the Software, and to permit persons to whom the Software is
  10:eurorack/stmlib/dsp/parameter_interpolator.h **** // furnished to do so, subject to the following conditions:
  11:eurorack/stmlib/dsp/parameter_interpolator.h **** // 
  12:eurorack/stmlib/dsp/parameter_interpolator.h **** // The above copyright notice and this permission notice shall be included in
  13:eurorack/stmlib/dsp/parameter_interpolator.h **** // all copies or substantial portions of the Software.
  14:eurorack/stmlib/dsp/parameter_interpolator.h **** // 
  15:eurorack/stmlib/dsp/parameter_interpolator.h **** // THE SOFTWARE IS PROVIDED "AS IS", WITHOUT WARRANTY OF ANY KIND, EXPRESS OR
  16:eurorack/stmlib/dsp/parameter_interpolator.h **** // IMPLIED, INCLUDING BUT NOT LIMITED TO THE WARRANTIES OF MERCHANTABILITY,
  17:eurorack/stmlib/dsp/parameter_interpolator.h **** // FITNESS FOR A PARTICULAR PURPOSE AND NONINFRINGEMENT. IN NO EVENT SHALL THE
  18:eurorack/stmlib/dsp/parameter_interpolator.h **** // AUTHORS OR COPYRIGHT HOLDERS BE LIABLE FOR ANY CLAIM, DAMAGES OR OTHER
  19:eurorack/stmlib/dsp/parameter_interpolator.h **** // LIABILITY, WHETHER IN AN ACTION OF CONTRACT, TORT OR OTHERWISE, ARISING FROM,
  20:eurorack/stmlib/dsp/parameter_interpolator.h **** // OUT OF OR IN CONNECTION WITH THE SOFTWARE OR THE USE OR OTHER DEALINGS IN
  21:eurorack/stmlib/dsp/parameter_interpolator.h **** // THE SOFTWARE.
  22:eurorack/stmlib/dsp/parameter_interpolator.h **** // 
  23:eurorack/stmlib/dsp/parameter_interpolator.h **** // See http://creativecommons.org/licenses/MIT/ for more information.
  24:eurorack/stmlib/dsp/parameter_interpolator.h **** //
  25:eurorack/stmlib/dsp/parameter_interpolator.h **** // -----------------------------------------------------------------------------
  26:eurorack/stmlib/dsp/parameter_interpolator.h **** //
  27:eurorack/stmlib/dsp/parameter_interpolator.h **** // Linear interpolation of parameters in rendering loops.
  28:eurorack/stmlib/dsp/parameter_interpolator.h **** 
  29:eurorack/stmlib/dsp/parameter_interpolator.h **** #ifndef STMLIB_DSP_PARAMETER_INTERPOLATOR_H_
  30:eurorack/stmlib/dsp/parameter_interpolator.h **** #define STMLIB_DSP_PARAMETER_INTERPOLATOR_H_
  31:eurorack/stmlib/dsp/parameter_interpolator.h **** 
  32:eurorack/stmlib/dsp/parameter_interpolator.h **** #include "stmlib/stmlib.h"
  33:eurorack/stmlib/dsp/parameter_interpolator.h **** 
  34:eurorack/stmlib/dsp/parameter_interpolator.h **** namespace stmlib {
  35:eurorack/stmlib/dsp/parameter_interpolator.h **** 
  36:eurorack/stmlib/dsp/parameter_interpolator.h **** class ParameterInterpolator {
  37:eurorack/stmlib/dsp/parameter_interpolator.h ****  public:
  38:eurorack/stmlib/dsp/parameter_interpolator.h ****   ParameterInterpolator() { }
  39:eurorack/stmlib/dsp/parameter_interpolator.h ****   ParameterInterpolator(float* state, float new_value, size_t size) {
 331              		.loc 5 39 3 is_stmt 1 view .LVU85
 332              	.LBE151:
 333              	.LBE150:
 334              	.LBE149:
 335              	.LBE148:
  40:eurorack/stmlib/dsp/parameter_interpolator.h ****     Init(state, new_value, size);
 336              		.loc 5 40 5 view .LVU86
 337              	.LBB218:
 338              	.LBB213:
 339              	.LBB208:
 340              	.LBB160:
 341              	.LBB152:
 342              	.LBI152:
  41:eurorack/stmlib/dsp/parameter_interpolator.h ****   }
ARM GAS  /var/folders/9s/8rp0_f2s1n31qbztm3b5_fdh0000gn/T//ccUUhLUh.s 			page 20


  42:eurorack/stmlib/dsp/parameter_interpolator.h **** 
  43:eurorack/stmlib/dsp/parameter_interpolator.h ****   ParameterInterpolator(float* state, float new_value, float step) {
  44:eurorack/stmlib/dsp/parameter_interpolator.h ****     state_ = state;
  45:eurorack/stmlib/dsp/parameter_interpolator.h ****     value_ = *state;
  46:eurorack/stmlib/dsp/parameter_interpolator.h ****     increment_ = (new_value - *state) * step;
  47:eurorack/stmlib/dsp/parameter_interpolator.h ****   }
  48:eurorack/stmlib/dsp/parameter_interpolator.h **** 
  49:eurorack/stmlib/dsp/parameter_interpolator.h ****   ~ParameterInterpolator() {
  50:eurorack/stmlib/dsp/parameter_interpolator.h ****     *state_ = value_;
  51:eurorack/stmlib/dsp/parameter_interpolator.h ****   }
  52:eurorack/stmlib/dsp/parameter_interpolator.h ****   
  53:eurorack/stmlib/dsp/parameter_interpolator.h ****   inline void Init(float* state, float new_value, size_t size) {
 343              		.loc 5 53 15 view .LVU87
 344              	.LBB153:
  54:eurorack/stmlib/dsp/parameter_interpolator.h ****     state_ = state;
 345              		.loc 5 54 5 view .LVU88
  55:eurorack/stmlib/dsp/parameter_interpolator.h ****     value_ = *state;
 346              		.loc 5 55 5 view .LVU89
 347              		.loc 5 55 14 is_stmt 0 view .LVU90
 348 0076 94ED057A 		vldr.32	s14, [r4, #20]
 349              	.LVL18:
  56:eurorack/stmlib/dsp/parameter_interpolator.h ****     increment_ = (new_value - *state) / static_cast<float>(size);
 350              		.loc 5 56 5 is_stmt 1 view .LVU91
 351              		.loc 5 56 41 is_stmt 0 view .LVU92
 352 007a 06EE900A 		vmov	s13, r0	@ int
 353              	.LBE153:
 354              	.LBE152:
 355              	.LBE160:
 356              	.LBB161:
 357              	.LBB162:
 358              	.LBB163:
  55:eurorack/stmlib/dsp/parameter_interpolator.h ****     value_ = *state;
 359              		.loc 5 55 14 view .LVU93
 360 007e 94ED065A 		vldr.32	s10, [r4, #24]
 361              	.LBE163:
 362              	.LBE162:
 363              	.LBE161:
 364              	.LBE208:
 365              	.LBE213:
 366              	.LBE218:
 367              	.LBB219:
 368              	.LBB146:
 369              		.loc 4 235 15 view .LVU94
 370 0082 0246     		mov	r2, r0
 371              	.LBE146:
 372              	.LBE219:
 373              	.LBB220:
 374              	.LBB214:
 375              	.LBB209:
 376              	.LBB168:
 377              	.LBB157:
 378              	.LBB154:
 379              		.loc 5 56 41 view .LVU95
 380 0084 F8EE666A 		vcvt.f32.u32	s13, s13
 381              	.LBE154:
 382              	.LBE157:
 383              	.LBE168:
ARM GAS  /var/folders/9s/8rp0_f2s1n31qbztm3b5_fdh0000gn/T//ccUUhLUh.s 			page 21


 103:eurorack/plaits/dsp/oscillator/oscillator.h ****     }
 104:eurorack/plaits/dsp/oscillator/oscillator.h ****     
 105:eurorack/plaits/dsp/oscillator/oscillator.h ****     stmlib::ParameterInterpolator fm(&frequency_, frequency, size);
 106:eurorack/plaits/dsp/oscillator/oscillator.h ****     stmlib::ParameterInterpolator pwm(&pw_, pw, size);
 107:eurorack/plaits/dsp/oscillator/oscillator.h ****   
 108:eurorack/plaits/dsp/oscillator/oscillator.h ****     float next_sample = next_sample_;
 384              		.loc 3 108 11 view .LVU96
 385 0088 2946     		mov	r1, r5
 386              	.LVL19:
 387              	.LBB169:
 388              	.LBB158:
 389              	.LBB155:
 390              		.loc 5 56 29 view .LVU97
 391 008a 30EE470A 		vsub.f32	s0, s0, s14
 392              	.LVL20:
 393              		.loc 5 56 29 view .LVU98
 394              	.LBE155:
 395              	.LBE158:
 396              	.LBE169:
 397              	.LBB170:
 398              	.LBB166:
 399              	.LBB164:
 400 008e 77EEC57A 		vsub.f32	s15, s15, s10
 401              	.LVL21:
 402              		.loc 5 56 29 view .LVU99
 403              	.LBE164:
 404              	.LBE166:
 405              	.LBE170:
 406              	.LBB171:
 407              	.LBB159:
 408              	.LBB156:
 409              		.loc 5 56 39 view .LVU100
 410 0092 80EE263A 		vdiv.f32	s6, s0, s13
 411              	.LVL22:
 412              		.loc 5 56 39 view .LVU101
 413              	.LBE156:
 414              	.LBE159:
 415              	.LBE171:
 416              	.LBB172:
 417              	.LBI161:
  39:eurorack/stmlib/dsp/parameter_interpolator.h ****     Init(state, new_value, size);
 418              		.loc 5 39 3 is_stmt 1 view .LVU102
 419              	.LBE172:
 420              	.LBE209:
 421              	.LBE214:
 422              	.LBE220:
  40:eurorack/stmlib/dsp/parameter_interpolator.h ****   }
 423              		.loc 5 40 5 view .LVU103
 424              	.LBB221:
 425              	.LBB215:
 426              	.LBB210:
 427              	.LBB173:
 428              	.LBB167:
 429              	.LBI162:
  53:eurorack/stmlib/dsp/parameter_interpolator.h ****     state_ = state;
 430              		.loc 5 53 15 view .LVU104
 431              	.LBB165:
ARM GAS  /var/folders/9s/8rp0_f2s1n31qbztm3b5_fdh0000gn/T//ccUUhLUh.s 			page 22


  54:eurorack/stmlib/dsp/parameter_interpolator.h ****     value_ = *state;
 432              		.loc 5 54 5 view .LVU105
  55:eurorack/stmlib/dsp/parameter_interpolator.h ****     increment_ = (new_value - *state) / static_cast<float>(size);
 433              		.loc 5 55 5 view .LVU106
 434              		.loc 5 56 5 view .LVU107
 435              		.loc 5 56 39 is_stmt 0 view .LVU108
 436 0096 C7EEA63A 		vdiv.f32	s7, s15, s13
 437              	.LVL23:
 438              		.loc 5 56 39 view .LVU109
 439              	.LBE165:
 440              	.LBE167:
 441              	.LBE173:
 442              		.loc 3 108 11 view .LVU110
 443 009a D4ED016A 		vldr.32	s13, [r4, #4]
 444              	.LVL24:
 445              	.L19:
 109:eurorack/plaits/dsp/oscillator/oscillator.h ****   
 110:eurorack/plaits/dsp/oscillator/oscillator.h ****     while (size--) {
 446              		.loc 3 110 5 is_stmt 1 view .LVU111
 447 009e 013A     		subs	r2, r2, #1
 448              	.LVL25:
 449              		.loc 3 110 5 is_stmt 0 view .LVU112
 450 00a0 43D3     		bcc	.L16
 451              	.LVL26:
 452              	.LBB174:
 453              	.LBB175:
 454              	.LBI175:
  57:eurorack/stmlib/dsp/parameter_interpolator.h ****   }
  58:eurorack/stmlib/dsp/parameter_interpolator.h **** 
  59:eurorack/stmlib/dsp/parameter_interpolator.h ****   inline float Next() {
 455              		.loc 5 59 16 is_stmt 1 view .LVU113
 456              	.LBB176:
  60:eurorack/stmlib/dsp/parameter_interpolator.h ****     value_ += increment_;
 457              		.loc 5 60 5 view .LVU114
 458              	.LBE176:
 459              	.LBE175:
 111:eurorack/plaits/dsp/oscillator/oscillator.h ****       float this_sample = next_sample;
 112:eurorack/plaits/dsp/oscillator/oscillator.h ****       next_sample = 0.0f;
 113:eurorack/plaits/dsp/oscillator/oscillator.h **** 
 114:eurorack/plaits/dsp/oscillator/oscillator.h ****       float frequency = fm.Next();
 115:eurorack/plaits/dsp/oscillator/oscillator.h ****       if (has_external_fm) {
 116:eurorack/plaits/dsp/oscillator/oscillator.h ****         frequency *= (1.0f + *external_fm++);
 117:eurorack/plaits/dsp/oscillator/oscillator.h ****         if (!through_zero_fm) {
 118:eurorack/plaits/dsp/oscillator/oscillator.h ****           CONSTRAIN(frequency, kMinFrequency, kMaxFrequency);
 119:eurorack/plaits/dsp/oscillator/oscillator.h ****         } else {
 120:eurorack/plaits/dsp/oscillator/oscillator.h ****           CONSTRAIN(frequency, -kMaxFrequency, kMaxFrequency);
 121:eurorack/plaits/dsp/oscillator/oscillator.h ****         }
 122:eurorack/plaits/dsp/oscillator/oscillator.h ****       }
 123:eurorack/plaits/dsp/oscillator/oscillator.h ****       float pw = (shape == OSCILLATOR_SHAPE_SQUARE_TRIANGLE ||
 124:eurorack/plaits/dsp/oscillator/oscillator.h ****                   shape == OSCILLATOR_SHAPE_TRIANGLE) ? 0.5f : pwm.Next();
 125:eurorack/plaits/dsp/oscillator/oscillator.h ****       if (has_external_fm) {
 126:eurorack/plaits/dsp/oscillator/oscillator.h ****         CONSTRAIN(pw, fabsf(frequency) * 2.0f, 1.0f - 2.0f * fabsf(frequency))
 127:eurorack/plaits/dsp/oscillator/oscillator.h ****       }
 128:eurorack/plaits/dsp/oscillator/oscillator.h ****       phase_ += frequency;
 460              		.loc 3 128 14 is_stmt 0 view .LVU115
 461 00a2 D4ED007A 		vldr.32	s15, [r4]
 462              	.LBB178:
ARM GAS  /var/folders/9s/8rp0_f2s1n31qbztm3b5_fdh0000gn/T//ccUUhLUh.s 			page 23


 463              	.LBB177:
 464              		.loc 5 60 12 view .LVU116
 465 00a6 37EE037A 		vadd.f32	s14, s14, s6
 466              	.LVL27:
  61:eurorack/stmlib/dsp/parameter_interpolator.h ****     return value_;
 467              		.loc 5 61 5 is_stmt 1 view .LVU117
 468              		.loc 5 61 5 is_stmt 0 view .LVU118
 469              	.LBE177:
 470              	.LBE178:
 471              	.LBB179:
 472              	.LBI179:
  59:eurorack/stmlib/dsp/parameter_interpolator.h ****     value_ += increment_;
 473              		.loc 5 59 16 is_stmt 1 view .LVU119
 474              	.LBB180:
  60:eurorack/stmlib/dsp/parameter_interpolator.h ****     return value_;
 475              		.loc 5 60 5 view .LVU120
 476 00aa DFEDB85A 		vldr.32	s11, .L48+4
 477              	.LBE180:
 478              	.LBE179:
 479              	.LBB182:
 480              	.LBB183:
 129:eurorack/plaits/dsp/oscillator/oscillator.h ****       
 130:eurorack/plaits/dsp/oscillator/oscillator.h ****       if (shape <= OSCILLATOR_SHAPE_SAW) {
 131:eurorack/plaits/dsp/oscillator/oscillator.h ****         if (phase_ >= 1.0f) {
 481              		.loc 3 131 9 is_stmt 0 view .LVU121
 482 00ae B7EE006A 		vmov.f32	s12, #1.0e+0
 483              	.LBE183:
 484              	.LBE182:
 485              	.LBB195:
 486              	.LBB181:
  60:eurorack/stmlib/dsp/parameter_interpolator.h ****     return value_;
 487              		.loc 5 60 12 view .LVU122
 488 00b2 35EE235A 		vadd.f32	s10, s10, s7
 489              	.LVL28:
 490              		.loc 5 61 5 is_stmt 1 view .LVU123
 491              		.loc 5 61 5 is_stmt 0 view .LVU124
 492              	.LBE181:
 493              	.LBE195:
 128:eurorack/plaits/dsp/oscillator/oscillator.h ****       
 494              		.loc 3 128 14 view .LVU125
 495 00b6 77EE277A 		vadd.f32	s15, s14, s15
 496              	.LBB196:
 497              	.LBB193:
 498              		.loc 3 131 9 view .LVU126
 499 00ba F4EEC67A 		vcmpe.f32	s15, s12
 500 00be F1EE10FA 		vmrs	APSR_nzcv, FPSCR
 501 00c2 1FDA     		bge	.L17
 502              	.LBE193:
 503              	.LBE196:
 128:eurorack/plaits/dsp/oscillator/oscillator.h ****       
 504              		.loc 3 128 14 view .LVU127
 505 00c4 C4ED007A 		vstr.32	s15, [r4]
 506              	.LVL29:
 507              	.L18:
 508              	.LBB197:
 132:eurorack/plaits/dsp/oscillator/oscillator.h ****           phase_ -= 1.0f;
 133:eurorack/plaits/dsp/oscillator/oscillator.h ****           float t = phase_ / frequency;
ARM GAS  /var/folders/9s/8rp0_f2s1n31qbztm3b5_fdh0000gn/T//ccUUhLUh.s 			page 24


 134:eurorack/plaits/dsp/oscillator/oscillator.h ****           this_sample -= stmlib::ThisBlepSample(t);
 135:eurorack/plaits/dsp/oscillator/oscillator.h ****           next_sample -= stmlib::NextBlepSample(t);
 136:eurorack/plaits/dsp/oscillator/oscillator.h ****         } else if (through_zero_fm && phase_ < 0.0f) {
 137:eurorack/plaits/dsp/oscillator/oscillator.h ****           float t = phase_ / frequency;
 138:eurorack/plaits/dsp/oscillator/oscillator.h ****           phase_ += 1.0f;
 139:eurorack/plaits/dsp/oscillator/oscillator.h ****           this_sample += stmlib::ThisBlepSample(t);
 140:eurorack/plaits/dsp/oscillator/oscillator.h ****           next_sample += stmlib::NextBlepSample(t);
 141:eurorack/plaits/dsp/oscillator/oscillator.h ****         }
 142:eurorack/plaits/dsp/oscillator/oscillator.h ****         next_sample += phase_;
 143:eurorack/plaits/dsp/oscillator/oscillator.h **** 
 144:eurorack/plaits/dsp/oscillator/oscillator.h ****         if (shape == OSCILLATOR_SHAPE_SAW) {
 145:eurorack/plaits/dsp/oscillator/oscillator.h ****           *out++ = 2.0f * this_sample - 1.0f;
 146:eurorack/plaits/dsp/oscillator/oscillator.h ****         } else {
 147:eurorack/plaits/dsp/oscillator/oscillator.h ****           lp_state_ += 0.25f * ((hp_state_ - this_sample) - lp_state_);
 509              		.loc 3 147 44 view .LVU128
 510 00c8 94ED036A 		vldr.32	s12, [r4, #12]
 511              		.loc 3 147 21 view .LVU129
 512 00cc B5EE004A 		vmov.f32	s8, #2.5e-1
 513 00d0 D4ED027A 		vldr.32	s15, [r4, #8]
 514              		.loc 3 147 44 view .LVU130
 515 00d4 36EE666A 		vsub.f32	s12, s12, s13
 142:eurorack/plaits/dsp/oscillator/oscillator.h **** 
 516              		.loc 3 142 21 view .LVU131
 517 00d8 D4ED004A 		vldr.32	s9, [r4]
 518              	.LVL30:
 519              		.loc 3 147 59 view .LVU132
 520 00dc 36EE676A 		vsub.f32	s12, s12, s15
 521              		.loc 3 147 21 view .LVU133
 522 00e0 E6EE047A 		vfma.f32	s15, s12, s8
 148:eurorack/plaits/dsp/oscillator/oscillator.h ****           *out++ = 4.0f * lp_state_;
 523              		.loc 3 148 25 view .LVU134
 524 00e4 B1EE006A 		vmov.f32	s12, #4.0e+0
 147:eurorack/plaits/dsp/oscillator/oscillator.h ****           *out++ = 4.0f * lp_state_;
 525              		.loc 3 147 21 view .LVU135
 526 00e8 C4ED027A 		vstr.32	s15, [r4, #8]
 527              	.LVL31:
 528              		.loc 3 148 25 view .LVU136
 529 00ec 67EE867A 		vmul.f32	s15, s15, s12
 530              		.loc 3 148 18 view .LVU137
 531 00f0 E1EC017A 		vstmia.32	r1!, {s15}
 532              	.LVL32:
 149:eurorack/plaits/dsp/oscillator/oscillator.h ****           hp_state_ = this_sample;
 533              		.loc 3 149 21 view .LVU138
 534 00f4 C4ED036A 		vstr.32	s13, [r4, #12]
 142:eurorack/plaits/dsp/oscillator/oscillator.h **** 
 535              		.loc 3 142 21 view .LVU139
 536 00f8 75EEA46A 		vadd.f32	s13, s11, s9
 537              	.LVL33:
 142:eurorack/plaits/dsp/oscillator/oscillator.h **** 
 538              		.loc 3 142 21 view .LVU140
 539 00fc CFE7     		b	.L19
 540              	.LVL34:
 541              	.L30:
 142:eurorack/plaits/dsp/oscillator/oscillator.h **** 
 542              		.loc 3 142 21 view .LVU141
 543              	.LBE197:
 544              	.LBE174:
ARM GAS  /var/folders/9s/8rp0_f2s1n31qbztm3b5_fdh0000gn/T//ccUUhLUh.s 			page 25


  98:eurorack/plaits/dsp/oscillator/oscillator.h ****       } else {
 545              		.loc 3 98 9 view .LVU142
 546 00fe B0EE670A 		vmov.f32	s0, s15
 547              	.LVL35:
  98:eurorack/plaits/dsp/oscillator/oscillator.h ****       } else {
 548              		.loc 3 98 9 view .LVU143
 549 0102 A2E7     		b	.L12
 550              	.LVL36:
 551              	.L17:
 552              	.LBB199:
 553              	.LBB198:
 554              	.LBB194:
 555              	.LBB184:
 132:eurorack/plaits/dsp/oscillator/oscillator.h ****           float t = phase_ / frequency;
 556              		.loc 3 132 18 view .LVU144
 557 0104 77EEC67A 		vsub.f32	s15, s15, s12
 133:eurorack/plaits/dsp/oscillator/oscillator.h ****           this_sample -= stmlib::ThisBlepSample(t);
 558              		.loc 3 133 17 view .LVU145
 559 0108 C7EE874A 		vdiv.f32	s9, s15, s14
 560              	.LVL37:
 561              	.LBB185:
 562              	.LBI185:
 563              		.file 6 "eurorack/stmlib/dsp/polyblep.h"
   1:eurorack/stmlib/dsp/polyblep.h **** // Copyright 2017 Emilie Gillet.
   2:eurorack/stmlib/dsp/polyblep.h **** //
   3:eurorack/stmlib/dsp/polyblep.h **** // Author: Emilie Gillet (emilie.o.gillet@gmail.com)
   4:eurorack/stmlib/dsp/polyblep.h **** //
   5:eurorack/stmlib/dsp/polyblep.h **** // Permission is hereby granted, free of charge, to any person obtaining a copy
   6:eurorack/stmlib/dsp/polyblep.h **** // of this software and associated documentation files (the "Software"), to deal
   7:eurorack/stmlib/dsp/polyblep.h **** // in the Software without restriction, including without limitation the rights
   8:eurorack/stmlib/dsp/polyblep.h **** // to use, copy, modify, merge, publish, distribute, sublicense, and/or sell
   9:eurorack/stmlib/dsp/polyblep.h **** // copies of the Software, and to permit persons to whom the Software is
  10:eurorack/stmlib/dsp/polyblep.h **** // furnished to do so, subject to the following conditions:
  11:eurorack/stmlib/dsp/polyblep.h **** // 
  12:eurorack/stmlib/dsp/polyblep.h **** // The above copyright notice and this permission notice shall be included in
  13:eurorack/stmlib/dsp/polyblep.h **** // all copies or substantial portions of the Software.
  14:eurorack/stmlib/dsp/polyblep.h **** // 
  15:eurorack/stmlib/dsp/polyblep.h **** // THE SOFTWARE IS PROVIDED "AS IS", WITHOUT WARRANTY OF ANY KIND, EXPRESS OR
  16:eurorack/stmlib/dsp/polyblep.h **** // IMPLIED, INCLUDING BUT NOT LIMITED TO THE WARRANTIES OF MERCHANTABILITY,
  17:eurorack/stmlib/dsp/polyblep.h **** // FITNESS FOR A PARTICULAR PURPOSE AND NONINFRINGEMENT. IN NO EVENT SHALL THE
  18:eurorack/stmlib/dsp/polyblep.h **** // AUTHORS OR COPYRIGHT HOLDERS BE LIABLE FOR ANY CLAIM, DAMAGES OR OTHER
  19:eurorack/stmlib/dsp/polyblep.h **** // LIABILITY, WHETHER IN AN ACTION OF CONTRACT, TORT OR OTHERWISE, ARISING FROM,
  20:eurorack/stmlib/dsp/polyblep.h **** // OUT OF OR IN CONNECTION WITH THE SOFTWARE OR THE USE OR OTHER DEALINGS IN
  21:eurorack/stmlib/dsp/polyblep.h **** // THE SOFTWARE.
  22:eurorack/stmlib/dsp/polyblep.h **** // 
  23:eurorack/stmlib/dsp/polyblep.h **** // See http://creativecommons.org/licenses/MIT/ for more information.
  24:eurorack/stmlib/dsp/polyblep.h **** //
  25:eurorack/stmlib/dsp/polyblep.h **** // -----------------------------------------------------------------------------
  26:eurorack/stmlib/dsp/polyblep.h **** //
  27:eurorack/stmlib/dsp/polyblep.h **** // Polynomial approximation of band-limited step for band-limited waveform
  28:eurorack/stmlib/dsp/polyblep.h **** // synthesis.
  29:eurorack/stmlib/dsp/polyblep.h **** 
  30:eurorack/stmlib/dsp/polyblep.h **** #ifndef STMLIB_DSP_POLYBLEP_H_
  31:eurorack/stmlib/dsp/polyblep.h **** #define STMLIB_DSP_POLYBLEP_H_
  32:eurorack/stmlib/dsp/polyblep.h **** 
  33:eurorack/stmlib/dsp/polyblep.h **** #include "stmlib/stmlib.h"
  34:eurorack/stmlib/dsp/polyblep.h **** 
ARM GAS  /var/folders/9s/8rp0_f2s1n31qbztm3b5_fdh0000gn/T//ccUUhLUh.s 			page 26


  35:eurorack/stmlib/dsp/polyblep.h **** namespace stmlib {
  36:eurorack/stmlib/dsp/polyblep.h **** 
  37:eurorack/stmlib/dsp/polyblep.h **** inline float ThisBlepSample(float t) {
 564              		.loc 6 37 14 is_stmt 1 view .LVU146
 565              	.LBB186:
  38:eurorack/stmlib/dsp/polyblep.h ****   return 0.5f * t * t;
 566              		.loc 6 38 3 view .LVU147
 567              		.loc 6 38 3 is_stmt 0 view .LVU148
 568              	.LBE186:
 569              	.LBE185:
 132:eurorack/plaits/dsp/oscillator/oscillator.h ****           float t = phase_ / frequency;
 570              		.loc 3 132 18 view .LVU149
 571 010c C4ED007A 		vstr.32	s15, [r4]
 572              	.LBB188:
 573              	.LBB187:
 574              		.loc 6 38 15 view .LVU150
 575 0110 64EEA87A 		vmul.f32	s15, s9, s17
 576              	.LBE187:
 577              	.LBE188:
 578              	.LBB189:
 579              	.LBB190:
  39:eurorack/stmlib/dsp/polyblep.h **** }
  40:eurorack/stmlib/dsp/polyblep.h **** 
  41:eurorack/stmlib/dsp/polyblep.h **** inline float NextBlepSample(float t) {
  42:eurorack/stmlib/dsp/polyblep.h ****   t = 1.0f - t;
 580              		.loc 6 42 5 view .LVU151
 581 0114 36EE646A 		vsub.f32	s12, s12, s9
 582              	.LBE190:
 583              	.LBE189:
 134:eurorack/plaits/dsp/oscillator/oscillator.h ****           next_sample -= stmlib::NextBlepSample(t);
 584              		.loc 3 134 23 view .LVU152
 585 0118 E4EEE76A 		vfms.f32	s13, s9, s15
 586              	.LVL38:
 587              	.LBB192:
 588              	.LBI189:
  41:eurorack/stmlib/dsp/polyblep.h ****   t = 1.0f - t;
 589              		.loc 6 41 14 is_stmt 1 view .LVU153
 590              	.LBB191:
 591              		.loc 6 42 3 view .LVU154
  43:eurorack/stmlib/dsp/polyblep.h ****   return -0.5f * t * t;
 592              		.loc 6 43 3 view .LVU155
 593              		.loc 6 43 16 is_stmt 0 view .LVU156
 594 011c FEEE007A 		vmov.f32	s15, #-5.0e-1
 595 0120 66EE277A 		vmul.f32	s15, s12, s15
 596              	.LBE191:
 597              	.LBE192:
 135:eurorack/plaits/dsp/oscillator/oscillator.h ****         } else if (through_zero_fm && phase_ < 0.0f) {
 598              		.loc 3 135 23 view .LVU157
 599 0124 E6EE675A 		vfms.f32	s11, s12, s15
 600              	.LVL39:
 135:eurorack/plaits/dsp/oscillator/oscillator.h ****         } else if (through_zero_fm && phase_ < 0.0f) {
 601              		.loc 3 135 23 view .LVU158
 602              	.LBE184:
 603 0128 CEE7     		b	.L18
 604              	.LVL40:
 605              	.L16:
 135:eurorack/plaits/dsp/oscillator/oscillator.h ****         } else if (through_zero_fm && phase_ < 0.0f) {
ARM GAS  /var/folders/9s/8rp0_f2s1n31qbztm3b5_fdh0000gn/T//ccUUhLUh.s 			page 27


 606              		.loc 3 135 23 view .LVU159
 607              	.LBE194:
 608              	.LBE198:
 609              	.LBE199:
 150:eurorack/plaits/dsp/oscillator/oscillator.h ****         }
 151:eurorack/plaits/dsp/oscillator/oscillator.h ****       } else if (shape <= OSCILLATOR_SHAPE_SLOPE) {
 152:eurorack/plaits/dsp/oscillator/oscillator.h ****         float slope_up = 2.0f;
 153:eurorack/plaits/dsp/oscillator/oscillator.h ****         float slope_down = 2.0f;
 154:eurorack/plaits/dsp/oscillator/oscillator.h ****         if (shape == OSCILLATOR_SHAPE_SLOPE) {
 155:eurorack/plaits/dsp/oscillator/oscillator.h ****           slope_up = 1.0f / (pw);
 156:eurorack/plaits/dsp/oscillator/oscillator.h ****           slope_down = 1.0f / (1.0f - pw);
 157:eurorack/plaits/dsp/oscillator/oscillator.h ****         }
 158:eurorack/plaits/dsp/oscillator/oscillator.h ****         if (high_ ^ (phase_ < pw)) {
 159:eurorack/plaits/dsp/oscillator/oscillator.h ****           float t = (phase_ - pw) / frequency;
 160:eurorack/plaits/dsp/oscillator/oscillator.h ****           float discontinuity = (slope_up + slope_down) * frequency;
 161:eurorack/plaits/dsp/oscillator/oscillator.h ****           if (through_zero_fm && frequency < 0.0f) {
 162:eurorack/plaits/dsp/oscillator/oscillator.h ****             discontinuity = -discontinuity;
 163:eurorack/plaits/dsp/oscillator/oscillator.h ****           }
 164:eurorack/plaits/dsp/oscillator/oscillator.h ****           this_sample -= stmlib::ThisIntegratedBlepSample(t) * discontinuity;
 165:eurorack/plaits/dsp/oscillator/oscillator.h ****           next_sample -= stmlib::NextIntegratedBlepSample(t) * discontinuity;
 166:eurorack/plaits/dsp/oscillator/oscillator.h ****           high_ = phase_ < pw;
 167:eurorack/plaits/dsp/oscillator/oscillator.h ****         }
 168:eurorack/plaits/dsp/oscillator/oscillator.h ****         if (phase_ >= 1.0f) {
 169:eurorack/plaits/dsp/oscillator/oscillator.h ****           phase_ -= 1.0f;
 170:eurorack/plaits/dsp/oscillator/oscillator.h ****           float t = phase_ / frequency;
 171:eurorack/plaits/dsp/oscillator/oscillator.h ****           float discontinuity = (slope_up + slope_down) * frequency;
 172:eurorack/plaits/dsp/oscillator/oscillator.h ****           this_sample += stmlib::ThisIntegratedBlepSample(t) * discontinuity;
 173:eurorack/plaits/dsp/oscillator/oscillator.h ****           next_sample += stmlib::NextIntegratedBlepSample(t) * discontinuity;
 174:eurorack/plaits/dsp/oscillator/oscillator.h ****           high_ = true;
 175:eurorack/plaits/dsp/oscillator/oscillator.h ****         } else if (through_zero_fm && phase_ < 0.0f) {
 176:eurorack/plaits/dsp/oscillator/oscillator.h ****           float t = phase_ / frequency;
 177:eurorack/plaits/dsp/oscillator/oscillator.h ****           phase_ += 1.0f;
 178:eurorack/plaits/dsp/oscillator/oscillator.h ****           float discontinuity = (slope_up + slope_down) * frequency;
 179:eurorack/plaits/dsp/oscillator/oscillator.h ****           this_sample -= stmlib::ThisIntegratedBlepSample(t) * discontinuity;
 180:eurorack/plaits/dsp/oscillator/oscillator.h ****           next_sample -= stmlib::NextIntegratedBlepSample(t) * discontinuity;
 181:eurorack/plaits/dsp/oscillator/oscillator.h ****           high_ = false;
 182:eurorack/plaits/dsp/oscillator/oscillator.h ****         }
 183:eurorack/plaits/dsp/oscillator/oscillator.h ****         next_sample += high_
 184:eurorack/plaits/dsp/oscillator/oscillator.h ****           ? phase_ * slope_up
 185:eurorack/plaits/dsp/oscillator/oscillator.h ****           : 1.0f - (phase_ - pw) * slope_down;
 186:eurorack/plaits/dsp/oscillator/oscillator.h ****         *out++ = 2.0f * this_sample - 1.0f;
 187:eurorack/plaits/dsp/oscillator/oscillator.h ****       } else {
 188:eurorack/plaits/dsp/oscillator/oscillator.h ****         if (high_ ^ (phase_ >= pw)) {
 189:eurorack/plaits/dsp/oscillator/oscillator.h ****           float t = (phase_ - pw) / frequency;
 190:eurorack/plaits/dsp/oscillator/oscillator.h ****           float discontinuity = 1.0f;
 191:eurorack/plaits/dsp/oscillator/oscillator.h ****           if (through_zero_fm && frequency < 0.0f) {
 192:eurorack/plaits/dsp/oscillator/oscillator.h ****             discontinuity = -discontinuity;
 193:eurorack/plaits/dsp/oscillator/oscillator.h ****           }
 194:eurorack/plaits/dsp/oscillator/oscillator.h ****           this_sample += stmlib::ThisBlepSample(t) * discontinuity;
 195:eurorack/plaits/dsp/oscillator/oscillator.h ****           next_sample += stmlib::NextBlepSample(t) * discontinuity;
 196:eurorack/plaits/dsp/oscillator/oscillator.h ****           high_ = phase_ >= pw;
 197:eurorack/plaits/dsp/oscillator/oscillator.h ****         }
 198:eurorack/plaits/dsp/oscillator/oscillator.h ****         if (phase_ >= 1.0f) {
 199:eurorack/plaits/dsp/oscillator/oscillator.h ****           phase_ -= 1.0f;
 200:eurorack/plaits/dsp/oscillator/oscillator.h ****           float t = phase_ / frequency;
 201:eurorack/plaits/dsp/oscillator/oscillator.h ****           this_sample -= stmlib::ThisBlepSample(t);
 202:eurorack/plaits/dsp/oscillator/oscillator.h ****           next_sample -= stmlib::NextBlepSample(t);
ARM GAS  /var/folders/9s/8rp0_f2s1n31qbztm3b5_fdh0000gn/T//ccUUhLUh.s 			page 28


 203:eurorack/plaits/dsp/oscillator/oscillator.h ****           high_ = false;
 204:eurorack/plaits/dsp/oscillator/oscillator.h ****         } else if (through_zero_fm && phase_ < 0.0f) {
 205:eurorack/plaits/dsp/oscillator/oscillator.h ****           float t = phase_ / frequency;
 206:eurorack/plaits/dsp/oscillator/oscillator.h ****           phase_ += 1.0f;
 207:eurorack/plaits/dsp/oscillator/oscillator.h ****           this_sample += stmlib::ThisBlepSample(t);
 208:eurorack/plaits/dsp/oscillator/oscillator.h ****           next_sample += stmlib::NextBlepSample(t);
 209:eurorack/plaits/dsp/oscillator/oscillator.h ****           high_ = true;
 210:eurorack/plaits/dsp/oscillator/oscillator.h ****         }
 211:eurorack/plaits/dsp/oscillator/oscillator.h ****         next_sample += phase_ < pw ? 0.0f : 1.0f;
 212:eurorack/plaits/dsp/oscillator/oscillator.h ****         
 213:eurorack/plaits/dsp/oscillator/oscillator.h ****         if (shape == OSCILLATOR_SHAPE_SQUARE_TRIANGLE) {
 214:eurorack/plaits/dsp/oscillator/oscillator.h ****           const float integrator_coefficient = frequency * 0.0625f;
 215:eurorack/plaits/dsp/oscillator/oscillator.h ****           this_sample = 128.0f * (this_sample - 0.5f);
 216:eurorack/plaits/dsp/oscillator/oscillator.h ****           lp_state_ += integrator_coefficient * (this_sample - lp_state_);
 217:eurorack/plaits/dsp/oscillator/oscillator.h ****           *out++ = lp_state_;
 218:eurorack/plaits/dsp/oscillator/oscillator.h ****         } else if (shape == OSCILLATOR_SHAPE_SQUARE_DARK) {
 219:eurorack/plaits/dsp/oscillator/oscillator.h ****           const float integrator_coefficient = frequency * 2.0f;
 220:eurorack/plaits/dsp/oscillator/oscillator.h ****           this_sample = 4.0f * (this_sample - 0.5f);
 221:eurorack/plaits/dsp/oscillator/oscillator.h ****           lp_state_ += integrator_coefficient * (this_sample - lp_state_);
 222:eurorack/plaits/dsp/oscillator/oscillator.h ****           *out++ = lp_state_;
 223:eurorack/plaits/dsp/oscillator/oscillator.h ****         } else if (shape == OSCILLATOR_SHAPE_SQUARE_BRIGHT) {
 224:eurorack/plaits/dsp/oscillator/oscillator.h ****           const float integrator_coefficient = frequency * 2.0f;
 225:eurorack/plaits/dsp/oscillator/oscillator.h ****           this_sample = 2.0f * this_sample - 1.0f;
 226:eurorack/plaits/dsp/oscillator/oscillator.h ****           lp_state_ += integrator_coefficient * (this_sample - lp_state_);
 227:eurorack/plaits/dsp/oscillator/oscillator.h ****           *out++ = (this_sample - lp_state_) * 0.5f;
 228:eurorack/plaits/dsp/oscillator/oscillator.h ****         } else {
 229:eurorack/plaits/dsp/oscillator/oscillator.h ****           this_sample = 2.0f * this_sample - 1.0f;
 230:eurorack/plaits/dsp/oscillator/oscillator.h ****           *out++ = this_sample;
 231:eurorack/plaits/dsp/oscillator/oscillator.h ****         }
 232:eurorack/plaits/dsp/oscillator/oscillator.h ****       }
 233:eurorack/plaits/dsp/oscillator/oscillator.h ****     }
 234:eurorack/plaits/dsp/oscillator/oscillator.h ****     next_sample_ = next_sample;
 610              		.loc 3 234 18 view .LVU160
 611 012a C4ED016A 		vstr.32	s13, [r4, #4]
 612              	.LVL41:
 613              	.LBB200:
 614              	.LBI200:
  49:eurorack/stmlib/dsp/parameter_interpolator.h ****     *state_ = value_;
 615              		.loc 5 49 3 is_stmt 1 view .LVU161
 616              	.LBB201:
  50:eurorack/stmlib/dsp/parameter_interpolator.h ****   }
 617              		.loc 5 50 5 view .LVU162
 618              	.LBE201:
 619              	.LBE200:
 620              	.LBE210:
 621              	.LBE215:
 622              	.LBE221:
 623              	.LBB222:
 624              	.LBB147:
 625              		.loc 4 235 15 is_stmt 0 view .LVU163
 626 012e 0146     		mov	r1, r0
 627              	.LVL42:
 628              		.loc 4 235 15 view .LVU164
 629              	.LBE147:
 630              	.LBE222:
 631              	.LBB223:
 632              	.LBB216:
ARM GAS  /var/folders/9s/8rp0_f2s1n31qbztm3b5_fdh0000gn/T//ccUUhLUh.s 			page 29


 633              	.LBB211:
 634              	.LBB203:
 635              	.LBB204:
  50:eurorack/stmlib/dsp/parameter_interpolator.h ****   }
 636              		.loc 5 50 13 view .LVU165
 637 0130 84ED057A 		vstr.32	s14, [r4, #20]
 638              	.LBE204:
 639              	.LBE203:
 640              	.LBE211:
 641              	.LBE216:
 642              	.LBE223:
 643              	.LBB224:
 644              	.LBB225:
 227:eurorack/stmlib/dsp/filter.h ****   }
 228:eurorack/stmlib/dsp/filter.h ****   
 229:eurorack/stmlib/dsp/filter.h ****   template<FilterMode mode>
 230:eurorack/stmlib/dsp/filter.h ****   inline float Process(float in) {
 231:eurorack/stmlib/dsp/filter.h ****     float hp, bp, lp;
 232:eurorack/stmlib/dsp/filter.h ****     hp = (in - r_ * state_1_ - g_ * state_1_ - state_2_) * h_;
 233:eurorack/stmlib/dsp/filter.h ****     bp = g_ * hp + state_1_;
 234:eurorack/stmlib/dsp/filter.h ****     state_1_ = g_ * hp + bp;
 235:eurorack/stmlib/dsp/filter.h ****     lp = g_ * bp + state_2_;
 236:eurorack/stmlib/dsp/filter.h ****     state_2_ = g_ * bp + lp;
 237:eurorack/stmlib/dsp/filter.h ****     
 238:eurorack/stmlib/dsp/filter.h ****     if (mode == FILTER_MODE_LOW_PASS) {
 239:eurorack/stmlib/dsp/filter.h ****       return lp;
 240:eurorack/stmlib/dsp/filter.h ****     } else if (mode == FILTER_MODE_BAND_PASS) {
 241:eurorack/stmlib/dsp/filter.h ****       return bp;
 242:eurorack/stmlib/dsp/filter.h ****     } else if (mode == FILTER_MODE_BAND_PASS_NORMALIZED) {
 243:eurorack/stmlib/dsp/filter.h ****       return bp * r_;
 244:eurorack/stmlib/dsp/filter.h ****     } else if (mode == FILTER_MODE_HIGH_PASS) {
 245:eurorack/stmlib/dsp/filter.h ****       return hp;
 246:eurorack/stmlib/dsp/filter.h ****     }
 247:eurorack/stmlib/dsp/filter.h ****   }
 248:eurorack/stmlib/dsp/filter.h ****   
 249:eurorack/stmlib/dsp/filter.h ****   template<FilterMode mode_1, FilterMode mode_2>
 250:eurorack/stmlib/dsp/filter.h ****   inline void Process(float in, float* out_1, float* out_2) {
 251:eurorack/stmlib/dsp/filter.h ****     float hp, bp, lp;
 252:eurorack/stmlib/dsp/filter.h ****     hp = (in - r_ * state_1_ - g_ * state_1_ - state_2_) * h_;
 253:eurorack/stmlib/dsp/filter.h ****     bp = g_ * hp + state_1_;
 254:eurorack/stmlib/dsp/filter.h ****     state_1_ = g_ * hp + bp;
 255:eurorack/stmlib/dsp/filter.h ****     lp = g_ * bp + state_2_;
 256:eurorack/stmlib/dsp/filter.h ****     state_2_ = g_ * bp + lp;
 257:eurorack/stmlib/dsp/filter.h ****     
 258:eurorack/stmlib/dsp/filter.h ****     if (mode_1 == FILTER_MODE_LOW_PASS) {
 259:eurorack/stmlib/dsp/filter.h ****       *out_1 = lp;
 260:eurorack/stmlib/dsp/filter.h ****     } else if (mode_1 == FILTER_MODE_BAND_PASS) {
 261:eurorack/stmlib/dsp/filter.h ****       *out_1 = bp;
 262:eurorack/stmlib/dsp/filter.h ****     } else if (mode_1 == FILTER_MODE_BAND_PASS_NORMALIZED) {
 263:eurorack/stmlib/dsp/filter.h ****       *out_1 = bp * r_;
 264:eurorack/stmlib/dsp/filter.h ****     } else if (mode_1 == FILTER_MODE_HIGH_PASS) {
 265:eurorack/stmlib/dsp/filter.h ****       *out_1 = hp;
 266:eurorack/stmlib/dsp/filter.h ****     }
 267:eurorack/stmlib/dsp/filter.h **** 
 268:eurorack/stmlib/dsp/filter.h ****     if (mode_2 == FILTER_MODE_LOW_PASS) {
 269:eurorack/stmlib/dsp/filter.h ****       *out_2 = lp;
 270:eurorack/stmlib/dsp/filter.h ****     } else if (mode_2 == FILTER_MODE_BAND_PASS) {
ARM GAS  /var/folders/9s/8rp0_f2s1n31qbztm3b5_fdh0000gn/T//ccUUhLUh.s 			page 30


 271:eurorack/stmlib/dsp/filter.h ****       *out_2 = bp;
 272:eurorack/stmlib/dsp/filter.h ****     } else if (mode_2 == FILTER_MODE_BAND_PASS_NORMALIZED) {
 273:eurorack/stmlib/dsp/filter.h ****       *out_2 = bp * r_;
 274:eurorack/stmlib/dsp/filter.h ****     } else if (mode_2 == FILTER_MODE_HIGH_PASS) {
 275:eurorack/stmlib/dsp/filter.h ****       *out_2 = hp;
 276:eurorack/stmlib/dsp/filter.h ****     }
 277:eurorack/stmlib/dsp/filter.h ****   }
 278:eurorack/stmlib/dsp/filter.h ****   
 279:eurorack/stmlib/dsp/filter.h ****   template<FilterMode mode>
 280:eurorack/stmlib/dsp/filter.h ****   inline void Process(const float* in, float* out, size_t size) {
 281:eurorack/stmlib/dsp/filter.h ****     float hp, bp, lp;
 282:eurorack/stmlib/dsp/filter.h ****     float state_1 = state_1_;
 283:eurorack/stmlib/dsp/filter.h ****     float state_2 = state_2_;
 645              		.loc 1 283 11 view .LVU166
 646 0134 2A46     		mov	r2, r5
 647              	.LVL43:
 282:eurorack/stmlib/dsp/filter.h ****     float state_2 = state_2_;
 648              		.loc 1 282 11 view .LVU167
 649 0136 D4ED256A 		vldr.32	s13, [r4, #148]
 650              	.LVL44:
 651              		.loc 1 283 11 view .LVU168
 652 013a 94ED267A 		vldr.32	s14, [r4, #152]
 653              	.LVL45:
 654              		.loc 1 283 11 view .LVU169
 655              	.LBE225:
 656              	.LBE224:
 657              	.LBB228:
 658              	.LBB217:
 659              	.LBB212:
 660              	.LBB206:
 661              	.LBB202:
  50:eurorack/stmlib/dsp/parameter_interpolator.h ****   }
 662              		.loc 5 50 13 view .LVU170
 663 013e 84ED065A 		vstr.32	s10, [r4, #24]
 664              	.LVL46:
  50:eurorack/stmlib/dsp/parameter_interpolator.h ****   }
 665              		.loc 5 50 13 view .LVU171
 666              	.LBE202:
 667              	.LBE206:
 668              	.LBB207:
 669              	.LBI203:
  49:eurorack/stmlib/dsp/parameter_interpolator.h ****     *state_ = value_;
 670              		.loc 5 49 3 is_stmt 1 view .LVU172
 671              	.LBB205:
  50:eurorack/stmlib/dsp/parameter_interpolator.h ****   }
 672              		.loc 5 50 5 view .LVU173
  50:eurorack/stmlib/dsp/parameter_interpolator.h ****   }
 673              		.loc 5 50 5 is_stmt 0 view .LVU174
 674              	.LBE205:
 675              	.LBE207:
 676              	.LBE212:
 677              	.LBE217:
 678              	.LBE228:
 116:eurorack/plaits/dsp/speech/naive_speech_synth.cc ****       frequency, 0.5f, excitation, size);
 117:eurorack/plaits/dsp/speech/naive_speech_synth.cc ****   pulse_coloration_.Process<FILTER_MODE_BAND_PASS>(
 679              		.loc 2 117 3 is_stmt 1 view .LVU175
 680              	.LBB229:
ARM GAS  /var/folders/9s/8rp0_f2s1n31qbztm3b5_fdh0000gn/T//ccUUhLUh.s 			page 31


 681              	.LBI224:
 280:eurorack/stmlib/dsp/filter.h ****     float hp, bp, lp;
 682              		.loc 1 280 15 view .LVU176
 683              	.L21:
 684              	.LBB227:
 284:eurorack/stmlib/dsp/filter.h ****     
 285:eurorack/stmlib/dsp/filter.h ****     while (size--) {
 685              		.loc 1 285 5 view .LVU177
 686 0142 0139     		subs	r1, r1, #1
 687              	.LVL47:
 688              		.loc 1 285 5 is_stmt 0 view .LVU178
 689 0144 1CD3     		bcc	.L20
 690              	.LBB226:
 286:eurorack/stmlib/dsp/filter.h ****       hp = (*in - r_ * state_1 - g_ * state_1 - state_2) * h_;
 691              		.loc 1 286 17 view .LVU179
 692 0146 94ED236A 		vldr.32	s12, [r4, #140]
 693 014a D2ED007A 		vldr.32	s15, [r2]
 694              		.loc 1 286 10 view .LVU180
 695 014e D4ED245A 		vldr.32	s11, [r4, #144]
 696              		.loc 1 286 17 view .LVU181
 697 0152 E6EE667A 		vfms.f32	s15, s12, s13
 698              		.loc 1 286 34 view .LVU182
 699 0156 94ED226A 		vldr.32	s12, [r4, #136]
 700              		.loc 1 286 32 view .LVU183
 701 015a E6EEC67A 		vfms.f32	s15, s13, s12
 702              		.loc 1 286 47 view .LVU184
 703 015e 77EEC77A 		vsub.f32	s15, s15, s14
 704              		.loc 1 286 10 view .LVU185
 705 0162 67EEA57A 		vmul.f32	s15, s15, s11
 706              	.LVL48:
 287:eurorack/stmlib/dsp/filter.h ****       bp = g_ * hp + state_1;
 707              		.loc 1 287 10 view .LVU186
 708 0166 E6EE276A 		vfma.f32	s13, s12, s15
 709              	.LVL49:
 710              		.loc 1 287 10 view .LVU187
 711 016a F0EE665A 		vmov.f32	s11, s13
 712              	.LVL50:
 288:eurorack/stmlib/dsp/filter.h ****       state_1 = g_ * hp + bp;
 713              		.loc 1 288 15 view .LVU188
 714 016e E6EE276A 		vfma.f32	s13, s12, s15
 715              	.LVL51:
 289:eurorack/stmlib/dsp/filter.h ****       lp = g_ * bp + state_2;
 716              		.loc 1 289 10 view .LVU189
 717 0172 A6EE257A 		vfma.f32	s14, s12, s11
 718              	.LVL52:
 290:eurorack/stmlib/dsp/filter.h ****       state_2 = g_ * bp + lp;
 291:eurorack/stmlib/dsp/filter.h ****     
 292:eurorack/stmlib/dsp/filter.h ****       float value;
 293:eurorack/stmlib/dsp/filter.h ****       if (mode == FILTER_MODE_LOW_PASS) {
 294:eurorack/stmlib/dsp/filter.h ****         value = lp;
 295:eurorack/stmlib/dsp/filter.h ****       } else if (mode == FILTER_MODE_BAND_PASS) {
 296:eurorack/stmlib/dsp/filter.h ****         value = bp;
 297:eurorack/stmlib/dsp/filter.h ****       } else if (mode == FILTER_MODE_BAND_PASS_NORMALIZED) {
 298:eurorack/stmlib/dsp/filter.h ****         value = bp * r_;
 299:eurorack/stmlib/dsp/filter.h ****       } else if (mode == FILTER_MODE_HIGH_PASS) {
 300:eurorack/stmlib/dsp/filter.h ****         value = hp;
 301:eurorack/stmlib/dsp/filter.h ****       }
ARM GAS  /var/folders/9s/8rp0_f2s1n31qbztm3b5_fdh0000gn/T//ccUUhLUh.s 			page 32


 302:eurorack/stmlib/dsp/filter.h ****       
 303:eurorack/stmlib/dsp/filter.h ****       *out = value;
 719              		.loc 1 303 12 view .LVU190
 720 0176 E2EC015A 		vstmia.32	r2!, {s11}
 721              	.LVL53:
 290:eurorack/stmlib/dsp/filter.h ****       state_2 = g_ * bp + lp;
 722              		.loc 1 290 15 view .LVU191
 723 017a A6EE257A 		vfma.f32	s14, s12, s11
 724              	.LVL54:
 290:eurorack/stmlib/dsp/filter.h ****       state_2 = g_ * bp + lp;
 725              		.loc 1 290 15 view .LVU192
 726              	.LBE226:
 285:eurorack/stmlib/dsp/filter.h ****       hp = (*in - r_ * state_1 - g_ * state_1 - state_2) * h_;
 727              		.loc 1 285 5 view .LVU193
 728 017e E0E7     		b	.L21
 729              	.LVL55:
 730              	.L20:
 285:eurorack/stmlib/dsp/filter.h ****       hp = (*in - r_ * state_1 - g_ * state_1 - state_2) * h_;
 731              		.loc 1 285 5 view .LVU194
 732 0180 8200     		lsls	r2, r0, #2
 733              	.LVL56:
 304:eurorack/stmlib/dsp/filter.h ****       ++out;
 305:eurorack/stmlib/dsp/filter.h ****       ++in;
 306:eurorack/stmlib/dsp/filter.h ****     }
 307:eurorack/stmlib/dsp/filter.h ****     state_1_ = state_1;
 308:eurorack/stmlib/dsp/filter.h ****     state_2_ = state_2;
 309:eurorack/stmlib/dsp/filter.h ****   }
 734              		.loc 1 309 3 view .LVU195
 735 0182 2946     		mov	r1, r5
 736              	.LVL57:
 737              		.loc 1 309 3 view .LVU196
 738 0184 05EB8000 		add	r0, r5, r0, lsl #2
 307:eurorack/stmlib/dsp/filter.h ****     state_2_ = state_2;
 739              		.loc 1 307 14 view .LVU197
 740 0188 C4ED256A 		vstr.32	s13, [r4, #148]
 308:eurorack/stmlib/dsp/filter.h ****   }
 741              		.loc 1 308 14 view .LVU198
 742 018c 84ED267A 		vstr.32	s14, [r4, #152]
 743              	.LVL58:
 744              	.L23:
 308:eurorack/stmlib/dsp/filter.h ****   }
 745              		.loc 1 308 14 view .LVU199
 746              	.LBE227:
 747              	.LBE229:
 748              	.LBB230:
 118:eurorack/plaits/dsp/speech/naive_speech_synth.cc ****       excitation, excitation, size);
 119:eurorack/plaits/dsp/speech/naive_speech_synth.cc ****   for (size_t i = 0; i < size; ++i) {
 749              		.loc 2 119 24 is_stmt 1 discriminator 3 view .LVU200
 750 0190 8842     		cmp	r0, r1
 751 0192 08D0     		beq	.L22
 120:eurorack/plaits/dsp/speech/naive_speech_synth.cc ****     excitation[i] *= 4.0f;
 752              		.loc 2 120 5 discriminator 2 view .LVU201
 753              		.loc 2 120 19 is_stmt 0 discriminator 2 view .LVU202
 754 0194 B1EE007A 		vmov.f32	s14, #4.0e+0
 755 0198 D1ED007A 		vldr.32	s15, [r1]
 756 019c 67EE877A 		vmul.f32	s15, s15, s14
 757 01a0 E1EC017A 		vstmia.32	r1!, {s15}
ARM GAS  /var/folders/9s/8rp0_f2s1n31qbztm3b5_fdh0000gn/T//ccUUhLUh.s 			page 33


 119:eurorack/plaits/dsp/speech/naive_speech_synth.cc ****     excitation[i] *= 4.0f;
 758              		.loc 2 119 3 is_stmt 1 discriminator 2 view .LVU203
 759 01a4 F4E7     		b	.L23
 760              	.L22:
 761              	.LBE230:
 121:eurorack/plaits/dsp/speech/naive_speech_synth.cc ****   }
 122:eurorack/plaits/dsp/speech/naive_speech_synth.cc ****   
 123:eurorack/plaits/dsp/speech/naive_speech_synth.cc ****   float p = phoneme * (kNaiveSpeechNumPhonemes - 1.001f);
 762              		.loc 2 123 3 view .LVU204
 763              		.loc 2 123 9 is_stmt 0 view .LVU205
 764 01a6 9FED7A8A 		vldr.32	s16, .L48+8
 765              	.LBB231:
 766              	.LBB232:
 767              	.LBB233:
 768              	.LBB234:
 236:/Library/DaisyToolchain/0.2.0/arm/arm-none-eabi/include/c++/10.3.1/bits/stl_algobase.h **** 	return __b;
 237:/Library/DaisyToolchain/0.2.0/arm/arm-none-eabi/include/c++/10.3.1/bits/stl_algobase.h ****       return __a;
 238:/Library/DaisyToolchain/0.2.0/arm/arm-none-eabi/include/c++/10.3.1/bits/stl_algobase.h ****     }
 239:/Library/DaisyToolchain/0.2.0/arm/arm-none-eabi/include/c++/10.3.1/bits/stl_algobase.h **** 
 240:/Library/DaisyToolchain/0.2.0/arm/arm-none-eabi/include/c++/10.3.1/bits/stl_algobase.h ****   /**
 241:/Library/DaisyToolchain/0.2.0/arm/arm-none-eabi/include/c++/10.3.1/bits/stl_algobase.h ****    *  @brief This does what you think it does.
 242:/Library/DaisyToolchain/0.2.0/arm/arm-none-eabi/include/c++/10.3.1/bits/stl_algobase.h ****    *  @ingroup sorting_algorithms
 243:/Library/DaisyToolchain/0.2.0/arm/arm-none-eabi/include/c++/10.3.1/bits/stl_algobase.h ****    *  @param  __a  A thing of arbitrary type.
 244:/Library/DaisyToolchain/0.2.0/arm/arm-none-eabi/include/c++/10.3.1/bits/stl_algobase.h ****    *  @param  __b  Another thing of arbitrary type.
 245:/Library/DaisyToolchain/0.2.0/arm/arm-none-eabi/include/c++/10.3.1/bits/stl_algobase.h ****    *  @return   The greater of the parameters.
 246:/Library/DaisyToolchain/0.2.0/arm/arm-none-eabi/include/c++/10.3.1/bits/stl_algobase.h ****    *
 247:/Library/DaisyToolchain/0.2.0/arm/arm-none-eabi/include/c++/10.3.1/bits/stl_algobase.h ****    *  This is the simple classic generic implementation.  It will work on
 248:/Library/DaisyToolchain/0.2.0/arm/arm-none-eabi/include/c++/10.3.1/bits/stl_algobase.h ****    *  temporary expressions, since they are only evaluated once, unlike a
 249:/Library/DaisyToolchain/0.2.0/arm/arm-none-eabi/include/c++/10.3.1/bits/stl_algobase.h ****    *  preprocessor macro.
 250:/Library/DaisyToolchain/0.2.0/arm/arm-none-eabi/include/c++/10.3.1/bits/stl_algobase.h ****   */
 251:/Library/DaisyToolchain/0.2.0/arm/arm-none-eabi/include/c++/10.3.1/bits/stl_algobase.h ****   template<typename _Tp>
 252:/Library/DaisyToolchain/0.2.0/arm/arm-none-eabi/include/c++/10.3.1/bits/stl_algobase.h ****     _GLIBCXX14_CONSTEXPR
 253:/Library/DaisyToolchain/0.2.0/arm/arm-none-eabi/include/c++/10.3.1/bits/stl_algobase.h ****     inline const _Tp&
 254:/Library/DaisyToolchain/0.2.0/arm/arm-none-eabi/include/c++/10.3.1/bits/stl_algobase.h ****     max(const _Tp& __a, const _Tp& __b)
 255:/Library/DaisyToolchain/0.2.0/arm/arm-none-eabi/include/c++/10.3.1/bits/stl_algobase.h ****     {
 256:/Library/DaisyToolchain/0.2.0/arm/arm-none-eabi/include/c++/10.3.1/bits/stl_algobase.h ****       // concept requirements
 257:/Library/DaisyToolchain/0.2.0/arm/arm-none-eabi/include/c++/10.3.1/bits/stl_algobase.h ****       __glibcxx_function_requires(_LessThanComparableConcept<_Tp>)
 258:/Library/DaisyToolchain/0.2.0/arm/arm-none-eabi/include/c++/10.3.1/bits/stl_algobase.h ****       //return  __a < __b ? __b : __a;
 259:/Library/DaisyToolchain/0.2.0/arm/arm-none-eabi/include/c++/10.3.1/bits/stl_algobase.h ****       if (__a < __b)
 260:/Library/DaisyToolchain/0.2.0/arm/arm-none-eabi/include/c++/10.3.1/bits/stl_algobase.h **** 	return __b;
 261:/Library/DaisyToolchain/0.2.0/arm/arm-none-eabi/include/c++/10.3.1/bits/stl_algobase.h ****       return __a;
 262:/Library/DaisyToolchain/0.2.0/arm/arm-none-eabi/include/c++/10.3.1/bits/stl_algobase.h ****     }
 263:/Library/DaisyToolchain/0.2.0/arm/arm-none-eabi/include/c++/10.3.1/bits/stl_algobase.h **** 
 264:/Library/DaisyToolchain/0.2.0/arm/arm-none-eabi/include/c++/10.3.1/bits/stl_algobase.h ****   /**
 265:/Library/DaisyToolchain/0.2.0/arm/arm-none-eabi/include/c++/10.3.1/bits/stl_algobase.h ****    *  @brief This does what you think it does.
 266:/Library/DaisyToolchain/0.2.0/arm/arm-none-eabi/include/c++/10.3.1/bits/stl_algobase.h ****    *  @ingroup sorting_algorithms
 267:/Library/DaisyToolchain/0.2.0/arm/arm-none-eabi/include/c++/10.3.1/bits/stl_algobase.h ****    *  @param  __a  A thing of arbitrary type.
 268:/Library/DaisyToolchain/0.2.0/arm/arm-none-eabi/include/c++/10.3.1/bits/stl_algobase.h ****    *  @param  __b  Another thing of arbitrary type.
 269:/Library/DaisyToolchain/0.2.0/arm/arm-none-eabi/include/c++/10.3.1/bits/stl_algobase.h ****    *  @param  __comp  A @link comparison_functors comparison functor@endlink.
 270:/Library/DaisyToolchain/0.2.0/arm/arm-none-eabi/include/c++/10.3.1/bits/stl_algobase.h ****    *  @return   The lesser of the parameters.
 271:/Library/DaisyToolchain/0.2.0/arm/arm-none-eabi/include/c++/10.3.1/bits/stl_algobase.h ****    *
 272:/Library/DaisyToolchain/0.2.0/arm/arm-none-eabi/include/c++/10.3.1/bits/stl_algobase.h ****    *  This will work on temporary expressions, since they are only evaluated
 273:/Library/DaisyToolchain/0.2.0/arm/arm-none-eabi/include/c++/10.3.1/bits/stl_algobase.h ****    *  once, unlike a preprocessor macro.
 274:/Library/DaisyToolchain/0.2.0/arm/arm-none-eabi/include/c++/10.3.1/bits/stl_algobase.h ****   */
 275:/Library/DaisyToolchain/0.2.0/arm/arm-none-eabi/include/c++/10.3.1/bits/stl_algobase.h ****   template<typename _Tp, typename _Compare>
 276:/Library/DaisyToolchain/0.2.0/arm/arm-none-eabi/include/c++/10.3.1/bits/stl_algobase.h ****     _GLIBCXX14_CONSTEXPR
 277:/Library/DaisyToolchain/0.2.0/arm/arm-none-eabi/include/c++/10.3.1/bits/stl_algobase.h ****     inline const _Tp&
ARM GAS  /var/folders/9s/8rp0_f2s1n31qbztm3b5_fdh0000gn/T//ccUUhLUh.s 			page 34


 278:/Library/DaisyToolchain/0.2.0/arm/arm-none-eabi/include/c++/10.3.1/bits/stl_algobase.h ****     min(const _Tp& __a, const _Tp& __b, _Compare __comp)
 279:/Library/DaisyToolchain/0.2.0/arm/arm-none-eabi/include/c++/10.3.1/bits/stl_algobase.h ****     {
 280:/Library/DaisyToolchain/0.2.0/arm/arm-none-eabi/include/c++/10.3.1/bits/stl_algobase.h ****       //return __comp(__b, __a) ? __b : __a;
 281:/Library/DaisyToolchain/0.2.0/arm/arm-none-eabi/include/c++/10.3.1/bits/stl_algobase.h ****       if (__comp(__b, __a))
 282:/Library/DaisyToolchain/0.2.0/arm/arm-none-eabi/include/c++/10.3.1/bits/stl_algobase.h **** 	return __b;
 283:/Library/DaisyToolchain/0.2.0/arm/arm-none-eabi/include/c++/10.3.1/bits/stl_algobase.h ****       return __a;
 284:/Library/DaisyToolchain/0.2.0/arm/arm-none-eabi/include/c++/10.3.1/bits/stl_algobase.h ****     }
 285:/Library/DaisyToolchain/0.2.0/arm/arm-none-eabi/include/c++/10.3.1/bits/stl_algobase.h **** 
 286:/Library/DaisyToolchain/0.2.0/arm/arm-none-eabi/include/c++/10.3.1/bits/stl_algobase.h ****   /**
 287:/Library/DaisyToolchain/0.2.0/arm/arm-none-eabi/include/c++/10.3.1/bits/stl_algobase.h ****    *  @brief This does what you think it does.
 288:/Library/DaisyToolchain/0.2.0/arm/arm-none-eabi/include/c++/10.3.1/bits/stl_algobase.h ****    *  @ingroup sorting_algorithms
 289:/Library/DaisyToolchain/0.2.0/arm/arm-none-eabi/include/c++/10.3.1/bits/stl_algobase.h ****    *  @param  __a  A thing of arbitrary type.
 290:/Library/DaisyToolchain/0.2.0/arm/arm-none-eabi/include/c++/10.3.1/bits/stl_algobase.h ****    *  @param  __b  Another thing of arbitrary type.
 291:/Library/DaisyToolchain/0.2.0/arm/arm-none-eabi/include/c++/10.3.1/bits/stl_algobase.h ****    *  @param  __comp  A @link comparison_functors comparison functor@endlink.
 292:/Library/DaisyToolchain/0.2.0/arm/arm-none-eabi/include/c++/10.3.1/bits/stl_algobase.h ****    *  @return   The greater of the parameters.
 293:/Library/DaisyToolchain/0.2.0/arm/arm-none-eabi/include/c++/10.3.1/bits/stl_algobase.h ****    *
 294:/Library/DaisyToolchain/0.2.0/arm/arm-none-eabi/include/c++/10.3.1/bits/stl_algobase.h ****    *  This will work on temporary expressions, since they are only evaluated
 295:/Library/DaisyToolchain/0.2.0/arm/arm-none-eabi/include/c++/10.3.1/bits/stl_algobase.h ****    *  once, unlike a preprocessor macro.
 296:/Library/DaisyToolchain/0.2.0/arm/arm-none-eabi/include/c++/10.3.1/bits/stl_algobase.h ****   */
 297:/Library/DaisyToolchain/0.2.0/arm/arm-none-eabi/include/c++/10.3.1/bits/stl_algobase.h ****   template<typename _Tp, typename _Compare>
 298:/Library/DaisyToolchain/0.2.0/arm/arm-none-eabi/include/c++/10.3.1/bits/stl_algobase.h ****     _GLIBCXX14_CONSTEXPR
 299:/Library/DaisyToolchain/0.2.0/arm/arm-none-eabi/include/c++/10.3.1/bits/stl_algobase.h ****     inline const _Tp&
 300:/Library/DaisyToolchain/0.2.0/arm/arm-none-eabi/include/c++/10.3.1/bits/stl_algobase.h ****     max(const _Tp& __a, const _Tp& __b, _Compare __comp)
 301:/Library/DaisyToolchain/0.2.0/arm/arm-none-eabi/include/c++/10.3.1/bits/stl_algobase.h ****     {
 302:/Library/DaisyToolchain/0.2.0/arm/arm-none-eabi/include/c++/10.3.1/bits/stl_algobase.h ****       //return __comp(__a, __b) ? __b : __a;
 303:/Library/DaisyToolchain/0.2.0/arm/arm-none-eabi/include/c++/10.3.1/bits/stl_algobase.h ****       if (__comp(__a, __b))
 304:/Library/DaisyToolchain/0.2.0/arm/arm-none-eabi/include/c++/10.3.1/bits/stl_algobase.h **** 	return __b;
 305:/Library/DaisyToolchain/0.2.0/arm/arm-none-eabi/include/c++/10.3.1/bits/stl_algobase.h ****       return __a;
 306:/Library/DaisyToolchain/0.2.0/arm/arm-none-eabi/include/c++/10.3.1/bits/stl_algobase.h ****     }
 307:/Library/DaisyToolchain/0.2.0/arm/arm-none-eabi/include/c++/10.3.1/bits/stl_algobase.h **** 
 308:/Library/DaisyToolchain/0.2.0/arm/arm-none-eabi/include/c++/10.3.1/bits/stl_algobase.h ****   // Fallback implementation of the function in bits/stl_iterator.h used to
 309:/Library/DaisyToolchain/0.2.0/arm/arm-none-eabi/include/c++/10.3.1/bits/stl_algobase.h ****   // remove the __normal_iterator wrapper. See copy, fill, ...
 310:/Library/DaisyToolchain/0.2.0/arm/arm-none-eabi/include/c++/10.3.1/bits/stl_algobase.h ****   template<typename _Iterator>
 311:/Library/DaisyToolchain/0.2.0/arm/arm-none-eabi/include/c++/10.3.1/bits/stl_algobase.h ****     _GLIBCXX20_CONSTEXPR
 312:/Library/DaisyToolchain/0.2.0/arm/arm-none-eabi/include/c++/10.3.1/bits/stl_algobase.h ****     inline _Iterator
 313:/Library/DaisyToolchain/0.2.0/arm/arm-none-eabi/include/c++/10.3.1/bits/stl_algobase.h ****     __niter_base(_Iterator __it)
 314:/Library/DaisyToolchain/0.2.0/arm/arm-none-eabi/include/c++/10.3.1/bits/stl_algobase.h ****     _GLIBCXX_NOEXCEPT_IF(std::is_nothrow_copy_constructible<_Iterator>::value)
 315:/Library/DaisyToolchain/0.2.0/arm/arm-none-eabi/include/c++/10.3.1/bits/stl_algobase.h ****     { return __it; }
 316:/Library/DaisyToolchain/0.2.0/arm/arm-none-eabi/include/c++/10.3.1/bits/stl_algobase.h **** 
 317:/Library/DaisyToolchain/0.2.0/arm/arm-none-eabi/include/c++/10.3.1/bits/stl_algobase.h ****   // Reverse the __niter_base transformation to get a
 318:/Library/DaisyToolchain/0.2.0/arm/arm-none-eabi/include/c++/10.3.1/bits/stl_algobase.h ****   // __normal_iterator back again (this assumes that __normal_iterator
 319:/Library/DaisyToolchain/0.2.0/arm/arm-none-eabi/include/c++/10.3.1/bits/stl_algobase.h ****   // is only used to wrap random access iterators, like pointers).
 320:/Library/DaisyToolchain/0.2.0/arm/arm-none-eabi/include/c++/10.3.1/bits/stl_algobase.h ****   template<typename _From, typename _To>
 321:/Library/DaisyToolchain/0.2.0/arm/arm-none-eabi/include/c++/10.3.1/bits/stl_algobase.h ****     _GLIBCXX20_CONSTEXPR
 322:/Library/DaisyToolchain/0.2.0/arm/arm-none-eabi/include/c++/10.3.1/bits/stl_algobase.h ****     inline _From
 323:/Library/DaisyToolchain/0.2.0/arm/arm-none-eabi/include/c++/10.3.1/bits/stl_algobase.h ****     __niter_wrap(_From __from, _To __res)
 324:/Library/DaisyToolchain/0.2.0/arm/arm-none-eabi/include/c++/10.3.1/bits/stl_algobase.h ****     { return __from + (__res - std::__niter_base(__from)); }
 325:/Library/DaisyToolchain/0.2.0/arm/arm-none-eabi/include/c++/10.3.1/bits/stl_algobase.h **** 
 326:/Library/DaisyToolchain/0.2.0/arm/arm-none-eabi/include/c++/10.3.1/bits/stl_algobase.h ****   // No need to wrap, iterator already has the right type.
 327:/Library/DaisyToolchain/0.2.0/arm/arm-none-eabi/include/c++/10.3.1/bits/stl_algobase.h ****   template<typename _Iterator>
 328:/Library/DaisyToolchain/0.2.0/arm/arm-none-eabi/include/c++/10.3.1/bits/stl_algobase.h ****     _GLIBCXX20_CONSTEXPR
 329:/Library/DaisyToolchain/0.2.0/arm/arm-none-eabi/include/c++/10.3.1/bits/stl_algobase.h ****     inline _Iterator
 330:/Library/DaisyToolchain/0.2.0/arm/arm-none-eabi/include/c++/10.3.1/bits/stl_algobase.h ****     __niter_wrap(const _Iterator&, _Iterator __res)
 331:/Library/DaisyToolchain/0.2.0/arm/arm-none-eabi/include/c++/10.3.1/bits/stl_algobase.h ****     { return __res; }
 332:/Library/DaisyToolchain/0.2.0/arm/arm-none-eabi/include/c++/10.3.1/bits/stl_algobase.h **** 
 333:/Library/DaisyToolchain/0.2.0/arm/arm-none-eabi/include/c++/10.3.1/bits/stl_algobase.h ****   // All of these auxiliary structs serve two purposes.  (1) Replace
 334:/Library/DaisyToolchain/0.2.0/arm/arm-none-eabi/include/c++/10.3.1/bits/stl_algobase.h ****   // calls to copy with memmove whenever possible.  (Memmove, not memcpy,
ARM GAS  /var/folders/9s/8rp0_f2s1n31qbztm3b5_fdh0000gn/T//ccUUhLUh.s 			page 35


 335:/Library/DaisyToolchain/0.2.0/arm/arm-none-eabi/include/c++/10.3.1/bits/stl_algobase.h ****   // because the input and output ranges are permitted to overlap.)
 336:/Library/DaisyToolchain/0.2.0/arm/arm-none-eabi/include/c++/10.3.1/bits/stl_algobase.h ****   // (2) If we're using random access iterators, then write the loop as
 337:/Library/DaisyToolchain/0.2.0/arm/arm-none-eabi/include/c++/10.3.1/bits/stl_algobase.h ****   // a for loop with an explicit count.
 338:/Library/DaisyToolchain/0.2.0/arm/arm-none-eabi/include/c++/10.3.1/bits/stl_algobase.h **** 
 339:/Library/DaisyToolchain/0.2.0/arm/arm-none-eabi/include/c++/10.3.1/bits/stl_algobase.h ****   template<bool _IsMove, bool _IsSimple, typename _Category>
 340:/Library/DaisyToolchain/0.2.0/arm/arm-none-eabi/include/c++/10.3.1/bits/stl_algobase.h ****     struct __copy_move
 341:/Library/DaisyToolchain/0.2.0/arm/arm-none-eabi/include/c++/10.3.1/bits/stl_algobase.h ****     {
 342:/Library/DaisyToolchain/0.2.0/arm/arm-none-eabi/include/c++/10.3.1/bits/stl_algobase.h ****       template<typename _II, typename _OI>
 343:/Library/DaisyToolchain/0.2.0/arm/arm-none-eabi/include/c++/10.3.1/bits/stl_algobase.h **** 	_GLIBCXX20_CONSTEXPR
 344:/Library/DaisyToolchain/0.2.0/arm/arm-none-eabi/include/c++/10.3.1/bits/stl_algobase.h **** 	static _OI
 345:/Library/DaisyToolchain/0.2.0/arm/arm-none-eabi/include/c++/10.3.1/bits/stl_algobase.h **** 	__copy_m(_II __first, _II __last, _OI __result)
 346:/Library/DaisyToolchain/0.2.0/arm/arm-none-eabi/include/c++/10.3.1/bits/stl_algobase.h **** 	{
 347:/Library/DaisyToolchain/0.2.0/arm/arm-none-eabi/include/c++/10.3.1/bits/stl_algobase.h **** 	  for (; __first != __last; ++__result, (void)++__first)
 348:/Library/DaisyToolchain/0.2.0/arm/arm-none-eabi/include/c++/10.3.1/bits/stl_algobase.h **** 	    *__result = *__first;
 349:/Library/DaisyToolchain/0.2.0/arm/arm-none-eabi/include/c++/10.3.1/bits/stl_algobase.h **** 	  return __result;
 350:/Library/DaisyToolchain/0.2.0/arm/arm-none-eabi/include/c++/10.3.1/bits/stl_algobase.h **** 	}
 351:/Library/DaisyToolchain/0.2.0/arm/arm-none-eabi/include/c++/10.3.1/bits/stl_algobase.h ****     };
 352:/Library/DaisyToolchain/0.2.0/arm/arm-none-eabi/include/c++/10.3.1/bits/stl_algobase.h **** 
 353:/Library/DaisyToolchain/0.2.0/arm/arm-none-eabi/include/c++/10.3.1/bits/stl_algobase.h **** #if __cplusplus >= 201103L
 354:/Library/DaisyToolchain/0.2.0/arm/arm-none-eabi/include/c++/10.3.1/bits/stl_algobase.h ****   template<typename _Category>
 355:/Library/DaisyToolchain/0.2.0/arm/arm-none-eabi/include/c++/10.3.1/bits/stl_algobase.h ****     struct __copy_move<true, false, _Category>
 356:/Library/DaisyToolchain/0.2.0/arm/arm-none-eabi/include/c++/10.3.1/bits/stl_algobase.h ****     {
 357:/Library/DaisyToolchain/0.2.0/arm/arm-none-eabi/include/c++/10.3.1/bits/stl_algobase.h ****       template<typename _II, typename _OI>
 358:/Library/DaisyToolchain/0.2.0/arm/arm-none-eabi/include/c++/10.3.1/bits/stl_algobase.h **** 	_GLIBCXX20_CONSTEXPR
 359:/Library/DaisyToolchain/0.2.0/arm/arm-none-eabi/include/c++/10.3.1/bits/stl_algobase.h **** 	static _OI
 360:/Library/DaisyToolchain/0.2.0/arm/arm-none-eabi/include/c++/10.3.1/bits/stl_algobase.h **** 	__copy_m(_II __first, _II __last, _OI __result)
 361:/Library/DaisyToolchain/0.2.0/arm/arm-none-eabi/include/c++/10.3.1/bits/stl_algobase.h **** 	{
 362:/Library/DaisyToolchain/0.2.0/arm/arm-none-eabi/include/c++/10.3.1/bits/stl_algobase.h **** 	  for (; __first != __last; ++__result, (void)++__first)
 363:/Library/DaisyToolchain/0.2.0/arm/arm-none-eabi/include/c++/10.3.1/bits/stl_algobase.h **** 	    *__result = std::move(*__first);
 364:/Library/DaisyToolchain/0.2.0/arm/arm-none-eabi/include/c++/10.3.1/bits/stl_algobase.h **** 	  return __result;
 365:/Library/DaisyToolchain/0.2.0/arm/arm-none-eabi/include/c++/10.3.1/bits/stl_algobase.h **** 	}
 366:/Library/DaisyToolchain/0.2.0/arm/arm-none-eabi/include/c++/10.3.1/bits/stl_algobase.h ****     };
 367:/Library/DaisyToolchain/0.2.0/arm/arm-none-eabi/include/c++/10.3.1/bits/stl_algobase.h **** #endif
 368:/Library/DaisyToolchain/0.2.0/arm/arm-none-eabi/include/c++/10.3.1/bits/stl_algobase.h **** 
 369:/Library/DaisyToolchain/0.2.0/arm/arm-none-eabi/include/c++/10.3.1/bits/stl_algobase.h ****   template<>
 370:/Library/DaisyToolchain/0.2.0/arm/arm-none-eabi/include/c++/10.3.1/bits/stl_algobase.h ****     struct __copy_move<false, false, random_access_iterator_tag>
 371:/Library/DaisyToolchain/0.2.0/arm/arm-none-eabi/include/c++/10.3.1/bits/stl_algobase.h ****     {
 372:/Library/DaisyToolchain/0.2.0/arm/arm-none-eabi/include/c++/10.3.1/bits/stl_algobase.h ****       template<typename _II, typename _OI>
 373:/Library/DaisyToolchain/0.2.0/arm/arm-none-eabi/include/c++/10.3.1/bits/stl_algobase.h **** 	_GLIBCXX20_CONSTEXPR
 374:/Library/DaisyToolchain/0.2.0/arm/arm-none-eabi/include/c++/10.3.1/bits/stl_algobase.h **** 	static _OI
 375:/Library/DaisyToolchain/0.2.0/arm/arm-none-eabi/include/c++/10.3.1/bits/stl_algobase.h **** 	__copy_m(_II __first, _II __last, _OI __result)
 376:/Library/DaisyToolchain/0.2.0/arm/arm-none-eabi/include/c++/10.3.1/bits/stl_algobase.h **** 	{
 377:/Library/DaisyToolchain/0.2.0/arm/arm-none-eabi/include/c++/10.3.1/bits/stl_algobase.h **** 	  typedef typename iterator_traits<_II>::difference_type _Distance;
 378:/Library/DaisyToolchain/0.2.0/arm/arm-none-eabi/include/c++/10.3.1/bits/stl_algobase.h **** 	  for(_Distance __n = __last - __first; __n > 0; --__n)
 379:/Library/DaisyToolchain/0.2.0/arm/arm-none-eabi/include/c++/10.3.1/bits/stl_algobase.h **** 	    {
 380:/Library/DaisyToolchain/0.2.0/arm/arm-none-eabi/include/c++/10.3.1/bits/stl_algobase.h **** 	      *__result = *__first;
 381:/Library/DaisyToolchain/0.2.0/arm/arm-none-eabi/include/c++/10.3.1/bits/stl_algobase.h **** 	      ++__first;
 382:/Library/DaisyToolchain/0.2.0/arm/arm-none-eabi/include/c++/10.3.1/bits/stl_algobase.h **** 	      ++__result;
 383:/Library/DaisyToolchain/0.2.0/arm/arm-none-eabi/include/c++/10.3.1/bits/stl_algobase.h **** 	    }
 384:/Library/DaisyToolchain/0.2.0/arm/arm-none-eabi/include/c++/10.3.1/bits/stl_algobase.h **** 	  return __result;
 385:/Library/DaisyToolchain/0.2.0/arm/arm-none-eabi/include/c++/10.3.1/bits/stl_algobase.h **** 	}
 386:/Library/DaisyToolchain/0.2.0/arm/arm-none-eabi/include/c++/10.3.1/bits/stl_algobase.h ****     };
 387:/Library/DaisyToolchain/0.2.0/arm/arm-none-eabi/include/c++/10.3.1/bits/stl_algobase.h **** 
 388:/Library/DaisyToolchain/0.2.0/arm/arm-none-eabi/include/c++/10.3.1/bits/stl_algobase.h **** #if __cplusplus >= 201103L
 389:/Library/DaisyToolchain/0.2.0/arm/arm-none-eabi/include/c++/10.3.1/bits/stl_algobase.h ****   template<>
 390:/Library/DaisyToolchain/0.2.0/arm/arm-none-eabi/include/c++/10.3.1/bits/stl_algobase.h ****     struct __copy_move<true, false, random_access_iterator_tag>
 391:/Library/DaisyToolchain/0.2.0/arm/arm-none-eabi/include/c++/10.3.1/bits/stl_algobase.h ****     {
ARM GAS  /var/folders/9s/8rp0_f2s1n31qbztm3b5_fdh0000gn/T//ccUUhLUh.s 			page 36


 392:/Library/DaisyToolchain/0.2.0/arm/arm-none-eabi/include/c++/10.3.1/bits/stl_algobase.h ****       template<typename _II, typename _OI>
 393:/Library/DaisyToolchain/0.2.0/arm/arm-none-eabi/include/c++/10.3.1/bits/stl_algobase.h **** 	_GLIBCXX20_CONSTEXPR
 394:/Library/DaisyToolchain/0.2.0/arm/arm-none-eabi/include/c++/10.3.1/bits/stl_algobase.h **** 	static _OI
 395:/Library/DaisyToolchain/0.2.0/arm/arm-none-eabi/include/c++/10.3.1/bits/stl_algobase.h **** 	__copy_m(_II __first, _II __last, _OI __result)
 396:/Library/DaisyToolchain/0.2.0/arm/arm-none-eabi/include/c++/10.3.1/bits/stl_algobase.h **** 	{
 397:/Library/DaisyToolchain/0.2.0/arm/arm-none-eabi/include/c++/10.3.1/bits/stl_algobase.h **** 	  typedef typename iterator_traits<_II>::difference_type _Distance;
 398:/Library/DaisyToolchain/0.2.0/arm/arm-none-eabi/include/c++/10.3.1/bits/stl_algobase.h **** 	  for(_Distance __n = __last - __first; __n > 0; --__n)
 399:/Library/DaisyToolchain/0.2.0/arm/arm-none-eabi/include/c++/10.3.1/bits/stl_algobase.h **** 	    {
 400:/Library/DaisyToolchain/0.2.0/arm/arm-none-eabi/include/c++/10.3.1/bits/stl_algobase.h **** 	      *__result = std::move(*__first);
 401:/Library/DaisyToolchain/0.2.0/arm/arm-none-eabi/include/c++/10.3.1/bits/stl_algobase.h **** 	      ++__first;
 402:/Library/DaisyToolchain/0.2.0/arm/arm-none-eabi/include/c++/10.3.1/bits/stl_algobase.h **** 	      ++__result;
 403:/Library/DaisyToolchain/0.2.0/arm/arm-none-eabi/include/c++/10.3.1/bits/stl_algobase.h **** 	    }
 404:/Library/DaisyToolchain/0.2.0/arm/arm-none-eabi/include/c++/10.3.1/bits/stl_algobase.h **** 	  return __result;
 405:/Library/DaisyToolchain/0.2.0/arm/arm-none-eabi/include/c++/10.3.1/bits/stl_algobase.h **** 	}
 406:/Library/DaisyToolchain/0.2.0/arm/arm-none-eabi/include/c++/10.3.1/bits/stl_algobase.h ****     };
 407:/Library/DaisyToolchain/0.2.0/arm/arm-none-eabi/include/c++/10.3.1/bits/stl_algobase.h **** #endif
 408:/Library/DaisyToolchain/0.2.0/arm/arm-none-eabi/include/c++/10.3.1/bits/stl_algobase.h **** 
 409:/Library/DaisyToolchain/0.2.0/arm/arm-none-eabi/include/c++/10.3.1/bits/stl_algobase.h ****   template<bool _IsMove>
 410:/Library/DaisyToolchain/0.2.0/arm/arm-none-eabi/include/c++/10.3.1/bits/stl_algobase.h ****     struct __copy_move<_IsMove, true, random_access_iterator_tag>
 411:/Library/DaisyToolchain/0.2.0/arm/arm-none-eabi/include/c++/10.3.1/bits/stl_algobase.h ****     {
 412:/Library/DaisyToolchain/0.2.0/arm/arm-none-eabi/include/c++/10.3.1/bits/stl_algobase.h ****       template<typename _Tp>
 413:/Library/DaisyToolchain/0.2.0/arm/arm-none-eabi/include/c++/10.3.1/bits/stl_algobase.h **** 	_GLIBCXX20_CONSTEXPR
 414:/Library/DaisyToolchain/0.2.0/arm/arm-none-eabi/include/c++/10.3.1/bits/stl_algobase.h **** 	static _Tp*
 415:/Library/DaisyToolchain/0.2.0/arm/arm-none-eabi/include/c++/10.3.1/bits/stl_algobase.h **** 	__copy_m(const _Tp* __first, const _Tp* __last, _Tp* __result)
 416:/Library/DaisyToolchain/0.2.0/arm/arm-none-eabi/include/c++/10.3.1/bits/stl_algobase.h **** 	{
 417:/Library/DaisyToolchain/0.2.0/arm/arm-none-eabi/include/c++/10.3.1/bits/stl_algobase.h **** #if __cplusplus >= 201103L
 418:/Library/DaisyToolchain/0.2.0/arm/arm-none-eabi/include/c++/10.3.1/bits/stl_algobase.h **** 	  using __assignable = conditional<_IsMove,
 419:/Library/DaisyToolchain/0.2.0/arm/arm-none-eabi/include/c++/10.3.1/bits/stl_algobase.h **** 					   is_move_assignable<_Tp>,
 420:/Library/DaisyToolchain/0.2.0/arm/arm-none-eabi/include/c++/10.3.1/bits/stl_algobase.h **** 					   is_copy_assignable<_Tp>>;
 421:/Library/DaisyToolchain/0.2.0/arm/arm-none-eabi/include/c++/10.3.1/bits/stl_algobase.h **** 	  // trivial types can have deleted assignment
 422:/Library/DaisyToolchain/0.2.0/arm/arm-none-eabi/include/c++/10.3.1/bits/stl_algobase.h **** 	  static_assert( __assignable::type::value, "type is not assignable" );
 423:/Library/DaisyToolchain/0.2.0/arm/arm-none-eabi/include/c++/10.3.1/bits/stl_algobase.h **** #endif
 424:/Library/DaisyToolchain/0.2.0/arm/arm-none-eabi/include/c++/10.3.1/bits/stl_algobase.h **** 	  const ptrdiff_t _Num = __last - __first;
 425:/Library/DaisyToolchain/0.2.0/arm/arm-none-eabi/include/c++/10.3.1/bits/stl_algobase.h **** 	  if (_Num)
 426:/Library/DaisyToolchain/0.2.0/arm/arm-none-eabi/include/c++/10.3.1/bits/stl_algobase.h **** 	    __builtin_memmove(__result, __first, sizeof(_Tp) * _Num);
 427:/Library/DaisyToolchain/0.2.0/arm/arm-none-eabi/include/c++/10.3.1/bits/stl_algobase.h **** 	  return __result + _Num;
 428:/Library/DaisyToolchain/0.2.0/arm/arm-none-eabi/include/c++/10.3.1/bits/stl_algobase.h **** 	}
 429:/Library/DaisyToolchain/0.2.0/arm/arm-none-eabi/include/c++/10.3.1/bits/stl_algobase.h ****     };
 430:/Library/DaisyToolchain/0.2.0/arm/arm-none-eabi/include/c++/10.3.1/bits/stl_algobase.h **** 
 431:/Library/DaisyToolchain/0.2.0/arm/arm-none-eabi/include/c++/10.3.1/bits/stl_algobase.h ****   // Helpers for streambuf iterators (either istream or ostream).
 432:/Library/DaisyToolchain/0.2.0/arm/arm-none-eabi/include/c++/10.3.1/bits/stl_algobase.h ****   // NB: avoid including <iosfwd>, relatively large.
 433:/Library/DaisyToolchain/0.2.0/arm/arm-none-eabi/include/c++/10.3.1/bits/stl_algobase.h ****   template<typename _CharT>
 434:/Library/DaisyToolchain/0.2.0/arm/arm-none-eabi/include/c++/10.3.1/bits/stl_algobase.h ****     struct char_traits;
 435:/Library/DaisyToolchain/0.2.0/arm/arm-none-eabi/include/c++/10.3.1/bits/stl_algobase.h **** 
 436:/Library/DaisyToolchain/0.2.0/arm/arm-none-eabi/include/c++/10.3.1/bits/stl_algobase.h ****   template<typename _CharT, typename _Traits>
 437:/Library/DaisyToolchain/0.2.0/arm/arm-none-eabi/include/c++/10.3.1/bits/stl_algobase.h ****     class istreambuf_iterator;
 438:/Library/DaisyToolchain/0.2.0/arm/arm-none-eabi/include/c++/10.3.1/bits/stl_algobase.h **** 
 439:/Library/DaisyToolchain/0.2.0/arm/arm-none-eabi/include/c++/10.3.1/bits/stl_algobase.h ****   template<typename _CharT, typename _Traits>
 440:/Library/DaisyToolchain/0.2.0/arm/arm-none-eabi/include/c++/10.3.1/bits/stl_algobase.h ****     class ostreambuf_iterator;
 441:/Library/DaisyToolchain/0.2.0/arm/arm-none-eabi/include/c++/10.3.1/bits/stl_algobase.h **** 
 442:/Library/DaisyToolchain/0.2.0/arm/arm-none-eabi/include/c++/10.3.1/bits/stl_algobase.h ****   template<bool _IsMove, typename _CharT>
 443:/Library/DaisyToolchain/0.2.0/arm/arm-none-eabi/include/c++/10.3.1/bits/stl_algobase.h ****     typename __gnu_cxx::__enable_if<__is_char<_CharT>::__value,
 444:/Library/DaisyToolchain/0.2.0/arm/arm-none-eabi/include/c++/10.3.1/bits/stl_algobase.h **** 	     ostreambuf_iterator<_CharT, char_traits<_CharT> > >::__type
 445:/Library/DaisyToolchain/0.2.0/arm/arm-none-eabi/include/c++/10.3.1/bits/stl_algobase.h ****     __copy_move_a2(_CharT*, _CharT*,
 446:/Library/DaisyToolchain/0.2.0/arm/arm-none-eabi/include/c++/10.3.1/bits/stl_algobase.h **** 		   ostreambuf_iterator<_CharT, char_traits<_CharT> >);
 447:/Library/DaisyToolchain/0.2.0/arm/arm-none-eabi/include/c++/10.3.1/bits/stl_algobase.h **** 
 448:/Library/DaisyToolchain/0.2.0/arm/arm-none-eabi/include/c++/10.3.1/bits/stl_algobase.h ****   template<bool _IsMove, typename _CharT>
ARM GAS  /var/folders/9s/8rp0_f2s1n31qbztm3b5_fdh0000gn/T//ccUUhLUh.s 			page 37


 449:/Library/DaisyToolchain/0.2.0/arm/arm-none-eabi/include/c++/10.3.1/bits/stl_algobase.h ****     typename __gnu_cxx::__enable_if<__is_char<_CharT>::__value,
 450:/Library/DaisyToolchain/0.2.0/arm/arm-none-eabi/include/c++/10.3.1/bits/stl_algobase.h **** 	     ostreambuf_iterator<_CharT, char_traits<_CharT> > >::__type
 451:/Library/DaisyToolchain/0.2.0/arm/arm-none-eabi/include/c++/10.3.1/bits/stl_algobase.h ****     __copy_move_a2(const _CharT*, const _CharT*,
 452:/Library/DaisyToolchain/0.2.0/arm/arm-none-eabi/include/c++/10.3.1/bits/stl_algobase.h **** 		   ostreambuf_iterator<_CharT, char_traits<_CharT> >);
 453:/Library/DaisyToolchain/0.2.0/arm/arm-none-eabi/include/c++/10.3.1/bits/stl_algobase.h **** 
 454:/Library/DaisyToolchain/0.2.0/arm/arm-none-eabi/include/c++/10.3.1/bits/stl_algobase.h ****   template<bool _IsMove, typename _CharT>
 455:/Library/DaisyToolchain/0.2.0/arm/arm-none-eabi/include/c++/10.3.1/bits/stl_algobase.h ****     typename __gnu_cxx::__enable_if<__is_char<_CharT>::__value,
 456:/Library/DaisyToolchain/0.2.0/arm/arm-none-eabi/include/c++/10.3.1/bits/stl_algobase.h **** 				    _CharT*>::__type
 457:/Library/DaisyToolchain/0.2.0/arm/arm-none-eabi/include/c++/10.3.1/bits/stl_algobase.h ****     __copy_move_a2(istreambuf_iterator<_CharT, char_traits<_CharT> >,
 458:/Library/DaisyToolchain/0.2.0/arm/arm-none-eabi/include/c++/10.3.1/bits/stl_algobase.h **** 		   istreambuf_iterator<_CharT, char_traits<_CharT> >, _CharT*);
 459:/Library/DaisyToolchain/0.2.0/arm/arm-none-eabi/include/c++/10.3.1/bits/stl_algobase.h **** 
 460:/Library/DaisyToolchain/0.2.0/arm/arm-none-eabi/include/c++/10.3.1/bits/stl_algobase.h ****   template<bool _IsMove, typename _II, typename _OI>
 461:/Library/DaisyToolchain/0.2.0/arm/arm-none-eabi/include/c++/10.3.1/bits/stl_algobase.h ****     _GLIBCXX20_CONSTEXPR
 462:/Library/DaisyToolchain/0.2.0/arm/arm-none-eabi/include/c++/10.3.1/bits/stl_algobase.h ****     inline _OI
 463:/Library/DaisyToolchain/0.2.0/arm/arm-none-eabi/include/c++/10.3.1/bits/stl_algobase.h ****     __copy_move_a2(_II __first, _II __last, _OI __result)
 464:/Library/DaisyToolchain/0.2.0/arm/arm-none-eabi/include/c++/10.3.1/bits/stl_algobase.h ****     {
 465:/Library/DaisyToolchain/0.2.0/arm/arm-none-eabi/include/c++/10.3.1/bits/stl_algobase.h ****       typedef typename iterator_traits<_II>::iterator_category _Category;
 466:/Library/DaisyToolchain/0.2.0/arm/arm-none-eabi/include/c++/10.3.1/bits/stl_algobase.h **** #ifdef __cpp_lib_is_constant_evaluated
 467:/Library/DaisyToolchain/0.2.0/arm/arm-none-eabi/include/c++/10.3.1/bits/stl_algobase.h ****       if (std::is_constant_evaluated())
 468:/Library/DaisyToolchain/0.2.0/arm/arm-none-eabi/include/c++/10.3.1/bits/stl_algobase.h **** 	return std::__copy_move<_IsMove, false, _Category>::
 469:/Library/DaisyToolchain/0.2.0/arm/arm-none-eabi/include/c++/10.3.1/bits/stl_algobase.h **** 	  __copy_m(__first, __last, __result);
 470:/Library/DaisyToolchain/0.2.0/arm/arm-none-eabi/include/c++/10.3.1/bits/stl_algobase.h **** #endif
 471:/Library/DaisyToolchain/0.2.0/arm/arm-none-eabi/include/c++/10.3.1/bits/stl_algobase.h ****       return std::__copy_move<_IsMove, __memcpyable<_OI, _II>::__value,
 472:/Library/DaisyToolchain/0.2.0/arm/arm-none-eabi/include/c++/10.3.1/bits/stl_algobase.h **** 			      _Category>::__copy_m(__first, __last, __result);
 473:/Library/DaisyToolchain/0.2.0/arm/arm-none-eabi/include/c++/10.3.1/bits/stl_algobase.h ****     }
 474:/Library/DaisyToolchain/0.2.0/arm/arm-none-eabi/include/c++/10.3.1/bits/stl_algobase.h **** 
 475:/Library/DaisyToolchain/0.2.0/arm/arm-none-eabi/include/c++/10.3.1/bits/stl_algobase.h **** _GLIBCXX_BEGIN_NAMESPACE_CONTAINER
 476:/Library/DaisyToolchain/0.2.0/arm/arm-none-eabi/include/c++/10.3.1/bits/stl_algobase.h **** 
 477:/Library/DaisyToolchain/0.2.0/arm/arm-none-eabi/include/c++/10.3.1/bits/stl_algobase.h ****   template<typename _Tp, typename _Ref, typename _Ptr>
 478:/Library/DaisyToolchain/0.2.0/arm/arm-none-eabi/include/c++/10.3.1/bits/stl_algobase.h ****     struct _Deque_iterator;
 479:/Library/DaisyToolchain/0.2.0/arm/arm-none-eabi/include/c++/10.3.1/bits/stl_algobase.h **** 
 480:/Library/DaisyToolchain/0.2.0/arm/arm-none-eabi/include/c++/10.3.1/bits/stl_algobase.h **** _GLIBCXX_END_NAMESPACE_CONTAINER
 481:/Library/DaisyToolchain/0.2.0/arm/arm-none-eabi/include/c++/10.3.1/bits/stl_algobase.h **** 
 482:/Library/DaisyToolchain/0.2.0/arm/arm-none-eabi/include/c++/10.3.1/bits/stl_algobase.h ****   template<bool _IsMove,
 483:/Library/DaisyToolchain/0.2.0/arm/arm-none-eabi/include/c++/10.3.1/bits/stl_algobase.h **** 	   typename _Tp, typename _Ref, typename _Ptr, typename _OI>
 484:/Library/DaisyToolchain/0.2.0/arm/arm-none-eabi/include/c++/10.3.1/bits/stl_algobase.h ****     _OI
 485:/Library/DaisyToolchain/0.2.0/arm/arm-none-eabi/include/c++/10.3.1/bits/stl_algobase.h ****     __copy_move_a1(_GLIBCXX_STD_C::_Deque_iterator<_Tp, _Ref, _Ptr>,
 486:/Library/DaisyToolchain/0.2.0/arm/arm-none-eabi/include/c++/10.3.1/bits/stl_algobase.h **** 		   _GLIBCXX_STD_C::_Deque_iterator<_Tp, _Ref, _Ptr>,
 487:/Library/DaisyToolchain/0.2.0/arm/arm-none-eabi/include/c++/10.3.1/bits/stl_algobase.h **** 		   _OI);
 488:/Library/DaisyToolchain/0.2.0/arm/arm-none-eabi/include/c++/10.3.1/bits/stl_algobase.h **** 
 489:/Library/DaisyToolchain/0.2.0/arm/arm-none-eabi/include/c++/10.3.1/bits/stl_algobase.h ****   template<bool _IsMove,
 490:/Library/DaisyToolchain/0.2.0/arm/arm-none-eabi/include/c++/10.3.1/bits/stl_algobase.h **** 	   typename _ITp, typename _IRef, typename _IPtr, typename _OTp>
 491:/Library/DaisyToolchain/0.2.0/arm/arm-none-eabi/include/c++/10.3.1/bits/stl_algobase.h ****     _GLIBCXX_STD_C::_Deque_iterator<_OTp, _OTp&, _OTp*>
 492:/Library/DaisyToolchain/0.2.0/arm/arm-none-eabi/include/c++/10.3.1/bits/stl_algobase.h ****     __copy_move_a1(_GLIBCXX_STD_C::_Deque_iterator<_ITp, _IRef, _IPtr>,
 493:/Library/DaisyToolchain/0.2.0/arm/arm-none-eabi/include/c++/10.3.1/bits/stl_algobase.h **** 		   _GLIBCXX_STD_C::_Deque_iterator<_ITp, _IRef, _IPtr>,
 494:/Library/DaisyToolchain/0.2.0/arm/arm-none-eabi/include/c++/10.3.1/bits/stl_algobase.h **** 		   _GLIBCXX_STD_C::_Deque_iterator<_OTp, _OTp&, _OTp*>);
 495:/Library/DaisyToolchain/0.2.0/arm/arm-none-eabi/include/c++/10.3.1/bits/stl_algobase.h **** 
 496:/Library/DaisyToolchain/0.2.0/arm/arm-none-eabi/include/c++/10.3.1/bits/stl_algobase.h ****   template<bool _IsMove, typename _II, typename _Tp>
 497:/Library/DaisyToolchain/0.2.0/arm/arm-none-eabi/include/c++/10.3.1/bits/stl_algobase.h ****     typename __gnu_cxx::__enable_if<
 498:/Library/DaisyToolchain/0.2.0/arm/arm-none-eabi/include/c++/10.3.1/bits/stl_algobase.h ****       __is_random_access_iter<_II>::__value,
 499:/Library/DaisyToolchain/0.2.0/arm/arm-none-eabi/include/c++/10.3.1/bits/stl_algobase.h ****       _GLIBCXX_STD_C::_Deque_iterator<_Tp, _Tp&, _Tp*> >::__type
 500:/Library/DaisyToolchain/0.2.0/arm/arm-none-eabi/include/c++/10.3.1/bits/stl_algobase.h ****     __copy_move_a1(_II, _II, _GLIBCXX_STD_C::_Deque_iterator<_Tp, _Tp&, _Tp*>);
 501:/Library/DaisyToolchain/0.2.0/arm/arm-none-eabi/include/c++/10.3.1/bits/stl_algobase.h **** 
 502:/Library/DaisyToolchain/0.2.0/arm/arm-none-eabi/include/c++/10.3.1/bits/stl_algobase.h ****   template<bool _IsMove, typename _II, typename _OI>
 503:/Library/DaisyToolchain/0.2.0/arm/arm-none-eabi/include/c++/10.3.1/bits/stl_algobase.h ****     _GLIBCXX20_CONSTEXPR
 504:/Library/DaisyToolchain/0.2.0/arm/arm-none-eabi/include/c++/10.3.1/bits/stl_algobase.h ****     inline _OI
 505:/Library/DaisyToolchain/0.2.0/arm/arm-none-eabi/include/c++/10.3.1/bits/stl_algobase.h ****     __copy_move_a1(_II __first, _II __last, _OI __result)
ARM GAS  /var/folders/9s/8rp0_f2s1n31qbztm3b5_fdh0000gn/T//ccUUhLUh.s 			page 38


 506:/Library/DaisyToolchain/0.2.0/arm/arm-none-eabi/include/c++/10.3.1/bits/stl_algobase.h ****     { return std::__copy_move_a2<_IsMove>(__first, __last, __result); }
 507:/Library/DaisyToolchain/0.2.0/arm/arm-none-eabi/include/c++/10.3.1/bits/stl_algobase.h **** 
 508:/Library/DaisyToolchain/0.2.0/arm/arm-none-eabi/include/c++/10.3.1/bits/stl_algobase.h ****   template<bool _IsMove, typename _II, typename _OI>
 509:/Library/DaisyToolchain/0.2.0/arm/arm-none-eabi/include/c++/10.3.1/bits/stl_algobase.h ****     _GLIBCXX20_CONSTEXPR
 510:/Library/DaisyToolchain/0.2.0/arm/arm-none-eabi/include/c++/10.3.1/bits/stl_algobase.h ****     inline _OI
 511:/Library/DaisyToolchain/0.2.0/arm/arm-none-eabi/include/c++/10.3.1/bits/stl_algobase.h ****     __copy_move_a(_II __first, _II __last, _OI __result)
 512:/Library/DaisyToolchain/0.2.0/arm/arm-none-eabi/include/c++/10.3.1/bits/stl_algobase.h ****     {
 513:/Library/DaisyToolchain/0.2.0/arm/arm-none-eabi/include/c++/10.3.1/bits/stl_algobase.h ****       return std::__niter_wrap(__result,
 514:/Library/DaisyToolchain/0.2.0/arm/arm-none-eabi/include/c++/10.3.1/bits/stl_algobase.h **** 		std::__copy_move_a1<_IsMove>(std::__niter_base(__first),
 515:/Library/DaisyToolchain/0.2.0/arm/arm-none-eabi/include/c++/10.3.1/bits/stl_algobase.h **** 					     std::__niter_base(__last),
 516:/Library/DaisyToolchain/0.2.0/arm/arm-none-eabi/include/c++/10.3.1/bits/stl_algobase.h **** 					     std::__niter_base(__result)));
 517:/Library/DaisyToolchain/0.2.0/arm/arm-none-eabi/include/c++/10.3.1/bits/stl_algobase.h ****     }
 518:/Library/DaisyToolchain/0.2.0/arm/arm-none-eabi/include/c++/10.3.1/bits/stl_algobase.h **** 
 519:/Library/DaisyToolchain/0.2.0/arm/arm-none-eabi/include/c++/10.3.1/bits/stl_algobase.h ****   template<bool _IsMove,
 520:/Library/DaisyToolchain/0.2.0/arm/arm-none-eabi/include/c++/10.3.1/bits/stl_algobase.h **** 	   typename _Ite, typename _Seq, typename _Cat, typename _OI>
 521:/Library/DaisyToolchain/0.2.0/arm/arm-none-eabi/include/c++/10.3.1/bits/stl_algobase.h ****     _OI
 522:/Library/DaisyToolchain/0.2.0/arm/arm-none-eabi/include/c++/10.3.1/bits/stl_algobase.h ****     __copy_move_a(const ::__gnu_debug::_Safe_iterator<_Ite, _Seq, _Cat>&,
 523:/Library/DaisyToolchain/0.2.0/arm/arm-none-eabi/include/c++/10.3.1/bits/stl_algobase.h **** 		  const ::__gnu_debug::_Safe_iterator<_Ite, _Seq, _Cat>&,
 524:/Library/DaisyToolchain/0.2.0/arm/arm-none-eabi/include/c++/10.3.1/bits/stl_algobase.h **** 		  _OI);
 525:/Library/DaisyToolchain/0.2.0/arm/arm-none-eabi/include/c++/10.3.1/bits/stl_algobase.h **** 
 526:/Library/DaisyToolchain/0.2.0/arm/arm-none-eabi/include/c++/10.3.1/bits/stl_algobase.h ****   template<bool _IsMove,
 527:/Library/DaisyToolchain/0.2.0/arm/arm-none-eabi/include/c++/10.3.1/bits/stl_algobase.h **** 	   typename _II, typename _Ite, typename _Seq, typename _Cat>
 528:/Library/DaisyToolchain/0.2.0/arm/arm-none-eabi/include/c++/10.3.1/bits/stl_algobase.h ****     __gnu_debug::_Safe_iterator<_Ite, _Seq, _Cat>
 529:/Library/DaisyToolchain/0.2.0/arm/arm-none-eabi/include/c++/10.3.1/bits/stl_algobase.h ****     __copy_move_a(_II, _II,
 530:/Library/DaisyToolchain/0.2.0/arm/arm-none-eabi/include/c++/10.3.1/bits/stl_algobase.h **** 		  const ::__gnu_debug::_Safe_iterator<_Ite, _Seq, _Cat>&);
 531:/Library/DaisyToolchain/0.2.0/arm/arm-none-eabi/include/c++/10.3.1/bits/stl_algobase.h **** 
 532:/Library/DaisyToolchain/0.2.0/arm/arm-none-eabi/include/c++/10.3.1/bits/stl_algobase.h ****   template<bool _IsMove,
 533:/Library/DaisyToolchain/0.2.0/arm/arm-none-eabi/include/c++/10.3.1/bits/stl_algobase.h **** 	   typename _IIte, typename _ISeq, typename _ICat,
 534:/Library/DaisyToolchain/0.2.0/arm/arm-none-eabi/include/c++/10.3.1/bits/stl_algobase.h **** 	   typename _OIte, typename _OSeq, typename _OCat>
 535:/Library/DaisyToolchain/0.2.0/arm/arm-none-eabi/include/c++/10.3.1/bits/stl_algobase.h ****     ::__gnu_debug::_Safe_iterator<_OIte, _OSeq, _OCat>
 536:/Library/DaisyToolchain/0.2.0/arm/arm-none-eabi/include/c++/10.3.1/bits/stl_algobase.h ****     __copy_move_a(const ::__gnu_debug::_Safe_iterator<_IIte, _ISeq, _ICat>&,
 537:/Library/DaisyToolchain/0.2.0/arm/arm-none-eabi/include/c++/10.3.1/bits/stl_algobase.h **** 		  const ::__gnu_debug::_Safe_iterator<_IIte, _ISeq, _ICat>&,
 538:/Library/DaisyToolchain/0.2.0/arm/arm-none-eabi/include/c++/10.3.1/bits/stl_algobase.h **** 		  const ::__gnu_debug::_Safe_iterator<_OIte, _OSeq, _OCat>&);
 539:/Library/DaisyToolchain/0.2.0/arm/arm-none-eabi/include/c++/10.3.1/bits/stl_algobase.h **** 
 540:/Library/DaisyToolchain/0.2.0/arm/arm-none-eabi/include/c++/10.3.1/bits/stl_algobase.h ****   /**
 541:/Library/DaisyToolchain/0.2.0/arm/arm-none-eabi/include/c++/10.3.1/bits/stl_algobase.h ****    *  @brief Copies the range [first,last) into result.
 542:/Library/DaisyToolchain/0.2.0/arm/arm-none-eabi/include/c++/10.3.1/bits/stl_algobase.h ****    *  @ingroup mutating_algorithms
 543:/Library/DaisyToolchain/0.2.0/arm/arm-none-eabi/include/c++/10.3.1/bits/stl_algobase.h ****    *  @param  __first  An input iterator.
 544:/Library/DaisyToolchain/0.2.0/arm/arm-none-eabi/include/c++/10.3.1/bits/stl_algobase.h ****    *  @param  __last   An input iterator.
 545:/Library/DaisyToolchain/0.2.0/arm/arm-none-eabi/include/c++/10.3.1/bits/stl_algobase.h ****    *  @param  __result An output iterator.
 546:/Library/DaisyToolchain/0.2.0/arm/arm-none-eabi/include/c++/10.3.1/bits/stl_algobase.h ****    *  @return   result + (last - first)
 547:/Library/DaisyToolchain/0.2.0/arm/arm-none-eabi/include/c++/10.3.1/bits/stl_algobase.h ****    *
 548:/Library/DaisyToolchain/0.2.0/arm/arm-none-eabi/include/c++/10.3.1/bits/stl_algobase.h ****    *  This inline function will boil down to a call to @c memmove whenever
 549:/Library/DaisyToolchain/0.2.0/arm/arm-none-eabi/include/c++/10.3.1/bits/stl_algobase.h ****    *  possible.  Failing that, if random access iterators are passed, then the
 550:/Library/DaisyToolchain/0.2.0/arm/arm-none-eabi/include/c++/10.3.1/bits/stl_algobase.h ****    *  loop count will be known (and therefore a candidate for compiler
 551:/Library/DaisyToolchain/0.2.0/arm/arm-none-eabi/include/c++/10.3.1/bits/stl_algobase.h ****    *  optimizations such as unrolling).  Result may not be contained within
 552:/Library/DaisyToolchain/0.2.0/arm/arm-none-eabi/include/c++/10.3.1/bits/stl_algobase.h ****    *  [first,last); the copy_backward function should be used instead.
 553:/Library/DaisyToolchain/0.2.0/arm/arm-none-eabi/include/c++/10.3.1/bits/stl_algobase.h ****    *
 554:/Library/DaisyToolchain/0.2.0/arm/arm-none-eabi/include/c++/10.3.1/bits/stl_algobase.h ****    *  Note that the end of the output range is permitted to be contained
 555:/Library/DaisyToolchain/0.2.0/arm/arm-none-eabi/include/c++/10.3.1/bits/stl_algobase.h ****    *  within [first,last).
 556:/Library/DaisyToolchain/0.2.0/arm/arm-none-eabi/include/c++/10.3.1/bits/stl_algobase.h ****   */
 557:/Library/DaisyToolchain/0.2.0/arm/arm-none-eabi/include/c++/10.3.1/bits/stl_algobase.h ****   template<typename _II, typename _OI>
 558:/Library/DaisyToolchain/0.2.0/arm/arm-none-eabi/include/c++/10.3.1/bits/stl_algobase.h ****     _GLIBCXX20_CONSTEXPR
 559:/Library/DaisyToolchain/0.2.0/arm/arm-none-eabi/include/c++/10.3.1/bits/stl_algobase.h ****     inline _OI
 560:/Library/DaisyToolchain/0.2.0/arm/arm-none-eabi/include/c++/10.3.1/bits/stl_algobase.h ****     copy(_II __first, _II __last, _OI __result)
 561:/Library/DaisyToolchain/0.2.0/arm/arm-none-eabi/include/c++/10.3.1/bits/stl_algobase.h ****     {
 562:/Library/DaisyToolchain/0.2.0/arm/arm-none-eabi/include/c++/10.3.1/bits/stl_algobase.h ****       // concept requirements
ARM GAS  /var/folders/9s/8rp0_f2s1n31qbztm3b5_fdh0000gn/T//ccUUhLUh.s 			page 39


 563:/Library/DaisyToolchain/0.2.0/arm/arm-none-eabi/include/c++/10.3.1/bits/stl_algobase.h ****       __glibcxx_function_requires(_InputIteratorConcept<_II>)
 564:/Library/DaisyToolchain/0.2.0/arm/arm-none-eabi/include/c++/10.3.1/bits/stl_algobase.h ****       __glibcxx_function_requires(_OutputIteratorConcept<_OI,
 565:/Library/DaisyToolchain/0.2.0/arm/arm-none-eabi/include/c++/10.3.1/bits/stl_algobase.h **** 	    typename iterator_traits<_II>::value_type>)
 566:/Library/DaisyToolchain/0.2.0/arm/arm-none-eabi/include/c++/10.3.1/bits/stl_algobase.h ****       __glibcxx_requires_can_increment_range(__first, __last, __result);
 567:/Library/DaisyToolchain/0.2.0/arm/arm-none-eabi/include/c++/10.3.1/bits/stl_algobase.h **** 
 568:/Library/DaisyToolchain/0.2.0/arm/arm-none-eabi/include/c++/10.3.1/bits/stl_algobase.h ****       return std::__copy_move_a<__is_move_iterator<_II>::__value>
 569:/Library/DaisyToolchain/0.2.0/arm/arm-none-eabi/include/c++/10.3.1/bits/stl_algobase.h **** 	     (std::__miter_base(__first), std::__miter_base(__last), __result);
 570:/Library/DaisyToolchain/0.2.0/arm/arm-none-eabi/include/c++/10.3.1/bits/stl_algobase.h ****     }
 571:/Library/DaisyToolchain/0.2.0/arm/arm-none-eabi/include/c++/10.3.1/bits/stl_algobase.h **** 
 572:/Library/DaisyToolchain/0.2.0/arm/arm-none-eabi/include/c++/10.3.1/bits/stl_algobase.h **** #if __cplusplus >= 201103L
 573:/Library/DaisyToolchain/0.2.0/arm/arm-none-eabi/include/c++/10.3.1/bits/stl_algobase.h ****   /**
 574:/Library/DaisyToolchain/0.2.0/arm/arm-none-eabi/include/c++/10.3.1/bits/stl_algobase.h ****    *  @brief Moves the range [first,last) into result.
 575:/Library/DaisyToolchain/0.2.0/arm/arm-none-eabi/include/c++/10.3.1/bits/stl_algobase.h ****    *  @ingroup mutating_algorithms
 576:/Library/DaisyToolchain/0.2.0/arm/arm-none-eabi/include/c++/10.3.1/bits/stl_algobase.h ****    *  @param  __first  An input iterator.
 577:/Library/DaisyToolchain/0.2.0/arm/arm-none-eabi/include/c++/10.3.1/bits/stl_algobase.h ****    *  @param  __last   An input iterator.
 578:/Library/DaisyToolchain/0.2.0/arm/arm-none-eabi/include/c++/10.3.1/bits/stl_algobase.h ****    *  @param  __result An output iterator.
 579:/Library/DaisyToolchain/0.2.0/arm/arm-none-eabi/include/c++/10.3.1/bits/stl_algobase.h ****    *  @return   result + (last - first)
 580:/Library/DaisyToolchain/0.2.0/arm/arm-none-eabi/include/c++/10.3.1/bits/stl_algobase.h ****    *
 581:/Library/DaisyToolchain/0.2.0/arm/arm-none-eabi/include/c++/10.3.1/bits/stl_algobase.h ****    *  This inline function will boil down to a call to @c memmove whenever
 582:/Library/DaisyToolchain/0.2.0/arm/arm-none-eabi/include/c++/10.3.1/bits/stl_algobase.h ****    *  possible.  Failing that, if random access iterators are passed, then the
 583:/Library/DaisyToolchain/0.2.0/arm/arm-none-eabi/include/c++/10.3.1/bits/stl_algobase.h ****    *  loop count will be known (and therefore a candidate for compiler
 584:/Library/DaisyToolchain/0.2.0/arm/arm-none-eabi/include/c++/10.3.1/bits/stl_algobase.h ****    *  optimizations such as unrolling).  Result may not be contained within
 585:/Library/DaisyToolchain/0.2.0/arm/arm-none-eabi/include/c++/10.3.1/bits/stl_algobase.h ****    *  [first,last); the move_backward function should be used instead.
 586:/Library/DaisyToolchain/0.2.0/arm/arm-none-eabi/include/c++/10.3.1/bits/stl_algobase.h ****    *
 587:/Library/DaisyToolchain/0.2.0/arm/arm-none-eabi/include/c++/10.3.1/bits/stl_algobase.h ****    *  Note that the end of the output range is permitted to be contained
 588:/Library/DaisyToolchain/0.2.0/arm/arm-none-eabi/include/c++/10.3.1/bits/stl_algobase.h ****    *  within [first,last).
 589:/Library/DaisyToolchain/0.2.0/arm/arm-none-eabi/include/c++/10.3.1/bits/stl_algobase.h ****   */
 590:/Library/DaisyToolchain/0.2.0/arm/arm-none-eabi/include/c++/10.3.1/bits/stl_algobase.h ****   template<typename _II, typename _OI>
 591:/Library/DaisyToolchain/0.2.0/arm/arm-none-eabi/include/c++/10.3.1/bits/stl_algobase.h ****     _GLIBCXX20_CONSTEXPR
 592:/Library/DaisyToolchain/0.2.0/arm/arm-none-eabi/include/c++/10.3.1/bits/stl_algobase.h ****     inline _OI
 593:/Library/DaisyToolchain/0.2.0/arm/arm-none-eabi/include/c++/10.3.1/bits/stl_algobase.h ****     move(_II __first, _II __last, _OI __result)
 594:/Library/DaisyToolchain/0.2.0/arm/arm-none-eabi/include/c++/10.3.1/bits/stl_algobase.h ****     {
 595:/Library/DaisyToolchain/0.2.0/arm/arm-none-eabi/include/c++/10.3.1/bits/stl_algobase.h ****       // concept requirements
 596:/Library/DaisyToolchain/0.2.0/arm/arm-none-eabi/include/c++/10.3.1/bits/stl_algobase.h ****       __glibcxx_function_requires(_InputIteratorConcept<_II>)
 597:/Library/DaisyToolchain/0.2.0/arm/arm-none-eabi/include/c++/10.3.1/bits/stl_algobase.h ****       __glibcxx_function_requires(_OutputIteratorConcept<_OI,
 598:/Library/DaisyToolchain/0.2.0/arm/arm-none-eabi/include/c++/10.3.1/bits/stl_algobase.h **** 	    typename iterator_traits<_II>::value_type>)
 599:/Library/DaisyToolchain/0.2.0/arm/arm-none-eabi/include/c++/10.3.1/bits/stl_algobase.h ****       __glibcxx_requires_can_increment_range(__first, __last, __result);
 600:/Library/DaisyToolchain/0.2.0/arm/arm-none-eabi/include/c++/10.3.1/bits/stl_algobase.h **** 
 601:/Library/DaisyToolchain/0.2.0/arm/arm-none-eabi/include/c++/10.3.1/bits/stl_algobase.h ****       return std::__copy_move_a<true>(std::__miter_base(__first),
 602:/Library/DaisyToolchain/0.2.0/arm/arm-none-eabi/include/c++/10.3.1/bits/stl_algobase.h **** 				      std::__miter_base(__last), __result);
 603:/Library/DaisyToolchain/0.2.0/arm/arm-none-eabi/include/c++/10.3.1/bits/stl_algobase.h ****     }
 604:/Library/DaisyToolchain/0.2.0/arm/arm-none-eabi/include/c++/10.3.1/bits/stl_algobase.h **** 
 605:/Library/DaisyToolchain/0.2.0/arm/arm-none-eabi/include/c++/10.3.1/bits/stl_algobase.h **** #define _GLIBCXX_MOVE3(_Tp, _Up, _Vp) std::move(_Tp, _Up, _Vp)
 606:/Library/DaisyToolchain/0.2.0/arm/arm-none-eabi/include/c++/10.3.1/bits/stl_algobase.h **** #else
 607:/Library/DaisyToolchain/0.2.0/arm/arm-none-eabi/include/c++/10.3.1/bits/stl_algobase.h **** #define _GLIBCXX_MOVE3(_Tp, _Up, _Vp) std::copy(_Tp, _Up, _Vp)
 608:/Library/DaisyToolchain/0.2.0/arm/arm-none-eabi/include/c++/10.3.1/bits/stl_algobase.h **** #endif
 609:/Library/DaisyToolchain/0.2.0/arm/arm-none-eabi/include/c++/10.3.1/bits/stl_algobase.h **** 
 610:/Library/DaisyToolchain/0.2.0/arm/arm-none-eabi/include/c++/10.3.1/bits/stl_algobase.h ****   template<bool _IsMove, bool _IsSimple, typename _Category>
 611:/Library/DaisyToolchain/0.2.0/arm/arm-none-eabi/include/c++/10.3.1/bits/stl_algobase.h ****     struct __copy_move_backward
 612:/Library/DaisyToolchain/0.2.0/arm/arm-none-eabi/include/c++/10.3.1/bits/stl_algobase.h ****     {
 613:/Library/DaisyToolchain/0.2.0/arm/arm-none-eabi/include/c++/10.3.1/bits/stl_algobase.h ****       template<typename _BI1, typename _BI2>
 614:/Library/DaisyToolchain/0.2.0/arm/arm-none-eabi/include/c++/10.3.1/bits/stl_algobase.h **** 	_GLIBCXX20_CONSTEXPR
 615:/Library/DaisyToolchain/0.2.0/arm/arm-none-eabi/include/c++/10.3.1/bits/stl_algobase.h **** 	static _BI2
 616:/Library/DaisyToolchain/0.2.0/arm/arm-none-eabi/include/c++/10.3.1/bits/stl_algobase.h **** 	__copy_move_b(_BI1 __first, _BI1 __last, _BI2 __result)
 617:/Library/DaisyToolchain/0.2.0/arm/arm-none-eabi/include/c++/10.3.1/bits/stl_algobase.h **** 	{
 618:/Library/DaisyToolchain/0.2.0/arm/arm-none-eabi/include/c++/10.3.1/bits/stl_algobase.h **** 	  while (__first != __last)
 619:/Library/DaisyToolchain/0.2.0/arm/arm-none-eabi/include/c++/10.3.1/bits/stl_algobase.h **** 	    *--__result = *--__last;
ARM GAS  /var/folders/9s/8rp0_f2s1n31qbztm3b5_fdh0000gn/T//ccUUhLUh.s 			page 40


 620:/Library/DaisyToolchain/0.2.0/arm/arm-none-eabi/include/c++/10.3.1/bits/stl_algobase.h **** 	  return __result;
 621:/Library/DaisyToolchain/0.2.0/arm/arm-none-eabi/include/c++/10.3.1/bits/stl_algobase.h **** 	}
 622:/Library/DaisyToolchain/0.2.0/arm/arm-none-eabi/include/c++/10.3.1/bits/stl_algobase.h ****     };
 623:/Library/DaisyToolchain/0.2.0/arm/arm-none-eabi/include/c++/10.3.1/bits/stl_algobase.h **** 
 624:/Library/DaisyToolchain/0.2.0/arm/arm-none-eabi/include/c++/10.3.1/bits/stl_algobase.h **** #if __cplusplus >= 201103L
 625:/Library/DaisyToolchain/0.2.0/arm/arm-none-eabi/include/c++/10.3.1/bits/stl_algobase.h ****   template<typename _Category>
 626:/Library/DaisyToolchain/0.2.0/arm/arm-none-eabi/include/c++/10.3.1/bits/stl_algobase.h ****     struct __copy_move_backward<true, false, _Category>
 627:/Library/DaisyToolchain/0.2.0/arm/arm-none-eabi/include/c++/10.3.1/bits/stl_algobase.h ****     {
 628:/Library/DaisyToolchain/0.2.0/arm/arm-none-eabi/include/c++/10.3.1/bits/stl_algobase.h ****       template<typename _BI1, typename _BI2>
 629:/Library/DaisyToolchain/0.2.0/arm/arm-none-eabi/include/c++/10.3.1/bits/stl_algobase.h **** 	_GLIBCXX20_CONSTEXPR
 630:/Library/DaisyToolchain/0.2.0/arm/arm-none-eabi/include/c++/10.3.1/bits/stl_algobase.h **** 	static _BI2
 631:/Library/DaisyToolchain/0.2.0/arm/arm-none-eabi/include/c++/10.3.1/bits/stl_algobase.h **** 	__copy_move_b(_BI1 __first, _BI1 __last, _BI2 __result)
 632:/Library/DaisyToolchain/0.2.0/arm/arm-none-eabi/include/c++/10.3.1/bits/stl_algobase.h **** 	{
 633:/Library/DaisyToolchain/0.2.0/arm/arm-none-eabi/include/c++/10.3.1/bits/stl_algobase.h **** 	  while (__first != __last)
 634:/Library/DaisyToolchain/0.2.0/arm/arm-none-eabi/include/c++/10.3.1/bits/stl_algobase.h **** 	    *--__result = std::move(*--__last);
 635:/Library/DaisyToolchain/0.2.0/arm/arm-none-eabi/include/c++/10.3.1/bits/stl_algobase.h **** 	  return __result;
 636:/Library/DaisyToolchain/0.2.0/arm/arm-none-eabi/include/c++/10.3.1/bits/stl_algobase.h **** 	}
 637:/Library/DaisyToolchain/0.2.0/arm/arm-none-eabi/include/c++/10.3.1/bits/stl_algobase.h ****     };
 638:/Library/DaisyToolchain/0.2.0/arm/arm-none-eabi/include/c++/10.3.1/bits/stl_algobase.h **** #endif
 639:/Library/DaisyToolchain/0.2.0/arm/arm-none-eabi/include/c++/10.3.1/bits/stl_algobase.h **** 
 640:/Library/DaisyToolchain/0.2.0/arm/arm-none-eabi/include/c++/10.3.1/bits/stl_algobase.h ****   template<>
 641:/Library/DaisyToolchain/0.2.0/arm/arm-none-eabi/include/c++/10.3.1/bits/stl_algobase.h ****     struct __copy_move_backward<false, false, random_access_iterator_tag>
 642:/Library/DaisyToolchain/0.2.0/arm/arm-none-eabi/include/c++/10.3.1/bits/stl_algobase.h ****     {
 643:/Library/DaisyToolchain/0.2.0/arm/arm-none-eabi/include/c++/10.3.1/bits/stl_algobase.h ****       template<typename _BI1, typename _BI2>
 644:/Library/DaisyToolchain/0.2.0/arm/arm-none-eabi/include/c++/10.3.1/bits/stl_algobase.h **** 	_GLIBCXX20_CONSTEXPR
 645:/Library/DaisyToolchain/0.2.0/arm/arm-none-eabi/include/c++/10.3.1/bits/stl_algobase.h **** 	static _BI2
 646:/Library/DaisyToolchain/0.2.0/arm/arm-none-eabi/include/c++/10.3.1/bits/stl_algobase.h **** 	__copy_move_b(_BI1 __first, _BI1 __last, _BI2 __result)
 647:/Library/DaisyToolchain/0.2.0/arm/arm-none-eabi/include/c++/10.3.1/bits/stl_algobase.h **** 	{
 648:/Library/DaisyToolchain/0.2.0/arm/arm-none-eabi/include/c++/10.3.1/bits/stl_algobase.h **** 	  typename iterator_traits<_BI1>::difference_type
 649:/Library/DaisyToolchain/0.2.0/arm/arm-none-eabi/include/c++/10.3.1/bits/stl_algobase.h **** 	    __n = __last - __first;
 650:/Library/DaisyToolchain/0.2.0/arm/arm-none-eabi/include/c++/10.3.1/bits/stl_algobase.h **** 	  for (; __n > 0; --__n)
 651:/Library/DaisyToolchain/0.2.0/arm/arm-none-eabi/include/c++/10.3.1/bits/stl_algobase.h **** 	    *--__result = *--__last;
 652:/Library/DaisyToolchain/0.2.0/arm/arm-none-eabi/include/c++/10.3.1/bits/stl_algobase.h **** 	  return __result;
 653:/Library/DaisyToolchain/0.2.0/arm/arm-none-eabi/include/c++/10.3.1/bits/stl_algobase.h **** 	}
 654:/Library/DaisyToolchain/0.2.0/arm/arm-none-eabi/include/c++/10.3.1/bits/stl_algobase.h ****     };
 655:/Library/DaisyToolchain/0.2.0/arm/arm-none-eabi/include/c++/10.3.1/bits/stl_algobase.h **** 
 656:/Library/DaisyToolchain/0.2.0/arm/arm-none-eabi/include/c++/10.3.1/bits/stl_algobase.h **** #if __cplusplus >= 201103L
 657:/Library/DaisyToolchain/0.2.0/arm/arm-none-eabi/include/c++/10.3.1/bits/stl_algobase.h ****   template<>
 658:/Library/DaisyToolchain/0.2.0/arm/arm-none-eabi/include/c++/10.3.1/bits/stl_algobase.h ****     struct __copy_move_backward<true, false, random_access_iterator_tag>
 659:/Library/DaisyToolchain/0.2.0/arm/arm-none-eabi/include/c++/10.3.1/bits/stl_algobase.h ****     {
 660:/Library/DaisyToolchain/0.2.0/arm/arm-none-eabi/include/c++/10.3.1/bits/stl_algobase.h ****       template<typename _BI1, typename _BI2>
 661:/Library/DaisyToolchain/0.2.0/arm/arm-none-eabi/include/c++/10.3.1/bits/stl_algobase.h **** 	_GLIBCXX20_CONSTEXPR
 662:/Library/DaisyToolchain/0.2.0/arm/arm-none-eabi/include/c++/10.3.1/bits/stl_algobase.h **** 	static _BI2
 663:/Library/DaisyToolchain/0.2.0/arm/arm-none-eabi/include/c++/10.3.1/bits/stl_algobase.h **** 	__copy_move_b(_BI1 __first, _BI1 __last, _BI2 __result)
 664:/Library/DaisyToolchain/0.2.0/arm/arm-none-eabi/include/c++/10.3.1/bits/stl_algobase.h **** 	{
 665:/Library/DaisyToolchain/0.2.0/arm/arm-none-eabi/include/c++/10.3.1/bits/stl_algobase.h **** 	  typename iterator_traits<_BI1>::difference_type
 666:/Library/DaisyToolchain/0.2.0/arm/arm-none-eabi/include/c++/10.3.1/bits/stl_algobase.h **** 	    __n = __last - __first;
 667:/Library/DaisyToolchain/0.2.0/arm/arm-none-eabi/include/c++/10.3.1/bits/stl_algobase.h **** 	  for (; __n > 0; --__n)
 668:/Library/DaisyToolchain/0.2.0/arm/arm-none-eabi/include/c++/10.3.1/bits/stl_algobase.h **** 	    *--__result = std::move(*--__last);
 669:/Library/DaisyToolchain/0.2.0/arm/arm-none-eabi/include/c++/10.3.1/bits/stl_algobase.h **** 	  return __result;
 670:/Library/DaisyToolchain/0.2.0/arm/arm-none-eabi/include/c++/10.3.1/bits/stl_algobase.h **** 	}
 671:/Library/DaisyToolchain/0.2.0/arm/arm-none-eabi/include/c++/10.3.1/bits/stl_algobase.h ****     };
 672:/Library/DaisyToolchain/0.2.0/arm/arm-none-eabi/include/c++/10.3.1/bits/stl_algobase.h **** #endif
 673:/Library/DaisyToolchain/0.2.0/arm/arm-none-eabi/include/c++/10.3.1/bits/stl_algobase.h **** 
 674:/Library/DaisyToolchain/0.2.0/arm/arm-none-eabi/include/c++/10.3.1/bits/stl_algobase.h ****   template<bool _IsMove>
 675:/Library/DaisyToolchain/0.2.0/arm/arm-none-eabi/include/c++/10.3.1/bits/stl_algobase.h ****     struct __copy_move_backward<_IsMove, true, random_access_iterator_tag>
 676:/Library/DaisyToolchain/0.2.0/arm/arm-none-eabi/include/c++/10.3.1/bits/stl_algobase.h ****     {
ARM GAS  /var/folders/9s/8rp0_f2s1n31qbztm3b5_fdh0000gn/T//ccUUhLUh.s 			page 41


 677:/Library/DaisyToolchain/0.2.0/arm/arm-none-eabi/include/c++/10.3.1/bits/stl_algobase.h ****       template<typename _Tp>
 678:/Library/DaisyToolchain/0.2.0/arm/arm-none-eabi/include/c++/10.3.1/bits/stl_algobase.h **** 	_GLIBCXX20_CONSTEXPR
 679:/Library/DaisyToolchain/0.2.0/arm/arm-none-eabi/include/c++/10.3.1/bits/stl_algobase.h **** 	static _Tp*
 680:/Library/DaisyToolchain/0.2.0/arm/arm-none-eabi/include/c++/10.3.1/bits/stl_algobase.h **** 	__copy_move_b(const _Tp* __first, const _Tp* __last, _Tp* __result)
 681:/Library/DaisyToolchain/0.2.0/arm/arm-none-eabi/include/c++/10.3.1/bits/stl_algobase.h **** 	{
 682:/Library/DaisyToolchain/0.2.0/arm/arm-none-eabi/include/c++/10.3.1/bits/stl_algobase.h **** #if __cplusplus >= 201103L
 683:/Library/DaisyToolchain/0.2.0/arm/arm-none-eabi/include/c++/10.3.1/bits/stl_algobase.h **** 	  using __assignable = conditional<_IsMove,
 684:/Library/DaisyToolchain/0.2.0/arm/arm-none-eabi/include/c++/10.3.1/bits/stl_algobase.h **** 					   is_move_assignable<_Tp>,
 685:/Library/DaisyToolchain/0.2.0/arm/arm-none-eabi/include/c++/10.3.1/bits/stl_algobase.h **** 					   is_copy_assignable<_Tp>>;
 686:/Library/DaisyToolchain/0.2.0/arm/arm-none-eabi/include/c++/10.3.1/bits/stl_algobase.h **** 	  // trivial types can have deleted assignment
 687:/Library/DaisyToolchain/0.2.0/arm/arm-none-eabi/include/c++/10.3.1/bits/stl_algobase.h **** 	  static_assert( __assignable::type::value, "type is not assignable" );
 688:/Library/DaisyToolchain/0.2.0/arm/arm-none-eabi/include/c++/10.3.1/bits/stl_algobase.h **** #endif
 689:/Library/DaisyToolchain/0.2.0/arm/arm-none-eabi/include/c++/10.3.1/bits/stl_algobase.h **** 	  const ptrdiff_t _Num = __last - __first;
 690:/Library/DaisyToolchain/0.2.0/arm/arm-none-eabi/include/c++/10.3.1/bits/stl_algobase.h **** 	  if (_Num)
 691:/Library/DaisyToolchain/0.2.0/arm/arm-none-eabi/include/c++/10.3.1/bits/stl_algobase.h **** 	    __builtin_memmove(__result - _Num, __first, sizeof(_Tp) * _Num);
 692:/Library/DaisyToolchain/0.2.0/arm/arm-none-eabi/include/c++/10.3.1/bits/stl_algobase.h **** 	  return __result - _Num;
 693:/Library/DaisyToolchain/0.2.0/arm/arm-none-eabi/include/c++/10.3.1/bits/stl_algobase.h **** 	}
 694:/Library/DaisyToolchain/0.2.0/arm/arm-none-eabi/include/c++/10.3.1/bits/stl_algobase.h ****     };
 695:/Library/DaisyToolchain/0.2.0/arm/arm-none-eabi/include/c++/10.3.1/bits/stl_algobase.h **** 
 696:/Library/DaisyToolchain/0.2.0/arm/arm-none-eabi/include/c++/10.3.1/bits/stl_algobase.h ****   template<bool _IsMove, typename _BI1, typename _BI2>
 697:/Library/DaisyToolchain/0.2.0/arm/arm-none-eabi/include/c++/10.3.1/bits/stl_algobase.h ****     _GLIBCXX20_CONSTEXPR
 698:/Library/DaisyToolchain/0.2.0/arm/arm-none-eabi/include/c++/10.3.1/bits/stl_algobase.h ****     inline _BI2
 699:/Library/DaisyToolchain/0.2.0/arm/arm-none-eabi/include/c++/10.3.1/bits/stl_algobase.h ****     __copy_move_backward_a2(_BI1 __first, _BI1 __last, _BI2 __result)
 700:/Library/DaisyToolchain/0.2.0/arm/arm-none-eabi/include/c++/10.3.1/bits/stl_algobase.h ****     {
 701:/Library/DaisyToolchain/0.2.0/arm/arm-none-eabi/include/c++/10.3.1/bits/stl_algobase.h ****       typedef typename iterator_traits<_BI1>::iterator_category _Category;
 702:/Library/DaisyToolchain/0.2.0/arm/arm-none-eabi/include/c++/10.3.1/bits/stl_algobase.h **** #ifdef __cpp_lib_is_constant_evaluated
 703:/Library/DaisyToolchain/0.2.0/arm/arm-none-eabi/include/c++/10.3.1/bits/stl_algobase.h ****       if (std::is_constant_evaluated())
 704:/Library/DaisyToolchain/0.2.0/arm/arm-none-eabi/include/c++/10.3.1/bits/stl_algobase.h **** 	return std::__copy_move_backward<_IsMove, false, _Category>::
 705:/Library/DaisyToolchain/0.2.0/arm/arm-none-eabi/include/c++/10.3.1/bits/stl_algobase.h **** 	  __copy_move_b(__first, __last, __result);
 706:/Library/DaisyToolchain/0.2.0/arm/arm-none-eabi/include/c++/10.3.1/bits/stl_algobase.h **** #endif
 707:/Library/DaisyToolchain/0.2.0/arm/arm-none-eabi/include/c++/10.3.1/bits/stl_algobase.h ****       return std::__copy_move_backward<_IsMove,
 708:/Library/DaisyToolchain/0.2.0/arm/arm-none-eabi/include/c++/10.3.1/bits/stl_algobase.h **** 				       __memcpyable<_BI2, _BI1>::__value,
 709:/Library/DaisyToolchain/0.2.0/arm/arm-none-eabi/include/c++/10.3.1/bits/stl_algobase.h **** 				       _Category>::__copy_move_b(__first,
 710:/Library/DaisyToolchain/0.2.0/arm/arm-none-eabi/include/c++/10.3.1/bits/stl_algobase.h **** 								 __last,
 711:/Library/DaisyToolchain/0.2.0/arm/arm-none-eabi/include/c++/10.3.1/bits/stl_algobase.h **** 								 __result);
 712:/Library/DaisyToolchain/0.2.0/arm/arm-none-eabi/include/c++/10.3.1/bits/stl_algobase.h ****     }
 713:/Library/DaisyToolchain/0.2.0/arm/arm-none-eabi/include/c++/10.3.1/bits/stl_algobase.h **** 
 714:/Library/DaisyToolchain/0.2.0/arm/arm-none-eabi/include/c++/10.3.1/bits/stl_algobase.h ****   template<bool _IsMove, typename _BI1, typename _BI2>
 715:/Library/DaisyToolchain/0.2.0/arm/arm-none-eabi/include/c++/10.3.1/bits/stl_algobase.h ****     _GLIBCXX20_CONSTEXPR
 716:/Library/DaisyToolchain/0.2.0/arm/arm-none-eabi/include/c++/10.3.1/bits/stl_algobase.h ****     inline _BI2
 717:/Library/DaisyToolchain/0.2.0/arm/arm-none-eabi/include/c++/10.3.1/bits/stl_algobase.h ****     __copy_move_backward_a1(_BI1 __first, _BI1 __last, _BI2 __result)
 718:/Library/DaisyToolchain/0.2.0/arm/arm-none-eabi/include/c++/10.3.1/bits/stl_algobase.h ****     { return std::__copy_move_backward_a2<_IsMove>(__first, __last, __result); }
 719:/Library/DaisyToolchain/0.2.0/arm/arm-none-eabi/include/c++/10.3.1/bits/stl_algobase.h **** 
 720:/Library/DaisyToolchain/0.2.0/arm/arm-none-eabi/include/c++/10.3.1/bits/stl_algobase.h ****   template<bool _IsMove,
 721:/Library/DaisyToolchain/0.2.0/arm/arm-none-eabi/include/c++/10.3.1/bits/stl_algobase.h **** 	   typename _Tp, typename _Ref, typename _Ptr, typename _OI>
 722:/Library/DaisyToolchain/0.2.0/arm/arm-none-eabi/include/c++/10.3.1/bits/stl_algobase.h ****     _OI
 723:/Library/DaisyToolchain/0.2.0/arm/arm-none-eabi/include/c++/10.3.1/bits/stl_algobase.h ****     __copy_move_backward_a1(_GLIBCXX_STD_C::_Deque_iterator<_Tp, _Ref, _Ptr>,
 724:/Library/DaisyToolchain/0.2.0/arm/arm-none-eabi/include/c++/10.3.1/bits/stl_algobase.h **** 			    _GLIBCXX_STD_C::_Deque_iterator<_Tp, _Ref, _Ptr>,
 725:/Library/DaisyToolchain/0.2.0/arm/arm-none-eabi/include/c++/10.3.1/bits/stl_algobase.h **** 			    _OI);
 726:/Library/DaisyToolchain/0.2.0/arm/arm-none-eabi/include/c++/10.3.1/bits/stl_algobase.h **** 
 727:/Library/DaisyToolchain/0.2.0/arm/arm-none-eabi/include/c++/10.3.1/bits/stl_algobase.h ****   template<bool _IsMove,
 728:/Library/DaisyToolchain/0.2.0/arm/arm-none-eabi/include/c++/10.3.1/bits/stl_algobase.h **** 	   typename _ITp, typename _IRef, typename _IPtr, typename _OTp>
 729:/Library/DaisyToolchain/0.2.0/arm/arm-none-eabi/include/c++/10.3.1/bits/stl_algobase.h ****     _GLIBCXX_STD_C::_Deque_iterator<_OTp, _OTp&, _OTp*>
 730:/Library/DaisyToolchain/0.2.0/arm/arm-none-eabi/include/c++/10.3.1/bits/stl_algobase.h ****     __copy_move_backward_a1(
 731:/Library/DaisyToolchain/0.2.0/arm/arm-none-eabi/include/c++/10.3.1/bits/stl_algobase.h **** 			_GLIBCXX_STD_C::_Deque_iterator<_ITp, _IRef, _IPtr>,
 732:/Library/DaisyToolchain/0.2.0/arm/arm-none-eabi/include/c++/10.3.1/bits/stl_algobase.h **** 			_GLIBCXX_STD_C::_Deque_iterator<_ITp, _IRef, _IPtr>,
 733:/Library/DaisyToolchain/0.2.0/arm/arm-none-eabi/include/c++/10.3.1/bits/stl_algobase.h **** 			_GLIBCXX_STD_C::_Deque_iterator<_OTp, _OTp&, _OTp*>);
ARM GAS  /var/folders/9s/8rp0_f2s1n31qbztm3b5_fdh0000gn/T//ccUUhLUh.s 			page 42


 734:/Library/DaisyToolchain/0.2.0/arm/arm-none-eabi/include/c++/10.3.1/bits/stl_algobase.h **** 
 735:/Library/DaisyToolchain/0.2.0/arm/arm-none-eabi/include/c++/10.3.1/bits/stl_algobase.h ****   template<bool _IsMove, typename _II, typename _Tp>
 736:/Library/DaisyToolchain/0.2.0/arm/arm-none-eabi/include/c++/10.3.1/bits/stl_algobase.h ****     typename __gnu_cxx::__enable_if<
 737:/Library/DaisyToolchain/0.2.0/arm/arm-none-eabi/include/c++/10.3.1/bits/stl_algobase.h ****       __is_random_access_iter<_II>::__value,
 738:/Library/DaisyToolchain/0.2.0/arm/arm-none-eabi/include/c++/10.3.1/bits/stl_algobase.h ****       _GLIBCXX_STD_C::_Deque_iterator<_Tp, _Tp&, _Tp*> >::__type
 739:/Library/DaisyToolchain/0.2.0/arm/arm-none-eabi/include/c++/10.3.1/bits/stl_algobase.h ****     __copy_move_backward_a1(_II, _II,
 740:/Library/DaisyToolchain/0.2.0/arm/arm-none-eabi/include/c++/10.3.1/bits/stl_algobase.h **** 			    _GLIBCXX_STD_C::_Deque_iterator<_Tp, _Tp&, _Tp*>);
 741:/Library/DaisyToolchain/0.2.0/arm/arm-none-eabi/include/c++/10.3.1/bits/stl_algobase.h **** 
 742:/Library/DaisyToolchain/0.2.0/arm/arm-none-eabi/include/c++/10.3.1/bits/stl_algobase.h ****   template<bool _IsMove, typename _II, typename _OI>
 743:/Library/DaisyToolchain/0.2.0/arm/arm-none-eabi/include/c++/10.3.1/bits/stl_algobase.h ****     _GLIBCXX20_CONSTEXPR
 744:/Library/DaisyToolchain/0.2.0/arm/arm-none-eabi/include/c++/10.3.1/bits/stl_algobase.h ****     inline _OI
 745:/Library/DaisyToolchain/0.2.0/arm/arm-none-eabi/include/c++/10.3.1/bits/stl_algobase.h ****     __copy_move_backward_a(_II __first, _II __last, _OI __result)
 746:/Library/DaisyToolchain/0.2.0/arm/arm-none-eabi/include/c++/10.3.1/bits/stl_algobase.h ****     {
 747:/Library/DaisyToolchain/0.2.0/arm/arm-none-eabi/include/c++/10.3.1/bits/stl_algobase.h ****       return std::__niter_wrap(__result,
 748:/Library/DaisyToolchain/0.2.0/arm/arm-none-eabi/include/c++/10.3.1/bits/stl_algobase.h **** 		std::__copy_move_backward_a1<_IsMove>
 749:/Library/DaisyToolchain/0.2.0/arm/arm-none-eabi/include/c++/10.3.1/bits/stl_algobase.h **** 		  (std::__niter_base(__first), std::__niter_base(__last),
 750:/Library/DaisyToolchain/0.2.0/arm/arm-none-eabi/include/c++/10.3.1/bits/stl_algobase.h **** 		   std::__niter_base(__result)));
 751:/Library/DaisyToolchain/0.2.0/arm/arm-none-eabi/include/c++/10.3.1/bits/stl_algobase.h ****     }
 752:/Library/DaisyToolchain/0.2.0/arm/arm-none-eabi/include/c++/10.3.1/bits/stl_algobase.h **** 
 753:/Library/DaisyToolchain/0.2.0/arm/arm-none-eabi/include/c++/10.3.1/bits/stl_algobase.h ****   template<bool _IsMove,
 754:/Library/DaisyToolchain/0.2.0/arm/arm-none-eabi/include/c++/10.3.1/bits/stl_algobase.h **** 	   typename _Ite, typename _Seq, typename _Cat, typename _OI>
 755:/Library/DaisyToolchain/0.2.0/arm/arm-none-eabi/include/c++/10.3.1/bits/stl_algobase.h ****     _OI
 756:/Library/DaisyToolchain/0.2.0/arm/arm-none-eabi/include/c++/10.3.1/bits/stl_algobase.h ****     __copy_move_backward_a(
 757:/Library/DaisyToolchain/0.2.0/arm/arm-none-eabi/include/c++/10.3.1/bits/stl_algobase.h **** 		const ::__gnu_debug::_Safe_iterator<_Ite, _Seq, _Cat>&,
 758:/Library/DaisyToolchain/0.2.0/arm/arm-none-eabi/include/c++/10.3.1/bits/stl_algobase.h **** 		const ::__gnu_debug::_Safe_iterator<_Ite, _Seq, _Cat>&,
 759:/Library/DaisyToolchain/0.2.0/arm/arm-none-eabi/include/c++/10.3.1/bits/stl_algobase.h **** 		_OI);
 760:/Library/DaisyToolchain/0.2.0/arm/arm-none-eabi/include/c++/10.3.1/bits/stl_algobase.h **** 
 761:/Library/DaisyToolchain/0.2.0/arm/arm-none-eabi/include/c++/10.3.1/bits/stl_algobase.h ****   template<bool _IsMove,
 762:/Library/DaisyToolchain/0.2.0/arm/arm-none-eabi/include/c++/10.3.1/bits/stl_algobase.h **** 	   typename _II, typename _Ite, typename _Seq, typename _Cat>
 763:/Library/DaisyToolchain/0.2.0/arm/arm-none-eabi/include/c++/10.3.1/bits/stl_algobase.h ****     __gnu_debug::_Safe_iterator<_Ite, _Seq, _Cat>
 764:/Library/DaisyToolchain/0.2.0/arm/arm-none-eabi/include/c++/10.3.1/bits/stl_algobase.h ****     __copy_move_backward_a(_II, _II,
 765:/Library/DaisyToolchain/0.2.0/arm/arm-none-eabi/include/c++/10.3.1/bits/stl_algobase.h **** 		const ::__gnu_debug::_Safe_iterator<_Ite, _Seq, _Cat>&);
 766:/Library/DaisyToolchain/0.2.0/arm/arm-none-eabi/include/c++/10.3.1/bits/stl_algobase.h **** 
 767:/Library/DaisyToolchain/0.2.0/arm/arm-none-eabi/include/c++/10.3.1/bits/stl_algobase.h ****   template<bool _IsMove,
 768:/Library/DaisyToolchain/0.2.0/arm/arm-none-eabi/include/c++/10.3.1/bits/stl_algobase.h **** 	   typename _IIte, typename _ISeq, typename _ICat,
 769:/Library/DaisyToolchain/0.2.0/arm/arm-none-eabi/include/c++/10.3.1/bits/stl_algobase.h **** 	   typename _OIte, typename _OSeq, typename _OCat>
 770:/Library/DaisyToolchain/0.2.0/arm/arm-none-eabi/include/c++/10.3.1/bits/stl_algobase.h ****     ::__gnu_debug::_Safe_iterator<_OIte, _OSeq, _OCat>
 771:/Library/DaisyToolchain/0.2.0/arm/arm-none-eabi/include/c++/10.3.1/bits/stl_algobase.h ****     __copy_move_backward_a(
 772:/Library/DaisyToolchain/0.2.0/arm/arm-none-eabi/include/c++/10.3.1/bits/stl_algobase.h **** 		const ::__gnu_debug::_Safe_iterator<_IIte, _ISeq, _ICat>&,
 773:/Library/DaisyToolchain/0.2.0/arm/arm-none-eabi/include/c++/10.3.1/bits/stl_algobase.h **** 		const ::__gnu_debug::_Safe_iterator<_IIte, _ISeq, _ICat>&,
 774:/Library/DaisyToolchain/0.2.0/arm/arm-none-eabi/include/c++/10.3.1/bits/stl_algobase.h **** 		const ::__gnu_debug::_Safe_iterator<_OIte, _OSeq, _OCat>&);
 775:/Library/DaisyToolchain/0.2.0/arm/arm-none-eabi/include/c++/10.3.1/bits/stl_algobase.h **** 
 776:/Library/DaisyToolchain/0.2.0/arm/arm-none-eabi/include/c++/10.3.1/bits/stl_algobase.h ****   /**
 777:/Library/DaisyToolchain/0.2.0/arm/arm-none-eabi/include/c++/10.3.1/bits/stl_algobase.h ****    *  @brief Copies the range [first,last) into result.
 778:/Library/DaisyToolchain/0.2.0/arm/arm-none-eabi/include/c++/10.3.1/bits/stl_algobase.h ****    *  @ingroup mutating_algorithms
 779:/Library/DaisyToolchain/0.2.0/arm/arm-none-eabi/include/c++/10.3.1/bits/stl_algobase.h ****    *  @param  __first  A bidirectional iterator.
 780:/Library/DaisyToolchain/0.2.0/arm/arm-none-eabi/include/c++/10.3.1/bits/stl_algobase.h ****    *  @param  __last   A bidirectional iterator.
 781:/Library/DaisyToolchain/0.2.0/arm/arm-none-eabi/include/c++/10.3.1/bits/stl_algobase.h ****    *  @param  __result A bidirectional iterator.
 782:/Library/DaisyToolchain/0.2.0/arm/arm-none-eabi/include/c++/10.3.1/bits/stl_algobase.h ****    *  @return   result - (last - first)
 783:/Library/DaisyToolchain/0.2.0/arm/arm-none-eabi/include/c++/10.3.1/bits/stl_algobase.h ****    *
 784:/Library/DaisyToolchain/0.2.0/arm/arm-none-eabi/include/c++/10.3.1/bits/stl_algobase.h ****    *  The function has the same effect as copy, but starts at the end of the
 785:/Library/DaisyToolchain/0.2.0/arm/arm-none-eabi/include/c++/10.3.1/bits/stl_algobase.h ****    *  range and works its way to the start, returning the start of the result.
 786:/Library/DaisyToolchain/0.2.0/arm/arm-none-eabi/include/c++/10.3.1/bits/stl_algobase.h ****    *  This inline function will boil down to a call to @c memmove whenever
 787:/Library/DaisyToolchain/0.2.0/arm/arm-none-eabi/include/c++/10.3.1/bits/stl_algobase.h ****    *  possible.  Failing that, if random access iterators are passed, then the
 788:/Library/DaisyToolchain/0.2.0/arm/arm-none-eabi/include/c++/10.3.1/bits/stl_algobase.h ****    *  loop count will be known (and therefore a candidate for compiler
 789:/Library/DaisyToolchain/0.2.0/arm/arm-none-eabi/include/c++/10.3.1/bits/stl_algobase.h ****    *  optimizations such as unrolling).
 790:/Library/DaisyToolchain/0.2.0/arm/arm-none-eabi/include/c++/10.3.1/bits/stl_algobase.h ****    *
ARM GAS  /var/folders/9s/8rp0_f2s1n31qbztm3b5_fdh0000gn/T//ccUUhLUh.s 			page 43


 791:/Library/DaisyToolchain/0.2.0/arm/arm-none-eabi/include/c++/10.3.1/bits/stl_algobase.h ****    *  Result may not be in the range (first,last].  Use copy instead.  Note
 792:/Library/DaisyToolchain/0.2.0/arm/arm-none-eabi/include/c++/10.3.1/bits/stl_algobase.h ****    *  that the start of the output range may overlap [first,last).
 793:/Library/DaisyToolchain/0.2.0/arm/arm-none-eabi/include/c++/10.3.1/bits/stl_algobase.h ****   */
 794:/Library/DaisyToolchain/0.2.0/arm/arm-none-eabi/include/c++/10.3.1/bits/stl_algobase.h ****   template<typename _BI1, typename _BI2>
 795:/Library/DaisyToolchain/0.2.0/arm/arm-none-eabi/include/c++/10.3.1/bits/stl_algobase.h ****     _GLIBCXX20_CONSTEXPR
 796:/Library/DaisyToolchain/0.2.0/arm/arm-none-eabi/include/c++/10.3.1/bits/stl_algobase.h ****     inline _BI2
 797:/Library/DaisyToolchain/0.2.0/arm/arm-none-eabi/include/c++/10.3.1/bits/stl_algobase.h ****     copy_backward(_BI1 __first, _BI1 __last, _BI2 __result)
 798:/Library/DaisyToolchain/0.2.0/arm/arm-none-eabi/include/c++/10.3.1/bits/stl_algobase.h ****     {
 799:/Library/DaisyToolchain/0.2.0/arm/arm-none-eabi/include/c++/10.3.1/bits/stl_algobase.h ****       // concept requirements
 800:/Library/DaisyToolchain/0.2.0/arm/arm-none-eabi/include/c++/10.3.1/bits/stl_algobase.h ****       __glibcxx_function_requires(_BidirectionalIteratorConcept<_BI1>)
 801:/Library/DaisyToolchain/0.2.0/arm/arm-none-eabi/include/c++/10.3.1/bits/stl_algobase.h ****       __glibcxx_function_requires(_Mutable_BidirectionalIteratorConcept<_BI2>)
 802:/Library/DaisyToolchain/0.2.0/arm/arm-none-eabi/include/c++/10.3.1/bits/stl_algobase.h ****       __glibcxx_function_requires(_ConvertibleConcept<
 803:/Library/DaisyToolchain/0.2.0/arm/arm-none-eabi/include/c++/10.3.1/bits/stl_algobase.h **** 	    typename iterator_traits<_BI1>::value_type,
 804:/Library/DaisyToolchain/0.2.0/arm/arm-none-eabi/include/c++/10.3.1/bits/stl_algobase.h **** 	    typename iterator_traits<_BI2>::value_type>)
 805:/Library/DaisyToolchain/0.2.0/arm/arm-none-eabi/include/c++/10.3.1/bits/stl_algobase.h ****       __glibcxx_requires_can_decrement_range(__first, __last, __result);
 806:/Library/DaisyToolchain/0.2.0/arm/arm-none-eabi/include/c++/10.3.1/bits/stl_algobase.h **** 
 807:/Library/DaisyToolchain/0.2.0/arm/arm-none-eabi/include/c++/10.3.1/bits/stl_algobase.h ****       return std::__copy_move_backward_a<__is_move_iterator<_BI1>::__value>
 808:/Library/DaisyToolchain/0.2.0/arm/arm-none-eabi/include/c++/10.3.1/bits/stl_algobase.h **** 	     (std::__miter_base(__first), std::__miter_base(__last), __result);
 809:/Library/DaisyToolchain/0.2.0/arm/arm-none-eabi/include/c++/10.3.1/bits/stl_algobase.h ****     }
 810:/Library/DaisyToolchain/0.2.0/arm/arm-none-eabi/include/c++/10.3.1/bits/stl_algobase.h **** 
 811:/Library/DaisyToolchain/0.2.0/arm/arm-none-eabi/include/c++/10.3.1/bits/stl_algobase.h **** #if __cplusplus >= 201103L
 812:/Library/DaisyToolchain/0.2.0/arm/arm-none-eabi/include/c++/10.3.1/bits/stl_algobase.h ****   /**
 813:/Library/DaisyToolchain/0.2.0/arm/arm-none-eabi/include/c++/10.3.1/bits/stl_algobase.h ****    *  @brief Moves the range [first,last) into result.
 814:/Library/DaisyToolchain/0.2.0/arm/arm-none-eabi/include/c++/10.3.1/bits/stl_algobase.h ****    *  @ingroup mutating_algorithms
 815:/Library/DaisyToolchain/0.2.0/arm/arm-none-eabi/include/c++/10.3.1/bits/stl_algobase.h ****    *  @param  __first  A bidirectional iterator.
 816:/Library/DaisyToolchain/0.2.0/arm/arm-none-eabi/include/c++/10.3.1/bits/stl_algobase.h ****    *  @param  __last   A bidirectional iterator.
 817:/Library/DaisyToolchain/0.2.0/arm/arm-none-eabi/include/c++/10.3.1/bits/stl_algobase.h ****    *  @param  __result A bidirectional iterator.
 818:/Library/DaisyToolchain/0.2.0/arm/arm-none-eabi/include/c++/10.3.1/bits/stl_algobase.h ****    *  @return   result - (last - first)
 819:/Library/DaisyToolchain/0.2.0/arm/arm-none-eabi/include/c++/10.3.1/bits/stl_algobase.h ****    *
 820:/Library/DaisyToolchain/0.2.0/arm/arm-none-eabi/include/c++/10.3.1/bits/stl_algobase.h ****    *  The function has the same effect as move, but starts at the end of the
 821:/Library/DaisyToolchain/0.2.0/arm/arm-none-eabi/include/c++/10.3.1/bits/stl_algobase.h ****    *  range and works its way to the start, returning the start of the result.
 822:/Library/DaisyToolchain/0.2.0/arm/arm-none-eabi/include/c++/10.3.1/bits/stl_algobase.h ****    *  This inline function will boil down to a call to @c memmove whenever
 823:/Library/DaisyToolchain/0.2.0/arm/arm-none-eabi/include/c++/10.3.1/bits/stl_algobase.h ****    *  possible.  Failing that, if random access iterators are passed, then the
 824:/Library/DaisyToolchain/0.2.0/arm/arm-none-eabi/include/c++/10.3.1/bits/stl_algobase.h ****    *  loop count will be known (and therefore a candidate for compiler
 825:/Library/DaisyToolchain/0.2.0/arm/arm-none-eabi/include/c++/10.3.1/bits/stl_algobase.h ****    *  optimizations such as unrolling).
 826:/Library/DaisyToolchain/0.2.0/arm/arm-none-eabi/include/c++/10.3.1/bits/stl_algobase.h ****    *
 827:/Library/DaisyToolchain/0.2.0/arm/arm-none-eabi/include/c++/10.3.1/bits/stl_algobase.h ****    *  Result may not be in the range (first,last].  Use move instead.  Note
 828:/Library/DaisyToolchain/0.2.0/arm/arm-none-eabi/include/c++/10.3.1/bits/stl_algobase.h ****    *  that the start of the output range may overlap [first,last).
 829:/Library/DaisyToolchain/0.2.0/arm/arm-none-eabi/include/c++/10.3.1/bits/stl_algobase.h ****   */
 830:/Library/DaisyToolchain/0.2.0/arm/arm-none-eabi/include/c++/10.3.1/bits/stl_algobase.h ****   template<typename _BI1, typename _BI2>
 831:/Library/DaisyToolchain/0.2.0/arm/arm-none-eabi/include/c++/10.3.1/bits/stl_algobase.h ****     _GLIBCXX20_CONSTEXPR
 832:/Library/DaisyToolchain/0.2.0/arm/arm-none-eabi/include/c++/10.3.1/bits/stl_algobase.h ****     inline _BI2
 833:/Library/DaisyToolchain/0.2.0/arm/arm-none-eabi/include/c++/10.3.1/bits/stl_algobase.h ****     move_backward(_BI1 __first, _BI1 __last, _BI2 __result)
 834:/Library/DaisyToolchain/0.2.0/arm/arm-none-eabi/include/c++/10.3.1/bits/stl_algobase.h ****     {
 835:/Library/DaisyToolchain/0.2.0/arm/arm-none-eabi/include/c++/10.3.1/bits/stl_algobase.h ****       // concept requirements
 836:/Library/DaisyToolchain/0.2.0/arm/arm-none-eabi/include/c++/10.3.1/bits/stl_algobase.h ****       __glibcxx_function_requires(_BidirectionalIteratorConcept<_BI1>)
 837:/Library/DaisyToolchain/0.2.0/arm/arm-none-eabi/include/c++/10.3.1/bits/stl_algobase.h ****       __glibcxx_function_requires(_Mutable_BidirectionalIteratorConcept<_BI2>)
 838:/Library/DaisyToolchain/0.2.0/arm/arm-none-eabi/include/c++/10.3.1/bits/stl_algobase.h ****       __glibcxx_function_requires(_ConvertibleConcept<
 839:/Library/DaisyToolchain/0.2.0/arm/arm-none-eabi/include/c++/10.3.1/bits/stl_algobase.h **** 	    typename iterator_traits<_BI1>::value_type,
 840:/Library/DaisyToolchain/0.2.0/arm/arm-none-eabi/include/c++/10.3.1/bits/stl_algobase.h **** 	    typename iterator_traits<_BI2>::value_type>)
 841:/Library/DaisyToolchain/0.2.0/arm/arm-none-eabi/include/c++/10.3.1/bits/stl_algobase.h ****       __glibcxx_requires_can_decrement_range(__first, __last, __result);
 842:/Library/DaisyToolchain/0.2.0/arm/arm-none-eabi/include/c++/10.3.1/bits/stl_algobase.h **** 
 843:/Library/DaisyToolchain/0.2.0/arm/arm-none-eabi/include/c++/10.3.1/bits/stl_algobase.h ****       return std::__copy_move_backward_a<true>(std::__miter_base(__first),
 844:/Library/DaisyToolchain/0.2.0/arm/arm-none-eabi/include/c++/10.3.1/bits/stl_algobase.h **** 					       std::__miter_base(__last),
 845:/Library/DaisyToolchain/0.2.0/arm/arm-none-eabi/include/c++/10.3.1/bits/stl_algobase.h **** 					       __result);
 846:/Library/DaisyToolchain/0.2.0/arm/arm-none-eabi/include/c++/10.3.1/bits/stl_algobase.h ****     }
 847:/Library/DaisyToolchain/0.2.0/arm/arm-none-eabi/include/c++/10.3.1/bits/stl_algobase.h **** 
ARM GAS  /var/folders/9s/8rp0_f2s1n31qbztm3b5_fdh0000gn/T//ccUUhLUh.s 			page 44


 848:/Library/DaisyToolchain/0.2.0/arm/arm-none-eabi/include/c++/10.3.1/bits/stl_algobase.h **** #define _GLIBCXX_MOVE_BACKWARD3(_Tp, _Up, _Vp) std::move_backward(_Tp, _Up, _Vp)
 849:/Library/DaisyToolchain/0.2.0/arm/arm-none-eabi/include/c++/10.3.1/bits/stl_algobase.h **** #else
 850:/Library/DaisyToolchain/0.2.0/arm/arm-none-eabi/include/c++/10.3.1/bits/stl_algobase.h **** #define _GLIBCXX_MOVE_BACKWARD3(_Tp, _Up, _Vp) std::copy_backward(_Tp, _Up, _Vp)
 851:/Library/DaisyToolchain/0.2.0/arm/arm-none-eabi/include/c++/10.3.1/bits/stl_algobase.h **** #endif
 852:/Library/DaisyToolchain/0.2.0/arm/arm-none-eabi/include/c++/10.3.1/bits/stl_algobase.h **** 
 853:/Library/DaisyToolchain/0.2.0/arm/arm-none-eabi/include/c++/10.3.1/bits/stl_algobase.h ****   template<typename _ForwardIterator, typename _Tp>
 854:/Library/DaisyToolchain/0.2.0/arm/arm-none-eabi/include/c++/10.3.1/bits/stl_algobase.h ****     _GLIBCXX20_CONSTEXPR
 855:/Library/DaisyToolchain/0.2.0/arm/arm-none-eabi/include/c++/10.3.1/bits/stl_algobase.h ****     inline typename
 856:/Library/DaisyToolchain/0.2.0/arm/arm-none-eabi/include/c++/10.3.1/bits/stl_algobase.h ****     __gnu_cxx::__enable_if<!__is_scalar<_Tp>::__value, void>::__type
 857:/Library/DaisyToolchain/0.2.0/arm/arm-none-eabi/include/c++/10.3.1/bits/stl_algobase.h ****     __fill_a1(_ForwardIterator __first, _ForwardIterator __last,
 858:/Library/DaisyToolchain/0.2.0/arm/arm-none-eabi/include/c++/10.3.1/bits/stl_algobase.h **** 	      const _Tp& __value)
 859:/Library/DaisyToolchain/0.2.0/arm/arm-none-eabi/include/c++/10.3.1/bits/stl_algobase.h ****     {
 860:/Library/DaisyToolchain/0.2.0/arm/arm-none-eabi/include/c++/10.3.1/bits/stl_algobase.h ****       for (; __first != __last; ++__first)
 861:/Library/DaisyToolchain/0.2.0/arm/arm-none-eabi/include/c++/10.3.1/bits/stl_algobase.h **** 	*__first = __value;
 862:/Library/DaisyToolchain/0.2.0/arm/arm-none-eabi/include/c++/10.3.1/bits/stl_algobase.h ****     }
 863:/Library/DaisyToolchain/0.2.0/arm/arm-none-eabi/include/c++/10.3.1/bits/stl_algobase.h **** 
 864:/Library/DaisyToolchain/0.2.0/arm/arm-none-eabi/include/c++/10.3.1/bits/stl_algobase.h ****   template<typename _ForwardIterator, typename _Tp>
 865:/Library/DaisyToolchain/0.2.0/arm/arm-none-eabi/include/c++/10.3.1/bits/stl_algobase.h ****     _GLIBCXX20_CONSTEXPR
 866:/Library/DaisyToolchain/0.2.0/arm/arm-none-eabi/include/c++/10.3.1/bits/stl_algobase.h ****     inline typename
 867:/Library/DaisyToolchain/0.2.0/arm/arm-none-eabi/include/c++/10.3.1/bits/stl_algobase.h ****     __gnu_cxx::__enable_if<__is_scalar<_Tp>::__value, void>::__type
 868:/Library/DaisyToolchain/0.2.0/arm/arm-none-eabi/include/c++/10.3.1/bits/stl_algobase.h ****     __fill_a1(_ForwardIterator __first, _ForwardIterator __last,
 869:/Library/DaisyToolchain/0.2.0/arm/arm-none-eabi/include/c++/10.3.1/bits/stl_algobase.h **** 	      const _Tp& __value)
 870:/Library/DaisyToolchain/0.2.0/arm/arm-none-eabi/include/c++/10.3.1/bits/stl_algobase.h ****     {
 871:/Library/DaisyToolchain/0.2.0/arm/arm-none-eabi/include/c++/10.3.1/bits/stl_algobase.h ****       const _Tp __tmp = __value;
 872:/Library/DaisyToolchain/0.2.0/arm/arm-none-eabi/include/c++/10.3.1/bits/stl_algobase.h ****       for (; __first != __last; ++__first)
 873:/Library/DaisyToolchain/0.2.0/arm/arm-none-eabi/include/c++/10.3.1/bits/stl_algobase.h **** 	*__first = __tmp;
 769              		.loc 4 873 11 view .LVU206
 770 01aa 0021     		movs	r1, #0
 771 01ac 1846     		mov	r0, r3
 772              	.LBE234:
 773              	.LBE233:
 774              	.LBE232:
 775              	.LBE231:
 124:eurorack/plaits/dsp/speech/naive_speech_synth.cc ****   float r = vocal_register * (kNaiveSpeechNumRegisters - 1.001f);
 125:eurorack/plaits/dsp/speech/naive_speech_synth.cc ****   
 126:eurorack/plaits/dsp/speech/naive_speech_synth.cc ****   MAKE_INTEGRAL_FRACTIONAL(p);
 127:eurorack/plaits/dsp/speech/naive_speech_synth.cc ****   MAKE_INTEGRAL_FRACTIONAL(r);
 128:eurorack/plaits/dsp/speech/naive_speech_synth.cc ****   
 129:eurorack/plaits/dsp/speech/naive_speech_synth.cc ****   fill(&output[0], &output[size], 0.0f);
 776              		.loc 2 129 7 view .LVU207
 777 01ae 9F18     		adds	r7, r3, r2
 123:eurorack/plaits/dsp/speech/naive_speech_synth.cc ****   float r = vocal_register * (kNaiveSpeechNumRegisters - 1.001f);
 778              		.loc 2 123 9 view .LVU208
 779 01b0 60EE880A 		vmul.f32	s1, s1, s16
 780              	.LVL59:
 124:eurorack/plaits/dsp/speech/naive_speech_synth.cc ****   float r = vocal_register * (kNaiveSpeechNumRegisters - 1.001f);
 781              		.loc 2 124 3 is_stmt 1 view .LVU209
 124:eurorack/plaits/dsp/speech/naive_speech_synth.cc ****   float r = vocal_register * (kNaiveSpeechNumRegisters - 1.001f);
 782              		.loc 2 124 9 is_stmt 0 view .LVU210
 783 01b4 21EE088A 		vmul.f32	s16, s2, s16
 784              	.LVL60:
 126:eurorack/plaits/dsp/speech/naive_speech_synth.cc ****   MAKE_INTEGRAL_FRACTIONAL(r);
 785              		.loc 2 126 3 is_stmt 1 view .LVU211
 786 01b8 BDEEE0AA 		vcvt.s32.f32	s20, s1
 787              	.LVL61:
 126:eurorack/plaits/dsp/speech/naive_speech_synth.cc ****   MAKE_INTEGRAL_FRACTIONAL(r);
 788              		.loc 2 126 3 view .LVU212
ARM GAS  /var/folders/9s/8rp0_f2s1n31qbztm3b5_fdh0000gn/T//ccUUhLUh.s 			page 45


 127:eurorack/plaits/dsp/speech/naive_speech_synth.cc ****   
 789              		.loc 2 127 3 is_stmt 0 view .LVU213
 790 01bc FDEEC89A 		vcvt.s32.f32	s19, s16
 126:eurorack/plaits/dsp/speech/naive_speech_synth.cc ****   MAKE_INTEGRAL_FRACTIONAL(r);
 791              		.loc 2 126 3 view .LVU214
 792 01c0 B8EECA9A 		vcvt.f32.s32	s18, s20
 127:eurorack/plaits/dsp/speech/naive_speech_synth.cc ****   
 793              		.loc 2 127 3 view .LVU215
 794 01c4 B8EEE91A 		vcvt.f32.s32	s2, s19
 795              	.LVL62:
 126:eurorack/plaits/dsp/speech/naive_speech_synth.cc ****   MAKE_INTEGRAL_FRACTIONAL(r);
 796              		.loc 2 126 3 view .LVU216
 797 01c8 30EEC99A 		vsub.f32	s18, s1, s18
 798              	.LVL63:
 126:eurorack/plaits/dsp/speech/naive_speech_synth.cc ****   MAKE_INTEGRAL_FRACTIONAL(r);
 799              		.loc 2 126 30 is_stmt 1 view .LVU217
 127:eurorack/plaits/dsp/speech/naive_speech_synth.cc ****   
 800              		.loc 2 127 3 view .LVU218
 127:eurorack/plaits/dsp/speech/naive_speech_synth.cc ****   
 801              		.loc 2 127 3 view .LVU219
 802 01cc 38EE418A 		vsub.f32	s16, s16, s2
 803              	.LVL64:
 127:eurorack/plaits/dsp/speech/naive_speech_synth.cc ****   
 804              		.loc 2 127 30 view .LVU220
 805              		.loc 2 129 3 view .LVU221
 806              	.LBB238:
 807              	.LBI231:
 874:/Library/DaisyToolchain/0.2.0/arm/arm-none-eabi/include/c++/10.3.1/bits/stl_algobase.h ****     }
 875:/Library/DaisyToolchain/0.2.0/arm/arm-none-eabi/include/c++/10.3.1/bits/stl_algobase.h **** 
 876:/Library/DaisyToolchain/0.2.0/arm/arm-none-eabi/include/c++/10.3.1/bits/stl_algobase.h ****   // Specialization: for char types we can use memset.
 877:/Library/DaisyToolchain/0.2.0/arm/arm-none-eabi/include/c++/10.3.1/bits/stl_algobase.h ****   template<typename _Tp>
 878:/Library/DaisyToolchain/0.2.0/arm/arm-none-eabi/include/c++/10.3.1/bits/stl_algobase.h ****     _GLIBCXX20_CONSTEXPR
 879:/Library/DaisyToolchain/0.2.0/arm/arm-none-eabi/include/c++/10.3.1/bits/stl_algobase.h ****     inline typename
 880:/Library/DaisyToolchain/0.2.0/arm/arm-none-eabi/include/c++/10.3.1/bits/stl_algobase.h ****     __gnu_cxx::__enable_if<__is_byte<_Tp>::__value, void>::__type
 881:/Library/DaisyToolchain/0.2.0/arm/arm-none-eabi/include/c++/10.3.1/bits/stl_algobase.h ****     __fill_a1(_Tp* __first, _Tp* __last, const _Tp& __c)
 882:/Library/DaisyToolchain/0.2.0/arm/arm-none-eabi/include/c++/10.3.1/bits/stl_algobase.h ****     {
 883:/Library/DaisyToolchain/0.2.0/arm/arm-none-eabi/include/c++/10.3.1/bits/stl_algobase.h ****       const _Tp __tmp = __c;
 884:/Library/DaisyToolchain/0.2.0/arm/arm-none-eabi/include/c++/10.3.1/bits/stl_algobase.h **** #if __cpp_lib_is_constant_evaluated
 885:/Library/DaisyToolchain/0.2.0/arm/arm-none-eabi/include/c++/10.3.1/bits/stl_algobase.h ****       if (std::is_constant_evaluated())
 886:/Library/DaisyToolchain/0.2.0/arm/arm-none-eabi/include/c++/10.3.1/bits/stl_algobase.h **** 	{
 887:/Library/DaisyToolchain/0.2.0/arm/arm-none-eabi/include/c++/10.3.1/bits/stl_algobase.h **** 	  for (; __first != __last; ++__first)
 888:/Library/DaisyToolchain/0.2.0/arm/arm-none-eabi/include/c++/10.3.1/bits/stl_algobase.h **** 	    *__first = __tmp;
 889:/Library/DaisyToolchain/0.2.0/arm/arm-none-eabi/include/c++/10.3.1/bits/stl_algobase.h **** 	  return;
 890:/Library/DaisyToolchain/0.2.0/arm/arm-none-eabi/include/c++/10.3.1/bits/stl_algobase.h **** 	}
 891:/Library/DaisyToolchain/0.2.0/arm/arm-none-eabi/include/c++/10.3.1/bits/stl_algobase.h **** #endif
 892:/Library/DaisyToolchain/0.2.0/arm/arm-none-eabi/include/c++/10.3.1/bits/stl_algobase.h ****       if (const size_t __len = __last - __first)
 893:/Library/DaisyToolchain/0.2.0/arm/arm-none-eabi/include/c++/10.3.1/bits/stl_algobase.h **** 	__builtin_memset(__first, static_cast<unsigned char>(__tmp), __len);
 894:/Library/DaisyToolchain/0.2.0/arm/arm-none-eabi/include/c++/10.3.1/bits/stl_algobase.h ****     }
 895:/Library/DaisyToolchain/0.2.0/arm/arm-none-eabi/include/c++/10.3.1/bits/stl_algobase.h **** 
 896:/Library/DaisyToolchain/0.2.0/arm/arm-none-eabi/include/c++/10.3.1/bits/stl_algobase.h ****   template<typename _Ite, typename _Cont, typename _Tp>
 897:/Library/DaisyToolchain/0.2.0/arm/arm-none-eabi/include/c++/10.3.1/bits/stl_algobase.h ****     _GLIBCXX20_CONSTEXPR
 898:/Library/DaisyToolchain/0.2.0/arm/arm-none-eabi/include/c++/10.3.1/bits/stl_algobase.h ****     inline void
 899:/Library/DaisyToolchain/0.2.0/arm/arm-none-eabi/include/c++/10.3.1/bits/stl_algobase.h ****     __fill_a1(::__gnu_cxx::__normal_iterator<_Ite, _Cont> __first,
 900:/Library/DaisyToolchain/0.2.0/arm/arm-none-eabi/include/c++/10.3.1/bits/stl_algobase.h **** 	      ::__gnu_cxx::__normal_iterator<_Ite, _Cont> __last,
 901:/Library/DaisyToolchain/0.2.0/arm/arm-none-eabi/include/c++/10.3.1/bits/stl_algobase.h **** 	      const _Tp& __value)
 902:/Library/DaisyToolchain/0.2.0/arm/arm-none-eabi/include/c++/10.3.1/bits/stl_algobase.h ****     { std::__fill_a1(__first.base(), __last.base(), __value); }
 903:/Library/DaisyToolchain/0.2.0/arm/arm-none-eabi/include/c++/10.3.1/bits/stl_algobase.h **** 
ARM GAS  /var/folders/9s/8rp0_f2s1n31qbztm3b5_fdh0000gn/T//ccUUhLUh.s 			page 46


 904:/Library/DaisyToolchain/0.2.0/arm/arm-none-eabi/include/c++/10.3.1/bits/stl_algobase.h ****   template<typename _Tp, typename _VTp>
 905:/Library/DaisyToolchain/0.2.0/arm/arm-none-eabi/include/c++/10.3.1/bits/stl_algobase.h ****     void
 906:/Library/DaisyToolchain/0.2.0/arm/arm-none-eabi/include/c++/10.3.1/bits/stl_algobase.h ****     __fill_a1(const _GLIBCXX_STD_C::_Deque_iterator<_Tp, _Tp&, _Tp*>&,
 907:/Library/DaisyToolchain/0.2.0/arm/arm-none-eabi/include/c++/10.3.1/bits/stl_algobase.h **** 	      const _GLIBCXX_STD_C::_Deque_iterator<_Tp, _Tp&, _Tp*>&,
 908:/Library/DaisyToolchain/0.2.0/arm/arm-none-eabi/include/c++/10.3.1/bits/stl_algobase.h **** 	      const _VTp&);
 909:/Library/DaisyToolchain/0.2.0/arm/arm-none-eabi/include/c++/10.3.1/bits/stl_algobase.h **** 
 910:/Library/DaisyToolchain/0.2.0/arm/arm-none-eabi/include/c++/10.3.1/bits/stl_algobase.h ****   template<typename _FIte, typename _Tp>
 911:/Library/DaisyToolchain/0.2.0/arm/arm-none-eabi/include/c++/10.3.1/bits/stl_algobase.h ****     _GLIBCXX20_CONSTEXPR
 912:/Library/DaisyToolchain/0.2.0/arm/arm-none-eabi/include/c++/10.3.1/bits/stl_algobase.h ****     inline void
 913:/Library/DaisyToolchain/0.2.0/arm/arm-none-eabi/include/c++/10.3.1/bits/stl_algobase.h ****     __fill_a(_FIte __first, _FIte __last, const _Tp& __value)
 914:/Library/DaisyToolchain/0.2.0/arm/arm-none-eabi/include/c++/10.3.1/bits/stl_algobase.h ****     { std::__fill_a1(__first, __last, __value); }
 915:/Library/DaisyToolchain/0.2.0/arm/arm-none-eabi/include/c++/10.3.1/bits/stl_algobase.h **** 
 916:/Library/DaisyToolchain/0.2.0/arm/arm-none-eabi/include/c++/10.3.1/bits/stl_algobase.h ****   template<typename _Ite, typename _Seq, typename _Cat, typename _Tp>
 917:/Library/DaisyToolchain/0.2.0/arm/arm-none-eabi/include/c++/10.3.1/bits/stl_algobase.h ****     void
 918:/Library/DaisyToolchain/0.2.0/arm/arm-none-eabi/include/c++/10.3.1/bits/stl_algobase.h ****     __fill_a(const ::__gnu_debug::_Safe_iterator<_Ite, _Seq, _Cat>&,
 919:/Library/DaisyToolchain/0.2.0/arm/arm-none-eabi/include/c++/10.3.1/bits/stl_algobase.h **** 	     const ::__gnu_debug::_Safe_iterator<_Ite, _Seq, _Cat>&,
 920:/Library/DaisyToolchain/0.2.0/arm/arm-none-eabi/include/c++/10.3.1/bits/stl_algobase.h **** 	     const _Tp&);
 921:/Library/DaisyToolchain/0.2.0/arm/arm-none-eabi/include/c++/10.3.1/bits/stl_algobase.h **** 
 922:/Library/DaisyToolchain/0.2.0/arm/arm-none-eabi/include/c++/10.3.1/bits/stl_algobase.h ****   /**
 923:/Library/DaisyToolchain/0.2.0/arm/arm-none-eabi/include/c++/10.3.1/bits/stl_algobase.h ****    *  @brief Fills the range [first,last) with copies of value.
 924:/Library/DaisyToolchain/0.2.0/arm/arm-none-eabi/include/c++/10.3.1/bits/stl_algobase.h ****    *  @ingroup mutating_algorithms
 925:/Library/DaisyToolchain/0.2.0/arm/arm-none-eabi/include/c++/10.3.1/bits/stl_algobase.h ****    *  @param  __first  A forward iterator.
 926:/Library/DaisyToolchain/0.2.0/arm/arm-none-eabi/include/c++/10.3.1/bits/stl_algobase.h ****    *  @param  __last   A forward iterator.
 927:/Library/DaisyToolchain/0.2.0/arm/arm-none-eabi/include/c++/10.3.1/bits/stl_algobase.h ****    *  @param  __value  A reference-to-const of arbitrary type.
 928:/Library/DaisyToolchain/0.2.0/arm/arm-none-eabi/include/c++/10.3.1/bits/stl_algobase.h ****    *  @return   Nothing.
 929:/Library/DaisyToolchain/0.2.0/arm/arm-none-eabi/include/c++/10.3.1/bits/stl_algobase.h ****    *
 930:/Library/DaisyToolchain/0.2.0/arm/arm-none-eabi/include/c++/10.3.1/bits/stl_algobase.h ****    *  This function fills a range with copies of the same value.  For char
 931:/Library/DaisyToolchain/0.2.0/arm/arm-none-eabi/include/c++/10.3.1/bits/stl_algobase.h ****    *  types filling contiguous areas of memory, this becomes an inline call
 932:/Library/DaisyToolchain/0.2.0/arm/arm-none-eabi/include/c++/10.3.1/bits/stl_algobase.h ****    *  to @c memset or @c wmemset.
 933:/Library/DaisyToolchain/0.2.0/arm/arm-none-eabi/include/c++/10.3.1/bits/stl_algobase.h ****   */
 934:/Library/DaisyToolchain/0.2.0/arm/arm-none-eabi/include/c++/10.3.1/bits/stl_algobase.h ****   template<typename _ForwardIterator, typename _Tp>
 935:/Library/DaisyToolchain/0.2.0/arm/arm-none-eabi/include/c++/10.3.1/bits/stl_algobase.h ****     _GLIBCXX20_CONSTEXPR
 936:/Library/DaisyToolchain/0.2.0/arm/arm-none-eabi/include/c++/10.3.1/bits/stl_algobase.h ****     inline void
 937:/Library/DaisyToolchain/0.2.0/arm/arm-none-eabi/include/c++/10.3.1/bits/stl_algobase.h ****     fill(_ForwardIterator __first, _ForwardIterator __last, const _Tp& __value)
 808              		.loc 4 937 5 view .LVU222
 809              	.LBB237:
 810              	.LBI232:
 913:/Library/DaisyToolchain/0.2.0/arm/arm-none-eabi/include/c++/10.3.1/bits/stl_algobase.h ****     { std::__fill_a1(__first, __last, __value); }
 811              		.loc 4 913 5 view .LVU223
 812              	.LBB236:
 813              	.LBI233:
 868:/Library/DaisyToolchain/0.2.0/arm/arm-none-eabi/include/c++/10.3.1/bits/stl_algobase.h **** 	      const _Tp& __value)
 814              		.loc 4 868 5 view .LVU224
 815              	.LBB235:
 873:/Library/DaisyToolchain/0.2.0/arm/arm-none-eabi/include/c++/10.3.1/bits/stl_algobase.h ****     }
 816              		.loc 4 873 11 is_stmt 0 view .LVU225
 817 01d0 FFF7FEFF 		bl	memset
 818              	.LVL65:
 873:/Library/DaisyToolchain/0.2.0/arm/arm-none-eabi/include/c++/10.3.1/bits/stl_algobase.h ****     }
 819              		.loc 4 873 11 view .LVU226
 820 01d4 0A21     		movs	r1, #10
 821 01d6 19EE902A 		vmov	r2, s19	@ int
 822 01da 0346     		mov	r3, r0
 823              	.LVL66:
 873:/Library/DaisyToolchain/0.2.0/arm/arm-none-eabi/include/c++/10.3.1/bits/stl_algobase.h ****     }
 824              		.loc 4 873 11 view .LVU227
 825 01dc 1AEE100A 		vmov	r0, s20	@ int
ARM GAS  /var/folders/9s/8rp0_f2s1n31qbztm3b5_fdh0000gn/T//ccUUhLUh.s 			page 47


 826 01e0 4A43     		muls	r2, r1, r2
 827              	.LBE235:
 828              	.LBE236:
 829              	.LBE237:
 830              	.LBE238:
 831              	.LBB239:
 130:eurorack/plaits/dsp/speech/naive_speech_synth.cc ****   for (int i = 0; i < kNaiveSpeechNumFormants; ++i) {
 832              		.loc 2 130 12 view .LVU228
 833 01e2 4FF0000C 		mov	ip, #0
 834 01e6 1146     		mov	r1, r2
 835 01e8 3222     		movs	r2, #50
 836 01ea 02FB0012 		mla	r2, r2, r0, r1
 837 01ee 6949     		ldr	r1, .L48+12
 838 01f0 1144     		add	r1, r1, r2
 839              	.LVL67:
 840              	.L29:
 841              	.LBB240:
 131:eurorack/plaits/dsp/speech/naive_speech_synth.cc ****     const Formant& p0r0 = phonemes_[p_integral][r_integral].formant[i];
 842              		.loc 2 131 5 is_stmt 1 view .LVU229
 132:eurorack/plaits/dsp/speech/naive_speech_synth.cc ****     const Formant& p0r1 = phonemes_[p_integral][r_integral + 1].formant[i];
 843              		.loc 2 132 5 view .LVU230
 133:eurorack/plaits/dsp/speech/naive_speech_synth.cc ****     const Formant& p1r0 = phonemes_[p_integral + 1][r_integral].formant[i];
 844              		.loc 2 133 5 view .LVU231
 134:eurorack/plaits/dsp/speech/naive_speech_synth.cc ****     const Formant& p1r1 = phonemes_[p_integral + 1][r_integral + 1].formant[i];
 845              		.loc 2 134 5 view .LVU232
 135:eurorack/plaits/dsp/speech/naive_speech_synth.cc **** 
 136:eurorack/plaits/dsp/speech/naive_speech_synth.cc ****     float p0r_f = p0r0.frequency + \
 846              		.loc 2 136 5 view .LVU233
 847              		.loc 2 136 24 is_stmt 0 view .LVU234
 848 01f2 0A78     		ldrb	r2, [r1]	@ zero_extendqisi2
 137:eurorack/plaits/dsp/speech/naive_speech_synth.cc ****         (p0r1.frequency - p0r0.frequency) * r_fractional;
 849              		.loc 2 137 15 view .LVU235
 850 01f4 887A     		ldrb	r0, [r1, #10]	@ zero_extendqisi2
 851              		.loc 2 137 25 view .LVU236
 852 01f6 801A     		subs	r0, r0, r2
 853              		.loc 2 137 43 view .LVU237
 854 01f8 07EE900A 		vmov	s15, r0	@ int
 138:eurorack/plaits/dsp/speech/naive_speech_synth.cc ****     float p1r_f = p1r0.frequency + \
 139:eurorack/plaits/dsp/speech/naive_speech_synth.cc ****         (p1r1.frequency - p1r0.frequency) * r_fractional;
 855              		.loc 2 139 15 view .LVU238
 856 01fc 91F83C00 		ldrb	r0, [r1, #60]	@ zero_extendqisi2
 137:eurorack/plaits/dsp/speech/naive_speech_synth.cc ****         (p0r1.frequency - p0r0.frequency) * r_fractional;
 857              		.loc 2 137 43 view .LVU239
 858 0200 B8EEE77A 		vcvt.f32.s32	s14, s15
 136:eurorack/plaits/dsp/speech/naive_speech_synth.cc ****         (p0r1.frequency - p0r0.frequency) * r_fractional;
 859              		.loc 2 136 34 view .LVU240
 860 0204 07EE902A 		vmov	s15, r2	@ int
 138:eurorack/plaits/dsp/speech/naive_speech_synth.cc ****     float p1r_f = p1r0.frequency + \
 861              		.loc 2 138 24 view .LVU241
 862 0208 91F83220 		ldrb	r2, [r1, #50]	@ zero_extendqisi2
 136:eurorack/plaits/dsp/speech/naive_speech_synth.cc ****         (p0r1.frequency - p0r0.frequency) * r_fractional;
 863              		.loc 2 136 34 view .LVU242
 864 020c F8EEE77A 		vcvt.f32.s32	s15, s15
 865              		.loc 2 139 25 view .LVU243
 866 0210 801A     		subs	r0, r0, r2
 136:eurorack/plaits/dsp/speech/naive_speech_synth.cc ****         (p0r1.frequency - p0r0.frequency) * r_fractional;
 867              		.loc 2 136 11 view .LVU244
ARM GAS  /var/folders/9s/8rp0_f2s1n31qbztm3b5_fdh0000gn/T//ccUUhLUh.s 			page 48


 868 0212 E7EE087A 		vfma.f32	s15, s14, s16
 869              	.LVL68:
 138:eurorack/plaits/dsp/speech/naive_speech_synth.cc ****     float p1r_f = p1r0.frequency + \
 870              		.loc 2 138 5 is_stmt 1 view .LVU245
 871              		.loc 2 139 43 is_stmt 0 view .LVU246
 872 0216 07EE100A 		vmov	s14, r0	@ int
 140:eurorack/plaits/dsp/speech/naive_speech_synth.cc ****     float f = p0r_f + (p1r_f - p0r_f) * p_fractional;
 141:eurorack/plaits/dsp/speech/naive_speech_synth.cc **** 
 142:eurorack/plaits/dsp/speech/naive_speech_synth.cc ****     float p0r_a = p0r0.amplitude + \
 143:eurorack/plaits/dsp/speech/naive_speech_synth.cc ****         (p0r1.amplitude - p0r0.amplitude) * r_fractional;
 873              		.loc 2 143 15 view .LVU247
 874 021a C87A     		ldrb	r0, [r1, #11]	@ zero_extendqisi2
 139:eurorack/plaits/dsp/speech/naive_speech_synth.cc ****     float f = p0r_f + (p1r_f - p0r_f) * p_fractional;
 875              		.loc 2 139 43 view .LVU248
 876 021c F8EEC76A 		vcvt.f32.s32	s13, s14
 138:eurorack/plaits/dsp/speech/naive_speech_synth.cc ****         (p1r1.frequency - p1r0.frequency) * r_fractional;
 877              		.loc 2 138 34 view .LVU249
 878 0220 07EE102A 		vmov	s14, r2	@ int
 142:eurorack/plaits/dsp/speech/naive_speech_synth.cc ****         (p0r1.amplitude - p0r0.amplitude) * r_fractional;
 879              		.loc 2 142 24 view .LVU250
 880 0224 4A78     		ldrb	r2, [r1, #1]	@ zero_extendqisi2
 138:eurorack/plaits/dsp/speech/naive_speech_synth.cc ****         (p1r1.frequency - p1r0.frequency) * r_fractional;
 881              		.loc 2 138 34 view .LVU251
 882 0226 B8EEC77A 		vcvt.f32.s32	s14, s14
 883              		.loc 2 143 25 view .LVU252
 884 022a 801A     		subs	r0, r0, r2
 138:eurorack/plaits/dsp/speech/naive_speech_synth.cc ****         (p1r1.frequency - p1r0.frequency) * r_fractional;
 885              		.loc 2 138 11 view .LVU253
 886 022c A6EE887A 		vfma.f32	s14, s13, s16
 887              	.LVL69:
 140:eurorack/plaits/dsp/speech/naive_speech_synth.cc **** 
 888              		.loc 2 140 5 is_stmt 1 view .LVU254
 140:eurorack/plaits/dsp/speech/naive_speech_synth.cc **** 
 889              		.loc 2 140 30 is_stmt 0 view .LVU255
 890 0230 37EE677A 		vsub.f32	s14, s14, s15
 891              	.LVL70:
 140:eurorack/plaits/dsp/speech/naive_speech_synth.cc **** 
 892              		.loc 2 140 11 view .LVU256
 893 0234 E7EE097A 		vfma.f32	s15, s14, s18
 894              	.LVL71:
 142:eurorack/plaits/dsp/speech/naive_speech_synth.cc ****         (p0r1.amplitude - p0r0.amplitude) * r_fractional;
 895              		.loc 2 142 5 is_stmt 1 view .LVU257
 896              		.loc 2 143 43 is_stmt 0 view .LVU258
 897 0238 07EE100A 		vmov	s14, r0	@ int
 144:eurorack/plaits/dsp/speech/naive_speech_synth.cc ****     float p1r_a = p1r0.amplitude + \
 145:eurorack/plaits/dsp/speech/naive_speech_synth.cc ****         (p1r1.amplitude - p1r0.amplitude) * r_fractional;
 898              		.loc 2 145 15 view .LVU259
 899 023c 91F83D00 		ldrb	r0, [r1, #61]	@ zero_extendqisi2
 143:eurorack/plaits/dsp/speech/naive_speech_synth.cc ****     float p1r_a = p1r0.amplitude + \
 900              		.loc 2 143 43 view .LVU260
 901 0240 F8EEC76A 		vcvt.f32.s32	s13, s14
 902              	.LVL72:
 142:eurorack/plaits/dsp/speech/naive_speech_synth.cc ****         (p0r1.amplitude - p0r0.amplitude) * r_fractional;
 903              		.loc 2 142 34 view .LVU261
 904 0244 07EE102A 		vmov	s14, r2	@ int
 144:eurorack/plaits/dsp/speech/naive_speech_synth.cc ****     float p1r_a = p1r0.amplitude + \
 905              		.loc 2 144 24 view .LVU262
ARM GAS  /var/folders/9s/8rp0_f2s1n31qbztm3b5_fdh0000gn/T//ccUUhLUh.s 			page 49


 906 0248 91F83320 		ldrb	r2, [r1, #51]	@ zero_extendqisi2
 142:eurorack/plaits/dsp/speech/naive_speech_synth.cc ****         (p0r1.amplitude - p0r0.amplitude) * r_fractional;
 907              		.loc 2 142 34 view .LVU263
 908 024c B8EEC77A 		vcvt.f32.s32	s14, s14
 909              		.loc 2 145 25 view .LVU264
 910 0250 801A     		subs	r0, r0, r2
 142:eurorack/plaits/dsp/speech/naive_speech_synth.cc ****         (p0r1.amplitude - p0r0.amplitude) * r_fractional;
 911              		.loc 2 142 11 view .LVU265
 912 0252 A6EE887A 		vfma.f32	s14, s13, s16
 913              	.LVL73:
 144:eurorack/plaits/dsp/speech/naive_speech_synth.cc ****     float p1r_a = p1r0.amplitude + \
 914              		.loc 2 144 5 is_stmt 1 view .LVU266
 915              		.loc 2 145 43 is_stmt 0 view .LVU267
 916 0256 06EE900A 		vmov	s13, r0	@ int
 917              	.LBB241:
 918              	.LBB242:
 919              		.file 7 "eurorack/stmlib/dsp/units.h"
   1:eurorack/stmlib/dsp/units.h **** // Copyright 2014 Emilie Gillet.
   2:eurorack/stmlib/dsp/units.h **** //
   3:eurorack/stmlib/dsp/units.h **** // Author: Emilie Gillet (emilie.o.gillet@gmail.com)
   4:eurorack/stmlib/dsp/units.h **** //
   5:eurorack/stmlib/dsp/units.h **** // Permission is hereby granted, free of charge, to any person obtaining a copy
   6:eurorack/stmlib/dsp/units.h **** // of this software and associated documentation files (the "Software"), to deal
   7:eurorack/stmlib/dsp/units.h **** // in the Software without restriction, including without limitation the rights
   8:eurorack/stmlib/dsp/units.h **** // to use, copy, modify, merge, publish, distribute, sublicense, and/or sell
   9:eurorack/stmlib/dsp/units.h **** // copies of the Software, and to permit persons to whom the Software is
  10:eurorack/stmlib/dsp/units.h **** // furnished to do so, subject to the following conditions:
  11:eurorack/stmlib/dsp/units.h **** // 
  12:eurorack/stmlib/dsp/units.h **** // The above copyright notice and this permission notice shall be included in
  13:eurorack/stmlib/dsp/units.h **** // all copies or substantial portions of the Software.
  14:eurorack/stmlib/dsp/units.h **** // 
  15:eurorack/stmlib/dsp/units.h **** // THE SOFTWARE IS PROVIDED "AS IS", WITHOUT WARRANTY OF ANY KIND, EXPRESS OR
  16:eurorack/stmlib/dsp/units.h **** // IMPLIED, INCLUDING BUT NOT LIMITED TO THE WARRANTIES OF MERCHANTABILITY,
  17:eurorack/stmlib/dsp/units.h **** // FITNESS FOR A PARTICULAR PURPOSE AND NONINFRINGEMENT. IN NO EVENT SHALL THE
  18:eurorack/stmlib/dsp/units.h **** // AUTHORS OR COPYRIGHT HOLDERS BE LIABLE FOR ANY CLAIM, DAMAGES OR OTHER
  19:eurorack/stmlib/dsp/units.h **** // LIABILITY, WHETHER IN AN ACTION OF CONTRACT, TORT OR OTHERWISE, ARISING FROM,
  20:eurorack/stmlib/dsp/units.h **** // OUT OF OR IN CONNECTION WITH THE SOFTWARE OR THE USE OR OTHER DEALINGS IN
  21:eurorack/stmlib/dsp/units.h **** // THE SOFTWARE.
  22:eurorack/stmlib/dsp/units.h **** // 
  23:eurorack/stmlib/dsp/units.h **** // See http://creativecommons.org/licenses/MIT/ for more information.
  24:eurorack/stmlib/dsp/units.h **** //
  25:eurorack/stmlib/dsp/units.h **** // -----------------------------------------------------------------------------
  26:eurorack/stmlib/dsp/units.h **** //
  27:eurorack/stmlib/dsp/units.h **** // Conversion from semitones to frequency ratio.
  28:eurorack/stmlib/dsp/units.h **** 
  29:eurorack/stmlib/dsp/units.h **** #ifndef STMLIB_DSP_UNITS_H_
  30:eurorack/stmlib/dsp/units.h **** #define STMLIB_DSP_UNITS_H_
  31:eurorack/stmlib/dsp/units.h **** 
  32:eurorack/stmlib/dsp/units.h **** #include "stmlib/stmlib.h"
  33:eurorack/stmlib/dsp/units.h **** #include "stmlib/dsp/dsp.h"
  34:eurorack/stmlib/dsp/units.h **** 
  35:eurorack/stmlib/dsp/units.h **** namespace stmlib {
  36:eurorack/stmlib/dsp/units.h **** 
  37:eurorack/stmlib/dsp/units.h **** extern const float lut_pitch_ratio_high[257];
  38:eurorack/stmlib/dsp/units.h **** extern const float lut_pitch_ratio_low[257];
  39:eurorack/stmlib/dsp/units.h **** 
  40:eurorack/stmlib/dsp/units.h **** inline float SemitonesToRatio(float semitones) {
ARM GAS  /var/folders/9s/8rp0_f2s1n31qbztm3b5_fdh0000gn/T//ccUUhLUh.s 			page 50


  41:eurorack/stmlib/dsp/units.h ****   float pitch = semitones + 128.0f;
  42:eurorack/stmlib/dsp/units.h ****   MAKE_INTEGRAL_FRACTIONAL(pitch)
  43:eurorack/stmlib/dsp/units.h **** 
  44:eurorack/stmlib/dsp/units.h ****   return lut_pitch_ratio_high[pitch_integral] * \
  45:eurorack/stmlib/dsp/units.h ****       lut_pitch_ratio_low[static_cast<int32_t>(pitch_fractional * 256.0f)];
 920              		.loc 7 45 74 view .LVU268
 921 025a 4F48     		ldr	r0, .L48+16
 922              	.LBE242:
 923              	.LBE241:
 924              		.loc 2 145 43 view .LVU269
 925 025c B8EEE66A 		vcvt.f32.s32	s12, s13
 144:eurorack/plaits/dsp/speech/naive_speech_synth.cc ****         (p1r1.amplitude - p1r0.amplitude) * r_fractional;
 926              		.loc 2 144 34 view .LVU270
 927 0260 06EE902A 		vmov	s13, r2	@ int
 928 0264 F8EEE66A 		vcvt.f32.s32	s13, s13
 144:eurorack/plaits/dsp/speech/naive_speech_synth.cc ****         (p1r1.amplitude - p1r0.amplitude) * r_fractional;
 929              		.loc 2 144 11 view .LVU271
 930 0268 E6EE086A 		vfma.f32	s13, s12, s16
 931              	.LVL74:
 146:eurorack/plaits/dsp/speech/naive_speech_synth.cc ****     float a = (p0r_a + (p1r_a - p0r_a) * p_fractional) / 256.0f;
 932              		.loc 2 146 5 is_stmt 1 view .LVU272
 933              		.loc 2 146 31 is_stmt 0 view .LVU273
 934 026c 76EEC76A 		vsub.f32	s13, s13, s14
 935              	.LVL75:
 936              		.loc 2 146 22 view .LVU274
 937 0270 A6EE897A 		vfma.f32	s14, s13, s18
 938              	.LVL76:
 939              		.loc 2 146 11 view .LVU275
 940 0274 DFED496A 		vldr.32	s13, .L48+20
 941 0278 27EE267A 		vmul.f32	s14, s14, s13
 942              	.LVL77:
 147:eurorack/plaits/dsp/speech/naive_speech_synth.cc ****     
 148:eurorack/plaits/dsp/speech/naive_speech_synth.cc ****     if (f >= 160.0f) {
 943              		.loc 2 148 5 is_stmt 1 view .LVU276
 944 027c DFED486A 		vldr.32	s13, .L48+24
 149:eurorack/plaits/dsp/speech/naive_speech_synth.cc ****       f = 160.0f;
 945              		.loc 2 149 9 is_stmt 0 view .LVU277
 946 0280 F4EE667A 		vcmp.f32	s15, s13
 947 0284 F1EE10FA 		vmrs	APSR_nzcv, FPSCR
 948 0288 66FEA77A 		vselge.f32	s15, s13, s15
 949              	.LVL78:
 150:eurorack/plaits/dsp/speech/naive_speech_synth.cc ****     }
 151:eurorack/plaits/dsp/speech/naive_speech_synth.cc ****     f = a0 * stmlib::SemitonesToRatio(f - 33.0f);
 950              		.loc 2 151 5 is_stmt 1 view .LVU278
 951              	.LBB245:
 952              	.LBI241:
  40:eurorack/stmlib/dsp/units.h ****   float pitch = semitones + 128.0f;
 953              		.loc 7 40 14 view .LVU279
 954              	.LBB243:
  41:eurorack/stmlib/dsp/units.h ****   MAKE_INTEGRAL_FRACTIONAL(pitch)
 955              		.loc 7 41 3 view .LVU280
 956              	.LBE243:
 957              	.LBE245:
 958              		.loc 2 151 38 is_stmt 0 view .LVU281
 959 028c DFED456A 		vldr.32	s13, .L48+28
 960 0290 77EEE67A 		vsub.f32	s15, s15, s13
 961              	.LVL79:
ARM GAS  /var/folders/9s/8rp0_f2s1n31qbztm3b5_fdh0000gn/T//ccUUhLUh.s 			page 51


 962              	.LBB246:
 963              	.LBB244:
  41:eurorack/stmlib/dsp/units.h ****   MAKE_INTEGRAL_FRACTIONAL(pitch)
 964              		.loc 7 41 9 view .LVU282
 965 0294 DFED446A 		vldr.32	s13, .L48+32
 966 0298 77EEA67A 		vadd.f32	s15, s15, s13
 967              	.LVL80:
  42:eurorack/stmlib/dsp/units.h **** 
 968              		.loc 7 42 3 is_stmt 1 view .LVU283
 969 029c FDEEE76A 		vcvt.s32.f32	s13, s15
 970              	.LVL81:
  42:eurorack/stmlib/dsp/units.h **** 
 971              		.loc 7 42 3 view .LVU284
  44:eurorack/stmlib/dsp/units.h ****       lut_pitch_ratio_low[static_cast<int32_t>(pitch_fractional * 256.0f)];
 972              		.loc 7 44 3 view .LVU285
  42:eurorack/stmlib/dsp/units.h **** 
 973              		.loc 7 42 3 is_stmt 0 view .LVU286
 974 02a0 B8EEE66A 		vcvt.f32.s32	s12, s13
 975              	.LVL82:
  44:eurorack/stmlib/dsp/units.h ****       lut_pitch_ratio_low[static_cast<int32_t>(pitch_fractional * 256.0f)];
 976              		.loc 7 44 45 view .LVU287
 977 02a4 16EE90EA 		vmov	lr, s13	@ int
  42:eurorack/stmlib/dsp/units.h **** 
 978              		.loc 7 42 3 view .LVU288
 979 02a8 77EEC67A 		vsub.f32	s15, s15, s12
 980              		.loc 7 45 27 view .LVU289
 981 02ac FEEECC7A 		vcvt.s32.f32	s15, s15, #8
 982              		.loc 7 45 74 view .LVU290
 983 02b0 17EE902A 		vmov	r2, s15	@ int
 984              	.LVL83:
 985              		.loc 7 45 74 view .LVU291
 986 02b4 00EB8200 		add	r0, r0, r2, lsl #2
  44:eurorack/stmlib/dsp/units.h ****       lut_pitch_ratio_low[static_cast<int32_t>(pitch_fractional * 256.0f)];
 987              		.loc 7 44 45 view .LVU292
 988 02b8 3C4A     		ldr	r2, .L48+36
 989 02ba 02EB8E02 		add	r2, r2, lr, lsl #2
 990              		.loc 7 45 74 view .LVU293
 991 02be D0ED007A 		vldr.32	s15, [r0]
 992 02c2 D2ED006A 		vldr.32	s13, [r2]
 993 02c6 67EEA67A 		vmul.f32	s15, s15, s13
 994              	.LBE244:
 995              	.LBE246:
 996              		.loc 2 151 7 view .LVU294
 997 02ca DFED396A 		vldr.32	s13, .L48+40
 998 02ce 67EEA67A 		vmul.f32	s15, s15, s13
 999              	.LVL84:
 152:eurorack/plaits/dsp/speech/naive_speech_synth.cc ****     if (click_duration_ && i == 0) {
 1000              		.loc 2 152 5 is_stmt 1 view .LVU295
 1001 02d2 26B1     		cbz	r6, .L26
 1002              		.loc 2 152 25 is_stmt 0 discriminator 1 view .LVU296
 1003 02d4 BCF1000F 		cmp	ip, #0
 1004 02d8 01D1     		bne	.L26
 153:eurorack/plaits/dsp/speech/naive_speech_synth.cc ****       f *= 0.5f;
 1005              		.loc 2 153 7 is_stmt 1 view .LVU297
 1006              		.loc 2 153 9 is_stmt 0 view .LVU298
 1007 02da 67EEA87A 		vmul.f32	s15, s15, s17
 1008              	.LVL85:
ARM GAS  /var/folders/9s/8rp0_f2s1n31qbztm3b5_fdh0000gn/T//ccUUhLUh.s 			page 52


 1009              	.L26:
 154:eurorack/plaits/dsp/speech/naive_speech_synth.cc ****     }
 155:eurorack/plaits/dsp/speech/naive_speech_synth.cc ****     filter_[i].set_f_q<FREQUENCY_DIRTY>(f, 20.0f);
 1010              		.loc 2 155 5 is_stmt 1 discriminator 2 view .LVU299
 1011              	.LBB247:
 1012              	.LBI247:
 223:eurorack/stmlib/dsp/filter.h ****     g_ = OnePole::tan<approximation>(f);
 1013              		.loc 1 223 15 discriminator 2 view .LVU300
 1014              	.LBB248:
 1015              	.LBB249:
 1016              	.LBI249:
 107:eurorack/stmlib/dsp/filter.h ****     if (approximation == FREQUENCY_EXACT) {
 1017              		.loc 1 107 23 discriminator 2 view .LVU301
 1018              	.LBB250:
 115:eurorack/stmlib/dsp/filter.h ****     } else if (approximation == FREQUENCY_FAST) {
 1019              		.loc 1 115 30 is_stmt 0 discriminator 2 view .LVU302
 1020 02de 9FED356A 		vldr.32	s12, .L48+44
 1021              	.LBE250:
 1022              	.LBE249:
 1023              	.LBE248:
 1024              	.LBE247:
 1025              	.LBB262:
 1026              	.LBB263:
 310:eurorack/stmlib/dsp/filter.h ****   
 311:eurorack/stmlib/dsp/filter.h ****   template<FilterMode mode>
 312:eurorack/stmlib/dsp/filter.h ****   inline void ProcessAdd(const float* in, float* out, size_t size, float gain) {
 313:eurorack/stmlib/dsp/filter.h ****     float hp, bp, lp;
 314:eurorack/stmlib/dsp/filter.h ****     float state_1 = state_1_;
 315:eurorack/stmlib/dsp/filter.h ****     float state_2 = state_2_;
 1027              		.loc 1 315 11 discriminator 2 view .LVU303
 1028 02e2 2846     		mov	r0, r5
 1029              	.LBE263:
 1030              	.LBE262:
 1031              	.LBB269:
 1032              	.LBB259:
 1033              	.LBB255:
 1034              	.LBB251:
 115:eurorack/stmlib/dsp/filter.h ****     } else if (approximation == FREQUENCY_FAST) {
 1035              		.loc 1 115 26 discriminator 2 view .LVU304
 1036 02e4 DFED346A 		vldr.32	s13, .L48+48
 1037              	.LBE251:
 1038              	.LBE255:
 1039              	.LBE259:
 1040              	.LBE269:
 1041              	.LBB270:
 1042              	.LBB265:
 1043              		.loc 1 315 11 discriminator 2 view .LVU305
 1044 02e8 1A46     		mov	r2, r3
 1045              	.LBE265:
 1046              	.LBE270:
 1047              	.LBB271:
 1048              	.LBB260:
 1049              	.LBB256:
 1050              	.LBB252:
 115:eurorack/stmlib/dsp/filter.h ****     } else if (approximation == FREQUENCY_FAST) {
 1051              		.loc 1 115 30 discriminator 2 view .LVU306
 1052 02ea 27EE866A 		vmul.f32	s12, s15, s12
ARM GAS  /var/folders/9s/8rp0_f2s1n31qbztm3b5_fdh0000gn/T//ccUUhLUh.s 			page 53


 1053              	.LBE252:
 1054              	.LBE256:
 225:eurorack/stmlib/dsp/filter.h ****     h_ = 1.0f / (1.0f + r_ * g_ + g_ * g_);
 1055              		.loc 1 225 8 discriminator 2 view .LVU307
 1056 02ee DFED335A 		vldr.32	s11, .L48+52
 1057 02f2 C4ED0A5A 		vstr.32	s11, [r4, #40]
 1058              	.LBB257:
 1059              	.LBB253:
 115:eurorack/stmlib/dsp/filter.h ****     } else if (approximation == FREQUENCY_FAST) {
 1060              		.loc 1 115 26 discriminator 2 view .LVU308
 1061 02f6 E7EE866A 		vfma.f32	s13, s15, s12
 1062              	.LBE253:
 1063              	.LBE257:
 226:eurorack/stmlib/dsp/filter.h ****   }
 1064              		.loc 1 226 23 discriminator 2 view .LVU309
 1065 02fa B7EE006A 		vmov.f32	s12, #1.0e+0
 1066              	.LBB258:
 1067              	.LBB254:
 115:eurorack/stmlib/dsp/filter.h ****     } else if (approximation == FREQUENCY_FAST) {
 1068              		.loc 1 115 37 discriminator 2 view .LVU310
 1069 02fe 67EEA67A 		vmul.f32	s15, s15, s13
 1070              	.LVL86:
 115:eurorack/stmlib/dsp/filter.h ****     } else if (approximation == FREQUENCY_FAST) {
 1071              		.loc 1 115 37 discriminator 2 view .LVU311
 1072              	.LBE254:
 1073              	.LBE258:
 226:eurorack/stmlib/dsp/filter.h ****   }
 1074              		.loc 1 226 23 discriminator 2 view .LVU312
 1075 0302 F0EE466A 		vmov.f32	s13, s12
 224:eurorack/stmlib/dsp/filter.h ****     r_ = 1.0f / resonance;
 1076              		.loc 1 224 8 discriminator 2 view .LVU313
 1077 0306 C4ED097A 		vstr.32	s15, [r4, #36]
 226:eurorack/stmlib/dsp/filter.h ****   }
 1078              		.loc 1 226 23 discriminator 2 view .LVU314
 1079 030a E7EEA56A 		vfma.f32	s13, s15, s11
 226:eurorack/stmlib/dsp/filter.h ****   }
 1080              		.loc 1 226 33 discriminator 2 view .LVU315
 1081 030e E7EEA76A 		vfma.f32	s13, s15, s15
 226:eurorack/stmlib/dsp/filter.h ****   }
 1082              		.loc 1 226 15 discriminator 2 view .LVU316
 1083 0312 C6EE267A 		vdiv.f32	s15, s12, s13
 1084              	.LBE260:
 1085              	.LBE271:
 1086              	.LBB272:
 1087              	.LBB266:
 314:eurorack/stmlib/dsp/filter.h ****     float state_2 = state_2_;
