ARM GAS  /var/folders/9s/8rp0_f2s1n31qbztm3b5_fdh0000gn/T//ccwHxkZj.s 			page 1


   1              		.cpu cortex-m7
   2              		.arch armv7e-m
   3              		.fpu fpv5-d16
   4              		.eabi_attribute 28, 1
   5              		.eabi_attribute 20, 1
   6              		.eabi_attribute 21, 1
   7              		.eabi_attribute 23, 3
   8              		.eabi_attribute 24, 1
   9              		.eabi_attribute 25, 1
  10              		.eabi_attribute 26, 1
  11              		.eabi_attribute 30, 4
  12              		.eabi_attribute 34, 1
  13              		.eabi_attribute 18, 4
  14              		.file	"Polyphony.cpp"
  15              		.text
  16              	.Ltext0:
  17              		.cfi_sections	.debug_frame
  18              		.section	.text._ZN15PolyphonyEngineD2Ev,"ax",%progbits
  19              		.align	1
  20              		.global	_ZN15PolyphonyEngineD2Ev
  21              		.syntax unified
  22              		.thumb
  23              		.thumb_func
  25              	_ZN15PolyphonyEngineD2Ev:
  26              	.LVL0:
  27              	.LFB5800:
  28              		.file 1 "Polyphony.cpp"
   1:Polyphony.cpp **** #include "Thaumazein.h"
   2:Polyphony.cpp **** #include "Polyphony.h"
   3:Polyphony.cpp **** #include "stmlib/utils/buffer_allocator.h"
   4:Polyphony.cpp **** 
   5:Polyphony.cpp **** DSY_SDRAM_BSS char shared_buffer[262144];
   6:Polyphony.cpp **** 
   7:Polyphony.cpp **** const int MAX_ENGINE_INDEX = 12;
   8:Polyphony.cpp **** 
   9:Polyphony.cpp **** 
  10:Polyphony.cpp **** PolyphonyEngine poly_engine;
  11:Polyphony.cpp **** 
  12:Polyphony.cpp **** const float PolyphonyEngine::kTouchMidiNotes_[12] = {
  13:Polyphony.cpp ****     40.0f, 41.0f, 43.0f, 45.0f, 47.0f, 48.0f, // E2, F2, G2, A2, B2, C3
  14:Polyphony.cpp ****     50.0f, 52.0f, 53.0f, 55.0f, 57.0f, 59.0f  // D3, E3, F3, G3, A3, B3
  15:Polyphony.cpp **** };
  16:Polyphony.cpp **** 
  17:Polyphony.cpp **** PolyphonyEngine::PolyphonyEngine() : allocator_(nullptr), hw_ptr_(nullptr), engine_changed_flag_(fa
  18:Polyphony.cpp ****     memset(voice_active_, 0, sizeof(voice_active_));
  19:Polyphony.cpp ****     memset(voice_note_, 0, sizeof(voice_note_));
  20:Polyphony.cpp ****     memset(mix_buffer_out_, 0, sizeof(mix_buffer_out_));
  21:Polyphony.cpp ****     memset(mix_buffer_aux_, 0, sizeof(mix_buffer_aux_));
  22:Polyphony.cpp **** }
  23:Polyphony.cpp **** 
  24:Polyphony.cpp **** PolyphonyEngine::~PolyphonyEngine() {
  29              		.loc 1 24 1 view -0
  30              		.cfi_startproc
  31              		@ args = 0, pretend = 0, frame = 0
  32              		@ frame_needed = 0, uses_anonymous_args = 0
  33              	.LBB1052:
  25:Polyphony.cpp ****     if (allocator_) {
ARM GAS  /var/folders/9s/8rp0_f2s1n31qbztm3b5_fdh0000gn/T//ccwHxkZj.s 			page 2


  34              		.loc 1 25 5 view .LVU1
  35              		.loc 1 25 9 is_stmt 0 view .LVU2
  36 0000 00F54053 		add	r3, r0, #12288
  37              	.LBE1052:
  24:Polyphony.cpp ****     if (allocator_) {
  38              		.loc 1 24 1 view .LVU3
  39 0004 10B5     		push	{r4, lr}
  40              		.cfi_def_cfa_offset 8
  41              		.cfi_offset 4, -8
  42              		.cfi_offset 14, -4
  24:Polyphony.cpp ****     if (allocator_) {
  43              		.loc 1 24 1 view .LVU4
  44 0006 0446     		mov	r4, r0
  45              	.LBB1054:
  46              		.loc 1 25 9 view .LVU5
  47 0008 D3F8240D 		ldr	r0, [r3, #3364]
  48              	.LVL1:
  49              		.loc 1 25 5 view .LVU6
  50 000c 10B1     		cbz	r0, .L2
  26:Polyphony.cpp ****         delete allocator_;
  51              		.loc 1 26 9 is_stmt 1 view .LVU7
  52              	.LVL2:
  53              	.LBB1053:
  54              	.LBI1053:
  55              		.file 2 "eurorack/stmlib/utils/buffer_allocator.h"
   1:eurorack/stmlib/utils/buffer_allocator.h **** // Copyright 2014 Emilie Gillet.
   2:eurorack/stmlib/utils/buffer_allocator.h **** //
   3:eurorack/stmlib/utils/buffer_allocator.h **** // Author: Emilie Gillet (emilie.o.gillet@gmail.com)
   4:eurorack/stmlib/utils/buffer_allocator.h **** //
   5:eurorack/stmlib/utils/buffer_allocator.h **** // Permission is hereby granted, free of charge, to any person obtaining a copy
   6:eurorack/stmlib/utils/buffer_allocator.h **** // of this software and associated documentation files (the "Software"), to deal
   7:eurorack/stmlib/utils/buffer_allocator.h **** // in the Software without restriction, including without limitation the rights
   8:eurorack/stmlib/utils/buffer_allocator.h **** // to use, copy, modify, merge, publish, distribute, sublicense, and/or sell
   9:eurorack/stmlib/utils/buffer_allocator.h **** // copies of the Software, and to permit persons to whom the Software is
  10:eurorack/stmlib/utils/buffer_allocator.h **** // furnished to do so, subject to the following conditions:
  11:eurorack/stmlib/utils/buffer_allocator.h **** // 
  12:eurorack/stmlib/utils/buffer_allocator.h **** // The above copyright notice and this permission notice shall be included in
  13:eurorack/stmlib/utils/buffer_allocator.h **** // all copies or substantial portions of the Software.
  14:eurorack/stmlib/utils/buffer_allocator.h **** // 
  15:eurorack/stmlib/utils/buffer_allocator.h **** // THE SOFTWARE IS PROVIDED "AS IS", WITHOUT WARRANTY OF ANY KIND, EXPRESS OR
  16:eurorack/stmlib/utils/buffer_allocator.h **** // IMPLIED, INCLUDING BUT NOT LIMITED TO THE WARRANTIES OF MERCHANTABILITY,
  17:eurorack/stmlib/utils/buffer_allocator.h **** // FITNESS FOR A PARTICULAR PURPOSE AND NONINFRINGEMENT. IN NO EVENT SHALL THE
  18:eurorack/stmlib/utils/buffer_allocator.h **** // AUTHORS OR COPYRIGHT HOLDERS BE LIABLE FOR ANY CLAIM, DAMAGES OR OTHER
  19:eurorack/stmlib/utils/buffer_allocator.h **** // LIABILITY, WHETHER IN AN ACTION OF CONTRACT, TORT OR OTHERWISE, ARISING FROM,
  20:eurorack/stmlib/utils/buffer_allocator.h **** // OUT OF OR IN CONNECTION WITH THE SOFTWARE OR THE USE OR OTHER DEALINGS IN
  21:eurorack/stmlib/utils/buffer_allocator.h **** // THE SOFTWARE.
  22:eurorack/stmlib/utils/buffer_allocator.h **** // 
  23:eurorack/stmlib/utils/buffer_allocator.h **** // See http://creativecommons.org/licenses/MIT/ for more information.
  24:eurorack/stmlib/utils/buffer_allocator.h **** //
  25:eurorack/stmlib/utils/buffer_allocator.h **** // -----------------------------------------------------------------------------
  26:eurorack/stmlib/utils/buffer_allocator.h **** //
  27:eurorack/stmlib/utils/buffer_allocator.h **** // Stream buffer for serialization.
  28:eurorack/stmlib/utils/buffer_allocator.h **** 
  29:eurorack/stmlib/utils/buffer_allocator.h **** #ifndef STMLIB_UTILS_BUFFER_ALLOCATOR_H_
  30:eurorack/stmlib/utils/buffer_allocator.h **** #define STMLIB_UTILS_BUFFER_ALLOCATOR_H_
  31:eurorack/stmlib/utils/buffer_allocator.h **** 
  32:eurorack/stmlib/utils/buffer_allocator.h **** #include "stmlib/stmlib.h"
ARM GAS  /var/folders/9s/8rp0_f2s1n31qbztm3b5_fdh0000gn/T//ccwHxkZj.s 			page 3


  33:eurorack/stmlib/utils/buffer_allocator.h **** 
  34:eurorack/stmlib/utils/buffer_allocator.h **** namespace stmlib {
  35:eurorack/stmlib/utils/buffer_allocator.h **** 
  36:eurorack/stmlib/utils/buffer_allocator.h **** class BufferAllocator {
  37:eurorack/stmlib/utils/buffer_allocator.h ****  public:
  38:eurorack/stmlib/utils/buffer_allocator.h ****   BufferAllocator() { }
  39:eurorack/stmlib/utils/buffer_allocator.h ****   ~BufferAllocator() { }
  56              		.loc 2 39 3 view .LVU8
  57              		.loc 2 39 3 is_stmt 0 view .LVU9
  58              	.LBE1053:
  59              		.loc 1 26 16 view .LVU10
  60 000e 1021     		movs	r1, #16
  61 0010 FFF7FEFF 		bl	_ZdlPvj
  62              	.LVL3:
  27:Polyphony.cpp ****         allocator_ = nullptr;
  63              		.loc 1 27 9 is_stmt 1 view .LVU11
  64              	.L2:
  65              	.LBE1054:
  28:Polyphony.cpp ****     }
  29:Polyphony.cpp **** }
  66              		.loc 1 29 1 is_stmt 0 view .LVU12
  67 0014 2046     		mov	r0, r4
  68 0016 10BD     		pop	{r4, pc}
  69              		.loc 1 29 1 view .LVU13
  70              		.cfi_endproc
  71              	.LFE5800:
  73              		.global	_ZN15PolyphonyEngineD1Ev
  74              		.thumb_set _ZN15PolyphonyEngineD1Ev,_ZN15PolyphonyEngineD2Ev
  75              		.section	.text._ZN13VoiceEnvelope7TriggerEv,"axG",%progbits,_ZN13VoiceEnvelope7TriggerEv,comdat
  76              		.align	1
  77              		.weak	_ZN13VoiceEnvelope7TriggerEv
  78              		.syntax unified
  79              		.thumb
  80              		.thumb_func
  82              	_ZN13VoiceEnvelope7TriggerEv:
  83              	.LVL4:
  84              	.LFB5476:
  85              		.file 3 "VoiceEnvelope.h"
   1:VoiceEnvelope.h **** #pragma once
   2:VoiceEnvelope.h **** #include <algorithm>
   3:VoiceEnvelope.h **** 
   4:VoiceEnvelope.h **** // Simple envelope for each polyphonic voice
   5:VoiceEnvelope.h **** class VoiceEnvelope {
   6:VoiceEnvelope.h **** public:
   7:VoiceEnvelope.h ****     enum EnvState {
   8:VoiceEnvelope.h ****         ENV_IDLE,
   9:VoiceEnvelope.h ****         ENV_ATTACK,
  10:VoiceEnvelope.h ****         ENV_SUSTAIN,
  11:VoiceEnvelope.h ****         ENV_DECAY,
  12:VoiceEnvelope.h ****         ENV_RESET
  13:VoiceEnvelope.h ****     };
  14:VoiceEnvelope.h **** 
  15:VoiceEnvelope.h ****     enum EnvMode {
  16:VoiceEnvelope.h ****         MODE_AR,   // Attack-Release
  17:VoiceEnvelope.h ****         MODE_ASR   // Attack-Sustain-Release
  18:VoiceEnvelope.h ****     };
  19:VoiceEnvelope.h **** 
ARM GAS  /var/folders/9s/8rp0_f2s1n31qbztm3b5_fdh0000gn/T//ccwHxkZj.s 			page 4


  20:VoiceEnvelope.h ****     VoiceEnvelope() :
  21:VoiceEnvelope.h ****         current_state(ENV_IDLE),
  22:VoiceEnvelope.h ****         mode(MODE_ASR),
  23:VoiceEnvelope.h ****         current_value(0.0f),
  24:VoiceEnvelope.h ****         attack_curve_coefficient(0.5f),
  25:VoiceEnvelope.h ****         release_curve_coefficient(0.5f),
  26:VoiceEnvelope.h ****         phase(0),
  27:VoiceEnvelope.h ****         decay_start_level(0.0f)
  28:VoiceEnvelope.h ****     {}
  29:VoiceEnvelope.h **** 
  30:VoiceEnvelope.h ****     void Init(float sample_rate) {
  31:VoiceEnvelope.h ****         time_range_2x = 2.0f * 4.0f * sample_rate;  // 4s max time
  32:VoiceEnvelope.h ****         min_attack_time = 0.0002f * sample_rate;    // 0.2ms min attack (much faster for punchiness
  33:VoiceEnvelope.h ****         min_decay_time_a = 0.4f * sample_rate;      // 400ms min decay A
  34:VoiceEnvelope.h ****         min_decay_time_b = 0.0001f * sample_rate;    // 0.1ms min decay B (pulse-like release)
  35:VoiceEnvelope.h ****         reset_time = 0.008f * sample_rate;          // 8ms reset time
  36:VoiceEnvelope.h ****         reset_coefficient = 1.0f / reset_time;
  37:VoiceEnvelope.h ****         
  38:VoiceEnvelope.h ****         // Default curves
  39:VoiceEnvelope.h ****         SetAttackCurve(0.5f);
  40:VoiceEnvelope.h ****         SetReleaseCurve(0.5f);
  41:VoiceEnvelope.h ****     }
  42:VoiceEnvelope.h **** 
  43:VoiceEnvelope.h ****     void SetMode(EnvMode new_mode) {
  44:VoiceEnvelope.h ****         mode = new_mode;
  45:VoiceEnvelope.h ****     }
  46:VoiceEnvelope.h **** 
  47:VoiceEnvelope.h ****     // Original combined shape method for backward compatibility
  48:VoiceEnvelope.h ****     void SetShape(float value) {
  49:VoiceEnvelope.h ****         float curve;
  50:VoiceEnvelope.h ****         if (value < 0.5f) {
  51:VoiceEnvelope.h ****             attack_time = min_attack_time;
  52:VoiceEnvelope.h ****             decay_time = static_cast<size_t>(time_range_2x * value * value) + min_decay_time_a;
  53:VoiceEnvelope.h ****             curve = value * 0.15f;
  54:VoiceEnvelope.h ****         } else {
  55:VoiceEnvelope.h ****             float norm_val = 2.0f * value - 1.0f;
  56:VoiceEnvelope.h ****             attack_time = static_cast<size_t>(time_range_2x * norm_val * norm_val) + min_attack_tim
  57:VoiceEnvelope.h ****             decay_time = static_cast<size_t>(time_range_2x * (1.0f - value * value)) + min_decay_ti
  58:VoiceEnvelope.h ****             curve = 0.5f;
  59:VoiceEnvelope.h ****         }
  60:VoiceEnvelope.h ****         attack_coefficient = 1.0f / attack_time;
  61:VoiceEnvelope.h ****         decay_coefficient = 1.0f / decay_time;
  62:VoiceEnvelope.h ****         SetAttackCurve(curve);
  63:VoiceEnvelope.h ****         SetReleaseCurve(curve);
  64:VoiceEnvelope.h ****     }
  65:VoiceEnvelope.h ****     
  66:VoiceEnvelope.h ****     // New methods for separate attack and release control
  67:VoiceEnvelope.h ****     void SetAttackTime(float value) {
  68:VoiceEnvelope.h ****         // Map 0-1 value to attack time (exponential scaling)
  69:VoiceEnvelope.h ****         // value³ for finer control at shorter settings
  70:VoiceEnvelope.h ****         float value_cubed = value * value * value;
  71:VoiceEnvelope.h ****         
  72:VoiceEnvelope.h ****         // Special handling for super punchy attacks at low values
  73:VoiceEnvelope.h ****         if (value < 0.1f) {
  74:VoiceEnvelope.h ****             // Extra fast attacks at the beginning of the range
  75:VoiceEnvelope.h ****             attack_time = static_cast<size_t>(min_attack_time + 
  76:VoiceEnvelope.h ****                                            (min_attack_time * 9.0f * value / 0.1f));
ARM GAS  /var/folders/9s/8rp0_f2s1n31qbztm3b5_fdh0000gn/T//ccwHxkZj.s 			page 5


  77:VoiceEnvelope.h ****         } else {
  78:VoiceEnvelope.h ****             // Normal range from 2ms to 4 seconds
  79:VoiceEnvelope.h ****             attack_time = static_cast<size_t>(0.002f * time_range_2x/8.0f + 
  80:VoiceEnvelope.h ****                                            (time_range_2x * 0.5f * value_cubed));
  81:VoiceEnvelope.h ****         }
  82:VoiceEnvelope.h ****         
  83:VoiceEnvelope.h ****         attack_coefficient = 1.0f / attack_time;
  84:VoiceEnvelope.h ****         
  85:VoiceEnvelope.h ****         // Make curve more exponential for faster attacks
  86:VoiceEnvelope.h ****         if (value < 0.3f) {
  87:VoiceEnvelope.h ****             // More exponential curve for punchy attacks
  88:VoiceEnvelope.h ****             SetAttackCurve(0.7f + (0.3f - value)); // 0.7 to 1.0 range for punchier curve
  89:VoiceEnvelope.h ****         } else {
  90:VoiceEnvelope.h ****             // Normal curve
  91:VoiceEnvelope.h ****             SetAttackCurve(0.5f);
  92:VoiceEnvelope.h ****         }
  93:VoiceEnvelope.h ****     }
  94:VoiceEnvelope.h ****     
  95:VoiceEnvelope.h ****     void SetReleaseTime(float value) {
  96:VoiceEnvelope.h ****         // Map 0-1 value to release time (exponential scaling)
  97:VoiceEnvelope.h ****         // value³ for finer control at shorter settings
  98:VoiceEnvelope.h ****         float value_cubed = value * value * value;
  99:VoiceEnvelope.h ****         
 100:VoiceEnvelope.h ****         // Release time ranges from min_decay_time_b to 8 seconds
 101:VoiceEnvelope.h ****         decay_time = static_cast<size_t>(min_decay_time_b + 
 102:VoiceEnvelope.h ****                                         (time_range_2x * value_cubed));
 103:VoiceEnvelope.h ****         decay_coefficient = 1.0f / decay_time;
 104:VoiceEnvelope.h ****         
 105:VoiceEnvelope.h ****         // Use consistent release curve regardless of release time
 106:VoiceEnvelope.h ****         SetReleaseCurve(0.5f);
 107:VoiceEnvelope.h ****     }
 108:VoiceEnvelope.h ****     
 109:VoiceEnvelope.h ****     void SetAttackCurve(float value) {
 110:VoiceEnvelope.h ****         float cu = value - 0.5f;
 111:VoiceEnvelope.h ****         attack_curve_coefficient = 128.0f * cu * cu;
 112:VoiceEnvelope.h ****     }
 113:VoiceEnvelope.h ****     
 114:VoiceEnvelope.h ****     void SetReleaseCurve(float value) {
 115:VoiceEnvelope.h ****         float cu = value - 0.5f;
 116:VoiceEnvelope.h ****         release_curve_coefficient = 128.0f * cu * cu;
 117:VoiceEnvelope.h ****     }
 118:VoiceEnvelope.h **** 
 119:VoiceEnvelope.h ****     void Trigger() {
  86              		.loc 3 119 10 is_stmt 1 view -0
  87              		.cfi_startproc
  88              		@ args = 0, pretend = 0, frame = 0
  89              		@ frame_needed = 0, uses_anonymous_args = 0
  90              		@ link register save eliminated.
 120:VoiceEnvelope.h ****         switch (current_state) {
  91              		.loc 3 120 9 view .LVU15
  92              		.loc 3 120 17 is_stmt 0 view .LVU16
  93 0000 0378     		ldrb	r3, [r0]	@ zero_extendqisi2
  94              		.loc 3 120 9 view .LVU17
  95 0002 13B1     		cbz	r3, .L7
  96 0004 032B     		cmp	r3, #3
  97 0006 04D0     		beq	.L8
  98 0008 7047     		bx	lr
ARM GAS  /var/folders/9s/8rp0_f2s1n31qbztm3b5_fdh0000gn/T//ccwHxkZj.s 			page 6


  99              	.L7:
 121:VoiceEnvelope.h ****             case ENV_IDLE:
 100              		.loc 3 121 13 is_stmt 1 view .LVU18
 122:VoiceEnvelope.h ****                 current_state = ENV_ATTACK;
 101              		.loc 3 122 17 view .LVU19
 102              		.loc 3 122 31 is_stmt 0 view .LVU20
 103 000a 0122     		movs	r2, #1
 123:VoiceEnvelope.h ****                 phase = 0;
 104              		.loc 3 123 23 view .LVU21
 105 000c C363     		str	r3, [r0, #60]
 122:VoiceEnvelope.h ****                 current_state = ENV_ATTACK;
 106              		.loc 3 122 31 view .LVU22
 107 000e 0270     		strb	r2, [r0]
 108              		.loc 3 123 17 is_stmt 1 view .LVU23
 124:VoiceEnvelope.h ****                 break;
 109              		.loc 3 124 17 view .LVU24
 110 0010 7047     		bx	lr
 111              	.L8:
 112              	.LVL5:
 113              	.LBB1059:
 114              	.LBI1059:
 119:VoiceEnvelope.h ****         switch (current_state) {
 115              		.loc 3 119 10 view .LVU25
 116              	.LBB1060:
 125:VoiceEnvelope.h ****             case ENV_DECAY:
 117              		.loc 3 125 13 view .LVU26
 126:VoiceEnvelope.h ****                 current_state = ENV_ATTACK;
 118              		.loc 3 126 17 view .LVU27
 119              	.LBB1061:
 120              	.LBB1062:
 127:VoiceEnvelope.h ****                 phase = CalculateAttackPhase(current_value);
 128:VoiceEnvelope.h ****                 break;
 129:VoiceEnvelope.h ****             default:
 130:VoiceEnvelope.h ****                 break;
 131:VoiceEnvelope.h ****         }
 132:VoiceEnvelope.h ****     }
 133:VoiceEnvelope.h **** 
 134:VoiceEnvelope.h ****     void Release() {
 135:VoiceEnvelope.h ****         switch (current_state) {
 136:VoiceEnvelope.h ****             case ENV_ATTACK:
 137:VoiceEnvelope.h ****                 // Preserve the attack curve character when transitioning to release
 138:VoiceEnvelope.h ****                 // This decouples release time from affecting attack punchiness
 139:VoiceEnvelope.h ****                 current_value = CalculateAttackAmplitude(static_cast<float>(phase) * attack_coeffic
 140:VoiceEnvelope.h ****                 phase = 0; // Always start release from beginning, preserving the current level
 141:VoiceEnvelope.h ****                 current_state = ENV_DECAY;
 142:VoiceEnvelope.h ****                 break;
 143:VoiceEnvelope.h ****             case ENV_SUSTAIN:
 144:VoiceEnvelope.h ****                 phase = 0;
 145:VoiceEnvelope.h ****                 current_state = ENV_DECAY;
 146:VoiceEnvelope.h ****                 break;
 147:VoiceEnvelope.h ****             default:
 148:VoiceEnvelope.h ****                 break;
 149:VoiceEnvelope.h ****         }
 150:VoiceEnvelope.h ****     }
 151:VoiceEnvelope.h **** 
 152:VoiceEnvelope.h ****     float Process() {
 153:VoiceEnvelope.h ****         float ph;
ARM GAS  /var/folders/9s/8rp0_f2s1n31qbztm3b5_fdh0000gn/T//ccwHxkZj.s 			page 7


 154:VoiceEnvelope.h ****         switch (current_state) {
 155:VoiceEnvelope.h ****             case ENV_IDLE:
 156:VoiceEnvelope.h ****                 current_value = 0.0f;
 157:VoiceEnvelope.h ****                 break;
 158:VoiceEnvelope.h **** 
 159:VoiceEnvelope.h ****             case ENV_ATTACK:
 160:VoiceEnvelope.h ****                 ph = static_cast<float>(phase) * attack_coefficient;
 161:VoiceEnvelope.h ****                 current_value = CalculateAttackAmplitude(ph);
 162:VoiceEnvelope.h ****                 if (phase >= attack_time) {
 163:VoiceEnvelope.h ****                     current_state = (mode == MODE_AR) ? ENV_DECAY : ENV_SUSTAIN;
 164:VoiceEnvelope.h ****                     phase = 0;
 165:VoiceEnvelope.h ****                 } else {
 166:VoiceEnvelope.h ****                     phase++;
 167:VoiceEnvelope.h ****                 }
 168:VoiceEnvelope.h ****                 break;
 169:VoiceEnvelope.h **** 
 170:VoiceEnvelope.h ****             case ENV_SUSTAIN:
 171:VoiceEnvelope.h ****                 current_value = 1.0f;
 172:VoiceEnvelope.h ****                 break;
 173:VoiceEnvelope.h **** 
 174:VoiceEnvelope.h ****             case ENV_DECAY:
 175:VoiceEnvelope.h ****                 // Use current_value as starting point for decay
 176:VoiceEnvelope.h ****                 // This preserves the correct level from attack phase
 177:VoiceEnvelope.h ****                 ph = static_cast<float>(phase) * decay_coefficient;
 178:VoiceEnvelope.h ****                 if (phase == 0) {
 179:VoiceEnvelope.h ****                     // On first frame, use current value
 180:VoiceEnvelope.h ****                     decay_start_level = current_value;
 181:VoiceEnvelope.h ****                 }
 182:VoiceEnvelope.h ****                 current_value = decay_start_level * (1.0f - ph) / (1.0f + release_curve_coefficient
 183:VoiceEnvelope.h ****                 
 184:VoiceEnvelope.h ****                 if (phase >= decay_time) {
 185:VoiceEnvelope.h ****                     current_state = ENV_IDLE;
 186:VoiceEnvelope.h ****                     phase = 0;
 187:VoiceEnvelope.h ****                 } else {
 188:VoiceEnvelope.h ****                     phase++;
 189:VoiceEnvelope.h ****                 }
 190:VoiceEnvelope.h ****                 break;
 191:VoiceEnvelope.h **** 
 192:VoiceEnvelope.h ****             case ENV_RESET:
 193:VoiceEnvelope.h ****                 current_value = reset_target - static_cast<float>(phase) * reset_coefficient;
 194:VoiceEnvelope.h ****                 if (phase >= reset_time) {
 195:VoiceEnvelope.h ****                     current_state = ENV_IDLE;
 196:VoiceEnvelope.h ****                     phase = 0;
 197:VoiceEnvelope.h ****                 } else {
 198:VoiceEnvelope.h ****                     phase++;
 199:VoiceEnvelope.h ****                 }
 200:VoiceEnvelope.h ****                 break;
 201:VoiceEnvelope.h ****         }
 202:VoiceEnvelope.h ****         return std::min(std::max(current_value, 0.0f), 1.0f);
 203:VoiceEnvelope.h ****     }
 204:VoiceEnvelope.h **** 
 205:VoiceEnvelope.h ****     void Reset() {
 206:VoiceEnvelope.h ****         if (current_state == ENV_IDLE) return;
 207:VoiceEnvelope.h ****         current_state = ENV_RESET;
 208:VoiceEnvelope.h ****         reset_target = current_value;
 209:VoiceEnvelope.h ****         phase = 0;
 210:VoiceEnvelope.h ****     }
ARM GAS  /var/folders/9s/8rp0_f2s1n31qbztm3b5_fdh0000gn/T//ccwHxkZj.s 			page 8


 211:VoiceEnvelope.h **** 
 212:VoiceEnvelope.h ****     bool IsActive() const {
 213:VoiceEnvelope.h ****         return current_state != ENV_IDLE;
 214:VoiceEnvelope.h ****     }
 215:VoiceEnvelope.h **** 
 216:VoiceEnvelope.h **** private:
 217:VoiceEnvelope.h ****     float CalculateAttackAmplitude(float ph) {
 218:VoiceEnvelope.h ****         return ph / (1.0f + attack_curve_coefficient * (1.0f - ph));
 219:VoiceEnvelope.h ****     }
 220:VoiceEnvelope.h **** 
 221:VoiceEnvelope.h ****     float CalculateDecayAmplitude(float ph) {
 222:VoiceEnvelope.h ****         return (1.0f - ph) / (1.0f + release_curve_coefficient * ph);
 223:VoiceEnvelope.h ****     }
 224:VoiceEnvelope.h **** 
 225:VoiceEnvelope.h ****     size_t CalculateAttackPhase(float amp) {
 226:VoiceEnvelope.h ****         return static_cast<size_t>(roundf(attack_time * amp * (1.0f + attack_curve_coefficient) / (
 121              		.loc 3 226 69 is_stmt 0 view .LVU28
 122 0012 B7EE007A 		vmov.f32	s14, #1.0e+0
 123              	.LBE1062:
 124              	.LBE1061:
 127:VoiceEnvelope.h ****                 phase = CalculateAttackPhase(current_value);
 125              		.loc 3 127 45 view .LVU29
 126 0016 D0ED015A 		vldr.32	s11, [r0, #4]
 127              	.LBB1066:
 128              	.LBB1063:
 129              		.loc 3 226 71 view .LVU30
 130 001a 90ED026A 		vldr.32	s12, [r0, #8]
 131              	.LBE1063:
 132              	.LBE1066:
 126:VoiceEnvelope.h ****                 current_state = ENV_ATTACK;
 133              		.loc 3 126 31 view .LVU31
 134 001e 0123     		movs	r3, #1
 135              	.LBB1067:
 136              	.LBB1064:
 137              		.loc 3 226 55 view .LVU32
 138 0020 D0ED0D7A 		vldr.32	s15, [r0, #52]	@ int
 139              		.loc 3 226 69 view .LVU33
 140 0024 76EE076A 		vadd.f32	s13, s12, s14
 141              	.LBE1064:
 142              	.LBE1067:
 126:VoiceEnvelope.h ****                 current_state = ENV_ATTACK;
 143              		.loc 3 126 31 view .LVU34
 144 0028 0370     		strb	r3, [r0]
 127:VoiceEnvelope.h ****                 phase = CalculateAttackPhase(current_value);
 145              		.loc 3 127 17 is_stmt 1 view .LVU35
 146              	.LVL6:
 147              	.LBB1068:
 148              	.LBI1061:
 225:VoiceEnvelope.h ****         return static_cast<size_t>(roundf(attack_time * amp * (1.0f + attack_curve_coefficient) / (
 149              		.loc 3 225 12 view .LVU36
 150              	.LBB1065:
 151              		.loc 3 226 9 view .LVU37
 152              		.loc 3 226 105 is_stmt 0 view .LVU38
 153 002a A5EE867A 		vfma.f32	s14, s11, s12
 154              		.loc 3 226 55 view .LVU39
 155 002e F8EE677A 		vcvt.f32.u32	s15, s15
 156 0032 67EEA57A 		vmul.f32	s15, s15, s11
ARM GAS  /var/folders/9s/8rp0_f2s1n31qbztm3b5_fdh0000gn/T//ccwHxkZj.s 			page 9


 157              		.loc 3 226 61 view .LVU40
 158 0036 67EEA67A 		vmul.f32	s15, s15, s13
 159              		.loc 3 226 105 view .LVU41
 160 003a F0EE476A 		vmov.f32	s13, s14
 161              		.loc 3 226 42 view .LVU42
 162 003e 87EEA67A 		vdiv.f32	s14, s15, s13
 163 0042 F8FE477A 		vrinta.f32	s15, s14
 164              	.LVL7:
 165              		.loc 3 226 139 view .LVU43
 166 0046 FCEEE77A 		vcvt.u32.f32	s15, s15
 167 004a C0ED0F7A 		vstr.32	s15, [r0, #60]	@ int
 168              	.LBE1065:
 169              	.LBE1068:
 128:VoiceEnvelope.h ****             default:
 170              		.loc 3 128 17 is_stmt 1 view .LVU44
 171              	.LVL8:
 128:VoiceEnvelope.h ****             default:
 172              		.loc 3 128 17 is_stmt 0 view .LVU45
 173              	.LBE1060:
 174              	.LBE1059:
 132:VoiceEnvelope.h **** 
 175              		.loc 3 132 5 view .LVU46
 176 004e 7047     		bx	lr
 177              		.cfi_endproc
 178              	.LFE5476:
 180              		.section	.text._ZN13VoiceEnvelope7ReleaseEv,"axG",%progbits,_ZN13VoiceEnvelope7ReleaseEv,comdat
 181              		.align	1
 182              		.weak	_ZN13VoiceEnvelope7ReleaseEv
 183              		.syntax unified
 184              		.thumb
 185              		.thumb_func
 187              	_ZN13VoiceEnvelope7ReleaseEv:
 188              	.LVL9:
 189              	.LFB5477:
 134:VoiceEnvelope.h ****         switch (current_state) {
 190              		.loc 3 134 10 is_stmt 1 view -0
 191              		.cfi_startproc
 192              		@ args = 0, pretend = 0, frame = 0
 193              		@ frame_needed = 0, uses_anonymous_args = 0
 194              		@ link register save eliminated.
 135:VoiceEnvelope.h ****             case ENV_ATTACK:
 195              		.loc 3 135 9 view .LVU48
 135:VoiceEnvelope.h ****             case ENV_ATTACK:
 196              		.loc 3 135 17 is_stmt 0 view .LVU49
 197 0000 0378     		ldrb	r3, [r0]	@ zero_extendqisi2
 135:VoiceEnvelope.h ****             case ENV_ATTACK:
 198              		.loc 3 135 9 view .LVU50
 199 0002 012B     		cmp	r3, #1
 200 0004 02D0     		beq	.L11
 201 0006 022B     		cmp	r3, #2
 202 0008 14D0     		beq	.L12
 203 000a 7047     		bx	lr
 204              	.L11:
 205              	.LVL10:
 206              	.LBB1073:
 207              	.LBI1073:
 134:VoiceEnvelope.h ****         switch (current_state) {
ARM GAS  /var/folders/9s/8rp0_f2s1n31qbztm3b5_fdh0000gn/T//ccwHxkZj.s 			page 10


 208              		.loc 3 134 10 is_stmt 1 view .LVU51
 209              	.LBB1074:
 136:VoiceEnvelope.h ****                 // Preserve the attack curve character when transitioning to release
 210              		.loc 3 136 13 view .LVU52
 139:VoiceEnvelope.h ****                 phase = 0; // Always start release from beginning, preserving the current level
 211              		.loc 3 139 17 view .LVU53
 139:VoiceEnvelope.h ****                 phase = 0; // Always start release from beginning, preserving the current level
 212              		.loc 3 139 58 is_stmt 0 view .LVU54
 213 000c D0ED0F7A 		vldr.32	s15, [r0, #60]	@ int
 139:VoiceEnvelope.h ****                 phase = 0; // Always start release from beginning, preserving the current level
 214              		.loc 3 139 57 view .LVU55
 215 0010 90ED0B7A 		vldr.32	s14, [r0, #44]
 139:VoiceEnvelope.h ****                 phase = 0; // Always start release from beginning, preserving the current level
 216              		.loc 3 139 58 view .LVU56
 217 0014 F8EE677A 		vcvt.f32.u32	s15, s15
 218              	.LBB1075:
 219              	.LBB1076:
 218:VoiceEnvelope.h ****     }
 220              		.loc 3 218 27 view .LVU57
 221 0018 90ED026A 		vldr.32	s12, [r0, #8]
 222              	.LBE1076:
 223              	.LBE1075:
 139:VoiceEnvelope.h ****                 phase = 0; // Always start release from beginning, preserving the current level
 224              		.loc 3 139 57 view .LVU58
 225 001c 67EE877A 		vmul.f32	s15, s15, s14
 226              	.LVL11:
 227              	.LBB1078:
 228              	.LBI1075:
 217:VoiceEnvelope.h ****         return ph / (1.0f + attack_curve_coefficient * (1.0f - ph));
 229              		.loc 3 217 11 is_stmt 1 view .LVU59
 230              	.LBB1077:
 218:VoiceEnvelope.h ****     }
 231              		.loc 3 218 9 view .LVU60
 218:VoiceEnvelope.h ****     }
 232              		.loc 3 218 62 is_stmt 0 view .LVU61
 233 0020 B7EE007A 		vmov.f32	s14, #1.0e+0
 234 0024 77EE676A 		vsub.f32	s13, s14, s15
 218:VoiceEnvelope.h ****     }
 235              		.loc 3 218 27 view .LVU62
 236 0028 A6EE267A 		vfma.f32	s14, s12, s13
 237              	.LVL12:
 218:VoiceEnvelope.h ****     }
 238              		.loc 3 218 67 view .LVU63
 239 002c C7EE876A 		vdiv.f32	s13, s15, s14
 240              	.LBE1077:
 241              	.LBE1078:
 139:VoiceEnvelope.h ****                 phase = 0; // Always start release from beginning, preserving the current level
 242              		.loc 3 139 31 view .LVU64
 243 0030 C0ED016A 		vstr.32	s13, [r0, #4]
 140:VoiceEnvelope.h ****                 current_state = ENV_DECAY;
 244              		.loc 3 140 17 is_stmt 1 view .LVU65
 245              	.LVL13:
 246              	.L12:
 140:VoiceEnvelope.h ****                 current_state = ENV_DECAY;
 247              		.loc 3 140 17 is_stmt 0 view .LVU66
 248              	.LBE1074:
 249              	.LBE1073:
ARM GAS  /var/folders/9s/8rp0_f2s1n31qbztm3b5_fdh0000gn/T//ccwHxkZj.s 			page 11


 143:VoiceEnvelope.h ****                 phase = 0;
 250              		.loc 3 143 13 is_stmt 1 view .LVU67
 144:VoiceEnvelope.h ****                 current_state = ENV_DECAY;
 251              		.loc 3 144 17 view .LVU68
 144:VoiceEnvelope.h ****                 current_state = ENV_DECAY;
 252              		.loc 3 144 23 is_stmt 0 view .LVU69
 253 0034 0023     		movs	r3, #0
 254 0036 C363     		str	r3, [r0, #60]
 145:VoiceEnvelope.h ****                 break;
 255              		.loc 3 145 17 is_stmt 1 view .LVU70
 145:VoiceEnvelope.h ****                 break;
 256              		.loc 3 145 31 is_stmt 0 view .LVU71
 257 0038 0323     		movs	r3, #3
 258 003a 0370     		strb	r3, [r0]
 146:VoiceEnvelope.h ****             default:
 259              		.loc 3 146 17 is_stmt 1 view .LVU72
 150:VoiceEnvelope.h **** 
 260              		.loc 3 150 5 is_stmt 0 view .LVU73
 261 003c 7047     		bx	lr
 262              		.cfi_endproc
 263              	.LFE5477:
 265              		.section	.text._ZN13VoiceEnvelope5ResetEv,"axG",%progbits,_ZN13VoiceEnvelope5ResetEv,comdat
 266              		.align	1
 267              		.weak	_ZN13VoiceEnvelope5ResetEv
 268              		.syntax unified
 269              		.thumb
 270              		.thumb_func
 272              	_ZN13VoiceEnvelope5ResetEv:
 273              	.LVL14:
 274              	.LFB5479:
 205:VoiceEnvelope.h ****         if (current_state == ENV_IDLE) return;
 275              		.loc 3 205 10 is_stmt 1 view -0
 276              		.cfi_startproc
 277              		@ args = 0, pretend = 0, frame = 0
 278              		@ frame_needed = 0, uses_anonymous_args = 0
 279              		@ link register save eliminated.
 206:VoiceEnvelope.h ****         current_state = ENV_RESET;
 280              		.loc 3 206 9 view .LVU75
 281 0000 0378     		ldrb	r3, [r0]	@ zero_extendqisi2
 282 0002 2BB1     		cbz	r3, .L14
 283              	.LVL15:
 284              	.LBB1081:
 285              	.LBI1081:
 205:VoiceEnvelope.h ****         if (current_state == ENV_IDLE) return;
 286              		.loc 3 205 10 view .LVU76
 287              	.LBB1082:
 207:VoiceEnvelope.h ****         reset_target = current_value;
 288              		.loc 3 207 9 view .LVU77
 207:VoiceEnvelope.h ****         reset_target = current_value;
 289              		.loc 3 207 23 is_stmt 0 view .LVU78
 290 0004 0423     		movs	r3, #4
 291 0006 0370     		strb	r3, [r0]
 208:VoiceEnvelope.h ****         phase = 0;
 292              		.loc 3 208 9 is_stmt 1 view .LVU79
 208:VoiceEnvelope.h ****         phase = 0;
 293              		.loc 3 208 22 is_stmt 0 view .LVU80
 294 0008 4368     		ldr	r3, [r0, #4]	@ float
ARM GAS  /var/folders/9s/8rp0_f2s1n31qbztm3b5_fdh0000gn/T//ccwHxkZj.s 			page 12


 295 000a 8362     		str	r3, [r0, #40]	@ float
 209:VoiceEnvelope.h ****     }
 296              		.loc 3 209 9 is_stmt 1 view .LVU81
 209:VoiceEnvelope.h ****     }
 297              		.loc 3 209 15 is_stmt 0 view .LVU82
 298 000c 0023     		movs	r3, #0
 299 000e C363     		str	r3, [r0, #60]
 300              	.LVL16:
 301              	.L14:
 209:VoiceEnvelope.h ****     }
 302              		.loc 3 209 15 view .LVU83
 303              	.LBE1082:
 304              	.LBE1081:
 210:VoiceEnvelope.h **** 
 305              		.loc 3 210 5 view .LVU84
 306 0010 7047     		bx	lr
 307              		.cfi_endproc
 308              	.LFE5479:
 310              		.section	.text._ZN15PolyphonyEngineC2Ev,"ax",%progbits
 311              		.align	1
 312              		.global	_ZN15PolyphonyEngineC2Ev
 313              		.syntax unified
 314              		.thumb
 315              		.thumb_func
 317              	_ZN15PolyphonyEngineC2Ev:
 318              	.LVL17:
 319              	.LFB5797:
  17:Polyphony.cpp ****     memset(voice_active_, 0, sizeof(voice_active_));
 320              		.loc 1 17 1 is_stmt 1 view -0
 321              		.cfi_startproc
 322              		@ args = 0, pretend = 0, frame = 0
 323              		@ frame_needed = 0, uses_anonymous_args = 0
 324              	.LBB1277:
  17:Polyphony.cpp ****     memset(voice_active_, 0, sizeof(voice_active_));
 325              		.loc 1 17 103 view .LVU86
 326              	.LBE1277:
  17:Polyphony.cpp ****     memset(voice_active_, 0, sizeof(voice_active_));
 327              		.loc 1 17 1 is_stmt 0 view .LVU87
 328 0000 38B5     		push	{r3, r4, r5, lr}
 329              		.cfi_def_cfa_offset 16
 330              		.cfi_offset 3, -16
 331              		.cfi_offset 4, -12
 332              		.cfi_offset 5, -8
 333              		.cfi_offset 14, -4
 334 0002 00F55F52 		add	r2, r0, #14272
  17:Polyphony.cpp ****     memset(voice_active_, 0, sizeof(voice_active_));
 335              		.loc 1 17 1 view .LVU88
 336 0006 0446     		mov	r4, r0
 337 0008 0346     		mov	r3, r0
 338              	.L20:
 339              	.LVL18:
 340              	.LBB1387:
 341              	.LBB1278:
 342              	.LBI1278:
 343              		.file 4 "eurorack/plaits/dsp/voice.h"
   1:eurorack/plaits/dsp/voice.h **** // Copyright 2016 Emilie Gillet.
   2:eurorack/plaits/dsp/voice.h **** //
ARM GAS  /var/folders/9s/8rp0_f2s1n31qbztm3b5_fdh0000gn/T//ccwHxkZj.s 			page 13


   3:eurorack/plaits/dsp/voice.h **** // Author: Emilie Gillet (emilie.o.gillet@gmail.com)
   4:eurorack/plaits/dsp/voice.h **** //
   5:eurorack/plaits/dsp/voice.h **** // Permission is hereby granted, free of charge, to any person obtaining a copy
   6:eurorack/plaits/dsp/voice.h **** // of this software and associated documentation files (the "Software"), to deal
   7:eurorack/plaits/dsp/voice.h **** // in the Software without restriction, including without limitation the rights
   8:eurorack/plaits/dsp/voice.h **** // to use, copy, modify, merge, publish, distribute, sublicense, and/or sell
   9:eurorack/plaits/dsp/voice.h **** // copies of the Software, and to permit persons to whom the Software is
  10:eurorack/plaits/dsp/voice.h **** // furnished to do so, subject to the following conditions:
  11:eurorack/plaits/dsp/voice.h **** // 
  12:eurorack/plaits/dsp/voice.h **** // The above copyright notice and this permission notice shall be included in
  13:eurorack/plaits/dsp/voice.h **** // all copies or substantial portions of the Software.
  14:eurorack/plaits/dsp/voice.h **** // 
  15:eurorack/plaits/dsp/voice.h **** // THE SOFTWARE IS PROVIDED "AS IS", WITHOUT WARRANTY OF ANY KIND, EXPRESS OR
  16:eurorack/plaits/dsp/voice.h **** // IMPLIED, INCLUDING BUT NOT LIMITED TO THE WARRANTIES OF MERCHANTABILITY,
  17:eurorack/plaits/dsp/voice.h **** // FITNESS FOR A PARTICULAR PURPOSE AND NONINFRINGEMENT. IN NO EVENT SHALL THE
  18:eurorack/plaits/dsp/voice.h **** // AUTHORS OR COPYRIGHT HOLDERS BE LIABLE FOR ANY CLAIM, DAMAGES OR OTHER
  19:eurorack/plaits/dsp/voice.h **** // LIABILITY, WHETHER IN AN ACTION OF CONTRACT, TORT OR OTHERWISE, ARISING FROM,
  20:eurorack/plaits/dsp/voice.h **** // OUT OF OR IN CONNECTION WITH THE SOFTWARE OR THE USE OR OTHER DEALINGS IN
  21:eurorack/plaits/dsp/voice.h **** // THE SOFTWARE.
  22:eurorack/plaits/dsp/voice.h **** // 
  23:eurorack/plaits/dsp/voice.h **** // See http://creativecommons.org/licenses/MIT/ for more information.
  24:eurorack/plaits/dsp/voice.h **** //
  25:eurorack/plaits/dsp/voice.h **** // -----------------------------------------------------------------------------
  26:eurorack/plaits/dsp/voice.h **** //
  27:eurorack/plaits/dsp/voice.h **** // Main synthesis voice.
  28:eurorack/plaits/dsp/voice.h **** 
  29:eurorack/plaits/dsp/voice.h **** #ifndef PLAITS_DSP_VOICE_H_
  30:eurorack/plaits/dsp/voice.h **** #define PLAITS_DSP_VOICE_H_
  31:eurorack/plaits/dsp/voice.h **** 
  32:eurorack/plaits/dsp/voice.h **** #include "stmlib/stmlib.h"
  33:eurorack/plaits/dsp/voice.h **** 
  34:eurorack/plaits/dsp/voice.h **** #include "stmlib/dsp/filter.h"
  35:eurorack/plaits/dsp/voice.h **** #include "stmlib/dsp/limiter.h"
  36:eurorack/plaits/dsp/voice.h **** #include "stmlib/utils/buffer_allocator.h"
  37:eurorack/plaits/dsp/voice.h **** 
  38:eurorack/plaits/dsp/voice.h **** #include "plaits/dsp/engine/additive_engine.h"
  39:eurorack/plaits/dsp/voice.h **** #include "plaits/dsp/engine/bass_drum_engine.h"
  40:eurorack/plaits/dsp/voice.h **** #include "plaits/dsp/engine/chord_engine.h"
  41:eurorack/plaits/dsp/voice.h **** #include "plaits/dsp/engine/engine.h"
  42:eurorack/plaits/dsp/voice.h **** #include "plaits/dsp/engine/fm_engine.h"
  43:eurorack/plaits/dsp/voice.h **** #include "plaits/dsp/engine/grain_engine.h"
  44:eurorack/plaits/dsp/voice.h **** #include "plaits/dsp/engine/hi_hat_engine.h"
  45:eurorack/plaits/dsp/voice.h **** #include "plaits/dsp/engine/modal_engine.h"
  46:eurorack/plaits/dsp/voice.h **** #include "plaits/dsp/engine/noise_engine.h"
  47:eurorack/plaits/dsp/voice.h **** #include "plaits/dsp/engine/particle_engine.h"
  48:eurorack/plaits/dsp/voice.h **** #include "plaits/dsp/engine/snare_drum_engine.h"
  49:eurorack/plaits/dsp/voice.h **** // #include "plaits/dsp/engine/speech_engine.h"
  50:eurorack/plaits/dsp/voice.h **** #include "plaits/dsp/engine/string_engine.h"
  51:eurorack/plaits/dsp/voice.h **** #include "plaits/dsp/engine/swarm_engine.h"
  52:eurorack/plaits/dsp/voice.h **** #include "plaits/dsp/engine/virtual_analog_engine.h"
  53:eurorack/plaits/dsp/voice.h **** #include "plaits/dsp/engine/waveshaping_engine.h"
  54:eurorack/plaits/dsp/voice.h **** // #include "plaits/dsp/engine/wavetable_engine.h"
  55:eurorack/plaits/dsp/voice.h **** 
  56:eurorack/plaits/dsp/voice.h **** #include "plaits/dsp/envelope.h"
  57:eurorack/plaits/dsp/voice.h **** 
  58:eurorack/plaits/dsp/voice.h **** #include "plaits/dsp/fx/low_pass_gate.h"
  59:eurorack/plaits/dsp/voice.h **** 
ARM GAS  /var/folders/9s/8rp0_f2s1n31qbztm3b5_fdh0000gn/T//ccwHxkZj.s 			page 14


  60:eurorack/plaits/dsp/voice.h **** namespace plaits {
  61:eurorack/plaits/dsp/voice.h **** 
  62:eurorack/plaits/dsp/voice.h **** const int kMaxEngines = 16;
  63:eurorack/plaits/dsp/voice.h **** const int kMaxTriggerDelay = 8;
  64:eurorack/plaits/dsp/voice.h **** const int kTriggerDelay = 5;
  65:eurorack/plaits/dsp/voice.h **** 
  66:eurorack/plaits/dsp/voice.h **** class ChannelPostProcessor {
  67:eurorack/plaits/dsp/voice.h ****  public:
  68:eurorack/plaits/dsp/voice.h ****   ChannelPostProcessor() { }
  69:eurorack/plaits/dsp/voice.h ****   ~ChannelPostProcessor() { }
  70:eurorack/plaits/dsp/voice.h ****   
  71:eurorack/plaits/dsp/voice.h ****   void Init() {
  72:eurorack/plaits/dsp/voice.h ****     lpg_.Init();
  73:eurorack/plaits/dsp/voice.h ****     Reset();
  74:eurorack/plaits/dsp/voice.h ****   }
  75:eurorack/plaits/dsp/voice.h ****   
  76:eurorack/plaits/dsp/voice.h ****   void Reset() {
  77:eurorack/plaits/dsp/voice.h ****     limiter_.Init();
  78:eurorack/plaits/dsp/voice.h ****   }
  79:eurorack/plaits/dsp/voice.h ****   
  80:eurorack/plaits/dsp/voice.h ****   void Process(
  81:eurorack/plaits/dsp/voice.h ****       float gain,
  82:eurorack/plaits/dsp/voice.h ****       bool bypass_lpg,
  83:eurorack/plaits/dsp/voice.h ****       float low_pass_gate_gain,
  84:eurorack/plaits/dsp/voice.h ****       float low_pass_gate_frequency,
  85:eurorack/plaits/dsp/voice.h ****       float low_pass_gate_hf_bleed,
  86:eurorack/plaits/dsp/voice.h ****       float* in,
  87:eurorack/plaits/dsp/voice.h ****       short* out,
  88:eurorack/plaits/dsp/voice.h ****       size_t size,
  89:eurorack/plaits/dsp/voice.h ****       size_t stride) {
  90:eurorack/plaits/dsp/voice.h ****     if (gain < 0.0f) {
  91:eurorack/plaits/dsp/voice.h ****       limiter_.Process(-gain, in, size);
  92:eurorack/plaits/dsp/voice.h ****     }
  93:eurorack/plaits/dsp/voice.h ****     const float post_gain = (gain < 0.0f ? 1.0f : gain) * -32767.0f;
  94:eurorack/plaits/dsp/voice.h ****     if (!bypass_lpg) {
  95:eurorack/plaits/dsp/voice.h ****       lpg_.Process(
  96:eurorack/plaits/dsp/voice.h ****           post_gain * low_pass_gate_gain,
  97:eurorack/plaits/dsp/voice.h ****           low_pass_gate_frequency,
  98:eurorack/plaits/dsp/voice.h ****           low_pass_gate_hf_bleed,
  99:eurorack/plaits/dsp/voice.h ****           in,
 100:eurorack/plaits/dsp/voice.h ****           out,
 101:eurorack/plaits/dsp/voice.h ****           size,
 102:eurorack/plaits/dsp/voice.h ****           stride);
 103:eurorack/plaits/dsp/voice.h ****     } else {
 104:eurorack/plaits/dsp/voice.h ****       while (size--) {
 105:eurorack/plaits/dsp/voice.h ****         *out = stmlib::Clip16(1 + static_cast<int32_t>(*in++ * post_gain));
 106:eurorack/plaits/dsp/voice.h ****         out += stride;
 107:eurorack/plaits/dsp/voice.h ****       }
 108:eurorack/plaits/dsp/voice.h ****     }
 109:eurorack/plaits/dsp/voice.h ****   }
 110:eurorack/plaits/dsp/voice.h ****   
 111:eurorack/plaits/dsp/voice.h ****  private:
 112:eurorack/plaits/dsp/voice.h ****   stmlib::Limiter limiter_;
 113:eurorack/plaits/dsp/voice.h ****   LowPassGate lpg_;
 114:eurorack/plaits/dsp/voice.h ****   
 115:eurorack/plaits/dsp/voice.h ****   DISALLOW_COPY_AND_ASSIGN(ChannelPostProcessor);
 116:eurorack/plaits/dsp/voice.h **** };
ARM GAS  /var/folders/9s/8rp0_f2s1n31qbztm3b5_fdh0000gn/T//ccwHxkZj.s 			page 15


 117:eurorack/plaits/dsp/voice.h **** 
 118:eurorack/plaits/dsp/voice.h **** struct Patch {
 119:eurorack/plaits/dsp/voice.h ****   float note;
 120:eurorack/plaits/dsp/voice.h ****   float harmonics;
 121:eurorack/plaits/dsp/voice.h ****   float timbre;
 122:eurorack/plaits/dsp/voice.h ****   float morph;
 123:eurorack/plaits/dsp/voice.h ****   float frequency_modulation_amount;
 124:eurorack/plaits/dsp/voice.h ****   float timbre_modulation_amount;
 125:eurorack/plaits/dsp/voice.h ****   float morph_modulation_amount;
 126:eurorack/plaits/dsp/voice.h **** 
 127:eurorack/plaits/dsp/voice.h ****   int engine;
 128:eurorack/plaits/dsp/voice.h ****   float decay;
 129:eurorack/plaits/dsp/voice.h ****   float lpg_colour;
 130:eurorack/plaits/dsp/voice.h **** };
 131:eurorack/plaits/dsp/voice.h **** 
 132:eurorack/plaits/dsp/voice.h **** struct Modulations {
 133:eurorack/plaits/dsp/voice.h ****   float engine;
 134:eurorack/plaits/dsp/voice.h ****   float note;
 135:eurorack/plaits/dsp/voice.h ****   float frequency;
 136:eurorack/plaits/dsp/voice.h ****   float harmonics;
 137:eurorack/plaits/dsp/voice.h ****   float timbre;
 138:eurorack/plaits/dsp/voice.h ****   float morph;
 139:eurorack/plaits/dsp/voice.h ****   float trigger;
 140:eurorack/plaits/dsp/voice.h ****   float level;
 141:eurorack/plaits/dsp/voice.h **** 
 142:eurorack/plaits/dsp/voice.h ****   bool frequency_patched;
 143:eurorack/plaits/dsp/voice.h ****   bool timbre_patched;
 144:eurorack/plaits/dsp/voice.h ****   bool morph_patched;
 145:eurorack/plaits/dsp/voice.h ****   bool trigger_patched;
 146:eurorack/plaits/dsp/voice.h ****   bool level_patched;
 147:eurorack/plaits/dsp/voice.h **** };
 148:eurorack/plaits/dsp/voice.h **** 
 149:eurorack/plaits/dsp/voice.h **** class Voice {
 150:eurorack/plaits/dsp/voice.h ****  public:
 151:eurorack/plaits/dsp/voice.h ****   Voice() { }
 344              		.loc 4 151 3 is_stmt 1 view .LVU89
 345              	.LBB1279:
 346              	.LBI1279:
 347              		.file 5 "eurorack/plaits/dsp/engine/additive_engine.h"
   1:eurorack/plaits/dsp/engine/additive_engine.h **** // Copyright 2016 Emilie Gillet.
   2:eurorack/plaits/dsp/engine/additive_engine.h **** //
   3:eurorack/plaits/dsp/engine/additive_engine.h **** // Author: Emilie Gillet (emilie.o.gillet@gmail.com)
   4:eurorack/plaits/dsp/engine/additive_engine.h **** //
   5:eurorack/plaits/dsp/engine/additive_engine.h **** // Permission is hereby granted, free of charge, to any person obtaining a copy
   6:eurorack/plaits/dsp/engine/additive_engine.h **** // of this software and associated documentation files (the "Software"), to deal
   7:eurorack/plaits/dsp/engine/additive_engine.h **** // in the Software without restriction, including without limitation the rights
   8:eurorack/plaits/dsp/engine/additive_engine.h **** // to use, copy, modify, merge, publish, distribute, sublicense, and/or sell
   9:eurorack/plaits/dsp/engine/additive_engine.h **** // copies of the Software, and to permit persons to whom the Software is
  10:eurorack/plaits/dsp/engine/additive_engine.h **** // furnished to do so, subject to the following conditions:
  11:eurorack/plaits/dsp/engine/additive_engine.h **** // 
  12:eurorack/plaits/dsp/engine/additive_engine.h **** // The above copyright notice and this permission notice shall be included in
  13:eurorack/plaits/dsp/engine/additive_engine.h **** // all copies or substantial portions of the Software.
  14:eurorack/plaits/dsp/engine/additive_engine.h **** // 
  15:eurorack/plaits/dsp/engine/additive_engine.h **** // THE SOFTWARE IS PROVIDED "AS IS", WITHOUT WARRANTY OF ANY KIND, EXPRESS OR
  16:eurorack/plaits/dsp/engine/additive_engine.h **** // IMPLIED, INCLUDING BUT NOT LIMITED TO THE WARRANTIES OF MERCHANTABILITY,
  17:eurorack/plaits/dsp/engine/additive_engine.h **** // FITNESS FOR A PARTICULAR PURPOSE AND NONINFRINGEMENT. IN NO EVENT SHALL THE
  18:eurorack/plaits/dsp/engine/additive_engine.h **** // AUTHORS OR COPYRIGHT HOLDERS BE LIABLE FOR ANY CLAIM, DAMAGES OR OTHER
ARM GAS  /var/folders/9s/8rp0_f2s1n31qbztm3b5_fdh0000gn/T//ccwHxkZj.s 			page 16


  19:eurorack/plaits/dsp/engine/additive_engine.h **** // LIABILITY, WHETHER IN AN ACTION OF CONTRACT, TORT OR OTHERWISE, ARISING FROM,
  20:eurorack/plaits/dsp/engine/additive_engine.h **** // OUT OF OR IN CONNECTION WITH THE SOFTWARE OR THE USE OR OTHER DEALINGS IN
  21:eurorack/plaits/dsp/engine/additive_engine.h **** // THE SOFTWARE.
  22:eurorack/plaits/dsp/engine/additive_engine.h **** // 
  23:eurorack/plaits/dsp/engine/additive_engine.h **** // See http://creativecommons.org/licenses/MIT/ for more information.
  24:eurorack/plaits/dsp/engine/additive_engine.h **** //
  25:eurorack/plaits/dsp/engine/additive_engine.h **** // -----------------------------------------------------------------------------
  26:eurorack/plaits/dsp/engine/additive_engine.h **** //
  27:eurorack/plaits/dsp/engine/additive_engine.h **** // Additive synthesis with 24+8 partials.
  28:eurorack/plaits/dsp/engine/additive_engine.h **** 
  29:eurorack/plaits/dsp/engine/additive_engine.h **** #ifndef PLAITS_DSP_ENGINE_ADDITIVE_ENGINE_H_
  30:eurorack/plaits/dsp/engine/additive_engine.h **** #define PLAITS_DSP_ENGINE_ADDITIVE_ENGINE_H_
  31:eurorack/plaits/dsp/engine/additive_engine.h **** 
  32:eurorack/plaits/dsp/engine/additive_engine.h **** #include "plaits/dsp/engine/engine.h"
  33:eurorack/plaits/dsp/engine/additive_engine.h **** #include "plaits/dsp/oscillator/harmonic_oscillator.h"
  34:eurorack/plaits/dsp/engine/additive_engine.h **** 
  35:eurorack/plaits/dsp/engine/additive_engine.h **** namespace plaits {
  36:eurorack/plaits/dsp/engine/additive_engine.h ****   
  37:eurorack/plaits/dsp/engine/additive_engine.h **** const int kHarmonicBatchSize = 12;
  38:eurorack/plaits/dsp/engine/additive_engine.h **** const int kNumHarmonics = 36;
  39:eurorack/plaits/dsp/engine/additive_engine.h **** const int kNumHarmonicOscillators = kNumHarmonics / kHarmonicBatchSize;
  40:eurorack/plaits/dsp/engine/additive_engine.h **** 
  41:eurorack/plaits/dsp/engine/additive_engine.h **** class AdditiveEngine : public Engine {
  42:eurorack/plaits/dsp/engine/additive_engine.h ****  public:
  43:eurorack/plaits/dsp/engine/additive_engine.h ****   AdditiveEngine() { }
 348              		.loc 5 43 3 view .LVU90
 349              	.LBB1280:
 350              	.LBB1281:
 351              	.LBI1281:
 352              		.file 6 "eurorack/plaits/dsp/engine/engine.h"
   1:eurorack/plaits/dsp/engine/engine.h **** // Copyright 2016 Emilie Gillet.
   2:eurorack/plaits/dsp/engine/engine.h **** //
   3:eurorack/plaits/dsp/engine/engine.h **** // Author: Emilie Gillet (emilie.o.gillet@gmail.com)
   4:eurorack/plaits/dsp/engine/engine.h **** //
   5:eurorack/plaits/dsp/engine/engine.h **** // Permission is hereby granted, free of charge, to any person obtaining a copy
   6:eurorack/plaits/dsp/engine/engine.h **** // of this software and associated documentation files (the "Software"), to deal
   7:eurorack/plaits/dsp/engine/engine.h **** // in the Software without restriction, including without limitation the rights
   8:eurorack/plaits/dsp/engine/engine.h **** // to use, copy, modify, merge, publish, distribute, sublicense, and/or sell
   9:eurorack/plaits/dsp/engine/engine.h **** // copies of the Software, and to permit persons to whom the Software is
  10:eurorack/plaits/dsp/engine/engine.h **** // furnished to do so, subject to the following conditions:
  11:eurorack/plaits/dsp/engine/engine.h **** // 
  12:eurorack/plaits/dsp/engine/engine.h **** // The above copyright notice and this permission notice shall be included in
  13:eurorack/plaits/dsp/engine/engine.h **** // all copies or substantial portions of the Software.
  14:eurorack/plaits/dsp/engine/engine.h **** // 
  15:eurorack/plaits/dsp/engine/engine.h **** // THE SOFTWARE IS PROVIDED "AS IS", WITHOUT WARRANTY OF ANY KIND, EXPRESS OR
  16:eurorack/plaits/dsp/engine/engine.h **** // IMPLIED, INCLUDING BUT NOT LIMITED TO THE WARRANTIES OF MERCHANTABILITY,
  17:eurorack/plaits/dsp/engine/engine.h **** // FITNESS FOR A PARTICULAR PURPOSE AND NONINFRINGEMENT. IN NO EVENT SHALL THE
  18:eurorack/plaits/dsp/engine/engine.h **** // AUTHORS OR COPYRIGHT HOLDERS BE LIABLE FOR ANY CLAIM, DAMAGES OR OTHER
  19:eurorack/plaits/dsp/engine/engine.h **** // LIABILITY, WHETHER IN AN ACTION OF CONTRACT, TORT OR OTHERWISE, ARISING FROM,
  20:eurorack/plaits/dsp/engine/engine.h **** // OUT OF OR IN CONNECTION WITH THE SOFTWARE OR THE USE OR OTHER DEALINGS IN
  21:eurorack/plaits/dsp/engine/engine.h **** // THE SOFTWARE.
  22:eurorack/plaits/dsp/engine/engine.h **** // 
  23:eurorack/plaits/dsp/engine/engine.h **** // See http://creativecommons.org/licenses/MIT/ for more information.
  24:eurorack/plaits/dsp/engine/engine.h **** //
  25:eurorack/plaits/dsp/engine/engine.h **** // -----------------------------------------------------------------------------
  26:eurorack/plaits/dsp/engine/engine.h **** //
  27:eurorack/plaits/dsp/engine/engine.h **** // Base class for all engines.
ARM GAS  /var/folders/9s/8rp0_f2s1n31qbztm3b5_fdh0000gn/T//ccwHxkZj.s 			page 17


  28:eurorack/plaits/dsp/engine/engine.h **** 
  29:eurorack/plaits/dsp/engine/engine.h **** #ifndef PLAITS_DSP_ENGINE_ENGINE_H_
  30:eurorack/plaits/dsp/engine/engine.h **** #define PLAITS_DSP_ENGINE_ENGINE_H_
  31:eurorack/plaits/dsp/engine/engine.h **** 
  32:eurorack/plaits/dsp/engine/engine.h **** #include "plaits/dsp/dsp.h"
  33:eurorack/plaits/dsp/engine/engine.h **** 
  34:eurorack/plaits/dsp/engine/engine.h **** #include "stmlib/dsp/units.h"
  35:eurorack/plaits/dsp/engine/engine.h **** #include "stmlib/utils/buffer_allocator.h"
  36:eurorack/plaits/dsp/engine/engine.h **** 
  37:eurorack/plaits/dsp/engine/engine.h **** namespace plaits {
  38:eurorack/plaits/dsp/engine/engine.h **** 
  39:eurorack/plaits/dsp/engine/engine.h **** inline float NoteToFrequency(float midi_note) {
  40:eurorack/plaits/dsp/engine/engine.h ****   midi_note -= 9.0f;
  41:eurorack/plaits/dsp/engine/engine.h ****   CONSTRAIN(midi_note, -128.0f, 127.0f);
  42:eurorack/plaits/dsp/engine/engine.h ****   return a0 * 0.25f * stmlib::SemitonesToRatio(midi_note);
  43:eurorack/plaits/dsp/engine/engine.h **** }
  44:eurorack/plaits/dsp/engine/engine.h **** 
  45:eurorack/plaits/dsp/engine/engine.h **** enum TriggerState {
  46:eurorack/plaits/dsp/engine/engine.h ****   TRIGGER_LOW = 0,
  47:eurorack/plaits/dsp/engine/engine.h ****   TRIGGER_RISING_EDGE = 1,
  48:eurorack/plaits/dsp/engine/engine.h ****   TRIGGER_UNPATCHED = 2,
  49:eurorack/plaits/dsp/engine/engine.h ****   TRIGGER_UNPATCHED_AUTOTRIGGED = 3,
  50:eurorack/plaits/dsp/engine/engine.h **** };
  51:eurorack/plaits/dsp/engine/engine.h **** 
  52:eurorack/plaits/dsp/engine/engine.h **** struct EngineParameters {
  53:eurorack/plaits/dsp/engine/engine.h ****   TriggerState trigger;
  54:eurorack/plaits/dsp/engine/engine.h ****   float note;
  55:eurorack/plaits/dsp/engine/engine.h ****   float timbre;
  56:eurorack/plaits/dsp/engine/engine.h ****   float morph;
  57:eurorack/plaits/dsp/engine/engine.h ****   float harmonics;
  58:eurorack/plaits/dsp/engine/engine.h ****   float accent;
  59:eurorack/plaits/dsp/engine/engine.h **** };
  60:eurorack/plaits/dsp/engine/engine.h **** 
  61:eurorack/plaits/dsp/engine/engine.h **** struct PostProcessingSettings {
  62:eurorack/plaits/dsp/engine/engine.h ****   // A negative value indicates that a limiter must be used.
  63:eurorack/plaits/dsp/engine/engine.h ****   float out_gain;
  64:eurorack/plaits/dsp/engine/engine.h ****   float aux_gain;
  65:eurorack/plaits/dsp/engine/engine.h ****   
  66:eurorack/plaits/dsp/engine/engine.h ****   // When this flag is set to true, the engine declares that it will 
  67:eurorack/plaits/dsp/engine/engine.h ****   // render a signal that already has an envelope (eg: modal drum, 808 kick).
  68:eurorack/plaits/dsp/engine/engine.h ****   // By reporting this information, the synthesis voice upstream will
  69:eurorack/plaits/dsp/engine/engine.h ****   // bypass the internal envelope/LPG.
  70:eurorack/plaits/dsp/engine/engine.h ****   //
  71:eurorack/plaits/dsp/engine/engine.h ****   // This parameter can be changed on a per-call basis when calling Render()
  72:eurorack/plaits/dsp/engine/engine.h ****   // This is used by the speech synthesis engine, which renders either
  73:eurorack/plaits/dsp/engine/engine.h ****   // a continuous vowel sound (which needs to be enveloped by the LPG)
  74:eurorack/plaits/dsp/engine/engine.h ****   // or a word/sentence (which is already enveloped).
  75:eurorack/plaits/dsp/engine/engine.h ****   bool already_enveloped;
  76:eurorack/plaits/dsp/engine/engine.h **** };
  77:eurorack/plaits/dsp/engine/engine.h **** 
  78:eurorack/plaits/dsp/engine/engine.h **** class Engine {
  79:eurorack/plaits/dsp/engine/engine.h ****  public:
  80:eurorack/plaits/dsp/engine/engine.h ****   Engine() { }
 353              		.loc 6 80 3 view .LVU91
 354              		.loc 6 80 3 is_stmt 0 view .LVU92
 355              	.LBE1281:
 356              		.loc 5 43 20 view .LVU93
ARM GAS  /var/folders/9s/8rp0_f2s1n31qbztm3b5_fdh0000gn/T//ccwHxkZj.s 			page 18


 357 000a 3449     		ldr	r1, .L24
 358 000c 1960     		str	r1, [r3]
 359              		.loc 5 43 20 is_stmt 1 view .LVU94
 360              	.LVL19:
 361              		.loc 5 43 20 is_stmt 0 view .LVU95
 362              	.LBE1280:
 363              	.LBE1279:
 364              	.LBB1282:
 365              	.LBI1282:
 366              		.file 7 "eurorack/plaits/dsp/engine/bass_drum_engine.h"
   1:eurorack/plaits/dsp/engine/bass_drum_engine.h **** // Copyright 2016 Emilie Gillet.
   2:eurorack/plaits/dsp/engine/bass_drum_engine.h **** //
   3:eurorack/plaits/dsp/engine/bass_drum_engine.h **** // Author: Emilie Gillet (emilie.o.gillet@gmail.com)
   4:eurorack/plaits/dsp/engine/bass_drum_engine.h **** //
   5:eurorack/plaits/dsp/engine/bass_drum_engine.h **** // Permission is hereby granted, free of charge, to any person obtaining a copy
   6:eurorack/plaits/dsp/engine/bass_drum_engine.h **** // of this software and associated documentation files (the "Software"), to deal
   7:eurorack/plaits/dsp/engine/bass_drum_engine.h **** // in the Software without restriction, including without limitation the rights
   8:eurorack/plaits/dsp/engine/bass_drum_engine.h **** // to use, copy, modify, merge, publish, distribute, sublicense, and/or sell
   9:eurorack/plaits/dsp/engine/bass_drum_engine.h **** // copies of the Software, and to permit persons to whom the Software is
  10:eurorack/plaits/dsp/engine/bass_drum_engine.h **** // furnished to do so, subject to the following conditions:
  11:eurorack/plaits/dsp/engine/bass_drum_engine.h **** // 
  12:eurorack/plaits/dsp/engine/bass_drum_engine.h **** // The above copyright notice and this permission notice shall be included in
  13:eurorack/plaits/dsp/engine/bass_drum_engine.h **** // all copies or substantial portions of the Software.
  14:eurorack/plaits/dsp/engine/bass_drum_engine.h **** // 
  15:eurorack/plaits/dsp/engine/bass_drum_engine.h **** // THE SOFTWARE IS PROVIDED "AS IS", WITHOUT WARRANTY OF ANY KIND, EXPRESS OR
  16:eurorack/plaits/dsp/engine/bass_drum_engine.h **** // IMPLIED, INCLUDING BUT NOT LIMITED TO THE WARRANTIES OF MERCHANTABILITY,
  17:eurorack/plaits/dsp/engine/bass_drum_engine.h **** // FITNESS FOR A PARTICULAR PURPOSE AND NONINFRINGEMENT. IN NO EVENT SHALL THE
  18:eurorack/plaits/dsp/engine/bass_drum_engine.h **** // AUTHORS OR COPYRIGHT HOLDERS BE LIABLE FOR ANY CLAIM, DAMAGES OR OTHER
  19:eurorack/plaits/dsp/engine/bass_drum_engine.h **** // LIABILITY, WHETHER IN AN ACTION OF CONTRACT, TORT OR OTHERWISE, ARISING FROM,
  20:eurorack/plaits/dsp/engine/bass_drum_engine.h **** // OUT OF OR IN CONNECTION WITH THE SOFTWARE OR THE USE OR OTHER DEALINGS IN
  21:eurorack/plaits/dsp/engine/bass_drum_engine.h **** // THE SOFTWARE.
  22:eurorack/plaits/dsp/engine/bass_drum_engine.h **** // 
  23:eurorack/plaits/dsp/engine/bass_drum_engine.h **** // See http://creativecommons.org/licenses/MIT/ for more information.
  24:eurorack/plaits/dsp/engine/bass_drum_engine.h **** //
  25:eurorack/plaits/dsp/engine/bass_drum_engine.h **** // -----------------------------------------------------------------------------
  26:eurorack/plaits/dsp/engine/bass_drum_engine.h **** //
  27:eurorack/plaits/dsp/engine/bass_drum_engine.h **** // 808 and synthetic bass drum generators.
  28:eurorack/plaits/dsp/engine/bass_drum_engine.h **** 
  29:eurorack/plaits/dsp/engine/bass_drum_engine.h **** #ifndef PLAITS_DSP_ENGINE_BASS_DRUM_ENGINE_H_
  30:eurorack/plaits/dsp/engine/bass_drum_engine.h **** #define PLAITS_DSP_ENGINE_BASS_DRUM_ENGINE_H_
  31:eurorack/plaits/dsp/engine/bass_drum_engine.h **** 
  32:eurorack/plaits/dsp/engine/bass_drum_engine.h **** #include "plaits/dsp/drums/analog_bass_drum.h"
  33:eurorack/plaits/dsp/engine/bass_drum_engine.h **** #include "plaits/dsp/drums/synthetic_bass_drum.h"
  34:eurorack/plaits/dsp/engine/bass_drum_engine.h **** #include "plaits/dsp/engine/engine.h"
  35:eurorack/plaits/dsp/engine/bass_drum_engine.h **** #include "plaits/dsp/fx/overdrive.h"
  36:eurorack/plaits/dsp/engine/bass_drum_engine.h **** #include "plaits/dsp/fx/sample_rate_reducer.h"
  37:eurorack/plaits/dsp/engine/bass_drum_engine.h **** 
  38:eurorack/plaits/dsp/engine/bass_drum_engine.h **** namespace plaits {
  39:eurorack/plaits/dsp/engine/bass_drum_engine.h ****   
  40:eurorack/plaits/dsp/engine/bass_drum_engine.h **** class BassDrumEngine : public Engine {
  41:eurorack/plaits/dsp/engine/bass_drum_engine.h ****  public:
  42:eurorack/plaits/dsp/engine/bass_drum_engine.h ****   BassDrumEngine() { }
 367              		.loc 7 42 3 is_stmt 1 view .LVU96
 368              	.LBB1283:
 369              	.LBB1284:
 370              	.LBI1284:
 371              		.loc 6 80 3 view .LVU97
ARM GAS  /var/folders/9s/8rp0_f2s1n31qbztm3b5_fdh0000gn/T//ccwHxkZj.s 			page 19


 372              		.loc 6 80 3 is_stmt 0 view .LVU98
 373              	.LBE1284:
 374              		.loc 7 42 20 view .LVU99
 375 000e 3449     		ldr	r1, .L24+4
 376 0010 C3F84811 		str	r1, [r3, #328]
 377              	.LVL20:
 378              	.LBB1285:
 379              	.LBI1285:
 380              		.file 8 "eurorack/plaits/dsp/drums/analog_bass_drum.h"
   1:eurorack/plaits/dsp/drums/analog_bass_drum.h **** // Copyright 2016 Emilie Gillet.
   2:eurorack/plaits/dsp/drums/analog_bass_drum.h **** //
   3:eurorack/plaits/dsp/drums/analog_bass_drum.h **** // Author: Emilie Gillet (emilie.o.gillet@gmail.com)
   4:eurorack/plaits/dsp/drums/analog_bass_drum.h **** //
   5:eurorack/plaits/dsp/drums/analog_bass_drum.h **** // Permission is hereby granted, free of charge, to any person obtaining a copy
   6:eurorack/plaits/dsp/drums/analog_bass_drum.h **** // of this software and associated documentation files (the "Software"), to deal
   7:eurorack/plaits/dsp/drums/analog_bass_drum.h **** // in the Software without restriction, including without limitation the rights
   8:eurorack/plaits/dsp/drums/analog_bass_drum.h **** // to use, copy, modify, merge, publish, distribute, sublicense, and/or sell
   9:eurorack/plaits/dsp/drums/analog_bass_drum.h **** // copies of the Software, and to permit persons to whom the Software is
  10:eurorack/plaits/dsp/drums/analog_bass_drum.h **** // furnished to do so, subject to the following conditions:
  11:eurorack/plaits/dsp/drums/analog_bass_drum.h **** // 
  12:eurorack/plaits/dsp/drums/analog_bass_drum.h **** // The above copyright notice and this permission notice shall be included in
  13:eurorack/plaits/dsp/drums/analog_bass_drum.h **** // all copies or substantial portions of the Software.
  14:eurorack/plaits/dsp/drums/analog_bass_drum.h **** // 
  15:eurorack/plaits/dsp/drums/analog_bass_drum.h **** // THE SOFTWARE IS PROVIDED "AS IS", WITHOUT WARRANTY OF ANY KIND, EXPRESS OR
  16:eurorack/plaits/dsp/drums/analog_bass_drum.h **** // IMPLIED, INCLUDING BUT NOT LIMITED TO THE WARRANTIES OF MERCHANTABILITY,
  17:eurorack/plaits/dsp/drums/analog_bass_drum.h **** // FITNESS FOR A PARTICULAR PURPOSE AND NONINFRINGEMENT. IN NO EVENT SHALL THE
  18:eurorack/plaits/dsp/drums/analog_bass_drum.h **** // AUTHORS OR COPYRIGHT HOLDERS BE LIABLE FOR ANY CLAIM, DAMAGES OR OTHER
  19:eurorack/plaits/dsp/drums/analog_bass_drum.h **** // LIABILITY, WHETHER IN AN ACTION OF CONTRACT, TORT OR OTHERWISE, ARISING FROM,
  20:eurorack/plaits/dsp/drums/analog_bass_drum.h **** // OUT OF OR IN CONNECTION WITH THE SOFTWARE OR THE USE OR OTHER DEALINGS IN
  21:eurorack/plaits/dsp/drums/analog_bass_drum.h **** // THE SOFTWARE.
  22:eurorack/plaits/dsp/drums/analog_bass_drum.h **** // 
  23:eurorack/plaits/dsp/drums/analog_bass_drum.h **** // See http://creativecommons.org/licenses/MIT/ for more information.
  24:eurorack/plaits/dsp/drums/analog_bass_drum.h **** //
  25:eurorack/plaits/dsp/drums/analog_bass_drum.h **** // -----------------------------------------------------------------------------
  26:eurorack/plaits/dsp/drums/analog_bass_drum.h **** //
  27:eurorack/plaits/dsp/drums/analog_bass_drum.h **** // 808 bass drum model, revisited.
  28:eurorack/plaits/dsp/drums/analog_bass_drum.h **** 
  29:eurorack/plaits/dsp/drums/analog_bass_drum.h **** #ifndef PLAITS_DSP_DRUMS_ANALOG_BASS_DRUM_H_
  30:eurorack/plaits/dsp/drums/analog_bass_drum.h **** #define PLAITS_DSP_DRUMS_ANALOG_BASS_DRUM_H_
  31:eurorack/plaits/dsp/drums/analog_bass_drum.h **** 
  32:eurorack/plaits/dsp/drums/analog_bass_drum.h **** #include <algorithm>
  33:eurorack/plaits/dsp/drums/analog_bass_drum.h **** 
  34:eurorack/plaits/dsp/drums/analog_bass_drum.h **** #include "stmlib/dsp/dsp.h"
  35:eurorack/plaits/dsp/drums/analog_bass_drum.h **** #include "stmlib/dsp/filter.h"
  36:eurorack/plaits/dsp/drums/analog_bass_drum.h **** #include "stmlib/dsp/parameter_interpolator.h"
  37:eurorack/plaits/dsp/drums/analog_bass_drum.h **** #include "stmlib/dsp/units.h"
  38:eurorack/plaits/dsp/drums/analog_bass_drum.h **** 
  39:eurorack/plaits/dsp/drums/analog_bass_drum.h **** #include "plaits/dsp/dsp.h"
  40:eurorack/plaits/dsp/drums/analog_bass_drum.h **** #include "plaits/dsp/oscillator/sine_oscillator.h"
  41:eurorack/plaits/dsp/drums/analog_bass_drum.h **** 
  42:eurorack/plaits/dsp/drums/analog_bass_drum.h **** namespace plaits {
  43:eurorack/plaits/dsp/drums/analog_bass_drum.h **** 
  44:eurorack/plaits/dsp/drums/analog_bass_drum.h **** class AnalogBassDrum {
  45:eurorack/plaits/dsp/drums/analog_bass_drum.h ****  public:
  46:eurorack/plaits/dsp/drums/analog_bass_drum.h ****   AnalogBassDrum() { }
 381              		.loc 8 46 3 is_stmt 1 view .LVU100
 382              	.LBB1286:
ARM GAS  /var/folders/9s/8rp0_f2s1n31qbztm3b5_fdh0000gn/T//ccwHxkZj.s 			page 20


 383              	.LBI1286:
 384              		.file 9 "eurorack/stmlib/dsp/filter.h"
   1:eurorack/stmlib/dsp/filter.h **** // Copyright 2014 Emilie Gillet.
   2:eurorack/stmlib/dsp/filter.h **** //
   3:eurorack/stmlib/dsp/filter.h **** // Author: Emilie Gillet (emilie.o.gillet@gmail.com)
   4:eurorack/stmlib/dsp/filter.h **** //
   5:eurorack/stmlib/dsp/filter.h **** // Permission is hereby granted, free of charge, to any person obtaining a copy
   6:eurorack/stmlib/dsp/filter.h **** // of this software and associated documentation files (the "Software"), to deal
   7:eurorack/stmlib/dsp/filter.h **** // in the Software without restriction, including without limitation the rights
   8:eurorack/stmlib/dsp/filter.h **** // to use, copy, modify, merge, publish, distribute, sublicense, and/or sell
   9:eurorack/stmlib/dsp/filter.h **** // copies of the Software, and to permit persons to whom the Software is
  10:eurorack/stmlib/dsp/filter.h **** // furnished to do so, subject to the following conditions:
  11:eurorack/stmlib/dsp/filter.h **** // 
  12:eurorack/stmlib/dsp/filter.h **** // The above copyright notice and this permission notice shall be included in
  13:eurorack/stmlib/dsp/filter.h **** // all copies or substantial portions of the Software.
  14:eurorack/stmlib/dsp/filter.h **** // 
  15:eurorack/stmlib/dsp/filter.h **** // THE SOFTWARE IS PROVIDED "AS IS", WITHOUT WARRANTY OF ANY KIND, EXPRESS OR
  16:eurorack/stmlib/dsp/filter.h **** // IMPLIED, INCLUDING BUT NOT LIMITED TO THE WARRANTIES OF MERCHANTABILITY,
  17:eurorack/stmlib/dsp/filter.h **** // FITNESS FOR A PARTICULAR PURPOSE AND NONINFRINGEMENT. IN NO EVENT SHALL THE
  18:eurorack/stmlib/dsp/filter.h **** // AUTHORS OR COPYRIGHT HOLDERS BE LIABLE FOR ANY CLAIM, DAMAGES OR OTHER
  19:eurorack/stmlib/dsp/filter.h **** // LIABILITY, WHETHER IN AN ACTION OF CONTRACT, TORT OR OTHERWISE, ARISING FROM,
  20:eurorack/stmlib/dsp/filter.h **** // OUT OF OR IN CONNECTION WITH THE SOFTWARE OR THE USE OR OTHER DEALINGS IN
  21:eurorack/stmlib/dsp/filter.h **** // THE SOFTWARE.
  22:eurorack/stmlib/dsp/filter.h **** // 
  23:eurorack/stmlib/dsp/filter.h **** // See http://creativecommons.org/licenses/MIT/ for more information.
  24:eurorack/stmlib/dsp/filter.h **** //
  25:eurorack/stmlib/dsp/filter.h **** // -----------------------------------------------------------------------------
  26:eurorack/stmlib/dsp/filter.h **** //
  27:eurorack/stmlib/dsp/filter.h **** // Zero-delay-feedback filters (one pole and SVF).
  28:eurorack/stmlib/dsp/filter.h **** // Naive SVF.
  29:eurorack/stmlib/dsp/filter.h **** 
  30:eurorack/stmlib/dsp/filter.h **** #ifndef STMLIB_DSP_FILTER_H_
  31:eurorack/stmlib/dsp/filter.h **** #define STMLIB_DSP_FILTER_H_
  32:eurorack/stmlib/dsp/filter.h **** 
  33:eurorack/stmlib/dsp/filter.h **** #include "stmlib/stmlib.h"
  34:eurorack/stmlib/dsp/filter.h **** 
  35:eurorack/stmlib/dsp/filter.h **** #include <cmath>
  36:eurorack/stmlib/dsp/filter.h **** #include <algorithm>
  37:eurorack/stmlib/dsp/filter.h **** 
  38:eurorack/stmlib/dsp/filter.h **** namespace stmlib {
  39:eurorack/stmlib/dsp/filter.h **** 
  40:eurorack/stmlib/dsp/filter.h **** enum FilterMode {
  41:eurorack/stmlib/dsp/filter.h ****   FILTER_MODE_LOW_PASS,
  42:eurorack/stmlib/dsp/filter.h ****   FILTER_MODE_BAND_PASS,
  43:eurorack/stmlib/dsp/filter.h ****   FILTER_MODE_BAND_PASS_NORMALIZED,
  44:eurorack/stmlib/dsp/filter.h ****   FILTER_MODE_HIGH_PASS
  45:eurorack/stmlib/dsp/filter.h **** };
  46:eurorack/stmlib/dsp/filter.h **** 
  47:eurorack/stmlib/dsp/filter.h **** enum FrequencyApproximation {
  48:eurorack/stmlib/dsp/filter.h ****   FREQUENCY_EXACT,
  49:eurorack/stmlib/dsp/filter.h ****   FREQUENCY_ACCURATE,
  50:eurorack/stmlib/dsp/filter.h ****   FREQUENCY_FAST,
  51:eurorack/stmlib/dsp/filter.h ****   FREQUENCY_DIRTY
  52:eurorack/stmlib/dsp/filter.h **** };
  53:eurorack/stmlib/dsp/filter.h **** 
  54:eurorack/stmlib/dsp/filter.h **** #define M_PI_F float(M_PI)
  55:eurorack/stmlib/dsp/filter.h **** #define M_PI_POW_2 M_PI * M_PI
ARM GAS  /var/folders/9s/8rp0_f2s1n31qbztm3b5_fdh0000gn/T//ccwHxkZj.s 			page 21


  56:eurorack/stmlib/dsp/filter.h **** #define M_PI_POW_3 M_PI_POW_2 * M_PI
  57:eurorack/stmlib/dsp/filter.h **** #define M_PI_POW_5 M_PI_POW_3 * M_PI_POW_2
  58:eurorack/stmlib/dsp/filter.h **** #define M_PI_POW_7 M_PI_POW_5 * M_PI_POW_2
  59:eurorack/stmlib/dsp/filter.h **** #define M_PI_POW_9 M_PI_POW_7 * M_PI_POW_2
  60:eurorack/stmlib/dsp/filter.h **** #define M_PI_POW_11 M_PI_POW_9 * M_PI_POW_2
  61:eurorack/stmlib/dsp/filter.h **** 
  62:eurorack/stmlib/dsp/filter.h **** class DCBlocker {
  63:eurorack/stmlib/dsp/filter.h ****  public:
  64:eurorack/stmlib/dsp/filter.h ****   DCBlocker() { }
  65:eurorack/stmlib/dsp/filter.h ****   ~DCBlocker() { }
  66:eurorack/stmlib/dsp/filter.h ****   
  67:eurorack/stmlib/dsp/filter.h ****   void Init(float pole) {
  68:eurorack/stmlib/dsp/filter.h ****     x_ = 0.0f;
  69:eurorack/stmlib/dsp/filter.h ****     y_ = 0.0f;
  70:eurorack/stmlib/dsp/filter.h ****     pole_ = pole;
  71:eurorack/stmlib/dsp/filter.h ****   }
  72:eurorack/stmlib/dsp/filter.h ****   
  73:eurorack/stmlib/dsp/filter.h ****   inline void Process(float* in_out, size_t size) {
  74:eurorack/stmlib/dsp/filter.h ****     float x = x_;
  75:eurorack/stmlib/dsp/filter.h ****     float y = y_;
  76:eurorack/stmlib/dsp/filter.h ****     const float pole = pole_;
  77:eurorack/stmlib/dsp/filter.h ****     while (size--) {
  78:eurorack/stmlib/dsp/filter.h ****       float old_x = x;
  79:eurorack/stmlib/dsp/filter.h ****       x = *in_out;
  80:eurorack/stmlib/dsp/filter.h ****       *in_out++ = y = y * pole + x - old_x;
  81:eurorack/stmlib/dsp/filter.h ****     }
  82:eurorack/stmlib/dsp/filter.h ****     x_ = x;
  83:eurorack/stmlib/dsp/filter.h ****     y_ = y;
  84:eurorack/stmlib/dsp/filter.h ****   }
  85:eurorack/stmlib/dsp/filter.h ****   
  86:eurorack/stmlib/dsp/filter.h ****  private:
  87:eurorack/stmlib/dsp/filter.h ****   float pole_;
  88:eurorack/stmlib/dsp/filter.h ****   float x_;
  89:eurorack/stmlib/dsp/filter.h ****   float y_;
  90:eurorack/stmlib/dsp/filter.h **** };
  91:eurorack/stmlib/dsp/filter.h **** 
  92:eurorack/stmlib/dsp/filter.h **** class OnePole {
  93:eurorack/stmlib/dsp/filter.h ****  public:
  94:eurorack/stmlib/dsp/filter.h ****   OnePole() { }
  95:eurorack/stmlib/dsp/filter.h ****   ~OnePole() { }
  96:eurorack/stmlib/dsp/filter.h ****   
  97:eurorack/stmlib/dsp/filter.h ****   void Init() {
  98:eurorack/stmlib/dsp/filter.h ****     set_f<FREQUENCY_DIRTY>(0.01f);
  99:eurorack/stmlib/dsp/filter.h ****     Reset();
 100:eurorack/stmlib/dsp/filter.h ****   }
 101:eurorack/stmlib/dsp/filter.h ****   
 102:eurorack/stmlib/dsp/filter.h ****   void Reset() {
 103:eurorack/stmlib/dsp/filter.h ****     state_ = 0.0f;
 104:eurorack/stmlib/dsp/filter.h ****   }
 105:eurorack/stmlib/dsp/filter.h ****   
 106:eurorack/stmlib/dsp/filter.h ****   template<FrequencyApproximation approximation>
 107:eurorack/stmlib/dsp/filter.h ****   static inline float tan(float f) {
 108:eurorack/stmlib/dsp/filter.h ****     if (approximation == FREQUENCY_EXACT) {
 109:eurorack/stmlib/dsp/filter.h ****       // Clip coefficient to about 100.
 110:eurorack/stmlib/dsp/filter.h ****       f = f < 0.497f ? f : 0.497f;
 111:eurorack/stmlib/dsp/filter.h ****       return tanf(M_PI_F * f);
 112:eurorack/stmlib/dsp/filter.h ****     } else if (approximation == FREQUENCY_DIRTY) {
ARM GAS  /var/folders/9s/8rp0_f2s1n31qbztm3b5_fdh0000gn/T//ccwHxkZj.s 			page 22


 113:eurorack/stmlib/dsp/filter.h ****       // Optimized for frequencies below 8kHz.
 114:eurorack/stmlib/dsp/filter.h ****       const float a = 3.736e-01f * M_PI_POW_3;
 115:eurorack/stmlib/dsp/filter.h ****       return f * (M_PI_F + a * f * f);
 116:eurorack/stmlib/dsp/filter.h ****     } else if (approximation == FREQUENCY_FAST) {
 117:eurorack/stmlib/dsp/filter.h ****       // The usual tangent approximation uses 3.1755e-01 and 2.033e-01, but
 118:eurorack/stmlib/dsp/filter.h ****       // the coefficients used here are optimized to minimize error for the
 119:eurorack/stmlib/dsp/filter.h ****       // 16Hz to 16kHz range, with a sample rate of 48kHz.
 120:eurorack/stmlib/dsp/filter.h ****       const float a = 3.260e-01f * M_PI_POW_3;
 121:eurorack/stmlib/dsp/filter.h ****       const float b = 1.823e-01f * M_PI_POW_5;
 122:eurorack/stmlib/dsp/filter.h ****       float f2 = f * f;
 123:eurorack/stmlib/dsp/filter.h ****       return f * (M_PI_F + f2 * (a + b * f2));
 124:eurorack/stmlib/dsp/filter.h ****     } else if (approximation == FREQUENCY_ACCURATE) {
 125:eurorack/stmlib/dsp/filter.h ****       // These coefficients don't need to be tweaked for the audio range.
 126:eurorack/stmlib/dsp/filter.h ****       const float a = 3.333314036e-01f * M_PI_POW_3;
 127:eurorack/stmlib/dsp/filter.h ****       const float b = 1.333923995e-01f * M_PI_POW_5;
 128:eurorack/stmlib/dsp/filter.h ****       const float c = 5.33740603e-02f * M_PI_POW_7;
 129:eurorack/stmlib/dsp/filter.h ****       const float d = 2.900525e-03f * M_PI_POW_9;
 130:eurorack/stmlib/dsp/filter.h ****       const float e = 9.5168091e-03f * M_PI_POW_11;
 131:eurorack/stmlib/dsp/filter.h ****       float f2 = f * f;
 132:eurorack/stmlib/dsp/filter.h ****       return f * (M_PI_F + f2 * (a + f2 * (b + f2 * (c + f2 * (d + f2 * e)))));
 133:eurorack/stmlib/dsp/filter.h ****     }
 134:eurorack/stmlib/dsp/filter.h ****   }
 135:eurorack/stmlib/dsp/filter.h ****   
 136:eurorack/stmlib/dsp/filter.h ****   // Set frequency and resonance from true units. Various approximations
 137:eurorack/stmlib/dsp/filter.h ****   // are available to avoid the cost of tanf.
 138:eurorack/stmlib/dsp/filter.h ****   template<FrequencyApproximation approximation>
 139:eurorack/stmlib/dsp/filter.h ****   inline void set_f(float f) {
 140:eurorack/stmlib/dsp/filter.h ****     g_ = tan<approximation>(f);
 141:eurorack/stmlib/dsp/filter.h ****     gi_ = 1.0f / (1.0f + g_);
 142:eurorack/stmlib/dsp/filter.h ****   }
 143:eurorack/stmlib/dsp/filter.h ****   
 144:eurorack/stmlib/dsp/filter.h ****   template<FilterMode mode>
 145:eurorack/stmlib/dsp/filter.h ****   inline float Process(float in) {
 146:eurorack/stmlib/dsp/filter.h ****     float lp;
 147:eurorack/stmlib/dsp/filter.h ****     lp = (g_ * in + state_) * gi_;
 148:eurorack/stmlib/dsp/filter.h ****     state_ = g_ * (in - lp) + lp;
 149:eurorack/stmlib/dsp/filter.h **** 
 150:eurorack/stmlib/dsp/filter.h ****     if (mode == FILTER_MODE_LOW_PASS) {
 151:eurorack/stmlib/dsp/filter.h ****       return lp;
 152:eurorack/stmlib/dsp/filter.h ****     } else if (mode == FILTER_MODE_HIGH_PASS) {
 153:eurorack/stmlib/dsp/filter.h ****       return in - lp;
 154:eurorack/stmlib/dsp/filter.h ****     } else {
 155:eurorack/stmlib/dsp/filter.h ****       return 0.0f;
 156:eurorack/stmlib/dsp/filter.h ****     }
 157:eurorack/stmlib/dsp/filter.h ****   }
 158:eurorack/stmlib/dsp/filter.h ****   
 159:eurorack/stmlib/dsp/filter.h ****   template<FilterMode mode>
 160:eurorack/stmlib/dsp/filter.h ****   inline void Process(float* in_out, size_t size) {
 161:eurorack/stmlib/dsp/filter.h ****     while (size--) {
 162:eurorack/stmlib/dsp/filter.h ****       *in_out = Process<mode>(*in_out);
 163:eurorack/stmlib/dsp/filter.h ****       ++in_out;
 164:eurorack/stmlib/dsp/filter.h ****     }
 165:eurorack/stmlib/dsp/filter.h ****   }
 166:eurorack/stmlib/dsp/filter.h ****   
 167:eurorack/stmlib/dsp/filter.h ****  private:
 168:eurorack/stmlib/dsp/filter.h ****   float g_;
 169:eurorack/stmlib/dsp/filter.h ****   float gi_;
ARM GAS  /var/folders/9s/8rp0_f2s1n31qbztm3b5_fdh0000gn/T//ccwHxkZj.s 			page 23


 170:eurorack/stmlib/dsp/filter.h ****   float state_;
 171:eurorack/stmlib/dsp/filter.h ****   
 172:eurorack/stmlib/dsp/filter.h ****   DISALLOW_COPY_AND_ASSIGN(OnePole);
 173:eurorack/stmlib/dsp/filter.h **** };
 174:eurorack/stmlib/dsp/filter.h **** 
 175:eurorack/stmlib/dsp/filter.h **** 
 176:eurorack/stmlib/dsp/filter.h **** 
 177:eurorack/stmlib/dsp/filter.h **** class Svf {
 178:eurorack/stmlib/dsp/filter.h ****  public:
 179:eurorack/stmlib/dsp/filter.h ****   Svf() { }
 385              		.loc 9 179 3 view .LVU101
 386              		.loc 9 179 3 is_stmt 0 view .LVU102
 387              	.LBE1286:
 388              	.LBB1287:
 389              	.LBI1287:
 390              		.file 10 "eurorack/plaits/dsp/oscillator/sine_oscillator.h"
   1:eurorack/plaits/dsp/oscillator/sine_oscillator.h **** // Copyright 2016 Emilie Gillet.
   2:eurorack/plaits/dsp/oscillator/sine_oscillator.h **** //
   3:eurorack/plaits/dsp/oscillator/sine_oscillator.h **** // Author: Emilie Gillet (emilie.o.gillet@gmail.com)
   4:eurorack/plaits/dsp/oscillator/sine_oscillator.h **** //
   5:eurorack/plaits/dsp/oscillator/sine_oscillator.h **** // Permission is hereby granted, free of charge, to any person obtaining a copy
   6:eurorack/plaits/dsp/oscillator/sine_oscillator.h **** // of this software and associated documentation files (the "Software"), to deal
   7:eurorack/plaits/dsp/oscillator/sine_oscillator.h **** // in the Software without restriction, including without limitation the rights
   8:eurorack/plaits/dsp/oscillator/sine_oscillator.h **** // to use, copy, modify, merge, publish, distribute, sublicense, and/or sell
   9:eurorack/plaits/dsp/oscillator/sine_oscillator.h **** // copies of the Software, and to permit persons to whom the Software is
  10:eurorack/plaits/dsp/oscillator/sine_oscillator.h **** // furnished to do so, subject to the following conditions:
  11:eurorack/plaits/dsp/oscillator/sine_oscillator.h **** // 
  12:eurorack/plaits/dsp/oscillator/sine_oscillator.h **** // The above copyright notice and this permission notice shall be included in
  13:eurorack/plaits/dsp/oscillator/sine_oscillator.h **** // all copies or substantial portions of the Software.
  14:eurorack/plaits/dsp/oscillator/sine_oscillator.h **** // 
  15:eurorack/plaits/dsp/oscillator/sine_oscillator.h **** // THE SOFTWARE IS PROVIDED "AS IS", WITHOUT WARRANTY OF ANY KIND, EXPRESS OR
  16:eurorack/plaits/dsp/oscillator/sine_oscillator.h **** // IMPLIED, INCLUDING BUT NOT LIMITED TO THE WARRANTIES OF MERCHANTABILITY,
  17:eurorack/plaits/dsp/oscillator/sine_oscillator.h **** // FITNESS FOR A PARTICULAR PURPOSE AND NONINFRINGEMENT. IN NO EVENT SHALL THE
  18:eurorack/plaits/dsp/oscillator/sine_oscillator.h **** // AUTHORS OR COPYRIGHT HOLDERS BE LIABLE FOR ANY CLAIM, DAMAGES OR OTHER
  19:eurorack/plaits/dsp/oscillator/sine_oscillator.h **** // LIABILITY, WHETHER IN AN ACTION OF CONTRACT, TORT OR OTHERWISE, ARISING FROM,
  20:eurorack/plaits/dsp/oscillator/sine_oscillator.h **** // OUT OF OR IN CONNECTION WITH THE SOFTWARE OR THE USE OR OTHER DEALINGS IN
  21:eurorack/plaits/dsp/oscillator/sine_oscillator.h **** // THE SOFTWARE.
  22:eurorack/plaits/dsp/oscillator/sine_oscillator.h **** // 
  23:eurorack/plaits/dsp/oscillator/sine_oscillator.h **** // See http://creativecommons.org/licenses/MIT/ for more information.
  24:eurorack/plaits/dsp/oscillator/sine_oscillator.h **** //
  25:eurorack/plaits/dsp/oscillator/sine_oscillator.h **** // -----------------------------------------------------------------------------
  26:eurorack/plaits/dsp/oscillator/sine_oscillator.h **** //
  27:eurorack/plaits/dsp/oscillator/sine_oscillator.h **** // Simple sine oscillator (wavetable) + fast sine oscillator (magic circle).
  28:eurorack/plaits/dsp/oscillator/sine_oscillator.h **** //
  29:eurorack/plaits/dsp/oscillator/sine_oscillator.h **** // The fast implementation might glitch a bit under heavy modulations of the
  30:eurorack/plaits/dsp/oscillator/sine_oscillator.h **** // frequency.
  31:eurorack/plaits/dsp/oscillator/sine_oscillator.h **** 
  32:eurorack/plaits/dsp/oscillator/sine_oscillator.h **** #ifndef PLAITS_DSP_OSCILLATOR_SINE_OSCILLATOR_H_
  33:eurorack/plaits/dsp/oscillator/sine_oscillator.h **** #define PLAITS_DSP_OSCILLATOR_SINE_OSCILLATOR_H_
  34:eurorack/plaits/dsp/oscillator/sine_oscillator.h **** 
  35:eurorack/plaits/dsp/oscillator/sine_oscillator.h **** #include "stmlib/dsp/dsp.h"
  36:eurorack/plaits/dsp/oscillator/sine_oscillator.h **** #include "stmlib/dsp/parameter_interpolator.h"
  37:eurorack/plaits/dsp/oscillator/sine_oscillator.h **** #include "stmlib/dsp/rsqrt.h"
  38:eurorack/plaits/dsp/oscillator/sine_oscillator.h **** 
  39:eurorack/plaits/dsp/oscillator/sine_oscillator.h **** #include "plaits/resources.h"
  40:eurorack/plaits/dsp/oscillator/sine_oscillator.h **** 
  41:eurorack/plaits/dsp/oscillator/sine_oscillator.h **** namespace plaits {
ARM GAS  /var/folders/9s/8rp0_f2s1n31qbztm3b5_fdh0000gn/T//ccwHxkZj.s 			page 24


  42:eurorack/plaits/dsp/oscillator/sine_oscillator.h **** 
  43:eurorack/plaits/dsp/oscillator/sine_oscillator.h **** class SineOscillator {
  44:eurorack/plaits/dsp/oscillator/sine_oscillator.h ****  public:
  45:eurorack/plaits/dsp/oscillator/sine_oscillator.h ****   SineOscillator() { }
 391              		.loc 10 45 3 is_stmt 1 view .LVU103
 392              		.loc 10 45 3 is_stmt 0 view .LVU104
 393              	.LBE1287:
 394              	.LBE1285:
 395              	.LBB1288:
 396              	.LBI1288:
 397              		.file 11 "eurorack/plaits/dsp/drums/synthetic_bass_drum.h"
   1:eurorack/plaits/dsp/drums/synthetic_bass_drum.h **** // Copyright 2016 Emilie Gillet.
   2:eurorack/plaits/dsp/drums/synthetic_bass_drum.h **** //
   3:eurorack/plaits/dsp/drums/synthetic_bass_drum.h **** // Author: Emilie Gillet (emilie.o.gillet@gmail.com)
   4:eurorack/plaits/dsp/drums/synthetic_bass_drum.h **** //
   5:eurorack/plaits/dsp/drums/synthetic_bass_drum.h **** // Permission is hereby granted, free of charge, to any person obtaining a copy
   6:eurorack/plaits/dsp/drums/synthetic_bass_drum.h **** // of this software and associated documentation files (the "Software"), to deal
   7:eurorack/plaits/dsp/drums/synthetic_bass_drum.h **** // in the Software without restriction, including without limitation the rights
   8:eurorack/plaits/dsp/drums/synthetic_bass_drum.h **** // to use, copy, modify, merge, publish, distribute, sublicense, and/or sell
   9:eurorack/plaits/dsp/drums/synthetic_bass_drum.h **** // copies of the Software, and to permit persons to whom the Software is
  10:eurorack/plaits/dsp/drums/synthetic_bass_drum.h **** // furnished to do so, subject to the following conditions:
  11:eurorack/plaits/dsp/drums/synthetic_bass_drum.h **** // 
  12:eurorack/plaits/dsp/drums/synthetic_bass_drum.h **** // The above copyright notice and this permission notice shall be included in
  13:eurorack/plaits/dsp/drums/synthetic_bass_drum.h **** // all copies or substantial portions of the Software.
  14:eurorack/plaits/dsp/drums/synthetic_bass_drum.h **** // 
  15:eurorack/plaits/dsp/drums/synthetic_bass_drum.h **** // THE SOFTWARE IS PROVIDED "AS IS", WITHOUT WARRANTY OF ANY KIND, EXPRESS OR
  16:eurorack/plaits/dsp/drums/synthetic_bass_drum.h **** // IMPLIED, INCLUDING BUT NOT LIMITED TO THE WARRANTIES OF MERCHANTABILITY,
  17:eurorack/plaits/dsp/drums/synthetic_bass_drum.h **** // FITNESS FOR A PARTICULAR PURPOSE AND NONINFRINGEMENT. IN NO EVENT SHALL THE
  18:eurorack/plaits/dsp/drums/synthetic_bass_drum.h **** // AUTHORS OR COPYRIGHT HOLDERS BE LIABLE FOR ANY CLAIM, DAMAGES OR OTHER
  19:eurorack/plaits/dsp/drums/synthetic_bass_drum.h **** // LIABILITY, WHETHER IN AN ACTION OF CONTRACT, TORT OR OTHERWISE, ARISING FROM,
  20:eurorack/plaits/dsp/drums/synthetic_bass_drum.h **** // OUT OF OR IN CONNECTION WITH THE SOFTWARE OR THE USE OR OTHER DEALINGS IN
  21:eurorack/plaits/dsp/drums/synthetic_bass_drum.h **** // THE SOFTWARE.
  22:eurorack/plaits/dsp/drums/synthetic_bass_drum.h **** // 
  23:eurorack/plaits/dsp/drums/synthetic_bass_drum.h **** // See http://creativecommons.org/licenses/MIT/ for more information.
  24:eurorack/plaits/dsp/drums/synthetic_bass_drum.h **** //
  25:eurorack/plaits/dsp/drums/synthetic_bass_drum.h **** // -----------------------------------------------------------------------------
  26:eurorack/plaits/dsp/drums/synthetic_bass_drum.h **** //
  27:eurorack/plaits/dsp/drums/synthetic_bass_drum.h **** // Naive bass drum model (modulated oscillator with FM + envelope).
  28:eurorack/plaits/dsp/drums/synthetic_bass_drum.h **** // Inadvertently 909-ish.
  29:eurorack/plaits/dsp/drums/synthetic_bass_drum.h **** 
  30:eurorack/plaits/dsp/drums/synthetic_bass_drum.h **** #ifndef PLAITS_DSP_DRUMS_SYNTHETIC_BASS_DRUM_H_
  31:eurorack/plaits/dsp/drums/synthetic_bass_drum.h **** #define PLAITS_DSP_DRUMS_SYNTHETIC_BASS_DRUM_H_
  32:eurorack/plaits/dsp/drums/synthetic_bass_drum.h **** 
  33:eurorack/plaits/dsp/drums/synthetic_bass_drum.h **** #include "stmlib/dsp/dsp.h"
  34:eurorack/plaits/dsp/drums/synthetic_bass_drum.h **** #include "stmlib/dsp/units.h"
  35:eurorack/plaits/dsp/drums/synthetic_bass_drum.h **** #include "stmlib/utils/random.h"
  36:eurorack/plaits/dsp/drums/synthetic_bass_drum.h **** 
  37:eurorack/plaits/dsp/drums/synthetic_bass_drum.h **** #include "plaits/dsp/dsp.h"
  38:eurorack/plaits/dsp/drums/synthetic_bass_drum.h **** #include "plaits/resources.h"
  39:eurorack/plaits/dsp/drums/synthetic_bass_drum.h **** 
  40:eurorack/plaits/dsp/drums/synthetic_bass_drum.h **** namespace plaits {
  41:eurorack/plaits/dsp/drums/synthetic_bass_drum.h **** 
  42:eurorack/plaits/dsp/drums/synthetic_bass_drum.h **** class SyntheticBassDrumClick {
  43:eurorack/plaits/dsp/drums/synthetic_bass_drum.h ****  public:
  44:eurorack/plaits/dsp/drums/synthetic_bass_drum.h ****   SyntheticBassDrumClick() { }
  45:eurorack/plaits/dsp/drums/synthetic_bass_drum.h ****   ~SyntheticBassDrumClick() { }
  46:eurorack/plaits/dsp/drums/synthetic_bass_drum.h ****   
ARM GAS  /var/folders/9s/8rp0_f2s1n31qbztm3b5_fdh0000gn/T//ccwHxkZj.s 			page 25


  47:eurorack/plaits/dsp/drums/synthetic_bass_drum.h ****   void Init() {
  48:eurorack/plaits/dsp/drums/synthetic_bass_drum.h ****     lp_ = 0.0f;
  49:eurorack/plaits/dsp/drums/synthetic_bass_drum.h ****     hp_ = 0.0f;
  50:eurorack/plaits/dsp/drums/synthetic_bass_drum.h ****     filter_.Init();
  51:eurorack/plaits/dsp/drums/synthetic_bass_drum.h ****     filter_.set_f_q<stmlib::FREQUENCY_FAST>(5000.0f / kSampleRate, 2.0f);
  52:eurorack/plaits/dsp/drums/synthetic_bass_drum.h ****   }
  53:eurorack/plaits/dsp/drums/synthetic_bass_drum.h ****   
  54:eurorack/plaits/dsp/drums/synthetic_bass_drum.h ****   float Process(float in) {
  55:eurorack/plaits/dsp/drums/synthetic_bass_drum.h ****     SLOPE(lp_, in, 0.5f, 0.1f);
  56:eurorack/plaits/dsp/drums/synthetic_bass_drum.h ****     ONE_POLE(hp_, lp_, 0.04f);
  57:eurorack/plaits/dsp/drums/synthetic_bass_drum.h ****     return filter_.Process<stmlib::FILTER_MODE_LOW_PASS>(lp_ - hp_);
  58:eurorack/plaits/dsp/drums/synthetic_bass_drum.h ****   }
  59:eurorack/plaits/dsp/drums/synthetic_bass_drum.h ****   
  60:eurorack/plaits/dsp/drums/synthetic_bass_drum.h ****  private:
  61:eurorack/plaits/dsp/drums/synthetic_bass_drum.h ****   float lp_;
  62:eurorack/plaits/dsp/drums/synthetic_bass_drum.h ****   float hp_;
  63:eurorack/plaits/dsp/drums/synthetic_bass_drum.h ****   stmlib::Svf filter_;
  64:eurorack/plaits/dsp/drums/synthetic_bass_drum.h ****   
  65:eurorack/plaits/dsp/drums/synthetic_bass_drum.h ****   DISALLOW_COPY_AND_ASSIGN(SyntheticBassDrumClick);
  66:eurorack/plaits/dsp/drums/synthetic_bass_drum.h **** };
  67:eurorack/plaits/dsp/drums/synthetic_bass_drum.h **** 
  68:eurorack/plaits/dsp/drums/synthetic_bass_drum.h **** class SyntheticBassDrumAttackNoise {
  69:eurorack/plaits/dsp/drums/synthetic_bass_drum.h ****  public:
  70:eurorack/plaits/dsp/drums/synthetic_bass_drum.h ****   SyntheticBassDrumAttackNoise() { }
  71:eurorack/plaits/dsp/drums/synthetic_bass_drum.h ****   ~SyntheticBassDrumAttackNoise() { }
  72:eurorack/plaits/dsp/drums/synthetic_bass_drum.h ****   
  73:eurorack/plaits/dsp/drums/synthetic_bass_drum.h ****   void Init() {
  74:eurorack/plaits/dsp/drums/synthetic_bass_drum.h ****     lp_ = 0.0f;
  75:eurorack/plaits/dsp/drums/synthetic_bass_drum.h ****     hp_ = 0.0f;
  76:eurorack/plaits/dsp/drums/synthetic_bass_drum.h ****   }
  77:eurorack/plaits/dsp/drums/synthetic_bass_drum.h ****   
  78:eurorack/plaits/dsp/drums/synthetic_bass_drum.h ****   float Render() {
  79:eurorack/plaits/dsp/drums/synthetic_bass_drum.h ****     float sample = stmlib::Random::GetFloat();
  80:eurorack/plaits/dsp/drums/synthetic_bass_drum.h ****     ONE_POLE(lp_, sample, 0.05f);
  81:eurorack/plaits/dsp/drums/synthetic_bass_drum.h ****     ONE_POLE(hp_, lp_, 0.005f);
  82:eurorack/plaits/dsp/drums/synthetic_bass_drum.h ****     return lp_ - hp_;
  83:eurorack/plaits/dsp/drums/synthetic_bass_drum.h ****   }
  84:eurorack/plaits/dsp/drums/synthetic_bass_drum.h ****   
  85:eurorack/plaits/dsp/drums/synthetic_bass_drum.h ****  private:
  86:eurorack/plaits/dsp/drums/synthetic_bass_drum.h ****   float lp_;
  87:eurorack/plaits/dsp/drums/synthetic_bass_drum.h ****   float hp_;
  88:eurorack/plaits/dsp/drums/synthetic_bass_drum.h ****   
  89:eurorack/plaits/dsp/drums/synthetic_bass_drum.h ****   DISALLOW_COPY_AND_ASSIGN(SyntheticBassDrumAttackNoise);
  90:eurorack/plaits/dsp/drums/synthetic_bass_drum.h **** };
  91:eurorack/plaits/dsp/drums/synthetic_bass_drum.h **** 
  92:eurorack/plaits/dsp/drums/synthetic_bass_drum.h **** class SyntheticBassDrum {
  93:eurorack/plaits/dsp/drums/synthetic_bass_drum.h ****  public:
  94:eurorack/plaits/dsp/drums/synthetic_bass_drum.h ****   SyntheticBassDrum() { }
 398              		.loc 11 94 3 is_stmt 1 view .LVU105
 399              	.LBB1289:
 400              	.LBI1289:
  44:eurorack/plaits/dsp/drums/synthetic_bass_drum.h ****   ~SyntheticBassDrumClick() { }
 401              		.loc 11 44 3 view .LVU106
 402              	.LBB1290:
 403              	.LBI1290:
 404              		.loc 9 179 3 view .LVU107
 405              		.loc 9 179 3 is_stmt 0 view .LVU108
ARM GAS  /var/folders/9s/8rp0_f2s1n31qbztm3b5_fdh0000gn/T//ccwHxkZj.s 			page 26


 406              	.LBE1290:
 407              	.LBE1289:
 408              	.LBB1291:
 409              	.LBI1291:
  70:eurorack/plaits/dsp/drums/synthetic_bass_drum.h ****   ~SyntheticBassDrumAttackNoise() { }
 410              		.loc 11 70 3 is_stmt 1 view .LVU109
  70:eurorack/plaits/dsp/drums/synthetic_bass_drum.h ****   ~SyntheticBassDrumAttackNoise() { }
 411              		.loc 11 70 3 is_stmt 0 view .LVU110
 412              	.LBE1291:
 413              	.LBE1288:
 414              	.LBB1292:
 415              	.LBI1292:
 416              		.file 12 "eurorack/plaits/dsp/fx/overdrive.h"
   1:eurorack/plaits/dsp/fx/overdrive.h **** // Copyright 2014 Emilie Gillet.
   2:eurorack/plaits/dsp/fx/overdrive.h **** //
   3:eurorack/plaits/dsp/fx/overdrive.h **** // Author: Emilie Gillet (emilie.o.gillet@gmail.com)
   4:eurorack/plaits/dsp/fx/overdrive.h **** //
   5:eurorack/plaits/dsp/fx/overdrive.h **** // Permission is hereby granted, free of charge, to any person obtaining a copy
   6:eurorack/plaits/dsp/fx/overdrive.h **** // of this software and associated documentation files (the "Software"), to deal
   7:eurorack/plaits/dsp/fx/overdrive.h **** // in the Software without restriction, including without limitation the rights
   8:eurorack/plaits/dsp/fx/overdrive.h **** // to use, copy, modify, merge, publish, distribute, sublicense, and/or sell
   9:eurorack/plaits/dsp/fx/overdrive.h **** // copies of the Software, and to permit persons to whom the Software is
  10:eurorack/plaits/dsp/fx/overdrive.h **** // furnished to do so, subject to the following conditions:
  11:eurorack/plaits/dsp/fx/overdrive.h **** // 
  12:eurorack/plaits/dsp/fx/overdrive.h **** // The above copyright notice and this permission notice shall be included in
  13:eurorack/plaits/dsp/fx/overdrive.h **** // all copies or substantial portions of the Software.
  14:eurorack/plaits/dsp/fx/overdrive.h **** // 
  15:eurorack/plaits/dsp/fx/overdrive.h **** // THE SOFTWARE IS PROVIDED "AS IS", WITHOUT WARRANTY OF ANY KIND, EXPRESS OR
  16:eurorack/plaits/dsp/fx/overdrive.h **** // IMPLIED, INCLUDING BUT NOT LIMITED TO THE WARRANTIES OF MERCHANTABILITY,
  17:eurorack/plaits/dsp/fx/overdrive.h **** // FITNESS FOR A PARTICULAR PURPOSE AND NONINFRINGEMENT. IN NO EVENT SHALL THE
  18:eurorack/plaits/dsp/fx/overdrive.h **** // AUTHORS OR COPYRIGHT HOLDERS BE LIABLE FOR ANY CLAIM, DAMAGES OR OTHER
  19:eurorack/plaits/dsp/fx/overdrive.h **** // LIABILITY, WHETHER IN AN ACTION OF CONTRACT, TORT OR OTHERWISE, ARISING FROM,
  20:eurorack/plaits/dsp/fx/overdrive.h **** // OUT OF OR IN CONNECTION WITH THE SOFTWARE OR THE USE OR OTHER DEALINGS IN
  21:eurorack/plaits/dsp/fx/overdrive.h **** // THE SOFTWARE.
  22:eurorack/plaits/dsp/fx/overdrive.h **** // 
  23:eurorack/plaits/dsp/fx/overdrive.h **** // See http://creativecommons.org/licenses/MIT/ for more information.
  24:eurorack/plaits/dsp/fx/overdrive.h **** //
  25:eurorack/plaits/dsp/fx/overdrive.h **** // -----------------------------------------------------------------------------
  26:eurorack/plaits/dsp/fx/overdrive.h **** //
  27:eurorack/plaits/dsp/fx/overdrive.h **** // Distortion/overdrive.
  28:eurorack/plaits/dsp/fx/overdrive.h **** 
  29:eurorack/plaits/dsp/fx/overdrive.h **** #ifndef PLAITS_DSP_FX_OVERDRIVE_H_
  30:eurorack/plaits/dsp/fx/overdrive.h **** #define PLAITS_DSP_FX_OVERDRIVE_H_
  31:eurorack/plaits/dsp/fx/overdrive.h **** 
  32:eurorack/plaits/dsp/fx/overdrive.h **** #include <algorithm>
  33:eurorack/plaits/dsp/fx/overdrive.h **** 
  34:eurorack/plaits/dsp/fx/overdrive.h **** #include "stmlib/dsp/dsp.h"
  35:eurorack/plaits/dsp/fx/overdrive.h **** #include "stmlib/dsp/parameter_interpolator.h"
  36:eurorack/plaits/dsp/fx/overdrive.h **** 
  37:eurorack/plaits/dsp/fx/overdrive.h **** namespace plaits {
  38:eurorack/plaits/dsp/fx/overdrive.h ****   
  39:eurorack/plaits/dsp/fx/overdrive.h **** class Overdrive {
  40:eurorack/plaits/dsp/fx/overdrive.h ****  public:
  41:eurorack/plaits/dsp/fx/overdrive.h ****   Overdrive() { }
 417              		.loc 12 41 3 is_stmt 1 view .LVU111
 418              		.loc 12 41 3 is_stmt 0 view .LVU112
 419              	.LBE1292:
ARM GAS  /var/folders/9s/8rp0_f2s1n31qbztm3b5_fdh0000gn/T//ccwHxkZj.s 			page 27


 420              	.LBE1283:
 421              	.LBE1282:
 422              	.LBB1293:
 423              	.LBI1293:
 424              		.file 13 "eurorack/plaits/dsp/engine/fm_engine.h"
   1:eurorack/plaits/dsp/engine/fm_engine.h **** // Copyright 2016 Emilie Gillet.
   2:eurorack/plaits/dsp/engine/fm_engine.h **** //
   3:eurorack/plaits/dsp/engine/fm_engine.h **** // Author: Emilie Gillet (emilie.o.gillet@gmail.com)
   4:eurorack/plaits/dsp/engine/fm_engine.h **** //
   5:eurorack/plaits/dsp/engine/fm_engine.h **** // Permission is hereby granted, free of charge, to any person obtaining a copy
   6:eurorack/plaits/dsp/engine/fm_engine.h **** // of this software and associated documentation files (the "Software"), to deal
   7:eurorack/plaits/dsp/engine/fm_engine.h **** // in the Software without restriction, including without limitation the rights
   8:eurorack/plaits/dsp/engine/fm_engine.h **** // to use, copy, modify, merge, publish, distribute, sublicense, and/or sell
   9:eurorack/plaits/dsp/engine/fm_engine.h **** // copies of the Software, and to permit persons to whom the Software is
  10:eurorack/plaits/dsp/engine/fm_engine.h **** // furnished to do so, subject to the following conditions:
  11:eurorack/plaits/dsp/engine/fm_engine.h **** // 
  12:eurorack/plaits/dsp/engine/fm_engine.h **** // The above copyright notice and this permission notice shall be included in
  13:eurorack/plaits/dsp/engine/fm_engine.h **** // all copies or substantial portions of the Software.
  14:eurorack/plaits/dsp/engine/fm_engine.h **** // 
  15:eurorack/plaits/dsp/engine/fm_engine.h **** // THE SOFTWARE IS PROVIDED "AS IS", WITHOUT WARRANTY OF ANY KIND, EXPRESS OR
  16:eurorack/plaits/dsp/engine/fm_engine.h **** // IMPLIED, INCLUDING BUT NOT LIMITED TO THE WARRANTIES OF MERCHANTABILITY,
  17:eurorack/plaits/dsp/engine/fm_engine.h **** // FITNESS FOR A PARTICULAR PURPOSE AND NONINFRINGEMENT. IN NO EVENT SHALL THE
  18:eurorack/plaits/dsp/engine/fm_engine.h **** // AUTHORS OR COPYRIGHT HOLDERS BE LIABLE FOR ANY CLAIM, DAMAGES OR OTHER
  19:eurorack/plaits/dsp/engine/fm_engine.h **** // LIABILITY, WHETHER IN AN ACTION OF CONTRACT, TORT OR OTHERWISE, ARISING FROM,
  20:eurorack/plaits/dsp/engine/fm_engine.h **** // OUT OF OR IN CONNECTION WITH THE SOFTWARE OR THE USE OR OTHER DEALINGS IN
  21:eurorack/plaits/dsp/engine/fm_engine.h **** // THE SOFTWARE.
  22:eurorack/plaits/dsp/engine/fm_engine.h **** // 
  23:eurorack/plaits/dsp/engine/fm_engine.h **** // See http://creativecommons.org/licenses/MIT/ for more information.
  24:eurorack/plaits/dsp/engine/fm_engine.h **** //
  25:eurorack/plaits/dsp/engine/fm_engine.h **** // -----------------------------------------------------------------------------
  26:eurorack/plaits/dsp/engine/fm_engine.h **** //
  27:eurorack/plaits/dsp/engine/fm_engine.h **** // Classic 2-op FM, as found in Braids, Rings and Elements.
  28:eurorack/plaits/dsp/engine/fm_engine.h **** 
  29:eurorack/plaits/dsp/engine/fm_engine.h **** #ifndef PLAITS_DSP_ENGINE_FM_ENGINE_H_
  30:eurorack/plaits/dsp/engine/fm_engine.h **** #define PLAITS_DSP_ENGINE_FM_ENGINE_H_
  31:eurorack/plaits/dsp/engine/fm_engine.h **** 
  32:eurorack/plaits/dsp/engine/fm_engine.h **** #include "plaits/dsp/engine/engine.h"
  33:eurorack/plaits/dsp/engine/fm_engine.h **** 
  34:eurorack/plaits/dsp/engine/fm_engine.h **** namespace plaits {
  35:eurorack/plaits/dsp/engine/fm_engine.h ****   
  36:eurorack/plaits/dsp/engine/fm_engine.h **** class FMEngine : public Engine {
  37:eurorack/plaits/dsp/engine/fm_engine.h ****  public:
  38:eurorack/plaits/dsp/engine/fm_engine.h ****   FMEngine() { }
 425              		.loc 13 38 3 is_stmt 1 view .LVU113
 426              	.LBB1294:
 427              	.LBB1295:
 428              	.LBI1295:
 429              		.loc 6 80 3 view .LVU114
 430              		.loc 6 80 3 is_stmt 0 view .LVU115
 431              	.LBE1295:
 432              		.loc 13 38 14 view .LVU116
 433 0014 3349     		ldr	r1, .L24+8
 434 0016 C3F80012 		str	r1, [r3, #512]
 435              	.LVL21:
 436              		.loc 13 38 14 view .LVU117
 437              	.LBE1294:
 438              	.LBE1293:
ARM GAS  /var/folders/9s/8rp0_f2s1n31qbztm3b5_fdh0000gn/T//ccwHxkZj.s 			page 28


 439              	.LBB1296:
 440              	.LBI1296:
 441              		.file 14 "eurorack/plaits/dsp/engine/grain_engine.h"
   1:eurorack/plaits/dsp/engine/grain_engine.h **** // Copyright 2016 Emilie Gillet.
   2:eurorack/plaits/dsp/engine/grain_engine.h **** //
   3:eurorack/plaits/dsp/engine/grain_engine.h **** // Author: Emilie Gillet (emilie.o.gillet@gmail.com)
   4:eurorack/plaits/dsp/engine/grain_engine.h **** //
   5:eurorack/plaits/dsp/engine/grain_engine.h **** // Permission is hereby granted, free of charge, to any person obtaining a copy
   6:eurorack/plaits/dsp/engine/grain_engine.h **** // of this software and associated documentation files (the "Software"), to deal
   7:eurorack/plaits/dsp/engine/grain_engine.h **** // in the Software without restriction, including without limitation the rights
   8:eurorack/plaits/dsp/engine/grain_engine.h **** // to use, copy, modify, merge, publish, distribute, sublicense, and/or sell
   9:eurorack/plaits/dsp/engine/grain_engine.h **** // copies of the Software, and to permit persons to whom the Software is
  10:eurorack/plaits/dsp/engine/grain_engine.h **** // furnished to do so, subject to the following conditions:
  11:eurorack/plaits/dsp/engine/grain_engine.h **** // 
  12:eurorack/plaits/dsp/engine/grain_engine.h **** // The above copyright notice and this permission notice shall be included in
  13:eurorack/plaits/dsp/engine/grain_engine.h **** // all copies or substantial portions of the Software.
  14:eurorack/plaits/dsp/engine/grain_engine.h **** // 
  15:eurorack/plaits/dsp/engine/grain_engine.h **** // THE SOFTWARE IS PROVIDED "AS IS", WITHOUT WARRANTY OF ANY KIND, EXPRESS OR
  16:eurorack/plaits/dsp/engine/grain_engine.h **** // IMPLIED, INCLUDING BUT NOT LIMITED TO THE WARRANTIES OF MERCHANTABILITY,
  17:eurorack/plaits/dsp/engine/grain_engine.h **** // FITNESS FOR A PARTICULAR PURPOSE AND NONINFRINGEMENT. IN NO EVENT SHALL THE
  18:eurorack/plaits/dsp/engine/grain_engine.h **** // AUTHORS OR COPYRIGHT HOLDERS BE LIABLE FOR ANY CLAIM, DAMAGES OR OTHER
  19:eurorack/plaits/dsp/engine/grain_engine.h **** // LIABILITY, WHETHER IN AN ACTION OF CONTRACT, TORT OR OTHERWISE, ARISING FROM,
  20:eurorack/plaits/dsp/engine/grain_engine.h **** // OUT OF OR IN CONNECTION WITH THE SOFTWARE OR THE USE OR OTHER DEALINGS IN
  21:eurorack/plaits/dsp/engine/grain_engine.h **** // THE SOFTWARE.
  22:eurorack/plaits/dsp/engine/grain_engine.h **** // 
  23:eurorack/plaits/dsp/engine/grain_engine.h **** // See http://creativecommons.org/licenses/MIT/ for more information.
  24:eurorack/plaits/dsp/engine/grain_engine.h **** //
  25:eurorack/plaits/dsp/engine/grain_engine.h **** // -----------------------------------------------------------------------------
  26:eurorack/plaits/dsp/engine/grain_engine.h **** //
  27:eurorack/plaits/dsp/engine/grain_engine.h **** // Windowed sine segments.
  28:eurorack/plaits/dsp/engine/grain_engine.h **** 
  29:eurorack/plaits/dsp/engine/grain_engine.h **** #ifndef PLAITS_DSP_ENGINE_GRAIN_ENGINE_H_
  30:eurorack/plaits/dsp/engine/grain_engine.h **** #define PLAITS_DSP_ENGINE_GRAIN_ENGINE_H_
  31:eurorack/plaits/dsp/engine/grain_engine.h **** 
  32:eurorack/plaits/dsp/engine/grain_engine.h **** #include "stmlib/dsp/filter.h"
  33:eurorack/plaits/dsp/engine/grain_engine.h **** 
  34:eurorack/plaits/dsp/engine/grain_engine.h **** #include "plaits/dsp/engine/engine.h"
  35:eurorack/plaits/dsp/engine/grain_engine.h **** #include "plaits/dsp/oscillator/grainlet_oscillator.h"
  36:eurorack/plaits/dsp/engine/grain_engine.h **** #include "plaits/dsp/oscillator/vosim_oscillator.h"
  37:eurorack/plaits/dsp/engine/grain_engine.h **** #include "plaits/dsp/oscillator/z_oscillator.h"
  38:eurorack/plaits/dsp/engine/grain_engine.h **** 
  39:eurorack/plaits/dsp/engine/grain_engine.h **** namespace plaits {
  40:eurorack/plaits/dsp/engine/grain_engine.h ****   
  41:eurorack/plaits/dsp/engine/grain_engine.h **** class GrainEngine : public Engine {
  42:eurorack/plaits/dsp/engine/grain_engine.h ****  public:
  43:eurorack/plaits/dsp/engine/grain_engine.h ****   GrainEngine() { }
 442              		.loc 14 43 3 is_stmt 1 view .LVU118
 443              	.LBB1297:
 444              	.LBB1298:
 445              	.LBI1298:
 446              		.loc 6 80 3 view .LVU119
 447              		.loc 6 80 3 is_stmt 0 view .LVU120
 448              	.LBE1298:
 449              		.loc 14 43 17 view .LVU121
 450 001a 3349     		ldr	r1, .L24+12
 451 001c C3F83812 		str	r1, [r3, #568]
 452              		.loc 14 43 17 is_stmt 1 view .LVU122
ARM GAS  /var/folders/9s/8rp0_f2s1n31qbztm3b5_fdh0000gn/T//ccwHxkZj.s 			page 29


 453              	.LVL22:
 454              	.LBB1299:
 455              	.LBI1299:
 456              		.file 15 "eurorack/plaits/dsp/oscillator/z_oscillator.h"
   1:eurorack/plaits/dsp/oscillator/z_oscillator.h **** // Copyright 2016 Emilie Gillet.
   2:eurorack/plaits/dsp/oscillator/z_oscillator.h **** //
   3:eurorack/plaits/dsp/oscillator/z_oscillator.h **** // Author: Emilie Gillet (emilie.o.gillet@gmail.com)
   4:eurorack/plaits/dsp/oscillator/z_oscillator.h **** //
   5:eurorack/plaits/dsp/oscillator/z_oscillator.h **** // Permission is hereby granted, free of charge, to any person obtaining a copy
   6:eurorack/plaits/dsp/oscillator/z_oscillator.h **** // of this software and associated documentation files (the "Software"), to deal
   7:eurorack/plaits/dsp/oscillator/z_oscillator.h **** // in the Software without restriction, including without limitation the rights
   8:eurorack/plaits/dsp/oscillator/z_oscillator.h **** // to use, copy, modify, merge, publish, distribute, sublicense, and/or sell
   9:eurorack/plaits/dsp/oscillator/z_oscillator.h **** // copies of the Software, and to permit persons to whom the Software is
  10:eurorack/plaits/dsp/oscillator/z_oscillator.h **** // furnished to do so, subject to the following conditions:
  11:eurorack/plaits/dsp/oscillator/z_oscillator.h **** // 
  12:eurorack/plaits/dsp/oscillator/z_oscillator.h **** // The above copyright notice and this permission notice shall be included in
  13:eurorack/plaits/dsp/oscillator/z_oscillator.h **** // all copies or substantial portions of the Software.
  14:eurorack/plaits/dsp/oscillator/z_oscillator.h **** // 
  15:eurorack/plaits/dsp/oscillator/z_oscillator.h **** // THE SOFTWARE IS PROVIDED "AS IS", WITHOUT WARRANTY OF ANY KIND, EXPRESS OR
  16:eurorack/plaits/dsp/oscillator/z_oscillator.h **** // IMPLIED, INCLUDING BUT NOT LIMITED TO THE WARRANTIES OF MERCHANTABILITY,
  17:eurorack/plaits/dsp/oscillator/z_oscillator.h **** // FITNESS FOR A PARTICULAR PURPOSE AND NONINFRINGEMENT. IN NO EVENT SHALL THE
  18:eurorack/plaits/dsp/oscillator/z_oscillator.h **** // AUTHORS OR COPYRIGHT HOLDERS BE LIABLE FOR ANY CLAIM, DAMAGES OR OTHER
  19:eurorack/plaits/dsp/oscillator/z_oscillator.h **** // LIABILITY, WHETHER IN AN ACTION OF CONTRACT, TORT OR OTHERWISE, ARISING FROM,
  20:eurorack/plaits/dsp/oscillator/z_oscillator.h **** // OUT OF OR IN CONNECTION WITH THE SOFTWARE OR THE USE OR OTHER DEALINGS IN
  21:eurorack/plaits/dsp/oscillator/z_oscillator.h **** // THE SOFTWARE.
  22:eurorack/plaits/dsp/oscillator/z_oscillator.h **** // 
  23:eurorack/plaits/dsp/oscillator/z_oscillator.h **** // See http://creativecommons.org/licenses/MIT/ for more information.
  24:eurorack/plaits/dsp/oscillator/z_oscillator.h **** //
  25:eurorack/plaits/dsp/oscillator/z_oscillator.h **** // -----------------------------------------------------------------------------
  26:eurorack/plaits/dsp/oscillator/z_oscillator.h **** //
  27:eurorack/plaits/dsp/oscillator/z_oscillator.h **** // Sinewave multiplied by and sync'ed to a carrier.
  28:eurorack/plaits/dsp/oscillator/z_oscillator.h **** 
  29:eurorack/plaits/dsp/oscillator/z_oscillator.h **** #ifndef PLAITS_DSP_OSCILLATOR_Z_OSCILLATOR_H_
  30:eurorack/plaits/dsp/oscillator/z_oscillator.h **** #define PLAITS_DSP_OSCILLATOR_Z_OSCILLATOR_H_
  31:eurorack/plaits/dsp/oscillator/z_oscillator.h **** 
  32:eurorack/plaits/dsp/oscillator/z_oscillator.h **** #include <algorithm>
  33:eurorack/plaits/dsp/oscillator/z_oscillator.h **** 
  34:eurorack/plaits/dsp/oscillator/z_oscillator.h **** #include "stmlib/dsp/dsp.h"
  35:eurorack/plaits/dsp/oscillator/z_oscillator.h **** #include "stmlib/dsp/parameter_interpolator.h"
  36:eurorack/plaits/dsp/oscillator/z_oscillator.h **** #include "stmlib/dsp/polyblep.h"
  37:eurorack/plaits/dsp/oscillator/z_oscillator.h **** 
  38:eurorack/plaits/dsp/oscillator/z_oscillator.h **** #include "plaits/resources.h"
  39:eurorack/plaits/dsp/oscillator/z_oscillator.h **** 
  40:eurorack/plaits/dsp/oscillator/z_oscillator.h **** namespace plaits {
  41:eurorack/plaits/dsp/oscillator/z_oscillator.h **** 
  42:eurorack/plaits/dsp/oscillator/z_oscillator.h **** class ZOscillator {
  43:eurorack/plaits/dsp/oscillator/z_oscillator.h ****  public:
  44:eurorack/plaits/dsp/oscillator/z_oscillator.h ****   ZOscillator() { }
 457              		.loc 15 44 3 view .LVU123
 458              		.loc 15 44 3 is_stmt 0 view .LVU124
 459              	.LBE1299:
 460              		.loc 14 43 17 is_stmt 1 view .LVU125
 461              		.loc 14 43 17 is_stmt 0 view .LVU126
 462              	.LBE1297:
 463              	.LBE1296:
 464              	.LBB1300:
 465              	.LBI1300:
ARM GAS  /var/folders/9s/8rp0_f2s1n31qbztm3b5_fdh0000gn/T//ccwHxkZj.s 			page 30


 466              		.file 16 "eurorack/plaits/dsp/engine/hi_hat_engine.h"
   1:eurorack/plaits/dsp/engine/hi_hat_engine.h **** // Copyright 2016 Emilie Gillet.
   2:eurorack/plaits/dsp/engine/hi_hat_engine.h **** //
   3:eurorack/plaits/dsp/engine/hi_hat_engine.h **** // Author: Emilie Gillet (emilie.o.gillet@gmail.com)
   4:eurorack/plaits/dsp/engine/hi_hat_engine.h **** //
   5:eurorack/plaits/dsp/engine/hi_hat_engine.h **** // Permission is hereby granted, free of charge, to any person obtaining a copy
   6:eurorack/plaits/dsp/engine/hi_hat_engine.h **** // of this software and associated documentation files (the "Software"), to deal
   7:eurorack/plaits/dsp/engine/hi_hat_engine.h **** // in the Software without restriction, including without limitation the rights
   8:eurorack/plaits/dsp/engine/hi_hat_engine.h **** // to use, copy, modify, merge, publish, distribute, sublicense, and/or sell
   9:eurorack/plaits/dsp/engine/hi_hat_engine.h **** // copies of the Software, and to permit persons to whom the Software is
  10:eurorack/plaits/dsp/engine/hi_hat_engine.h **** // furnished to do so, subject to the following conditions:
  11:eurorack/plaits/dsp/engine/hi_hat_engine.h **** // 
  12:eurorack/plaits/dsp/engine/hi_hat_engine.h **** // The above copyright notice and this permission notice shall be included in
  13:eurorack/plaits/dsp/engine/hi_hat_engine.h **** // all copies or substantial portions of the Software.
  14:eurorack/plaits/dsp/engine/hi_hat_engine.h **** // 
  15:eurorack/plaits/dsp/engine/hi_hat_engine.h **** // THE SOFTWARE IS PROVIDED "AS IS", WITHOUT WARRANTY OF ANY KIND, EXPRESS OR
  16:eurorack/plaits/dsp/engine/hi_hat_engine.h **** // IMPLIED, INCLUDING BUT NOT LIMITED TO THE WARRANTIES OF MERCHANTABILITY,
  17:eurorack/plaits/dsp/engine/hi_hat_engine.h **** // FITNESS FOR A PARTICULAR PURPOSE AND NONINFRINGEMENT. IN NO EVENT SHALL THE
  18:eurorack/plaits/dsp/engine/hi_hat_engine.h **** // AUTHORS OR COPYRIGHT HOLDERS BE LIABLE FOR ANY CLAIM, DAMAGES OR OTHER
  19:eurorack/plaits/dsp/engine/hi_hat_engine.h **** // LIABILITY, WHETHER IN AN ACTION OF CONTRACT, TORT OR OTHERWISE, ARISING FROM,
  20:eurorack/plaits/dsp/engine/hi_hat_engine.h **** // OUT OF OR IN CONNECTION WITH THE SOFTWARE OR THE USE OR OTHER DEALINGS IN
  21:eurorack/plaits/dsp/engine/hi_hat_engine.h **** // THE SOFTWARE.
  22:eurorack/plaits/dsp/engine/hi_hat_engine.h **** // 
  23:eurorack/plaits/dsp/engine/hi_hat_engine.h **** // See http://creativecommons.org/licenses/MIT/ for more information.
  24:eurorack/plaits/dsp/engine/hi_hat_engine.h **** //
  25:eurorack/plaits/dsp/engine/hi_hat_engine.h **** // -----------------------------------------------------------------------------
  26:eurorack/plaits/dsp/engine/hi_hat_engine.h **** //
  27:eurorack/plaits/dsp/engine/hi_hat_engine.h **** // 808-style HH with two noise sources - one faithful to the original, the other
  28:eurorack/plaits/dsp/engine/hi_hat_engine.h **** // more metallic.
  29:eurorack/plaits/dsp/engine/hi_hat_engine.h **** 
  30:eurorack/plaits/dsp/engine/hi_hat_engine.h **** #ifndef PLAITS_DSP_ENGINE_HI_HAT_ENGINE_H_
  31:eurorack/plaits/dsp/engine/hi_hat_engine.h **** #define PLAITS_DSP_ENGINE_HI_HAT_ENGINE_H_
  32:eurorack/plaits/dsp/engine/hi_hat_engine.h **** 
  33:eurorack/plaits/dsp/engine/hi_hat_engine.h **** #include "plaits/dsp/drums/hi_hat.h"
  34:eurorack/plaits/dsp/engine/hi_hat_engine.h **** #include "plaits/dsp/engine/engine.h"
  35:eurorack/plaits/dsp/engine/hi_hat_engine.h **** 
  36:eurorack/plaits/dsp/engine/hi_hat_engine.h **** namespace plaits {
  37:eurorack/plaits/dsp/engine/hi_hat_engine.h ****   
  38:eurorack/plaits/dsp/engine/hi_hat_engine.h **** class HiHatEngine : public Engine {
  39:eurorack/plaits/dsp/engine/hi_hat_engine.h ****  public:
  40:eurorack/plaits/dsp/engine/hi_hat_engine.h ****   HiHatEngine() { }
 467              		.loc 16 40 3 is_stmt 1 view .LVU127
 468              	.LBB1301:
 469              	.LBB1302:
 470              	.LBI1302:
 471              		.loc 6 80 3 view .LVU128
 472              		.loc 6 80 3 is_stmt 0 view .LVU129
 473              	.LBE1302:
 474              		.loc 16 40 17 view .LVU130
 475 0020 3249     		ldr	r1, .L24+16
 476 0022 C3F8BC12 		str	r1, [r3, #700]
 477              	.LVL23:
 478              	.LBB1303:
 479              	.LBI1303:
 480              		.file 17 "eurorack/plaits/dsp/drums/hi_hat.h"
   1:eurorack/plaits/dsp/drums/hi_hat.h **** // Copyright 2016 Emilie Gillet.
   2:eurorack/plaits/dsp/drums/hi_hat.h **** //
ARM GAS  /var/folders/9s/8rp0_f2s1n31qbztm3b5_fdh0000gn/T//ccwHxkZj.s 			page 31


   3:eurorack/plaits/dsp/drums/hi_hat.h **** // Author: Emilie Gillet (emilie.o.gillet@gmail.com)
   4:eurorack/plaits/dsp/drums/hi_hat.h **** //
   5:eurorack/plaits/dsp/drums/hi_hat.h **** // Permission is hereby granted, free of charge, to any person obtaining a copy
   6:eurorack/plaits/dsp/drums/hi_hat.h **** // of this software and associated documentation files (the "Software"), to deal
   7:eurorack/plaits/dsp/drums/hi_hat.h **** // in the Software without restriction, including without limitation the rights
   8:eurorack/plaits/dsp/drums/hi_hat.h **** // to use, copy, modify, merge, publish, distribute, sublicense, and/or sell
   9:eurorack/plaits/dsp/drums/hi_hat.h **** // copies of the Software, and to permit persons to whom the Software is
  10:eurorack/plaits/dsp/drums/hi_hat.h **** // furnished to do so, subject to the following conditions:
  11:eurorack/plaits/dsp/drums/hi_hat.h **** // 
  12:eurorack/plaits/dsp/drums/hi_hat.h **** // The above copyright notice and this permission notice shall be included in
  13:eurorack/plaits/dsp/drums/hi_hat.h **** // all copies or substantial portions of the Software.
  14:eurorack/plaits/dsp/drums/hi_hat.h **** // 
  15:eurorack/plaits/dsp/drums/hi_hat.h **** // THE SOFTWARE IS PROVIDED "AS IS", WITHOUT WARRANTY OF ANY KIND, EXPRESS OR
  16:eurorack/plaits/dsp/drums/hi_hat.h **** // IMPLIED, INCLUDING BUT NOT LIMITED TO THE WARRANTIES OF MERCHANTABILITY,
  17:eurorack/plaits/dsp/drums/hi_hat.h **** // FITNESS FOR A PARTICULAR PURPOSE AND NONINFRINGEMENT. IN NO EVENT SHALL THE
  18:eurorack/plaits/dsp/drums/hi_hat.h **** // AUTHORS OR COPYRIGHT HOLDERS BE LIABLE FOR ANY CLAIM, DAMAGES OR OTHER
  19:eurorack/plaits/dsp/drums/hi_hat.h **** // LIABILITY, WHETHER IN AN ACTION OF CONTRACT, TORT OR OTHERWISE, ARISING FROM,
  20:eurorack/plaits/dsp/drums/hi_hat.h **** // OUT OF OR IN CONNECTION WITH THE SOFTWARE OR THE USE OR OTHER DEALINGS IN
  21:eurorack/plaits/dsp/drums/hi_hat.h **** // THE SOFTWARE.
  22:eurorack/plaits/dsp/drums/hi_hat.h **** // 
  23:eurorack/plaits/dsp/drums/hi_hat.h **** // See http://creativecommons.org/licenses/MIT/ for more information.
  24:eurorack/plaits/dsp/drums/hi_hat.h **** //
  25:eurorack/plaits/dsp/drums/hi_hat.h **** // -----------------------------------------------------------------------------
  26:eurorack/plaits/dsp/drums/hi_hat.h **** //
  27:eurorack/plaits/dsp/drums/hi_hat.h **** // 808 HH, with a few extra parameters to push things to the CY territory...
  28:eurorack/plaits/dsp/drums/hi_hat.h **** // The template parameter MetallicNoiseSource allows another kind of "metallic
  29:eurorack/plaits/dsp/drums/hi_hat.h **** // noise" to be used, for results which are more similar to KR-55 or FM hi-hats.
  30:eurorack/plaits/dsp/drums/hi_hat.h **** 
  31:eurorack/plaits/dsp/drums/hi_hat.h **** #ifndef PLAITS_DSP_DRUMS_HI_HAT_H_
  32:eurorack/plaits/dsp/drums/hi_hat.h **** #define PLAITS_DSP_DRUMS_HI_HAT_H_
  33:eurorack/plaits/dsp/drums/hi_hat.h **** 
  34:eurorack/plaits/dsp/drums/hi_hat.h **** #include <algorithm>
  35:eurorack/plaits/dsp/drums/hi_hat.h **** 
  36:eurorack/plaits/dsp/drums/hi_hat.h **** #include "stmlib/dsp/dsp.h"
  37:eurorack/plaits/dsp/drums/hi_hat.h **** #include "stmlib/dsp/filter.h"
  38:eurorack/plaits/dsp/drums/hi_hat.h **** #include "stmlib/dsp/parameter_interpolator.h"
  39:eurorack/plaits/dsp/drums/hi_hat.h **** #include "stmlib/dsp/units.h"
  40:eurorack/plaits/dsp/drums/hi_hat.h **** #include "stmlib/utils/random.h"
  41:eurorack/plaits/dsp/drums/hi_hat.h **** 
  42:eurorack/plaits/dsp/drums/hi_hat.h **** #include "plaits/dsp/dsp.h"
  43:eurorack/plaits/dsp/drums/hi_hat.h **** #include "plaits/dsp/oscillator/oscillator.h"
  44:eurorack/plaits/dsp/drums/hi_hat.h **** 
  45:eurorack/plaits/dsp/drums/hi_hat.h **** namespace plaits {
  46:eurorack/plaits/dsp/drums/hi_hat.h **** 
  47:eurorack/plaits/dsp/drums/hi_hat.h **** // 808 style "metallic noise" with 6 square oscillators.
  48:eurorack/plaits/dsp/drums/hi_hat.h **** class SquareNoise {
  49:eurorack/plaits/dsp/drums/hi_hat.h ****  public:
  50:eurorack/plaits/dsp/drums/hi_hat.h ****   SquareNoise() { }
  51:eurorack/plaits/dsp/drums/hi_hat.h ****   ~SquareNoise() { }
  52:eurorack/plaits/dsp/drums/hi_hat.h **** 
  53:eurorack/plaits/dsp/drums/hi_hat.h ****   void Init() {
  54:eurorack/plaits/dsp/drums/hi_hat.h ****     std::fill(&phase_[0], &phase_[6], 0);
  55:eurorack/plaits/dsp/drums/hi_hat.h ****   }
  56:eurorack/plaits/dsp/drums/hi_hat.h ****     
  57:eurorack/plaits/dsp/drums/hi_hat.h ****   void Render(float f0, float* temp_1, float* temp_2, float* out, size_t size) {
  58:eurorack/plaits/dsp/drums/hi_hat.h ****     const float ratios[6] = {
  59:eurorack/plaits/dsp/drums/hi_hat.h ****         // Nominal f0: 414 Hz
ARM GAS  /var/folders/9s/8rp0_f2s1n31qbztm3b5_fdh0000gn/T//ccwHxkZj.s 			page 32


  60:eurorack/plaits/dsp/drums/hi_hat.h ****         1.0f, 1.304f, 1.466f, 1.787f, 1.932f, 2.536f
  61:eurorack/plaits/dsp/drums/hi_hat.h ****     };
  62:eurorack/plaits/dsp/drums/hi_hat.h ****   
  63:eurorack/plaits/dsp/drums/hi_hat.h ****     uint32_t increment[6];
  64:eurorack/plaits/dsp/drums/hi_hat.h ****     uint32_t phase[6];
  65:eurorack/plaits/dsp/drums/hi_hat.h ****     for (int i = 0; i < 6; ++i) {
  66:eurorack/plaits/dsp/drums/hi_hat.h ****       float f = f0 * ratios[i];
  67:eurorack/plaits/dsp/drums/hi_hat.h ****       if (f >= 0.499f) f = 0.499f;
  68:eurorack/plaits/dsp/drums/hi_hat.h ****       increment[i] = static_cast<uint32_t>(f * 4294967296.0f);
  69:eurorack/plaits/dsp/drums/hi_hat.h ****       phase[i] = phase_[i];
  70:eurorack/plaits/dsp/drums/hi_hat.h ****     }
  71:eurorack/plaits/dsp/drums/hi_hat.h **** 
  72:eurorack/plaits/dsp/drums/hi_hat.h ****     while (size--) {
  73:eurorack/plaits/dsp/drums/hi_hat.h ****       phase[0] += increment[0];
  74:eurorack/plaits/dsp/drums/hi_hat.h ****       phase[1] += increment[1];
  75:eurorack/plaits/dsp/drums/hi_hat.h ****       phase[2] += increment[2];
  76:eurorack/plaits/dsp/drums/hi_hat.h ****       phase[3] += increment[3];
  77:eurorack/plaits/dsp/drums/hi_hat.h ****       phase[4] += increment[4];
  78:eurorack/plaits/dsp/drums/hi_hat.h ****       phase[5] += increment[5];
  79:eurorack/plaits/dsp/drums/hi_hat.h ****       uint32_t noise = 0;
  80:eurorack/plaits/dsp/drums/hi_hat.h ****       noise += (phase[0] >> 31);
  81:eurorack/plaits/dsp/drums/hi_hat.h ****       noise += (phase[1] >> 31);
  82:eurorack/plaits/dsp/drums/hi_hat.h ****       noise += (phase[2] >> 31);
  83:eurorack/plaits/dsp/drums/hi_hat.h ****       noise += (phase[3] >> 31);
  84:eurorack/plaits/dsp/drums/hi_hat.h ****       noise += (phase[4] >> 31);
  85:eurorack/plaits/dsp/drums/hi_hat.h ****       noise += (phase[5] >> 31);
  86:eurorack/plaits/dsp/drums/hi_hat.h ****       *out++ = 0.33f * static_cast<float>(noise) - 1.0f;
  87:eurorack/plaits/dsp/drums/hi_hat.h ****     }
  88:eurorack/plaits/dsp/drums/hi_hat.h ****   
  89:eurorack/plaits/dsp/drums/hi_hat.h ****     for (int i = 0; i < 6; ++i) {
  90:eurorack/plaits/dsp/drums/hi_hat.h ****       phase_[i] = phase[i];
  91:eurorack/plaits/dsp/drums/hi_hat.h ****     }
  92:eurorack/plaits/dsp/drums/hi_hat.h ****   }
  93:eurorack/plaits/dsp/drums/hi_hat.h **** 
  94:eurorack/plaits/dsp/drums/hi_hat.h ****  private:
  95:eurorack/plaits/dsp/drums/hi_hat.h ****   uint32_t phase_[6];
  96:eurorack/plaits/dsp/drums/hi_hat.h **** 
  97:eurorack/plaits/dsp/drums/hi_hat.h ****   DISALLOW_COPY_AND_ASSIGN(SquareNoise);
  98:eurorack/plaits/dsp/drums/hi_hat.h **** };
  99:eurorack/plaits/dsp/drums/hi_hat.h **** 
 100:eurorack/plaits/dsp/drums/hi_hat.h **** class RingModNoise {
 101:eurorack/plaits/dsp/drums/hi_hat.h ****  public:
 102:eurorack/plaits/dsp/drums/hi_hat.h ****   RingModNoise() { }
 103:eurorack/plaits/dsp/drums/hi_hat.h ****   ~RingModNoise() { }
 104:eurorack/plaits/dsp/drums/hi_hat.h **** 
 105:eurorack/plaits/dsp/drums/hi_hat.h ****   void Init() {
 106:eurorack/plaits/dsp/drums/hi_hat.h ****     for (int i = 0; i < 6; ++i) {
 107:eurorack/plaits/dsp/drums/hi_hat.h ****       oscillator_[i].Init();
 108:eurorack/plaits/dsp/drums/hi_hat.h ****     }
 109:eurorack/plaits/dsp/drums/hi_hat.h ****   }
 110:eurorack/plaits/dsp/drums/hi_hat.h ****   
 111:eurorack/plaits/dsp/drums/hi_hat.h ****   void Render(float f0, float* temp_1, float* temp_2, float* out, size_t size) {
 112:eurorack/plaits/dsp/drums/hi_hat.h ****     const float ratio = f0 / (0.01f + f0);
 113:eurorack/plaits/dsp/drums/hi_hat.h ****     const float f1a = 200.0f / kSampleRate * ratio;
 114:eurorack/plaits/dsp/drums/hi_hat.h ****     const float f1b = 7530.0f / kSampleRate * ratio;
 115:eurorack/plaits/dsp/drums/hi_hat.h ****     const float f2a = 510.0f / kSampleRate * ratio;
 116:eurorack/plaits/dsp/drums/hi_hat.h ****     const float f2b = 8075.0f / kSampleRate * ratio;
ARM GAS  /var/folders/9s/8rp0_f2s1n31qbztm3b5_fdh0000gn/T//ccwHxkZj.s 			page 33


 117:eurorack/plaits/dsp/drums/hi_hat.h ****     const float f3a = 730.0f / kSampleRate * ratio;
 118:eurorack/plaits/dsp/drums/hi_hat.h ****     const float f3b = 10500.0f / kSampleRate * ratio;
 119:eurorack/plaits/dsp/drums/hi_hat.h ****     
 120:eurorack/plaits/dsp/drums/hi_hat.h ****     std::fill(&out[0], &out[size], 0.0f);
 121:eurorack/plaits/dsp/drums/hi_hat.h ****     
 122:eurorack/plaits/dsp/drums/hi_hat.h ****     RenderPair(&oscillator_[0], f1a, f1b, temp_1, temp_2, out, size);
 123:eurorack/plaits/dsp/drums/hi_hat.h ****     RenderPair(&oscillator_[2], f2a, f2b, temp_1, temp_2, out, size);
 124:eurorack/plaits/dsp/drums/hi_hat.h ****     RenderPair(&oscillator_[4], f3a, f3b, temp_1, temp_2, out, size);
 125:eurorack/plaits/dsp/drums/hi_hat.h ****   }
 126:eurorack/plaits/dsp/drums/hi_hat.h **** 
 127:eurorack/plaits/dsp/drums/hi_hat.h ****  private:
 128:eurorack/plaits/dsp/drums/hi_hat.h ****   void RenderPair(
 129:eurorack/plaits/dsp/drums/hi_hat.h ****       Oscillator* osc,
 130:eurorack/plaits/dsp/drums/hi_hat.h ****       float f1,
 131:eurorack/plaits/dsp/drums/hi_hat.h ****       float f2,
 132:eurorack/plaits/dsp/drums/hi_hat.h ****       float* temp_1,
 133:eurorack/plaits/dsp/drums/hi_hat.h ****       float* temp_2,
 134:eurorack/plaits/dsp/drums/hi_hat.h ****       float* out,
 135:eurorack/plaits/dsp/drums/hi_hat.h ****       size_t size) {
 136:eurorack/plaits/dsp/drums/hi_hat.h ****     osc[0].Render<OSCILLATOR_SHAPE_SQUARE>(f1, 0.5f, temp_1, size);
 137:eurorack/plaits/dsp/drums/hi_hat.h ****     osc[1].Render<OSCILLATOR_SHAPE_SAW>(f2, 0.5f, temp_2, size);
 138:eurorack/plaits/dsp/drums/hi_hat.h ****     while (size--) {
 139:eurorack/plaits/dsp/drums/hi_hat.h ****       *out++ += *temp_1++ * *temp_2++;
 140:eurorack/plaits/dsp/drums/hi_hat.h ****     }
 141:eurorack/plaits/dsp/drums/hi_hat.h ****   }
 142:eurorack/plaits/dsp/drums/hi_hat.h ****   Oscillator oscillator_[6];
 143:eurorack/plaits/dsp/drums/hi_hat.h ****   
 144:eurorack/plaits/dsp/drums/hi_hat.h ****   DISALLOW_COPY_AND_ASSIGN(RingModNoise);
 145:eurorack/plaits/dsp/drums/hi_hat.h **** };
 146:eurorack/plaits/dsp/drums/hi_hat.h **** 
 147:eurorack/plaits/dsp/drums/hi_hat.h **** class SwingVCA {
 148:eurorack/plaits/dsp/drums/hi_hat.h ****  public:
 149:eurorack/plaits/dsp/drums/hi_hat.h ****   float operator()(float s, float gain) {
 150:eurorack/plaits/dsp/drums/hi_hat.h ****    s *= s > 0.0f ? 10.0f : 0.1f;
 151:eurorack/plaits/dsp/drums/hi_hat.h ****    s = s / (1.0f + fabsf(s));
 152:eurorack/plaits/dsp/drums/hi_hat.h ****    return (s + 1.0f) * gain;
 153:eurorack/plaits/dsp/drums/hi_hat.h ****   }
 154:eurorack/plaits/dsp/drums/hi_hat.h **** };
 155:eurorack/plaits/dsp/drums/hi_hat.h **** 
 156:eurorack/plaits/dsp/drums/hi_hat.h **** class LinearVCA {
 157:eurorack/plaits/dsp/drums/hi_hat.h ****  public:
 158:eurorack/plaits/dsp/drums/hi_hat.h ****   float operator()(float s, float gain) {
 159:eurorack/plaits/dsp/drums/hi_hat.h ****    return s * gain;
 160:eurorack/plaits/dsp/drums/hi_hat.h ****   }
 161:eurorack/plaits/dsp/drums/hi_hat.h **** };
 162:eurorack/plaits/dsp/drums/hi_hat.h **** 
 163:eurorack/plaits/dsp/drums/hi_hat.h **** template<typename MetallicNoiseSource, typename VCA, bool resonance>
 164:eurorack/plaits/dsp/drums/hi_hat.h **** class HiHat {
 165:eurorack/plaits/dsp/drums/hi_hat.h ****  public:
 166:eurorack/plaits/dsp/drums/hi_hat.h ****   HiHat() { }
 481              		.loc 17 166 3 is_stmt 1 view .LVU131
 482              	.LBB1304:
 483              	.LBI1304:
  50:eurorack/plaits/dsp/drums/hi_hat.h ****   ~SquareNoise() { }
 484              		.loc 17 50 3 view .LVU132
  50:eurorack/plaits/dsp/drums/hi_hat.h ****   ~SquareNoise() { }
 485              		.loc 17 50 3 is_stmt 0 view .LVU133
ARM GAS  /var/folders/9s/8rp0_f2s1n31qbztm3b5_fdh0000gn/T//ccwHxkZj.s 			page 34


 486              	.LBE1304:
 487              	.LBB1305:
 488              	.LBI1305:
 489              		.loc 9 179 3 is_stmt 1 view .LVU134
 490              		.loc 9 179 3 is_stmt 0 view .LVU135
 491              	.LBE1305:
 492              	.LBB1306:
 493              	.LBI1306:
 494              		.loc 9 179 3 is_stmt 1 view .LVU136
 495              		.loc 9 179 3 is_stmt 0 view .LVU137
 496              	.LBE1306:
 497              	.LBE1303:
 498              	.LBB1307:
 499              	.LBI1307:
 500              		.loc 17 166 3 is_stmt 1 view .LVU138
 501              	.LBB1308:
 502              	.LBI1308:
 102:eurorack/plaits/dsp/drums/hi_hat.h ****   ~RingModNoise() { }
 503              		.loc 17 102 3 view .LVU139
 504              	.LBE1308:
 505              	.LBE1307:
 506              	.LBE1301:
 507              	.LBE1300:
 508              	.LBE1278:
 509              	.LBE1387:
 102:eurorack/plaits/dsp/drums/hi_hat.h ****   ~RingModNoise() { }
 510              		.loc 17 102 18 view .LVU140
 511              	.LBB1388:
 512              	.LBB1378:
 513              	.LBB1313:
 514              	.LBB1312:
 515              	.LBB1311:
 516              	.LBB1309:
 517              	.LBI1309:
 518              		.loc 9 179 3 view .LVU141
 519              		.loc 9 179 3 is_stmt 0 view .LVU142
 520              	.LBE1309:
 521              	.LBB1310:
 522              	.LBI1310:
 523              		.loc 9 179 3 is_stmt 1 view .LVU143
 524              		.loc 9 179 3 is_stmt 0 view .LVU144
 525              	.LBE1310:
 526              	.LBE1311:
 527              	.LBE1312:
 528              	.LBE1313:
 529              	.LBB1314:
 530              	.LBI1314:
 531              		.file 18 "eurorack/plaits/dsp/engine/modal_engine.h"
   1:eurorack/plaits/dsp/engine/modal_engine.h **** // Copyright 2016 Emilie Gillet.
   2:eurorack/plaits/dsp/engine/modal_engine.h **** //
   3:eurorack/plaits/dsp/engine/modal_engine.h **** // Author: Emilie Gillet (emilie.o.gillet@gmail.com)
   4:eurorack/plaits/dsp/engine/modal_engine.h **** //
   5:eurorack/plaits/dsp/engine/modal_engine.h **** // Permission is hereby granted, free of charge, to any person obtaining a copy
   6:eurorack/plaits/dsp/engine/modal_engine.h **** // of this software and associated documentation files (the "Software"), to deal
   7:eurorack/plaits/dsp/engine/modal_engine.h **** // in the Software without restriction, including without limitation the rights
   8:eurorack/plaits/dsp/engine/modal_engine.h **** // to use, copy, modify, merge, publish, distribute, sublicense, and/or sell
   9:eurorack/plaits/dsp/engine/modal_engine.h **** // copies of the Software, and to permit persons to whom the Software is
ARM GAS  /var/folders/9s/8rp0_f2s1n31qbztm3b5_fdh0000gn/T//ccwHxkZj.s 			page 35


  10:eurorack/plaits/dsp/engine/modal_engine.h **** // furnished to do so, subject to the following conditions:
  11:eurorack/plaits/dsp/engine/modal_engine.h **** // 
  12:eurorack/plaits/dsp/engine/modal_engine.h **** // The above copyright notice and this permission notice shall be included in
  13:eurorack/plaits/dsp/engine/modal_engine.h **** // all copies or substantial portions of the Software.
  14:eurorack/plaits/dsp/engine/modal_engine.h **** // 
  15:eurorack/plaits/dsp/engine/modal_engine.h **** // THE SOFTWARE IS PROVIDED "AS IS", WITHOUT WARRANTY OF ANY KIND, EXPRESS OR
  16:eurorack/plaits/dsp/engine/modal_engine.h **** // IMPLIED, INCLUDING BUT NOT LIMITED TO THE WARRANTIES OF MERCHANTABILITY,
  17:eurorack/plaits/dsp/engine/modal_engine.h **** // FITNESS FOR A PARTICULAR PURPOSE AND NONINFRINGEMENT. IN NO EVENT SHALL THE
  18:eurorack/plaits/dsp/engine/modal_engine.h **** // AUTHORS OR COPYRIGHT HOLDERS BE LIABLE FOR ANY CLAIM, DAMAGES OR OTHER
  19:eurorack/plaits/dsp/engine/modal_engine.h **** // LIABILITY, WHETHER IN AN ACTION OF CONTRACT, TORT OR OTHERWISE, ARISING FROM,
  20:eurorack/plaits/dsp/engine/modal_engine.h **** // OUT OF OR IN CONNECTION WITH THE SOFTWARE OR THE USE OR OTHER DEALINGS IN
  21:eurorack/plaits/dsp/engine/modal_engine.h **** // THE SOFTWARE.
  22:eurorack/plaits/dsp/engine/modal_engine.h **** // 
  23:eurorack/plaits/dsp/engine/modal_engine.h **** // See http://creativecommons.org/licenses/MIT/ for more information.
  24:eurorack/plaits/dsp/engine/modal_engine.h **** //
  25:eurorack/plaits/dsp/engine/modal_engine.h **** // -----------------------------------------------------------------------------
  26:eurorack/plaits/dsp/engine/modal_engine.h **** //
  27:eurorack/plaits/dsp/engine/modal_engine.h **** // One voice of modal synthesis.
  28:eurorack/plaits/dsp/engine/modal_engine.h **** 
  29:eurorack/plaits/dsp/engine/modal_engine.h **** #ifndef PLAITS_DSP_ENGINE_MODAL_ENGINE_H_
  30:eurorack/plaits/dsp/engine/modal_engine.h **** #define PLAITS_DSP_ENGINE_MODAL_ENGINE_H_
  31:eurorack/plaits/dsp/engine/modal_engine.h **** 
  32:eurorack/plaits/dsp/engine/modal_engine.h **** #include "plaits/dsp/engine/engine.h"
  33:eurorack/plaits/dsp/engine/modal_engine.h **** #include "plaits/dsp/physical_modelling/modal_voice.h"
  34:eurorack/plaits/dsp/engine/modal_engine.h **** 
  35:eurorack/plaits/dsp/engine/modal_engine.h **** namespace plaits {
  36:eurorack/plaits/dsp/engine/modal_engine.h **** 
  37:eurorack/plaits/dsp/engine/modal_engine.h **** class ModalEngine : public Engine {
  38:eurorack/plaits/dsp/engine/modal_engine.h ****  public:
  39:eurorack/plaits/dsp/engine/modal_engine.h ****   ModalEngine() { }
 532              		.loc 18 39 3 is_stmt 1 view .LVU145
 533              	.LBB1315:
 534              	.LBB1316:
 535              	.LBI1316:
 536              		.loc 6 80 3 view .LVU146
 537              		.loc 6 80 3 is_stmt 0 view .LVU147
 538              	.LBE1316:
 539              		.loc 18 39 17 view .LVU148
 540 0026 3249     		ldr	r1, .L24+20
 541 0028 C3F80414 		str	r1, [r3, #1028]
 542              	.LVL24:
 543              	.LBB1317:
 544              	.LBI1317:
 545              		.file 19 "eurorack/plaits/dsp/physical_modelling/modal_voice.h"
   1:eurorack/plaits/dsp/physical_modelling/modal_voice.h **** // Copyright 2016 Emilie Gillet.
   2:eurorack/plaits/dsp/physical_modelling/modal_voice.h **** //
   3:eurorack/plaits/dsp/physical_modelling/modal_voice.h **** // Author: Emilie Gillet (emilie.o.gillet@gmail.com)
   4:eurorack/plaits/dsp/physical_modelling/modal_voice.h **** //
   5:eurorack/plaits/dsp/physical_modelling/modal_voice.h **** // Permission is hereby granted, free of charge, to any person obtaining a copy
   6:eurorack/plaits/dsp/physical_modelling/modal_voice.h **** // of this software and associated documentation files (the "Software"), to deal
   7:eurorack/plaits/dsp/physical_modelling/modal_voice.h **** // in the Software without restriction, including without limitation the rights
   8:eurorack/plaits/dsp/physical_modelling/modal_voice.h **** // to use, copy, modify, merge, publish, distribute, sublicense, and/or sell
   9:eurorack/plaits/dsp/physical_modelling/modal_voice.h **** // copies of the Software, and to permit persons to whom the Software is
  10:eurorack/plaits/dsp/physical_modelling/modal_voice.h **** // furnished to do so, subject to the following conditions:
  11:eurorack/plaits/dsp/physical_modelling/modal_voice.h **** // 
  12:eurorack/plaits/dsp/physical_modelling/modal_voice.h **** // The above copyright notice and this permission notice shall be included in
  13:eurorack/plaits/dsp/physical_modelling/modal_voice.h **** // all copies or substantial portions of the Software.
ARM GAS  /var/folders/9s/8rp0_f2s1n31qbztm3b5_fdh0000gn/T//ccwHxkZj.s 			page 36


  14:eurorack/plaits/dsp/physical_modelling/modal_voice.h **** // 
  15:eurorack/plaits/dsp/physical_modelling/modal_voice.h **** // THE SOFTWARE IS PROVIDED "AS IS", WITHOUT WARRANTY OF ANY KIND, EXPRESS OR
  16:eurorack/plaits/dsp/physical_modelling/modal_voice.h **** // IMPLIED, INCLUDING BUT NOT LIMITED TO THE WARRANTIES OF MERCHANTABILITY,
  17:eurorack/plaits/dsp/physical_modelling/modal_voice.h **** // FITNESS FOR A PARTICULAR PURPOSE AND NONINFRINGEMENT. IN NO EVENT SHALL THE
  18:eurorack/plaits/dsp/physical_modelling/modal_voice.h **** // AUTHORS OR COPYRIGHT HOLDERS BE LIABLE FOR ANY CLAIM, DAMAGES OR OTHER
  19:eurorack/plaits/dsp/physical_modelling/modal_voice.h **** // LIABILITY, WHETHER IN AN ACTION OF CONTRACT, TORT OR OTHERWISE, ARISING FROM,
  20:eurorack/plaits/dsp/physical_modelling/modal_voice.h **** // OUT OF OR IN CONNECTION WITH THE SOFTWARE OR THE USE OR OTHER DEALINGS IN
  21:eurorack/plaits/dsp/physical_modelling/modal_voice.h **** // THE SOFTWARE.
  22:eurorack/plaits/dsp/physical_modelling/modal_voice.h **** // 
  23:eurorack/plaits/dsp/physical_modelling/modal_voice.h **** // See http://creativecommons.org/licenses/MIT/ for more information.
  24:eurorack/plaits/dsp/physical_modelling/modal_voice.h **** //
  25:eurorack/plaits/dsp/physical_modelling/modal_voice.h **** // -----------------------------------------------------------------------------
  26:eurorack/plaits/dsp/physical_modelling/modal_voice.h **** //
  27:eurorack/plaits/dsp/physical_modelling/modal_voice.h **** // Simple modal synthesis voice with a mallet exciter:
  28:eurorack/plaits/dsp/physical_modelling/modal_voice.h **** // click -> LPF -> resonator.
  29:eurorack/plaits/dsp/physical_modelling/modal_voice.h **** // 
  30:eurorack/plaits/dsp/physical_modelling/modal_voice.h **** // The click is replaced by continuous white noise when the trigger input
  31:eurorack/plaits/dsp/physical_modelling/modal_voice.h **** // of the module is not patched.
  32:eurorack/plaits/dsp/physical_modelling/modal_voice.h **** 
  33:eurorack/plaits/dsp/physical_modelling/modal_voice.h **** #ifndef PLAITS_DSP_PHYSICAL_MODELLING_MODAL_VOICE_H_
  34:eurorack/plaits/dsp/physical_modelling/modal_voice.h **** #define PLAITS_DSP_PHYSICAL_MODELLING_MODAL_VOICE_H_
  35:eurorack/plaits/dsp/physical_modelling/modal_voice.h **** 
  36:eurorack/plaits/dsp/physical_modelling/modal_voice.h **** #include "plaits/dsp/physical_modelling/resonator.h"
  37:eurorack/plaits/dsp/physical_modelling/modal_voice.h **** 
  38:eurorack/plaits/dsp/physical_modelling/modal_voice.h **** namespace plaits {
  39:eurorack/plaits/dsp/physical_modelling/modal_voice.h **** 
  40:eurorack/plaits/dsp/physical_modelling/modal_voice.h **** class ModalVoice {
  41:eurorack/plaits/dsp/physical_modelling/modal_voice.h ****  public:
  42:eurorack/plaits/dsp/physical_modelling/modal_voice.h ****   ModalVoice() { }
 546              		.loc 19 42 3 is_stmt 1 view .LVU149
 547              	.LBB1318:
 548              	.LBI1318:
 549              		.file 20 "eurorack/plaits/dsp/physical_modelling/resonator.h"
   1:eurorack/plaits/dsp/physical_modelling/resonator.h **** // Copyright 2016 Emilie Gillet.
   2:eurorack/plaits/dsp/physical_modelling/resonator.h **** //
   3:eurorack/plaits/dsp/physical_modelling/resonator.h **** // Author: Emilie Gillet (emilie.o.gillet@gmail.com)
   4:eurorack/plaits/dsp/physical_modelling/resonator.h **** //
   5:eurorack/plaits/dsp/physical_modelling/resonator.h **** // Permission is hereby granted, free of charge, to any person obtaining a copy
   6:eurorack/plaits/dsp/physical_modelling/resonator.h **** // of this software and associated documentation files (the "Software"), to deal
   7:eurorack/plaits/dsp/physical_modelling/resonator.h **** // in the Software without restriction, including without limitation the rights
   8:eurorack/plaits/dsp/physical_modelling/resonator.h **** // to use, copy, modify, merge, publish, distribute, sublicense, and/or sell
   9:eurorack/plaits/dsp/physical_modelling/resonator.h **** // copies of the Software, and to permit persons to whom the Software is
  10:eurorack/plaits/dsp/physical_modelling/resonator.h **** // furnished to do so, subject to the following conditions:
  11:eurorack/plaits/dsp/physical_modelling/resonator.h **** // 
  12:eurorack/plaits/dsp/physical_modelling/resonator.h **** // The above copyright notice and this permission notice shall be included in
  13:eurorack/plaits/dsp/physical_modelling/resonator.h **** // all copies or substantial portions of the Software.
  14:eurorack/plaits/dsp/physical_modelling/resonator.h **** // 
  15:eurorack/plaits/dsp/physical_modelling/resonator.h **** // THE SOFTWARE IS PROVIDED "AS IS", WITHOUT WARRANTY OF ANY KIND, EXPRESS OR
  16:eurorack/plaits/dsp/physical_modelling/resonator.h **** // IMPLIED, INCLUDING BUT NOT LIMITED TO THE WARRANTIES OF MERCHANTABILITY,
  17:eurorack/plaits/dsp/physical_modelling/resonator.h **** // FITNESS FOR A PARTICULAR PURPOSE AND NONINFRINGEMENT. IN NO EVENT SHALL THE
  18:eurorack/plaits/dsp/physical_modelling/resonator.h **** // AUTHORS OR COPYRIGHT HOLDERS BE LIABLE FOR ANY CLAIM, DAMAGES OR OTHER
  19:eurorack/plaits/dsp/physical_modelling/resonator.h **** // LIABILITY, WHETHER IN AN ACTION OF CONTRACT, TORT OR OTHERWISE, ARISING FROM,
  20:eurorack/plaits/dsp/physical_modelling/resonator.h **** // OUT OF OR IN CONNECTION WITH THE SOFTWARE OR THE USE OR OTHER DEALINGS IN
  21:eurorack/plaits/dsp/physical_modelling/resonator.h **** // THE SOFTWARE.
  22:eurorack/plaits/dsp/physical_modelling/resonator.h **** // 
  23:eurorack/plaits/dsp/physical_modelling/resonator.h **** // See http://creativecommons.org/licenses/MIT/ for more information.
  24:eurorack/plaits/dsp/physical_modelling/resonator.h **** //
ARM GAS  /var/folders/9s/8rp0_f2s1n31qbztm3b5_fdh0000gn/T//ccwHxkZj.s 			page 37


  25:eurorack/plaits/dsp/physical_modelling/resonator.h **** // -----------------------------------------------------------------------------
  26:eurorack/plaits/dsp/physical_modelling/resonator.h **** //
  27:eurorack/plaits/dsp/physical_modelling/resonator.h **** // Resonator, taken from Rings' code but with fixed position.
  28:eurorack/plaits/dsp/physical_modelling/resonator.h **** 
  29:eurorack/plaits/dsp/physical_modelling/resonator.h **** #ifndef PLAITS_DSP_PHYSICAL_MODELLING_RESONATOR_H_
  30:eurorack/plaits/dsp/physical_modelling/resonator.h **** #define PLAITS_DSP_PHYSICAL_MODELLING_RESONATOR_H_
  31:eurorack/plaits/dsp/physical_modelling/resonator.h **** 
  32:eurorack/plaits/dsp/physical_modelling/resonator.h **** #include "stmlib/dsp/filter.h"
  33:eurorack/plaits/dsp/physical_modelling/resonator.h **** 
  34:eurorack/plaits/dsp/physical_modelling/resonator.h **** namespace plaits {
  35:eurorack/plaits/dsp/physical_modelling/resonator.h **** 
  36:eurorack/plaits/dsp/physical_modelling/resonator.h **** const int kMaxNumModes = 24;
  37:eurorack/plaits/dsp/physical_modelling/resonator.h **** const int kModeBatchSize = 4;
  38:eurorack/plaits/dsp/physical_modelling/resonator.h **** 
  39:eurorack/plaits/dsp/physical_modelling/resonator.h **** // We render 4 modes simultaneously since there are enough registers to hold
  40:eurorack/plaits/dsp/physical_modelling/resonator.h **** // all state variables.
  41:eurorack/plaits/dsp/physical_modelling/resonator.h **** template<int batch_size>
  42:eurorack/plaits/dsp/physical_modelling/resonator.h **** class ResonatorSvf {
  43:eurorack/plaits/dsp/physical_modelling/resonator.h ****  public:
  44:eurorack/plaits/dsp/physical_modelling/resonator.h ****   ResonatorSvf() { }
 550              		.loc 20 44 3 view .LVU150
 551              		.loc 20 44 3 is_stmt 0 view .LVU151
 552              	.LBE1318:
 553              	.LBB1319:
 554              	.LBI1319:
  45:eurorack/plaits/dsp/physical_modelling/resonator.h ****   ~ResonatorSvf() { }
  46:eurorack/plaits/dsp/physical_modelling/resonator.h ****   
  47:eurorack/plaits/dsp/physical_modelling/resonator.h ****   void Init() {
  48:eurorack/plaits/dsp/physical_modelling/resonator.h ****     for (int i = 0; i < batch_size; ++i) {
  49:eurorack/plaits/dsp/physical_modelling/resonator.h ****       state_1_[i] = state_2_[i] = 0.0f;
  50:eurorack/plaits/dsp/physical_modelling/resonator.h ****     }
  51:eurorack/plaits/dsp/physical_modelling/resonator.h ****   }
  52:eurorack/plaits/dsp/physical_modelling/resonator.h ****   
  53:eurorack/plaits/dsp/physical_modelling/resonator.h ****   template<stmlib::FilterMode mode, bool add>
  54:eurorack/plaits/dsp/physical_modelling/resonator.h ****   void Process(
  55:eurorack/plaits/dsp/physical_modelling/resonator.h ****       const float* f,
  56:eurorack/plaits/dsp/physical_modelling/resonator.h ****       const float* q,
  57:eurorack/plaits/dsp/physical_modelling/resonator.h ****       const float* gain,
  58:eurorack/plaits/dsp/physical_modelling/resonator.h ****       const float* in,
  59:eurorack/plaits/dsp/physical_modelling/resonator.h ****       float* out,
  60:eurorack/plaits/dsp/physical_modelling/resonator.h ****       size_t size) {
  61:eurorack/plaits/dsp/physical_modelling/resonator.h ****     float g[batch_size];
  62:eurorack/plaits/dsp/physical_modelling/resonator.h ****     float r[batch_size];
  63:eurorack/plaits/dsp/physical_modelling/resonator.h ****     float r_plus_g[batch_size];
  64:eurorack/plaits/dsp/physical_modelling/resonator.h ****     float h[batch_size];
  65:eurorack/plaits/dsp/physical_modelling/resonator.h ****     float state_1[batch_size];
  66:eurorack/plaits/dsp/physical_modelling/resonator.h ****     float state_2[batch_size];
  67:eurorack/plaits/dsp/physical_modelling/resonator.h ****     float gains[batch_size];
  68:eurorack/plaits/dsp/physical_modelling/resonator.h ****     for (int i = 0; i < batch_size; ++i) {
  69:eurorack/plaits/dsp/physical_modelling/resonator.h ****       g[i] = stmlib::OnePole::tan<stmlib::FREQUENCY_FAST>(f[i]);
  70:eurorack/plaits/dsp/physical_modelling/resonator.h ****       r[i] = 1.0f / q[i];
  71:eurorack/plaits/dsp/physical_modelling/resonator.h ****       h[i] = 1.0f / (1.0f + r[i] * g[i] + g[i] * g[i]);
  72:eurorack/plaits/dsp/physical_modelling/resonator.h ****       r_plus_g[i] = r[i] + g[i];
  73:eurorack/plaits/dsp/physical_modelling/resonator.h ****       state_1[i] = state_1_[i];
  74:eurorack/plaits/dsp/physical_modelling/resonator.h ****       state_2[i] = state_2_[i];
  75:eurorack/plaits/dsp/physical_modelling/resonator.h ****       gains[i] = gain[i];
  76:eurorack/plaits/dsp/physical_modelling/resonator.h ****     }
ARM GAS  /var/folders/9s/8rp0_f2s1n31qbztm3b5_fdh0000gn/T//ccwHxkZj.s 			page 38


  77:eurorack/plaits/dsp/physical_modelling/resonator.h ****     
  78:eurorack/plaits/dsp/physical_modelling/resonator.h ****     while (size--) {
  79:eurorack/plaits/dsp/physical_modelling/resonator.h ****       float s_in = *in++;
  80:eurorack/plaits/dsp/physical_modelling/resonator.h ****       float s_out = 0.0f;
  81:eurorack/plaits/dsp/physical_modelling/resonator.h ****       for (int i = 0; i < batch_size; ++i) {
  82:eurorack/plaits/dsp/physical_modelling/resonator.h ****         const float hp = (s_in - r_plus_g[i] * state_1[i] - state_2[i]) * h[i];
  83:eurorack/plaits/dsp/physical_modelling/resonator.h ****         const float bp = g[i] * hp + state_1[i];
  84:eurorack/plaits/dsp/physical_modelling/resonator.h ****         state_1[i] = g[i] * hp + bp;
  85:eurorack/plaits/dsp/physical_modelling/resonator.h ****         const float lp = g[i] * bp + state_2[i];
  86:eurorack/plaits/dsp/physical_modelling/resonator.h ****         state_2[i] = g[i] * bp + lp;
  87:eurorack/plaits/dsp/physical_modelling/resonator.h ****         s_out += gains[i] * ((mode == stmlib::FILTER_MODE_LOW_PASS) ? lp : bp);
  88:eurorack/plaits/dsp/physical_modelling/resonator.h ****       }
  89:eurorack/plaits/dsp/physical_modelling/resonator.h ****       if (add) {
  90:eurorack/plaits/dsp/physical_modelling/resonator.h ****         *out++ += s_out;
  91:eurorack/plaits/dsp/physical_modelling/resonator.h ****       } else {
  92:eurorack/plaits/dsp/physical_modelling/resonator.h ****         *out++ = s_out;
  93:eurorack/plaits/dsp/physical_modelling/resonator.h ****       }
  94:eurorack/plaits/dsp/physical_modelling/resonator.h ****     }
  95:eurorack/plaits/dsp/physical_modelling/resonator.h ****     for (int i = 0; i < batch_size; ++i) {
  96:eurorack/plaits/dsp/physical_modelling/resonator.h ****       state_1_[i] = state_1[i];
  97:eurorack/plaits/dsp/physical_modelling/resonator.h ****       state_2_[i] = state_2[i];
  98:eurorack/plaits/dsp/physical_modelling/resonator.h ****     }
  99:eurorack/plaits/dsp/physical_modelling/resonator.h ****   }
 100:eurorack/plaits/dsp/physical_modelling/resonator.h ****   
 101:eurorack/plaits/dsp/physical_modelling/resonator.h ****  private:
 102:eurorack/plaits/dsp/physical_modelling/resonator.h ****   float state_1_[batch_size];
 103:eurorack/plaits/dsp/physical_modelling/resonator.h ****   float state_2_[batch_size];
 104:eurorack/plaits/dsp/physical_modelling/resonator.h ****   
 105:eurorack/plaits/dsp/physical_modelling/resonator.h ****   DISALLOW_COPY_AND_ASSIGN(ResonatorSvf);
 106:eurorack/plaits/dsp/physical_modelling/resonator.h **** };
 107:eurorack/plaits/dsp/physical_modelling/resonator.h **** 
 108:eurorack/plaits/dsp/physical_modelling/resonator.h **** class Resonator {
 109:eurorack/plaits/dsp/physical_modelling/resonator.h ****  public:
 110:eurorack/plaits/dsp/physical_modelling/resonator.h ****   Resonator() { }
 555              		.loc 20 110 3 is_stmt 1 view .LVU152
 556              	.LBE1319:
 557              	.LBE1317:
 558              	.LBE1315:
 559              	.LBE1314:
 560              	.LBE1378:
 561              	.LBE1388:
 562              		.loc 20 110 15 view .LVU153
 563              	.LBB1389:
 564              	.LBB1379:
 565              	.LBB1320:
 566              	.LBI1320:
 567              		.file 21 "eurorack/plaits/dsp/engine/noise_engine.h"
   1:eurorack/plaits/dsp/engine/noise_engine.h **** // Copyright 2016 Emilie Gillet.
   2:eurorack/plaits/dsp/engine/noise_engine.h **** //
   3:eurorack/plaits/dsp/engine/noise_engine.h **** // Author: Emilie Gillet (emilie.o.gillet@gmail.com)
   4:eurorack/plaits/dsp/engine/noise_engine.h **** //
   5:eurorack/plaits/dsp/engine/noise_engine.h **** // Permission is hereby granted, free of charge, to any person obtaining a copy
   6:eurorack/plaits/dsp/engine/noise_engine.h **** // of this software and associated documentation files (the "Software"), to deal
   7:eurorack/plaits/dsp/engine/noise_engine.h **** // in the Software without restriction, including without limitation the rights
   8:eurorack/plaits/dsp/engine/noise_engine.h **** // to use, copy, modify, merge, publish, distribute, sublicense, and/or sell
   9:eurorack/plaits/dsp/engine/noise_engine.h **** // copies of the Software, and to permit persons to whom the Software is
  10:eurorack/plaits/dsp/engine/noise_engine.h **** // furnished to do so, subject to the following conditions:
ARM GAS  /var/folders/9s/8rp0_f2s1n31qbztm3b5_fdh0000gn/T//ccwHxkZj.s 			page 39


  11:eurorack/plaits/dsp/engine/noise_engine.h **** // 
  12:eurorack/plaits/dsp/engine/noise_engine.h **** // The above copyright notice and this permission notice shall be included in
  13:eurorack/plaits/dsp/engine/noise_engine.h **** // all copies or substantial portions of the Software.
  14:eurorack/plaits/dsp/engine/noise_engine.h **** // 
  15:eurorack/plaits/dsp/engine/noise_engine.h **** // THE SOFTWARE IS PROVIDED "AS IS", WITHOUT WARRANTY OF ANY KIND, EXPRESS OR
  16:eurorack/plaits/dsp/engine/noise_engine.h **** // IMPLIED, INCLUDING BUT NOT LIMITED TO THE WARRANTIES OF MERCHANTABILITY,
  17:eurorack/plaits/dsp/engine/noise_engine.h **** // FITNESS FOR A PARTICULAR PURPOSE AND NONINFRINGEMENT. IN NO EVENT SHALL THE
  18:eurorack/plaits/dsp/engine/noise_engine.h **** // AUTHORS OR COPYRIGHT HOLDERS BE LIABLE FOR ANY CLAIM, DAMAGES OR OTHER
  19:eurorack/plaits/dsp/engine/noise_engine.h **** // LIABILITY, WHETHER IN AN ACTION OF CONTRACT, TORT OR OTHERWISE, ARISING FROM,
  20:eurorack/plaits/dsp/engine/noise_engine.h **** // OUT OF OR IN CONNECTION WITH THE SOFTWARE OR THE USE OR OTHER DEALINGS IN
  21:eurorack/plaits/dsp/engine/noise_engine.h **** // THE SOFTWARE.
  22:eurorack/plaits/dsp/engine/noise_engine.h **** // 
  23:eurorack/plaits/dsp/engine/noise_engine.h **** // See http://creativecommons.org/licenses/MIT/ for more information.
  24:eurorack/plaits/dsp/engine/noise_engine.h **** //
  25:eurorack/plaits/dsp/engine/noise_engine.h **** // -----------------------------------------------------------------------------
  26:eurorack/plaits/dsp/engine/noise_engine.h **** //
  27:eurorack/plaits/dsp/engine/noise_engine.h **** // Clocked noise processed by a multimode filter.
  28:eurorack/plaits/dsp/engine/noise_engine.h **** 
  29:eurorack/plaits/dsp/engine/noise_engine.h **** #ifndef PLAITS_DSP_ENGINE_NOISE_ENGINE_H_
  30:eurorack/plaits/dsp/engine/noise_engine.h **** #define PLAITS_DSP_ENGINE_NOISE_ENGINE_H_
  31:eurorack/plaits/dsp/engine/noise_engine.h **** 
  32:eurorack/plaits/dsp/engine/noise_engine.h **** #include "stmlib/dsp/filter.h"
  33:eurorack/plaits/dsp/engine/noise_engine.h **** 
  34:eurorack/plaits/dsp/engine/noise_engine.h **** #include "plaits/dsp/engine/engine.h"
  35:eurorack/plaits/dsp/engine/noise_engine.h **** #include "plaits/dsp/noise/clocked_noise.h"
  36:eurorack/plaits/dsp/engine/noise_engine.h **** 
  37:eurorack/plaits/dsp/engine/noise_engine.h **** namespace plaits {
  38:eurorack/plaits/dsp/engine/noise_engine.h **** 
  39:eurorack/plaits/dsp/engine/noise_engine.h **** class NoiseEngine : public Engine {
  40:eurorack/plaits/dsp/engine/noise_engine.h ****  public:
  41:eurorack/plaits/dsp/engine/noise_engine.h ****   NoiseEngine() { }
 568              		.loc 21 41 3 view .LVU154
 569              	.LBB1321:
 570              	.LBB1322:
 571              	.LBI1322:
 572              		.loc 6 80 3 view .LVU155
 573              		.loc 6 80 3 is_stmt 0 view .LVU156
 574              	.LBE1322:
 575              		.loc 21 41 17 view .LVU157
 576 002c 3149     		ldr	r1, .L24+24
 577 002e C3F84815 		str	r1, [r3, #1352]
 578              		.loc 21 41 17 is_stmt 1 view .LVU158
 579              	.LVL25:
 580              	.LBB1323:
 581              	.LBI1323:
 582              		.loc 9 179 3 view .LVU159
 583              		.loc 9 179 3 is_stmt 0 view .LVU160
 584              	.LBE1323:
 585              		.loc 21 41 17 is_stmt 1 view .LVU161
 586              		.loc 21 41 17 is_stmt 0 view .LVU162
 587              	.LBE1321:
 588              	.LBE1320:
 589              	.LBB1324:
 590              	.LBI1324:
 591              		.file 22 "eurorack/plaits/dsp/engine/particle_engine.h"
   1:eurorack/plaits/dsp/engine/particle_engine.h **** // Copyright 2016 Emilie Gillet.
   2:eurorack/plaits/dsp/engine/particle_engine.h **** //
ARM GAS  /var/folders/9s/8rp0_f2s1n31qbztm3b5_fdh0000gn/T//ccwHxkZj.s 			page 40


   3:eurorack/plaits/dsp/engine/particle_engine.h **** // Author: Emilie Gillet (emilie.o.gillet@gmail.com)
   4:eurorack/plaits/dsp/engine/particle_engine.h **** //
   5:eurorack/plaits/dsp/engine/particle_engine.h **** // Permission is hereby granted, free of charge, to any person obtaining a copy
   6:eurorack/plaits/dsp/engine/particle_engine.h **** // of this software and associated documentation files (the "Software"), to deal
   7:eurorack/plaits/dsp/engine/particle_engine.h **** // in the Software without restriction, including without limitation the rights
   8:eurorack/plaits/dsp/engine/particle_engine.h **** // to use, copy, modify, merge, publish, distribute, sublicense, and/or sell
   9:eurorack/plaits/dsp/engine/particle_engine.h **** // copies of the Software, and to permit persons to whom the Software is
  10:eurorack/plaits/dsp/engine/particle_engine.h **** // furnished to do so, subject to the following conditions:
  11:eurorack/plaits/dsp/engine/particle_engine.h **** // 
  12:eurorack/plaits/dsp/engine/particle_engine.h **** // The above copyright notice and this permission notice shall be included in
  13:eurorack/plaits/dsp/engine/particle_engine.h **** // all copies or substantial portions of the Software.
  14:eurorack/plaits/dsp/engine/particle_engine.h **** // 
  15:eurorack/plaits/dsp/engine/particle_engine.h **** // THE SOFTWARE IS PROVIDED "AS IS", WITHOUT WARRANTY OF ANY KIND, EXPRESS OR
  16:eurorack/plaits/dsp/engine/particle_engine.h **** // IMPLIED, INCLUDING BUT NOT LIMITED TO THE WARRANTIES OF MERCHANTABILITY,
  17:eurorack/plaits/dsp/engine/particle_engine.h **** // FITNESS FOR A PARTICULAR PURPOSE AND NONINFRINGEMENT. IN NO EVENT SHALL THE
  18:eurorack/plaits/dsp/engine/particle_engine.h **** // AUTHORS OR COPYRIGHT HOLDERS BE LIABLE FOR ANY CLAIM, DAMAGES OR OTHER
  19:eurorack/plaits/dsp/engine/particle_engine.h **** // LIABILITY, WHETHER IN AN ACTION OF CONTRACT, TORT OR OTHERWISE, ARISING FROM,
  20:eurorack/plaits/dsp/engine/particle_engine.h **** // OUT OF OR IN CONNECTION WITH THE SOFTWARE OR THE USE OR OTHER DEALINGS IN
  21:eurorack/plaits/dsp/engine/particle_engine.h **** // THE SOFTWARE.
  22:eurorack/plaits/dsp/engine/particle_engine.h **** // 
  23:eurorack/plaits/dsp/engine/particle_engine.h **** // See http://creativecommons.org/licenses/MIT/ for more information.
  24:eurorack/plaits/dsp/engine/particle_engine.h **** //
  25:eurorack/plaits/dsp/engine/particle_engine.h **** // -----------------------------------------------------------------------------
  26:eurorack/plaits/dsp/engine/particle_engine.h **** //
  27:eurorack/plaits/dsp/engine/particle_engine.h **** // Filtered random pulses.
  28:eurorack/plaits/dsp/engine/particle_engine.h **** 
  29:eurorack/plaits/dsp/engine/particle_engine.h **** #ifndef PLAITS_DSP_ENGINE_PARTICLE_ENGINE_H_
  30:eurorack/plaits/dsp/engine/particle_engine.h **** #define PLAITS_DSP_ENGINE_PARTICLE_ENGINE_H_
  31:eurorack/plaits/dsp/engine/particle_engine.h **** 
  32:eurorack/plaits/dsp/engine/particle_engine.h **** #include "plaits/dsp/engine/engine.h"
  33:eurorack/plaits/dsp/engine/particle_engine.h **** #include "plaits/dsp/fx/diffuser.h"
  34:eurorack/plaits/dsp/engine/particle_engine.h **** #include "plaits/dsp/noise/particle.h"
  35:eurorack/plaits/dsp/engine/particle_engine.h **** 
  36:eurorack/plaits/dsp/engine/particle_engine.h **** namespace plaits {
  37:eurorack/plaits/dsp/engine/particle_engine.h **** 
  38:eurorack/plaits/dsp/engine/particle_engine.h **** const int kNumParticles = 6;
  39:eurorack/plaits/dsp/engine/particle_engine.h **** 
  40:eurorack/plaits/dsp/engine/particle_engine.h **** class ParticleEngine : public Engine {
  41:eurorack/plaits/dsp/engine/particle_engine.h ****  public:
  42:eurorack/plaits/dsp/engine/particle_engine.h ****   ParticleEngine() { }
 592              		.loc 22 42 3 is_stmt 1 view .LVU163
 593              	.LBB1325:
 594              	.LBB1326:
 595              	.LBI1326:
 596              		.loc 6 80 3 view .LVU164
 597              		.loc 6 80 3 is_stmt 0 view .LVU165
 598              	.LBE1326:
 599              		.loc 22 42 20 view .LVU166
 600 0032 3149     		ldr	r1, .L24+28
 601 0034 C3F8C815 		str	r1, [r3, #1480]
 602              		.loc 22 42 20 is_stmt 1 view .LVU167
 603              	.LVL26:
 604              	.LBB1327:
 605              	.LBI1327:
 606              		.file 23 "eurorack/plaits/dsp/fx/diffuser.h"
   1:eurorack/plaits/dsp/fx/diffuser.h **** // Copyright 2016 Emilie Gillet.
   2:eurorack/plaits/dsp/fx/diffuser.h **** //
ARM GAS  /var/folders/9s/8rp0_f2s1n31qbztm3b5_fdh0000gn/T//ccwHxkZj.s 			page 41


   3:eurorack/plaits/dsp/fx/diffuser.h **** // Author: Emilie Gillet (emilie.o.gillet@gmail.com)
   4:eurorack/plaits/dsp/fx/diffuser.h **** //
   5:eurorack/plaits/dsp/fx/diffuser.h **** // Permission is hereby granted, free of charge, to any person obtaining a copy
   6:eurorack/plaits/dsp/fx/diffuser.h **** // of this software and associated documentation files (the "Software"), to deal
   7:eurorack/plaits/dsp/fx/diffuser.h **** // in the Software without restriction, including without limitation the rights
   8:eurorack/plaits/dsp/fx/diffuser.h **** // to use, copy, modify, merge, publish, distribute, sublicense, and/or sell
   9:eurorack/plaits/dsp/fx/diffuser.h **** // copies of the Software, and to permit persons to whom the Software is
  10:eurorack/plaits/dsp/fx/diffuser.h **** // furnished to do so, subject to the following conditions:
  11:eurorack/plaits/dsp/fx/diffuser.h **** // 
  12:eurorack/plaits/dsp/fx/diffuser.h **** // The above copyright notice and this permission notice shall be included in
  13:eurorack/plaits/dsp/fx/diffuser.h **** // all copies or substantial portions of the Software.
  14:eurorack/plaits/dsp/fx/diffuser.h **** // 
  15:eurorack/plaits/dsp/fx/diffuser.h **** // THE SOFTWARE IS PROVIDED "AS IS", WITHOUT WARRANTY OF ANY KIND, EXPRESS OR
  16:eurorack/plaits/dsp/fx/diffuser.h **** // IMPLIED, INCLUDING BUT NOT LIMITED TO THE WARRANTIES OF MERCHANTABILITY,
  17:eurorack/plaits/dsp/fx/diffuser.h **** // FITNESS FOR A PARTICULAR PURPOSE AND NONINFRINGEMENT. IN NO EVENT SHALL THE
  18:eurorack/plaits/dsp/fx/diffuser.h **** // AUTHORS OR COPYRIGHT HOLDERS BE LIABLE FOR ANY CLAIM, DAMAGES OR OTHER
  19:eurorack/plaits/dsp/fx/diffuser.h **** // LIABILITY, WHETHER IN AN ACTION OF CONTRACT, TORT OR OTHERWISE, ARISING FROM,
  20:eurorack/plaits/dsp/fx/diffuser.h **** // OUT OF OR IN CONNECTION WITH THE SOFTWARE OR THE USE OR OTHER DEALINGS IN
  21:eurorack/plaits/dsp/fx/diffuser.h **** // THE SOFTWARE.
  22:eurorack/plaits/dsp/fx/diffuser.h **** // 
  23:eurorack/plaits/dsp/fx/diffuser.h **** // See http://creativecommons.org/licenses/MIT/ for more information.
  24:eurorack/plaits/dsp/fx/diffuser.h **** //
  25:eurorack/plaits/dsp/fx/diffuser.h **** // -----------------------------------------------------------------------------
  26:eurorack/plaits/dsp/fx/diffuser.h **** //
  27:eurorack/plaits/dsp/fx/diffuser.h **** // Granular diffuser.
  28:eurorack/plaits/dsp/fx/diffuser.h **** 
  29:eurorack/plaits/dsp/fx/diffuser.h **** #ifndef PLAITS_DSP_FX_DIFFUSER_H_
  30:eurorack/plaits/dsp/fx/diffuser.h **** #define PLAITS_DSP_FX_DIFFUSER_H_
  31:eurorack/plaits/dsp/fx/diffuser.h **** 
  32:eurorack/plaits/dsp/fx/diffuser.h **** #include "stmlib/stmlib.h"
  33:eurorack/plaits/dsp/fx/diffuser.h **** 
  34:eurorack/plaits/dsp/fx/diffuser.h **** #include "plaits/dsp/fx/fx_engine.h"
  35:eurorack/plaits/dsp/fx/diffuser.h **** 
  36:eurorack/plaits/dsp/fx/diffuser.h **** namespace plaits {
  37:eurorack/plaits/dsp/fx/diffuser.h **** 
  38:eurorack/plaits/dsp/fx/diffuser.h **** class Diffuser {
  39:eurorack/plaits/dsp/fx/diffuser.h ****  public:
  40:eurorack/plaits/dsp/fx/diffuser.h ****   Diffuser() { }
 607              		.loc 23 40 3 view .LVU168
 608              	.LBB1328:
 609              	.LBI1328:
 610              		.file 24 "eurorack/plaits/dsp/fx/fx_engine.h"
   1:eurorack/plaits/dsp/fx/fx_engine.h **** // Copyright 2014 Emilie Gillet.
   2:eurorack/plaits/dsp/fx/fx_engine.h **** //
   3:eurorack/plaits/dsp/fx/fx_engine.h **** // Author: Emilie Gillet (emilie.o.gillet@gmail.com)
   4:eurorack/plaits/dsp/fx/fx_engine.h **** //
   5:eurorack/plaits/dsp/fx/fx_engine.h **** // Permission is hereby granted, free of charge, to any person obtaining a copy
   6:eurorack/plaits/dsp/fx/fx_engine.h **** // of this software and associated documentation files (the "Software"), to deal
   7:eurorack/plaits/dsp/fx/fx_engine.h **** // in the Software without restriction, including without limitation the rights
   8:eurorack/plaits/dsp/fx/fx_engine.h **** // to use, copy, modify, merge, publish, distribute, sublicense, and/or sell
   9:eurorack/plaits/dsp/fx/fx_engine.h **** // copies of the Software, and to permit persons to whom the Software is
  10:eurorack/plaits/dsp/fx/fx_engine.h **** // furnished to do so, subject to the following conditions:
  11:eurorack/plaits/dsp/fx/fx_engine.h **** // 
  12:eurorack/plaits/dsp/fx/fx_engine.h **** // The above copyright notice and this permission notice shall be included in
  13:eurorack/plaits/dsp/fx/fx_engine.h **** // all copies or substantial portions of the Software.
  14:eurorack/plaits/dsp/fx/fx_engine.h **** // 
  15:eurorack/plaits/dsp/fx/fx_engine.h **** // THE SOFTWARE IS PROVIDED "AS IS", WITHOUT WARRANTY OF ANY KIND, EXPRESS OR
ARM GAS  /var/folders/9s/8rp0_f2s1n31qbztm3b5_fdh0000gn/T//ccwHxkZj.s 			page 42


  16:eurorack/plaits/dsp/fx/fx_engine.h **** // IMPLIED, INCLUDING BUT NOT LIMITED TO THE WARRANTIES OF MERCHANTABILITY,
  17:eurorack/plaits/dsp/fx/fx_engine.h **** // FITNESS FOR A PARTICULAR PURPOSE AND NONINFRINGEMENT. IN NO EVENT SHALL THE
  18:eurorack/plaits/dsp/fx/fx_engine.h **** // AUTHORS OR COPYRIGHT HOLDERS BE LIABLE FOR ANY CLAIM, DAMAGES OR OTHER
  19:eurorack/plaits/dsp/fx/fx_engine.h **** // LIABILITY, WHETHER IN AN ACTION OF CONTRACT, TORT OR OTHERWISE, ARISING FROM,
  20:eurorack/plaits/dsp/fx/fx_engine.h **** // OUT OF OR IN CONNECTION WITH THE SOFTWARE OR THE USE OR OTHER DEALINGS IN
  21:eurorack/plaits/dsp/fx/fx_engine.h **** // THE SOFTWARE.
  22:eurorack/plaits/dsp/fx/fx_engine.h **** // 
  23:eurorack/plaits/dsp/fx/fx_engine.h **** // See http://creativecommons.org/licenses/MIT/ for more information.
  24:eurorack/plaits/dsp/fx/fx_engine.h **** //
  25:eurorack/plaits/dsp/fx/fx_engine.h **** // -----------------------------------------------------------------------------
  26:eurorack/plaits/dsp/fx/fx_engine.h **** //
  27:eurorack/plaits/dsp/fx/fx_engine.h **** // Base class for building reverbs.
  28:eurorack/plaits/dsp/fx/fx_engine.h **** 
  29:eurorack/plaits/dsp/fx/fx_engine.h **** #ifndef PLAITS_DSP_FX_FX_ENGINE_H_
  30:eurorack/plaits/dsp/fx/fx_engine.h **** #define PLAITS_DSP_FX_FX_ENGINE_H_
  31:eurorack/plaits/dsp/fx/fx_engine.h **** 
  32:eurorack/plaits/dsp/fx/fx_engine.h **** #include <algorithm>
  33:eurorack/plaits/dsp/fx/fx_engine.h **** 
  34:eurorack/plaits/dsp/fx/fx_engine.h **** #include "stmlib/stmlib.h"
  35:eurorack/plaits/dsp/fx/fx_engine.h **** 
  36:eurorack/plaits/dsp/fx/fx_engine.h **** #include "stmlib/dsp/dsp.h"
  37:eurorack/plaits/dsp/fx/fx_engine.h **** #include "stmlib/dsp/cosine_oscillator.h"
  38:eurorack/plaits/dsp/fx/fx_engine.h **** 
  39:eurorack/plaits/dsp/fx/fx_engine.h **** namespace plaits {
  40:eurorack/plaits/dsp/fx/fx_engine.h **** 
  41:eurorack/plaits/dsp/fx/fx_engine.h **** #define TAIL , -1
  42:eurorack/plaits/dsp/fx/fx_engine.h **** 
  43:eurorack/plaits/dsp/fx/fx_engine.h **** enum Format {
  44:eurorack/plaits/dsp/fx/fx_engine.h ****   FORMAT_12_BIT,
  45:eurorack/plaits/dsp/fx/fx_engine.h ****   FORMAT_16_BIT,
  46:eurorack/plaits/dsp/fx/fx_engine.h ****   FORMAT_32_BIT
  47:eurorack/plaits/dsp/fx/fx_engine.h **** };
  48:eurorack/plaits/dsp/fx/fx_engine.h **** 
  49:eurorack/plaits/dsp/fx/fx_engine.h **** enum LFOIndex {
  50:eurorack/plaits/dsp/fx/fx_engine.h ****   LFO_1,
  51:eurorack/plaits/dsp/fx/fx_engine.h ****   LFO_2
  52:eurorack/plaits/dsp/fx/fx_engine.h **** };
  53:eurorack/plaits/dsp/fx/fx_engine.h **** 
  54:eurorack/plaits/dsp/fx/fx_engine.h **** template<Format format>
  55:eurorack/plaits/dsp/fx/fx_engine.h **** struct DataType { };
  56:eurorack/plaits/dsp/fx/fx_engine.h **** 
  57:eurorack/plaits/dsp/fx/fx_engine.h **** template<>
  58:eurorack/plaits/dsp/fx/fx_engine.h **** struct DataType<FORMAT_12_BIT> {
  59:eurorack/plaits/dsp/fx/fx_engine.h ****   typedef uint16_t T;
  60:eurorack/plaits/dsp/fx/fx_engine.h ****   
  61:eurorack/plaits/dsp/fx/fx_engine.h ****   static inline float Decompress(T value) {
  62:eurorack/plaits/dsp/fx/fx_engine.h ****     return static_cast<float>(static_cast<int16_t>(value)) / 4096.0f;
  63:eurorack/plaits/dsp/fx/fx_engine.h ****   }
  64:eurorack/plaits/dsp/fx/fx_engine.h ****   
  65:eurorack/plaits/dsp/fx/fx_engine.h ****   static inline T Compress(float value) {
  66:eurorack/plaits/dsp/fx/fx_engine.h ****     return static_cast<uint16_t>(
  67:eurorack/plaits/dsp/fx/fx_engine.h ****         stmlib::Clip16(static_cast<int32_t>(value * 4096.0f)));
  68:eurorack/plaits/dsp/fx/fx_engine.h ****   }
  69:eurorack/plaits/dsp/fx/fx_engine.h **** };
  70:eurorack/plaits/dsp/fx/fx_engine.h **** 
  71:eurorack/plaits/dsp/fx/fx_engine.h **** template<>
  72:eurorack/plaits/dsp/fx/fx_engine.h **** struct DataType<FORMAT_16_BIT> {
ARM GAS  /var/folders/9s/8rp0_f2s1n31qbztm3b5_fdh0000gn/T//ccwHxkZj.s 			page 43


  73:eurorack/plaits/dsp/fx/fx_engine.h ****   typedef uint16_t T;
  74:eurorack/plaits/dsp/fx/fx_engine.h ****   
  75:eurorack/plaits/dsp/fx/fx_engine.h ****   static inline float Decompress(T value) {
  76:eurorack/plaits/dsp/fx/fx_engine.h ****     return static_cast<float>(static_cast<int16_t>(value)) / 32768.0f;
  77:eurorack/plaits/dsp/fx/fx_engine.h ****   }
  78:eurorack/plaits/dsp/fx/fx_engine.h ****   
  79:eurorack/plaits/dsp/fx/fx_engine.h ****   static inline T Compress(float value) {
  80:eurorack/plaits/dsp/fx/fx_engine.h ****     return static_cast<uint16_t>(
  81:eurorack/plaits/dsp/fx/fx_engine.h ****         stmlib::Clip16(static_cast<int32_t>(value * 32768.0f)));
  82:eurorack/plaits/dsp/fx/fx_engine.h ****   }
  83:eurorack/plaits/dsp/fx/fx_engine.h **** };
  84:eurorack/plaits/dsp/fx/fx_engine.h **** 
  85:eurorack/plaits/dsp/fx/fx_engine.h **** template<>
  86:eurorack/plaits/dsp/fx/fx_engine.h **** struct DataType<FORMAT_32_BIT> {
  87:eurorack/plaits/dsp/fx/fx_engine.h ****   typedef float T;
  88:eurorack/plaits/dsp/fx/fx_engine.h ****   
  89:eurorack/plaits/dsp/fx/fx_engine.h ****   static inline float Decompress(T value) {
  90:eurorack/plaits/dsp/fx/fx_engine.h ****     return value;;
  91:eurorack/plaits/dsp/fx/fx_engine.h ****   }
  92:eurorack/plaits/dsp/fx/fx_engine.h ****   
  93:eurorack/plaits/dsp/fx/fx_engine.h ****   static inline T Compress(float value) {
  94:eurorack/plaits/dsp/fx/fx_engine.h ****     return value;
  95:eurorack/plaits/dsp/fx/fx_engine.h ****   }
  96:eurorack/plaits/dsp/fx/fx_engine.h **** };
  97:eurorack/plaits/dsp/fx/fx_engine.h **** 
  98:eurorack/plaits/dsp/fx/fx_engine.h **** template<
  99:eurorack/plaits/dsp/fx/fx_engine.h ****     size_t size,
 100:eurorack/plaits/dsp/fx/fx_engine.h ****     Format format = FORMAT_12_BIT>
 101:eurorack/plaits/dsp/fx/fx_engine.h **** class FxEngine {
 102:eurorack/plaits/dsp/fx/fx_engine.h ****  public:
 103:eurorack/plaits/dsp/fx/fx_engine.h ****   typedef typename DataType<format>::T T;
 104:eurorack/plaits/dsp/fx/fx_engine.h ****   FxEngine() { }
 611              		.loc 24 104 3 view .LVU169
 612              	.LBE1328:
 613              	.LBE1327:
 614              	.LBE1325:
 615              	.LBE1324:
 616              	.LBE1379:
 617              	.LBE1389:
 618              		.loc 24 104 14 view .LVU170
 619              	.LBB1390:
 620              	.LBB1380:
 621              	.LBB1331:
 622              	.LBB1330:
 623              	.LBB1329:
 624              	.LBI1329:
 625              		.loc 9 179 3 view .LVU171
 626              		.loc 9 179 3 is_stmt 0 view .LVU172
 627              	.LBE1329:
 628              	.LBE1330:
 629              	.LBE1331:
 630              	.LBB1332:
 631              	.LBI1332:
 632              		.file 25 "eurorack/plaits/dsp/engine/snare_drum_engine.h"
   1:eurorack/plaits/dsp/engine/snare_drum_engine.h **** // Copyright 2016 Emilie Gillet.
   2:eurorack/plaits/dsp/engine/snare_drum_engine.h **** //
   3:eurorack/plaits/dsp/engine/snare_drum_engine.h **** // Author: Emilie Gillet (emilie.o.gillet@gmail.com)
ARM GAS  /var/folders/9s/8rp0_f2s1n31qbztm3b5_fdh0000gn/T//ccwHxkZj.s 			page 44


   4:eurorack/plaits/dsp/engine/snare_drum_engine.h **** //
   5:eurorack/plaits/dsp/engine/snare_drum_engine.h **** // Permission is hereby granted, free of charge, to any person obtaining a copy
   6:eurorack/plaits/dsp/engine/snare_drum_engine.h **** // of this software and associated documentation files (the "Software"), to deal
   7:eurorack/plaits/dsp/engine/snare_drum_engine.h **** // in the Software without restriction, including without limitation the rights
   8:eurorack/plaits/dsp/engine/snare_drum_engine.h **** // to use, copy, modify, merge, publish, distribute, sublicense, and/or sell
   9:eurorack/plaits/dsp/engine/snare_drum_engine.h **** // copies of the Software, and to permit persons to whom the Software is
  10:eurorack/plaits/dsp/engine/snare_drum_engine.h **** // furnished to do so, subject to the following conditions:
  11:eurorack/plaits/dsp/engine/snare_drum_engine.h **** // 
  12:eurorack/plaits/dsp/engine/snare_drum_engine.h **** // The above copyright notice and this permission notice shall be included in
  13:eurorack/plaits/dsp/engine/snare_drum_engine.h **** // all copies or substantial portions of the Software.
  14:eurorack/plaits/dsp/engine/snare_drum_engine.h **** // 
  15:eurorack/plaits/dsp/engine/snare_drum_engine.h **** // THE SOFTWARE IS PROVIDED "AS IS", WITHOUT WARRANTY OF ANY KIND, EXPRESS OR
  16:eurorack/plaits/dsp/engine/snare_drum_engine.h **** // IMPLIED, INCLUDING BUT NOT LIMITED TO THE WARRANTIES OF MERCHANTABILITY,
  17:eurorack/plaits/dsp/engine/snare_drum_engine.h **** // FITNESS FOR A PARTICULAR PURPOSE AND NONINFRINGEMENT. IN NO EVENT SHALL THE
  18:eurorack/plaits/dsp/engine/snare_drum_engine.h **** // AUTHORS OR COPYRIGHT HOLDERS BE LIABLE FOR ANY CLAIM, DAMAGES OR OTHER
  19:eurorack/plaits/dsp/engine/snare_drum_engine.h **** // LIABILITY, WHETHER IN AN ACTION OF CONTRACT, TORT OR OTHERWISE, ARISING FROM,
  20:eurorack/plaits/dsp/engine/snare_drum_engine.h **** // OUT OF OR IN CONNECTION WITH THE SOFTWARE OR THE USE OR OTHER DEALINGS IN
  21:eurorack/plaits/dsp/engine/snare_drum_engine.h **** // THE SOFTWARE.
  22:eurorack/plaits/dsp/engine/snare_drum_engine.h **** // 
  23:eurorack/plaits/dsp/engine/snare_drum_engine.h **** // See http://creativecommons.org/licenses/MIT/ for more information.
  24:eurorack/plaits/dsp/engine/snare_drum_engine.h **** //
  25:eurorack/plaits/dsp/engine/snare_drum_engine.h **** // -----------------------------------------------------------------------------
  26:eurorack/plaits/dsp/engine/snare_drum_engine.h **** //
  27:eurorack/plaits/dsp/engine/snare_drum_engine.h **** // 808 and synthetic snare drum generators.
  28:eurorack/plaits/dsp/engine/snare_drum_engine.h **** 
  29:eurorack/plaits/dsp/engine/snare_drum_engine.h **** #ifndef PLAITS_DSP_ENGINE_SNARE_DRUM_ENGINE_H_
  30:eurorack/plaits/dsp/engine/snare_drum_engine.h **** #define PLAITS_DSP_ENGINE_SNARE_DRUM_ENGINE_H_
  31:eurorack/plaits/dsp/engine/snare_drum_engine.h **** 
  32:eurorack/plaits/dsp/engine/snare_drum_engine.h **** #include "plaits/dsp/drums/analog_snare_drum.h"
  33:eurorack/plaits/dsp/engine/snare_drum_engine.h **** #include "plaits/dsp/drums/synthetic_snare_drum.h"
  34:eurorack/plaits/dsp/engine/snare_drum_engine.h **** #include "plaits/dsp/engine/engine.h"
  35:eurorack/plaits/dsp/engine/snare_drum_engine.h **** 
  36:eurorack/plaits/dsp/engine/snare_drum_engine.h **** namespace plaits {
  37:eurorack/plaits/dsp/engine/snare_drum_engine.h ****   
  38:eurorack/plaits/dsp/engine/snare_drum_engine.h **** class SnareDrumEngine : public Engine {
  39:eurorack/plaits/dsp/engine/snare_drum_engine.h ****  public:
  40:eurorack/plaits/dsp/engine/snare_drum_engine.h ****   SnareDrumEngine() { }
 633              		.loc 25 40 3 is_stmt 1 view .LVU173
 634              	.LBB1333:
 635              	.LBB1334:
 636              	.LBI1334:
 637              		.loc 6 80 3 view .LVU174
 638              		.loc 6 80 3 is_stmt 0 view .LVU175
 639              	.LBE1334:
 640              		.loc 25 40 21 view .LVU176
 641 0038 3049     		ldr	r1, .L24+32
 642 003a C3F8A816 		str	r1, [r3, #1704]
 643              	.LVL27:
 644              	.LBB1335:
 645              	.LBI1335:
 646              		.file 26 "eurorack/plaits/dsp/drums/analog_snare_drum.h"
   1:eurorack/plaits/dsp/drums/analog_snare_drum.h **** // Copyright 2016 Emilie Gillet.
   2:eurorack/plaits/dsp/drums/analog_snare_drum.h **** //
   3:eurorack/plaits/dsp/drums/analog_snare_drum.h **** // Author: Emilie Gillet (emilie.o.gillet@gmail.com)
   4:eurorack/plaits/dsp/drums/analog_snare_drum.h **** //
   5:eurorack/plaits/dsp/drums/analog_snare_drum.h **** // Permission is hereby granted, free of charge, to any person obtaining a copy
   6:eurorack/plaits/dsp/drums/analog_snare_drum.h **** // of this software and associated documentation files (the "Software"), to deal
ARM GAS  /var/folders/9s/8rp0_f2s1n31qbztm3b5_fdh0000gn/T//ccwHxkZj.s 			page 45


   7:eurorack/plaits/dsp/drums/analog_snare_drum.h **** // in the Software without restriction, including without limitation the rights
   8:eurorack/plaits/dsp/drums/analog_snare_drum.h **** // to use, copy, modify, merge, publish, distribute, sublicense, and/or sell
   9:eurorack/plaits/dsp/drums/analog_snare_drum.h **** // copies of the Software, and to permit persons to whom the Software is
  10:eurorack/plaits/dsp/drums/analog_snare_drum.h **** // furnished to do so, subject to the following conditions:
  11:eurorack/plaits/dsp/drums/analog_snare_drum.h **** // 
  12:eurorack/plaits/dsp/drums/analog_snare_drum.h **** // The above copyright notice and this permission notice shall be included in
  13:eurorack/plaits/dsp/drums/analog_snare_drum.h **** // all copies or substantial portions of the Software.
  14:eurorack/plaits/dsp/drums/analog_snare_drum.h **** // 
  15:eurorack/plaits/dsp/drums/analog_snare_drum.h **** // THE SOFTWARE IS PROVIDED "AS IS", WITHOUT WARRANTY OF ANY KIND, EXPRESS OR
  16:eurorack/plaits/dsp/drums/analog_snare_drum.h **** // IMPLIED, INCLUDING BUT NOT LIMITED TO THE WARRANTIES OF MERCHANTABILITY,
  17:eurorack/plaits/dsp/drums/analog_snare_drum.h **** // FITNESS FOR A PARTICULAR PURPOSE AND NONINFRINGEMENT. IN NO EVENT SHALL THE
  18:eurorack/plaits/dsp/drums/analog_snare_drum.h **** // AUTHORS OR COPYRIGHT HOLDERS BE LIABLE FOR ANY CLAIM, DAMAGES OR OTHER
  19:eurorack/plaits/dsp/drums/analog_snare_drum.h **** // LIABILITY, WHETHER IN AN ACTION OF CONTRACT, TORT OR OTHERWISE, ARISING FROM,
  20:eurorack/plaits/dsp/drums/analog_snare_drum.h **** // OUT OF OR IN CONNECTION WITH THE SOFTWARE OR THE USE OR OTHER DEALINGS IN
  21:eurorack/plaits/dsp/drums/analog_snare_drum.h **** // THE SOFTWARE.
  22:eurorack/plaits/dsp/drums/analog_snare_drum.h **** // 
  23:eurorack/plaits/dsp/drums/analog_snare_drum.h **** // See http://creativecommons.org/licenses/MIT/ for more information.
  24:eurorack/plaits/dsp/drums/analog_snare_drum.h **** //
  25:eurorack/plaits/dsp/drums/analog_snare_drum.h **** // -----------------------------------------------------------------------------
  26:eurorack/plaits/dsp/drums/analog_snare_drum.h **** //
  27:eurorack/plaits/dsp/drums/analog_snare_drum.h **** // 808 snare drum model, revisited.
  28:eurorack/plaits/dsp/drums/analog_snare_drum.h **** 
  29:eurorack/plaits/dsp/drums/analog_snare_drum.h **** #ifndef PLAITS_DSP_DRUMS_ANALOG_SNARE_DRUM_H_
  30:eurorack/plaits/dsp/drums/analog_snare_drum.h **** #define PLAITS_DSP_DRUMS_ANALOG_SNARE_DRUM_H_
  31:eurorack/plaits/dsp/drums/analog_snare_drum.h **** 
  32:eurorack/plaits/dsp/drums/analog_snare_drum.h **** #include <algorithm>
  33:eurorack/plaits/dsp/drums/analog_snare_drum.h **** 
  34:eurorack/plaits/dsp/drums/analog_snare_drum.h **** #include "stmlib/dsp/dsp.h"
  35:eurorack/plaits/dsp/drums/analog_snare_drum.h **** #include "stmlib/dsp/filter.h"
  36:eurorack/plaits/dsp/drums/analog_snare_drum.h **** #include "stmlib/dsp/parameter_interpolator.h"
  37:eurorack/plaits/dsp/drums/analog_snare_drum.h **** #include "stmlib/dsp/units.h"
  38:eurorack/plaits/dsp/drums/analog_snare_drum.h **** #include "stmlib/utils/random.h"
  39:eurorack/plaits/dsp/drums/analog_snare_drum.h **** 
  40:eurorack/plaits/dsp/drums/analog_snare_drum.h **** #include "plaits/dsp/dsp.h"
  41:eurorack/plaits/dsp/drums/analog_snare_drum.h **** #include "plaits/dsp/oscillator/sine_oscillator.h"
  42:eurorack/plaits/dsp/drums/analog_snare_drum.h **** 
  43:eurorack/plaits/dsp/drums/analog_snare_drum.h **** namespace plaits {
  44:eurorack/plaits/dsp/drums/analog_snare_drum.h **** 
  45:eurorack/plaits/dsp/drums/analog_snare_drum.h **** class AnalogSnareDrum {
  46:eurorack/plaits/dsp/drums/analog_snare_drum.h ****  public:
  47:eurorack/plaits/dsp/drums/analog_snare_drum.h ****   AnalogSnareDrum() { }
 647              		.loc 26 47 3 is_stmt 1 view .LVU177
 648              	.LBE1335:
 649              	.LBE1333:
 650              	.LBE1332:
 651              	.LBE1380:
 652              	.LBE1390:
 653              		.loc 26 47 21 view .LVU178
 654              	.LBB1391:
 655              	.LBB1381:
 656              	.LBB1344:
 657              	.LBB1342:
 658              	.LBB1337:
 659              	.LBB1336:
 660              	.LBI1336:
 661              		.loc 9 179 3 view .LVU179
 662              		.loc 9 179 3 is_stmt 0 view .LVU180
ARM GAS  /var/folders/9s/8rp0_f2s1n31qbztm3b5_fdh0000gn/T//ccwHxkZj.s 			page 46


 663              	.LBE1336:
 664              	.LBE1337:
 665              	.LBE1342:
 666              	.LBE1344:
 667              	.LBE1381:
 668              	.LBE1391:
 669              		.loc 26 47 21 is_stmt 1 view .LVU181
 670              	.LBB1392:
 671              	.LBB1382:
 672              	.LBB1345:
 673              	.LBB1343:
 674              	.LBB1338:
 675              	.LBI1338:
 676              		.file 27 "eurorack/plaits/dsp/drums/synthetic_snare_drum.h"
   1:eurorack/plaits/dsp/drums/synthetic_snare_drum.h **** // Copyright 2016 Emilie Gillet.
   2:eurorack/plaits/dsp/drums/synthetic_snare_drum.h **** //
   3:eurorack/plaits/dsp/drums/synthetic_snare_drum.h **** // Author: Emilie Gillet (emilie.o.gillet@gmail.com)
   4:eurorack/plaits/dsp/drums/synthetic_snare_drum.h **** //
   5:eurorack/plaits/dsp/drums/synthetic_snare_drum.h **** // Permission is hereby granted, free of charge, to any person obtaining a copy
   6:eurorack/plaits/dsp/drums/synthetic_snare_drum.h **** // of this software and associated documentation files (the "Software"), to deal
   7:eurorack/plaits/dsp/drums/synthetic_snare_drum.h **** // in the Software without restriction, including without limitation the rights
   8:eurorack/plaits/dsp/drums/synthetic_snare_drum.h **** // to use, copy, modify, merge, publish, distribute, sublicense, and/or sell
   9:eurorack/plaits/dsp/drums/synthetic_snare_drum.h **** // copies of the Software, and to permit persons to whom the Software is
  10:eurorack/plaits/dsp/drums/synthetic_snare_drum.h **** // furnished to do so, subject to the following conditions:
  11:eurorack/plaits/dsp/drums/synthetic_snare_drum.h **** // 
  12:eurorack/plaits/dsp/drums/synthetic_snare_drum.h **** // The above copyright notice and this permission notice shall be included in
  13:eurorack/plaits/dsp/drums/synthetic_snare_drum.h **** // all copies or substantial portions of the Software.
  14:eurorack/plaits/dsp/drums/synthetic_snare_drum.h **** // 
  15:eurorack/plaits/dsp/drums/synthetic_snare_drum.h **** // THE SOFTWARE IS PROVIDED "AS IS", WITHOUT WARRANTY OF ANY KIND, EXPRESS OR
  16:eurorack/plaits/dsp/drums/synthetic_snare_drum.h **** // IMPLIED, INCLUDING BUT NOT LIMITED TO THE WARRANTIES OF MERCHANTABILITY,
  17:eurorack/plaits/dsp/drums/synthetic_snare_drum.h **** // FITNESS FOR A PARTICULAR PURPOSE AND NONINFRINGEMENT. IN NO EVENT SHALL THE
  18:eurorack/plaits/dsp/drums/synthetic_snare_drum.h **** // AUTHORS OR COPYRIGHT HOLDERS BE LIABLE FOR ANY CLAIM, DAMAGES OR OTHER
  19:eurorack/plaits/dsp/drums/synthetic_snare_drum.h **** // LIABILITY, WHETHER IN AN ACTION OF CONTRACT, TORT OR OTHERWISE, ARISING FROM,
  20:eurorack/plaits/dsp/drums/synthetic_snare_drum.h **** // OUT OF OR IN CONNECTION WITH THE SOFTWARE OR THE USE OR OTHER DEALINGS IN
  21:eurorack/plaits/dsp/drums/synthetic_snare_drum.h **** // THE SOFTWARE.
  22:eurorack/plaits/dsp/drums/synthetic_snare_drum.h **** // 
  23:eurorack/plaits/dsp/drums/synthetic_snare_drum.h **** // See http://creativecommons.org/licenses/MIT/ for more information.
  24:eurorack/plaits/dsp/drums/synthetic_snare_drum.h **** //
  25:eurorack/plaits/dsp/drums/synthetic_snare_drum.h **** // -----------------------------------------------------------------------------
  26:eurorack/plaits/dsp/drums/synthetic_snare_drum.h **** //
  27:eurorack/plaits/dsp/drums/synthetic_snare_drum.h **** // Naive snare drum model (two modulated oscillators + filtered noise).
  28:eurorack/plaits/dsp/drums/synthetic_snare_drum.h **** // Uses a few magic numbers taken from the 909 schematics:
  29:eurorack/plaits/dsp/drums/synthetic_snare_drum.h **** // - Ratio between the two modes of the drum set to 1.47.
  30:eurorack/plaits/dsp/drums/synthetic_snare_drum.h **** // - Funky coupling between the two modes.
  31:eurorack/plaits/dsp/drums/synthetic_snare_drum.h **** // - Noise coloration filters and envelope shapes for the snare.
  32:eurorack/plaits/dsp/drums/synthetic_snare_drum.h **** 
  33:eurorack/plaits/dsp/drums/synthetic_snare_drum.h **** #ifndef PLAITS_DSP_DRUMS_SYNTHETIC_SNARE_DRUM_H_
  34:eurorack/plaits/dsp/drums/synthetic_snare_drum.h **** #define PLAITS_DSP_DRUMS_SYNTHETIC_SNARE_DRUM_H_
  35:eurorack/plaits/dsp/drums/synthetic_snare_drum.h **** 
  36:eurorack/plaits/dsp/drums/synthetic_snare_drum.h **** #include <algorithm>
  37:eurorack/plaits/dsp/drums/synthetic_snare_drum.h **** 
  38:eurorack/plaits/dsp/drums/synthetic_snare_drum.h **** #include "stmlib/dsp/dsp.h"
  39:eurorack/plaits/dsp/drums/synthetic_snare_drum.h **** #include "stmlib/dsp/parameter_interpolator.h"
  40:eurorack/plaits/dsp/drums/synthetic_snare_drum.h **** #include "stmlib/dsp/units.h"
  41:eurorack/plaits/dsp/drums/synthetic_snare_drum.h **** 
  42:eurorack/plaits/dsp/drums/synthetic_snare_drum.h **** #include "plaits/dsp/dsp.h"
  43:eurorack/plaits/dsp/drums/synthetic_snare_drum.h **** 
ARM GAS  /var/folders/9s/8rp0_f2s1n31qbztm3b5_fdh0000gn/T//ccwHxkZj.s 			page 47


  44:eurorack/plaits/dsp/drums/synthetic_snare_drum.h **** namespace plaits {
  45:eurorack/plaits/dsp/drums/synthetic_snare_drum.h **** 
  46:eurorack/plaits/dsp/drums/synthetic_snare_drum.h **** class SyntheticSnareDrum {
  47:eurorack/plaits/dsp/drums/synthetic_snare_drum.h ****  public:
  48:eurorack/plaits/dsp/drums/synthetic_snare_drum.h ****   SyntheticSnareDrum() { }
 677              		.loc 27 48 3 view .LVU182
 678              	.LBB1339:
 679              	.LBI1339:
  94:eurorack/stmlib/dsp/filter.h ****   ~OnePole() { }
 680              		.loc 9 94 3 view .LVU183
  94:eurorack/stmlib/dsp/filter.h ****   ~OnePole() { }
 681              		.loc 9 94 3 is_stmt 0 view .LVU184
 682              	.LBE1339:
 683              	.LBB1340:
 684              	.LBI1340:
  94:eurorack/stmlib/dsp/filter.h ****   ~OnePole() { }
 685              		.loc 9 94 3 is_stmt 1 view .LVU185
  94:eurorack/stmlib/dsp/filter.h ****   ~OnePole() { }
 686              		.loc 9 94 3 is_stmt 0 view .LVU186
 687              	.LBE1340:
 688              	.LBB1341:
 689              	.LBI1341:
 690              		.loc 9 179 3 is_stmt 1 view .LVU187
 691              		.loc 9 179 3 is_stmt 0 view .LVU188
 692              	.LBE1341:
 693              	.LBE1338:
 694              	.LBE1343:
 695              	.LBE1345:
 696              	.LBB1346:
 697              	.LBI1346:
 698              		.file 28 "eurorack/plaits/dsp/engine/string_engine.h"
   1:eurorack/plaits/dsp/engine/string_engine.h **** // Copyright 2016 Emilie Gillet.
   2:eurorack/plaits/dsp/engine/string_engine.h **** //
   3:eurorack/plaits/dsp/engine/string_engine.h **** // Author: Emilie Gillet (emilie.o.gillet@gmail.com)
   4:eurorack/plaits/dsp/engine/string_engine.h **** //
   5:eurorack/plaits/dsp/engine/string_engine.h **** // Permission is hereby granted, free of charge, to any person obtaining a copy
   6:eurorack/plaits/dsp/engine/string_engine.h **** // of this software and associated documentation files (the "Software"), to deal
   7:eurorack/plaits/dsp/engine/string_engine.h **** // in the Software without restriction, including without limitation the rights
   8:eurorack/plaits/dsp/engine/string_engine.h **** // to use, copy, modify, merge, publish, distribute, sublicense, and/or sell
   9:eurorack/plaits/dsp/engine/string_engine.h **** // copies of the Software, and to permit persons to whom the Software is
  10:eurorack/plaits/dsp/engine/string_engine.h **** // furnished to do so, subject to the following conditions:
  11:eurorack/plaits/dsp/engine/string_engine.h **** // 
  12:eurorack/plaits/dsp/engine/string_engine.h **** // The above copyright notice and this permission notice shall be included in
  13:eurorack/plaits/dsp/engine/string_engine.h **** // all copies or substantial portions of the Software.
  14:eurorack/plaits/dsp/engine/string_engine.h **** // 
  15:eurorack/plaits/dsp/engine/string_engine.h **** // THE SOFTWARE IS PROVIDED "AS IS", WITHOUT WARRANTY OF ANY KIND, EXPRESS OR
  16:eurorack/plaits/dsp/engine/string_engine.h **** // IMPLIED, INCLUDING BUT NOT LIMITED TO THE WARRANTIES OF MERCHANTABILITY,
  17:eurorack/plaits/dsp/engine/string_engine.h **** // FITNESS FOR A PARTICULAR PURPOSE AND NONINFRINGEMENT. IN NO EVENT SHALL THE
  18:eurorack/plaits/dsp/engine/string_engine.h **** // AUTHORS OR COPYRIGHT HOLDERS BE LIABLE FOR ANY CLAIM, DAMAGES OR OTHER
  19:eurorack/plaits/dsp/engine/string_engine.h **** // LIABILITY, WHETHER IN AN ACTION OF CONTRACT, TORT OR OTHERWISE, ARISING FROM,
  20:eurorack/plaits/dsp/engine/string_engine.h **** // OUT OF OR IN CONNECTION WITH THE SOFTWARE OR THE USE OR OTHER DEALINGS IN
  21:eurorack/plaits/dsp/engine/string_engine.h **** // THE SOFTWARE.
  22:eurorack/plaits/dsp/engine/string_engine.h **** // 
  23:eurorack/plaits/dsp/engine/string_engine.h **** // See http://creativecommons.org/licenses/MIT/ for more information.
  24:eurorack/plaits/dsp/engine/string_engine.h **** //
  25:eurorack/plaits/dsp/engine/string_engine.h **** // -----------------------------------------------------------------------------
  26:eurorack/plaits/dsp/engine/string_engine.h **** //
ARM GAS  /var/folders/9s/8rp0_f2s1n31qbztm3b5_fdh0000gn/T//ccwHxkZj.s 			page 48


  27:eurorack/plaits/dsp/engine/string_engine.h **** // Three voices of string synthesis.
  28:eurorack/plaits/dsp/engine/string_engine.h **** 
  29:eurorack/plaits/dsp/engine/string_engine.h **** #ifndef PLAITS_DSP_ENGINE_STRING_ENGINE_H_
  30:eurorack/plaits/dsp/engine/string_engine.h **** #define PLAITS_DSP_ENGINE_STRING_ENGINE_H_
  31:eurorack/plaits/dsp/engine/string_engine.h **** 
  32:eurorack/plaits/dsp/engine/string_engine.h **** #include "plaits/dsp/engine/engine.h"
  33:eurorack/plaits/dsp/engine/string_engine.h **** #include "plaits/dsp/physical_modelling/string_voice.h"
  34:eurorack/plaits/dsp/engine/string_engine.h **** 
  35:eurorack/plaits/dsp/engine/string_engine.h **** namespace plaits {
  36:eurorack/plaits/dsp/engine/string_engine.h **** 
  37:eurorack/plaits/dsp/engine/string_engine.h **** const int kNumStrings = 3;
  38:eurorack/plaits/dsp/engine/string_engine.h **** 
  39:eurorack/plaits/dsp/engine/string_engine.h **** class StringEngine : public Engine {
  40:eurorack/plaits/dsp/engine/string_engine.h ****  public:
  41:eurorack/plaits/dsp/engine/string_engine.h ****   StringEngine() { }
 699              		.loc 28 41 3 is_stmt 1 view .LVU189
 700              	.LBB1347:
 701              	.LBB1348:
 702              	.LBI1348:
 703              		.loc 6 80 3 view .LVU190
 704              		.loc 6 80 3 is_stmt 0 view .LVU191
 705              	.LBE1348:
 706              		.loc 28 41 18 view .LVU192
 707 003e 3049     		ldr	r1, .L24+36
 708 0040 C3F8CC17 		str	r1, [r3, #1996]
 709              		.loc 28 41 18 is_stmt 1 view .LVU193
 710              	.LVL28:
 711              	.LBB1349:
 712              	.LBI1349:
 713              		.file 29 "eurorack/plaits/dsp/physical_modelling/delay_line.h"
   1:eurorack/plaits/dsp/physical_modelling/delay_line.h **** // Copyright 2014 Emilie Gillet.
   2:eurorack/plaits/dsp/physical_modelling/delay_line.h **** //
   3:eurorack/plaits/dsp/physical_modelling/delay_line.h **** // Author: Emilie Gillet (emilie.o.gillet@gmail.com)
   4:eurorack/plaits/dsp/physical_modelling/delay_line.h **** //
   5:eurorack/plaits/dsp/physical_modelling/delay_line.h **** // Permission is hereby granted, free of charge, to any person obtaining a copy
   6:eurorack/plaits/dsp/physical_modelling/delay_line.h **** // of this software and associated documentation files (the "Software"), to deal
   7:eurorack/plaits/dsp/physical_modelling/delay_line.h **** // in the Software without restriction, including without limitation the rights
   8:eurorack/plaits/dsp/physical_modelling/delay_line.h **** // to use, copy, modify, merge, publish, distribute, sublicense, and/or sell
   9:eurorack/plaits/dsp/physical_modelling/delay_line.h **** // copies of the Software, and to permit persons to whom the Software is
  10:eurorack/plaits/dsp/physical_modelling/delay_line.h **** // furnished to do so, subject to the following conditions:
  11:eurorack/plaits/dsp/physical_modelling/delay_line.h **** // 
  12:eurorack/plaits/dsp/physical_modelling/delay_line.h **** // The above copyright notice and this permission notice shall be included in
  13:eurorack/plaits/dsp/physical_modelling/delay_line.h **** // all copies or substantial portions of the Software.
  14:eurorack/plaits/dsp/physical_modelling/delay_line.h **** // 
  15:eurorack/plaits/dsp/physical_modelling/delay_line.h **** // THE SOFTWARE IS PROVIDED "AS IS", WITHOUT WARRANTY OF ANY KIND, EXPRESS OR
  16:eurorack/plaits/dsp/physical_modelling/delay_line.h **** // IMPLIED, INCLUDING BUT NOT LIMITED TO THE WARRANTIES OF MERCHANTABILITY,
  17:eurorack/plaits/dsp/physical_modelling/delay_line.h **** // FITNESS FOR A PARTICULAR PURPOSE AND NONINFRINGEMENT. IN NO EVENT SHALL THE
  18:eurorack/plaits/dsp/physical_modelling/delay_line.h **** // AUTHORS OR COPYRIGHT HOLDERS BE LIABLE FOR ANY CLAIM, DAMAGES OR OTHER
  19:eurorack/plaits/dsp/physical_modelling/delay_line.h **** // LIABILITY, WHETHER IN AN ACTION OF CONTRACT, TORT OR OTHERWISE, ARISING FROM,
  20:eurorack/plaits/dsp/physical_modelling/delay_line.h **** // OUT OF OR IN CONNECTION WITH THE SOFTWARE OR THE USE OR OTHER DEALINGS IN
  21:eurorack/plaits/dsp/physical_modelling/delay_line.h **** // THE SOFTWARE.
  22:eurorack/plaits/dsp/physical_modelling/delay_line.h **** // 
  23:eurorack/plaits/dsp/physical_modelling/delay_line.h **** // See http://creativecommons.org/licenses/MIT/ for more information.
  24:eurorack/plaits/dsp/physical_modelling/delay_line.h **** //
  25:eurorack/plaits/dsp/physical_modelling/delay_line.h **** // -----------------------------------------------------------------------------
  26:eurorack/plaits/dsp/physical_modelling/delay_line.h **** //
  27:eurorack/plaits/dsp/physical_modelling/delay_line.h **** // Delay line (same implementation as from stmlib, but does not own its buffer).
ARM GAS  /var/folders/9s/8rp0_f2s1n31qbztm3b5_fdh0000gn/T//ccwHxkZj.s 			page 49


  28:eurorack/plaits/dsp/physical_modelling/delay_line.h **** 
  29:eurorack/plaits/dsp/physical_modelling/delay_line.h **** #ifndef PLAITS_DSP_PHYSICAL_MODELLING_DELAY_LINE_H_
  30:eurorack/plaits/dsp/physical_modelling/delay_line.h **** #define PLAITS_DSP_PHYSICAL_MODELLING_DELAY_LINE_H_
  31:eurorack/plaits/dsp/physical_modelling/delay_line.h **** 
  32:eurorack/plaits/dsp/physical_modelling/delay_line.h **** #include <algorithm>
  33:eurorack/plaits/dsp/physical_modelling/delay_line.h **** 
  34:eurorack/plaits/dsp/physical_modelling/delay_line.h **** #include "stmlib/dsp/dsp.h"
  35:eurorack/plaits/dsp/physical_modelling/delay_line.h **** 
  36:eurorack/plaits/dsp/physical_modelling/delay_line.h **** namespace plaits {
  37:eurorack/plaits/dsp/physical_modelling/delay_line.h **** 
  38:eurorack/plaits/dsp/physical_modelling/delay_line.h **** template<typename T, size_t max_delay>
  39:eurorack/plaits/dsp/physical_modelling/delay_line.h **** class DelayLine {
  40:eurorack/plaits/dsp/physical_modelling/delay_line.h ****  public:
  41:eurorack/plaits/dsp/physical_modelling/delay_line.h ****   DelayLine() { }
 714              		.loc 29 41 3 view .LVU194
 715              		.loc 29 41 3 is_stmt 0 view .LVU195
 716              	.LBE1349:
 717              	.LBE1347:
 718              	.LBE1346:
 719              	.LBB1350:
 720              	.LBI1350:
 721              		.file 30 "eurorack/plaits/dsp/engine/swarm_engine.h"
   1:eurorack/plaits/dsp/engine/swarm_engine.h **** // Copyright 2016 Emilie Gillet.
   2:eurorack/plaits/dsp/engine/swarm_engine.h **** //
   3:eurorack/plaits/dsp/engine/swarm_engine.h **** // Author: Emilie Gillet (emilie.o.gillet@gmail.com)
   4:eurorack/plaits/dsp/engine/swarm_engine.h **** //
   5:eurorack/plaits/dsp/engine/swarm_engine.h **** // Permission is hereby granted, free of charge, to any person obtaining a copy
   6:eurorack/plaits/dsp/engine/swarm_engine.h **** // of this software and associated documentation files (the "Software"), to deal
   7:eurorack/plaits/dsp/engine/swarm_engine.h **** // in the Software without restriction, including without limitation the rights
   8:eurorack/plaits/dsp/engine/swarm_engine.h **** // to use, copy, modify, merge, publish, distribute, sublicense, and/or sell
   9:eurorack/plaits/dsp/engine/swarm_engine.h **** // copies of the Software, and to permit persons to whom the Software is
  10:eurorack/plaits/dsp/engine/swarm_engine.h **** // furnished to do so, subject to the following conditions:
  11:eurorack/plaits/dsp/engine/swarm_engine.h **** // 
  12:eurorack/plaits/dsp/engine/swarm_engine.h **** // The above copyright notice and this permission notice shall be included in
  13:eurorack/plaits/dsp/engine/swarm_engine.h **** // all copies or substantial portions of the Software.
  14:eurorack/plaits/dsp/engine/swarm_engine.h **** // 
  15:eurorack/plaits/dsp/engine/swarm_engine.h **** // THE SOFTWARE IS PROVIDED "AS IS", WITHOUT WARRANTY OF ANY KIND, EXPRESS OR
  16:eurorack/plaits/dsp/engine/swarm_engine.h **** // IMPLIED, INCLUDING BUT NOT LIMITED TO THE WARRANTIES OF MERCHANTABILITY,
  17:eurorack/plaits/dsp/engine/swarm_engine.h **** // FITNESS FOR A PARTICULAR PURPOSE AND NONINFRINGEMENT. IN NO EVENT SHALL THE
  18:eurorack/plaits/dsp/engine/swarm_engine.h **** // AUTHORS OR COPYRIGHT HOLDERS BE LIABLE FOR ANY CLAIM, DAMAGES OR OTHER
  19:eurorack/plaits/dsp/engine/swarm_engine.h **** // LIABILITY, WHETHER IN AN ACTION OF CONTRACT, TORT OR OTHERWISE, ARISING FROM,
  20:eurorack/plaits/dsp/engine/swarm_engine.h **** // OUT OF OR IN CONNECTION WITH THE SOFTWARE OR THE USE OR OTHER DEALINGS IN
  21:eurorack/plaits/dsp/engine/swarm_engine.h **** // THE SOFTWARE.
  22:eurorack/plaits/dsp/engine/swarm_engine.h **** // 
  23:eurorack/plaits/dsp/engine/swarm_engine.h **** // See http://creativecommons.org/licenses/MIT/ for more information.
  24:eurorack/plaits/dsp/engine/swarm_engine.h **** //
  25:eurorack/plaits/dsp/engine/swarm_engine.h **** // -----------------------------------------------------------------------------
  26:eurorack/plaits/dsp/engine/swarm_engine.h **** //
  27:eurorack/plaits/dsp/engine/swarm_engine.h **** // Swarm of sawtooths and sines.
  28:eurorack/plaits/dsp/engine/swarm_engine.h **** 
  29:eurorack/plaits/dsp/engine/swarm_engine.h **** #ifndef PLAITS_DSP_ENGINE_SWARM_ENGINE_H_
  30:eurorack/plaits/dsp/engine/swarm_engine.h **** #define PLAITS_DSP_ENGINE_SWARM_ENGINE_H_
  31:eurorack/plaits/dsp/engine/swarm_engine.h **** 
  32:eurorack/plaits/dsp/engine/swarm_engine.h **** #include "stmlib/dsp/polyblep.h"
  33:eurorack/plaits/dsp/engine/swarm_engine.h **** #include "stmlib/dsp/units.h"
  34:eurorack/plaits/dsp/engine/swarm_engine.h **** #include "stmlib/utils/random.h"
  35:eurorack/plaits/dsp/engine/swarm_engine.h **** 
ARM GAS  /var/folders/9s/8rp0_f2s1n31qbztm3b5_fdh0000gn/T//ccwHxkZj.s 			page 50


  36:eurorack/plaits/dsp/engine/swarm_engine.h **** #include "plaits/dsp/engine/engine.h"
  37:eurorack/plaits/dsp/engine/swarm_engine.h **** #include "plaits/dsp/oscillator/oscillator.h"
  38:eurorack/plaits/dsp/engine/swarm_engine.h **** #include "plaits/dsp/oscillator/string_synth_oscillator.h"
  39:eurorack/plaits/dsp/engine/swarm_engine.h **** #include "plaits/dsp/oscillator/sine_oscillator.h"
  40:eurorack/plaits/dsp/engine/swarm_engine.h **** #include "plaits/resources.h"
  41:eurorack/plaits/dsp/engine/swarm_engine.h **** 
  42:eurorack/plaits/dsp/engine/swarm_engine.h **** namespace plaits {
  43:eurorack/plaits/dsp/engine/swarm_engine.h **** 
  44:eurorack/plaits/dsp/engine/swarm_engine.h **** const int kNumSwarmVoices = 8;
  45:eurorack/plaits/dsp/engine/swarm_engine.h **** 
  46:eurorack/plaits/dsp/engine/swarm_engine.h **** class GrainEnvelope {
  47:eurorack/plaits/dsp/engine/swarm_engine.h ****  public:
  48:eurorack/plaits/dsp/engine/swarm_engine.h ****   GrainEnvelope() { }
  49:eurorack/plaits/dsp/engine/swarm_engine.h ****   ~GrainEnvelope() { }
  50:eurorack/plaits/dsp/engine/swarm_engine.h ****   
  51:eurorack/plaits/dsp/engine/swarm_engine.h ****   void Init() {
  52:eurorack/plaits/dsp/engine/swarm_engine.h ****     from_ = 0.0f;
  53:eurorack/plaits/dsp/engine/swarm_engine.h ****     interval_ = 1.0f;
  54:eurorack/plaits/dsp/engine/swarm_engine.h ****     phase_ = 1.0f;
  55:eurorack/plaits/dsp/engine/swarm_engine.h ****     fm_ = 0.0f;
  56:eurorack/plaits/dsp/engine/swarm_engine.h ****     amplitude_ = 0.5f;
  57:eurorack/plaits/dsp/engine/swarm_engine.h ****     previous_size_ratio_ = 0.0f;
  58:eurorack/plaits/dsp/engine/swarm_engine.h ****   }
  59:eurorack/plaits/dsp/engine/swarm_engine.h ****   
  60:eurorack/plaits/dsp/engine/swarm_engine.h ****   inline void Step(float rate, bool burst_mode, bool start_burst) {
  61:eurorack/plaits/dsp/engine/swarm_engine.h ****     bool randomize = false;
  62:eurorack/plaits/dsp/engine/swarm_engine.h ****     if (start_burst) {
  63:eurorack/plaits/dsp/engine/swarm_engine.h ****       phase_ = 0.5f;
  64:eurorack/plaits/dsp/engine/swarm_engine.h ****       fm_ = 16.0f;
  65:eurorack/plaits/dsp/engine/swarm_engine.h ****       randomize = true;
  66:eurorack/plaits/dsp/engine/swarm_engine.h ****     } else {
  67:eurorack/plaits/dsp/engine/swarm_engine.h ****       phase_ += rate * fm_;
  68:eurorack/plaits/dsp/engine/swarm_engine.h ****       if (phase_ >= 1.0f) {
  69:eurorack/plaits/dsp/engine/swarm_engine.h ****         phase_ -= static_cast<float>(static_cast<int>(phase_));
  70:eurorack/plaits/dsp/engine/swarm_engine.h ****         randomize = true;
  71:eurorack/plaits/dsp/engine/swarm_engine.h ****       }
  72:eurorack/plaits/dsp/engine/swarm_engine.h ****     }
  73:eurorack/plaits/dsp/engine/swarm_engine.h ****     
  74:eurorack/plaits/dsp/engine/swarm_engine.h ****     if (randomize) {
  75:eurorack/plaits/dsp/engine/swarm_engine.h ****       from_ += interval_;
  76:eurorack/plaits/dsp/engine/swarm_engine.h ****       interval_ = stmlib::Random::GetFloat() - from_;
  77:eurorack/plaits/dsp/engine/swarm_engine.h ****       // Randomize the duration of the grain.
  78:eurorack/plaits/dsp/engine/swarm_engine.h ****       if (burst_mode) {
  79:eurorack/plaits/dsp/engine/swarm_engine.h ****         fm_ *= 0.8f + 0.2f * stmlib::Random::GetFloat();
  80:eurorack/plaits/dsp/engine/swarm_engine.h ****       } else {
  81:eurorack/plaits/dsp/engine/swarm_engine.h ****         fm_ = 0.5f + 1.5f * stmlib::Random::GetFloat();
  82:eurorack/plaits/dsp/engine/swarm_engine.h ****       }
  83:eurorack/plaits/dsp/engine/swarm_engine.h ****     }
  84:eurorack/plaits/dsp/engine/swarm_engine.h ****   }
  85:eurorack/plaits/dsp/engine/swarm_engine.h ****   
  86:eurorack/plaits/dsp/engine/swarm_engine.h ****   inline float frequency(float size_ratio) const {
  87:eurorack/plaits/dsp/engine/swarm_engine.h ****     // We approximate two overlapping grains of frequencies f1 and f2
  88:eurorack/plaits/dsp/engine/swarm_engine.h ****     // By a continuous tone ramping from f1 to f2. This allows a continuous
  89:eurorack/plaits/dsp/engine/swarm_engine.h ****     // transition between the "grain cloud" and "swarm of glissandi" textures.
  90:eurorack/plaits/dsp/engine/swarm_engine.h ****     if (size_ratio < 1.0f) {
  91:eurorack/plaits/dsp/engine/swarm_engine.h ****       return 2.0f * (from_ + interval_ * phase_) - 1.0f;
  92:eurorack/plaits/dsp/engine/swarm_engine.h ****     } else {
ARM GAS  /var/folders/9s/8rp0_f2s1n31qbztm3b5_fdh0000gn/T//ccwHxkZj.s 			page 51


  93:eurorack/plaits/dsp/engine/swarm_engine.h ****       return from_;
  94:eurorack/plaits/dsp/engine/swarm_engine.h ****     }
  95:eurorack/plaits/dsp/engine/swarm_engine.h ****   }
  96:eurorack/plaits/dsp/engine/swarm_engine.h ****   
  97:eurorack/plaits/dsp/engine/swarm_engine.h ****   inline float amplitude(float size_ratio) {
  98:eurorack/plaits/dsp/engine/swarm_engine.h ****     float target_amplitude = 1.0f;
  99:eurorack/plaits/dsp/engine/swarm_engine.h ****     if (size_ratio >= 1.0f) {
 100:eurorack/plaits/dsp/engine/swarm_engine.h ****       float phase = (phase_ - 0.5f) * size_ratio;
 101:eurorack/plaits/dsp/engine/swarm_engine.h ****       CONSTRAIN(phase, -1.0f, 1.0f);
 102:eurorack/plaits/dsp/engine/swarm_engine.h ****       float e = stmlib::InterpolateWrap(
 103:eurorack/plaits/dsp/engine/swarm_engine.h ****           lut_sine, 0.5f * phase + 1.25f, 1024.0f);
 104:eurorack/plaits/dsp/engine/swarm_engine.h ****       target_amplitude = 0.5f * (e + 1.0f);
 105:eurorack/plaits/dsp/engine/swarm_engine.h ****     }
 106:eurorack/plaits/dsp/engine/swarm_engine.h ****     
 107:eurorack/plaits/dsp/engine/swarm_engine.h ****     if ((size_ratio >= 1.0f) ^ (previous_size_ratio_ >= 1.0f)) {
 108:eurorack/plaits/dsp/engine/swarm_engine.h ****       filter_coefficient_ = 0.5f;
 109:eurorack/plaits/dsp/engine/swarm_engine.h ****     }
 110:eurorack/plaits/dsp/engine/swarm_engine.h ****     filter_coefficient_ *= 0.95f;
 111:eurorack/plaits/dsp/engine/swarm_engine.h ****     
 112:eurorack/plaits/dsp/engine/swarm_engine.h ****     previous_size_ratio_ = size_ratio;
 113:eurorack/plaits/dsp/engine/swarm_engine.h ****     ONE_POLE(amplitude_, target_amplitude, 0.5f - filter_coefficient_);
 114:eurorack/plaits/dsp/engine/swarm_engine.h ****     return amplitude_;
 115:eurorack/plaits/dsp/engine/swarm_engine.h ****   }
 116:eurorack/plaits/dsp/engine/swarm_engine.h ****   
 117:eurorack/plaits/dsp/engine/swarm_engine.h ****  private:
 118:eurorack/plaits/dsp/engine/swarm_engine.h ****   float from_;
 119:eurorack/plaits/dsp/engine/swarm_engine.h ****   float interval_;
 120:eurorack/plaits/dsp/engine/swarm_engine.h ****   float phase_;
 121:eurorack/plaits/dsp/engine/swarm_engine.h ****   float fm_;
 122:eurorack/plaits/dsp/engine/swarm_engine.h ****   float amplitude_;
 123:eurorack/plaits/dsp/engine/swarm_engine.h ****   float previous_size_ratio_;
 124:eurorack/plaits/dsp/engine/swarm_engine.h ****   float filter_coefficient_;
 125:eurorack/plaits/dsp/engine/swarm_engine.h ****   
 126:eurorack/plaits/dsp/engine/swarm_engine.h ****   DISALLOW_COPY_AND_ASSIGN(GrainEnvelope);
 127:eurorack/plaits/dsp/engine/swarm_engine.h **** };
 128:eurorack/plaits/dsp/engine/swarm_engine.h **** 
 129:eurorack/plaits/dsp/engine/swarm_engine.h **** class AdditiveSawOscillator {
 130:eurorack/plaits/dsp/engine/swarm_engine.h ****  public:
 131:eurorack/plaits/dsp/engine/swarm_engine.h ****   AdditiveSawOscillator() { }
 132:eurorack/plaits/dsp/engine/swarm_engine.h ****   ~AdditiveSawOscillator() { }
 133:eurorack/plaits/dsp/engine/swarm_engine.h **** 
 134:eurorack/plaits/dsp/engine/swarm_engine.h ****   inline void Init() {
 135:eurorack/plaits/dsp/engine/swarm_engine.h ****     phase_ = 0.0f;
 136:eurorack/plaits/dsp/engine/swarm_engine.h ****     next_sample_ = 0.0f;
 137:eurorack/plaits/dsp/engine/swarm_engine.h ****     frequency_ = 0.01f;
 138:eurorack/plaits/dsp/engine/swarm_engine.h ****     gain_ = 0.0f;
 139:eurorack/plaits/dsp/engine/swarm_engine.h ****   }
 140:eurorack/plaits/dsp/engine/swarm_engine.h **** 
 141:eurorack/plaits/dsp/engine/swarm_engine.h ****   inline void Render(
 142:eurorack/plaits/dsp/engine/swarm_engine.h ****       float frequency,
 143:eurorack/plaits/dsp/engine/swarm_engine.h ****       float level,
 144:eurorack/plaits/dsp/engine/swarm_engine.h ****       float* out,
 145:eurorack/plaits/dsp/engine/swarm_engine.h ****       size_t size) {
 146:eurorack/plaits/dsp/engine/swarm_engine.h ****     if (frequency >= kMaxFrequency) {
 147:eurorack/plaits/dsp/engine/swarm_engine.h ****       frequency = kMaxFrequency;
 148:eurorack/plaits/dsp/engine/swarm_engine.h ****     }
 149:eurorack/plaits/dsp/engine/swarm_engine.h ****     stmlib::ParameterInterpolator fm(&frequency_, frequency, size);
ARM GAS  /var/folders/9s/8rp0_f2s1n31qbztm3b5_fdh0000gn/T//ccwHxkZj.s 			page 52


 150:eurorack/plaits/dsp/engine/swarm_engine.h ****     stmlib::ParameterInterpolator gain(&gain_, level, size);
 151:eurorack/plaits/dsp/engine/swarm_engine.h **** 
 152:eurorack/plaits/dsp/engine/swarm_engine.h ****     float next_sample = next_sample_;
 153:eurorack/plaits/dsp/engine/swarm_engine.h ****     float phase = phase_;
 154:eurorack/plaits/dsp/engine/swarm_engine.h **** 
 155:eurorack/plaits/dsp/engine/swarm_engine.h ****     while (size--) {
 156:eurorack/plaits/dsp/engine/swarm_engine.h ****       float this_sample = next_sample;
 157:eurorack/plaits/dsp/engine/swarm_engine.h ****       next_sample = 0.0f;
 158:eurorack/plaits/dsp/engine/swarm_engine.h **** 
 159:eurorack/plaits/dsp/engine/swarm_engine.h ****       const float frequency = fm.Next();
 160:eurorack/plaits/dsp/engine/swarm_engine.h **** 
 161:eurorack/plaits/dsp/engine/swarm_engine.h ****       phase += frequency;
 162:eurorack/plaits/dsp/engine/swarm_engine.h ****   
 163:eurorack/plaits/dsp/engine/swarm_engine.h ****       if (phase >= 1.0f) {
 164:eurorack/plaits/dsp/engine/swarm_engine.h ****         phase -= 1.0f;
 165:eurorack/plaits/dsp/engine/swarm_engine.h ****         float t = phase / frequency;
 166:eurorack/plaits/dsp/engine/swarm_engine.h ****         this_sample -= stmlib::ThisBlepSample(t);
 167:eurorack/plaits/dsp/engine/swarm_engine.h ****         next_sample -= stmlib::NextBlepSample(t);
 168:eurorack/plaits/dsp/engine/swarm_engine.h ****       }
 169:eurorack/plaits/dsp/engine/swarm_engine.h **** 
 170:eurorack/plaits/dsp/engine/swarm_engine.h ****       next_sample += phase;
 171:eurorack/plaits/dsp/engine/swarm_engine.h ****       *out++ += (2.0f * this_sample - 1.0f) * gain.Next();
 172:eurorack/plaits/dsp/engine/swarm_engine.h ****     }
 173:eurorack/plaits/dsp/engine/swarm_engine.h ****     phase_ = phase;
 174:eurorack/plaits/dsp/engine/swarm_engine.h ****     next_sample_ = next_sample;
 175:eurorack/plaits/dsp/engine/swarm_engine.h ****   }
 176:eurorack/plaits/dsp/engine/swarm_engine.h **** 
 177:eurorack/plaits/dsp/engine/swarm_engine.h ****  private:
 178:eurorack/plaits/dsp/engine/swarm_engine.h ****   // Oscillator state.
 179:eurorack/plaits/dsp/engine/swarm_engine.h ****   float phase_;
 180:eurorack/plaits/dsp/engine/swarm_engine.h ****   float next_sample_;
 181:eurorack/plaits/dsp/engine/swarm_engine.h **** 
 182:eurorack/plaits/dsp/engine/swarm_engine.h ****   // For interpolation of parameters.
 183:eurorack/plaits/dsp/engine/swarm_engine.h ****   float frequency_;
 184:eurorack/plaits/dsp/engine/swarm_engine.h ****   float gain_;
 185:eurorack/plaits/dsp/engine/swarm_engine.h **** 
 186:eurorack/plaits/dsp/engine/swarm_engine.h ****   DISALLOW_COPY_AND_ASSIGN(AdditiveSawOscillator);
 187:eurorack/plaits/dsp/engine/swarm_engine.h **** };
 188:eurorack/plaits/dsp/engine/swarm_engine.h **** 
 189:eurorack/plaits/dsp/engine/swarm_engine.h **** class SwarmVoice {
 190:eurorack/plaits/dsp/engine/swarm_engine.h ****  public:
 191:eurorack/plaits/dsp/engine/swarm_engine.h ****   SwarmVoice() { }
 192:eurorack/plaits/dsp/engine/swarm_engine.h ****   ~SwarmVoice() { }
 193:eurorack/plaits/dsp/engine/swarm_engine.h ****   
 194:eurorack/plaits/dsp/engine/swarm_engine.h ****   void Init(float rank) {
 195:eurorack/plaits/dsp/engine/swarm_engine.h ****     rank_ = rank;
 196:eurorack/plaits/dsp/engine/swarm_engine.h ****     envelope_.Init();
 197:eurorack/plaits/dsp/engine/swarm_engine.h ****     saw_.Init();
 198:eurorack/plaits/dsp/engine/swarm_engine.h ****     sine_.Init();
 199:eurorack/plaits/dsp/engine/swarm_engine.h ****   }
 200:eurorack/plaits/dsp/engine/swarm_engine.h ****   
 201:eurorack/plaits/dsp/engine/swarm_engine.h ****   void Render(
 202:eurorack/plaits/dsp/engine/swarm_engine.h ****       float f0,
 203:eurorack/plaits/dsp/engine/swarm_engine.h ****       float density,
 204:eurorack/plaits/dsp/engine/swarm_engine.h ****       bool burst_mode,
 205:eurorack/plaits/dsp/engine/swarm_engine.h ****       bool start_burst,
 206:eurorack/plaits/dsp/engine/swarm_engine.h ****       float spread,
ARM GAS  /var/folders/9s/8rp0_f2s1n31qbztm3b5_fdh0000gn/T//ccwHxkZj.s 			page 53


 207:eurorack/plaits/dsp/engine/swarm_engine.h ****       float size_ratio,
 208:eurorack/plaits/dsp/engine/swarm_engine.h ****       float* saw,
 209:eurorack/plaits/dsp/engine/swarm_engine.h ****       float* sine,
 210:eurorack/plaits/dsp/engine/swarm_engine.h ****       size_t size) {
 211:eurorack/plaits/dsp/engine/swarm_engine.h ****     envelope_.Step(density, burst_mode, start_burst);
 212:eurorack/plaits/dsp/engine/swarm_engine.h ****     
 213:eurorack/plaits/dsp/engine/swarm_engine.h ****     const float scale = 1.0f / kNumSwarmVoices;
 214:eurorack/plaits/dsp/engine/swarm_engine.h ****     const float amplitude = envelope_.amplitude(size_ratio) * scale;
 215:eurorack/plaits/dsp/engine/swarm_engine.h **** 
 216:eurorack/plaits/dsp/engine/swarm_engine.h ****     const float expo_amount = envelope_.frequency(size_ratio);
 217:eurorack/plaits/dsp/engine/swarm_engine.h ****     f0 *= stmlib::SemitonesToRatio(48.0f * expo_amount * spread * rank_);
 218:eurorack/plaits/dsp/engine/swarm_engine.h ****     
 219:eurorack/plaits/dsp/engine/swarm_engine.h ****     const float linear_amount = rank_ * (rank_ + 0.01f) * spread * 0.25f;
 220:eurorack/plaits/dsp/engine/swarm_engine.h ****     f0 *= 1.0f + linear_amount;
 221:eurorack/plaits/dsp/engine/swarm_engine.h **** 
 222:eurorack/plaits/dsp/engine/swarm_engine.h ****     saw_.Render(f0, amplitude, saw, size);
 223:eurorack/plaits/dsp/engine/swarm_engine.h ****     sine_.Render(f0, amplitude, sine, size);
 224:eurorack/plaits/dsp/engine/swarm_engine.h ****   };
 225:eurorack/plaits/dsp/engine/swarm_engine.h ****   
 226:eurorack/plaits/dsp/engine/swarm_engine.h ****  private:
 227:eurorack/plaits/dsp/engine/swarm_engine.h ****   float rank_;
 228:eurorack/plaits/dsp/engine/swarm_engine.h **** 
 229:eurorack/plaits/dsp/engine/swarm_engine.h ****   GrainEnvelope envelope_;
 230:eurorack/plaits/dsp/engine/swarm_engine.h ****   AdditiveSawOscillator saw_;
 231:eurorack/plaits/dsp/engine/swarm_engine.h ****   FastSineOscillator sine_;
 232:eurorack/plaits/dsp/engine/swarm_engine.h **** };
 233:eurorack/plaits/dsp/engine/swarm_engine.h **** 
 234:eurorack/plaits/dsp/engine/swarm_engine.h **** class SwarmEngine : public Engine {
 235:eurorack/plaits/dsp/engine/swarm_engine.h ****  public:
 236:eurorack/plaits/dsp/engine/swarm_engine.h ****   SwarmEngine() { }
 722              		.loc 30 236 3 is_stmt 1 view .LVU196
 723              	.LBB1351:
 724              	.LBB1352:
 725              	.LBI1352:
 726              		.loc 6 80 3 view .LVU197
 727              		.loc 6 80 3 is_stmt 0 view .LVU198
 728              	.LBE1352:
 729              		.loc 30 236 17 view .LVU199
 730 0044 2F49     		ldr	r1, .L24+40
 731 0046 C3F81819 		str	r1, [r3, #2328]
 732              		.loc 30 236 17 is_stmt 1 view .LVU200
 733              	.LVL29:
 734              		.loc 30 236 17 is_stmt 0 view .LVU201
 735              	.LBE1351:
 736              	.LBE1350:
 737              	.LBB1353:
 738              	.LBI1353:
 739              		.file 31 "eurorack/plaits/dsp/engine/virtual_analog_engine.h"
   1:eurorack/plaits/dsp/engine/virtual_analog_engine.h **** // Copyright 2016 Emilie Gillet.
   2:eurorack/plaits/dsp/engine/virtual_analog_engine.h **** //
   3:eurorack/plaits/dsp/engine/virtual_analog_engine.h **** // Author: Emilie Gillet (emilie.o.gillet@gmail.com)
   4:eurorack/plaits/dsp/engine/virtual_analog_engine.h **** //
   5:eurorack/plaits/dsp/engine/virtual_analog_engine.h **** // Permission is hereby granted, free of charge, to any person obtaining a copy
   6:eurorack/plaits/dsp/engine/virtual_analog_engine.h **** // of this software and associated documentation files (the "Software"), to deal
   7:eurorack/plaits/dsp/engine/virtual_analog_engine.h **** // in the Software without restriction, including without limitation the rights
   8:eurorack/plaits/dsp/engine/virtual_analog_engine.h **** // to use, copy, modify, merge, publish, distribute, sublicense, and/or sell
   9:eurorack/plaits/dsp/engine/virtual_analog_engine.h **** // copies of the Software, and to permit persons to whom the Software is
ARM GAS  /var/folders/9s/8rp0_f2s1n31qbztm3b5_fdh0000gn/T//ccwHxkZj.s 			page 54


  10:eurorack/plaits/dsp/engine/virtual_analog_engine.h **** // furnished to do so, subject to the following conditions:
  11:eurorack/plaits/dsp/engine/virtual_analog_engine.h **** // 
  12:eurorack/plaits/dsp/engine/virtual_analog_engine.h **** // The above copyright notice and this permission notice shall be included in
  13:eurorack/plaits/dsp/engine/virtual_analog_engine.h **** // all copies or substantial portions of the Software.
  14:eurorack/plaits/dsp/engine/virtual_analog_engine.h **** // 
  15:eurorack/plaits/dsp/engine/virtual_analog_engine.h **** // THE SOFTWARE IS PROVIDED "AS IS", WITHOUT WARRANTY OF ANY KIND, EXPRESS OR
  16:eurorack/plaits/dsp/engine/virtual_analog_engine.h **** // IMPLIED, INCLUDING BUT NOT LIMITED TO THE WARRANTIES OF MERCHANTABILITY,
  17:eurorack/plaits/dsp/engine/virtual_analog_engine.h **** // FITNESS FOR A PARTICULAR PURPOSE AND NONINFRINGEMENT. IN NO EVENT SHALL THE
  18:eurorack/plaits/dsp/engine/virtual_analog_engine.h **** // AUTHORS OR COPYRIGHT HOLDERS BE LIABLE FOR ANY CLAIM, DAMAGES OR OTHER
  19:eurorack/plaits/dsp/engine/virtual_analog_engine.h **** // LIABILITY, WHETHER IN AN ACTION OF CONTRACT, TORT OR OTHERWISE, ARISING FROM,
  20:eurorack/plaits/dsp/engine/virtual_analog_engine.h **** // OUT OF OR IN CONNECTION WITH THE SOFTWARE OR THE USE OR OTHER DEALINGS IN
  21:eurorack/plaits/dsp/engine/virtual_analog_engine.h **** // THE SOFTWARE.
  22:eurorack/plaits/dsp/engine/virtual_analog_engine.h **** // 
  23:eurorack/plaits/dsp/engine/virtual_analog_engine.h **** // See http://creativecommons.org/licenses/MIT/ for more information.
  24:eurorack/plaits/dsp/engine/virtual_analog_engine.h **** //
  25:eurorack/plaits/dsp/engine/virtual_analog_engine.h **** // -----------------------------------------------------------------------------
  26:eurorack/plaits/dsp/engine/virtual_analog_engine.h **** //
  27:eurorack/plaits/dsp/engine/virtual_analog_engine.h **** // 2 variable shape oscillators with sync and crossfading.
  28:eurorack/plaits/dsp/engine/virtual_analog_engine.h **** 
  29:eurorack/plaits/dsp/engine/virtual_analog_engine.h **** #ifndef PLAITS_DSP_ENGINE_VIRTUAL_ANALOG_ENGINE_H_
  30:eurorack/plaits/dsp/engine/virtual_analog_engine.h **** #define PLAITS_DSP_ENGINE_VIRTUAL_ANALOG_ENGINE_H_
  31:eurorack/plaits/dsp/engine/virtual_analog_engine.h **** 
  32:eurorack/plaits/dsp/engine/virtual_analog_engine.h **** #include "plaits/dsp/engine/engine.h"
  33:eurorack/plaits/dsp/engine/virtual_analog_engine.h **** #include "plaits/dsp/oscillator/variable_saw_oscillator.h"
  34:eurorack/plaits/dsp/engine/virtual_analog_engine.h **** #include "plaits/dsp/oscillator/variable_shape_oscillator.h"
  35:eurorack/plaits/dsp/engine/virtual_analog_engine.h **** 
  36:eurorack/plaits/dsp/engine/virtual_analog_engine.h **** #define VA_VARIANT 2
  37:eurorack/plaits/dsp/engine/virtual_analog_engine.h **** 
  38:eurorack/plaits/dsp/engine/virtual_analog_engine.h **** namespace plaits {
  39:eurorack/plaits/dsp/engine/virtual_analog_engine.h ****   
  40:eurorack/plaits/dsp/engine/virtual_analog_engine.h **** class VirtualAnalogEngine : public Engine {
  41:eurorack/plaits/dsp/engine/virtual_analog_engine.h ****  public:
  42:eurorack/plaits/dsp/engine/virtual_analog_engine.h ****   VirtualAnalogEngine() { }
 740              		.loc 31 42 3 is_stmt 1 view .LVU202
 741              	.LBB1354:
 742              	.LBB1355:
 743              	.LBI1355:
 744              		.loc 6 80 3 view .LVU203
 745              		.loc 6 80 3 is_stmt 0 view .LVU204
 746              	.LBE1355:
 747              		.loc 31 42 25 view .LVU205
 748 004a 2F49     		ldr	r1, .L24+44
 749 004c C3F8281B 		str	r1, [r3, #2856]
 750              	.LVL30:
 751              	.LBB1356:
 752              	.LBI1356:
 753              		.file 32 "eurorack/plaits/dsp/oscillator/variable_shape_oscillator.h"
   1:eurorack/plaits/dsp/oscillator/variable_shape_oscillator.h **** // Copyright 2016 Emilie Gillet.
   2:eurorack/plaits/dsp/oscillator/variable_shape_oscillator.h **** //
   3:eurorack/plaits/dsp/oscillator/variable_shape_oscillator.h **** // Author: Emilie Gillet (emilie.o.gillet@gmail.com)
   4:eurorack/plaits/dsp/oscillator/variable_shape_oscillator.h **** //
   5:eurorack/plaits/dsp/oscillator/variable_shape_oscillator.h **** // Permission is hereby granted, free of charge, to any person obtaining a copy
   6:eurorack/plaits/dsp/oscillator/variable_shape_oscillator.h **** // of this software and associated documentation files (the "Software"), to deal
   7:eurorack/plaits/dsp/oscillator/variable_shape_oscillator.h **** // in the Software without restriction, including without limitation the rights
   8:eurorack/plaits/dsp/oscillator/variable_shape_oscillator.h **** // to use, copy, modify, merge, publish, distribute, sublicense, and/or sell
   9:eurorack/plaits/dsp/oscillator/variable_shape_oscillator.h **** // copies of the Software, and to permit persons to whom the Software is
  10:eurorack/plaits/dsp/oscillator/variable_shape_oscillator.h **** // furnished to do so, subject to the following conditions:
ARM GAS  /var/folders/9s/8rp0_f2s1n31qbztm3b5_fdh0000gn/T//ccwHxkZj.s 			page 55


  11:eurorack/plaits/dsp/oscillator/variable_shape_oscillator.h **** // 
  12:eurorack/plaits/dsp/oscillator/variable_shape_oscillator.h **** // The above copyright notice and this permission notice shall be included in
  13:eurorack/plaits/dsp/oscillator/variable_shape_oscillator.h **** // all copies or substantial portions of the Software.
  14:eurorack/plaits/dsp/oscillator/variable_shape_oscillator.h **** // 
  15:eurorack/plaits/dsp/oscillator/variable_shape_oscillator.h **** // THE SOFTWARE IS PROVIDED "AS IS", WITHOUT WARRANTY OF ANY KIND, EXPRESS OR
  16:eurorack/plaits/dsp/oscillator/variable_shape_oscillator.h **** // IMPLIED, INCLUDING BUT NOT LIMITED TO THE WARRANTIES OF MERCHANTABILITY,
  17:eurorack/plaits/dsp/oscillator/variable_shape_oscillator.h **** // FITNESS FOR A PARTICULAR PURPOSE AND NONINFRINGEMENT. IN NO EVENT SHALL THE
  18:eurorack/plaits/dsp/oscillator/variable_shape_oscillator.h **** // AUTHORS OR COPYRIGHT HOLDERS BE LIABLE FOR ANY CLAIM, DAMAGES OR OTHER
  19:eurorack/plaits/dsp/oscillator/variable_shape_oscillator.h **** // LIABILITY, WHETHER IN AN ACTION OF CONTRACT, TORT OR OTHERWISE, ARISING FROM,
  20:eurorack/plaits/dsp/oscillator/variable_shape_oscillator.h **** // OUT OF OR IN CONNECTION WITH THE SOFTWARE OR THE USE OR OTHER DEALINGS IN
  21:eurorack/plaits/dsp/oscillator/variable_shape_oscillator.h **** // THE SOFTWARE.
  22:eurorack/plaits/dsp/oscillator/variable_shape_oscillator.h **** // 
  23:eurorack/plaits/dsp/oscillator/variable_shape_oscillator.h **** // See http://creativecommons.org/licenses/MIT/ for more information.
  24:eurorack/plaits/dsp/oscillator/variable_shape_oscillator.h **** //
  25:eurorack/plaits/dsp/oscillator/variable_shape_oscillator.h **** // -----------------------------------------------------------------------------
  26:eurorack/plaits/dsp/oscillator/variable_shape_oscillator.h **** //
  27:eurorack/plaits/dsp/oscillator/variable_shape_oscillator.h **** // Continuously variable waveform: triangle > saw > square. Both square and
  28:eurorack/plaits/dsp/oscillator/variable_shape_oscillator.h **** // triangle have variable slope / pulse-width. Additionally, the phase resets
  29:eurorack/plaits/dsp/oscillator/variable_shape_oscillator.h **** // can be locked to a master frequency.
  30:eurorack/plaits/dsp/oscillator/variable_shape_oscillator.h **** 
  31:eurorack/plaits/dsp/oscillator/variable_shape_oscillator.h **** #ifndef PLAITS_DSP_OSCILLATOR_VARIABLE_SHAPE_OSCILLATOR_H_
  32:eurorack/plaits/dsp/oscillator/variable_shape_oscillator.h **** #define PLAITS_DSP_OSCILLATOR_VARIABLE_SHAPE_OSCILLATOR_H_
  33:eurorack/plaits/dsp/oscillator/variable_shape_oscillator.h **** 
  34:eurorack/plaits/dsp/oscillator/variable_shape_oscillator.h **** #include "stmlib/dsp/dsp.h"
  35:eurorack/plaits/dsp/oscillator/variable_shape_oscillator.h **** #include "stmlib/dsp/parameter_interpolator.h"
  36:eurorack/plaits/dsp/oscillator/variable_shape_oscillator.h **** #include "stmlib/dsp/polyblep.h"
  37:eurorack/plaits/dsp/oscillator/variable_shape_oscillator.h **** 
  38:eurorack/plaits/dsp/oscillator/variable_shape_oscillator.h **** #include <algorithm>
  39:eurorack/plaits/dsp/oscillator/variable_shape_oscillator.h **** 
  40:eurorack/plaits/dsp/oscillator/variable_shape_oscillator.h **** namespace plaits {
  41:eurorack/plaits/dsp/oscillator/variable_shape_oscillator.h **** 
  42:eurorack/plaits/dsp/oscillator/variable_shape_oscillator.h **** class VariableShapeOscillator {
  43:eurorack/plaits/dsp/oscillator/variable_shape_oscillator.h ****  public:
  44:eurorack/plaits/dsp/oscillator/variable_shape_oscillator.h ****   VariableShapeOscillator() { }
 754              		.loc 32 44 3 is_stmt 1 view .LVU206
 755              		.loc 32 44 3 is_stmt 0 view .LVU207
 756              	.LBE1356:
 757              	.LBB1357:
 758              	.LBI1357:
 759              		.loc 32 44 3 is_stmt 1 view .LVU208
 760              		.loc 32 44 3 is_stmt 0 view .LVU209
 761              	.LBE1357:
 762              	.LBB1358:
 763              	.LBI1358:
 764              		.loc 32 44 3 is_stmt 1 view .LVU210
 765              		.loc 32 44 3 is_stmt 0 view .LVU211
 766              	.LBE1358:
 767              	.LBB1359:
 768              	.LBI1359:
 769              		.file 33 "eurorack/plaits/dsp/oscillator/variable_saw_oscillator.h"
   1:eurorack/plaits/dsp/oscillator/variable_saw_oscillator.h **** // Copyright 2016 Emilie Gillet.
   2:eurorack/plaits/dsp/oscillator/variable_saw_oscillator.h **** //
   3:eurorack/plaits/dsp/oscillator/variable_saw_oscillator.h **** // Author: Emilie Gillet (emilie.o.gillet@gmail.com)
   4:eurorack/plaits/dsp/oscillator/variable_saw_oscillator.h **** //
   5:eurorack/plaits/dsp/oscillator/variable_saw_oscillator.h **** // Permission is hereby granted, free of charge, to any person obtaining a copy
   6:eurorack/plaits/dsp/oscillator/variable_saw_oscillator.h **** // of this software and associated documentation files (the "Software"), to deal
   7:eurorack/plaits/dsp/oscillator/variable_saw_oscillator.h **** // in the Software without restriction, including without limitation the rights
ARM GAS  /var/folders/9s/8rp0_f2s1n31qbztm3b5_fdh0000gn/T//ccwHxkZj.s 			page 56


   8:eurorack/plaits/dsp/oscillator/variable_saw_oscillator.h **** // to use, copy, modify, merge, publish, distribute, sublicense, and/or sell
   9:eurorack/plaits/dsp/oscillator/variable_saw_oscillator.h **** // copies of the Software, and to permit persons to whom the Software is
  10:eurorack/plaits/dsp/oscillator/variable_saw_oscillator.h **** // furnished to do so, subject to the following conditions:
  11:eurorack/plaits/dsp/oscillator/variable_saw_oscillator.h **** // 
  12:eurorack/plaits/dsp/oscillator/variable_saw_oscillator.h **** // The above copyright notice and this permission notice shall be included in
  13:eurorack/plaits/dsp/oscillator/variable_saw_oscillator.h **** // all copies or substantial portions of the Software.
  14:eurorack/plaits/dsp/oscillator/variable_saw_oscillator.h **** // 
  15:eurorack/plaits/dsp/oscillator/variable_saw_oscillator.h **** // THE SOFTWARE IS PROVIDED "AS IS", WITHOUT WARRANTY OF ANY KIND, EXPRESS OR
  16:eurorack/plaits/dsp/oscillator/variable_saw_oscillator.h **** // IMPLIED, INCLUDING BUT NOT LIMITED TO THE WARRANTIES OF MERCHANTABILITY,
  17:eurorack/plaits/dsp/oscillator/variable_saw_oscillator.h **** // FITNESS FOR A PARTICULAR PURPOSE AND NONINFRINGEMENT. IN NO EVENT SHALL THE
  18:eurorack/plaits/dsp/oscillator/variable_saw_oscillator.h **** // AUTHORS OR COPYRIGHT HOLDERS BE LIABLE FOR ANY CLAIM, DAMAGES OR OTHER
  19:eurorack/plaits/dsp/oscillator/variable_saw_oscillator.h **** // LIABILITY, WHETHER IN AN ACTION OF CONTRACT, TORT OR OTHERWISE, ARISING FROM,
  20:eurorack/plaits/dsp/oscillator/variable_saw_oscillator.h **** // OUT OF OR IN CONNECTION WITH THE SOFTWARE OR THE USE OR OTHER DEALINGS IN
  21:eurorack/plaits/dsp/oscillator/variable_saw_oscillator.h **** // THE SOFTWARE.
  22:eurorack/plaits/dsp/oscillator/variable_saw_oscillator.h **** // 
  23:eurorack/plaits/dsp/oscillator/variable_saw_oscillator.h **** // See http://creativecommons.org/licenses/MIT/ for more information.
  24:eurorack/plaits/dsp/oscillator/variable_saw_oscillator.h **** //
  25:eurorack/plaits/dsp/oscillator/variable_saw_oscillator.h **** // -----------------------------------------------------------------------------
  26:eurorack/plaits/dsp/oscillator/variable_saw_oscillator.h **** //
  27:eurorack/plaits/dsp/oscillator/variable_saw_oscillator.h **** // Saw with variable slope or notch
  28:eurorack/plaits/dsp/oscillator/variable_saw_oscillator.h **** 
  29:eurorack/plaits/dsp/oscillator/variable_saw_oscillator.h **** #ifndef PLAITS_DSP_OSCILLATOR_VARIABLE_SAW_OSCILLATOR_H_
  30:eurorack/plaits/dsp/oscillator/variable_saw_oscillator.h **** #define PLAITS_DSP_OSCILLATOR_VARIABLE_SAW_OSCILLATOR_H_
  31:eurorack/plaits/dsp/oscillator/variable_saw_oscillator.h **** 
  32:eurorack/plaits/dsp/oscillator/variable_saw_oscillator.h **** #include "stmlib/dsp/dsp.h"
  33:eurorack/plaits/dsp/oscillator/variable_saw_oscillator.h **** #include "stmlib/dsp/parameter_interpolator.h"
  34:eurorack/plaits/dsp/oscillator/variable_saw_oscillator.h **** #include "stmlib/dsp/polyblep.h"
  35:eurorack/plaits/dsp/oscillator/variable_saw_oscillator.h **** 
  36:eurorack/plaits/dsp/oscillator/variable_saw_oscillator.h **** #include <algorithm>
  37:eurorack/plaits/dsp/oscillator/variable_saw_oscillator.h **** 
  38:eurorack/plaits/dsp/oscillator/variable_saw_oscillator.h **** #include "plaits/dsp/oscillator/oscillator.h"
  39:eurorack/plaits/dsp/oscillator/variable_saw_oscillator.h **** 
  40:eurorack/plaits/dsp/oscillator/variable_saw_oscillator.h **** namespace plaits {
  41:eurorack/plaits/dsp/oscillator/variable_saw_oscillator.h **** 
  42:eurorack/plaits/dsp/oscillator/variable_saw_oscillator.h **** const float kVariableSawNotchDepth = 0.2f;
  43:eurorack/plaits/dsp/oscillator/variable_saw_oscillator.h **** 
  44:eurorack/plaits/dsp/oscillator/variable_saw_oscillator.h **** class VariableSawOscillator {
  45:eurorack/plaits/dsp/oscillator/variable_saw_oscillator.h ****  public:
  46:eurorack/plaits/dsp/oscillator/variable_saw_oscillator.h ****   VariableSawOscillator() { }
 770              		.loc 33 46 3 is_stmt 1 view .LVU212
 771              		.loc 33 46 3 is_stmt 0 view .LVU213
 772              	.LBE1359:
 773              	.LBE1354:
 774              	.LBE1353:
 775              	.LBB1360:
 776              	.LBI1360:
 777              		.file 34 "eurorack/plaits/dsp/engine/waveshaping_engine.h"
   1:eurorack/plaits/dsp/engine/waveshaping_engine.h **** // Copyright 2016 Emilie Gillet.
   2:eurorack/plaits/dsp/engine/waveshaping_engine.h **** //
   3:eurorack/plaits/dsp/engine/waveshaping_engine.h **** // Author: Emilie Gillet (emilie.o.gillet@gmail.com)
   4:eurorack/plaits/dsp/engine/waveshaping_engine.h **** //
   5:eurorack/plaits/dsp/engine/waveshaping_engine.h **** // Permission is hereby granted, free of charge, to any person obtaining a copy
   6:eurorack/plaits/dsp/engine/waveshaping_engine.h **** // of this software and associated documentation files (the "Software"), to deal
   7:eurorack/plaits/dsp/engine/waveshaping_engine.h **** // in the Software without restriction, including without limitation the rights
   8:eurorack/plaits/dsp/engine/waveshaping_engine.h **** // to use, copy, modify, merge, publish, distribute, sublicense, and/or sell
   9:eurorack/plaits/dsp/engine/waveshaping_engine.h **** // copies of the Software, and to permit persons to whom the Software is
  10:eurorack/plaits/dsp/engine/waveshaping_engine.h **** // furnished to do so, subject to the following conditions:
ARM GAS  /var/folders/9s/8rp0_f2s1n31qbztm3b5_fdh0000gn/T//ccwHxkZj.s 			page 57


  11:eurorack/plaits/dsp/engine/waveshaping_engine.h **** // 
  12:eurorack/plaits/dsp/engine/waveshaping_engine.h **** // The above copyright notice and this permission notice shall be included in
  13:eurorack/plaits/dsp/engine/waveshaping_engine.h **** // all copies or substantial portions of the Software.
  14:eurorack/plaits/dsp/engine/waveshaping_engine.h **** // 
  15:eurorack/plaits/dsp/engine/waveshaping_engine.h **** // THE SOFTWARE IS PROVIDED "AS IS", WITHOUT WARRANTY OF ANY KIND, EXPRESS OR
  16:eurorack/plaits/dsp/engine/waveshaping_engine.h **** // IMPLIED, INCLUDING BUT NOT LIMITED TO THE WARRANTIES OF MERCHANTABILITY,
  17:eurorack/plaits/dsp/engine/waveshaping_engine.h **** // FITNESS FOR A PARTICULAR PURPOSE AND NONINFRINGEMENT. IN NO EVENT SHALL THE
  18:eurorack/plaits/dsp/engine/waveshaping_engine.h **** // AUTHORS OR COPYRIGHT HOLDERS BE LIABLE FOR ANY CLAIM, DAMAGES OR OTHER
  19:eurorack/plaits/dsp/engine/waveshaping_engine.h **** // LIABILITY, WHETHER IN AN ACTION OF CONTRACT, TORT OR OTHERWISE, ARISING FROM,
  20:eurorack/plaits/dsp/engine/waveshaping_engine.h **** // OUT OF OR IN CONNECTION WITH THE SOFTWARE OR THE USE OR OTHER DEALINGS IN
  21:eurorack/plaits/dsp/engine/waveshaping_engine.h **** // THE SOFTWARE.
  22:eurorack/plaits/dsp/engine/waveshaping_engine.h **** // 
  23:eurorack/plaits/dsp/engine/waveshaping_engine.h **** // See http://creativecommons.org/licenses/MIT/ for more information.
  24:eurorack/plaits/dsp/engine/waveshaping_engine.h **** //
  25:eurorack/plaits/dsp/engine/waveshaping_engine.h **** // -----------------------------------------------------------------------------
  26:eurorack/plaits/dsp/engine/waveshaping_engine.h **** //
  27:eurorack/plaits/dsp/engine/waveshaping_engine.h **** // Slope -> Waveshaper -> Wavefolder.
  28:eurorack/plaits/dsp/engine/waveshaping_engine.h **** 
  29:eurorack/plaits/dsp/engine/waveshaping_engine.h **** #ifndef PLAITS_DSP_ENGINE_WAVESHAPING_ENGINE_H_
  30:eurorack/plaits/dsp/engine/waveshaping_engine.h **** #define PLAITS_DSP_ENGINE_WAVESHAPING_ENGINE_H_
  31:eurorack/plaits/dsp/engine/waveshaping_engine.h **** 
  32:eurorack/plaits/dsp/engine/waveshaping_engine.h **** #include "plaits/dsp/engine/engine.h"
  33:eurorack/plaits/dsp/engine/waveshaping_engine.h **** #include "plaits/dsp/oscillator/oscillator.h"
  34:eurorack/plaits/dsp/engine/waveshaping_engine.h **** 
  35:eurorack/plaits/dsp/engine/waveshaping_engine.h **** namespace plaits {
  36:eurorack/plaits/dsp/engine/waveshaping_engine.h ****   
  37:eurorack/plaits/dsp/engine/waveshaping_engine.h **** class WaveshapingEngine : public Engine {
  38:eurorack/plaits/dsp/engine/waveshaping_engine.h ****  public:
  39:eurorack/plaits/dsp/engine/waveshaping_engine.h ****   WaveshapingEngine() { }
 778              		.loc 34 39 3 is_stmt 1 view .LVU214
 779              	.LBB1361:
 780              	.LBB1362:
 781              	.LBI1362:
 782              		.loc 6 80 3 view .LVU215
 783              		.loc 6 80 3 is_stmt 0 view .LVU216
 784              	.LBE1362:
 785              		.loc 34 39 23 view .LVU217
 786 0050 2E49     		ldr	r1, .L24+48
 787 0052 C3F8CC1B 		str	r1, [r3, #3020]
 788              	.LVL31:
 789              	.LBB1363:
 790              	.LBI1363:
 791              		.file 35 "eurorack/plaits/dsp/oscillator/oscillator.h"
   1:eurorack/plaits/dsp/oscillator/oscillator.h **** // Copyright 2016 Emilie Gillet.
   2:eurorack/plaits/dsp/oscillator/oscillator.h **** //
   3:eurorack/plaits/dsp/oscillator/oscillator.h **** // Author: Emilie Gillet (emilie.o.gillet@gmail.com)
   4:eurorack/plaits/dsp/oscillator/oscillator.h **** //
   5:eurorack/plaits/dsp/oscillator/oscillator.h **** // Permission is hereby granted, free of charge, to any person obtaining a copy
   6:eurorack/plaits/dsp/oscillator/oscillator.h **** // of this software and associated documentation files (the "Software"), to deal
   7:eurorack/plaits/dsp/oscillator/oscillator.h **** // in the Software without restriction, including without limitation the rights
   8:eurorack/plaits/dsp/oscillator/oscillator.h **** // to use, copy, modify, merge, publish, distribute, sublicense, and/or sell
   9:eurorack/plaits/dsp/oscillator/oscillator.h **** // copies of the Software, and to permit persons to whom the Software is
  10:eurorack/plaits/dsp/oscillator/oscillator.h **** // furnished to do so, subject to the following conditions:
  11:eurorack/plaits/dsp/oscillator/oscillator.h **** // 
  12:eurorack/plaits/dsp/oscillator/oscillator.h **** // The above copyright notice and this permission notice shall be included in
  13:eurorack/plaits/dsp/oscillator/oscillator.h **** // all copies or substantial portions of the Software.
  14:eurorack/plaits/dsp/oscillator/oscillator.h **** // 
ARM GAS  /var/folders/9s/8rp0_f2s1n31qbztm3b5_fdh0000gn/T//ccwHxkZj.s 			page 58


  15:eurorack/plaits/dsp/oscillator/oscillator.h **** // THE SOFTWARE IS PROVIDED "AS IS", WITHOUT WARRANTY OF ANY KIND, EXPRESS OR
  16:eurorack/plaits/dsp/oscillator/oscillator.h **** // IMPLIED, INCLUDING BUT NOT LIMITED TO THE WARRANTIES OF MERCHANTABILITY,
  17:eurorack/plaits/dsp/oscillator/oscillator.h **** // FITNESS FOR A PARTICULAR PURPOSE AND NONINFRINGEMENT. IN NO EVENT SHALL THE
  18:eurorack/plaits/dsp/oscillator/oscillator.h **** // AUTHORS OR COPYRIGHT HOLDERS BE LIABLE FOR ANY CLAIM, DAMAGES OR OTHER
  19:eurorack/plaits/dsp/oscillator/oscillator.h **** // LIABILITY, WHETHER IN AN ACTION OF CONTRACT, TORT OR OTHERWISE, ARISING FROM,
  20:eurorack/plaits/dsp/oscillator/oscillator.h **** // OUT OF OR IN CONNECTION WITH THE SOFTWARE OR THE USE OR OTHER DEALINGS IN
  21:eurorack/plaits/dsp/oscillator/oscillator.h **** // THE SOFTWARE.
  22:eurorack/plaits/dsp/oscillator/oscillator.h **** // 
  23:eurorack/plaits/dsp/oscillator/oscillator.h **** // See http://creativecommons.org/licenses/MIT/ for more information.
  24:eurorack/plaits/dsp/oscillator/oscillator.h **** //
  25:eurorack/plaits/dsp/oscillator/oscillator.h **** // -----------------------------------------------------------------------------
  26:eurorack/plaits/dsp/oscillator/oscillator.h **** //
  27:eurorack/plaits/dsp/oscillator/oscillator.h **** // Single waveform oscillator. Can optionally do audio-rate linear FM, with
  28:eurorack/plaits/dsp/oscillator/oscillator.h **** // through-zero capabilities (negative frequencies).
  29:eurorack/plaits/dsp/oscillator/oscillator.h **** 
  30:eurorack/plaits/dsp/oscillator/oscillator.h **** #ifndef PLAITS_DSP_OSCILLATOR_OSCILLATOR_H_
  31:eurorack/plaits/dsp/oscillator/oscillator.h **** #define PLAITS_DSP_OSCILLATOR_OSCILLATOR_H_
  32:eurorack/plaits/dsp/oscillator/oscillator.h **** 
  33:eurorack/plaits/dsp/oscillator/oscillator.h **** #include "stmlib/dsp/dsp.h"
  34:eurorack/plaits/dsp/oscillator/oscillator.h **** #include "stmlib/dsp/parameter_interpolator.h"
  35:eurorack/plaits/dsp/oscillator/oscillator.h **** #include "stmlib/dsp/polyblep.h"
  36:eurorack/plaits/dsp/oscillator/oscillator.h **** 
  37:eurorack/plaits/dsp/oscillator/oscillator.h **** namespace plaits {
  38:eurorack/plaits/dsp/oscillator/oscillator.h **** 
  39:eurorack/plaits/dsp/oscillator/oscillator.h **** enum OscillatorShape {
  40:eurorack/plaits/dsp/oscillator/oscillator.h ****   OSCILLATOR_SHAPE_IMPULSE_TRAIN,
  41:eurorack/plaits/dsp/oscillator/oscillator.h ****   OSCILLATOR_SHAPE_SAW,
  42:eurorack/plaits/dsp/oscillator/oscillator.h ****   OSCILLATOR_SHAPE_TRIANGLE,
  43:eurorack/plaits/dsp/oscillator/oscillator.h ****   OSCILLATOR_SHAPE_SLOPE,
  44:eurorack/plaits/dsp/oscillator/oscillator.h ****   OSCILLATOR_SHAPE_SQUARE,
  45:eurorack/plaits/dsp/oscillator/oscillator.h ****   OSCILLATOR_SHAPE_SQUARE_BRIGHT,
  46:eurorack/plaits/dsp/oscillator/oscillator.h ****   OSCILLATOR_SHAPE_SQUARE_DARK,
  47:eurorack/plaits/dsp/oscillator/oscillator.h ****   OSCILLATOR_SHAPE_SQUARE_TRIANGLE
  48:eurorack/plaits/dsp/oscillator/oscillator.h **** };
  49:eurorack/plaits/dsp/oscillator/oscillator.h **** 
  50:eurorack/plaits/dsp/oscillator/oscillator.h **** const float kMaxFrequency = 0.25f;
  51:eurorack/plaits/dsp/oscillator/oscillator.h **** const float kMinFrequency = 0.000001f;
  52:eurorack/plaits/dsp/oscillator/oscillator.h **** 
  53:eurorack/plaits/dsp/oscillator/oscillator.h **** class Oscillator {
  54:eurorack/plaits/dsp/oscillator/oscillator.h ****  public:
  55:eurorack/plaits/dsp/oscillator/oscillator.h ****   Oscillator() { }
 792              		.loc 35 55 3 is_stmt 1 view .LVU218
 793              		.loc 35 55 3 is_stmt 0 view .LVU219
 794              	.LBE1363:
 795              	.LBB1364:
 796              	.LBI1364:
 797              		.loc 35 55 3 is_stmt 1 view .LVU220
 798              		.loc 35 55 3 is_stmt 0 view .LVU221
 799              	.LBE1364:
 800              	.LBE1361:
 801              	.LBE1360:
 802              	.LBB1365:
 803              	.LBI1365:
 804              		.file 36 "eurorack/stmlib/dsp/hysteresis_quantizer.h"
   1:eurorack/stmlib/dsp/hysteresis_quantizer.h **** // Copyright 2015 Emilie Gillet.
   2:eurorack/stmlib/dsp/hysteresis_quantizer.h **** //
   3:eurorack/stmlib/dsp/hysteresis_quantizer.h **** // Author: Emilie Gillet (emilie.o.gillet@gmail.com)
ARM GAS  /var/folders/9s/8rp0_f2s1n31qbztm3b5_fdh0000gn/T//ccwHxkZj.s 			page 59


   4:eurorack/stmlib/dsp/hysteresis_quantizer.h **** //
   5:eurorack/stmlib/dsp/hysteresis_quantizer.h **** // Permission is hereby granted, free of charge, to any person obtaining a copy
   6:eurorack/stmlib/dsp/hysteresis_quantizer.h **** // of this software and associated documentation files (the "Software"), to deal
   7:eurorack/stmlib/dsp/hysteresis_quantizer.h **** // in the Software without restriction, including without limitation the rights
   8:eurorack/stmlib/dsp/hysteresis_quantizer.h **** // to use, copy, modify, merge, publish, distribute, sublicense, and/or sell
   9:eurorack/stmlib/dsp/hysteresis_quantizer.h **** // copies of the Software, and to permit persons to whom the Software is
  10:eurorack/stmlib/dsp/hysteresis_quantizer.h **** // furnished to do so, subject to the following conditions:
  11:eurorack/stmlib/dsp/hysteresis_quantizer.h **** // 
  12:eurorack/stmlib/dsp/hysteresis_quantizer.h **** // The above copyright notice and this permission notice shall be included in
  13:eurorack/stmlib/dsp/hysteresis_quantizer.h **** // all copies or substantial portions of the Software.
  14:eurorack/stmlib/dsp/hysteresis_quantizer.h **** // 
  15:eurorack/stmlib/dsp/hysteresis_quantizer.h **** // THE SOFTWARE IS PROVIDED "AS IS", WITHOUT WARRANTY OF ANY KIND, EXPRESS OR
  16:eurorack/stmlib/dsp/hysteresis_quantizer.h **** // IMPLIED, INCLUDING BUT NOT LIMITED TO THE WARRANTIES OF MERCHANTABILITY,
  17:eurorack/stmlib/dsp/hysteresis_quantizer.h **** // FITNESS FOR A PARTICULAR PURPOSE AND NONINFRINGEMENT. IN NO EVENT SHALL THE
  18:eurorack/stmlib/dsp/hysteresis_quantizer.h **** // AUTHORS OR COPYRIGHT HOLDERS BE LIABLE FOR ANY CLAIM, DAMAGES OR OTHER
  19:eurorack/stmlib/dsp/hysteresis_quantizer.h **** // LIABILITY, WHETHER IN AN ACTION OF CONTRACT, TORT OR OTHERWISE, ARISING FROM,
  20:eurorack/stmlib/dsp/hysteresis_quantizer.h **** // OUT OF OR IN CONNECTION WITH THE SOFTWARE OR THE USE OR OTHER DEALINGS IN
  21:eurorack/stmlib/dsp/hysteresis_quantizer.h **** // THE SOFTWARE.
  22:eurorack/stmlib/dsp/hysteresis_quantizer.h **** // 
  23:eurorack/stmlib/dsp/hysteresis_quantizer.h **** // See http://creativecommons.org/licenses/MIT/ for more information.
  24:eurorack/stmlib/dsp/hysteresis_quantizer.h **** //
  25:eurorack/stmlib/dsp/hysteresis_quantizer.h **** // -----------------------------------------------------------------------------
  26:eurorack/stmlib/dsp/hysteresis_quantizer.h **** //
  27:eurorack/stmlib/dsp/hysteresis_quantizer.h **** // Quantize a float in [0, 1] to an integer in [0, num_steps[. Apply hysteresis
  28:eurorack/stmlib/dsp/hysteresis_quantizer.h **** // to prevent jumps near the decision boundary.
  29:eurorack/stmlib/dsp/hysteresis_quantizer.h **** 
  30:eurorack/stmlib/dsp/hysteresis_quantizer.h **** #ifndef STMLIB_DSP_HYSTERESIS_QUANTIZER_H_
  31:eurorack/stmlib/dsp/hysteresis_quantizer.h **** #define STMLIB_DSP_HYSTERESIS_QUANTIZER_H_
  32:eurorack/stmlib/dsp/hysteresis_quantizer.h **** 
  33:eurorack/stmlib/dsp/hysteresis_quantizer.h **** #include "stmlib/stmlib.h"
  34:eurorack/stmlib/dsp/hysteresis_quantizer.h **** 
  35:eurorack/stmlib/dsp/hysteresis_quantizer.h **** namespace stmlib {
  36:eurorack/stmlib/dsp/hysteresis_quantizer.h **** 
  37:eurorack/stmlib/dsp/hysteresis_quantizer.h **** class HysteresisQuantizer {
  38:eurorack/stmlib/dsp/hysteresis_quantizer.h ****  public:
  39:eurorack/stmlib/dsp/hysteresis_quantizer.h ****   HysteresisQuantizer() { }
 805              		.loc 36 39 3 is_stmt 1 view .LVU222
 806              		.loc 36 39 3 is_stmt 0 view .LVU223
 807              	.LBE1365:
 808              	.LBB1366:
 809              	.LBI1366:
 810              		.file 37 "eurorack/plaits/dsp/envelope.h"
   1:eurorack/plaits/dsp/envelope.h **** // Copyright 2016 Emilie Gillet.
   2:eurorack/plaits/dsp/envelope.h **** //
   3:eurorack/plaits/dsp/envelope.h **** // Author: Emilie Gillet (emilie.o.gillet@gmail.com)
   4:eurorack/plaits/dsp/envelope.h **** //
   5:eurorack/plaits/dsp/envelope.h **** // Permission is hereby granted, free of charge, to any person obtaining a copy
   6:eurorack/plaits/dsp/envelope.h **** // of this software and associated documentation files (the "Software"), to deal
   7:eurorack/plaits/dsp/envelope.h **** // in the Software without restriction, including without limitation the rights
   8:eurorack/plaits/dsp/envelope.h **** // to use, copy, modify, merge, publish, distribute, sublicense, and/or sell
   9:eurorack/plaits/dsp/envelope.h **** // copies of the Software, and to permit persons to whom the Software is
  10:eurorack/plaits/dsp/envelope.h **** // furnished to do so, subject to the following conditions:
  11:eurorack/plaits/dsp/envelope.h **** // 
  12:eurorack/plaits/dsp/envelope.h **** // The above copyright notice and this permission notice shall be included in
  13:eurorack/plaits/dsp/envelope.h **** // all copies or substantial portions of the Software.
  14:eurorack/plaits/dsp/envelope.h **** // 
  15:eurorack/plaits/dsp/envelope.h **** // THE SOFTWARE IS PROVIDED "AS IS", WITHOUT WARRANTY OF ANY KIND, EXPRESS OR
ARM GAS  /var/folders/9s/8rp0_f2s1n31qbztm3b5_fdh0000gn/T//ccwHxkZj.s 			page 60


  16:eurorack/plaits/dsp/envelope.h **** // IMPLIED, INCLUDING BUT NOT LIMITED TO THE WARRANTIES OF MERCHANTABILITY,
  17:eurorack/plaits/dsp/envelope.h **** // FITNESS FOR A PARTICULAR PURPOSE AND NONINFRINGEMENT. IN NO EVENT SHALL THE
  18:eurorack/plaits/dsp/envelope.h **** // AUTHORS OR COPYRIGHT HOLDERS BE LIABLE FOR ANY CLAIM, DAMAGES OR OTHER
  19:eurorack/plaits/dsp/envelope.h **** // LIABILITY, WHETHER IN AN ACTION OF CONTRACT, TORT OR OTHERWISE, ARISING FROM,
  20:eurorack/plaits/dsp/envelope.h **** // OUT OF OR IN CONNECTION WITH THE SOFTWARE OR THE USE OR OTHER DEALINGS IN
  21:eurorack/plaits/dsp/envelope.h **** // THE SOFTWARE.
