ARM GAS  /var/folders/9s/8rp0_f2s1n31qbztm3b5_fdh0000gn/T//ccynLXMW.s 			page 1


   1              		.cpu cortex-m7
   2              		.arch armv7e-m
   3              		.fpu fpv5-d16
   4              		.eabi_attribute 28, 1
   5              		.eabi_attribute 20, 1
   6              		.eabi_attribute 21, 1
   7              		.eabi_attribute 23, 3
   8              		.eabi_attribute 24, 1
   9              		.eabi_attribute 25, 1
  10              		.eabi_attribute 26, 1
  11              		.eabi_attribute 30, 4
  12              		.eabi_attribute 34, 1
  13              		.eabi_attribute 18, 4
  14              		.file	"sam_speech_synth.cc"
  15              		.text
  16              	.Ltext0:
  17              		.cfi_sections	.debug_frame
  18              		.section	.text._ZN6plaits14SAMSpeechSynth4InitEv,"ax",%progbits
  19              		.align	1
  20              		.global	_ZN6plaits14SAMSpeechSynth4InitEv
  21              		.syntax unified
  22              		.thumb
  23              		.thumb_func
  25              	_ZN6plaits14SAMSpeechSynth4InitEv:
  26              	.LVL0:
  27              	.LFB1430:
  28              		.file 1 "eurorack/plaits/dsp/speech/sam_speech_synth.cc"
   1:eurorack/plaits/dsp/speech/sam_speech_synth.cc **** // Copyright 2016 Emilie Gillet.
   2:eurorack/plaits/dsp/speech/sam_speech_synth.cc **** //
   3:eurorack/plaits/dsp/speech/sam_speech_synth.cc **** // Author: Emilie Gillet (emilie.o.gillet@gmail.com)
   4:eurorack/plaits/dsp/speech/sam_speech_synth.cc **** //
   5:eurorack/plaits/dsp/speech/sam_speech_synth.cc **** // Permission is hereby granted, free of charge, to any person obtaining a copy
   6:eurorack/plaits/dsp/speech/sam_speech_synth.cc **** // of this software and associated documentation files (the "Software"), to deal
   7:eurorack/plaits/dsp/speech/sam_speech_synth.cc **** // in the Software without restriction, including without limitation the rights
   8:eurorack/plaits/dsp/speech/sam_speech_synth.cc **** // to use, copy, modify, merge, publish, distribute, sublicense, and/or sell
   9:eurorack/plaits/dsp/speech/sam_speech_synth.cc **** // copies of the Software, and to permit persons to whom the Software is
  10:eurorack/plaits/dsp/speech/sam_speech_synth.cc **** // furnished to do so, subject to the following conditions:
  11:eurorack/plaits/dsp/speech/sam_speech_synth.cc **** // 
  12:eurorack/plaits/dsp/speech/sam_speech_synth.cc **** // The above copyright notice and this permission notice shall be included in
  13:eurorack/plaits/dsp/speech/sam_speech_synth.cc **** // all copies or substantial portions of the Software.
  14:eurorack/plaits/dsp/speech/sam_speech_synth.cc **** // 
  15:eurorack/plaits/dsp/speech/sam_speech_synth.cc **** // THE SOFTWARE IS PROVIDED "AS IS", WITHOUT WARRANTY OF ANY KIND, EXPRESS OR
  16:eurorack/plaits/dsp/speech/sam_speech_synth.cc **** // IMPLIED, INCLUDING BUT NOT LIMITED TO THE WARRANTIES OF MERCHANTABILITY,
  17:eurorack/plaits/dsp/speech/sam_speech_synth.cc **** // FITNESS FOR A PARTICULAR PURPOSE AND NONINFRINGEMENT. IN NO EVENT SHALL THE
  18:eurorack/plaits/dsp/speech/sam_speech_synth.cc **** // AUTHORS OR COPYRIGHT HOLDERS BE LIABLE FOR ANY CLAIM, DAMAGES OR OTHER
  19:eurorack/plaits/dsp/speech/sam_speech_synth.cc **** // LIABILITY, WHETHER IN AN ACTION OF CONTRACT, TORT OR OTHERWISE, ARISING FROM,
  20:eurorack/plaits/dsp/speech/sam_speech_synth.cc **** // OUT OF OR IN CONNECTION WITH THE SOFTWARE OR THE USE OR OTHER DEALINGS IN
  21:eurorack/plaits/dsp/speech/sam_speech_synth.cc **** // THE SOFTWARE.
  22:eurorack/plaits/dsp/speech/sam_speech_synth.cc **** // 
  23:eurorack/plaits/dsp/speech/sam_speech_synth.cc **** // See http://creativecommons.org/licenses/MIT/ for more information.
  24:eurorack/plaits/dsp/speech/sam_speech_synth.cc **** //
  25:eurorack/plaits/dsp/speech/sam_speech_synth.cc **** // -----------------------------------------------------------------------------
  26:eurorack/plaits/dsp/speech/sam_speech_synth.cc **** //
  27:eurorack/plaits/dsp/speech/sam_speech_synth.cc **** // SAM-inspired speech synth (as used in Shruthi/Ambika/Braids).
  28:eurorack/plaits/dsp/speech/sam_speech_synth.cc **** 
  29:eurorack/plaits/dsp/speech/sam_speech_synth.cc **** #include "plaits/dsp/speech/sam_speech_synth.h"
  30:eurorack/plaits/dsp/speech/sam_speech_synth.cc **** 
ARM GAS  /var/folders/9s/8rp0_f2s1n31qbztm3b5_fdh0000gn/T//ccynLXMW.s 			page 2


  31:eurorack/plaits/dsp/speech/sam_speech_synth.cc **** #include <algorithm>
  32:eurorack/plaits/dsp/speech/sam_speech_synth.cc **** 
  33:eurorack/plaits/dsp/speech/sam_speech_synth.cc **** #include "stmlib/dsp/dsp.h"
  34:eurorack/plaits/dsp/speech/sam_speech_synth.cc **** #include "stmlib/dsp/parameter_interpolator.h"
  35:eurorack/plaits/dsp/speech/sam_speech_synth.cc **** 
  36:eurorack/plaits/dsp/speech/sam_speech_synth.cc **** #include "plaits/dsp/oscillator/oscillator.h"
  37:eurorack/plaits/dsp/speech/sam_speech_synth.cc **** #include "plaits/resources.h"
  38:eurorack/plaits/dsp/speech/sam_speech_synth.cc **** 
  39:eurorack/plaits/dsp/speech/sam_speech_synth.cc **** namespace plaits {
  40:eurorack/plaits/dsp/speech/sam_speech_synth.cc **** 
  41:eurorack/plaits/dsp/speech/sam_speech_synth.cc **** using namespace std;
  42:eurorack/plaits/dsp/speech/sam_speech_synth.cc **** using namespace stmlib;
  43:eurorack/plaits/dsp/speech/sam_speech_synth.cc **** 
  44:eurorack/plaits/dsp/speech/sam_speech_synth.cc **** void SAMSpeechSynth::Init() {
  29              		.loc 1 44 29 view -0
  30              		.cfi_startproc
  31              		@ args = 0, pretend = 0, frame = 0
  32              		@ frame_needed = 0, uses_anonymous_args = 0
  33              		@ link register save eliminated.
  45:eurorack/plaits/dsp/speech/sam_speech_synth.cc ****   phase_ = 0.0f;
  34              		.loc 1 45 3 view .LVU1
  35              		.loc 1 45 10 is_stmt 0 view .LVU2
  36 0000 0023     		movs	r3, #0
  37              	.LBB34:
  38              	.LBB35:
  39              	.LBB36:
  40              	.LBB37:
  41              		.file 2 "/Library/DaisyToolchain/0.2.0/arm/arm-none-eabi/include/c++/10.3.1/bits/stl_algobase.h"
   1:/Library/DaisyToolchain/0.2.0/arm/arm-none-eabi/include/c++/10.3.1/bits/stl_algobase.h **** // Core algorithmic facilities -*- C++ -*-
   2:/Library/DaisyToolchain/0.2.0/arm/arm-none-eabi/include/c++/10.3.1/bits/stl_algobase.h **** 
   3:/Library/DaisyToolchain/0.2.0/arm/arm-none-eabi/include/c++/10.3.1/bits/stl_algobase.h **** // Copyright (C) 2001-2020 Free Software Foundation, Inc.
   4:/Library/DaisyToolchain/0.2.0/arm/arm-none-eabi/include/c++/10.3.1/bits/stl_algobase.h **** //
   5:/Library/DaisyToolchain/0.2.0/arm/arm-none-eabi/include/c++/10.3.1/bits/stl_algobase.h **** // This file is part of the GNU ISO C++ Library.  This library is free
   6:/Library/DaisyToolchain/0.2.0/arm/arm-none-eabi/include/c++/10.3.1/bits/stl_algobase.h **** // software; you can redistribute it and/or modify it under the
   7:/Library/DaisyToolchain/0.2.0/arm/arm-none-eabi/include/c++/10.3.1/bits/stl_algobase.h **** // terms of the GNU General Public License as published by the
   8:/Library/DaisyToolchain/0.2.0/arm/arm-none-eabi/include/c++/10.3.1/bits/stl_algobase.h **** // Free Software Foundation; either version 3, or (at your option)
   9:/Library/DaisyToolchain/0.2.0/arm/arm-none-eabi/include/c++/10.3.1/bits/stl_algobase.h **** // any later version.
  10:/Library/DaisyToolchain/0.2.0/arm/arm-none-eabi/include/c++/10.3.1/bits/stl_algobase.h **** 
  11:/Library/DaisyToolchain/0.2.0/arm/arm-none-eabi/include/c++/10.3.1/bits/stl_algobase.h **** // This library is distributed in the hope that it will be useful,
  12:/Library/DaisyToolchain/0.2.0/arm/arm-none-eabi/include/c++/10.3.1/bits/stl_algobase.h **** // but WITHOUT ANY WARRANTY; without even the implied warranty of
  13:/Library/DaisyToolchain/0.2.0/arm/arm-none-eabi/include/c++/10.3.1/bits/stl_algobase.h **** // MERCHANTABILITY or FITNESS FOR A PARTICULAR PURPOSE.  See the
  14:/Library/DaisyToolchain/0.2.0/arm/arm-none-eabi/include/c++/10.3.1/bits/stl_algobase.h **** // GNU General Public License for more details.
  15:/Library/DaisyToolchain/0.2.0/arm/arm-none-eabi/include/c++/10.3.1/bits/stl_algobase.h **** 
  16:/Library/DaisyToolchain/0.2.0/arm/arm-none-eabi/include/c++/10.3.1/bits/stl_algobase.h **** // Under Section 7 of GPL version 3, you are granted additional
  17:/Library/DaisyToolchain/0.2.0/arm/arm-none-eabi/include/c++/10.3.1/bits/stl_algobase.h **** // permissions described in the GCC Runtime Library Exception, version
  18:/Library/DaisyToolchain/0.2.0/arm/arm-none-eabi/include/c++/10.3.1/bits/stl_algobase.h **** // 3.1, as published by the Free Software Foundation.
  19:/Library/DaisyToolchain/0.2.0/arm/arm-none-eabi/include/c++/10.3.1/bits/stl_algobase.h **** 
  20:/Library/DaisyToolchain/0.2.0/arm/arm-none-eabi/include/c++/10.3.1/bits/stl_algobase.h **** // You should have received a copy of the GNU General Public License and
  21:/Library/DaisyToolchain/0.2.0/arm/arm-none-eabi/include/c++/10.3.1/bits/stl_algobase.h **** // a copy of the GCC Runtime Library Exception along with this program;
  22:/Library/DaisyToolchain/0.2.0/arm/arm-none-eabi/include/c++/10.3.1/bits/stl_algobase.h **** // see the files COPYING3 and COPYING.RUNTIME respectively.  If not, see
  23:/Library/DaisyToolchain/0.2.0/arm/arm-none-eabi/include/c++/10.3.1/bits/stl_algobase.h **** // <http://www.gnu.org/licenses/>.
  24:/Library/DaisyToolchain/0.2.0/arm/arm-none-eabi/include/c++/10.3.1/bits/stl_algobase.h **** 
  25:/Library/DaisyToolchain/0.2.0/arm/arm-none-eabi/include/c++/10.3.1/bits/stl_algobase.h **** /*
  26:/Library/DaisyToolchain/0.2.0/arm/arm-none-eabi/include/c++/10.3.1/bits/stl_algobase.h ****  *
  27:/Library/DaisyToolchain/0.2.0/arm/arm-none-eabi/include/c++/10.3.1/bits/stl_algobase.h ****  * Copyright (c) 1994
  28:/Library/DaisyToolchain/0.2.0/arm/arm-none-eabi/include/c++/10.3.1/bits/stl_algobase.h ****  * Hewlett-Packard Company
  29:/Library/DaisyToolchain/0.2.0/arm/arm-none-eabi/include/c++/10.3.1/bits/stl_algobase.h ****  *
ARM GAS  /var/folders/9s/8rp0_f2s1n31qbztm3b5_fdh0000gn/T//ccynLXMW.s 			page 3


  30:/Library/DaisyToolchain/0.2.0/arm/arm-none-eabi/include/c++/10.3.1/bits/stl_algobase.h ****  * Permission to use, copy, modify, distribute and sell this software
  31:/Library/DaisyToolchain/0.2.0/arm/arm-none-eabi/include/c++/10.3.1/bits/stl_algobase.h ****  * and its documentation for any purpose is hereby granted without fee,
  32:/Library/DaisyToolchain/0.2.0/arm/arm-none-eabi/include/c++/10.3.1/bits/stl_algobase.h ****  * provided that the above copyright notice appear in all copies and
  33:/Library/DaisyToolchain/0.2.0/arm/arm-none-eabi/include/c++/10.3.1/bits/stl_algobase.h ****  * that both that copyright notice and this permission notice appear
  34:/Library/DaisyToolchain/0.2.0/arm/arm-none-eabi/include/c++/10.3.1/bits/stl_algobase.h ****  * in supporting documentation.  Hewlett-Packard Company makes no
  35:/Library/DaisyToolchain/0.2.0/arm/arm-none-eabi/include/c++/10.3.1/bits/stl_algobase.h ****  * representations about the suitability of this software for any
  36:/Library/DaisyToolchain/0.2.0/arm/arm-none-eabi/include/c++/10.3.1/bits/stl_algobase.h ****  * purpose.  It is provided "as is" without express or implied warranty.
  37:/Library/DaisyToolchain/0.2.0/arm/arm-none-eabi/include/c++/10.3.1/bits/stl_algobase.h ****  *
  38:/Library/DaisyToolchain/0.2.0/arm/arm-none-eabi/include/c++/10.3.1/bits/stl_algobase.h ****  *
  39:/Library/DaisyToolchain/0.2.0/arm/arm-none-eabi/include/c++/10.3.1/bits/stl_algobase.h ****  * Copyright (c) 1996-1998
  40:/Library/DaisyToolchain/0.2.0/arm/arm-none-eabi/include/c++/10.3.1/bits/stl_algobase.h ****  * Silicon Graphics Computer Systems, Inc.
  41:/Library/DaisyToolchain/0.2.0/arm/arm-none-eabi/include/c++/10.3.1/bits/stl_algobase.h ****  *
  42:/Library/DaisyToolchain/0.2.0/arm/arm-none-eabi/include/c++/10.3.1/bits/stl_algobase.h ****  * Permission to use, copy, modify, distribute and sell this software
  43:/Library/DaisyToolchain/0.2.0/arm/arm-none-eabi/include/c++/10.3.1/bits/stl_algobase.h ****  * and its documentation for any purpose is hereby granted without fee,
  44:/Library/DaisyToolchain/0.2.0/arm/arm-none-eabi/include/c++/10.3.1/bits/stl_algobase.h ****  * provided that the above copyright notice appear in all copies and
  45:/Library/DaisyToolchain/0.2.0/arm/arm-none-eabi/include/c++/10.3.1/bits/stl_algobase.h ****  * that both that copyright notice and this permission notice appear
  46:/Library/DaisyToolchain/0.2.0/arm/arm-none-eabi/include/c++/10.3.1/bits/stl_algobase.h ****  * in supporting documentation.  Silicon Graphics makes no
  47:/Library/DaisyToolchain/0.2.0/arm/arm-none-eabi/include/c++/10.3.1/bits/stl_algobase.h ****  * representations about the suitability of this software for any
  48:/Library/DaisyToolchain/0.2.0/arm/arm-none-eabi/include/c++/10.3.1/bits/stl_algobase.h ****  * purpose.  It is provided "as is" without express or implied warranty.
  49:/Library/DaisyToolchain/0.2.0/arm/arm-none-eabi/include/c++/10.3.1/bits/stl_algobase.h ****  */
  50:/Library/DaisyToolchain/0.2.0/arm/arm-none-eabi/include/c++/10.3.1/bits/stl_algobase.h **** 
  51:/Library/DaisyToolchain/0.2.0/arm/arm-none-eabi/include/c++/10.3.1/bits/stl_algobase.h **** /** @file bits/stl_algobase.h
  52:/Library/DaisyToolchain/0.2.0/arm/arm-none-eabi/include/c++/10.3.1/bits/stl_algobase.h ****  *  This is an internal header file, included by other library headers.
  53:/Library/DaisyToolchain/0.2.0/arm/arm-none-eabi/include/c++/10.3.1/bits/stl_algobase.h ****  *  Do not attempt to use it directly. @headername{algorithm}
  54:/Library/DaisyToolchain/0.2.0/arm/arm-none-eabi/include/c++/10.3.1/bits/stl_algobase.h ****  */
  55:/Library/DaisyToolchain/0.2.0/arm/arm-none-eabi/include/c++/10.3.1/bits/stl_algobase.h **** 
  56:/Library/DaisyToolchain/0.2.0/arm/arm-none-eabi/include/c++/10.3.1/bits/stl_algobase.h **** #ifndef _STL_ALGOBASE_H
  57:/Library/DaisyToolchain/0.2.0/arm/arm-none-eabi/include/c++/10.3.1/bits/stl_algobase.h **** #define _STL_ALGOBASE_H 1
  58:/Library/DaisyToolchain/0.2.0/arm/arm-none-eabi/include/c++/10.3.1/bits/stl_algobase.h **** 
  59:/Library/DaisyToolchain/0.2.0/arm/arm-none-eabi/include/c++/10.3.1/bits/stl_algobase.h **** #include <bits/c++config.h>
  60:/Library/DaisyToolchain/0.2.0/arm/arm-none-eabi/include/c++/10.3.1/bits/stl_algobase.h **** #include <bits/functexcept.h>
  61:/Library/DaisyToolchain/0.2.0/arm/arm-none-eabi/include/c++/10.3.1/bits/stl_algobase.h **** #include <bits/cpp_type_traits.h>
  62:/Library/DaisyToolchain/0.2.0/arm/arm-none-eabi/include/c++/10.3.1/bits/stl_algobase.h **** #include <ext/type_traits.h>
  63:/Library/DaisyToolchain/0.2.0/arm/arm-none-eabi/include/c++/10.3.1/bits/stl_algobase.h **** #include <ext/numeric_traits.h>
  64:/Library/DaisyToolchain/0.2.0/arm/arm-none-eabi/include/c++/10.3.1/bits/stl_algobase.h **** #include <bits/stl_pair.h>
  65:/Library/DaisyToolchain/0.2.0/arm/arm-none-eabi/include/c++/10.3.1/bits/stl_algobase.h **** #include <bits/stl_iterator_base_types.h>
  66:/Library/DaisyToolchain/0.2.0/arm/arm-none-eabi/include/c++/10.3.1/bits/stl_algobase.h **** #include <bits/stl_iterator_base_funcs.h>
  67:/Library/DaisyToolchain/0.2.0/arm/arm-none-eabi/include/c++/10.3.1/bits/stl_algobase.h **** #include <bits/stl_iterator.h>
  68:/Library/DaisyToolchain/0.2.0/arm/arm-none-eabi/include/c++/10.3.1/bits/stl_algobase.h **** #include <bits/concept_check.h>
  69:/Library/DaisyToolchain/0.2.0/arm/arm-none-eabi/include/c++/10.3.1/bits/stl_algobase.h **** #include <debug/debug.h>
  70:/Library/DaisyToolchain/0.2.0/arm/arm-none-eabi/include/c++/10.3.1/bits/stl_algobase.h **** #include <bits/move.h> // For std::swap
  71:/Library/DaisyToolchain/0.2.0/arm/arm-none-eabi/include/c++/10.3.1/bits/stl_algobase.h **** #include <bits/predefined_ops.h>
  72:/Library/DaisyToolchain/0.2.0/arm/arm-none-eabi/include/c++/10.3.1/bits/stl_algobase.h **** #if __cplusplus >= 201103L
  73:/Library/DaisyToolchain/0.2.0/arm/arm-none-eabi/include/c++/10.3.1/bits/stl_algobase.h **** # include <type_traits>
  74:/Library/DaisyToolchain/0.2.0/arm/arm-none-eabi/include/c++/10.3.1/bits/stl_algobase.h **** #endif
  75:/Library/DaisyToolchain/0.2.0/arm/arm-none-eabi/include/c++/10.3.1/bits/stl_algobase.h **** #if __cplusplus > 201703L
  76:/Library/DaisyToolchain/0.2.0/arm/arm-none-eabi/include/c++/10.3.1/bits/stl_algobase.h **** # include <compare>
  77:/Library/DaisyToolchain/0.2.0/arm/arm-none-eabi/include/c++/10.3.1/bits/stl_algobase.h **** #endif
  78:/Library/DaisyToolchain/0.2.0/arm/arm-none-eabi/include/c++/10.3.1/bits/stl_algobase.h **** 
  79:/Library/DaisyToolchain/0.2.0/arm/arm-none-eabi/include/c++/10.3.1/bits/stl_algobase.h **** namespace std _GLIBCXX_VISIBILITY(default)
  80:/Library/DaisyToolchain/0.2.0/arm/arm-none-eabi/include/c++/10.3.1/bits/stl_algobase.h **** {
  81:/Library/DaisyToolchain/0.2.0/arm/arm-none-eabi/include/c++/10.3.1/bits/stl_algobase.h **** _GLIBCXX_BEGIN_NAMESPACE_VERSION
  82:/Library/DaisyToolchain/0.2.0/arm/arm-none-eabi/include/c++/10.3.1/bits/stl_algobase.h **** 
  83:/Library/DaisyToolchain/0.2.0/arm/arm-none-eabi/include/c++/10.3.1/bits/stl_algobase.h ****   /*
  84:/Library/DaisyToolchain/0.2.0/arm/arm-none-eabi/include/c++/10.3.1/bits/stl_algobase.h ****    * A constexpr wrapper for __builtin_memcmp.
  85:/Library/DaisyToolchain/0.2.0/arm/arm-none-eabi/include/c++/10.3.1/bits/stl_algobase.h ****    * @param __num The number of elements of type _Tp (not bytes).
  86:/Library/DaisyToolchain/0.2.0/arm/arm-none-eabi/include/c++/10.3.1/bits/stl_algobase.h ****    */
ARM GAS  /var/folders/9s/8rp0_f2s1n31qbztm3b5_fdh0000gn/T//ccynLXMW.s 			page 4


  87:/Library/DaisyToolchain/0.2.0/arm/arm-none-eabi/include/c++/10.3.1/bits/stl_algobase.h ****   template<typename _Tp, typename _Up>
  88:/Library/DaisyToolchain/0.2.0/arm/arm-none-eabi/include/c++/10.3.1/bits/stl_algobase.h ****     _GLIBCXX14_CONSTEXPR
  89:/Library/DaisyToolchain/0.2.0/arm/arm-none-eabi/include/c++/10.3.1/bits/stl_algobase.h ****     inline int
  90:/Library/DaisyToolchain/0.2.0/arm/arm-none-eabi/include/c++/10.3.1/bits/stl_algobase.h ****     __memcmp(const _Tp* __first1, const _Up* __first2, size_t __num)
  91:/Library/DaisyToolchain/0.2.0/arm/arm-none-eabi/include/c++/10.3.1/bits/stl_algobase.h ****     {
  92:/Library/DaisyToolchain/0.2.0/arm/arm-none-eabi/include/c++/10.3.1/bits/stl_algobase.h **** #if __cplusplus >= 201103L
  93:/Library/DaisyToolchain/0.2.0/arm/arm-none-eabi/include/c++/10.3.1/bits/stl_algobase.h ****       static_assert(sizeof(_Tp) == sizeof(_Up), "can be compared with memcmp");
  94:/Library/DaisyToolchain/0.2.0/arm/arm-none-eabi/include/c++/10.3.1/bits/stl_algobase.h **** #endif
  95:/Library/DaisyToolchain/0.2.0/arm/arm-none-eabi/include/c++/10.3.1/bits/stl_algobase.h **** #ifdef __cpp_lib_is_constant_evaluated
  96:/Library/DaisyToolchain/0.2.0/arm/arm-none-eabi/include/c++/10.3.1/bits/stl_algobase.h ****       if (std::is_constant_evaluated())
  97:/Library/DaisyToolchain/0.2.0/arm/arm-none-eabi/include/c++/10.3.1/bits/stl_algobase.h **** 	{
  98:/Library/DaisyToolchain/0.2.0/arm/arm-none-eabi/include/c++/10.3.1/bits/stl_algobase.h **** 	  for(; __num > 0; ++__first1, ++__first2, --__num)
  99:/Library/DaisyToolchain/0.2.0/arm/arm-none-eabi/include/c++/10.3.1/bits/stl_algobase.h **** 	    if (*__first1 != *__first2)
 100:/Library/DaisyToolchain/0.2.0/arm/arm-none-eabi/include/c++/10.3.1/bits/stl_algobase.h **** 	      return *__first1 < *__first2 ? -1 : 1;
 101:/Library/DaisyToolchain/0.2.0/arm/arm-none-eabi/include/c++/10.3.1/bits/stl_algobase.h **** 	  return 0;
 102:/Library/DaisyToolchain/0.2.0/arm/arm-none-eabi/include/c++/10.3.1/bits/stl_algobase.h **** 	}
 103:/Library/DaisyToolchain/0.2.0/arm/arm-none-eabi/include/c++/10.3.1/bits/stl_algobase.h ****       else
 104:/Library/DaisyToolchain/0.2.0/arm/arm-none-eabi/include/c++/10.3.1/bits/stl_algobase.h **** #endif
 105:/Library/DaisyToolchain/0.2.0/arm/arm-none-eabi/include/c++/10.3.1/bits/stl_algobase.h **** 	return __builtin_memcmp(__first1, __first2, sizeof(_Tp) * __num);
 106:/Library/DaisyToolchain/0.2.0/arm/arm-none-eabi/include/c++/10.3.1/bits/stl_algobase.h ****     }
 107:/Library/DaisyToolchain/0.2.0/arm/arm-none-eabi/include/c++/10.3.1/bits/stl_algobase.h **** 
 108:/Library/DaisyToolchain/0.2.0/arm/arm-none-eabi/include/c++/10.3.1/bits/stl_algobase.h **** #if __cplusplus < 201103L
 109:/Library/DaisyToolchain/0.2.0/arm/arm-none-eabi/include/c++/10.3.1/bits/stl_algobase.h ****   // See http://gcc.gnu.org/ml/libstdc++/2004-08/msg00167.html: in a
 110:/Library/DaisyToolchain/0.2.0/arm/arm-none-eabi/include/c++/10.3.1/bits/stl_algobase.h ****   // nutshell, we are partially implementing the resolution of DR 187,
 111:/Library/DaisyToolchain/0.2.0/arm/arm-none-eabi/include/c++/10.3.1/bits/stl_algobase.h ****   // when it's safe, i.e., the value_types are equal.
 112:/Library/DaisyToolchain/0.2.0/arm/arm-none-eabi/include/c++/10.3.1/bits/stl_algobase.h ****   template<bool _BoolType>
 113:/Library/DaisyToolchain/0.2.0/arm/arm-none-eabi/include/c++/10.3.1/bits/stl_algobase.h ****     struct __iter_swap
 114:/Library/DaisyToolchain/0.2.0/arm/arm-none-eabi/include/c++/10.3.1/bits/stl_algobase.h ****     {
 115:/Library/DaisyToolchain/0.2.0/arm/arm-none-eabi/include/c++/10.3.1/bits/stl_algobase.h ****       template<typename _ForwardIterator1, typename _ForwardIterator2>
 116:/Library/DaisyToolchain/0.2.0/arm/arm-none-eabi/include/c++/10.3.1/bits/stl_algobase.h **** 	static void
 117:/Library/DaisyToolchain/0.2.0/arm/arm-none-eabi/include/c++/10.3.1/bits/stl_algobase.h **** 	iter_swap(_ForwardIterator1 __a, _ForwardIterator2 __b)
 118:/Library/DaisyToolchain/0.2.0/arm/arm-none-eabi/include/c++/10.3.1/bits/stl_algobase.h **** 	{
 119:/Library/DaisyToolchain/0.2.0/arm/arm-none-eabi/include/c++/10.3.1/bits/stl_algobase.h **** 	  typedef typename iterator_traits<_ForwardIterator1>::value_type
 120:/Library/DaisyToolchain/0.2.0/arm/arm-none-eabi/include/c++/10.3.1/bits/stl_algobase.h **** 	    _ValueType1;
 121:/Library/DaisyToolchain/0.2.0/arm/arm-none-eabi/include/c++/10.3.1/bits/stl_algobase.h **** 	  _ValueType1 __tmp = *__a;
 122:/Library/DaisyToolchain/0.2.0/arm/arm-none-eabi/include/c++/10.3.1/bits/stl_algobase.h **** 	  *__a = *__b;
 123:/Library/DaisyToolchain/0.2.0/arm/arm-none-eabi/include/c++/10.3.1/bits/stl_algobase.h **** 	  *__b = __tmp;
 124:/Library/DaisyToolchain/0.2.0/arm/arm-none-eabi/include/c++/10.3.1/bits/stl_algobase.h **** 	}
 125:/Library/DaisyToolchain/0.2.0/arm/arm-none-eabi/include/c++/10.3.1/bits/stl_algobase.h ****     };
 126:/Library/DaisyToolchain/0.2.0/arm/arm-none-eabi/include/c++/10.3.1/bits/stl_algobase.h **** 
 127:/Library/DaisyToolchain/0.2.0/arm/arm-none-eabi/include/c++/10.3.1/bits/stl_algobase.h ****   template<>
 128:/Library/DaisyToolchain/0.2.0/arm/arm-none-eabi/include/c++/10.3.1/bits/stl_algobase.h ****     struct __iter_swap<true>
 129:/Library/DaisyToolchain/0.2.0/arm/arm-none-eabi/include/c++/10.3.1/bits/stl_algobase.h ****     {
 130:/Library/DaisyToolchain/0.2.0/arm/arm-none-eabi/include/c++/10.3.1/bits/stl_algobase.h ****       template<typename _ForwardIterator1, typename _ForwardIterator2>
 131:/Library/DaisyToolchain/0.2.0/arm/arm-none-eabi/include/c++/10.3.1/bits/stl_algobase.h **** 	static void
 132:/Library/DaisyToolchain/0.2.0/arm/arm-none-eabi/include/c++/10.3.1/bits/stl_algobase.h **** 	iter_swap(_ForwardIterator1 __a, _ForwardIterator2 __b)
 133:/Library/DaisyToolchain/0.2.0/arm/arm-none-eabi/include/c++/10.3.1/bits/stl_algobase.h **** 	{
 134:/Library/DaisyToolchain/0.2.0/arm/arm-none-eabi/include/c++/10.3.1/bits/stl_algobase.h **** 	  swap(*__a, *__b);
 135:/Library/DaisyToolchain/0.2.0/arm/arm-none-eabi/include/c++/10.3.1/bits/stl_algobase.h **** 	}
 136:/Library/DaisyToolchain/0.2.0/arm/arm-none-eabi/include/c++/10.3.1/bits/stl_algobase.h ****     };
 137:/Library/DaisyToolchain/0.2.0/arm/arm-none-eabi/include/c++/10.3.1/bits/stl_algobase.h **** #endif // C++03
 138:/Library/DaisyToolchain/0.2.0/arm/arm-none-eabi/include/c++/10.3.1/bits/stl_algobase.h **** 
 139:/Library/DaisyToolchain/0.2.0/arm/arm-none-eabi/include/c++/10.3.1/bits/stl_algobase.h ****   /**
 140:/Library/DaisyToolchain/0.2.0/arm/arm-none-eabi/include/c++/10.3.1/bits/stl_algobase.h ****    *  @brief Swaps the contents of two iterators.
 141:/Library/DaisyToolchain/0.2.0/arm/arm-none-eabi/include/c++/10.3.1/bits/stl_algobase.h ****    *  @ingroup mutating_algorithms
 142:/Library/DaisyToolchain/0.2.0/arm/arm-none-eabi/include/c++/10.3.1/bits/stl_algobase.h ****    *  @param  __a  An iterator.
 143:/Library/DaisyToolchain/0.2.0/arm/arm-none-eabi/include/c++/10.3.1/bits/stl_algobase.h ****    *  @param  __b  Another iterator.
ARM GAS  /var/folders/9s/8rp0_f2s1n31qbztm3b5_fdh0000gn/T//ccynLXMW.s 			page 5


 144:/Library/DaisyToolchain/0.2.0/arm/arm-none-eabi/include/c++/10.3.1/bits/stl_algobase.h ****    *  @return   Nothing.
 145:/Library/DaisyToolchain/0.2.0/arm/arm-none-eabi/include/c++/10.3.1/bits/stl_algobase.h ****    *
 146:/Library/DaisyToolchain/0.2.0/arm/arm-none-eabi/include/c++/10.3.1/bits/stl_algobase.h ****    *  This function swaps the values pointed to by two iterators, not the
 147:/Library/DaisyToolchain/0.2.0/arm/arm-none-eabi/include/c++/10.3.1/bits/stl_algobase.h ****    *  iterators themselves.
 148:/Library/DaisyToolchain/0.2.0/arm/arm-none-eabi/include/c++/10.3.1/bits/stl_algobase.h ****   */
 149:/Library/DaisyToolchain/0.2.0/arm/arm-none-eabi/include/c++/10.3.1/bits/stl_algobase.h ****   template<typename _ForwardIterator1, typename _ForwardIterator2>
 150:/Library/DaisyToolchain/0.2.0/arm/arm-none-eabi/include/c++/10.3.1/bits/stl_algobase.h ****     _GLIBCXX20_CONSTEXPR
 151:/Library/DaisyToolchain/0.2.0/arm/arm-none-eabi/include/c++/10.3.1/bits/stl_algobase.h ****     inline void
 152:/Library/DaisyToolchain/0.2.0/arm/arm-none-eabi/include/c++/10.3.1/bits/stl_algobase.h ****     iter_swap(_ForwardIterator1 __a, _ForwardIterator2 __b)
 153:/Library/DaisyToolchain/0.2.0/arm/arm-none-eabi/include/c++/10.3.1/bits/stl_algobase.h ****     {
 154:/Library/DaisyToolchain/0.2.0/arm/arm-none-eabi/include/c++/10.3.1/bits/stl_algobase.h ****       // concept requirements
 155:/Library/DaisyToolchain/0.2.0/arm/arm-none-eabi/include/c++/10.3.1/bits/stl_algobase.h ****       __glibcxx_function_requires(_Mutable_ForwardIteratorConcept<
 156:/Library/DaisyToolchain/0.2.0/arm/arm-none-eabi/include/c++/10.3.1/bits/stl_algobase.h **** 				  _ForwardIterator1>)
 157:/Library/DaisyToolchain/0.2.0/arm/arm-none-eabi/include/c++/10.3.1/bits/stl_algobase.h ****       __glibcxx_function_requires(_Mutable_ForwardIteratorConcept<
 158:/Library/DaisyToolchain/0.2.0/arm/arm-none-eabi/include/c++/10.3.1/bits/stl_algobase.h **** 				  _ForwardIterator2>)
 159:/Library/DaisyToolchain/0.2.0/arm/arm-none-eabi/include/c++/10.3.1/bits/stl_algobase.h **** 
 160:/Library/DaisyToolchain/0.2.0/arm/arm-none-eabi/include/c++/10.3.1/bits/stl_algobase.h **** #if __cplusplus < 201103L
 161:/Library/DaisyToolchain/0.2.0/arm/arm-none-eabi/include/c++/10.3.1/bits/stl_algobase.h ****       typedef typename iterator_traits<_ForwardIterator1>::value_type
 162:/Library/DaisyToolchain/0.2.0/arm/arm-none-eabi/include/c++/10.3.1/bits/stl_algobase.h **** 	_ValueType1;
 163:/Library/DaisyToolchain/0.2.0/arm/arm-none-eabi/include/c++/10.3.1/bits/stl_algobase.h ****       typedef typename iterator_traits<_ForwardIterator2>::value_type
 164:/Library/DaisyToolchain/0.2.0/arm/arm-none-eabi/include/c++/10.3.1/bits/stl_algobase.h **** 	_ValueType2;
 165:/Library/DaisyToolchain/0.2.0/arm/arm-none-eabi/include/c++/10.3.1/bits/stl_algobase.h **** 
 166:/Library/DaisyToolchain/0.2.0/arm/arm-none-eabi/include/c++/10.3.1/bits/stl_algobase.h ****       __glibcxx_function_requires(_ConvertibleConcept<_ValueType1,
 167:/Library/DaisyToolchain/0.2.0/arm/arm-none-eabi/include/c++/10.3.1/bits/stl_algobase.h **** 				  _ValueType2>)
 168:/Library/DaisyToolchain/0.2.0/arm/arm-none-eabi/include/c++/10.3.1/bits/stl_algobase.h ****       __glibcxx_function_requires(_ConvertibleConcept<_ValueType2,
 169:/Library/DaisyToolchain/0.2.0/arm/arm-none-eabi/include/c++/10.3.1/bits/stl_algobase.h **** 				  _ValueType1>)
 170:/Library/DaisyToolchain/0.2.0/arm/arm-none-eabi/include/c++/10.3.1/bits/stl_algobase.h **** 
 171:/Library/DaisyToolchain/0.2.0/arm/arm-none-eabi/include/c++/10.3.1/bits/stl_algobase.h ****       typedef typename iterator_traits<_ForwardIterator1>::reference
 172:/Library/DaisyToolchain/0.2.0/arm/arm-none-eabi/include/c++/10.3.1/bits/stl_algobase.h **** 	_ReferenceType1;
 173:/Library/DaisyToolchain/0.2.0/arm/arm-none-eabi/include/c++/10.3.1/bits/stl_algobase.h ****       typedef typename iterator_traits<_ForwardIterator2>::reference
 174:/Library/DaisyToolchain/0.2.0/arm/arm-none-eabi/include/c++/10.3.1/bits/stl_algobase.h **** 	_ReferenceType2;
 175:/Library/DaisyToolchain/0.2.0/arm/arm-none-eabi/include/c++/10.3.1/bits/stl_algobase.h ****       std::__iter_swap<__are_same<_ValueType1, _ValueType2>::__value
 176:/Library/DaisyToolchain/0.2.0/arm/arm-none-eabi/include/c++/10.3.1/bits/stl_algobase.h **** 	&& __are_same<_ValueType1&, _ReferenceType1>::__value
 177:/Library/DaisyToolchain/0.2.0/arm/arm-none-eabi/include/c++/10.3.1/bits/stl_algobase.h **** 	&& __are_same<_ValueType2&, _ReferenceType2>::__value>::
 178:/Library/DaisyToolchain/0.2.0/arm/arm-none-eabi/include/c++/10.3.1/bits/stl_algobase.h **** 	iter_swap(__a, __b);
 179:/Library/DaisyToolchain/0.2.0/arm/arm-none-eabi/include/c++/10.3.1/bits/stl_algobase.h **** #else
 180:/Library/DaisyToolchain/0.2.0/arm/arm-none-eabi/include/c++/10.3.1/bits/stl_algobase.h ****       // _GLIBCXX_RESOLVE_LIB_DEFECTS
 181:/Library/DaisyToolchain/0.2.0/arm/arm-none-eabi/include/c++/10.3.1/bits/stl_algobase.h ****       // 187. iter_swap underspecified
 182:/Library/DaisyToolchain/0.2.0/arm/arm-none-eabi/include/c++/10.3.1/bits/stl_algobase.h ****       swap(*__a, *__b);
 183:/Library/DaisyToolchain/0.2.0/arm/arm-none-eabi/include/c++/10.3.1/bits/stl_algobase.h **** #endif
 184:/Library/DaisyToolchain/0.2.0/arm/arm-none-eabi/include/c++/10.3.1/bits/stl_algobase.h ****     }
 185:/Library/DaisyToolchain/0.2.0/arm/arm-none-eabi/include/c++/10.3.1/bits/stl_algobase.h **** 
 186:/Library/DaisyToolchain/0.2.0/arm/arm-none-eabi/include/c++/10.3.1/bits/stl_algobase.h ****   /**
 187:/Library/DaisyToolchain/0.2.0/arm/arm-none-eabi/include/c++/10.3.1/bits/stl_algobase.h ****    *  @brief Swap the elements of two sequences.
 188:/Library/DaisyToolchain/0.2.0/arm/arm-none-eabi/include/c++/10.3.1/bits/stl_algobase.h ****    *  @ingroup mutating_algorithms
 189:/Library/DaisyToolchain/0.2.0/arm/arm-none-eabi/include/c++/10.3.1/bits/stl_algobase.h ****    *  @param  __first1  A forward iterator.
 190:/Library/DaisyToolchain/0.2.0/arm/arm-none-eabi/include/c++/10.3.1/bits/stl_algobase.h ****    *  @param  __last1   A forward iterator.
 191:/Library/DaisyToolchain/0.2.0/arm/arm-none-eabi/include/c++/10.3.1/bits/stl_algobase.h ****    *  @param  __first2  A forward iterator.
 192:/Library/DaisyToolchain/0.2.0/arm/arm-none-eabi/include/c++/10.3.1/bits/stl_algobase.h ****    *  @return   An iterator equal to @p first2+(last1-first1).
 193:/Library/DaisyToolchain/0.2.0/arm/arm-none-eabi/include/c++/10.3.1/bits/stl_algobase.h ****    *
 194:/Library/DaisyToolchain/0.2.0/arm/arm-none-eabi/include/c++/10.3.1/bits/stl_algobase.h ****    *  Swaps each element in the range @p [first1,last1) with the
 195:/Library/DaisyToolchain/0.2.0/arm/arm-none-eabi/include/c++/10.3.1/bits/stl_algobase.h ****    *  corresponding element in the range @p [first2,(last1-first1)).
 196:/Library/DaisyToolchain/0.2.0/arm/arm-none-eabi/include/c++/10.3.1/bits/stl_algobase.h ****    *  The ranges must not overlap.
 197:/Library/DaisyToolchain/0.2.0/arm/arm-none-eabi/include/c++/10.3.1/bits/stl_algobase.h ****   */
 198:/Library/DaisyToolchain/0.2.0/arm/arm-none-eabi/include/c++/10.3.1/bits/stl_algobase.h ****   template<typename _ForwardIterator1, typename _ForwardIterator2>
 199:/Library/DaisyToolchain/0.2.0/arm/arm-none-eabi/include/c++/10.3.1/bits/stl_algobase.h ****     _GLIBCXX20_CONSTEXPR
 200:/Library/DaisyToolchain/0.2.0/arm/arm-none-eabi/include/c++/10.3.1/bits/stl_algobase.h ****     _ForwardIterator2
ARM GAS  /var/folders/9s/8rp0_f2s1n31qbztm3b5_fdh0000gn/T//ccynLXMW.s 			page 6


 201:/Library/DaisyToolchain/0.2.0/arm/arm-none-eabi/include/c++/10.3.1/bits/stl_algobase.h ****     swap_ranges(_ForwardIterator1 __first1, _ForwardIterator1 __last1,
 202:/Library/DaisyToolchain/0.2.0/arm/arm-none-eabi/include/c++/10.3.1/bits/stl_algobase.h **** 		_ForwardIterator2 __first2)
 203:/Library/DaisyToolchain/0.2.0/arm/arm-none-eabi/include/c++/10.3.1/bits/stl_algobase.h ****     {
 204:/Library/DaisyToolchain/0.2.0/arm/arm-none-eabi/include/c++/10.3.1/bits/stl_algobase.h ****       // concept requirements
 205:/Library/DaisyToolchain/0.2.0/arm/arm-none-eabi/include/c++/10.3.1/bits/stl_algobase.h ****       __glibcxx_function_requires(_Mutable_ForwardIteratorConcept<
 206:/Library/DaisyToolchain/0.2.0/arm/arm-none-eabi/include/c++/10.3.1/bits/stl_algobase.h **** 				  _ForwardIterator1>)
 207:/Library/DaisyToolchain/0.2.0/arm/arm-none-eabi/include/c++/10.3.1/bits/stl_algobase.h ****       __glibcxx_function_requires(_Mutable_ForwardIteratorConcept<
 208:/Library/DaisyToolchain/0.2.0/arm/arm-none-eabi/include/c++/10.3.1/bits/stl_algobase.h **** 				  _ForwardIterator2>)
 209:/Library/DaisyToolchain/0.2.0/arm/arm-none-eabi/include/c++/10.3.1/bits/stl_algobase.h ****       __glibcxx_requires_valid_range(__first1, __last1);
 210:/Library/DaisyToolchain/0.2.0/arm/arm-none-eabi/include/c++/10.3.1/bits/stl_algobase.h **** 
 211:/Library/DaisyToolchain/0.2.0/arm/arm-none-eabi/include/c++/10.3.1/bits/stl_algobase.h ****       for (; __first1 != __last1; ++__first1, (void)++__first2)
 212:/Library/DaisyToolchain/0.2.0/arm/arm-none-eabi/include/c++/10.3.1/bits/stl_algobase.h **** 	std::iter_swap(__first1, __first2);
 213:/Library/DaisyToolchain/0.2.0/arm/arm-none-eabi/include/c++/10.3.1/bits/stl_algobase.h ****       return __first2;
 214:/Library/DaisyToolchain/0.2.0/arm/arm-none-eabi/include/c++/10.3.1/bits/stl_algobase.h ****     }
 215:/Library/DaisyToolchain/0.2.0/arm/arm-none-eabi/include/c++/10.3.1/bits/stl_algobase.h **** 
 216:/Library/DaisyToolchain/0.2.0/arm/arm-none-eabi/include/c++/10.3.1/bits/stl_algobase.h ****   /**
 217:/Library/DaisyToolchain/0.2.0/arm/arm-none-eabi/include/c++/10.3.1/bits/stl_algobase.h ****    *  @brief This does what you think it does.
 218:/Library/DaisyToolchain/0.2.0/arm/arm-none-eabi/include/c++/10.3.1/bits/stl_algobase.h ****    *  @ingroup sorting_algorithms
 219:/Library/DaisyToolchain/0.2.0/arm/arm-none-eabi/include/c++/10.3.1/bits/stl_algobase.h ****    *  @param  __a  A thing of arbitrary type.
 220:/Library/DaisyToolchain/0.2.0/arm/arm-none-eabi/include/c++/10.3.1/bits/stl_algobase.h ****    *  @param  __b  Another thing of arbitrary type.
 221:/Library/DaisyToolchain/0.2.0/arm/arm-none-eabi/include/c++/10.3.1/bits/stl_algobase.h ****    *  @return   The lesser of the parameters.
 222:/Library/DaisyToolchain/0.2.0/arm/arm-none-eabi/include/c++/10.3.1/bits/stl_algobase.h ****    *
 223:/Library/DaisyToolchain/0.2.0/arm/arm-none-eabi/include/c++/10.3.1/bits/stl_algobase.h ****    *  This is the simple classic generic implementation.  It will work on
 224:/Library/DaisyToolchain/0.2.0/arm/arm-none-eabi/include/c++/10.3.1/bits/stl_algobase.h ****    *  temporary expressions, since they are only evaluated once, unlike a
 225:/Library/DaisyToolchain/0.2.0/arm/arm-none-eabi/include/c++/10.3.1/bits/stl_algobase.h ****    *  preprocessor macro.
 226:/Library/DaisyToolchain/0.2.0/arm/arm-none-eabi/include/c++/10.3.1/bits/stl_algobase.h ****   */
 227:/Library/DaisyToolchain/0.2.0/arm/arm-none-eabi/include/c++/10.3.1/bits/stl_algobase.h ****   template<typename _Tp>
 228:/Library/DaisyToolchain/0.2.0/arm/arm-none-eabi/include/c++/10.3.1/bits/stl_algobase.h ****     _GLIBCXX14_CONSTEXPR
 229:/Library/DaisyToolchain/0.2.0/arm/arm-none-eabi/include/c++/10.3.1/bits/stl_algobase.h ****     inline const _Tp&
 230:/Library/DaisyToolchain/0.2.0/arm/arm-none-eabi/include/c++/10.3.1/bits/stl_algobase.h ****     min(const _Tp& __a, const _Tp& __b)
 231:/Library/DaisyToolchain/0.2.0/arm/arm-none-eabi/include/c++/10.3.1/bits/stl_algobase.h ****     {
 232:/Library/DaisyToolchain/0.2.0/arm/arm-none-eabi/include/c++/10.3.1/bits/stl_algobase.h ****       // concept requirements
 233:/Library/DaisyToolchain/0.2.0/arm/arm-none-eabi/include/c++/10.3.1/bits/stl_algobase.h ****       __glibcxx_function_requires(_LessThanComparableConcept<_Tp>)
 234:/Library/DaisyToolchain/0.2.0/arm/arm-none-eabi/include/c++/10.3.1/bits/stl_algobase.h ****       //return __b < __a ? __b : __a;
 235:/Library/DaisyToolchain/0.2.0/arm/arm-none-eabi/include/c++/10.3.1/bits/stl_algobase.h ****       if (__b < __a)
 236:/Library/DaisyToolchain/0.2.0/arm/arm-none-eabi/include/c++/10.3.1/bits/stl_algobase.h **** 	return __b;
 237:/Library/DaisyToolchain/0.2.0/arm/arm-none-eabi/include/c++/10.3.1/bits/stl_algobase.h ****       return __a;
 238:/Library/DaisyToolchain/0.2.0/arm/arm-none-eabi/include/c++/10.3.1/bits/stl_algobase.h ****     }
 239:/Library/DaisyToolchain/0.2.0/arm/arm-none-eabi/include/c++/10.3.1/bits/stl_algobase.h **** 
 240:/Library/DaisyToolchain/0.2.0/arm/arm-none-eabi/include/c++/10.3.1/bits/stl_algobase.h ****   /**
 241:/Library/DaisyToolchain/0.2.0/arm/arm-none-eabi/include/c++/10.3.1/bits/stl_algobase.h ****    *  @brief This does what you think it does.
 242:/Library/DaisyToolchain/0.2.0/arm/arm-none-eabi/include/c++/10.3.1/bits/stl_algobase.h ****    *  @ingroup sorting_algorithms
 243:/Library/DaisyToolchain/0.2.0/arm/arm-none-eabi/include/c++/10.3.1/bits/stl_algobase.h ****    *  @param  __a  A thing of arbitrary type.
 244:/Library/DaisyToolchain/0.2.0/arm/arm-none-eabi/include/c++/10.3.1/bits/stl_algobase.h ****    *  @param  __b  Another thing of arbitrary type.
 245:/Library/DaisyToolchain/0.2.0/arm/arm-none-eabi/include/c++/10.3.1/bits/stl_algobase.h ****    *  @return   The greater of the parameters.
 246:/Library/DaisyToolchain/0.2.0/arm/arm-none-eabi/include/c++/10.3.1/bits/stl_algobase.h ****    *
 247:/Library/DaisyToolchain/0.2.0/arm/arm-none-eabi/include/c++/10.3.1/bits/stl_algobase.h ****    *  This is the simple classic generic implementation.  It will work on
 248:/Library/DaisyToolchain/0.2.0/arm/arm-none-eabi/include/c++/10.3.1/bits/stl_algobase.h ****    *  temporary expressions, since they are only evaluated once, unlike a
 249:/Library/DaisyToolchain/0.2.0/arm/arm-none-eabi/include/c++/10.3.1/bits/stl_algobase.h ****    *  preprocessor macro.
 250:/Library/DaisyToolchain/0.2.0/arm/arm-none-eabi/include/c++/10.3.1/bits/stl_algobase.h ****   */
 251:/Library/DaisyToolchain/0.2.0/arm/arm-none-eabi/include/c++/10.3.1/bits/stl_algobase.h ****   template<typename _Tp>
 252:/Library/DaisyToolchain/0.2.0/arm/arm-none-eabi/include/c++/10.3.1/bits/stl_algobase.h ****     _GLIBCXX14_CONSTEXPR
 253:/Library/DaisyToolchain/0.2.0/arm/arm-none-eabi/include/c++/10.3.1/bits/stl_algobase.h ****     inline const _Tp&
 254:/Library/DaisyToolchain/0.2.0/arm/arm-none-eabi/include/c++/10.3.1/bits/stl_algobase.h ****     max(const _Tp& __a, const _Tp& __b)
 255:/Library/DaisyToolchain/0.2.0/arm/arm-none-eabi/include/c++/10.3.1/bits/stl_algobase.h ****     {
 256:/Library/DaisyToolchain/0.2.0/arm/arm-none-eabi/include/c++/10.3.1/bits/stl_algobase.h ****       // concept requirements
 257:/Library/DaisyToolchain/0.2.0/arm/arm-none-eabi/include/c++/10.3.1/bits/stl_algobase.h ****       __glibcxx_function_requires(_LessThanComparableConcept<_Tp>)
ARM GAS  /var/folders/9s/8rp0_f2s1n31qbztm3b5_fdh0000gn/T//ccynLXMW.s 			page 7


 258:/Library/DaisyToolchain/0.2.0/arm/arm-none-eabi/include/c++/10.3.1/bits/stl_algobase.h ****       //return  __a < __b ? __b : __a;
 259:/Library/DaisyToolchain/0.2.0/arm/arm-none-eabi/include/c++/10.3.1/bits/stl_algobase.h ****       if (__a < __b)
 260:/Library/DaisyToolchain/0.2.0/arm/arm-none-eabi/include/c++/10.3.1/bits/stl_algobase.h **** 	return __b;
 261:/Library/DaisyToolchain/0.2.0/arm/arm-none-eabi/include/c++/10.3.1/bits/stl_algobase.h ****       return __a;
 262:/Library/DaisyToolchain/0.2.0/arm/arm-none-eabi/include/c++/10.3.1/bits/stl_algobase.h ****     }
 263:/Library/DaisyToolchain/0.2.0/arm/arm-none-eabi/include/c++/10.3.1/bits/stl_algobase.h **** 
 264:/Library/DaisyToolchain/0.2.0/arm/arm-none-eabi/include/c++/10.3.1/bits/stl_algobase.h ****   /**
 265:/Library/DaisyToolchain/0.2.0/arm/arm-none-eabi/include/c++/10.3.1/bits/stl_algobase.h ****    *  @brief This does what you think it does.
 266:/Library/DaisyToolchain/0.2.0/arm/arm-none-eabi/include/c++/10.3.1/bits/stl_algobase.h ****    *  @ingroup sorting_algorithms
 267:/Library/DaisyToolchain/0.2.0/arm/arm-none-eabi/include/c++/10.3.1/bits/stl_algobase.h ****    *  @param  __a  A thing of arbitrary type.
 268:/Library/DaisyToolchain/0.2.0/arm/arm-none-eabi/include/c++/10.3.1/bits/stl_algobase.h ****    *  @param  __b  Another thing of arbitrary type.
 269:/Library/DaisyToolchain/0.2.0/arm/arm-none-eabi/include/c++/10.3.1/bits/stl_algobase.h ****    *  @param  __comp  A @link comparison_functors comparison functor@endlink.
 270:/Library/DaisyToolchain/0.2.0/arm/arm-none-eabi/include/c++/10.3.1/bits/stl_algobase.h ****    *  @return   The lesser of the parameters.
 271:/Library/DaisyToolchain/0.2.0/arm/arm-none-eabi/include/c++/10.3.1/bits/stl_algobase.h ****    *
 272:/Library/DaisyToolchain/0.2.0/arm/arm-none-eabi/include/c++/10.3.1/bits/stl_algobase.h ****    *  This will work on temporary expressions, since they are only evaluated
 273:/Library/DaisyToolchain/0.2.0/arm/arm-none-eabi/include/c++/10.3.1/bits/stl_algobase.h ****    *  once, unlike a preprocessor macro.
 274:/Library/DaisyToolchain/0.2.0/arm/arm-none-eabi/include/c++/10.3.1/bits/stl_algobase.h ****   */
 275:/Library/DaisyToolchain/0.2.0/arm/arm-none-eabi/include/c++/10.3.1/bits/stl_algobase.h ****   template<typename _Tp, typename _Compare>
 276:/Library/DaisyToolchain/0.2.0/arm/arm-none-eabi/include/c++/10.3.1/bits/stl_algobase.h ****     _GLIBCXX14_CONSTEXPR
 277:/Library/DaisyToolchain/0.2.0/arm/arm-none-eabi/include/c++/10.3.1/bits/stl_algobase.h ****     inline const _Tp&
 278:/Library/DaisyToolchain/0.2.0/arm/arm-none-eabi/include/c++/10.3.1/bits/stl_algobase.h ****     min(const _Tp& __a, const _Tp& __b, _Compare __comp)
 279:/Library/DaisyToolchain/0.2.0/arm/arm-none-eabi/include/c++/10.3.1/bits/stl_algobase.h ****     {
 280:/Library/DaisyToolchain/0.2.0/arm/arm-none-eabi/include/c++/10.3.1/bits/stl_algobase.h ****       //return __comp(__b, __a) ? __b : __a;
 281:/Library/DaisyToolchain/0.2.0/arm/arm-none-eabi/include/c++/10.3.1/bits/stl_algobase.h ****       if (__comp(__b, __a))
 282:/Library/DaisyToolchain/0.2.0/arm/arm-none-eabi/include/c++/10.3.1/bits/stl_algobase.h **** 	return __b;
 283:/Library/DaisyToolchain/0.2.0/arm/arm-none-eabi/include/c++/10.3.1/bits/stl_algobase.h ****       return __a;
 284:/Library/DaisyToolchain/0.2.0/arm/arm-none-eabi/include/c++/10.3.1/bits/stl_algobase.h ****     }
 285:/Library/DaisyToolchain/0.2.0/arm/arm-none-eabi/include/c++/10.3.1/bits/stl_algobase.h **** 
 286:/Library/DaisyToolchain/0.2.0/arm/arm-none-eabi/include/c++/10.3.1/bits/stl_algobase.h ****   /**
 287:/Library/DaisyToolchain/0.2.0/arm/arm-none-eabi/include/c++/10.3.1/bits/stl_algobase.h ****    *  @brief This does what you think it does.
 288:/Library/DaisyToolchain/0.2.0/arm/arm-none-eabi/include/c++/10.3.1/bits/stl_algobase.h ****    *  @ingroup sorting_algorithms
 289:/Library/DaisyToolchain/0.2.0/arm/arm-none-eabi/include/c++/10.3.1/bits/stl_algobase.h ****    *  @param  __a  A thing of arbitrary type.
 290:/Library/DaisyToolchain/0.2.0/arm/arm-none-eabi/include/c++/10.3.1/bits/stl_algobase.h ****    *  @param  __b  Another thing of arbitrary type.
 291:/Library/DaisyToolchain/0.2.0/arm/arm-none-eabi/include/c++/10.3.1/bits/stl_algobase.h ****    *  @param  __comp  A @link comparison_functors comparison functor@endlink.
 292:/Library/DaisyToolchain/0.2.0/arm/arm-none-eabi/include/c++/10.3.1/bits/stl_algobase.h ****    *  @return   The greater of the parameters.
 293:/Library/DaisyToolchain/0.2.0/arm/arm-none-eabi/include/c++/10.3.1/bits/stl_algobase.h ****    *
 294:/Library/DaisyToolchain/0.2.0/arm/arm-none-eabi/include/c++/10.3.1/bits/stl_algobase.h ****    *  This will work on temporary expressions, since they are only evaluated
 295:/Library/DaisyToolchain/0.2.0/arm/arm-none-eabi/include/c++/10.3.1/bits/stl_algobase.h ****    *  once, unlike a preprocessor macro.
 296:/Library/DaisyToolchain/0.2.0/arm/arm-none-eabi/include/c++/10.3.1/bits/stl_algobase.h ****   */
 297:/Library/DaisyToolchain/0.2.0/arm/arm-none-eabi/include/c++/10.3.1/bits/stl_algobase.h ****   template<typename _Tp, typename _Compare>
 298:/Library/DaisyToolchain/0.2.0/arm/arm-none-eabi/include/c++/10.3.1/bits/stl_algobase.h ****     _GLIBCXX14_CONSTEXPR
 299:/Library/DaisyToolchain/0.2.0/arm/arm-none-eabi/include/c++/10.3.1/bits/stl_algobase.h ****     inline const _Tp&
 300:/Library/DaisyToolchain/0.2.0/arm/arm-none-eabi/include/c++/10.3.1/bits/stl_algobase.h ****     max(const _Tp& __a, const _Tp& __b, _Compare __comp)
 301:/Library/DaisyToolchain/0.2.0/arm/arm-none-eabi/include/c++/10.3.1/bits/stl_algobase.h ****     {
 302:/Library/DaisyToolchain/0.2.0/arm/arm-none-eabi/include/c++/10.3.1/bits/stl_algobase.h ****       //return __comp(__a, __b) ? __b : __a;
 303:/Library/DaisyToolchain/0.2.0/arm/arm-none-eabi/include/c++/10.3.1/bits/stl_algobase.h ****       if (__comp(__a, __b))
 304:/Library/DaisyToolchain/0.2.0/arm/arm-none-eabi/include/c++/10.3.1/bits/stl_algobase.h **** 	return __b;
 305:/Library/DaisyToolchain/0.2.0/arm/arm-none-eabi/include/c++/10.3.1/bits/stl_algobase.h ****       return __a;
 306:/Library/DaisyToolchain/0.2.0/arm/arm-none-eabi/include/c++/10.3.1/bits/stl_algobase.h ****     }
 307:/Library/DaisyToolchain/0.2.0/arm/arm-none-eabi/include/c++/10.3.1/bits/stl_algobase.h **** 
 308:/Library/DaisyToolchain/0.2.0/arm/arm-none-eabi/include/c++/10.3.1/bits/stl_algobase.h ****   // Fallback implementation of the function in bits/stl_iterator.h used to
 309:/Library/DaisyToolchain/0.2.0/arm/arm-none-eabi/include/c++/10.3.1/bits/stl_algobase.h ****   // remove the __normal_iterator wrapper. See copy, fill, ...
 310:/Library/DaisyToolchain/0.2.0/arm/arm-none-eabi/include/c++/10.3.1/bits/stl_algobase.h ****   template<typename _Iterator>
 311:/Library/DaisyToolchain/0.2.0/arm/arm-none-eabi/include/c++/10.3.1/bits/stl_algobase.h ****     _GLIBCXX20_CONSTEXPR
 312:/Library/DaisyToolchain/0.2.0/arm/arm-none-eabi/include/c++/10.3.1/bits/stl_algobase.h ****     inline _Iterator
 313:/Library/DaisyToolchain/0.2.0/arm/arm-none-eabi/include/c++/10.3.1/bits/stl_algobase.h ****     __niter_base(_Iterator __it)
 314:/Library/DaisyToolchain/0.2.0/arm/arm-none-eabi/include/c++/10.3.1/bits/stl_algobase.h ****     _GLIBCXX_NOEXCEPT_IF(std::is_nothrow_copy_constructible<_Iterator>::value)
ARM GAS  /var/folders/9s/8rp0_f2s1n31qbztm3b5_fdh0000gn/T//ccynLXMW.s 			page 8


 315:/Library/DaisyToolchain/0.2.0/arm/arm-none-eabi/include/c++/10.3.1/bits/stl_algobase.h ****     { return __it; }
 316:/Library/DaisyToolchain/0.2.0/arm/arm-none-eabi/include/c++/10.3.1/bits/stl_algobase.h **** 
 317:/Library/DaisyToolchain/0.2.0/arm/arm-none-eabi/include/c++/10.3.1/bits/stl_algobase.h ****   // Reverse the __niter_base transformation to get a
 318:/Library/DaisyToolchain/0.2.0/arm/arm-none-eabi/include/c++/10.3.1/bits/stl_algobase.h ****   // __normal_iterator back again (this assumes that __normal_iterator
 319:/Library/DaisyToolchain/0.2.0/arm/arm-none-eabi/include/c++/10.3.1/bits/stl_algobase.h ****   // is only used to wrap random access iterators, like pointers).
 320:/Library/DaisyToolchain/0.2.0/arm/arm-none-eabi/include/c++/10.3.1/bits/stl_algobase.h ****   template<typename _From, typename _To>
 321:/Library/DaisyToolchain/0.2.0/arm/arm-none-eabi/include/c++/10.3.1/bits/stl_algobase.h ****     _GLIBCXX20_CONSTEXPR
 322:/Library/DaisyToolchain/0.2.0/arm/arm-none-eabi/include/c++/10.3.1/bits/stl_algobase.h ****     inline _From
 323:/Library/DaisyToolchain/0.2.0/arm/arm-none-eabi/include/c++/10.3.1/bits/stl_algobase.h ****     __niter_wrap(_From __from, _To __res)
 324:/Library/DaisyToolchain/0.2.0/arm/arm-none-eabi/include/c++/10.3.1/bits/stl_algobase.h ****     { return __from + (__res - std::__niter_base(__from)); }
 325:/Library/DaisyToolchain/0.2.0/arm/arm-none-eabi/include/c++/10.3.1/bits/stl_algobase.h **** 
 326:/Library/DaisyToolchain/0.2.0/arm/arm-none-eabi/include/c++/10.3.1/bits/stl_algobase.h ****   // No need to wrap, iterator already has the right type.
 327:/Library/DaisyToolchain/0.2.0/arm/arm-none-eabi/include/c++/10.3.1/bits/stl_algobase.h ****   template<typename _Iterator>
 328:/Library/DaisyToolchain/0.2.0/arm/arm-none-eabi/include/c++/10.3.1/bits/stl_algobase.h ****     _GLIBCXX20_CONSTEXPR
 329:/Library/DaisyToolchain/0.2.0/arm/arm-none-eabi/include/c++/10.3.1/bits/stl_algobase.h ****     inline _Iterator
 330:/Library/DaisyToolchain/0.2.0/arm/arm-none-eabi/include/c++/10.3.1/bits/stl_algobase.h ****     __niter_wrap(const _Iterator&, _Iterator __res)
 331:/Library/DaisyToolchain/0.2.0/arm/arm-none-eabi/include/c++/10.3.1/bits/stl_algobase.h ****     { return __res; }
 332:/Library/DaisyToolchain/0.2.0/arm/arm-none-eabi/include/c++/10.3.1/bits/stl_algobase.h **** 
 333:/Library/DaisyToolchain/0.2.0/arm/arm-none-eabi/include/c++/10.3.1/bits/stl_algobase.h ****   // All of these auxiliary structs serve two purposes.  (1) Replace
 334:/Library/DaisyToolchain/0.2.0/arm/arm-none-eabi/include/c++/10.3.1/bits/stl_algobase.h ****   // calls to copy with memmove whenever possible.  (Memmove, not memcpy,
 335:/Library/DaisyToolchain/0.2.0/arm/arm-none-eabi/include/c++/10.3.1/bits/stl_algobase.h ****   // because the input and output ranges are permitted to overlap.)
 336:/Library/DaisyToolchain/0.2.0/arm/arm-none-eabi/include/c++/10.3.1/bits/stl_algobase.h ****   // (2) If we're using random access iterators, then write the loop as
 337:/Library/DaisyToolchain/0.2.0/arm/arm-none-eabi/include/c++/10.3.1/bits/stl_algobase.h ****   // a for loop with an explicit count.
 338:/Library/DaisyToolchain/0.2.0/arm/arm-none-eabi/include/c++/10.3.1/bits/stl_algobase.h **** 
 339:/Library/DaisyToolchain/0.2.0/arm/arm-none-eabi/include/c++/10.3.1/bits/stl_algobase.h ****   template<bool _IsMove, bool _IsSimple, typename _Category>
 340:/Library/DaisyToolchain/0.2.0/arm/arm-none-eabi/include/c++/10.3.1/bits/stl_algobase.h ****     struct __copy_move
 341:/Library/DaisyToolchain/0.2.0/arm/arm-none-eabi/include/c++/10.3.1/bits/stl_algobase.h ****     {
 342:/Library/DaisyToolchain/0.2.0/arm/arm-none-eabi/include/c++/10.3.1/bits/stl_algobase.h ****       template<typename _II, typename _OI>
 343:/Library/DaisyToolchain/0.2.0/arm/arm-none-eabi/include/c++/10.3.1/bits/stl_algobase.h **** 	_GLIBCXX20_CONSTEXPR
 344:/Library/DaisyToolchain/0.2.0/arm/arm-none-eabi/include/c++/10.3.1/bits/stl_algobase.h **** 	static _OI
 345:/Library/DaisyToolchain/0.2.0/arm/arm-none-eabi/include/c++/10.3.1/bits/stl_algobase.h **** 	__copy_m(_II __first, _II __last, _OI __result)
 346:/Library/DaisyToolchain/0.2.0/arm/arm-none-eabi/include/c++/10.3.1/bits/stl_algobase.h **** 	{
 347:/Library/DaisyToolchain/0.2.0/arm/arm-none-eabi/include/c++/10.3.1/bits/stl_algobase.h **** 	  for (; __first != __last; ++__result, (void)++__first)
 348:/Library/DaisyToolchain/0.2.0/arm/arm-none-eabi/include/c++/10.3.1/bits/stl_algobase.h **** 	    *__result = *__first;
 349:/Library/DaisyToolchain/0.2.0/arm/arm-none-eabi/include/c++/10.3.1/bits/stl_algobase.h **** 	  return __result;
 350:/Library/DaisyToolchain/0.2.0/arm/arm-none-eabi/include/c++/10.3.1/bits/stl_algobase.h **** 	}
 351:/Library/DaisyToolchain/0.2.0/arm/arm-none-eabi/include/c++/10.3.1/bits/stl_algobase.h ****     };
 352:/Library/DaisyToolchain/0.2.0/arm/arm-none-eabi/include/c++/10.3.1/bits/stl_algobase.h **** 
 353:/Library/DaisyToolchain/0.2.0/arm/arm-none-eabi/include/c++/10.3.1/bits/stl_algobase.h **** #if __cplusplus >= 201103L
 354:/Library/DaisyToolchain/0.2.0/arm/arm-none-eabi/include/c++/10.3.1/bits/stl_algobase.h ****   template<typename _Category>
 355:/Library/DaisyToolchain/0.2.0/arm/arm-none-eabi/include/c++/10.3.1/bits/stl_algobase.h ****     struct __copy_move<true, false, _Category>
 356:/Library/DaisyToolchain/0.2.0/arm/arm-none-eabi/include/c++/10.3.1/bits/stl_algobase.h ****     {
 357:/Library/DaisyToolchain/0.2.0/arm/arm-none-eabi/include/c++/10.3.1/bits/stl_algobase.h ****       template<typename _II, typename _OI>
 358:/Library/DaisyToolchain/0.2.0/arm/arm-none-eabi/include/c++/10.3.1/bits/stl_algobase.h **** 	_GLIBCXX20_CONSTEXPR
 359:/Library/DaisyToolchain/0.2.0/arm/arm-none-eabi/include/c++/10.3.1/bits/stl_algobase.h **** 	static _OI
 360:/Library/DaisyToolchain/0.2.0/arm/arm-none-eabi/include/c++/10.3.1/bits/stl_algobase.h **** 	__copy_m(_II __first, _II __last, _OI __result)
 361:/Library/DaisyToolchain/0.2.0/arm/arm-none-eabi/include/c++/10.3.1/bits/stl_algobase.h **** 	{
 362:/Library/DaisyToolchain/0.2.0/arm/arm-none-eabi/include/c++/10.3.1/bits/stl_algobase.h **** 	  for (; __first != __last; ++__result, (void)++__first)
 363:/Library/DaisyToolchain/0.2.0/arm/arm-none-eabi/include/c++/10.3.1/bits/stl_algobase.h **** 	    *__result = std::move(*__first);
 364:/Library/DaisyToolchain/0.2.0/arm/arm-none-eabi/include/c++/10.3.1/bits/stl_algobase.h **** 	  return __result;
 365:/Library/DaisyToolchain/0.2.0/arm/arm-none-eabi/include/c++/10.3.1/bits/stl_algobase.h **** 	}
 366:/Library/DaisyToolchain/0.2.0/arm/arm-none-eabi/include/c++/10.3.1/bits/stl_algobase.h ****     };
 367:/Library/DaisyToolchain/0.2.0/arm/arm-none-eabi/include/c++/10.3.1/bits/stl_algobase.h **** #endif
 368:/Library/DaisyToolchain/0.2.0/arm/arm-none-eabi/include/c++/10.3.1/bits/stl_algobase.h **** 
 369:/Library/DaisyToolchain/0.2.0/arm/arm-none-eabi/include/c++/10.3.1/bits/stl_algobase.h ****   template<>
 370:/Library/DaisyToolchain/0.2.0/arm/arm-none-eabi/include/c++/10.3.1/bits/stl_algobase.h ****     struct __copy_move<false, false, random_access_iterator_tag>
 371:/Library/DaisyToolchain/0.2.0/arm/arm-none-eabi/include/c++/10.3.1/bits/stl_algobase.h ****     {
ARM GAS  /var/folders/9s/8rp0_f2s1n31qbztm3b5_fdh0000gn/T//ccynLXMW.s 			page 9


 372:/Library/DaisyToolchain/0.2.0/arm/arm-none-eabi/include/c++/10.3.1/bits/stl_algobase.h ****       template<typename _II, typename _OI>
 373:/Library/DaisyToolchain/0.2.0/arm/arm-none-eabi/include/c++/10.3.1/bits/stl_algobase.h **** 	_GLIBCXX20_CONSTEXPR
 374:/Library/DaisyToolchain/0.2.0/arm/arm-none-eabi/include/c++/10.3.1/bits/stl_algobase.h **** 	static _OI
 375:/Library/DaisyToolchain/0.2.0/arm/arm-none-eabi/include/c++/10.3.1/bits/stl_algobase.h **** 	__copy_m(_II __first, _II __last, _OI __result)
 376:/Library/DaisyToolchain/0.2.0/arm/arm-none-eabi/include/c++/10.3.1/bits/stl_algobase.h **** 	{
 377:/Library/DaisyToolchain/0.2.0/arm/arm-none-eabi/include/c++/10.3.1/bits/stl_algobase.h **** 	  typedef typename iterator_traits<_II>::difference_type _Distance;
 378:/Library/DaisyToolchain/0.2.0/arm/arm-none-eabi/include/c++/10.3.1/bits/stl_algobase.h **** 	  for(_Distance __n = __last - __first; __n > 0; --__n)
 379:/Library/DaisyToolchain/0.2.0/arm/arm-none-eabi/include/c++/10.3.1/bits/stl_algobase.h **** 	    {
 380:/Library/DaisyToolchain/0.2.0/arm/arm-none-eabi/include/c++/10.3.1/bits/stl_algobase.h **** 	      *__result = *__first;
 381:/Library/DaisyToolchain/0.2.0/arm/arm-none-eabi/include/c++/10.3.1/bits/stl_algobase.h **** 	      ++__first;
 382:/Library/DaisyToolchain/0.2.0/arm/arm-none-eabi/include/c++/10.3.1/bits/stl_algobase.h **** 	      ++__result;
 383:/Library/DaisyToolchain/0.2.0/arm/arm-none-eabi/include/c++/10.3.1/bits/stl_algobase.h **** 	    }
 384:/Library/DaisyToolchain/0.2.0/arm/arm-none-eabi/include/c++/10.3.1/bits/stl_algobase.h **** 	  return __result;
 385:/Library/DaisyToolchain/0.2.0/arm/arm-none-eabi/include/c++/10.3.1/bits/stl_algobase.h **** 	}
 386:/Library/DaisyToolchain/0.2.0/arm/arm-none-eabi/include/c++/10.3.1/bits/stl_algobase.h ****     };
 387:/Library/DaisyToolchain/0.2.0/arm/arm-none-eabi/include/c++/10.3.1/bits/stl_algobase.h **** 
 388:/Library/DaisyToolchain/0.2.0/arm/arm-none-eabi/include/c++/10.3.1/bits/stl_algobase.h **** #if __cplusplus >= 201103L
 389:/Library/DaisyToolchain/0.2.0/arm/arm-none-eabi/include/c++/10.3.1/bits/stl_algobase.h ****   template<>
 390:/Library/DaisyToolchain/0.2.0/arm/arm-none-eabi/include/c++/10.3.1/bits/stl_algobase.h ****     struct __copy_move<true, false, random_access_iterator_tag>
 391:/Library/DaisyToolchain/0.2.0/arm/arm-none-eabi/include/c++/10.3.1/bits/stl_algobase.h ****     {
 392:/Library/DaisyToolchain/0.2.0/arm/arm-none-eabi/include/c++/10.3.1/bits/stl_algobase.h ****       template<typename _II, typename _OI>
 393:/Library/DaisyToolchain/0.2.0/arm/arm-none-eabi/include/c++/10.3.1/bits/stl_algobase.h **** 	_GLIBCXX20_CONSTEXPR
 394:/Library/DaisyToolchain/0.2.0/arm/arm-none-eabi/include/c++/10.3.1/bits/stl_algobase.h **** 	static _OI
 395:/Library/DaisyToolchain/0.2.0/arm/arm-none-eabi/include/c++/10.3.1/bits/stl_algobase.h **** 	__copy_m(_II __first, _II __last, _OI __result)
 396:/Library/DaisyToolchain/0.2.0/arm/arm-none-eabi/include/c++/10.3.1/bits/stl_algobase.h **** 	{
 397:/Library/DaisyToolchain/0.2.0/arm/arm-none-eabi/include/c++/10.3.1/bits/stl_algobase.h **** 	  typedef typename iterator_traits<_II>::difference_type _Distance;
 398:/Library/DaisyToolchain/0.2.0/arm/arm-none-eabi/include/c++/10.3.1/bits/stl_algobase.h **** 	  for(_Distance __n = __last - __first; __n > 0; --__n)
 399:/Library/DaisyToolchain/0.2.0/arm/arm-none-eabi/include/c++/10.3.1/bits/stl_algobase.h **** 	    {
 400:/Library/DaisyToolchain/0.2.0/arm/arm-none-eabi/include/c++/10.3.1/bits/stl_algobase.h **** 	      *__result = std::move(*__first);
 401:/Library/DaisyToolchain/0.2.0/arm/arm-none-eabi/include/c++/10.3.1/bits/stl_algobase.h **** 	      ++__first;
 402:/Library/DaisyToolchain/0.2.0/arm/arm-none-eabi/include/c++/10.3.1/bits/stl_algobase.h **** 	      ++__result;
 403:/Library/DaisyToolchain/0.2.0/arm/arm-none-eabi/include/c++/10.3.1/bits/stl_algobase.h **** 	    }
 404:/Library/DaisyToolchain/0.2.0/arm/arm-none-eabi/include/c++/10.3.1/bits/stl_algobase.h **** 	  return __result;
 405:/Library/DaisyToolchain/0.2.0/arm/arm-none-eabi/include/c++/10.3.1/bits/stl_algobase.h **** 	}
 406:/Library/DaisyToolchain/0.2.0/arm/arm-none-eabi/include/c++/10.3.1/bits/stl_algobase.h ****     };
 407:/Library/DaisyToolchain/0.2.0/arm/arm-none-eabi/include/c++/10.3.1/bits/stl_algobase.h **** #endif
 408:/Library/DaisyToolchain/0.2.0/arm/arm-none-eabi/include/c++/10.3.1/bits/stl_algobase.h **** 
 409:/Library/DaisyToolchain/0.2.0/arm/arm-none-eabi/include/c++/10.3.1/bits/stl_algobase.h ****   template<bool _IsMove>
 410:/Library/DaisyToolchain/0.2.0/arm/arm-none-eabi/include/c++/10.3.1/bits/stl_algobase.h ****     struct __copy_move<_IsMove, true, random_access_iterator_tag>
 411:/Library/DaisyToolchain/0.2.0/arm/arm-none-eabi/include/c++/10.3.1/bits/stl_algobase.h ****     {
 412:/Library/DaisyToolchain/0.2.0/arm/arm-none-eabi/include/c++/10.3.1/bits/stl_algobase.h ****       template<typename _Tp>
 413:/Library/DaisyToolchain/0.2.0/arm/arm-none-eabi/include/c++/10.3.1/bits/stl_algobase.h **** 	_GLIBCXX20_CONSTEXPR
 414:/Library/DaisyToolchain/0.2.0/arm/arm-none-eabi/include/c++/10.3.1/bits/stl_algobase.h **** 	static _Tp*
 415:/Library/DaisyToolchain/0.2.0/arm/arm-none-eabi/include/c++/10.3.1/bits/stl_algobase.h **** 	__copy_m(const _Tp* __first, const _Tp* __last, _Tp* __result)
 416:/Library/DaisyToolchain/0.2.0/arm/arm-none-eabi/include/c++/10.3.1/bits/stl_algobase.h **** 	{
 417:/Library/DaisyToolchain/0.2.0/arm/arm-none-eabi/include/c++/10.3.1/bits/stl_algobase.h **** #if __cplusplus >= 201103L
 418:/Library/DaisyToolchain/0.2.0/arm/arm-none-eabi/include/c++/10.3.1/bits/stl_algobase.h **** 	  using __assignable = conditional<_IsMove,
 419:/Library/DaisyToolchain/0.2.0/arm/arm-none-eabi/include/c++/10.3.1/bits/stl_algobase.h **** 					   is_move_assignable<_Tp>,
 420:/Library/DaisyToolchain/0.2.0/arm/arm-none-eabi/include/c++/10.3.1/bits/stl_algobase.h **** 					   is_copy_assignable<_Tp>>;
 421:/Library/DaisyToolchain/0.2.0/arm/arm-none-eabi/include/c++/10.3.1/bits/stl_algobase.h **** 	  // trivial types can have deleted assignment
 422:/Library/DaisyToolchain/0.2.0/arm/arm-none-eabi/include/c++/10.3.1/bits/stl_algobase.h **** 	  static_assert( __assignable::type::value, "type is not assignable" );
 423:/Library/DaisyToolchain/0.2.0/arm/arm-none-eabi/include/c++/10.3.1/bits/stl_algobase.h **** #endif
 424:/Library/DaisyToolchain/0.2.0/arm/arm-none-eabi/include/c++/10.3.1/bits/stl_algobase.h **** 	  const ptrdiff_t _Num = __last - __first;
 425:/Library/DaisyToolchain/0.2.0/arm/arm-none-eabi/include/c++/10.3.1/bits/stl_algobase.h **** 	  if (_Num)
 426:/Library/DaisyToolchain/0.2.0/arm/arm-none-eabi/include/c++/10.3.1/bits/stl_algobase.h **** 	    __builtin_memmove(__result, __first, sizeof(_Tp) * _Num);
 427:/Library/DaisyToolchain/0.2.0/arm/arm-none-eabi/include/c++/10.3.1/bits/stl_algobase.h **** 	  return __result + _Num;
 428:/Library/DaisyToolchain/0.2.0/arm/arm-none-eabi/include/c++/10.3.1/bits/stl_algobase.h **** 	}
ARM GAS  /var/folders/9s/8rp0_f2s1n31qbztm3b5_fdh0000gn/T//ccynLXMW.s 			page 10


 429:/Library/DaisyToolchain/0.2.0/arm/arm-none-eabi/include/c++/10.3.1/bits/stl_algobase.h ****     };
 430:/Library/DaisyToolchain/0.2.0/arm/arm-none-eabi/include/c++/10.3.1/bits/stl_algobase.h **** 
 431:/Library/DaisyToolchain/0.2.0/arm/arm-none-eabi/include/c++/10.3.1/bits/stl_algobase.h ****   // Helpers for streambuf iterators (either istream or ostream).
 432:/Library/DaisyToolchain/0.2.0/arm/arm-none-eabi/include/c++/10.3.1/bits/stl_algobase.h ****   // NB: avoid including <iosfwd>, relatively large.
 433:/Library/DaisyToolchain/0.2.0/arm/arm-none-eabi/include/c++/10.3.1/bits/stl_algobase.h ****   template<typename _CharT>
 434:/Library/DaisyToolchain/0.2.0/arm/arm-none-eabi/include/c++/10.3.1/bits/stl_algobase.h ****     struct char_traits;
 435:/Library/DaisyToolchain/0.2.0/arm/arm-none-eabi/include/c++/10.3.1/bits/stl_algobase.h **** 
 436:/Library/DaisyToolchain/0.2.0/arm/arm-none-eabi/include/c++/10.3.1/bits/stl_algobase.h ****   template<typename _CharT, typename _Traits>
 437:/Library/DaisyToolchain/0.2.0/arm/arm-none-eabi/include/c++/10.3.1/bits/stl_algobase.h ****     class istreambuf_iterator;
 438:/Library/DaisyToolchain/0.2.0/arm/arm-none-eabi/include/c++/10.3.1/bits/stl_algobase.h **** 
 439:/Library/DaisyToolchain/0.2.0/arm/arm-none-eabi/include/c++/10.3.1/bits/stl_algobase.h ****   template<typename _CharT, typename _Traits>
 440:/Library/DaisyToolchain/0.2.0/arm/arm-none-eabi/include/c++/10.3.1/bits/stl_algobase.h ****     class ostreambuf_iterator;
 441:/Library/DaisyToolchain/0.2.0/arm/arm-none-eabi/include/c++/10.3.1/bits/stl_algobase.h **** 
 442:/Library/DaisyToolchain/0.2.0/arm/arm-none-eabi/include/c++/10.3.1/bits/stl_algobase.h ****   template<bool _IsMove, typename _CharT>
 443:/Library/DaisyToolchain/0.2.0/arm/arm-none-eabi/include/c++/10.3.1/bits/stl_algobase.h ****     typename __gnu_cxx::__enable_if<__is_char<_CharT>::__value,
 444:/Library/DaisyToolchain/0.2.0/arm/arm-none-eabi/include/c++/10.3.1/bits/stl_algobase.h **** 	     ostreambuf_iterator<_CharT, char_traits<_CharT> > >::__type
 445:/Library/DaisyToolchain/0.2.0/arm/arm-none-eabi/include/c++/10.3.1/bits/stl_algobase.h ****     __copy_move_a2(_CharT*, _CharT*,
 446:/Library/DaisyToolchain/0.2.0/arm/arm-none-eabi/include/c++/10.3.1/bits/stl_algobase.h **** 		   ostreambuf_iterator<_CharT, char_traits<_CharT> >);
 447:/Library/DaisyToolchain/0.2.0/arm/arm-none-eabi/include/c++/10.3.1/bits/stl_algobase.h **** 
 448:/Library/DaisyToolchain/0.2.0/arm/arm-none-eabi/include/c++/10.3.1/bits/stl_algobase.h ****   template<bool _IsMove, typename _CharT>
 449:/Library/DaisyToolchain/0.2.0/arm/arm-none-eabi/include/c++/10.3.1/bits/stl_algobase.h ****     typename __gnu_cxx::__enable_if<__is_char<_CharT>::__value,
 450:/Library/DaisyToolchain/0.2.0/arm/arm-none-eabi/include/c++/10.3.1/bits/stl_algobase.h **** 	     ostreambuf_iterator<_CharT, char_traits<_CharT> > >::__type
 451:/Library/DaisyToolchain/0.2.0/arm/arm-none-eabi/include/c++/10.3.1/bits/stl_algobase.h ****     __copy_move_a2(const _CharT*, const _CharT*,
 452:/Library/DaisyToolchain/0.2.0/arm/arm-none-eabi/include/c++/10.3.1/bits/stl_algobase.h **** 		   ostreambuf_iterator<_CharT, char_traits<_CharT> >);
 453:/Library/DaisyToolchain/0.2.0/arm/arm-none-eabi/include/c++/10.3.1/bits/stl_algobase.h **** 
 454:/Library/DaisyToolchain/0.2.0/arm/arm-none-eabi/include/c++/10.3.1/bits/stl_algobase.h ****   template<bool _IsMove, typename _CharT>
 455:/Library/DaisyToolchain/0.2.0/arm/arm-none-eabi/include/c++/10.3.1/bits/stl_algobase.h ****     typename __gnu_cxx::__enable_if<__is_char<_CharT>::__value,
 456:/Library/DaisyToolchain/0.2.0/arm/arm-none-eabi/include/c++/10.3.1/bits/stl_algobase.h **** 				    _CharT*>::__type
 457:/Library/DaisyToolchain/0.2.0/arm/arm-none-eabi/include/c++/10.3.1/bits/stl_algobase.h ****     __copy_move_a2(istreambuf_iterator<_CharT, char_traits<_CharT> >,
 458:/Library/DaisyToolchain/0.2.0/arm/arm-none-eabi/include/c++/10.3.1/bits/stl_algobase.h **** 		   istreambuf_iterator<_CharT, char_traits<_CharT> >, _CharT*);
 459:/Library/DaisyToolchain/0.2.0/arm/arm-none-eabi/include/c++/10.3.1/bits/stl_algobase.h **** 
 460:/Library/DaisyToolchain/0.2.0/arm/arm-none-eabi/include/c++/10.3.1/bits/stl_algobase.h ****   template<bool _IsMove, typename _II, typename _OI>
 461:/Library/DaisyToolchain/0.2.0/arm/arm-none-eabi/include/c++/10.3.1/bits/stl_algobase.h ****     _GLIBCXX20_CONSTEXPR
 462:/Library/DaisyToolchain/0.2.0/arm/arm-none-eabi/include/c++/10.3.1/bits/stl_algobase.h ****     inline _OI
 463:/Library/DaisyToolchain/0.2.0/arm/arm-none-eabi/include/c++/10.3.1/bits/stl_algobase.h ****     __copy_move_a2(_II __first, _II __last, _OI __result)
 464:/Library/DaisyToolchain/0.2.0/arm/arm-none-eabi/include/c++/10.3.1/bits/stl_algobase.h ****     {
 465:/Library/DaisyToolchain/0.2.0/arm/arm-none-eabi/include/c++/10.3.1/bits/stl_algobase.h ****       typedef typename iterator_traits<_II>::iterator_category _Category;
 466:/Library/DaisyToolchain/0.2.0/arm/arm-none-eabi/include/c++/10.3.1/bits/stl_algobase.h **** #ifdef __cpp_lib_is_constant_evaluated
 467:/Library/DaisyToolchain/0.2.0/arm/arm-none-eabi/include/c++/10.3.1/bits/stl_algobase.h ****       if (std::is_constant_evaluated())
 468:/Library/DaisyToolchain/0.2.0/arm/arm-none-eabi/include/c++/10.3.1/bits/stl_algobase.h **** 	return std::__copy_move<_IsMove, false, _Category>::
 469:/Library/DaisyToolchain/0.2.0/arm/arm-none-eabi/include/c++/10.3.1/bits/stl_algobase.h **** 	  __copy_m(__first, __last, __result);
 470:/Library/DaisyToolchain/0.2.0/arm/arm-none-eabi/include/c++/10.3.1/bits/stl_algobase.h **** #endif
 471:/Library/DaisyToolchain/0.2.0/arm/arm-none-eabi/include/c++/10.3.1/bits/stl_algobase.h ****       return std::__copy_move<_IsMove, __memcpyable<_OI, _II>::__value,
 472:/Library/DaisyToolchain/0.2.0/arm/arm-none-eabi/include/c++/10.3.1/bits/stl_algobase.h **** 			      _Category>::__copy_m(__first, __last, __result);
 473:/Library/DaisyToolchain/0.2.0/arm/arm-none-eabi/include/c++/10.3.1/bits/stl_algobase.h ****     }
 474:/Library/DaisyToolchain/0.2.0/arm/arm-none-eabi/include/c++/10.3.1/bits/stl_algobase.h **** 
 475:/Library/DaisyToolchain/0.2.0/arm/arm-none-eabi/include/c++/10.3.1/bits/stl_algobase.h **** _GLIBCXX_BEGIN_NAMESPACE_CONTAINER
 476:/Library/DaisyToolchain/0.2.0/arm/arm-none-eabi/include/c++/10.3.1/bits/stl_algobase.h **** 
 477:/Library/DaisyToolchain/0.2.0/arm/arm-none-eabi/include/c++/10.3.1/bits/stl_algobase.h ****   template<typename _Tp, typename _Ref, typename _Ptr>
 478:/Library/DaisyToolchain/0.2.0/arm/arm-none-eabi/include/c++/10.3.1/bits/stl_algobase.h ****     struct _Deque_iterator;
 479:/Library/DaisyToolchain/0.2.0/arm/arm-none-eabi/include/c++/10.3.1/bits/stl_algobase.h **** 
 480:/Library/DaisyToolchain/0.2.0/arm/arm-none-eabi/include/c++/10.3.1/bits/stl_algobase.h **** _GLIBCXX_END_NAMESPACE_CONTAINER
 481:/Library/DaisyToolchain/0.2.0/arm/arm-none-eabi/include/c++/10.3.1/bits/stl_algobase.h **** 
 482:/Library/DaisyToolchain/0.2.0/arm/arm-none-eabi/include/c++/10.3.1/bits/stl_algobase.h ****   template<bool _IsMove,
 483:/Library/DaisyToolchain/0.2.0/arm/arm-none-eabi/include/c++/10.3.1/bits/stl_algobase.h **** 	   typename _Tp, typename _Ref, typename _Ptr, typename _OI>
 484:/Library/DaisyToolchain/0.2.0/arm/arm-none-eabi/include/c++/10.3.1/bits/stl_algobase.h ****     _OI
 485:/Library/DaisyToolchain/0.2.0/arm/arm-none-eabi/include/c++/10.3.1/bits/stl_algobase.h ****     __copy_move_a1(_GLIBCXX_STD_C::_Deque_iterator<_Tp, _Ref, _Ptr>,
ARM GAS  /var/folders/9s/8rp0_f2s1n31qbztm3b5_fdh0000gn/T//ccynLXMW.s 			page 11


 486:/Library/DaisyToolchain/0.2.0/arm/arm-none-eabi/include/c++/10.3.1/bits/stl_algobase.h **** 		   _GLIBCXX_STD_C::_Deque_iterator<_Tp, _Ref, _Ptr>,
 487:/Library/DaisyToolchain/0.2.0/arm/arm-none-eabi/include/c++/10.3.1/bits/stl_algobase.h **** 		   _OI);
 488:/Library/DaisyToolchain/0.2.0/arm/arm-none-eabi/include/c++/10.3.1/bits/stl_algobase.h **** 
 489:/Library/DaisyToolchain/0.2.0/arm/arm-none-eabi/include/c++/10.3.1/bits/stl_algobase.h ****   template<bool _IsMove,
 490:/Library/DaisyToolchain/0.2.0/arm/arm-none-eabi/include/c++/10.3.1/bits/stl_algobase.h **** 	   typename _ITp, typename _IRef, typename _IPtr, typename _OTp>
 491:/Library/DaisyToolchain/0.2.0/arm/arm-none-eabi/include/c++/10.3.1/bits/stl_algobase.h ****     _GLIBCXX_STD_C::_Deque_iterator<_OTp, _OTp&, _OTp*>
 492:/Library/DaisyToolchain/0.2.0/arm/arm-none-eabi/include/c++/10.3.1/bits/stl_algobase.h ****     __copy_move_a1(_GLIBCXX_STD_C::_Deque_iterator<_ITp, _IRef, _IPtr>,
 493:/Library/DaisyToolchain/0.2.0/arm/arm-none-eabi/include/c++/10.3.1/bits/stl_algobase.h **** 		   _GLIBCXX_STD_C::_Deque_iterator<_ITp, _IRef, _IPtr>,
 494:/Library/DaisyToolchain/0.2.0/arm/arm-none-eabi/include/c++/10.3.1/bits/stl_algobase.h **** 		   _GLIBCXX_STD_C::_Deque_iterator<_OTp, _OTp&, _OTp*>);
 495:/Library/DaisyToolchain/0.2.0/arm/arm-none-eabi/include/c++/10.3.1/bits/stl_algobase.h **** 
 496:/Library/DaisyToolchain/0.2.0/arm/arm-none-eabi/include/c++/10.3.1/bits/stl_algobase.h ****   template<bool _IsMove, typename _II, typename _Tp>
 497:/Library/DaisyToolchain/0.2.0/arm/arm-none-eabi/include/c++/10.3.1/bits/stl_algobase.h ****     typename __gnu_cxx::__enable_if<
 498:/Library/DaisyToolchain/0.2.0/arm/arm-none-eabi/include/c++/10.3.1/bits/stl_algobase.h ****       __is_random_access_iter<_II>::__value,
 499:/Library/DaisyToolchain/0.2.0/arm/arm-none-eabi/include/c++/10.3.1/bits/stl_algobase.h ****       _GLIBCXX_STD_C::_Deque_iterator<_Tp, _Tp&, _Tp*> >::__type
 500:/Library/DaisyToolchain/0.2.0/arm/arm-none-eabi/include/c++/10.3.1/bits/stl_algobase.h ****     __copy_move_a1(_II, _II, _GLIBCXX_STD_C::_Deque_iterator<_Tp, _Tp&, _Tp*>);
 501:/Library/DaisyToolchain/0.2.0/arm/arm-none-eabi/include/c++/10.3.1/bits/stl_algobase.h **** 
 502:/Library/DaisyToolchain/0.2.0/arm/arm-none-eabi/include/c++/10.3.1/bits/stl_algobase.h ****   template<bool _IsMove, typename _II, typename _OI>
 503:/Library/DaisyToolchain/0.2.0/arm/arm-none-eabi/include/c++/10.3.1/bits/stl_algobase.h ****     _GLIBCXX20_CONSTEXPR
 504:/Library/DaisyToolchain/0.2.0/arm/arm-none-eabi/include/c++/10.3.1/bits/stl_algobase.h ****     inline _OI
 505:/Library/DaisyToolchain/0.2.0/arm/arm-none-eabi/include/c++/10.3.1/bits/stl_algobase.h ****     __copy_move_a1(_II __first, _II __last, _OI __result)
 506:/Library/DaisyToolchain/0.2.0/arm/arm-none-eabi/include/c++/10.3.1/bits/stl_algobase.h ****     { return std::__copy_move_a2<_IsMove>(__first, __last, __result); }
 507:/Library/DaisyToolchain/0.2.0/arm/arm-none-eabi/include/c++/10.3.1/bits/stl_algobase.h **** 
 508:/Library/DaisyToolchain/0.2.0/arm/arm-none-eabi/include/c++/10.3.1/bits/stl_algobase.h ****   template<bool _IsMove, typename _II, typename _OI>
 509:/Library/DaisyToolchain/0.2.0/arm/arm-none-eabi/include/c++/10.3.1/bits/stl_algobase.h ****     _GLIBCXX20_CONSTEXPR
 510:/Library/DaisyToolchain/0.2.0/arm/arm-none-eabi/include/c++/10.3.1/bits/stl_algobase.h ****     inline _OI
 511:/Library/DaisyToolchain/0.2.0/arm/arm-none-eabi/include/c++/10.3.1/bits/stl_algobase.h ****     __copy_move_a(_II __first, _II __last, _OI __result)
 512:/Library/DaisyToolchain/0.2.0/arm/arm-none-eabi/include/c++/10.3.1/bits/stl_algobase.h ****     {
 513:/Library/DaisyToolchain/0.2.0/arm/arm-none-eabi/include/c++/10.3.1/bits/stl_algobase.h ****       return std::__niter_wrap(__result,
 514:/Library/DaisyToolchain/0.2.0/arm/arm-none-eabi/include/c++/10.3.1/bits/stl_algobase.h **** 		std::__copy_move_a1<_IsMove>(std::__niter_base(__first),
 515:/Library/DaisyToolchain/0.2.0/arm/arm-none-eabi/include/c++/10.3.1/bits/stl_algobase.h **** 					     std::__niter_base(__last),
 516:/Library/DaisyToolchain/0.2.0/arm/arm-none-eabi/include/c++/10.3.1/bits/stl_algobase.h **** 					     std::__niter_base(__result)));
 517:/Library/DaisyToolchain/0.2.0/arm/arm-none-eabi/include/c++/10.3.1/bits/stl_algobase.h ****     }
 518:/Library/DaisyToolchain/0.2.0/arm/arm-none-eabi/include/c++/10.3.1/bits/stl_algobase.h **** 
 519:/Library/DaisyToolchain/0.2.0/arm/arm-none-eabi/include/c++/10.3.1/bits/stl_algobase.h ****   template<bool _IsMove,
 520:/Library/DaisyToolchain/0.2.0/arm/arm-none-eabi/include/c++/10.3.1/bits/stl_algobase.h **** 	   typename _Ite, typename _Seq, typename _Cat, typename _OI>
 521:/Library/DaisyToolchain/0.2.0/arm/arm-none-eabi/include/c++/10.3.1/bits/stl_algobase.h ****     _OI
 522:/Library/DaisyToolchain/0.2.0/arm/arm-none-eabi/include/c++/10.3.1/bits/stl_algobase.h ****     __copy_move_a(const ::__gnu_debug::_Safe_iterator<_Ite, _Seq, _Cat>&,
 523:/Library/DaisyToolchain/0.2.0/arm/arm-none-eabi/include/c++/10.3.1/bits/stl_algobase.h **** 		  const ::__gnu_debug::_Safe_iterator<_Ite, _Seq, _Cat>&,
 524:/Library/DaisyToolchain/0.2.0/arm/arm-none-eabi/include/c++/10.3.1/bits/stl_algobase.h **** 		  _OI);
 525:/Library/DaisyToolchain/0.2.0/arm/arm-none-eabi/include/c++/10.3.1/bits/stl_algobase.h **** 
 526:/Library/DaisyToolchain/0.2.0/arm/arm-none-eabi/include/c++/10.3.1/bits/stl_algobase.h ****   template<bool _IsMove,
 527:/Library/DaisyToolchain/0.2.0/arm/arm-none-eabi/include/c++/10.3.1/bits/stl_algobase.h **** 	   typename _II, typename _Ite, typename _Seq, typename _Cat>
 528:/Library/DaisyToolchain/0.2.0/arm/arm-none-eabi/include/c++/10.3.1/bits/stl_algobase.h ****     __gnu_debug::_Safe_iterator<_Ite, _Seq, _Cat>
 529:/Library/DaisyToolchain/0.2.0/arm/arm-none-eabi/include/c++/10.3.1/bits/stl_algobase.h ****     __copy_move_a(_II, _II,
 530:/Library/DaisyToolchain/0.2.0/arm/arm-none-eabi/include/c++/10.3.1/bits/stl_algobase.h **** 		  const ::__gnu_debug::_Safe_iterator<_Ite, _Seq, _Cat>&);
 531:/Library/DaisyToolchain/0.2.0/arm/arm-none-eabi/include/c++/10.3.1/bits/stl_algobase.h **** 
 532:/Library/DaisyToolchain/0.2.0/arm/arm-none-eabi/include/c++/10.3.1/bits/stl_algobase.h ****   template<bool _IsMove,
 533:/Library/DaisyToolchain/0.2.0/arm/arm-none-eabi/include/c++/10.3.1/bits/stl_algobase.h **** 	   typename _IIte, typename _ISeq, typename _ICat,
 534:/Library/DaisyToolchain/0.2.0/arm/arm-none-eabi/include/c++/10.3.1/bits/stl_algobase.h **** 	   typename _OIte, typename _OSeq, typename _OCat>
 535:/Library/DaisyToolchain/0.2.0/arm/arm-none-eabi/include/c++/10.3.1/bits/stl_algobase.h ****     ::__gnu_debug::_Safe_iterator<_OIte, _OSeq, _OCat>
 536:/Library/DaisyToolchain/0.2.0/arm/arm-none-eabi/include/c++/10.3.1/bits/stl_algobase.h ****     __copy_move_a(const ::__gnu_debug::_Safe_iterator<_IIte, _ISeq, _ICat>&,
 537:/Library/DaisyToolchain/0.2.0/arm/arm-none-eabi/include/c++/10.3.1/bits/stl_algobase.h **** 		  const ::__gnu_debug::_Safe_iterator<_IIte, _ISeq, _ICat>&,
 538:/Library/DaisyToolchain/0.2.0/arm/arm-none-eabi/include/c++/10.3.1/bits/stl_algobase.h **** 		  const ::__gnu_debug::_Safe_iterator<_OIte, _OSeq, _OCat>&);
 539:/Library/DaisyToolchain/0.2.0/arm/arm-none-eabi/include/c++/10.3.1/bits/stl_algobase.h **** 
 540:/Library/DaisyToolchain/0.2.0/arm/arm-none-eabi/include/c++/10.3.1/bits/stl_algobase.h ****   /**
 541:/Library/DaisyToolchain/0.2.0/arm/arm-none-eabi/include/c++/10.3.1/bits/stl_algobase.h ****    *  @brief Copies the range [first,last) into result.
 542:/Library/DaisyToolchain/0.2.0/arm/arm-none-eabi/include/c++/10.3.1/bits/stl_algobase.h ****    *  @ingroup mutating_algorithms
ARM GAS  /var/folders/9s/8rp0_f2s1n31qbztm3b5_fdh0000gn/T//ccynLXMW.s 			page 12


 543:/Library/DaisyToolchain/0.2.0/arm/arm-none-eabi/include/c++/10.3.1/bits/stl_algobase.h ****    *  @param  __first  An input iterator.
 544:/Library/DaisyToolchain/0.2.0/arm/arm-none-eabi/include/c++/10.3.1/bits/stl_algobase.h ****    *  @param  __last   An input iterator.
 545:/Library/DaisyToolchain/0.2.0/arm/arm-none-eabi/include/c++/10.3.1/bits/stl_algobase.h ****    *  @param  __result An output iterator.
 546:/Library/DaisyToolchain/0.2.0/arm/arm-none-eabi/include/c++/10.3.1/bits/stl_algobase.h ****    *  @return   result + (last - first)
 547:/Library/DaisyToolchain/0.2.0/arm/arm-none-eabi/include/c++/10.3.1/bits/stl_algobase.h ****    *
 548:/Library/DaisyToolchain/0.2.0/arm/arm-none-eabi/include/c++/10.3.1/bits/stl_algobase.h ****    *  This inline function will boil down to a call to @c memmove whenever
 549:/Library/DaisyToolchain/0.2.0/arm/arm-none-eabi/include/c++/10.3.1/bits/stl_algobase.h ****    *  possible.  Failing that, if random access iterators are passed, then the
 550:/Library/DaisyToolchain/0.2.0/arm/arm-none-eabi/include/c++/10.3.1/bits/stl_algobase.h ****    *  loop count will be known (and therefore a candidate for compiler
 551:/Library/DaisyToolchain/0.2.0/arm/arm-none-eabi/include/c++/10.3.1/bits/stl_algobase.h ****    *  optimizations such as unrolling).  Result may not be contained within
 552:/Library/DaisyToolchain/0.2.0/arm/arm-none-eabi/include/c++/10.3.1/bits/stl_algobase.h ****    *  [first,last); the copy_backward function should be used instead.
 553:/Library/DaisyToolchain/0.2.0/arm/arm-none-eabi/include/c++/10.3.1/bits/stl_algobase.h ****    *
 554:/Library/DaisyToolchain/0.2.0/arm/arm-none-eabi/include/c++/10.3.1/bits/stl_algobase.h ****    *  Note that the end of the output range is permitted to be contained
 555:/Library/DaisyToolchain/0.2.0/arm/arm-none-eabi/include/c++/10.3.1/bits/stl_algobase.h ****    *  within [first,last).
 556:/Library/DaisyToolchain/0.2.0/arm/arm-none-eabi/include/c++/10.3.1/bits/stl_algobase.h ****   */
 557:/Library/DaisyToolchain/0.2.0/arm/arm-none-eabi/include/c++/10.3.1/bits/stl_algobase.h ****   template<typename _II, typename _OI>
 558:/Library/DaisyToolchain/0.2.0/arm/arm-none-eabi/include/c++/10.3.1/bits/stl_algobase.h ****     _GLIBCXX20_CONSTEXPR
 559:/Library/DaisyToolchain/0.2.0/arm/arm-none-eabi/include/c++/10.3.1/bits/stl_algobase.h ****     inline _OI
 560:/Library/DaisyToolchain/0.2.0/arm/arm-none-eabi/include/c++/10.3.1/bits/stl_algobase.h ****     copy(_II __first, _II __last, _OI __result)
 561:/Library/DaisyToolchain/0.2.0/arm/arm-none-eabi/include/c++/10.3.1/bits/stl_algobase.h ****     {
 562:/Library/DaisyToolchain/0.2.0/arm/arm-none-eabi/include/c++/10.3.1/bits/stl_algobase.h ****       // concept requirements
 563:/Library/DaisyToolchain/0.2.0/arm/arm-none-eabi/include/c++/10.3.1/bits/stl_algobase.h ****       __glibcxx_function_requires(_InputIteratorConcept<_II>)
 564:/Library/DaisyToolchain/0.2.0/arm/arm-none-eabi/include/c++/10.3.1/bits/stl_algobase.h ****       __glibcxx_function_requires(_OutputIteratorConcept<_OI,
 565:/Library/DaisyToolchain/0.2.0/arm/arm-none-eabi/include/c++/10.3.1/bits/stl_algobase.h **** 	    typename iterator_traits<_II>::value_type>)
 566:/Library/DaisyToolchain/0.2.0/arm/arm-none-eabi/include/c++/10.3.1/bits/stl_algobase.h ****       __glibcxx_requires_can_increment_range(__first, __last, __result);
 567:/Library/DaisyToolchain/0.2.0/arm/arm-none-eabi/include/c++/10.3.1/bits/stl_algobase.h **** 
 568:/Library/DaisyToolchain/0.2.0/arm/arm-none-eabi/include/c++/10.3.1/bits/stl_algobase.h ****       return std::__copy_move_a<__is_move_iterator<_II>::__value>
 569:/Library/DaisyToolchain/0.2.0/arm/arm-none-eabi/include/c++/10.3.1/bits/stl_algobase.h **** 	     (std::__miter_base(__first), std::__miter_base(__last), __result);
 570:/Library/DaisyToolchain/0.2.0/arm/arm-none-eabi/include/c++/10.3.1/bits/stl_algobase.h ****     }
 571:/Library/DaisyToolchain/0.2.0/arm/arm-none-eabi/include/c++/10.3.1/bits/stl_algobase.h **** 
 572:/Library/DaisyToolchain/0.2.0/arm/arm-none-eabi/include/c++/10.3.1/bits/stl_algobase.h **** #if __cplusplus >= 201103L
 573:/Library/DaisyToolchain/0.2.0/arm/arm-none-eabi/include/c++/10.3.1/bits/stl_algobase.h ****   /**
 574:/Library/DaisyToolchain/0.2.0/arm/arm-none-eabi/include/c++/10.3.1/bits/stl_algobase.h ****    *  @brief Moves the range [first,last) into result.
 575:/Library/DaisyToolchain/0.2.0/arm/arm-none-eabi/include/c++/10.3.1/bits/stl_algobase.h ****    *  @ingroup mutating_algorithms
 576:/Library/DaisyToolchain/0.2.0/arm/arm-none-eabi/include/c++/10.3.1/bits/stl_algobase.h ****    *  @param  __first  An input iterator.
 577:/Library/DaisyToolchain/0.2.0/arm/arm-none-eabi/include/c++/10.3.1/bits/stl_algobase.h ****    *  @param  __last   An input iterator.
 578:/Library/DaisyToolchain/0.2.0/arm/arm-none-eabi/include/c++/10.3.1/bits/stl_algobase.h ****    *  @param  __result An output iterator.
 579:/Library/DaisyToolchain/0.2.0/arm/arm-none-eabi/include/c++/10.3.1/bits/stl_algobase.h ****    *  @return   result + (last - first)
 580:/Library/DaisyToolchain/0.2.0/arm/arm-none-eabi/include/c++/10.3.1/bits/stl_algobase.h ****    *
 581:/Library/DaisyToolchain/0.2.0/arm/arm-none-eabi/include/c++/10.3.1/bits/stl_algobase.h ****    *  This inline function will boil down to a call to @c memmove whenever
 582:/Library/DaisyToolchain/0.2.0/arm/arm-none-eabi/include/c++/10.3.1/bits/stl_algobase.h ****    *  possible.  Failing that, if random access iterators are passed, then the
 583:/Library/DaisyToolchain/0.2.0/arm/arm-none-eabi/include/c++/10.3.1/bits/stl_algobase.h ****    *  loop count will be known (and therefore a candidate for compiler
 584:/Library/DaisyToolchain/0.2.0/arm/arm-none-eabi/include/c++/10.3.1/bits/stl_algobase.h ****    *  optimizations such as unrolling).  Result may not be contained within
 585:/Library/DaisyToolchain/0.2.0/arm/arm-none-eabi/include/c++/10.3.1/bits/stl_algobase.h ****    *  [first,last); the move_backward function should be used instead.
 586:/Library/DaisyToolchain/0.2.0/arm/arm-none-eabi/include/c++/10.3.1/bits/stl_algobase.h ****    *
 587:/Library/DaisyToolchain/0.2.0/arm/arm-none-eabi/include/c++/10.3.1/bits/stl_algobase.h ****    *  Note that the end of the output range is permitted to be contained
 588:/Library/DaisyToolchain/0.2.0/arm/arm-none-eabi/include/c++/10.3.1/bits/stl_algobase.h ****    *  within [first,last).
 589:/Library/DaisyToolchain/0.2.0/arm/arm-none-eabi/include/c++/10.3.1/bits/stl_algobase.h ****   */
 590:/Library/DaisyToolchain/0.2.0/arm/arm-none-eabi/include/c++/10.3.1/bits/stl_algobase.h ****   template<typename _II, typename _OI>
 591:/Library/DaisyToolchain/0.2.0/arm/arm-none-eabi/include/c++/10.3.1/bits/stl_algobase.h ****     _GLIBCXX20_CONSTEXPR
 592:/Library/DaisyToolchain/0.2.0/arm/arm-none-eabi/include/c++/10.3.1/bits/stl_algobase.h ****     inline _OI
 593:/Library/DaisyToolchain/0.2.0/arm/arm-none-eabi/include/c++/10.3.1/bits/stl_algobase.h ****     move(_II __first, _II __last, _OI __result)
 594:/Library/DaisyToolchain/0.2.0/arm/arm-none-eabi/include/c++/10.3.1/bits/stl_algobase.h ****     {
 595:/Library/DaisyToolchain/0.2.0/arm/arm-none-eabi/include/c++/10.3.1/bits/stl_algobase.h ****       // concept requirements
 596:/Library/DaisyToolchain/0.2.0/arm/arm-none-eabi/include/c++/10.3.1/bits/stl_algobase.h ****       __glibcxx_function_requires(_InputIteratorConcept<_II>)
 597:/Library/DaisyToolchain/0.2.0/arm/arm-none-eabi/include/c++/10.3.1/bits/stl_algobase.h ****       __glibcxx_function_requires(_OutputIteratorConcept<_OI,
 598:/Library/DaisyToolchain/0.2.0/arm/arm-none-eabi/include/c++/10.3.1/bits/stl_algobase.h **** 	    typename iterator_traits<_II>::value_type>)
 599:/Library/DaisyToolchain/0.2.0/arm/arm-none-eabi/include/c++/10.3.1/bits/stl_algobase.h ****       __glibcxx_requires_can_increment_range(__first, __last, __result);
ARM GAS  /var/folders/9s/8rp0_f2s1n31qbztm3b5_fdh0000gn/T//ccynLXMW.s 			page 13


 600:/Library/DaisyToolchain/0.2.0/arm/arm-none-eabi/include/c++/10.3.1/bits/stl_algobase.h **** 
 601:/Library/DaisyToolchain/0.2.0/arm/arm-none-eabi/include/c++/10.3.1/bits/stl_algobase.h ****       return std::__copy_move_a<true>(std::__miter_base(__first),
 602:/Library/DaisyToolchain/0.2.0/arm/arm-none-eabi/include/c++/10.3.1/bits/stl_algobase.h **** 				      std::__miter_base(__last), __result);
 603:/Library/DaisyToolchain/0.2.0/arm/arm-none-eabi/include/c++/10.3.1/bits/stl_algobase.h ****     }
 604:/Library/DaisyToolchain/0.2.0/arm/arm-none-eabi/include/c++/10.3.1/bits/stl_algobase.h **** 
 605:/Library/DaisyToolchain/0.2.0/arm/arm-none-eabi/include/c++/10.3.1/bits/stl_algobase.h **** #define _GLIBCXX_MOVE3(_Tp, _Up, _Vp) std::move(_Tp, _Up, _Vp)
 606:/Library/DaisyToolchain/0.2.0/arm/arm-none-eabi/include/c++/10.3.1/bits/stl_algobase.h **** #else
 607:/Library/DaisyToolchain/0.2.0/arm/arm-none-eabi/include/c++/10.3.1/bits/stl_algobase.h **** #define _GLIBCXX_MOVE3(_Tp, _Up, _Vp) std::copy(_Tp, _Up, _Vp)
 608:/Library/DaisyToolchain/0.2.0/arm/arm-none-eabi/include/c++/10.3.1/bits/stl_algobase.h **** #endif
 609:/Library/DaisyToolchain/0.2.0/arm/arm-none-eabi/include/c++/10.3.1/bits/stl_algobase.h **** 
 610:/Library/DaisyToolchain/0.2.0/arm/arm-none-eabi/include/c++/10.3.1/bits/stl_algobase.h ****   template<bool _IsMove, bool _IsSimple, typename _Category>
 611:/Library/DaisyToolchain/0.2.0/arm/arm-none-eabi/include/c++/10.3.1/bits/stl_algobase.h ****     struct __copy_move_backward
 612:/Library/DaisyToolchain/0.2.0/arm/arm-none-eabi/include/c++/10.3.1/bits/stl_algobase.h ****     {
 613:/Library/DaisyToolchain/0.2.0/arm/arm-none-eabi/include/c++/10.3.1/bits/stl_algobase.h ****       template<typename _BI1, typename _BI2>
 614:/Library/DaisyToolchain/0.2.0/arm/arm-none-eabi/include/c++/10.3.1/bits/stl_algobase.h **** 	_GLIBCXX20_CONSTEXPR
 615:/Library/DaisyToolchain/0.2.0/arm/arm-none-eabi/include/c++/10.3.1/bits/stl_algobase.h **** 	static _BI2
 616:/Library/DaisyToolchain/0.2.0/arm/arm-none-eabi/include/c++/10.3.1/bits/stl_algobase.h **** 	__copy_move_b(_BI1 __first, _BI1 __last, _BI2 __result)
 617:/Library/DaisyToolchain/0.2.0/arm/arm-none-eabi/include/c++/10.3.1/bits/stl_algobase.h **** 	{
 618:/Library/DaisyToolchain/0.2.0/arm/arm-none-eabi/include/c++/10.3.1/bits/stl_algobase.h **** 	  while (__first != __last)
 619:/Library/DaisyToolchain/0.2.0/arm/arm-none-eabi/include/c++/10.3.1/bits/stl_algobase.h **** 	    *--__result = *--__last;
 620:/Library/DaisyToolchain/0.2.0/arm/arm-none-eabi/include/c++/10.3.1/bits/stl_algobase.h **** 	  return __result;
 621:/Library/DaisyToolchain/0.2.0/arm/arm-none-eabi/include/c++/10.3.1/bits/stl_algobase.h **** 	}
 622:/Library/DaisyToolchain/0.2.0/arm/arm-none-eabi/include/c++/10.3.1/bits/stl_algobase.h ****     };
 623:/Library/DaisyToolchain/0.2.0/arm/arm-none-eabi/include/c++/10.3.1/bits/stl_algobase.h **** 
 624:/Library/DaisyToolchain/0.2.0/arm/arm-none-eabi/include/c++/10.3.1/bits/stl_algobase.h **** #if __cplusplus >= 201103L
 625:/Library/DaisyToolchain/0.2.0/arm/arm-none-eabi/include/c++/10.3.1/bits/stl_algobase.h ****   template<typename _Category>
 626:/Library/DaisyToolchain/0.2.0/arm/arm-none-eabi/include/c++/10.3.1/bits/stl_algobase.h ****     struct __copy_move_backward<true, false, _Category>
 627:/Library/DaisyToolchain/0.2.0/arm/arm-none-eabi/include/c++/10.3.1/bits/stl_algobase.h ****     {
 628:/Library/DaisyToolchain/0.2.0/arm/arm-none-eabi/include/c++/10.3.1/bits/stl_algobase.h ****       template<typename _BI1, typename _BI2>
 629:/Library/DaisyToolchain/0.2.0/arm/arm-none-eabi/include/c++/10.3.1/bits/stl_algobase.h **** 	_GLIBCXX20_CONSTEXPR
 630:/Library/DaisyToolchain/0.2.0/arm/arm-none-eabi/include/c++/10.3.1/bits/stl_algobase.h **** 	static _BI2
 631:/Library/DaisyToolchain/0.2.0/arm/arm-none-eabi/include/c++/10.3.1/bits/stl_algobase.h **** 	__copy_move_b(_BI1 __first, _BI1 __last, _BI2 __result)
 632:/Library/DaisyToolchain/0.2.0/arm/arm-none-eabi/include/c++/10.3.1/bits/stl_algobase.h **** 	{
 633:/Library/DaisyToolchain/0.2.0/arm/arm-none-eabi/include/c++/10.3.1/bits/stl_algobase.h **** 	  while (__first != __last)
 634:/Library/DaisyToolchain/0.2.0/arm/arm-none-eabi/include/c++/10.3.1/bits/stl_algobase.h **** 	    *--__result = std::move(*--__last);
 635:/Library/DaisyToolchain/0.2.0/arm/arm-none-eabi/include/c++/10.3.1/bits/stl_algobase.h **** 	  return __result;
 636:/Library/DaisyToolchain/0.2.0/arm/arm-none-eabi/include/c++/10.3.1/bits/stl_algobase.h **** 	}
 637:/Library/DaisyToolchain/0.2.0/arm/arm-none-eabi/include/c++/10.3.1/bits/stl_algobase.h ****     };
 638:/Library/DaisyToolchain/0.2.0/arm/arm-none-eabi/include/c++/10.3.1/bits/stl_algobase.h **** #endif
 639:/Library/DaisyToolchain/0.2.0/arm/arm-none-eabi/include/c++/10.3.1/bits/stl_algobase.h **** 
 640:/Library/DaisyToolchain/0.2.0/arm/arm-none-eabi/include/c++/10.3.1/bits/stl_algobase.h ****   template<>
 641:/Library/DaisyToolchain/0.2.0/arm/arm-none-eabi/include/c++/10.3.1/bits/stl_algobase.h ****     struct __copy_move_backward<false, false, random_access_iterator_tag>
 642:/Library/DaisyToolchain/0.2.0/arm/arm-none-eabi/include/c++/10.3.1/bits/stl_algobase.h ****     {
 643:/Library/DaisyToolchain/0.2.0/arm/arm-none-eabi/include/c++/10.3.1/bits/stl_algobase.h ****       template<typename _BI1, typename _BI2>
 644:/Library/DaisyToolchain/0.2.0/arm/arm-none-eabi/include/c++/10.3.1/bits/stl_algobase.h **** 	_GLIBCXX20_CONSTEXPR
 645:/Library/DaisyToolchain/0.2.0/arm/arm-none-eabi/include/c++/10.3.1/bits/stl_algobase.h **** 	static _BI2
 646:/Library/DaisyToolchain/0.2.0/arm/arm-none-eabi/include/c++/10.3.1/bits/stl_algobase.h **** 	__copy_move_b(_BI1 __first, _BI1 __last, _BI2 __result)
 647:/Library/DaisyToolchain/0.2.0/arm/arm-none-eabi/include/c++/10.3.1/bits/stl_algobase.h **** 	{
 648:/Library/DaisyToolchain/0.2.0/arm/arm-none-eabi/include/c++/10.3.1/bits/stl_algobase.h **** 	  typename iterator_traits<_BI1>::difference_type
 649:/Library/DaisyToolchain/0.2.0/arm/arm-none-eabi/include/c++/10.3.1/bits/stl_algobase.h **** 	    __n = __last - __first;
 650:/Library/DaisyToolchain/0.2.0/arm/arm-none-eabi/include/c++/10.3.1/bits/stl_algobase.h **** 	  for (; __n > 0; --__n)
 651:/Library/DaisyToolchain/0.2.0/arm/arm-none-eabi/include/c++/10.3.1/bits/stl_algobase.h **** 	    *--__result = *--__last;
 652:/Library/DaisyToolchain/0.2.0/arm/arm-none-eabi/include/c++/10.3.1/bits/stl_algobase.h **** 	  return __result;
 653:/Library/DaisyToolchain/0.2.0/arm/arm-none-eabi/include/c++/10.3.1/bits/stl_algobase.h **** 	}
 654:/Library/DaisyToolchain/0.2.0/arm/arm-none-eabi/include/c++/10.3.1/bits/stl_algobase.h ****     };
 655:/Library/DaisyToolchain/0.2.0/arm/arm-none-eabi/include/c++/10.3.1/bits/stl_algobase.h **** 
 656:/Library/DaisyToolchain/0.2.0/arm/arm-none-eabi/include/c++/10.3.1/bits/stl_algobase.h **** #if __cplusplus >= 201103L
ARM GAS  /var/folders/9s/8rp0_f2s1n31qbztm3b5_fdh0000gn/T//ccynLXMW.s 			page 14


 657:/Library/DaisyToolchain/0.2.0/arm/arm-none-eabi/include/c++/10.3.1/bits/stl_algobase.h ****   template<>
 658:/Library/DaisyToolchain/0.2.0/arm/arm-none-eabi/include/c++/10.3.1/bits/stl_algobase.h ****     struct __copy_move_backward<true, false, random_access_iterator_tag>
 659:/Library/DaisyToolchain/0.2.0/arm/arm-none-eabi/include/c++/10.3.1/bits/stl_algobase.h ****     {
 660:/Library/DaisyToolchain/0.2.0/arm/arm-none-eabi/include/c++/10.3.1/bits/stl_algobase.h ****       template<typename _BI1, typename _BI2>
 661:/Library/DaisyToolchain/0.2.0/arm/arm-none-eabi/include/c++/10.3.1/bits/stl_algobase.h **** 	_GLIBCXX20_CONSTEXPR
 662:/Library/DaisyToolchain/0.2.0/arm/arm-none-eabi/include/c++/10.3.1/bits/stl_algobase.h **** 	static _BI2
 663:/Library/DaisyToolchain/0.2.0/arm/arm-none-eabi/include/c++/10.3.1/bits/stl_algobase.h **** 	__copy_move_b(_BI1 __first, _BI1 __last, _BI2 __result)
 664:/Library/DaisyToolchain/0.2.0/arm/arm-none-eabi/include/c++/10.3.1/bits/stl_algobase.h **** 	{
 665:/Library/DaisyToolchain/0.2.0/arm/arm-none-eabi/include/c++/10.3.1/bits/stl_algobase.h **** 	  typename iterator_traits<_BI1>::difference_type
 666:/Library/DaisyToolchain/0.2.0/arm/arm-none-eabi/include/c++/10.3.1/bits/stl_algobase.h **** 	    __n = __last - __first;
 667:/Library/DaisyToolchain/0.2.0/arm/arm-none-eabi/include/c++/10.3.1/bits/stl_algobase.h **** 	  for (; __n > 0; --__n)
 668:/Library/DaisyToolchain/0.2.0/arm/arm-none-eabi/include/c++/10.3.1/bits/stl_algobase.h **** 	    *--__result = std::move(*--__last);
 669:/Library/DaisyToolchain/0.2.0/arm/arm-none-eabi/include/c++/10.3.1/bits/stl_algobase.h **** 	  return __result;
 670:/Library/DaisyToolchain/0.2.0/arm/arm-none-eabi/include/c++/10.3.1/bits/stl_algobase.h **** 	}
 671:/Library/DaisyToolchain/0.2.0/arm/arm-none-eabi/include/c++/10.3.1/bits/stl_algobase.h ****     };
 672:/Library/DaisyToolchain/0.2.0/arm/arm-none-eabi/include/c++/10.3.1/bits/stl_algobase.h **** #endif
 673:/Library/DaisyToolchain/0.2.0/arm/arm-none-eabi/include/c++/10.3.1/bits/stl_algobase.h **** 
 674:/Library/DaisyToolchain/0.2.0/arm/arm-none-eabi/include/c++/10.3.1/bits/stl_algobase.h ****   template<bool _IsMove>
 675:/Library/DaisyToolchain/0.2.0/arm/arm-none-eabi/include/c++/10.3.1/bits/stl_algobase.h ****     struct __copy_move_backward<_IsMove, true, random_access_iterator_tag>
 676:/Library/DaisyToolchain/0.2.0/arm/arm-none-eabi/include/c++/10.3.1/bits/stl_algobase.h ****     {
 677:/Library/DaisyToolchain/0.2.0/arm/arm-none-eabi/include/c++/10.3.1/bits/stl_algobase.h ****       template<typename _Tp>
 678:/Library/DaisyToolchain/0.2.0/arm/arm-none-eabi/include/c++/10.3.1/bits/stl_algobase.h **** 	_GLIBCXX20_CONSTEXPR
 679:/Library/DaisyToolchain/0.2.0/arm/arm-none-eabi/include/c++/10.3.1/bits/stl_algobase.h **** 	static _Tp*
 680:/Library/DaisyToolchain/0.2.0/arm/arm-none-eabi/include/c++/10.3.1/bits/stl_algobase.h **** 	__copy_move_b(const _Tp* __first, const _Tp* __last, _Tp* __result)
 681:/Library/DaisyToolchain/0.2.0/arm/arm-none-eabi/include/c++/10.3.1/bits/stl_algobase.h **** 	{
 682:/Library/DaisyToolchain/0.2.0/arm/arm-none-eabi/include/c++/10.3.1/bits/stl_algobase.h **** #if __cplusplus >= 201103L
 683:/Library/DaisyToolchain/0.2.0/arm/arm-none-eabi/include/c++/10.3.1/bits/stl_algobase.h **** 	  using __assignable = conditional<_IsMove,
 684:/Library/DaisyToolchain/0.2.0/arm/arm-none-eabi/include/c++/10.3.1/bits/stl_algobase.h **** 					   is_move_assignable<_Tp>,
 685:/Library/DaisyToolchain/0.2.0/arm/arm-none-eabi/include/c++/10.3.1/bits/stl_algobase.h **** 					   is_copy_assignable<_Tp>>;
 686:/Library/DaisyToolchain/0.2.0/arm/arm-none-eabi/include/c++/10.3.1/bits/stl_algobase.h **** 	  // trivial types can have deleted assignment
 687:/Library/DaisyToolchain/0.2.0/arm/arm-none-eabi/include/c++/10.3.1/bits/stl_algobase.h **** 	  static_assert( __assignable::type::value, "type is not assignable" );
 688:/Library/DaisyToolchain/0.2.0/arm/arm-none-eabi/include/c++/10.3.1/bits/stl_algobase.h **** #endif
 689:/Library/DaisyToolchain/0.2.0/arm/arm-none-eabi/include/c++/10.3.1/bits/stl_algobase.h **** 	  const ptrdiff_t _Num = __last - __first;
 690:/Library/DaisyToolchain/0.2.0/arm/arm-none-eabi/include/c++/10.3.1/bits/stl_algobase.h **** 	  if (_Num)
 691:/Library/DaisyToolchain/0.2.0/arm/arm-none-eabi/include/c++/10.3.1/bits/stl_algobase.h **** 	    __builtin_memmove(__result - _Num, __first, sizeof(_Tp) * _Num);
 692:/Library/DaisyToolchain/0.2.0/arm/arm-none-eabi/include/c++/10.3.1/bits/stl_algobase.h **** 	  return __result - _Num;
 693:/Library/DaisyToolchain/0.2.0/arm/arm-none-eabi/include/c++/10.3.1/bits/stl_algobase.h **** 	}
 694:/Library/DaisyToolchain/0.2.0/arm/arm-none-eabi/include/c++/10.3.1/bits/stl_algobase.h ****     };
 695:/Library/DaisyToolchain/0.2.0/arm/arm-none-eabi/include/c++/10.3.1/bits/stl_algobase.h **** 
 696:/Library/DaisyToolchain/0.2.0/arm/arm-none-eabi/include/c++/10.3.1/bits/stl_algobase.h ****   template<bool _IsMove, typename _BI1, typename _BI2>
 697:/Library/DaisyToolchain/0.2.0/arm/arm-none-eabi/include/c++/10.3.1/bits/stl_algobase.h ****     _GLIBCXX20_CONSTEXPR
 698:/Library/DaisyToolchain/0.2.0/arm/arm-none-eabi/include/c++/10.3.1/bits/stl_algobase.h ****     inline _BI2
 699:/Library/DaisyToolchain/0.2.0/arm/arm-none-eabi/include/c++/10.3.1/bits/stl_algobase.h ****     __copy_move_backward_a2(_BI1 __first, _BI1 __last, _BI2 __result)
 700:/Library/DaisyToolchain/0.2.0/arm/arm-none-eabi/include/c++/10.3.1/bits/stl_algobase.h ****     {
 701:/Library/DaisyToolchain/0.2.0/arm/arm-none-eabi/include/c++/10.3.1/bits/stl_algobase.h ****       typedef typename iterator_traits<_BI1>::iterator_category _Category;
 702:/Library/DaisyToolchain/0.2.0/arm/arm-none-eabi/include/c++/10.3.1/bits/stl_algobase.h **** #ifdef __cpp_lib_is_constant_evaluated
 703:/Library/DaisyToolchain/0.2.0/arm/arm-none-eabi/include/c++/10.3.1/bits/stl_algobase.h ****       if (std::is_constant_evaluated())
 704:/Library/DaisyToolchain/0.2.0/arm/arm-none-eabi/include/c++/10.3.1/bits/stl_algobase.h **** 	return std::__copy_move_backward<_IsMove, false, _Category>::
 705:/Library/DaisyToolchain/0.2.0/arm/arm-none-eabi/include/c++/10.3.1/bits/stl_algobase.h **** 	  __copy_move_b(__first, __last, __result);
 706:/Library/DaisyToolchain/0.2.0/arm/arm-none-eabi/include/c++/10.3.1/bits/stl_algobase.h **** #endif
 707:/Library/DaisyToolchain/0.2.0/arm/arm-none-eabi/include/c++/10.3.1/bits/stl_algobase.h ****       return std::__copy_move_backward<_IsMove,
 708:/Library/DaisyToolchain/0.2.0/arm/arm-none-eabi/include/c++/10.3.1/bits/stl_algobase.h **** 				       __memcpyable<_BI2, _BI1>::__value,
 709:/Library/DaisyToolchain/0.2.0/arm/arm-none-eabi/include/c++/10.3.1/bits/stl_algobase.h **** 				       _Category>::__copy_move_b(__first,
 710:/Library/DaisyToolchain/0.2.0/arm/arm-none-eabi/include/c++/10.3.1/bits/stl_algobase.h **** 								 __last,
 711:/Library/DaisyToolchain/0.2.0/arm/arm-none-eabi/include/c++/10.3.1/bits/stl_algobase.h **** 								 __result);
 712:/Library/DaisyToolchain/0.2.0/arm/arm-none-eabi/include/c++/10.3.1/bits/stl_algobase.h ****     }
 713:/Library/DaisyToolchain/0.2.0/arm/arm-none-eabi/include/c++/10.3.1/bits/stl_algobase.h **** 
ARM GAS  /var/folders/9s/8rp0_f2s1n31qbztm3b5_fdh0000gn/T//ccynLXMW.s 			page 15


 714:/Library/DaisyToolchain/0.2.0/arm/arm-none-eabi/include/c++/10.3.1/bits/stl_algobase.h ****   template<bool _IsMove, typename _BI1, typename _BI2>
 715:/Library/DaisyToolchain/0.2.0/arm/arm-none-eabi/include/c++/10.3.1/bits/stl_algobase.h ****     _GLIBCXX20_CONSTEXPR
 716:/Library/DaisyToolchain/0.2.0/arm/arm-none-eabi/include/c++/10.3.1/bits/stl_algobase.h ****     inline _BI2
 717:/Library/DaisyToolchain/0.2.0/arm/arm-none-eabi/include/c++/10.3.1/bits/stl_algobase.h ****     __copy_move_backward_a1(_BI1 __first, _BI1 __last, _BI2 __result)
 718:/Library/DaisyToolchain/0.2.0/arm/arm-none-eabi/include/c++/10.3.1/bits/stl_algobase.h ****     { return std::__copy_move_backward_a2<_IsMove>(__first, __last, __result); }
 719:/Library/DaisyToolchain/0.2.0/arm/arm-none-eabi/include/c++/10.3.1/bits/stl_algobase.h **** 
 720:/Library/DaisyToolchain/0.2.0/arm/arm-none-eabi/include/c++/10.3.1/bits/stl_algobase.h ****   template<bool _IsMove,
 721:/Library/DaisyToolchain/0.2.0/arm/arm-none-eabi/include/c++/10.3.1/bits/stl_algobase.h **** 	   typename _Tp, typename _Ref, typename _Ptr, typename _OI>
 722:/Library/DaisyToolchain/0.2.0/arm/arm-none-eabi/include/c++/10.3.1/bits/stl_algobase.h ****     _OI
 723:/Library/DaisyToolchain/0.2.0/arm/arm-none-eabi/include/c++/10.3.1/bits/stl_algobase.h ****     __copy_move_backward_a1(_GLIBCXX_STD_C::_Deque_iterator<_Tp, _Ref, _Ptr>,
 724:/Library/DaisyToolchain/0.2.0/arm/arm-none-eabi/include/c++/10.3.1/bits/stl_algobase.h **** 			    _GLIBCXX_STD_C::_Deque_iterator<_Tp, _Ref, _Ptr>,
 725:/Library/DaisyToolchain/0.2.0/arm/arm-none-eabi/include/c++/10.3.1/bits/stl_algobase.h **** 			    _OI);
 726:/Library/DaisyToolchain/0.2.0/arm/arm-none-eabi/include/c++/10.3.1/bits/stl_algobase.h **** 
 727:/Library/DaisyToolchain/0.2.0/arm/arm-none-eabi/include/c++/10.3.1/bits/stl_algobase.h ****   template<bool _IsMove,
 728:/Library/DaisyToolchain/0.2.0/arm/arm-none-eabi/include/c++/10.3.1/bits/stl_algobase.h **** 	   typename _ITp, typename _IRef, typename _IPtr, typename _OTp>
 729:/Library/DaisyToolchain/0.2.0/arm/arm-none-eabi/include/c++/10.3.1/bits/stl_algobase.h ****     _GLIBCXX_STD_C::_Deque_iterator<_OTp, _OTp&, _OTp*>
 730:/Library/DaisyToolchain/0.2.0/arm/arm-none-eabi/include/c++/10.3.1/bits/stl_algobase.h ****     __copy_move_backward_a1(
 731:/Library/DaisyToolchain/0.2.0/arm/arm-none-eabi/include/c++/10.3.1/bits/stl_algobase.h **** 			_GLIBCXX_STD_C::_Deque_iterator<_ITp, _IRef, _IPtr>,
 732:/Library/DaisyToolchain/0.2.0/arm/arm-none-eabi/include/c++/10.3.1/bits/stl_algobase.h **** 			_GLIBCXX_STD_C::_Deque_iterator<_ITp, _IRef, _IPtr>,
 733:/Library/DaisyToolchain/0.2.0/arm/arm-none-eabi/include/c++/10.3.1/bits/stl_algobase.h **** 			_GLIBCXX_STD_C::_Deque_iterator<_OTp, _OTp&, _OTp*>);
 734:/Library/DaisyToolchain/0.2.0/arm/arm-none-eabi/include/c++/10.3.1/bits/stl_algobase.h **** 
 735:/Library/DaisyToolchain/0.2.0/arm/arm-none-eabi/include/c++/10.3.1/bits/stl_algobase.h ****   template<bool _IsMove, typename _II, typename _Tp>
 736:/Library/DaisyToolchain/0.2.0/arm/arm-none-eabi/include/c++/10.3.1/bits/stl_algobase.h ****     typename __gnu_cxx::__enable_if<
 737:/Library/DaisyToolchain/0.2.0/arm/arm-none-eabi/include/c++/10.3.1/bits/stl_algobase.h ****       __is_random_access_iter<_II>::__value,
 738:/Library/DaisyToolchain/0.2.0/arm/arm-none-eabi/include/c++/10.3.1/bits/stl_algobase.h ****       _GLIBCXX_STD_C::_Deque_iterator<_Tp, _Tp&, _Tp*> >::__type
 739:/Library/DaisyToolchain/0.2.0/arm/arm-none-eabi/include/c++/10.3.1/bits/stl_algobase.h ****     __copy_move_backward_a1(_II, _II,
 740:/Library/DaisyToolchain/0.2.0/arm/arm-none-eabi/include/c++/10.3.1/bits/stl_algobase.h **** 			    _GLIBCXX_STD_C::_Deque_iterator<_Tp, _Tp&, _Tp*>);
 741:/Library/DaisyToolchain/0.2.0/arm/arm-none-eabi/include/c++/10.3.1/bits/stl_algobase.h **** 
 742:/Library/DaisyToolchain/0.2.0/arm/arm-none-eabi/include/c++/10.3.1/bits/stl_algobase.h ****   template<bool _IsMove, typename _II, typename _OI>
 743:/Library/DaisyToolchain/0.2.0/arm/arm-none-eabi/include/c++/10.3.1/bits/stl_algobase.h ****     _GLIBCXX20_CONSTEXPR
 744:/Library/DaisyToolchain/0.2.0/arm/arm-none-eabi/include/c++/10.3.1/bits/stl_algobase.h ****     inline _OI
 745:/Library/DaisyToolchain/0.2.0/arm/arm-none-eabi/include/c++/10.3.1/bits/stl_algobase.h ****     __copy_move_backward_a(_II __first, _II __last, _OI __result)
 746:/Library/DaisyToolchain/0.2.0/arm/arm-none-eabi/include/c++/10.3.1/bits/stl_algobase.h ****     {
 747:/Library/DaisyToolchain/0.2.0/arm/arm-none-eabi/include/c++/10.3.1/bits/stl_algobase.h ****       return std::__niter_wrap(__result,
 748:/Library/DaisyToolchain/0.2.0/arm/arm-none-eabi/include/c++/10.3.1/bits/stl_algobase.h **** 		std::__copy_move_backward_a1<_IsMove>
 749:/Library/DaisyToolchain/0.2.0/arm/arm-none-eabi/include/c++/10.3.1/bits/stl_algobase.h **** 		  (std::__niter_base(__first), std::__niter_base(__last),
 750:/Library/DaisyToolchain/0.2.0/arm/arm-none-eabi/include/c++/10.3.1/bits/stl_algobase.h **** 		   std::__niter_base(__result)));
 751:/Library/DaisyToolchain/0.2.0/arm/arm-none-eabi/include/c++/10.3.1/bits/stl_algobase.h ****     }
 752:/Library/DaisyToolchain/0.2.0/arm/arm-none-eabi/include/c++/10.3.1/bits/stl_algobase.h **** 
 753:/Library/DaisyToolchain/0.2.0/arm/arm-none-eabi/include/c++/10.3.1/bits/stl_algobase.h ****   template<bool _IsMove,
 754:/Library/DaisyToolchain/0.2.0/arm/arm-none-eabi/include/c++/10.3.1/bits/stl_algobase.h **** 	   typename _Ite, typename _Seq, typename _Cat, typename _OI>
 755:/Library/DaisyToolchain/0.2.0/arm/arm-none-eabi/include/c++/10.3.1/bits/stl_algobase.h ****     _OI
 756:/Library/DaisyToolchain/0.2.0/arm/arm-none-eabi/include/c++/10.3.1/bits/stl_algobase.h ****     __copy_move_backward_a(
 757:/Library/DaisyToolchain/0.2.0/arm/arm-none-eabi/include/c++/10.3.1/bits/stl_algobase.h **** 		const ::__gnu_debug::_Safe_iterator<_Ite, _Seq, _Cat>&,
 758:/Library/DaisyToolchain/0.2.0/arm/arm-none-eabi/include/c++/10.3.1/bits/stl_algobase.h **** 		const ::__gnu_debug::_Safe_iterator<_Ite, _Seq, _Cat>&,
 759:/Library/DaisyToolchain/0.2.0/arm/arm-none-eabi/include/c++/10.3.1/bits/stl_algobase.h **** 		_OI);
 760:/Library/DaisyToolchain/0.2.0/arm/arm-none-eabi/include/c++/10.3.1/bits/stl_algobase.h **** 
 761:/Library/DaisyToolchain/0.2.0/arm/arm-none-eabi/include/c++/10.3.1/bits/stl_algobase.h ****   template<bool _IsMove,
 762:/Library/DaisyToolchain/0.2.0/arm/arm-none-eabi/include/c++/10.3.1/bits/stl_algobase.h **** 	   typename _II, typename _Ite, typename _Seq, typename _Cat>
 763:/Library/DaisyToolchain/0.2.0/arm/arm-none-eabi/include/c++/10.3.1/bits/stl_algobase.h ****     __gnu_debug::_Safe_iterator<_Ite, _Seq, _Cat>
 764:/Library/DaisyToolchain/0.2.0/arm/arm-none-eabi/include/c++/10.3.1/bits/stl_algobase.h ****     __copy_move_backward_a(_II, _II,
 765:/Library/DaisyToolchain/0.2.0/arm/arm-none-eabi/include/c++/10.3.1/bits/stl_algobase.h **** 		const ::__gnu_debug::_Safe_iterator<_Ite, _Seq, _Cat>&);
 766:/Library/DaisyToolchain/0.2.0/arm/arm-none-eabi/include/c++/10.3.1/bits/stl_algobase.h **** 
 767:/Library/DaisyToolchain/0.2.0/arm/arm-none-eabi/include/c++/10.3.1/bits/stl_algobase.h ****   template<bool _IsMove,
 768:/Library/DaisyToolchain/0.2.0/arm/arm-none-eabi/include/c++/10.3.1/bits/stl_algobase.h **** 	   typename _IIte, typename _ISeq, typename _ICat,
 769:/Library/DaisyToolchain/0.2.0/arm/arm-none-eabi/include/c++/10.3.1/bits/stl_algobase.h **** 	   typename _OIte, typename _OSeq, typename _OCat>
 770:/Library/DaisyToolchain/0.2.0/arm/arm-none-eabi/include/c++/10.3.1/bits/stl_algobase.h ****     ::__gnu_debug::_Safe_iterator<_OIte, _OSeq, _OCat>
ARM GAS  /var/folders/9s/8rp0_f2s1n31qbztm3b5_fdh0000gn/T//ccynLXMW.s 			page 16


 771:/Library/DaisyToolchain/0.2.0/arm/arm-none-eabi/include/c++/10.3.1/bits/stl_algobase.h ****     __copy_move_backward_a(
 772:/Library/DaisyToolchain/0.2.0/arm/arm-none-eabi/include/c++/10.3.1/bits/stl_algobase.h **** 		const ::__gnu_debug::_Safe_iterator<_IIte, _ISeq, _ICat>&,
 773:/Library/DaisyToolchain/0.2.0/arm/arm-none-eabi/include/c++/10.3.1/bits/stl_algobase.h **** 		const ::__gnu_debug::_Safe_iterator<_IIte, _ISeq, _ICat>&,
 774:/Library/DaisyToolchain/0.2.0/arm/arm-none-eabi/include/c++/10.3.1/bits/stl_algobase.h **** 		const ::__gnu_debug::_Safe_iterator<_OIte, _OSeq, _OCat>&);
 775:/Library/DaisyToolchain/0.2.0/arm/arm-none-eabi/include/c++/10.3.1/bits/stl_algobase.h **** 
 776:/Library/DaisyToolchain/0.2.0/arm/arm-none-eabi/include/c++/10.3.1/bits/stl_algobase.h ****   /**
 777:/Library/DaisyToolchain/0.2.0/arm/arm-none-eabi/include/c++/10.3.1/bits/stl_algobase.h ****    *  @brief Copies the range [first,last) into result.
 778:/Library/DaisyToolchain/0.2.0/arm/arm-none-eabi/include/c++/10.3.1/bits/stl_algobase.h ****    *  @ingroup mutating_algorithms
 779:/Library/DaisyToolchain/0.2.0/arm/arm-none-eabi/include/c++/10.3.1/bits/stl_algobase.h ****    *  @param  __first  A bidirectional iterator.
 780:/Library/DaisyToolchain/0.2.0/arm/arm-none-eabi/include/c++/10.3.1/bits/stl_algobase.h ****    *  @param  __last   A bidirectional iterator.
 781:/Library/DaisyToolchain/0.2.0/arm/arm-none-eabi/include/c++/10.3.1/bits/stl_algobase.h ****    *  @param  __result A bidirectional iterator.
 782:/Library/DaisyToolchain/0.2.0/arm/arm-none-eabi/include/c++/10.3.1/bits/stl_algobase.h ****    *  @return   result - (last - first)
 783:/Library/DaisyToolchain/0.2.0/arm/arm-none-eabi/include/c++/10.3.1/bits/stl_algobase.h ****    *
 784:/Library/DaisyToolchain/0.2.0/arm/arm-none-eabi/include/c++/10.3.1/bits/stl_algobase.h ****    *  The function has the same effect as copy, but starts at the end of the
 785:/Library/DaisyToolchain/0.2.0/arm/arm-none-eabi/include/c++/10.3.1/bits/stl_algobase.h ****    *  range and works its way to the start, returning the start of the result.
 786:/Library/DaisyToolchain/0.2.0/arm/arm-none-eabi/include/c++/10.3.1/bits/stl_algobase.h ****    *  This inline function will boil down to a call to @c memmove whenever
 787:/Library/DaisyToolchain/0.2.0/arm/arm-none-eabi/include/c++/10.3.1/bits/stl_algobase.h ****    *  possible.  Failing that, if random access iterators are passed, then the
 788:/Library/DaisyToolchain/0.2.0/arm/arm-none-eabi/include/c++/10.3.1/bits/stl_algobase.h ****    *  loop count will be known (and therefore a candidate for compiler
 789:/Library/DaisyToolchain/0.2.0/arm/arm-none-eabi/include/c++/10.3.1/bits/stl_algobase.h ****    *  optimizations such as unrolling).
 790:/Library/DaisyToolchain/0.2.0/arm/arm-none-eabi/include/c++/10.3.1/bits/stl_algobase.h ****    *
 791:/Library/DaisyToolchain/0.2.0/arm/arm-none-eabi/include/c++/10.3.1/bits/stl_algobase.h ****    *  Result may not be in the range (first,last].  Use copy instead.  Note
 792:/Library/DaisyToolchain/0.2.0/arm/arm-none-eabi/include/c++/10.3.1/bits/stl_algobase.h ****    *  that the start of the output range may overlap [first,last).
 793:/Library/DaisyToolchain/0.2.0/arm/arm-none-eabi/include/c++/10.3.1/bits/stl_algobase.h ****   */
 794:/Library/DaisyToolchain/0.2.0/arm/arm-none-eabi/include/c++/10.3.1/bits/stl_algobase.h ****   template<typename _BI1, typename _BI2>
 795:/Library/DaisyToolchain/0.2.0/arm/arm-none-eabi/include/c++/10.3.1/bits/stl_algobase.h ****     _GLIBCXX20_CONSTEXPR
 796:/Library/DaisyToolchain/0.2.0/arm/arm-none-eabi/include/c++/10.3.1/bits/stl_algobase.h ****     inline _BI2
 797:/Library/DaisyToolchain/0.2.0/arm/arm-none-eabi/include/c++/10.3.1/bits/stl_algobase.h ****     copy_backward(_BI1 __first, _BI1 __last, _BI2 __result)
 798:/Library/DaisyToolchain/0.2.0/arm/arm-none-eabi/include/c++/10.3.1/bits/stl_algobase.h ****     {
 799:/Library/DaisyToolchain/0.2.0/arm/arm-none-eabi/include/c++/10.3.1/bits/stl_algobase.h ****       // concept requirements
 800:/Library/DaisyToolchain/0.2.0/arm/arm-none-eabi/include/c++/10.3.1/bits/stl_algobase.h ****       __glibcxx_function_requires(_BidirectionalIteratorConcept<_BI1>)
 801:/Library/DaisyToolchain/0.2.0/arm/arm-none-eabi/include/c++/10.3.1/bits/stl_algobase.h ****       __glibcxx_function_requires(_Mutable_BidirectionalIteratorConcept<_BI2>)
 802:/Library/DaisyToolchain/0.2.0/arm/arm-none-eabi/include/c++/10.3.1/bits/stl_algobase.h ****       __glibcxx_function_requires(_ConvertibleConcept<
 803:/Library/DaisyToolchain/0.2.0/arm/arm-none-eabi/include/c++/10.3.1/bits/stl_algobase.h **** 	    typename iterator_traits<_BI1>::value_type,
 804:/Library/DaisyToolchain/0.2.0/arm/arm-none-eabi/include/c++/10.3.1/bits/stl_algobase.h **** 	    typename iterator_traits<_BI2>::value_type>)
 805:/Library/DaisyToolchain/0.2.0/arm/arm-none-eabi/include/c++/10.3.1/bits/stl_algobase.h ****       __glibcxx_requires_can_decrement_range(__first, __last, __result);
 806:/Library/DaisyToolchain/0.2.0/arm/arm-none-eabi/include/c++/10.3.1/bits/stl_algobase.h **** 
 807:/Library/DaisyToolchain/0.2.0/arm/arm-none-eabi/include/c++/10.3.1/bits/stl_algobase.h ****       return std::__copy_move_backward_a<__is_move_iterator<_BI1>::__value>
 808:/Library/DaisyToolchain/0.2.0/arm/arm-none-eabi/include/c++/10.3.1/bits/stl_algobase.h **** 	     (std::__miter_base(__first), std::__miter_base(__last), __result);
 809:/Library/DaisyToolchain/0.2.0/arm/arm-none-eabi/include/c++/10.3.1/bits/stl_algobase.h ****     }
 810:/Library/DaisyToolchain/0.2.0/arm/arm-none-eabi/include/c++/10.3.1/bits/stl_algobase.h **** 
 811:/Library/DaisyToolchain/0.2.0/arm/arm-none-eabi/include/c++/10.3.1/bits/stl_algobase.h **** #if __cplusplus >= 201103L
 812:/Library/DaisyToolchain/0.2.0/arm/arm-none-eabi/include/c++/10.3.1/bits/stl_algobase.h ****   /**
 813:/Library/DaisyToolchain/0.2.0/arm/arm-none-eabi/include/c++/10.3.1/bits/stl_algobase.h ****    *  @brief Moves the range [first,last) into result.
 814:/Library/DaisyToolchain/0.2.0/arm/arm-none-eabi/include/c++/10.3.1/bits/stl_algobase.h ****    *  @ingroup mutating_algorithms
 815:/Library/DaisyToolchain/0.2.0/arm/arm-none-eabi/include/c++/10.3.1/bits/stl_algobase.h ****    *  @param  __first  A bidirectional iterator.
 816:/Library/DaisyToolchain/0.2.0/arm/arm-none-eabi/include/c++/10.3.1/bits/stl_algobase.h ****    *  @param  __last   A bidirectional iterator.
 817:/Library/DaisyToolchain/0.2.0/arm/arm-none-eabi/include/c++/10.3.1/bits/stl_algobase.h ****    *  @param  __result A bidirectional iterator.
 818:/Library/DaisyToolchain/0.2.0/arm/arm-none-eabi/include/c++/10.3.1/bits/stl_algobase.h ****    *  @return   result - (last - first)
 819:/Library/DaisyToolchain/0.2.0/arm/arm-none-eabi/include/c++/10.3.1/bits/stl_algobase.h ****    *
 820:/Library/DaisyToolchain/0.2.0/arm/arm-none-eabi/include/c++/10.3.1/bits/stl_algobase.h ****    *  The function has the same effect as move, but starts at the end of the
 821:/Library/DaisyToolchain/0.2.0/arm/arm-none-eabi/include/c++/10.3.1/bits/stl_algobase.h ****    *  range and works its way to the start, returning the start of the result.
 822:/Library/DaisyToolchain/0.2.0/arm/arm-none-eabi/include/c++/10.3.1/bits/stl_algobase.h ****    *  This inline function will boil down to a call to @c memmove whenever
 823:/Library/DaisyToolchain/0.2.0/arm/arm-none-eabi/include/c++/10.3.1/bits/stl_algobase.h ****    *  possible.  Failing that, if random access iterators are passed, then the
 824:/Library/DaisyToolchain/0.2.0/arm/arm-none-eabi/include/c++/10.3.1/bits/stl_algobase.h ****    *  loop count will be known (and therefore a candidate for compiler
 825:/Library/DaisyToolchain/0.2.0/arm/arm-none-eabi/include/c++/10.3.1/bits/stl_algobase.h ****    *  optimizations such as unrolling).
 826:/Library/DaisyToolchain/0.2.0/arm/arm-none-eabi/include/c++/10.3.1/bits/stl_algobase.h ****    *
 827:/Library/DaisyToolchain/0.2.0/arm/arm-none-eabi/include/c++/10.3.1/bits/stl_algobase.h ****    *  Result may not be in the range (first,last].  Use move instead.  Note
ARM GAS  /var/folders/9s/8rp0_f2s1n31qbztm3b5_fdh0000gn/T//ccynLXMW.s 			page 17


 828:/Library/DaisyToolchain/0.2.0/arm/arm-none-eabi/include/c++/10.3.1/bits/stl_algobase.h ****    *  that the start of the output range may overlap [first,last).
 829:/Library/DaisyToolchain/0.2.0/arm/arm-none-eabi/include/c++/10.3.1/bits/stl_algobase.h ****   */
 830:/Library/DaisyToolchain/0.2.0/arm/arm-none-eabi/include/c++/10.3.1/bits/stl_algobase.h ****   template<typename _BI1, typename _BI2>
 831:/Library/DaisyToolchain/0.2.0/arm/arm-none-eabi/include/c++/10.3.1/bits/stl_algobase.h ****     _GLIBCXX20_CONSTEXPR
 832:/Library/DaisyToolchain/0.2.0/arm/arm-none-eabi/include/c++/10.3.1/bits/stl_algobase.h ****     inline _BI2
 833:/Library/DaisyToolchain/0.2.0/arm/arm-none-eabi/include/c++/10.3.1/bits/stl_algobase.h ****     move_backward(_BI1 __first, _BI1 __last, _BI2 __result)
 834:/Library/DaisyToolchain/0.2.0/arm/arm-none-eabi/include/c++/10.3.1/bits/stl_algobase.h ****     {
 835:/Library/DaisyToolchain/0.2.0/arm/arm-none-eabi/include/c++/10.3.1/bits/stl_algobase.h ****       // concept requirements
 836:/Library/DaisyToolchain/0.2.0/arm/arm-none-eabi/include/c++/10.3.1/bits/stl_algobase.h ****       __glibcxx_function_requires(_BidirectionalIteratorConcept<_BI1>)
 837:/Library/DaisyToolchain/0.2.0/arm/arm-none-eabi/include/c++/10.3.1/bits/stl_algobase.h ****       __glibcxx_function_requires(_Mutable_BidirectionalIteratorConcept<_BI2>)
 838:/Library/DaisyToolchain/0.2.0/arm/arm-none-eabi/include/c++/10.3.1/bits/stl_algobase.h ****       __glibcxx_function_requires(_ConvertibleConcept<
 839:/Library/DaisyToolchain/0.2.0/arm/arm-none-eabi/include/c++/10.3.1/bits/stl_algobase.h **** 	    typename iterator_traits<_BI1>::value_type,
 840:/Library/DaisyToolchain/0.2.0/arm/arm-none-eabi/include/c++/10.3.1/bits/stl_algobase.h **** 	    typename iterator_traits<_BI2>::value_type>)
 841:/Library/DaisyToolchain/0.2.0/arm/arm-none-eabi/include/c++/10.3.1/bits/stl_algobase.h ****       __glibcxx_requires_can_decrement_range(__first, __last, __result);
 842:/Library/DaisyToolchain/0.2.0/arm/arm-none-eabi/include/c++/10.3.1/bits/stl_algobase.h **** 
 843:/Library/DaisyToolchain/0.2.0/arm/arm-none-eabi/include/c++/10.3.1/bits/stl_algobase.h ****       return std::__copy_move_backward_a<true>(std::__miter_base(__first),
 844:/Library/DaisyToolchain/0.2.0/arm/arm-none-eabi/include/c++/10.3.1/bits/stl_algobase.h **** 					       std::__miter_base(__last),
 845:/Library/DaisyToolchain/0.2.0/arm/arm-none-eabi/include/c++/10.3.1/bits/stl_algobase.h **** 					       __result);
 846:/Library/DaisyToolchain/0.2.0/arm/arm-none-eabi/include/c++/10.3.1/bits/stl_algobase.h ****     }
 847:/Library/DaisyToolchain/0.2.0/arm/arm-none-eabi/include/c++/10.3.1/bits/stl_algobase.h **** 
 848:/Library/DaisyToolchain/0.2.0/arm/arm-none-eabi/include/c++/10.3.1/bits/stl_algobase.h **** #define _GLIBCXX_MOVE_BACKWARD3(_Tp, _Up, _Vp) std::move_backward(_Tp, _Up, _Vp)
 849:/Library/DaisyToolchain/0.2.0/arm/arm-none-eabi/include/c++/10.3.1/bits/stl_algobase.h **** #else
 850:/Library/DaisyToolchain/0.2.0/arm/arm-none-eabi/include/c++/10.3.1/bits/stl_algobase.h **** #define _GLIBCXX_MOVE_BACKWARD3(_Tp, _Up, _Vp) std::copy_backward(_Tp, _Up, _Vp)
 851:/Library/DaisyToolchain/0.2.0/arm/arm-none-eabi/include/c++/10.3.1/bits/stl_algobase.h **** #endif
 852:/Library/DaisyToolchain/0.2.0/arm/arm-none-eabi/include/c++/10.3.1/bits/stl_algobase.h **** 
 853:/Library/DaisyToolchain/0.2.0/arm/arm-none-eabi/include/c++/10.3.1/bits/stl_algobase.h ****   template<typename _ForwardIterator, typename _Tp>
 854:/Library/DaisyToolchain/0.2.0/arm/arm-none-eabi/include/c++/10.3.1/bits/stl_algobase.h ****     _GLIBCXX20_CONSTEXPR
 855:/Library/DaisyToolchain/0.2.0/arm/arm-none-eabi/include/c++/10.3.1/bits/stl_algobase.h ****     inline typename
 856:/Library/DaisyToolchain/0.2.0/arm/arm-none-eabi/include/c++/10.3.1/bits/stl_algobase.h ****     __gnu_cxx::__enable_if<!__is_scalar<_Tp>::__value, void>::__type
 857:/Library/DaisyToolchain/0.2.0/arm/arm-none-eabi/include/c++/10.3.1/bits/stl_algobase.h ****     __fill_a1(_ForwardIterator __first, _ForwardIterator __last,
 858:/Library/DaisyToolchain/0.2.0/arm/arm-none-eabi/include/c++/10.3.1/bits/stl_algobase.h **** 	      const _Tp& __value)
 859:/Library/DaisyToolchain/0.2.0/arm/arm-none-eabi/include/c++/10.3.1/bits/stl_algobase.h ****     {
 860:/Library/DaisyToolchain/0.2.0/arm/arm-none-eabi/include/c++/10.3.1/bits/stl_algobase.h ****       for (; __first != __last; ++__first)
 861:/Library/DaisyToolchain/0.2.0/arm/arm-none-eabi/include/c++/10.3.1/bits/stl_algobase.h **** 	*__first = __value;
 862:/Library/DaisyToolchain/0.2.0/arm/arm-none-eabi/include/c++/10.3.1/bits/stl_algobase.h ****     }
 863:/Library/DaisyToolchain/0.2.0/arm/arm-none-eabi/include/c++/10.3.1/bits/stl_algobase.h **** 
 864:/Library/DaisyToolchain/0.2.0/arm/arm-none-eabi/include/c++/10.3.1/bits/stl_algobase.h ****   template<typename _ForwardIterator, typename _Tp>
 865:/Library/DaisyToolchain/0.2.0/arm/arm-none-eabi/include/c++/10.3.1/bits/stl_algobase.h ****     _GLIBCXX20_CONSTEXPR
 866:/Library/DaisyToolchain/0.2.0/arm/arm-none-eabi/include/c++/10.3.1/bits/stl_algobase.h ****     inline typename
 867:/Library/DaisyToolchain/0.2.0/arm/arm-none-eabi/include/c++/10.3.1/bits/stl_algobase.h ****     __gnu_cxx::__enable_if<__is_scalar<_Tp>::__value, void>::__type
 868:/Library/DaisyToolchain/0.2.0/arm/arm-none-eabi/include/c++/10.3.1/bits/stl_algobase.h ****     __fill_a1(_ForwardIterator __first, _ForwardIterator __last,
 869:/Library/DaisyToolchain/0.2.0/arm/arm-none-eabi/include/c++/10.3.1/bits/stl_algobase.h **** 	      const _Tp& __value)
 870:/Library/DaisyToolchain/0.2.0/arm/arm-none-eabi/include/c++/10.3.1/bits/stl_algobase.h ****     {
 871:/Library/DaisyToolchain/0.2.0/arm/arm-none-eabi/include/c++/10.3.1/bits/stl_algobase.h ****       const _Tp __tmp = __value;
 872:/Library/DaisyToolchain/0.2.0/arm/arm-none-eabi/include/c++/10.3.1/bits/stl_algobase.h ****       for (; __first != __last; ++__first)
 873:/Library/DaisyToolchain/0.2.0/arm/arm-none-eabi/include/c++/10.3.1/bits/stl_algobase.h **** 	*__first = __tmp;
  42              		.loc 2 873 11 view .LVU3
  43 0002 0022     		movs	r2, #0
  44              	.LBE37:
  45              	.LBE36:
  46              	.LBE35:
  47              	.LBE34:
  48              		.loc 1 45 10 view .LVU4
  49 0004 0360     		str	r3, [r0]	@ float
  46:eurorack/plaits/dsp/speech/sam_speech_synth.cc ****   frequency_ = 0.0f;
  50              		.loc 1 46 3 is_stmt 1 view .LVU5
  51              		.loc 1 46 14 is_stmt 0 view .LVU6
ARM GAS  /var/folders/9s/8rp0_f2s1n31qbztm3b5_fdh0000gn/T//ccynLXMW.s 			page 18


  52 0006 4360     		str	r3, [r0, #4]	@ float
  47:eurorack/plaits/dsp/speech/sam_speech_synth.cc ****   pulse_next_sample_ = 0.0f;
  53              		.loc 1 47 3 is_stmt 1 view .LVU7
  54              		.loc 1 47 22 is_stmt 0 view .LVU8
  55 0008 8360     		str	r3, [r0, #8]	@ float
  48:eurorack/plaits/dsp/speech/sam_speech_synth.cc ****   pulse_lp_ = 0.0f;
  56              		.loc 1 48 3 is_stmt 1 view .LVU9
  57              		.loc 1 48 13 is_stmt 0 view .LVU10
  58 000a C360     		str	r3, [r0, #12]	@ float
  49:eurorack/plaits/dsp/speech/sam_speech_synth.cc ****   
  50:eurorack/plaits/dsp/speech/sam_speech_synth.cc ****   fill(&formant_phase_[0], &formant_phase_[3], 0);
  59              		.loc 1 50 3 is_stmt 1 view .LVU11
  60              	.LVL1:
  61              	.LBB44:
  62              	.LBI34:
 874:/Library/DaisyToolchain/0.2.0/arm/arm-none-eabi/include/c++/10.3.1/bits/stl_algobase.h ****     }
 875:/Library/DaisyToolchain/0.2.0/arm/arm-none-eabi/include/c++/10.3.1/bits/stl_algobase.h **** 
 876:/Library/DaisyToolchain/0.2.0/arm/arm-none-eabi/include/c++/10.3.1/bits/stl_algobase.h ****   // Specialization: for char types we can use memset.
 877:/Library/DaisyToolchain/0.2.0/arm/arm-none-eabi/include/c++/10.3.1/bits/stl_algobase.h ****   template<typename _Tp>
 878:/Library/DaisyToolchain/0.2.0/arm/arm-none-eabi/include/c++/10.3.1/bits/stl_algobase.h ****     _GLIBCXX20_CONSTEXPR
 879:/Library/DaisyToolchain/0.2.0/arm/arm-none-eabi/include/c++/10.3.1/bits/stl_algobase.h ****     inline typename
 880:/Library/DaisyToolchain/0.2.0/arm/arm-none-eabi/include/c++/10.3.1/bits/stl_algobase.h ****     __gnu_cxx::__enable_if<__is_byte<_Tp>::__value, void>::__type
 881:/Library/DaisyToolchain/0.2.0/arm/arm-none-eabi/include/c++/10.3.1/bits/stl_algobase.h ****     __fill_a1(_Tp* __first, _Tp* __last, const _Tp& __c)
 882:/Library/DaisyToolchain/0.2.0/arm/arm-none-eabi/include/c++/10.3.1/bits/stl_algobase.h ****     {
 883:/Library/DaisyToolchain/0.2.0/arm/arm-none-eabi/include/c++/10.3.1/bits/stl_algobase.h ****       const _Tp __tmp = __c;
 884:/Library/DaisyToolchain/0.2.0/arm/arm-none-eabi/include/c++/10.3.1/bits/stl_algobase.h **** #if __cpp_lib_is_constant_evaluated
 885:/Library/DaisyToolchain/0.2.0/arm/arm-none-eabi/include/c++/10.3.1/bits/stl_algobase.h ****       if (std::is_constant_evaluated())
 886:/Library/DaisyToolchain/0.2.0/arm/arm-none-eabi/include/c++/10.3.1/bits/stl_algobase.h **** 	{
 887:/Library/DaisyToolchain/0.2.0/arm/arm-none-eabi/include/c++/10.3.1/bits/stl_algobase.h **** 	  for (; __first != __last; ++__first)
 888:/Library/DaisyToolchain/0.2.0/arm/arm-none-eabi/include/c++/10.3.1/bits/stl_algobase.h **** 	    *__first = __tmp;
 889:/Library/DaisyToolchain/0.2.0/arm/arm-none-eabi/include/c++/10.3.1/bits/stl_algobase.h **** 	  return;
 890:/Library/DaisyToolchain/0.2.0/arm/arm-none-eabi/include/c++/10.3.1/bits/stl_algobase.h **** 	}
 891:/Library/DaisyToolchain/0.2.0/arm/arm-none-eabi/include/c++/10.3.1/bits/stl_algobase.h **** #endif
 892:/Library/DaisyToolchain/0.2.0/arm/arm-none-eabi/include/c++/10.3.1/bits/stl_algobase.h ****       if (const size_t __len = __last - __first)
 893:/Library/DaisyToolchain/0.2.0/arm/arm-none-eabi/include/c++/10.3.1/bits/stl_algobase.h **** 	__builtin_memset(__first, static_cast<unsigned char>(__tmp), __len);
 894:/Library/DaisyToolchain/0.2.0/arm/arm-none-eabi/include/c++/10.3.1/bits/stl_algobase.h ****     }
 895:/Library/DaisyToolchain/0.2.0/arm/arm-none-eabi/include/c++/10.3.1/bits/stl_algobase.h **** 
 896:/Library/DaisyToolchain/0.2.0/arm/arm-none-eabi/include/c++/10.3.1/bits/stl_algobase.h ****   template<typename _Ite, typename _Cont, typename _Tp>
 897:/Library/DaisyToolchain/0.2.0/arm/arm-none-eabi/include/c++/10.3.1/bits/stl_algobase.h ****     _GLIBCXX20_CONSTEXPR
 898:/Library/DaisyToolchain/0.2.0/arm/arm-none-eabi/include/c++/10.3.1/bits/stl_algobase.h ****     inline void
 899:/Library/DaisyToolchain/0.2.0/arm/arm-none-eabi/include/c++/10.3.1/bits/stl_algobase.h ****     __fill_a1(::__gnu_cxx::__normal_iterator<_Ite, _Cont> __first,
 900:/Library/DaisyToolchain/0.2.0/arm/arm-none-eabi/include/c++/10.3.1/bits/stl_algobase.h **** 	      ::__gnu_cxx::__normal_iterator<_Ite, _Cont> __last,
 901:/Library/DaisyToolchain/0.2.0/arm/arm-none-eabi/include/c++/10.3.1/bits/stl_algobase.h **** 	      const _Tp& __value)
 902:/Library/DaisyToolchain/0.2.0/arm/arm-none-eabi/include/c++/10.3.1/bits/stl_algobase.h ****     { std::__fill_a1(__first.base(), __last.base(), __value); }
 903:/Library/DaisyToolchain/0.2.0/arm/arm-none-eabi/include/c++/10.3.1/bits/stl_algobase.h **** 
 904:/Library/DaisyToolchain/0.2.0/arm/arm-none-eabi/include/c++/10.3.1/bits/stl_algobase.h ****   template<typename _Tp, typename _VTp>
 905:/Library/DaisyToolchain/0.2.0/arm/arm-none-eabi/include/c++/10.3.1/bits/stl_algobase.h ****     void
 906:/Library/DaisyToolchain/0.2.0/arm/arm-none-eabi/include/c++/10.3.1/bits/stl_algobase.h ****     __fill_a1(const _GLIBCXX_STD_C::_Deque_iterator<_Tp, _Tp&, _Tp*>&,
 907:/Library/DaisyToolchain/0.2.0/arm/arm-none-eabi/include/c++/10.3.1/bits/stl_algobase.h **** 	      const _GLIBCXX_STD_C::_Deque_iterator<_Tp, _Tp&, _Tp*>&,
 908:/Library/DaisyToolchain/0.2.0/arm/arm-none-eabi/include/c++/10.3.1/bits/stl_algobase.h **** 	      const _VTp&);
 909:/Library/DaisyToolchain/0.2.0/arm/arm-none-eabi/include/c++/10.3.1/bits/stl_algobase.h **** 
 910:/Library/DaisyToolchain/0.2.0/arm/arm-none-eabi/include/c++/10.3.1/bits/stl_algobase.h ****   template<typename _FIte, typename _Tp>
 911:/Library/DaisyToolchain/0.2.0/arm/arm-none-eabi/include/c++/10.3.1/bits/stl_algobase.h ****     _GLIBCXX20_CONSTEXPR
 912:/Library/DaisyToolchain/0.2.0/arm/arm-none-eabi/include/c++/10.3.1/bits/stl_algobase.h ****     inline void
 913:/Library/DaisyToolchain/0.2.0/arm/arm-none-eabi/include/c++/10.3.1/bits/stl_algobase.h ****     __fill_a(_FIte __first, _FIte __last, const _Tp& __value)
 914:/Library/DaisyToolchain/0.2.0/arm/arm-none-eabi/include/c++/10.3.1/bits/stl_algobase.h ****     { std::__fill_a1(__first, __last, __value); }
 915:/Library/DaisyToolchain/0.2.0/arm/arm-none-eabi/include/c++/10.3.1/bits/stl_algobase.h **** 
ARM GAS  /var/folders/9s/8rp0_f2s1n31qbztm3b5_fdh0000gn/T//ccynLXMW.s 			page 19


 916:/Library/DaisyToolchain/0.2.0/arm/arm-none-eabi/include/c++/10.3.1/bits/stl_algobase.h ****   template<typename _Ite, typename _Seq, typename _Cat, typename _Tp>
 917:/Library/DaisyToolchain/0.2.0/arm/arm-none-eabi/include/c++/10.3.1/bits/stl_algobase.h ****     void
 918:/Library/DaisyToolchain/0.2.0/arm/arm-none-eabi/include/c++/10.3.1/bits/stl_algobase.h ****     __fill_a(const ::__gnu_debug::_Safe_iterator<_Ite, _Seq, _Cat>&,
 919:/Library/DaisyToolchain/0.2.0/arm/arm-none-eabi/include/c++/10.3.1/bits/stl_algobase.h **** 	     const ::__gnu_debug::_Safe_iterator<_Ite, _Seq, _Cat>&,
 920:/Library/DaisyToolchain/0.2.0/arm/arm-none-eabi/include/c++/10.3.1/bits/stl_algobase.h **** 	     const _Tp&);
 921:/Library/DaisyToolchain/0.2.0/arm/arm-none-eabi/include/c++/10.3.1/bits/stl_algobase.h **** 
 922:/Library/DaisyToolchain/0.2.0/arm/arm-none-eabi/include/c++/10.3.1/bits/stl_algobase.h ****   /**
 923:/Library/DaisyToolchain/0.2.0/arm/arm-none-eabi/include/c++/10.3.1/bits/stl_algobase.h ****    *  @brief Fills the range [first,last) with copies of value.
 924:/Library/DaisyToolchain/0.2.0/arm/arm-none-eabi/include/c++/10.3.1/bits/stl_algobase.h ****    *  @ingroup mutating_algorithms
 925:/Library/DaisyToolchain/0.2.0/arm/arm-none-eabi/include/c++/10.3.1/bits/stl_algobase.h ****    *  @param  __first  A forward iterator.
 926:/Library/DaisyToolchain/0.2.0/arm/arm-none-eabi/include/c++/10.3.1/bits/stl_algobase.h ****    *  @param  __last   A forward iterator.
 927:/Library/DaisyToolchain/0.2.0/arm/arm-none-eabi/include/c++/10.3.1/bits/stl_algobase.h ****    *  @param  __value  A reference-to-const of arbitrary type.
 928:/Library/DaisyToolchain/0.2.0/arm/arm-none-eabi/include/c++/10.3.1/bits/stl_algobase.h ****    *  @return   Nothing.
 929:/Library/DaisyToolchain/0.2.0/arm/arm-none-eabi/include/c++/10.3.1/bits/stl_algobase.h ****    *
 930:/Library/DaisyToolchain/0.2.0/arm/arm-none-eabi/include/c++/10.3.1/bits/stl_algobase.h ****    *  This function fills a range with copies of the same value.  For char
 931:/Library/DaisyToolchain/0.2.0/arm/arm-none-eabi/include/c++/10.3.1/bits/stl_algobase.h ****    *  types filling contiguous areas of memory, this becomes an inline call
 932:/Library/DaisyToolchain/0.2.0/arm/arm-none-eabi/include/c++/10.3.1/bits/stl_algobase.h ****    *  to @c memset or @c wmemset.
 933:/Library/DaisyToolchain/0.2.0/arm/arm-none-eabi/include/c++/10.3.1/bits/stl_algobase.h ****   */
 934:/Library/DaisyToolchain/0.2.0/arm/arm-none-eabi/include/c++/10.3.1/bits/stl_algobase.h ****   template<typename _ForwardIterator, typename _Tp>
 935:/Library/DaisyToolchain/0.2.0/arm/arm-none-eabi/include/c++/10.3.1/bits/stl_algobase.h ****     _GLIBCXX20_CONSTEXPR
 936:/Library/DaisyToolchain/0.2.0/arm/arm-none-eabi/include/c++/10.3.1/bits/stl_algobase.h ****     inline void
 937:/Library/DaisyToolchain/0.2.0/arm/arm-none-eabi/include/c++/10.3.1/bits/stl_algobase.h ****     fill(_ForwardIterator __first, _ForwardIterator __last, const _Tp& __value)
  63              		.loc 2 937 5 view .LVU12
  64              	.LBB42:
  65              	.LBI35:
 913:/Library/DaisyToolchain/0.2.0/arm/arm-none-eabi/include/c++/10.3.1/bits/stl_algobase.h ****     { std::__fill_a1(__first, __last, __value); }
  66              		.loc 2 913 5 view .LVU13
  67              	.LBB40:
  68              	.LBI36:
 868:/Library/DaisyToolchain/0.2.0/arm/arm-none-eabi/include/c++/10.3.1/bits/stl_algobase.h **** 	      const _Tp& __value)
  69              		.loc 2 868 5 view .LVU14
  70              	.LBB38:
 872:/Library/DaisyToolchain/0.2.0/arm/arm-none-eabi/include/c++/10.3.1/bits/stl_algobase.h **** 	*__first = __tmp;
  71              		.loc 2 872 22 view .LVU15
  72              	.LBE38:
  73              	.LBE40:
  74              	.LBE42:
  75              	.LBE44:
  51:eurorack/plaits/dsp/speech/sam_speech_synth.cc ****   consonant_samples_ = 0;
  52:eurorack/plaits/dsp/speech/sam_speech_synth.cc ****   consonant_index_ = 0.0f;
  76              		.loc 1 52 20 is_stmt 0 view .LVU16
  77 000c 0362     		str	r3, [r0, #32]	@ float
  78              	.LBB45:
  79              	.LBB43:
  80              	.LBB41:
  81              	.LBB39:
 873:/Library/DaisyToolchain/0.2.0/arm/arm-none-eabi/include/c++/10.3.1/bits/stl_algobase.h ****     }
  82              		.loc 2 873 11 view .LVU17
  83 000e C0E90422 		strd	r2, r2, [r0, #16]
 872:/Library/DaisyToolchain/0.2.0/arm/arm-none-eabi/include/c++/10.3.1/bits/stl_algobase.h **** 	*__first = __tmp;
  84              		.loc 2 872 7 is_stmt 1 view .LVU18
  85              	.LVL2:
 872:/Library/DaisyToolchain/0.2.0/arm/arm-none-eabi/include/c++/10.3.1/bits/stl_algobase.h **** 	*__first = __tmp;
  86              		.loc 2 872 22 view .LVU19
  87              	.LBE39:
  88              	.LBE41:
  89              	.LBE43:
ARM GAS  /var/folders/9s/8rp0_f2s1n31qbztm3b5_fdh0000gn/T//ccynLXMW.s 			page 20


  90              	.LBE45:
  51:eurorack/plaits/dsp/speech/sam_speech_synth.cc ****   consonant_samples_ = 0;
  91              		.loc 1 51 22 is_stmt 0 view .LVU20
  92 0012 C0E90622 		strd	r2, r2, [r0, #24]
  93              		.loc 1 52 3 is_stmt 1 view .LVU21
  53:eurorack/plaits/dsp/speech/sam_speech_synth.cc **** }
  94              		.loc 1 53 1 is_stmt 0 view .LVU22
  95 0016 7047     		bx	lr
  96              		.cfi_endproc
  97              	.LFE1430:
  99              		.section	.text._ZN6plaits14SAMSpeechSynth22InterpolatePhonemeDataEffPmPf,"ax",%progbits
 100              		.align	1
 101              		.global	_ZN6plaits14SAMSpeechSynth22InterpolatePhonemeDataEffPmPf
 102              		.syntax unified
 103              		.thumb
 104              		.thumb_func
 106              	_ZN6plaits14SAMSpeechSynth22InterpolatePhonemeDataEffPmPf:
 107              	.LVL3:
 108              	.LFB1431:
  54:eurorack/plaits/dsp/speech/sam_speech_synth.cc **** 
  55:eurorack/plaits/dsp/speech/sam_speech_synth.cc **** // Phoneme data
  56:eurorack/plaits/dsp/speech/sam_speech_synth.cc **** 
  57:eurorack/plaits/dsp/speech/sam_speech_synth.cc **** /* static */
  58:eurorack/plaits/dsp/speech/sam_speech_synth.cc **** SAMSpeechSynth::Phoneme SAMSpeechSynth::phonemes_[] = {
  59:eurorack/plaits/dsp/speech/sam_speech_synth.cc ****   { { { 60, 15 }, { 90, 13 }, { 200, 1 } } },
  60:eurorack/plaits/dsp/speech/sam_speech_synth.cc ****   { { { 40, 13 }, { 114, 12 }, { 139, 6 } } },
  61:eurorack/plaits/dsp/speech/sam_speech_synth.cc ****   { { { 33, 14 }, { 155, 12 }, { 209, 7 } } },
  62:eurorack/plaits/dsp/speech/sam_speech_synth.cc ****   { { { 22, 13 }, { 189, 10 }, { 247, 8 } } },
  63:eurorack/plaits/dsp/speech/sam_speech_synth.cc ****   { { { 51, 15 }, { 99, 12 }, { 195, 1 } } },
  64:eurorack/plaits/dsp/speech/sam_speech_synth.cc ****   { { { 29, 13 }, { 65, 8 }, { 180, 0 } } },
  65:eurorack/plaits/dsp/speech/sam_speech_synth.cc ****   { { { 13, 12 }, { 103, 3 }, { 182, 0 } } },
  66:eurorack/plaits/dsp/speech/sam_speech_synth.cc ****   { { { 20, 15 }, { 114, 3 }, { 213, 0 } } },
  67:eurorack/plaits/dsp/speech/sam_speech_synth.cc ****   { { { 13, 7 }, { 164, 3 }, { 222, 14 } } },
  68:eurorack/plaits/dsp/speech/sam_speech_synth.cc ****   { { { 13, 9 }, { 121, 9 }, { 254, 0 } } },
  69:eurorack/plaits/dsp/speech/sam_speech_synth.cc ****   { { { 40, 12 }, { 112, 10 }, { 114, 5 } } },
  70:eurorack/plaits/dsp/speech/sam_speech_synth.cc ****   { { { 24, 13 }, { 54, 8 }, { 157, 0 } } },
  71:eurorack/plaits/dsp/speech/sam_speech_synth.cc ****   { { { 33, 14 }, { 155, 12 }, { 166, 7 } } },
  72:eurorack/plaits/dsp/speech/sam_speech_synth.cc ****   { { { 36, 14 }, { 83, 8 }, { 249, 1 } } },
  73:eurorack/plaits/dsp/speech/sam_speech_synth.cc ****   { { { 40, 14 }, { 114, 12 }, { 139, 6 } } },
  74:eurorack/plaits/dsp/speech/sam_speech_synth.cc ****   { { { 13, 5 }, { 58, 5 }, { 182, 5 } } },
  75:eurorack/plaits/dsp/speech/sam_speech_synth.cc ****   { { { 13, 7 }, { 164, 10 }, { 222, 14 } } }
  76:eurorack/plaits/dsp/speech/sam_speech_synth.cc **** };
  77:eurorack/plaits/dsp/speech/sam_speech_synth.cc **** 
  78:eurorack/plaits/dsp/speech/sam_speech_synth.cc **** /* static */
  79:eurorack/plaits/dsp/speech/sam_speech_synth.cc **** float SAMSpeechSynth::formant_amplitude_lut[] = {
  80:eurorack/plaits/dsp/speech/sam_speech_synth.cc ****   0.03125000f,  0.03756299f,  0.04515131f,  0.05427259f,  0.06523652f,
  81:eurorack/plaits/dsp/speech/sam_speech_synth.cc ****   0.07841532f,  0.09425646f,  0.11329776f,  0.13618570f,  0.16369736f,
  82:eurorack/plaits/dsp/speech/sam_speech_synth.cc ****   0.19676682f,  0.23651683f,  0.28429697f,  0.34172946f,  0.41076422f,
  83:eurorack/plaits/dsp/speech/sam_speech_synth.cc ****   0.49374509f
  84:eurorack/plaits/dsp/speech/sam_speech_synth.cc **** };
  85:eurorack/plaits/dsp/speech/sam_speech_synth.cc **** 
  86:eurorack/plaits/dsp/speech/sam_speech_synth.cc **** void SAMSpeechSynth::InterpolatePhonemeData(
  87:eurorack/plaits/dsp/speech/sam_speech_synth.cc ****   float phoneme,
  88:eurorack/plaits/dsp/speech/sam_speech_synth.cc ****   float formant_shift,
  89:eurorack/plaits/dsp/speech/sam_speech_synth.cc ****   uint32_t* formant_frequency,
  90:eurorack/plaits/dsp/speech/sam_speech_synth.cc ****   float* formant_amplitude) {
 109              		.loc 1 90 29 is_stmt 1 view -0
ARM GAS  /var/folders/9s/8rp0_f2s1n31qbztm3b5_fdh0000gn/T//ccynLXMW.s 			page 21


 110              		.cfi_startproc
 111              		@ args = 0, pretend = 0, frame = 0
 112              		@ frame_needed = 0, uses_anonymous_args = 0
  91:eurorack/plaits/dsp/speech/sam_speech_synth.cc ****   MAKE_INTEGRAL_FRACTIONAL(phoneme);
 113              		.loc 1 91 3 view .LVU24
 114 0000 FDEEC07A 		vcvt.s32.f32	s15, s0
 115 0004 0620     		movs	r0, #6
 116              	.LVL4:
  92:eurorack/plaits/dsp/speech/sam_speech_synth.cc **** 
  93:eurorack/plaits/dsp/speech/sam_speech_synth.cc ****   const Phoneme& p_1 = phonemes_[phoneme_integral];
  94:eurorack/plaits/dsp/speech/sam_speech_synth.cc ****   const Phoneme& p_2 = phonemes_[phoneme_integral + 1];
  95:eurorack/plaits/dsp/speech/sam_speech_synth.cc **** 
  96:eurorack/plaits/dsp/speech/sam_speech_synth.cc ****   formant_shift = 1.0f + formant_shift * 2.5f;
 117              		.loc 1 96 17 is_stmt 0 view .LVU25
 118 0006 B0EE047A 		vmov.f32	s14, #2.5e+0
 119 000a 294B     		ldr	r3, .L5
 120 000c 0439     		subs	r1, r1, #4
 121              	.LVL5:
  90:eurorack/plaits/dsp/speech/sam_speech_synth.cc ****   MAKE_INTEGRAL_FRACTIONAL(phoneme);
 122              		.loc 1 90 29 view .LVU26
 123 000e F0B5     		push	{r4, r5, r6, r7, lr}
 124              		.cfi_def_cfa_offset 20
 125              		.cfi_offset 4, -20
 126              		.cfi_offset 5, -16
 127              		.cfi_offset 6, -12
 128              		.cfi_offset 7, -8
 129              		.cfi_offset 14, -4
  91:eurorack/plaits/dsp/speech/sam_speech_synth.cc ****   MAKE_INTEGRAL_FRACTIONAL(phoneme);
 130              		.loc 1 91 3 view .LVU27
 131 0010 17EE904A 		vmov	r4, s15	@ int
 132              	.LVL6:
  91:eurorack/plaits/dsp/speech/sam_speech_synth.cc ****   MAKE_INTEGRAL_FRACTIONAL(phoneme);
 133              		.loc 1 91 3 is_stmt 1 view .LVU28
 134 0014 F8EEE77A 		vcvt.f32.s32	s15, s15
 135 0018 6FF00505 		mvn	r5, #5
 136 001c 02F10C07 		add	r7, r2, #12
 137 0020 6043     		muls	r0, r4, r0
 138 0022 30EE670A 		vsub.f32	s0, s0, s15
 139              	.LVL7:
  91:eurorack/plaits/dsp/speech/sam_speech_synth.cc ****   MAKE_INTEGRAL_FRACTIONAL(phoneme);
 140              		.loc 1 91 36 view .LVU29
  93:eurorack/plaits/dsp/speech/sam_speech_synth.cc ****   const Phoneme& p_2 = phonemes_[phoneme_integral + 1];
 141              		.loc 1 93 3 view .LVU30
  94:eurorack/plaits/dsp/speech/sam_speech_synth.cc **** 
 142              		.loc 1 94 3 view .LVU31
 143              		.loc 1 96 3 view .LVU32
 144 0026 6C43     		muls	r4, r5, r4
 145              	.LVL8:
 146              		.loc 1 96 17 is_stmt 0 view .LVU33
 147 0028 F7EE007A 		vmov.f32	s15, #1.0e+0
 148 002c 0344     		add	r3, r3, r0
 149 002e 00F1060C 		add	ip, r0, #6
 150 0032 0730     		adds	r0, r0, #7
 151 0034 E0EE877A 		vfma.f32	s15, s1, s14
 152              	.LVL9:
  97:eurorack/plaits/dsp/speech/sam_speech_synth.cc ****   for (int i = 0; i < kSAMNumFormants; ++i) {
 153              		.loc 1 97 3 is_stmt 1 view .LVU34
ARM GAS  /var/folders/9s/8rp0_f2s1n31qbztm3b5_fdh0000gn/T//ccynLXMW.s 			page 22


 154              	.LBB46:
 155              		.loc 1 97 21 view .LVU35
 156              	.LBB47:
  98:eurorack/plaits/dsp/speech/sam_speech_synth.cc ****     float f_1 = p_1.formant[i].frequency;
  99:eurorack/plaits/dsp/speech/sam_speech_synth.cc ****     float f_2 = p_2.formant[i].frequency;
 100:eurorack/plaits/dsp/speech/sam_speech_synth.cc ****     float f = f_1 + (f_2 - f_1) * phoneme_fractional;
 101:eurorack/plaits/dsp/speech/sam_speech_synth.cc ****     f *= 8.0f * formant_shift * 4294967296.0f / kSampleRate;
 157              		.loc 1 101 15 is_stmt 0 view .LVU36
 158 0038 B2EE007A 		vmov.f32	s14, #8.0e+0
 159 003c 67EE877A 		vmul.f32	s15, s15, s14
 160              	.LVL10:
 161              		.loc 1 101 31 view .LVU37
 162 0040 9FED1C7A 		vldr.32	s14, .L5+4
 163 0044 67EE877A 		vmul.f32	s15, s15, s14
 164              		.loc 1 101 47 view .LVU38
 165 0048 9FED1B7A 		vldr.32	s14, .L5+8
 166 004c C7EE876A 		vdiv.f32	s13, s15, s14
 167              	.LVL11:
 168              	.L3:
  98:eurorack/plaits/dsp/speech/sam_speech_synth.cc ****     float f_1 = p_1.formant[i].frequency;
 169              		.loc 1 98 5 is_stmt 1 discriminator 2 view .LVU39
  98:eurorack/plaits/dsp/speech/sam_speech_synth.cc ****     float f_1 = p_1.formant[i].frequency;
 170              		.loc 1 98 11 is_stmt 0 discriminator 2 view .LVU40
 171 0050 1D78     		ldrb	r5, [r3]	@ zero_extendqisi2
 172 0052 04EB030E 		add	lr, r4, r3
 102:eurorack/plaits/dsp/speech/sam_speech_synth.cc ****     formant_frequency[i] = static_cast<uint32_t>(f);
 103:eurorack/plaits/dsp/speech/sam_speech_synth.cc ****   
 104:eurorack/plaits/dsp/speech/sam_speech_synth.cc ****     float a_1 = formant_amplitude_lut[p_1.formant[i].amplitude];
 173              		.loc 1 104 54 discriminator 2 view .LVU41
 174 0056 5E78     		ldrb	r6, [r3, #1]	@ zero_extendqisi2
 175              	.LBE47:
  97:eurorack/plaits/dsp/speech/sam_speech_synth.cc ****     float f_1 = p_1.formant[i].frequency;
 176              		.loc 1 97 21 discriminator 2 view .LVU42
 177 0058 0233     		adds	r3, r3, #2
 178              	.LBB48:
  98:eurorack/plaits/dsp/speech/sam_speech_synth.cc ****     float f_1 = p_1.formant[i].frequency;
 179              		.loc 1 98 11 discriminator 2 view .LVU43
 180 005a 07EE905A 		vmov	s15, r5	@ int
  99:eurorack/plaits/dsp/speech/sam_speech_synth.cc ****     float f = f_1 + (f_2 - f_1) * phoneme_fractional;
 181              		.loc 1 99 11 discriminator 2 view .LVU44
 182 005e 1EF80C50 		ldrb	r5, [lr, ip]	@ zero_extendqisi2
 183 0062 07EE105A 		vmov	s14, r5	@ int
  98:eurorack/plaits/dsp/speech/sam_speech_synth.cc ****     float f_2 = p_2.formant[i].frequency;
 184              		.loc 1 98 11 discriminator 2 view .LVU45
 185 0066 F8EE677A 		vcvt.f32.u32	s15, s15
 186              	.LVL12:
  99:eurorack/plaits/dsp/speech/sam_speech_synth.cc ****     float f = f_1 + (f_2 - f_1) * phoneme_fractional;
 187              		.loc 1 99 5 is_stmt 1 discriminator 2 view .LVU46
 100:eurorack/plaits/dsp/speech/sam_speech_synth.cc ****     f *= 8.0f * formant_shift * 4294967296.0f / kSampleRate;
 188              		.loc 1 100 5 discriminator 2 view .LVU47
  99:eurorack/plaits/dsp/speech/sam_speech_synth.cc ****     float f = f_1 + (f_2 - f_1) * phoneme_fractional;
 189              		.loc 1 99 11 is_stmt 0 discriminator 2 view .LVU48
 190 006a B8EE477A 		vcvt.f32.u32	s14, s14
 100:eurorack/plaits/dsp/speech/sam_speech_synth.cc ****     f *= 8.0f * formant_shift * 4294967296.0f / kSampleRate;
 191              		.loc 1 100 26 discriminator 2 view .LVU49
 192 006e 37EE677A 		vsub.f32	s14, s14, s15
 100:eurorack/plaits/dsp/speech/sam_speech_synth.cc ****     f *= 8.0f * formant_shift * 4294967296.0f / kSampleRate;
ARM GAS  /var/folders/9s/8rp0_f2s1n31qbztm3b5_fdh0000gn/T//ccynLXMW.s 			page 23


 193              		.loc 1 100 11 discriminator 2 view .LVU50
 194 0072 E7EE007A 		vfma.f32	s15, s14, s0
 195              	.LVL13:
 101:eurorack/plaits/dsp/speech/sam_speech_synth.cc ****     formant_frequency[i] = static_cast<uint32_t>(f);
 196              		.loc 1 101 5 is_stmt 1 discriminator 2 view .LVU51
 102:eurorack/plaits/dsp/speech/sam_speech_synth.cc ****   
 197              		.loc 1 102 5 discriminator 2 view .LVU52
 101:eurorack/plaits/dsp/speech/sam_speech_synth.cc ****     formant_frequency[i] = static_cast<uint32_t>(f);
 198              		.loc 1 101 7 is_stmt 0 discriminator 2 view .LVU53
 199 0076 66EEA77A 		vmul.f32	s15, s13, s15
 200              	.LVL14:
 102:eurorack/plaits/dsp/speech/sam_speech_synth.cc ****   
 201              		.loc 1 102 28 discriminator 2 view .LVU54
 202 007a FCEEE77A 		vcvt.u32.f32	s15, s15
 203              	.LVL15:
 102:eurorack/plaits/dsp/speech/sam_speech_synth.cc ****   
 204              		.loc 1 102 28 discriminator 2 view .LVU55
 205 007e 17EE905A 		vmov	r5, s15	@ int
 206 0082 41F8045F 		str	r5, [r1, #4]!
 207              		.loc 1 104 5 is_stmt 1 discriminator 2 view .LVU56
 208              		.loc 1 104 11 is_stmt 0 discriminator 2 view .LVU57
 209 0086 0D4D     		ldr	r5, .L5+12
 210 0088 05EB8606 		add	r6, r5, r6, lsl #2
 211 008c D6ED007A 		vldr.32	s15, [r6]
 212              	.LVL16:
 105:eurorack/plaits/dsp/speech/sam_speech_synth.cc ****     float a_2 = formant_amplitude_lut[p_2.formant[i].amplitude];
 213              		.loc 1 105 5 is_stmt 1 discriminator 2 view .LVU58
 106:eurorack/plaits/dsp/speech/sam_speech_synth.cc ****     formant_amplitude[i] = a_1 + (a_2 - a_1) * phoneme_fractional;
 214              		.loc 1 106 5 discriminator 2 view .LVU59
 105:eurorack/plaits/dsp/speech/sam_speech_synth.cc ****     float a_2 = formant_amplitude_lut[p_2.formant[i].amplitude];
 215              		.loc 1 105 54 is_stmt 0 discriminator 2 view .LVU60
 216 0090 1EF80060 		ldrb	r6, [lr, r0]	@ zero_extendqisi2
 105:eurorack/plaits/dsp/speech/sam_speech_synth.cc ****     float a_2 = formant_amplitude_lut[p_2.formant[i].amplitude];
 217              		.loc 1 105 11 discriminator 2 view .LVU61
 218 0094 05EB8605 		add	r5, r5, r6, lsl #2
 219              		.loc 1 106 39 discriminator 2 view .LVU62
 220 0098 95ED007A 		vldr.32	s14, [r5]
 221              	.LVL17:
 222              		.loc 1 106 39 discriminator 2 view .LVU63
 223 009c 37EE677A 		vsub.f32	s14, s14, s15
 224              		.loc 1 106 32 discriminator 2 view .LVU64
 225 00a0 E7EE007A 		vfma.f32	s15, s14, s0
 226              	.LVL18:
 227              		.loc 1 106 26 discriminator 2 view .LVU65
 228 00a4 E2EC017A 		vstmia.32	r2!, {s15}
 229              	.LVL19:
 230              		.loc 1 106 26 discriminator 2 view .LVU66
 231              	.LBE48:
  97:eurorack/plaits/dsp/speech/sam_speech_synth.cc ****     float f_1 = p_1.formant[i].frequency;
 232              		.loc 1 97 3 is_stmt 1 discriminator 2 view .LVU67
  97:eurorack/plaits/dsp/speech/sam_speech_synth.cc ****     float f_1 = p_1.formant[i].frequency;
 233              		.loc 1 97 21 discriminator 2 view .LVU68
 234 00a8 9742     		cmp	r7, r2
 235 00aa D1D1     		bne	.L3
 236              	.LBE46:
 107:eurorack/plaits/dsp/speech/sam_speech_synth.cc ****   }
 108:eurorack/plaits/dsp/speech/sam_speech_synth.cc **** }
ARM GAS  /var/folders/9s/8rp0_f2s1n31qbztm3b5_fdh0000gn/T//ccmYVWIU.s 			page 24


 237              		.loc 1 108 1 is_stmt 0 view .LVU69
 238 00ac F0BD     		pop	{r4, r5, r6, r7, pc}
 239              	.LVL20:
 240              	.L6:
 241              		.loc 1 108 1 view .LVU70
 242 00ae 00BF     		.align	2
 243              	.L5:
 244 00b0 00000000 		.word	.LANCHOR0
 245 00b4 0000804F 		.word	1333788672
 246 00b8 00803B47 		.word	1195081728
 247 00bc 00000000 		.word	.LANCHOR1
 248              		.cfi_endproc
 249              	.LFE1431:
 251              		.section	.text._ZN6plaits14SAMSpeechSynth6RenderEbfffPfS1_j,"ax",%progbits
 252              		.align	1
 253              		.global	_ZN6plaits14SAMSpeechSynth6RenderEbfffPfS1_j
 254              		.syntax unified
 255              		.thumb
 256              		.thumb_func
 258              	_ZN6plaits14SAMSpeechSynth6RenderEbfffPfS1_j:
 259              	.LVL21:
 260              	.LFB1432:
 109:eurorack/plaits/dsp/speech/sam_speech_synth.cc **** 
 110:eurorack/plaits/dsp/speech/sam_speech_synth.cc **** void SAMSpeechSynth::Render(
 111:eurorack/plaits/dsp/speech/sam_speech_synth.cc ****     bool consonant,
 112:eurorack/plaits/dsp/speech/sam_speech_synth.cc ****     float frequency,
 113:eurorack/plaits/dsp/speech/sam_speech_synth.cc ****     float vowel,
 114:eurorack/plaits/dsp/speech/sam_speech_synth.cc ****     float formant_shift,
 115:eurorack/plaits/dsp/speech/sam_speech_synth.cc ****     float* excitation,
 116:eurorack/plaits/dsp/speech/sam_speech_synth.cc ****     float* output,
 117:eurorack/plaits/dsp/speech/sam_speech_synth.cc ****     size_t size) {
 261              		.loc 1 117 18 is_stmt 1 view -0
 262              		.cfi_startproc
 263              		@ args = 4, pretend = 0, frame = 24
 264              		@ frame_needed = 0, uses_anonymous_args = 0
 118:eurorack/plaits/dsp/speech/sam_speech_synth.cc ****   if (frequency >= 0.0625f) {
 265              		.loc 1 118 3 view .LVU72
 117:eurorack/plaits/dsp/speech/sam_speech_synth.cc ****   if (frequency >= 0.0625f) {
 266              		.loc 1 117 18 is_stmt 0 view .LVU73
 267 0000 B0EE406A 		vmov.f32	s12, s0
 268              		.loc 1 118 3 view .LVU74
 269 0004 DFED7C7A 		vldr.32	s15, .L27
 117:eurorack/plaits/dsp/speech/sam_speech_synth.cc ****   if (frequency >= 0.0625f) {
 270              		.loc 1 117 18 view .LVU75
 271 0008 B0EE600A 		vmov.f32	s0, s1
 272              	.LVL22:
 119:eurorack/plaits/dsp/speech/sam_speech_synth.cc ****     frequency = 0.0625f;
 273              		.loc 1 119 15 view .LVU76
 274 000c B4EE676A 		vcmp.f32	s12, s15
 117:eurorack/plaits/dsp/speech/sam_speech_synth.cc ****   if (frequency >= 0.0625f) {
 275              		.loc 1 117 18 view .LVU77
 276 0010 F0B5     		push	{r4, r5, r6, r7, lr}
 277              		.cfi_def_cfa_offset 20
 278              		.cfi_offset 4, -20
 279              		.cfi_offset 5, -16
 280              		.cfi_offset 6, -12
 281              		.cfi_offset 7, -8
ARM GAS  /var/folders/9s/8rp0_f2s1n31qbztm3b5_fdh0000gn/T//ccmYVWIU.s 			page 25


 282              		.cfi_offset 14, -4
 283              		.loc 1 119 15 view .LVU78
 284 0012 F1EE10FA 		vmrs	APSR_nzcv, FPSCR
 117:eurorack/plaits/dsp/speech/sam_speech_synth.cc ****   if (frequency >= 0.0625f) {
 285              		.loc 1 117 18 view .LVU79
 286 0016 87B0     		sub	sp, sp, #28
 287              		.cfi_def_cfa_offset 48
 117:eurorack/plaits/dsp/speech/sam_speech_synth.cc ****   if (frequency >= 0.0625f) {
 288              		.loc 1 117 18 view .LVU80
 289 0018 0446     		mov	r4, r0
 290 001a 1646     		mov	r6, r2
 291 001c 1F46     		mov	r7, r3
 292 001e 0C9D     		ldr	r5, [sp, #48]
 293              		.loc 1 119 15 view .LVU81
 294 0020 27FE866A 		vselge.f32	s12, s15, s12
 295              	.LVL23:
 120:eurorack/plaits/dsp/speech/sam_speech_synth.cc ****   }
 121:eurorack/plaits/dsp/speech/sam_speech_synth.cc ****   
 122:eurorack/plaits/dsp/speech/sam_speech_synth.cc ****   if (consonant) {
 296              		.loc 1 122 3 is_stmt 1 view .LVU82
 297              	.LBB71:
 298 0024 F9B1     		cbz	r1, .L10
 299              	.LBB72:
 123:eurorack/plaits/dsp/speech/sam_speech_synth.cc ****     consonant_samples_ = kSampleRate * 0.05f;
 300              		.loc 1 123 5 view .LVU83
 124:eurorack/plaits/dsp/speech/sam_speech_synth.cc ****     int r = (vowel + 3.0f * frequency + 7.0f * formant_shift) * 8.0f;
 301              		.loc 1 124 20 is_stmt 0 view .LVU84
 302 0026 B0EE087A 		vmov.f32	s14, #3.0e+0
 123:eurorack/plaits/dsp/speech/sam_speech_synth.cc ****     consonant_samples_ = kSampleRate * 0.05f;
 303              		.loc 1 123 24 view .LVU85
 304 002a 4FF41663 		mov	r3, #2400
 305              	.LVL24:
 306              		.loc 1 124 20 view .LVU86
 307 002e F0EE607A 		vmov.f32	s15, s1
 123:eurorack/plaits/dsp/speech/sam_speech_synth.cc ****     consonant_samples_ = kSampleRate * 0.05f;
 308              		.loc 1 123 24 view .LVU87
 309 0032 C361     		str	r3, [r0, #28]
 310              		.loc 1 124 5 is_stmt 1 view .LVU88
 311              		.loc 1 124 20 is_stmt 0 view .LVU89
 312 0034 E6EE077A 		vfma.f32	s15, s12, s14
 313              		.loc 1 124 39 view .LVU90
 314 0038 B1EE0C7A 		vmov.f32	s14, #7.0e+0
 315 003c E1EE077A 		vfma.f32	s15, s2, s14
 316              	.LVL25:
 125:eurorack/plaits/dsp/speech/sam_speech_synth.cc ****     consonant_index_ = (r % kSAMNumConsonants);
 317              		.loc 1 125 5 is_stmt 1 view .LVU91
 124:eurorack/plaits/dsp/speech/sam_speech_synth.cc ****     int r = (vowel + 3.0f * frequency + 7.0f * formant_shift) * 8.0f;
 318              		.loc 1 124 9 is_stmt 0 view .LVU92
 319 0040 B0EE677A 		vmov.f32	s14, s15
 320 0044 BEEEEE7A 		vcvt.s32.f32	s14, s14, #3
 321 0048 17EE101A 		vmov	r1, s14	@ int
 322              	.LVL26:
 323              		.loc 1 125 27 view .LVU93
 324 004c 4B42     		rsbs	r3, r1, #0
 325 004e 01F00701 		and	r1, r1, #7
 326 0052 03F00703 		and	r3, r3, #7
 327 0056 58BF     		it	pl
ARM GAS  /var/folders/9s/8rp0_f2s1n31qbztm3b5_fdh0000gn/T//ccynLXMW.s 			page 26


 328 0058 5942     		rsbpl	r1, r3, #0
 329              		.loc 1 125 22 view .LVU94
 330 005a 07EE901A 		vmov	s15, r1	@ int
 331              	.LVL27:
 332              		.loc 1 125 22 view .LVU95
 333 005e F8EEE77A 		vcvt.f32.s32	s15, s15
 334 0062 C0ED087A 		vstr.32	s15, [r0, #32]
 335              	.LVL28:
 336              	.L10:
 337              		.loc 1 125 22 view .LVU96
 338              	.LBE72:
 339              	.LBE71:
 126:eurorack/plaits/dsp/speech/sam_speech_synth.cc ****   }
 127:eurorack/plaits/dsp/speech/sam_speech_synth.cc ****   consonant_samples_ -= min(consonant_samples_, size);
 340              		.loc 1 127 3 is_stmt 1 view .LVU97
 341              	.LBB73:
 342              	.LBI73:
 230:/Library/DaisyToolchain/0.2.0/arm/arm-none-eabi/include/c++/10.3.1/bits/stl_algobase.h ****     {
 343              		.loc 2 230 5 view .LVU98
 344              	.LBB74:
 235:/Library/DaisyToolchain/0.2.0/arm/arm-none-eabi/include/c++/10.3.1/bits/stl_algobase.h **** 	return __b;
 345              		.loc 2 235 15 is_stmt 0 view .LVU99
 346 0066 E369     		ldr	r3, [r4, #28]
 347              	.LVL29:
 235:/Library/DaisyToolchain/0.2.0/arm/arm-none-eabi/include/c++/10.3.1/bits/stl_algobase.h **** 	return __b;
 348              		.loc 2 235 15 view .LVU100
 349              	.LBE74:
 350              	.LBE73:
 351              		.loc 1 127 22 view .LVU101
 352 0068 9D42     		cmp	r5, r3
 353 006a 94BF     		ite	ls
 354 006c 5B1B     		subls	r3, r3, r5
 355 006e DB1A     		subhi	r3, r3, r3
 356 0070 E361     		str	r3, [r4, #28]
 128:eurorack/plaits/dsp/speech/sam_speech_synth.cc ****   
 129:eurorack/plaits/dsp/speech/sam_speech_synth.cc ****   float phoneme = consonant_samples_
 357              		.loc 1 129 3 is_stmt 1 view .LVU102
 130:eurorack/plaits/dsp/speech/sam_speech_synth.cc ****       ? (consonant_index_ + kSAMNumVowels)
 358              		.loc 1 130 7 is_stmt 0 view .LVU103
 359 0072 002B     		cmp	r3, #0
 360 0074 00F0A980 		beq	.L11
 361              		.loc 1 130 7 discriminator 1 view .LVU104
 362 0078 F2EE020A 		vmov.f32	s1, #9.0e+0
 363              	.LVL30:
 364              		.loc 1 130 7 discriminator 1 view .LVU105
 365 007c 94ED080A 		vldr.32	s0, [r4, #32]
 366              	.LVL31:
 367              		.loc 1 130 7 discriminator 1 view .LVU106
 368 0080 30EE200A 		vadd.f32	s0, s0, s1
 369              	.L12:
 370              	.LVL32:
 131:eurorack/plaits/dsp/speech/sam_speech_synth.cc ****       : vowel * (kSAMNumVowels - 1.0001f);
 132:eurorack/plaits/dsp/speech/sam_speech_synth.cc **** 
 133:eurorack/plaits/dsp/speech/sam_speech_synth.cc ****   uint32_t formant_frequency[kSAMNumFormants];
 371              		.loc 1 133 3 is_stmt 1 view .LVU107
 134:eurorack/plaits/dsp/speech/sam_speech_synth.cc ****   float formant_amplitude[kSAMNumFormants];
 372              		.loc 1 134 3 view .LVU108
ARM GAS  /var/folders/9s/8rp0_f2s1n31qbztm3b5_fdh0000gn/T//ccmYVWIU.s 			page 27


 135:eurorack/plaits/dsp/speech/sam_speech_synth.cc ****   
 136:eurorack/plaits/dsp/speech/sam_speech_synth.cc ****   InterpolatePhonemeData(
 373              		.loc 1 136 3 view .LVU109
 374              		.loc 1 136 25 is_stmt 0 view .LVU110
 375 0084 03AA     		add	r2, sp, #12
 376              	.LVL33:
 377              		.loc 1 136 25 view .LVU111
 378 0086 F0EE410A 		vmov.f32	s1, s2
 379 008a 6946     		mov	r1, sp
 380 008c 2046     		mov	r0, r4
 381              	.LVL34:
 382              		.loc 1 136 25 view .LVU112
 383 008e FFF7FEFF 		bl	_ZN6plaits14SAMSpeechSynth22InterpolatePhonemeDataEffPmPf
 384              	.LVL35:
 137:eurorack/plaits/dsp/speech/sam_speech_synth.cc ****       phoneme,
 138:eurorack/plaits/dsp/speech/sam_speech_synth.cc ****       formant_shift,
 139:eurorack/plaits/dsp/speech/sam_speech_synth.cc ****       formant_frequency,
 140:eurorack/plaits/dsp/speech/sam_speech_synth.cc ****       formant_amplitude);
 141:eurorack/plaits/dsp/speech/sam_speech_synth.cc **** 
 142:eurorack/plaits/dsp/speech/sam_speech_synth.cc ****   ParameterInterpolator fm(&frequency_, frequency, size);
 385              		.loc 1 142 3 is_stmt 1 view .LVU113
 386              	.LBB75:
 387              	.LBI75:
 388              		.file 3 "eurorack/stmlib/dsp/parameter_interpolator.h"
   1:eurorack/stmlib/dsp/parameter_interpolator.h **** // Copyright 2015 Emilie Gillet.
   2:eurorack/stmlib/dsp/parameter_interpolator.h **** //
   3:eurorack/stmlib/dsp/parameter_interpolator.h **** // Author: Emilie Gillet (emilie.o.gillet@gmail.com)
   4:eurorack/stmlib/dsp/parameter_interpolator.h **** //
   5:eurorack/stmlib/dsp/parameter_interpolator.h **** // Permission is hereby granted, free of charge, to any person obtaining a copy
   6:eurorack/stmlib/dsp/parameter_interpolator.h **** // of this software and associated documentation files (the "Software"), to deal
   7:eurorack/stmlib/dsp/parameter_interpolator.h **** // in the Software without restriction, including without limitation the rights
   8:eurorack/stmlib/dsp/parameter_interpolator.h **** // to use, copy, modify, merge, publish, distribute, sublicense, and/or sell
   9:eurorack/stmlib/dsp/parameter_interpolator.h **** // copies of the Software, and to permit persons to whom the Software is
  10:eurorack/stmlib/dsp/parameter_interpolator.h **** // furnished to do so, subject to the following conditions:
  11:eurorack/stmlib/dsp/parameter_interpolator.h **** // 
  12:eurorack/stmlib/dsp/parameter_interpolator.h **** // The above copyright notice and this permission notice shall be included in
  13:eurorack/stmlib/dsp/parameter_interpolator.h **** // all copies or substantial portions of the Software.
  14:eurorack/stmlib/dsp/parameter_interpolator.h **** // 
  15:eurorack/stmlib/dsp/parameter_interpolator.h **** // THE SOFTWARE IS PROVIDED "AS IS", WITHOUT WARRANTY OF ANY KIND, EXPRESS OR
  16:eurorack/stmlib/dsp/parameter_interpolator.h **** // IMPLIED, INCLUDING BUT NOT LIMITED TO THE WARRANTIES OF MERCHANTABILITY,
  17:eurorack/stmlib/dsp/parameter_interpolator.h **** // FITNESS FOR A PARTICULAR PURPOSE AND NONINFRINGEMENT. IN NO EVENT SHALL THE
  18:eurorack/stmlib/dsp/parameter_interpolator.h **** // AUTHORS OR COPYRIGHT HOLDERS BE LIABLE FOR ANY CLAIM, DAMAGES OR OTHER
  19:eurorack/stmlib/dsp/parameter_interpolator.h **** // LIABILITY, WHETHER IN AN ACTION OF CONTRACT, TORT OR OTHERWISE, ARISING FROM,
  20:eurorack/stmlib/dsp/parameter_interpolator.h **** // OUT OF OR IN CONNECTION WITH THE SOFTWARE OR THE USE OR OTHER DEALINGS IN
  21:eurorack/stmlib/dsp/parameter_interpolator.h **** // THE SOFTWARE.
  22:eurorack/stmlib/dsp/parameter_interpolator.h **** // 
  23:eurorack/stmlib/dsp/parameter_interpolator.h **** // See http://creativecommons.org/licenses/MIT/ for more information.
  24:eurorack/stmlib/dsp/parameter_interpolator.h **** //
  25:eurorack/stmlib/dsp/parameter_interpolator.h **** // -----------------------------------------------------------------------------
  26:eurorack/stmlib/dsp/parameter_interpolator.h **** //
  27:eurorack/stmlib/dsp/parameter_interpolator.h **** // Linear interpolation of parameters in rendering loops.
  28:eurorack/stmlib/dsp/parameter_interpolator.h **** 
  29:eurorack/stmlib/dsp/parameter_interpolator.h **** #ifndef STMLIB_DSP_PARAMETER_INTERPOLATOR_H_
  30:eurorack/stmlib/dsp/parameter_interpolator.h **** #define STMLIB_DSP_PARAMETER_INTERPOLATOR_H_
  31:eurorack/stmlib/dsp/parameter_interpolator.h **** 
  32:eurorack/stmlib/dsp/parameter_interpolator.h **** #include "stmlib/stmlib.h"
  33:eurorack/stmlib/dsp/parameter_interpolator.h **** 
ARM GAS  /var/folders/9s/8rp0_f2s1n31qbztm3b5_fdh0000gn/T//ccmYVWIU.s 			page 28


  34:eurorack/stmlib/dsp/parameter_interpolator.h **** namespace stmlib {
  35:eurorack/stmlib/dsp/parameter_interpolator.h **** 
  36:eurorack/stmlib/dsp/parameter_interpolator.h **** class ParameterInterpolator {
  37:eurorack/stmlib/dsp/parameter_interpolator.h ****  public:
  38:eurorack/stmlib/dsp/parameter_interpolator.h ****   ParameterInterpolator() { }
  39:eurorack/stmlib/dsp/parameter_interpolator.h ****   ParameterInterpolator(float* state, float new_value, size_t size) {
 389              		.loc 3 39 3 view .LVU114
 390              	.LBE75:
  40:eurorack/stmlib/dsp/parameter_interpolator.h ****     Init(state, new_value, size);
 391              		.loc 3 40 5 view .LVU115
 392              	.LBB84:
 393              	.LBB76:
 394              	.LBI76:
  41:eurorack/stmlib/dsp/parameter_interpolator.h ****   }
  42:eurorack/stmlib/dsp/parameter_interpolator.h **** 
  43:eurorack/stmlib/dsp/parameter_interpolator.h ****   ParameterInterpolator(float* state, float new_value, float step) {
  44:eurorack/stmlib/dsp/parameter_interpolator.h ****     state_ = state;
  45:eurorack/stmlib/dsp/parameter_interpolator.h ****     value_ = *state;
  46:eurorack/stmlib/dsp/parameter_interpolator.h ****     increment_ = (new_value - *state) * step;
  47:eurorack/stmlib/dsp/parameter_interpolator.h ****   }
  48:eurorack/stmlib/dsp/parameter_interpolator.h **** 
  49:eurorack/stmlib/dsp/parameter_interpolator.h ****   ~ParameterInterpolator() {
  50:eurorack/stmlib/dsp/parameter_interpolator.h ****     *state_ = value_;
  51:eurorack/stmlib/dsp/parameter_interpolator.h ****   }
  52:eurorack/stmlib/dsp/parameter_interpolator.h ****   
  53:eurorack/stmlib/dsp/parameter_interpolator.h ****   inline void Init(float* state, float new_value, size_t size) {
 395              		.loc 3 53 15 view .LVU116
 396              	.LBB77:
  54:eurorack/stmlib/dsp/parameter_interpolator.h ****     state_ = state;
 397              		.loc 3 54 5 view .LVU117
  55:eurorack/stmlib/dsp/parameter_interpolator.h ****     value_ = *state;
 398              		.loc 3 55 5 view .LVU118
 399              		.loc 3 55 14 is_stmt 0 view .LVU119
 400 0092 94ED015A 		vldr.32	s10, [r4, #4]
 401              	.LVL36:
  56:eurorack/stmlib/dsp/parameter_interpolator.h ****     increment_ = (new_value - *state) / static_cast<float>(size);
 402              		.loc 3 56 5 is_stmt 1 view .LVU120
 403              		.loc 3 56 41 is_stmt 0 view .LVU121
 404 0096 07EE905A 		vmov	s15, r5	@ int
 405              	.LBE77:
 406              	.LBE76:
 407              	.LBE84:
 408              	.LBB85:
 409              	.LBB86:
 143:eurorack/plaits/dsp/speech/sam_speech_synth.cc ****   float pulse_next_sample = pulse_next_sample_;
 144:eurorack/plaits/dsp/speech/sam_speech_synth.cc ****   
 145:eurorack/plaits/dsp/speech/sam_speech_synth.cc ****   while (size--) {
 146:eurorack/plaits/dsp/speech/sam_speech_synth.cc ****     float pulse_this_sample = pulse_next_sample;
 147:eurorack/plaits/dsp/speech/sam_speech_synth.cc ****     pulse_next_sample = 0.0f;
 148:eurorack/plaits/dsp/speech/sam_speech_synth.cc ****     const float frequency = fm.Next();
 149:eurorack/plaits/dsp/speech/sam_speech_synth.cc ****     phase_ += frequency;
 150:eurorack/plaits/dsp/speech/sam_speech_synth.cc ****   
 151:eurorack/plaits/dsp/speech/sam_speech_synth.cc ****     if (phase_ >= 1.0f) {
 152:eurorack/plaits/dsp/speech/sam_speech_synth.cc ****       phase_ -= 1.0f;
 153:eurorack/plaits/dsp/speech/sam_speech_synth.cc ****       float t = phase_ / frequency;
 154:eurorack/plaits/dsp/speech/sam_speech_synth.cc ****       formant_phase_[0] = static_cast<uint32_t>(
 155:eurorack/plaits/dsp/speech/sam_speech_synth.cc ****           t * static_cast<float>(formant_frequency[0]));
ARM GAS  /var/folders/9s/8rp0_f2s1n31qbztm3b5_fdh0000gn/T//ccmYVWIU.s 			page 29


 156:eurorack/plaits/dsp/speech/sam_speech_synth.cc ****       formant_phase_[1] = static_cast<uint32_t>(
 157:eurorack/plaits/dsp/speech/sam_speech_synth.cc ****           t * static_cast<float>(formant_frequency[1]));
 158:eurorack/plaits/dsp/speech/sam_speech_synth.cc ****       formant_phase_[2] = static_cast<uint32_t>(
 159:eurorack/plaits/dsp/speech/sam_speech_synth.cc ****           t * static_cast<float>(formant_frequency[2]));
 160:eurorack/plaits/dsp/speech/sam_speech_synth.cc ****       pulse_this_sample -= ThisBlepSample(t);
 161:eurorack/plaits/dsp/speech/sam_speech_synth.cc ****       pulse_next_sample -= NextBlepSample(t);
 162:eurorack/plaits/dsp/speech/sam_speech_synth.cc ****     } else {
 163:eurorack/plaits/dsp/speech/sam_speech_synth.cc ****       formant_phase_[0] += formant_frequency[0];
 164:eurorack/plaits/dsp/speech/sam_speech_synth.cc ****       formant_phase_[1] += formant_frequency[1];
 165:eurorack/plaits/dsp/speech/sam_speech_synth.cc ****       formant_phase_[2] += formant_frequency[2];
 410              		.loc 1 165 47 view .LVU122
 411 009a DDF808E0 		ldr	lr, [sp, #8]
 412              	.LBE86:
 413              	.LBE85:
 414              	.LBB109:
 415              	.LBB81:
 416              	.LBB78:
 417              		.loc 3 56 29 view .LVU123
 418 009e 36EE456A 		vsub.f32	s12, s12, s10
 419              	.LVL37:
 420              		.loc 3 56 29 view .LVU124
 421              	.LBE78:
 422              	.LBE81:
 423              	.LBE109:
 424              	.LBB110:
 166:eurorack/plaits/dsp/speech/sam_speech_synth.cc ****     }
 167:eurorack/plaits/dsp/speech/sam_speech_synth.cc ****     pulse_next_sample += phase_;
 168:eurorack/plaits/dsp/speech/sam_speech_synth.cc ****     
 169:eurorack/plaits/dsp/speech/sam_speech_synth.cc ****     float d = pulse_this_sample - 0.5f - pulse_lp_;
 170:eurorack/plaits/dsp/speech/sam_speech_synth.cc ****     pulse_lp_ += min(16.0f * frequency, 1.0f) * d;
 171:eurorack/plaits/dsp/speech/sam_speech_synth.cc ****     *excitation++ = d;
 172:eurorack/plaits/dsp/speech/sam_speech_synth.cc ****   
 173:eurorack/plaits/dsp/speech/sam_speech_synth.cc ****     float s = 0;
 174:eurorack/plaits/dsp/speech/sam_speech_synth.cc ****     s += lut_sine[formant_phase_[0] >> 22] * formant_amplitude[0];
 425              		.loc 1 174 65 view .LVU125
 426 00a2 9DED033A 		vldr.32	s6, [sp, #12]
 427              	.LBE110:
 428              	.LBB111:
 429              	.LBB82:
 430              	.LBB79:
 431              		.loc 3 56 41 view .LVU126
 432 00a6 F8EE677A 		vcvt.f32.u32	s15, s15
 433              	.LBE79:
 434              	.LBE82:
 435              	.LBE111:
 436              	.LBB112:
 175:eurorack/plaits/dsp/speech/sam_speech_synth.cc ****     s += lut_sine[formant_phase_[1] >> 22] * formant_amplitude[1];
 437              		.loc 1 175 65 view .LVU127
 438 00aa 9DED044A 		vldr.32	s8, [sp, #16]
 176:eurorack/plaits/dsp/speech/sam_speech_synth.cc ****     s += lut_sine[formant_phase_[2] >> 22] * formant_amplitude[2];
 439              		.loc 1 176 65 view .LVU128
 440 00ae DDED054A 		vldr.32	s9, [sp, #20]
 441              	.LBE112:
 442              	.LBB113:
 443              	.LBB83:
 444              	.LBB80:
 445              		.loc 3 56 39 view .LVU129
ARM GAS  /var/folders/9s/8rp0_f2s1n31qbztm3b5_fdh0000gn/T//ccmYVWIU.s 			page 30


 446 00b2 C6EE273A 		vdiv.f32	s7, s12, s15
 447              	.LVL38:
 448              		.loc 3 56 39 view .LVU130
 449              	.LBE80:
 450              	.LBE83:
 451              	.LBE113:
 143:eurorack/plaits/dsp/speech/sam_speech_synth.cc ****   
 452              		.loc 1 143 3 is_stmt 1 view .LVU131
 143:eurorack/plaits/dsp/speech/sam_speech_synth.cc ****   
 453              		.loc 1 143 9 is_stmt 0 view .LVU132
 454 00b6 D4ED027A 		vldr.32	s15, [r4, #8]
 455              	.LVL39:
 456              	.LBB114:
 457              	.LBB92:
 164:eurorack/plaits/dsp/speech/sam_speech_synth.cc ****       formant_phase_[2] += formant_frequency[2];
 458              		.loc 1 164 47 view .LVU133
 459 00ba DDE9002C 		ldrd	r2, ip, [sp]
 460              	.LVL40:
 461              	.L18:
 164:eurorack/plaits/dsp/speech/sam_speech_synth.cc ****       formant_phase_[2] += formant_frequency[2];
 462              		.loc 1 164 47 view .LVU134
 463              	.LBE92:
 464              	.LBE114:
 145:eurorack/plaits/dsp/speech/sam_speech_synth.cc ****     float pulse_this_sample = pulse_next_sample;
 465              		.loc 1 145 3 is_stmt 1 view .LVU135
 145:eurorack/plaits/dsp/speech/sam_speech_synth.cc ****     float pulse_this_sample = pulse_next_sample;
 466              		.loc 1 145 14 view .LVU136
 467 00be 013D     		subs	r5, r5, #1
 468              	.LVL41:
 145:eurorack/plaits/dsp/speech/sam_speech_synth.cc ****     float pulse_this_sample = pulse_next_sample;
 469              		.loc 1 145 14 is_stmt 0 view .LVU137
 470 00c0 C0F09480 		bcc	.L13
 471              	.LBB115:
 146:eurorack/plaits/dsp/speech/sam_speech_synth.cc ****     pulse_next_sample = 0.0f;
 472              		.loc 1 146 5 is_stmt 1 view .LVU138
 473              	.LVL42:
 147:eurorack/plaits/dsp/speech/sam_speech_synth.cc ****     const float frequency = fm.Next();
 474              		.loc 1 147 5 view .LVU139
 148:eurorack/plaits/dsp/speech/sam_speech_synth.cc ****     phase_ += frequency;
 475              		.loc 1 148 5 view .LVU140
 476              	.LBB93:
 477              	.LBI93:
  57:eurorack/stmlib/dsp/parameter_interpolator.h ****   }
  58:eurorack/stmlib/dsp/parameter_interpolator.h **** 
  59:eurorack/stmlib/dsp/parameter_interpolator.h ****   inline float Next() {
 478              		.loc 3 59 16 view .LVU141
 479              	.LBB94:
  60:eurorack/stmlib/dsp/parameter_interpolator.h ****     value_ += increment_;
 480              		.loc 3 60 5 view .LVU142
 481              		.loc 3 60 12 is_stmt 0 view .LVU143
 482 00c4 35EE235A 		vadd.f32	s10, s10, s7
 483              	.LVL43:
  61:eurorack/stmlib/dsp/parameter_interpolator.h ****     return value_;
 484              		.loc 3 61 5 is_stmt 1 view .LVU144
 485              		.loc 3 61 5 is_stmt 0 view .LVU145
 486              	.LBE94:
 487              	.LBE93:
ARM GAS  /var/folders/9s/8rp0_f2s1n31qbztm3b5_fdh0000gn/T//ccynLXMW.s 			page 31


 149:eurorack/plaits/dsp/speech/sam_speech_synth.cc ****   
 488              		.loc 1 149 5 is_stmt 1 view .LVU146
 149:eurorack/plaits/dsp/speech/sam_speech_synth.cc ****   
 489              		.loc 1 149 12 is_stmt 0 view .LVU147
 490 00c8 94ED006A 		vldr.32	s12, [r4]
 491              	.LBB95:
 151:eurorack/plaits/dsp/speech/sam_speech_synth.cc ****       phase_ -= 1.0f;
 492              		.loc 1 151 5 view .LVU148
 493 00cc B7EE007A 		vmov.f32	s14, #1.0e+0
 494 00d0 DFED4A6A 		vldr.32	s13, .L27+4
 495 00d4 B6EE002A 		vmov.f32	s4, #5.0e-1
 496              	.LBE95:
 149:eurorack/plaits/dsp/speech/sam_speech_synth.cc ****   
 497              		.loc 1 149 12 view .LVU149
 498 00d8 35EE066A 		vadd.f32	s12, s10, s12
 499              	.LBB96:
 151:eurorack/plaits/dsp/speech/sam_speech_synth.cc ****       phase_ -= 1.0f;
 500              		.loc 1 151 5 view .LVU150
 501 00dc B4EEC76A 		vcmpe.f32	s12, s14
 502              	.LBE96:
 149:eurorack/plaits/dsp/speech/sam_speech_synth.cc ****   
 503              		.loc 1 149 12 view .LVU151
 504 00e0 84ED006A 		vstr.32	s12, [r4]
 151:eurorack/plaits/dsp/speech/sam_speech_synth.cc ****       phase_ -= 1.0f;
 505              		.loc 1 151 5 is_stmt 1 view .LVU152
 506              	.LBB97:
 507 00e4 F1EE10FA 		vmrs	APSR_nzcv, FPSCR
 508 00e8 74DB     		blt	.L26
 509              	.LBB87:
 152:eurorack/plaits/dsp/speech/sam_speech_synth.cc ****       float t = phase_ / frequency;
 510              		.loc 1 152 7 view .LVU153
 152:eurorack/plaits/dsp/speech/sam_speech_synth.cc ****       float t = phase_ / frequency;
 511              		.loc 1 152 14 is_stmt 0 view .LVU154
 512 00ea 76EE475A 		vsub.f32	s11, s12, s14
 161:eurorack/plaits/dsp/speech/sam_speech_synth.cc ****     } else {
 513              		.loc 1 161 25 view .LVU155
 514 00ee F0EE662A 		vmov.f32	s5, s13
 153:eurorack/plaits/dsp/speech/sam_speech_synth.cc ****       formant_phase_[0] = static_cast<uint32_t>(
 515              		.loc 1 153 13 view .LVU156
 516 00f2 85EE856A 		vdiv.f32	s12, s11, s10
 152:eurorack/plaits/dsp/speech/sam_speech_synth.cc ****       float t = phase_ / frequency;
 517              		.loc 1 152 14 view .LVU157
 518 00f6 C4ED005A 		vstr.32	s11, [r4]
 153:eurorack/plaits/dsp/speech/sam_speech_synth.cc ****       formant_phase_[0] = static_cast<uint32_t>(
 519              		.loc 1 153 7 is_stmt 1 view .LVU158
 520              	.LVL44:
 154:eurorack/plaits/dsp/speech/sam_speech_synth.cc ****           t * static_cast<float>(formant_frequency[0]));
 521              		.loc 1 154 7 view .LVU159
 155:eurorack/plaits/dsp/speech/sam_speech_synth.cc ****       formant_phase_[1] = static_cast<uint32_t>(
 522              		.loc 1 155 15 is_stmt 0 view .LVU160
 523 00fa 05EE902A 		vmov	s11, r2	@ int
 524 00fe F8EE655A 		vcvt.f32.u32	s11, s11
 155:eurorack/plaits/dsp/speech/sam_speech_synth.cc ****       formant_phase_[1] = static_cast<uint32_t>(
 525              		.loc 1 155 13 view .LVU161
 526 0102 65EE865A 		vmul.f32	s11, s11, s12
 154:eurorack/plaits/dsp/speech/sam_speech_synth.cc ****           t * static_cast<float>(formant_frequency[0]));
 527              		.loc 1 154 27 view .LVU162
ARM GAS  /var/folders/9s/8rp0_f2s1n31qbztm3b5_fdh0000gn/T//ccynLXMW.s 			page 32


 528 0106 FCEEE55A 		vcvt.u32.f32	s11, s11
 529 010a C4ED045A 		vstr.32	s11, [r4, #16]	@ int
 156:eurorack/plaits/dsp/speech/sam_speech_synth.cc ****           t * static_cast<float>(formant_frequency[1]));
 530              		.loc 1 156 7 is_stmt 1 view .LVU163
 157:eurorack/plaits/dsp/speech/sam_speech_synth.cc ****       formant_phase_[2] = static_cast<uint32_t>(
 531              		.loc 1 157 15 is_stmt 0 view .LVU164
 532 010e 05EE90CA 		vmov	s11, ip	@ int
 533 0112 F8EE655A 		vcvt.f32.u32	s11, s11
 157:eurorack/plaits/dsp/speech/sam_speech_synth.cc ****       formant_phase_[2] = static_cast<uint32_t>(
 534              		.loc 1 157 13 view .LVU165
 535 0116 65EE865A 		vmul.f32	s11, s11, s12
 156:eurorack/plaits/dsp/speech/sam_speech_synth.cc ****           t * static_cast<float>(formant_frequency[1]));
 536              		.loc 1 156 27 view .LVU166
 537 011a FCEEE55A 		vcvt.u32.f32	s11, s11
 538 011e C4ED055A 		vstr.32	s11, [r4, #20]	@ int
 158:eurorack/plaits/dsp/speech/sam_speech_synth.cc ****           t * static_cast<float>(formant_frequency[2]));
 539              		.loc 1 158 7 is_stmt 1 view .LVU167
 159:eurorack/plaits/dsp/speech/sam_speech_synth.cc ****       pulse_this_sample -= ThisBlepSample(t);
 540              		.loc 1 159 15 is_stmt 0 view .LVU168
 541 0122 05EE90EA 		vmov	s11, lr	@ int
 542 0126 F8EE655A 		vcvt.f32.u32	s11, s11
 159:eurorack/plaits/dsp/speech/sam_speech_synth.cc ****       pulse_this_sample -= ThisBlepSample(t);
 543              		.loc 1 159 13 view .LVU169
 544 012a 65EE865A 		vmul.f32	s11, s11, s12
 158:eurorack/plaits/dsp/speech/sam_speech_synth.cc ****           t * static_cast<float>(formant_frequency[2]));
 545              		.loc 1 158 27 view .LVU170
 546 012e FCEEE55A 		vcvt.u32.f32	s11, s11
 547 0132 C4ED065A 		vstr.32	s11, [r4, #24]	@ int
 160:eurorack/plaits/dsp/speech/sam_speech_synth.cc ****       pulse_next_sample -= NextBlepSample(t);
 548              		.loc 1 160 7 is_stmt 1 view .LVU171
 549              	.LVL45:
 550              	.LBB88:
 551              	.LBI88:
 552              		.file 4 "eurorack/stmlib/dsp/polyblep.h"
   1:eurorack/stmlib/dsp/polyblep.h **** // Copyright 2017 Emilie Gillet.
   2:eurorack/stmlib/dsp/polyblep.h **** //
   3:eurorack/stmlib/dsp/polyblep.h **** // Author: Emilie Gillet (emilie.o.gillet@gmail.com)
   4:eurorack/stmlib/dsp/polyblep.h **** //
   5:eurorack/stmlib/dsp/polyblep.h **** // Permission is hereby granted, free of charge, to any person obtaining a copy
   6:eurorack/stmlib/dsp/polyblep.h **** // of this software and associated documentation files (the "Software"), to deal
   7:eurorack/stmlib/dsp/polyblep.h **** // in the Software without restriction, including without limitation the rights
   8:eurorack/stmlib/dsp/polyblep.h **** // to use, copy, modify, merge, publish, distribute, sublicense, and/or sell
   9:eurorack/stmlib/dsp/polyblep.h **** // copies of the Software, and to permit persons to whom the Software is
  10:eurorack/stmlib/dsp/polyblep.h **** // furnished to do so, subject to the following conditions:
  11:eurorack/stmlib/dsp/polyblep.h **** // 
  12:eurorack/stmlib/dsp/polyblep.h **** // The above copyright notice and this permission notice shall be included in
  13:eurorack/stmlib/dsp/polyblep.h **** // all copies or substantial portions of the Software.
  14:eurorack/stmlib/dsp/polyblep.h **** // 
  15:eurorack/stmlib/dsp/polyblep.h **** // THE SOFTWARE IS PROVIDED "AS IS", WITHOUT WARRANTY OF ANY KIND, EXPRESS OR
  16:eurorack/stmlib/dsp/polyblep.h **** // IMPLIED, INCLUDING BUT NOT LIMITED TO THE WARRANTIES OF MERCHANTABILITY,
  17:eurorack/stmlib/dsp/polyblep.h **** // FITNESS FOR A PARTICULAR PURPOSE AND NONINFRINGEMENT. IN NO EVENT SHALL THE
  18:eurorack/stmlib/dsp/polyblep.h **** // AUTHORS OR COPYRIGHT HOLDERS BE LIABLE FOR ANY CLAIM, DAMAGES OR OTHER
  19:eurorack/stmlib/dsp/polyblep.h **** // LIABILITY, WHETHER IN AN ACTION OF CONTRACT, TORT OR OTHERWISE, ARISING FROM,
  20:eurorack/stmlib/dsp/polyblep.h **** // OUT OF OR IN CONNECTION WITH THE SOFTWARE OR THE USE OR OTHER DEALINGS IN
  21:eurorack/stmlib/dsp/polyblep.h **** // THE SOFTWARE.
  22:eurorack/stmlib/dsp/polyblep.h **** // 
  23:eurorack/stmlib/dsp/polyblep.h **** // See http://creativecommons.org/licenses/MIT/ for more information.
ARM GAS  /var/folders/9s/8rp0_f2s1n31qbztm3b5_fdh0000gn/T//ccynLXMW.s 			page 33


  24:eurorack/stmlib/dsp/polyblep.h **** //
  25:eurorack/stmlib/dsp/polyblep.h **** // -----------------------------------------------------------------------------
  26:eurorack/stmlib/dsp/polyblep.h **** //
  27:eurorack/stmlib/dsp/polyblep.h **** // Polynomial approximation of band-limited step for band-limited waveform
  28:eurorack/stmlib/dsp/polyblep.h **** // synthesis.
  29:eurorack/stmlib/dsp/polyblep.h **** 
  30:eurorack/stmlib/dsp/polyblep.h **** #ifndef STMLIB_DSP_POLYBLEP_H_
  31:eurorack/stmlib/dsp/polyblep.h **** #define STMLIB_DSP_POLYBLEP_H_
  32:eurorack/stmlib/dsp/polyblep.h **** 
  33:eurorack/stmlib/dsp/polyblep.h **** #include "stmlib/stmlib.h"
  34:eurorack/stmlib/dsp/polyblep.h **** 
  35:eurorack/stmlib/dsp/polyblep.h **** namespace stmlib {
  36:eurorack/stmlib/dsp/polyblep.h **** 
  37:eurorack/stmlib/dsp/polyblep.h **** inline float ThisBlepSample(float t) {
 553              		.loc 4 37 14 view .LVU172
 554              	.LBB89:
  38:eurorack/stmlib/dsp/polyblep.h ****   return 0.5f * t * t;
 555              		.loc 4 38 3 view .LVU173
 556              		.loc 4 38 15 is_stmt 0 view .LVU174
 557 0136 66EE025A 		vmul.f32	s11, s12, s4
 558              	.LBE89:
 559              	.LBE88:
 160:eurorack/plaits/dsp/speech/sam_speech_synth.cc ****       pulse_next_sample -= NextBlepSample(t);
 560              		.loc 1 160 25 view .LVU175
 561 013a E6EE657A 		vfms.f32	s15, s12, s11
 562              	.LVL46:
 161:eurorack/plaits/dsp/speech/sam_speech_synth.cc ****     } else {
 563              		.loc 1 161 7 is_stmt 1 view .LVU176
 564              	.LBB90:
 565              	.LBI90:
  39:eurorack/stmlib/dsp/polyblep.h **** }
  40:eurorack/stmlib/dsp/polyblep.h **** 
  41:eurorack/stmlib/dsp/polyblep.h **** inline float NextBlepSample(float t) {
 566              		.loc 4 41 14 view .LVU177
 567              	.LBB91:
  42:eurorack/stmlib/dsp/polyblep.h ****   t = 1.0f - t;
 568              		.loc 4 42 3 view .LVU178
 569              		.loc 4 42 5 is_stmt 0 view .LVU179
 570 013e 37EE466A 		vsub.f32	s12, s14, s12
 571              	.LVL47:
  43:eurorack/stmlib/dsp/polyblep.h ****   return -0.5f * t * t;
 572              		.loc 4 43 3 is_stmt 1 view .LVU180
 573              		.loc 4 43 16 is_stmt 0 view .LVU181
 574 0142 FEEE005A 		vmov.f32	s11, #-5.0e-1
 575 0146 66EE255A 		vmul.f32	s11, s12, s11
 576              	.LBE91:
 577              	.LBE90:
 161:eurorack/plaits/dsp/speech/sam_speech_synth.cc ****     } else {
 578              		.loc 1 161 25 view .LVU182
 579 014a E6EE652A 		vfms.f32	s5, s12, s11
 580              	.LVL48:
 581              	.L16:
 161:eurorack/plaits/dsp/speech/sam_speech_synth.cc ****     } else {
 582              		.loc 1 161 25 view .LVU183
 583              	.LBE87:
 584              	.LBE97:
 167:eurorack/plaits/dsp/speech/sam_speech_synth.cc ****     
ARM GAS  /var/folders/9s/8rp0_f2s1n31qbztm3b5_fdh0000gn/T//ccmYVWIU.s 			page 34


 585              		.loc 1 167 5 is_stmt 1 view .LVU184
 170:eurorack/plaits/dsp/speech/sam_speech_synth.cc ****     *excitation++ = d;
 586              		.loc 1 170 28 is_stmt 0 view .LVU185
 587 014e B3EE006A 		vmov.f32	s12, #1.6e+1
 169:eurorack/plaits/dsp/speech/sam_speech_synth.cc ****     pulse_lp_ += min(16.0f * frequency, 1.0f) * d;
 588              		.loc 1 169 42 view .LVU186
 589 0152 D4ED035A 		vldr.32	s11, [r4, #12]
 169:eurorack/plaits/dsp/speech/sam_speech_synth.cc ****     pulse_lp_ += min(16.0f * frequency, 1.0f) * d;
 590              		.loc 1 169 33 view .LVU187
 591 0156 77EEC27A 		vsub.f32	s15, s15, s4
 592              	.LVL49:
 174:eurorack/plaits/dsp/speech/sam_speech_synth.cc ****     s += lut_sine[formant_phase_[1] >> 22] * formant_amplitude[1];
 593              		.loc 1 174 37 view .LVU188
 594 015a 2369     		ldr	r3, [r4, #16]
 595              	.LBB98:
 596              	.LBB99:
 236:/Library/DaisyToolchain/0.2.0/arm/arm-none-eabi/include/c++/10.3.1/bits/stl_algobase.h ****       return __a;
 597              		.loc 2 236 9 view .LVU189
 598 015c B7EE002A 		vmov.f32	s4, #1.0e+0
 599              	.LBE99:
 600              	.LBE98:
 174:eurorack/plaits/dsp/speech/sam_speech_synth.cc ****     s += lut_sine[formant_phase_[1] >> 22] * formant_amplitude[1];
 601              		.loc 1 174 42 view .LVU190
 602 0160 2749     		ldr	r1, .L27+8
 170:eurorack/plaits/dsp/speech/sam_speech_synth.cc ****     *excitation++ = d;
 603              		.loc 1 170 28 view .LVU191
 604 0162 25EE066A 		vmul.f32	s12, s10, s12
 174:eurorack/plaits/dsp/speech/sam_speech_synth.cc ****     s += lut_sine[formant_phase_[1] >> 22] * formant_amplitude[1];
 605              		.loc 1 174 37 view .LVU192
 606 0166 9B0D     		lsrs	r3, r3, #22
 169:eurorack/plaits/dsp/speech/sam_speech_synth.cc ****     pulse_lp_ += min(16.0f * frequency, 1.0f) * d;
 607              		.loc 1 169 11 view .LVU193
 608 0168 77EEE57A 		vsub.f32	s15, s15, s11
 167:eurorack/plaits/dsp/speech/sam_speech_synth.cc ****     
 609              		.loc 1 167 23 view .LVU194
 610 016c D4ED001A 		vldr.32	s3, [r4]
 611              	.LVL50:
 169:eurorack/plaits/dsp/speech/sam_speech_synth.cc ****     pulse_lp_ += min(16.0f * frequency, 1.0f) * d;
 612              		.loc 1 169 5 is_stmt 1 view .LVU195
 170:eurorack/plaits/dsp/speech/sam_speech_synth.cc ****     *excitation++ = d;
 613              		.loc 1 170 5 view .LVU196
 614              	.LBB103:
 615              	.LBI98:
 230:/Library/DaisyToolchain/0.2.0/arm/arm-none-eabi/include/c++/10.3.1/bits/stl_algobase.h ****     {
 616              		.loc 2 230 5 view .LVU197
 617              	.LBE103:
 174:eurorack/plaits/dsp/speech/sam_speech_synth.cc ****     s += lut_sine[formant_phase_[1] >> 22] * formant_amplitude[1];
 618              		.loc 1 174 42 is_stmt 0 view .LVU198
 619 0170 01EB8303 		add	r3, r1, r3, lsl #2
 175:eurorack/plaits/dsp/speech/sam_speech_synth.cc ****     s += lut_sine[formant_phase_[2] >> 22] * formant_amplitude[2];
 620              		.loc 1 175 37 view .LVU199
 621 0174 6069     		ldr	r0, [r4, #20]
 622              	.LBB104:
 623              	.LBB100:
 236:/Library/DaisyToolchain/0.2.0/arm/arm-none-eabi/include/c++/10.3.1/bits/stl_algobase.h ****       return __a;
 624              		.loc 2 236 9 view .LVU200
 625 0176 B4EE476A 		vcmp.f32	s12, s14
ARM GAS  /var/folders/9s/8rp0_f2s1n31qbztm3b5_fdh0000gn/T//ccmYVWIU.s 			page 35


 626              	.LBE100:
 627              	.LBE104:
 175:eurorack/plaits/dsp/speech/sam_speech_synth.cc ****     s += lut_sine[formant_phase_[2] >> 22] * formant_amplitude[2];
 628              		.loc 1 175 37 view .LVU201
 629 017a 800D     		lsrs	r0, r0, #22
 630              	.LBB105:
 631              	.LBB101:
 236:/Library/DaisyToolchain/0.2.0/arm/arm-none-eabi/include/c++/10.3.1/bits/stl_algobase.h ****       return __a;
 632              		.loc 2 236 9 view .LVU202
 633 017c F1EE10FA 		vmrs	APSR_nzcv, FPSCR
 634              	.LBE101:
 635              	.LBE105:
 175:eurorack/plaits/dsp/speech/sam_speech_synth.cc ****     s += lut_sine[formant_phase_[2] >> 22] * formant_amplitude[2];
 636              		.loc 1 175 42 view .LVU203
 637 0180 01EB8000 		add	r0, r1, r0, lsl #2
 638              	.LBB106:
 639              	.LBB102:
 236:/Library/DaisyToolchain/0.2.0/arm/arm-none-eabi/include/c++/10.3.1/bits/stl_algobase.h ****       return __a;
 640              		.loc 2 236 9 view .LVU204
 641 0184 32FE066A 		vselgt.f32	s12, s4, s12
 642              	.LVL51:
 236:/Library/DaisyToolchain/0.2.0/arm/arm-none-eabi/include/c++/10.3.1/bits/stl_algobase.h ****       return __a;
 643              		.loc 2 236 9 view .LVU205
 644              	.LBE102:
 645              	.LBE106:
 170:eurorack/plaits/dsp/speech/sam_speech_synth.cc ****     *excitation++ = d;
 646              		.loc 1 170 15 view .LVU206
 647 0188 E6EE275A 		vfma.f32	s11, s12, s15
 648 018c C4ED035A 		vstr.32	s11, [r4, #12]
 171:eurorack/plaits/dsp/speech/sam_speech_synth.cc ****   
 649              		.loc 1 171 5 is_stmt 1 view .LVU207
 650              	.LVL52:
 171:eurorack/plaits/dsp/speech/sam_speech_synth.cc ****   
 651              		.loc 1 171 19 is_stmt 0 view .LVU208
 652 0190 E6EC017A 		vstmia.32	r6!, {s15}
 653              	.LVL53:
 173:eurorack/plaits/dsp/speech/sam_speech_synth.cc ****     s += lut_sine[formant_phase_[0] >> 22] * formant_amplitude[0];
 654              		.loc 1 173 5 is_stmt 1 view .LVU209
 174:eurorack/plaits/dsp/speech/sam_speech_synth.cc ****     s += lut_sine[formant_phase_[1] >> 22] * formant_amplitude[1];
 655              		.loc 1 174 5 view .LVU210
 174:eurorack/plaits/dsp/speech/sam_speech_synth.cc ****     s += lut_sine[formant_phase_[1] >> 22] * formant_amplitude[1];
 656              		.loc 1 174 7 is_stmt 0 view .LVU211
 657 0194 D3ED007A 		vldr.32	s15, [r3]
 658              	.LVL54:
 659              		.loc 1 176 37 view .LVU212
 660 0198 A369     		ldr	r3, [r4, #24]
 174:eurorack/plaits/dsp/speech/sam_speech_synth.cc ****     s += lut_sine[formant_phase_[1] >> 22] * formant_amplitude[1];
 661              		.loc 1 174 7 view .LVU213
 662 019a E7EE836A 		vfma.f32	s13, s15, s6
 663              	.LVL55:
 175:eurorack/plaits/dsp/speech/sam_speech_synth.cc ****     s += lut_sine[formant_phase_[2] >> 22] * formant_amplitude[2];
 664              		.loc 1 175 5 is_stmt 1 view .LVU214
 175:eurorack/plaits/dsp/speech/sam_speech_synth.cc ****     s += lut_sine[formant_phase_[2] >> 22] * formant_amplitude[2];
 665              		.loc 1 175 7 is_stmt 0 view .LVU215
 666 019e D0ED007A 		vldr.32	s15, [r0]
 667              		.loc 1 176 37 view .LVU216
 668 01a2 9B0D     		lsrs	r3, r3, #22
ARM GAS  /var/folders/9s/8rp0_f2s1n31qbztm3b5_fdh0000gn/T//ccmYVWIU.s 			page 36


 669              		.loc 1 176 42 view .LVU217
 670 01a4 01EB8301 		add	r1, r1, r3, lsl #2
 175:eurorack/plaits/dsp/speech/sam_speech_synth.cc ****     s += lut_sine[formant_phase_[2] >> 22] * formant_amplitude[2];
 671              		.loc 1 175 7 view .LVU218
 672 01a8 E7EE846A 		vfma.f32	s13, s15, s8
 673              	.LVL56:
 674              		.loc 1 176 5 is_stmt 1 view .LVU219
 675              		.loc 1 176 7 is_stmt 0 view .LVU220
 676 01ac D1ED007A 		vldr.32	s15, [r1]
 677 01b0 E7EEA46A 		vfma.f32	s13, s15, s9
 678              	.LVL57:
 177:eurorack/plaits/dsp/speech/sam_speech_synth.cc ****     s *= (1.0f - phase_);
 679              		.loc 1 177 5 is_stmt 1 view .LVU221
 178:eurorack/plaits/dsp/speech/sam_speech_synth.cc ****     *output++ = s;
 680              		.loc 1 178 5 view .LVU222
 177:eurorack/plaits/dsp/speech/sam_speech_synth.cc ****     s *= (1.0f - phase_);
 681              		.loc 1 177 16 is_stmt 0 view .LVU223
 682 01b4 D4ED007A 		vldr.32	s15, [r4]
 683 01b8 37EE677A 		vsub.f32	s14, s14, s15
 167:eurorack/plaits/dsp/speech/sam_speech_synth.cc ****     
 684              		.loc 1 167 23 view .LVU224
 685 01bc 72EEA17A 		vadd.f32	s15, s5, s3
 686              	.LVL58:
 177:eurorack/plaits/dsp/speech/sam_speech_synth.cc ****     s *= (1.0f - phase_);
 687              		.loc 1 177 7 view .LVU225
 688 01c0 27EE267A 		vmul.f32	s14, s14, s13
 689              		.loc 1 178 15 view .LVU226
 690 01c4 A7EC017A 		vstmia.32	r7!, {s14}
 691              	.LVL59:
 692              		.loc 1 178 15 view .LVU227
 693              	.LBE115:
 145:eurorack/plaits/dsp/speech/sam_speech_synth.cc ****     float pulse_this_sample = pulse_next_sample;
 694              		.loc 1 145 3 view .LVU228
 695 01c8 79E7     		b	.L18
 696              	.LVL60:
 697              	.L11:
 130:eurorack/plaits/dsp/speech/sam_speech_synth.cc ****       : vowel * (kSAMNumVowels - 1.0001f);
 698              		.loc 1 130 7 discriminator 2 view .LVU229
 699 01ca DFED0E0A 		vldr.32	s1, .L27+12
 700 01ce 20EE200A 		vmul.f32	s0, s0, s1
 701              	.LVL61:
 130:eurorack/plaits/dsp/speech/sam_speech_synth.cc ****       : vowel * (kSAMNumVowels - 1.0001f);
 702              		.loc 1 130 7 discriminator 2 view .LVU230
 703 01d2 57E7     		b	.L12
 704              	.LVL62:
 705              	.L26:
 706              	.LBB116:
 707              	.LBB107:
 163:eurorack/plaits/dsp/speech/sam_speech_synth.cc ****       formant_phase_[1] += formant_frequency[1];
 708              		.loc 1 163 7 is_stmt 1 view .LVU231
 163:eurorack/plaits/dsp/speech/sam_speech_synth.cc ****       formant_phase_[1] += formant_frequency[1];
 709              		.loc 1 163 25 is_stmt 0 view .LVU232
 710 01d4 2369     		ldr	r3, [r4, #16]
 711              	.LBE107:
 147:eurorack/plaits/dsp/speech/sam_speech_synth.cc ****     const float frequency = fm.Next();
 712              		.loc 1 147 23 view .LVU233
 713 01d6 F0EE662A 		vmov.f32	s5, s13
ARM GAS  /var/folders/9s/8rp0_f2s1n31qbztm3b5_fdh0000gn/T//ccmYVWIU.s 			page 37


 714              	.LBB108:
 163:eurorack/plaits/dsp/speech/sam_speech_synth.cc ****       formant_phase_[1] += formant_frequency[1];
 715              		.loc 1 163 25 view .LVU234
 716 01da 1344     		add	r3, r3, r2
 717 01dc 2361     		str	r3, [r4, #16]
 164:eurorack/plaits/dsp/speech/sam_speech_synth.cc ****       formant_phase_[2] += formant_frequency[2];
 718              		.loc 1 164 7 is_stmt 1 view .LVU235
 164:eurorack/plaits/dsp/speech/sam_speech_synth.cc ****       formant_phase_[2] += formant_frequency[2];
 719              		.loc 1 164 25 is_stmt 0 view .LVU236
 720 01de 6369     		ldr	r3, [r4, #20]
 721 01e0 6344     		add	r3, r3, ip
 722 01e2 6361     		str	r3, [r4, #20]
 165:eurorack/plaits/dsp/speech/sam_speech_synth.cc ****     }
 723              		.loc 1 165 7 is_stmt 1 view .LVU237
 165:eurorack/plaits/dsp/speech/sam_speech_synth.cc ****     }
 724              		.loc 1 165 25 is_stmt 0 view .LVU238
 725 01e4 A369     		ldr	r3, [r4, #24]
 726 01e6 7344     		add	r3, r3, lr
 727 01e8 A361     		str	r3, [r4, #24]
 728 01ea B0E7     		b	.L16
 729              	.LVL63:
 730              	.L13:
 165:eurorack/plaits/dsp/speech/sam_speech_synth.cc ****     }
 731              		.loc 1 165 25 view .LVU239
 732              	.LBE108:
 733              	.LBE116:
 179:eurorack/plaits/dsp/speech/sam_speech_synth.cc ****   }
 180:eurorack/plaits/dsp/speech/sam_speech_synth.cc ****   pulse_next_sample_ = pulse_next_sample;
 734              		.loc 1 180 3 is_stmt 1 view .LVU240
 735              		.loc 1 180 22 is_stmt 0 view .LVU241
 736 01ec C4ED027A 		vstr.32	s15, [r4, #8]
 737              	.LVL64:
 738              	.LBB117:
 739              	.LBI117:
  49:eurorack/stmlib/dsp/parameter_interpolator.h ****     *state_ = value_;
 740              		.loc 3 49 3 is_stmt 1 view .LVU242
 741              	.LBB118:
  50:eurorack/stmlib/dsp/parameter_interpolator.h ****   }
 742              		.loc 3 50 5 view .LVU243
  50:eurorack/stmlib/dsp/parameter_interpolator.h ****   }
 743              		.loc 3 50 13 is_stmt 0 view .LVU244
 744 01f0 84ED015A 		vstr.32	s10, [r4, #4]
 745              	.LVL65:
  50:eurorack/stmlib/dsp/parameter_interpolator.h ****   }
 746              		.loc 3 50 13 view .LVU245
 747              	.LBE118:
 748              	.LBE117:
 181:eurorack/plaits/dsp/speech/sam_speech_synth.cc **** }
 749              		.loc 1 181 1 view .LVU246
 750 01f4 07B0     		add	sp, sp, #28
 751              		.cfi_def_cfa_offset 20
 752              		@ sp needed
 753 01f6 F0BD     		pop	{r4, r5, r6, r7, pc}
 754              	.LVL66:
 755              	.L28:
 756              		.loc 1 181 1 view .LVU247
 757              		.align	2
ARM GAS  /var/folders/9s/8rp0_f2s1n31qbztm3b5_fdh0000gn/T//ccmYVWIU.s 			page 38


 758              	.L27:
 759 01f8 0000803D 		.word	1031798784
 760 01fc 00000000 		.word	0
 761 0200 00000000 		.word	_ZN6plaits8lut_sineE
 762 0204 2EFFFF40 		.word	1090518830
 763              		.cfi_endproc
 764              	.LFE1432:
 766              		.global	_ZN6plaits14SAMSpeechSynth21formant_amplitude_lutE
 767              		.global	_ZN6plaits14SAMSpeechSynth9phonemes_E
 768              		.section	.data._ZN6plaits14SAMSpeechSynth21formant_amplitude_lutE,"aw"
 769              		.align	2
 770              		.set	.LANCHOR1,. + 0
 773              	_ZN6plaits14SAMSpeechSynth21formant_amplitude_lutE:
 774 0000 0000003D 		.word	1023410176
 775 0004 A6DB193D 		.word	1025104806
 776 0008 94F0383D 		.word	1027141780
 777 000c EF4C5E3D 		.word	1029590255
 778 0010 B99A853D 		.word	1032166073
 779 0014 3698A03D 		.word	1033934902
 780 0018 8809C13D 		.word	1036061064
 781 001c A808E83D 		.word	1038616744
 782 0020 44740B3E 		.word	1040938052
 783 0024 48A0273E 		.word	1042784328
 784 0028 3E7D493E 		.word	1045003582
 785 002c 7831723E 		.word	1047671160
 786 0030 5F8F913E 		.word	1049726815
 787 0034 2AF7AE3E 		.word	1051653930
 788 0038 B04FD23E 		.word	1053970352
 789 003c 28CCFC3E 		.word	1056754728
 790              		.section	.data._ZN6plaits14SAMSpeechSynth9phonemes_E,"aw"
 791              		.set	.LANCHOR0,. + 0
 794              	_ZN6plaits14SAMSpeechSynth9phonemes_E:
 795 0000 3C       		.byte	60
 796 0001 0F       		.byte	15
 797 0002 5A       		.byte	90
 798 0003 0D       		.byte	13
 799 0004 C8       		.byte	-56
 800 0005 01       		.byte	1
 801 0006 28       		.byte	40
 802 0007 0D       		.byte	13
 803 0008 72       		.byte	114
 804 0009 0C       		.byte	12
 805 000a 8B       		.byte	-117
 806 000b 06       		.byte	6
 807 000c 21       		.byte	33
 808 000d 0E       		.byte	14
 809 000e 9B       		.byte	-101
 810 000f 0C       		.byte	12
 811 0010 D1       		.byte	-47
 812 0011 07       		.byte	7
 813 0012 16       		.byte	22
 814 0013 0D       		.byte	13
 815 0014 BD       		.byte	-67
 816 0015 0A       		.byte	10
 817 0016 F7       		.byte	-9
 818 0017 08       		.byte	8
 819 0018 33       		.byte	51
ARM GAS  /var/folders/9s/8rp0_f2s1n31qbztm3b5_fdh0000gn/T//ccmYVWIU.s 			page 39


 820 0019 0F       		.byte	15
 821 001a 63       		.byte	99
 822 001b 0C       		.byte	12
 823 001c C3       		.byte	-61
 824 001d 01       		.byte	1
 825 001e 1D       		.byte	29
 826 001f 0D       		.byte	13
 827 0020 41       		.byte	65
 828 0021 08       		.byte	8
 829 0022 B4       		.byte	-76
 830 0023 00       		.byte	0
 831 0024 0D       		.byte	13
 832 0025 0C       		.byte	12
 833 0026 67       		.byte	103
 834 0027 03       		.byte	3
 835 0028 B6       		.byte	-74
 836 0029 00       		.byte	0
 837 002a 14       		.byte	20
 838 002b 0F       		.byte	15
 839 002c 72       		.byte	114
 840 002d 03       		.byte	3
 841 002e D5       		.byte	-43
 842 002f 00       		.byte	0
 843 0030 0D       		.byte	13
 844 0031 07       		.byte	7
 845 0032 A4       		.byte	-92
 846 0033 03       		.byte	3
 847 0034 DE       		.byte	-34
 848 0035 0E       		.byte	14
 849 0036 0D       		.byte	13
 850 0037 09       		.byte	9
 851 0038 79       		.byte	121
 852 0039 09       		.byte	9
 853 003a FE       		.byte	-2
 854 003b 00       		.byte	0
 855 003c 28       		.byte	40
 856 003d 0C       		.byte	12
 857 003e 70       		.byte	112
 858 003f 0A       		.byte	10
 859 0040 72       		.byte	114
 860 0041 05       		.byte	5
 861 0042 18       		.byte	24
 862 0043 0D       		.byte	13
 863 0044 36       		.byte	54
 864 0045 08       		.byte	8
 865 0046 9D       		.byte	-99
 866 0047 00       		.byte	0
 867 0048 21       		.byte	33
 868 0049 0E       		.byte	14
 869 004a 9B       		.byte	-101
 870 004b 0C       		.byte	12
 871 004c A6       		.byte	-90
 872 004d 07       		.byte	7
 873 004e 24       		.byte	36
 874 004f 0E       		.byte	14
 875 0050 53       		.byte	83
 876 0051 08       		.byte	8
ARM GAS  /var/folders/9s/8rp0_f2s1n31qbztm3b5_fdh0000gn/T//ccmYVWIU.s 			page 40


 877 0052 F9       		.byte	-7
 878 0053 01       		.byte	1
 879 0054 28       		.byte	40
 880 0055 0E       		.byte	14
 881 0056 72       		.byte	114
 882 0057 0C       		.byte	12
 883 0058 8B       		.byte	-117
 884 0059 06       		.byte	6
 885 005a 0D       		.byte	13
 886 005b 05       		.byte	5
 887 005c 3A       		.byte	58
 888 005d 05       		.byte	5
 889 005e B6       		.byte	-74
 890 005f 05       		.byte	5
 891 0060 0D       		.byte	13
 892 0061 07       		.byte	7
 893 0062 A4       		.byte	-92
 894 0063 0A       		.byte	10
 895 0064 DE       		.byte	-34
 896 0065 0E       		.byte	14
 897              		.text
 898              	.Letext0:
 899              		.file 5 "/Library/DaisyToolchain/0.2.0/arm/arm-none-eabi/include/machine/_default_types.h"
 900              		.file 6 "/Library/DaisyToolchain/0.2.0/arm/arm-none-eabi/include/sys/_stdint.h"
 901              		.file 7 "/Library/DaisyToolchain/0.2.0/arm/lib/gcc/arm-none-eabi/10.3.1/include/stddef.h"
 902              		.file 8 "/Library/DaisyToolchain/0.2.0/arm/arm-none-eabi/include/c++/10.3.1/cmath"
 903              		.file 9 "/Library/DaisyToolchain/0.2.0/arm/arm-none-eabi/include/c++/10.3.1/bits/std_abs.h"
 904              		.file 10 "/Library/DaisyToolchain/0.2.0/arm/arm-none-eabi/include/c++/10.3.1/type_traits"
 905              		.file 11 "/Library/DaisyToolchain/0.2.0/arm/arm-none-eabi/include/c++/10.3.1/debug/debug.h"
 906              		.file 12 "/Library/DaisyToolchain/0.2.0/arm/arm-none-eabi/include/c++/10.3.1/cstdlib"
 907              		.file 13 "/Library/DaisyToolchain/0.2.0/arm/arm-none-eabi/include/c++/10.3.1/arm-none-eabi/thumb/v
 908              		.file 14 "/Library/DaisyToolchain/0.2.0/arm/arm-none-eabi/include/c++/10.3.1/bits/algorithmfwd.h"
 909              		.file 15 "/Library/DaisyToolchain/0.2.0/arm/arm-none-eabi/include/c++/10.3.1/bits/stl_pair.h"
 910              		.file 16 "/Library/DaisyToolchain/0.2.0/arm/arm-none-eabi/include/c++/10.3.1/bits/exception_ptr.h"
 911              		.file 17 "/Library/DaisyToolchain/0.2.0/arm/arm-none-eabi/include/c++/10.3.1/bits/predefined_ops.h
 912              		.file 18 "/Library/DaisyToolchain/0.2.0/arm/arm-none-eabi/include/math.h"
 913              		.file 19 "/Library/DaisyToolchain/0.2.0/arm/arm-none-eabi/include/stdlib.h"
 914              		.file 20 "/Library/DaisyToolchain/0.2.0/arm/arm-none-eabi/include/c++/10.3.1/math.h"
 915              		.file 21 "eurorack/stmlib/stmlib.h"
 916              		.file 22 "eurorack/plaits/dsp/dsp.h"
 917              		.file 23 "eurorack/plaits/dsp/speech/sam_speech_synth.h"
 918              		.file 24 "eurorack/plaits/dsp/oscillator/oscillator.h"
 919              		.file 25 "eurorack/plaits/resources.h"
 920              		.file 26 "<built-in>"
ARM GAS  /var/folders/9s/8rp0_f2s1n31qbztm3b5_fdh0000gn/T//ccmYVWIU.s 			page 41


DEFINED SYMBOLS
                            *ABS*:0000000000000000 sam_speech_synth.cc
/var/folders/9s/8rp0_f2s1n31qbztm3b5_fdh0000gn/T//ccmYVWIU.s:19     .text._ZN6plaits14SAMSpeechSynth4InitEv:0000000000000000 $t
/var/folders/9s/8rp0_f2s1n31qbztm3b5_fdh0000gn/T//ccmYVWIU.s:25     .text._ZN6plaits14SAMSpeechSynth4InitEv:0000000000000000 _ZN6plaits14SAMSpeechSynth4InitEv
/var/folders/9s/8rp0_f2s1n31qbztm3b5_fdh0000gn/T//ccmYVWIU.s:100    .text._ZN6plaits14SAMSpeechSynth22InterpolatePhonemeDataEffPmPf:0000000000000000 $t
/var/folders/9s/8rp0_f2s1n31qbztm3b5_fdh0000gn/T//ccmYVWIU.s:106    .text._ZN6plaits14SAMSpeechSynth22InterpolatePhonemeDataEffPmPf:0000000000000000 _ZN6plaits14SAMSpeechSynth22InterpolatePhonemeDataEffPmPf
/var/folders/9s/8rp0_f2s1n31qbztm3b5_fdh0000gn/T//ccmYVWIU.s:244    .text._ZN6plaits14SAMSpeechSynth22InterpolatePhonemeDataEffPmPf:00000000000000b0 $d
/var/folders/9s/8rp0_f2s1n31qbztm3b5_fdh0000gn/T//ccmYVWIU.s:252    .text._ZN6plaits14SAMSpeechSynth6RenderEbfffPfS1_j:0000000000000000 $t
/var/folders/9s/8rp0_f2s1n31qbztm3b5_fdh0000gn/T//ccmYVWIU.s:258    .text._ZN6plaits14SAMSpeechSynth6RenderEbfffPfS1_j:0000000000000000 _ZN6plaits14SAMSpeechSynth6RenderEbfffPfS1_j
/var/folders/9s/8rp0_f2s1n31qbztm3b5_fdh0000gn/T//ccmYVWIU.s:759    .text._ZN6plaits14SAMSpeechSynth6RenderEbfffPfS1_j:00000000000001f8 $d
/var/folders/9s/8rp0_f2s1n31qbztm3b5_fdh0000gn/T//ccmYVWIU.s:773    .data._ZN6plaits14SAMSpeechSynth21formant_amplitude_lutE:0000000000000000 _ZN6plaits14SAMSpeechSynth21formant_amplitude_lutE
/var/folders/9s/8rp0_f2s1n31qbztm3b5_fdh0000gn/T//ccmYVWIU.s:794    .data._ZN6plaits14SAMSpeechSynth9phonemes_E:0000000000000000 _ZN6plaits14SAMSpeechSynth9phonemes_E
/var/folders/9s/8rp0_f2s1n31qbztm3b5_fdh0000gn/T//ccmYVWIU.s:769    .data._ZN6plaits14SAMSpeechSynth21formant_amplitude_lutE:0000000000000000 $d

UNDEFINED SYMBOLS
_ZN6plaits8lut_sineE
