ARM GAS  /var/folders/9s/8rp0_f2s1n31qbztm3b5_fdh0000gn/T//ccrjzSP7.s 			page 1


   1              		.cpu cortex-m7
   2              		.arch armv7e-m
   3              		.fpu fpv5-d16
   4              		.eabi_attribute 28, 1
   5              		.eabi_attribute 20, 1
   6              		.eabi_attribute 21, 1
   7              		.eabi_attribute 23, 3
   8              		.eabi_attribute 24, 1
   9              		.eabi_attribute 25, 1
  10              		.eabi_attribute 26, 1
  11              		.eabi_attribute 30, 4
  12              		.eabi_attribute 34, 1
  13              		.eabi_attribute 18, 4
  14              		.file	"snare_drum_engine.cc"
  15              		.text
  16              	.Ltext0:
  17              		.cfi_sections	.debug_frame
  18              		.section	.text._ZN6plaits15SnareDrumEngine5ResetEv,"ax",%progbits
  19              		.align	1
  20              		.global	_ZN6plaits15SnareDrumEngine5ResetEv
  21              		.syntax unified
  22              		.thumb
  23              		.thumb_func
  25              	_ZN6plaits15SnareDrumEngine5ResetEv:
  26              	.LVL0:
  27              	.LFB1576:
  28              		.file 1 "eurorack/plaits/dsp/engine/snare_drum_engine.cc"
   1:eurorack/plaits/dsp/engine/snare_drum_engine.cc **** // Copyright 2016 Emilie Gillet.
   2:eurorack/plaits/dsp/engine/snare_drum_engine.cc **** //
   3:eurorack/plaits/dsp/engine/snare_drum_engine.cc **** // Author: Emilie Gillet (emilie.o.gillet@gmail.com)
   4:eurorack/plaits/dsp/engine/snare_drum_engine.cc **** //
   5:eurorack/plaits/dsp/engine/snare_drum_engine.cc **** // Permission is hereby granted, free of charge, to any person obtaining a copy
   6:eurorack/plaits/dsp/engine/snare_drum_engine.cc **** // of this software and associated documentation files (the "Software"), to deal
   7:eurorack/plaits/dsp/engine/snare_drum_engine.cc **** // in the Software without restriction, including without limitation the rights
   8:eurorack/plaits/dsp/engine/snare_drum_engine.cc **** // to use, copy, modify, merge, publish, distribute, sublicense, and/or sell
   9:eurorack/plaits/dsp/engine/snare_drum_engine.cc **** // copies of the Software, and to permit persons to whom the Software is
  10:eurorack/plaits/dsp/engine/snare_drum_engine.cc **** // furnished to do so, subject to the following conditions:
  11:eurorack/plaits/dsp/engine/snare_drum_engine.cc **** // 
  12:eurorack/plaits/dsp/engine/snare_drum_engine.cc **** // The above copyright notice and this permission notice shall be included in
  13:eurorack/plaits/dsp/engine/snare_drum_engine.cc **** // all copies or substantial portions of the Software.
  14:eurorack/plaits/dsp/engine/snare_drum_engine.cc **** // 
  15:eurorack/plaits/dsp/engine/snare_drum_engine.cc **** // THE SOFTWARE IS PROVIDED "AS IS", WITHOUT WARRANTY OF ANY KIND, EXPRESS OR
  16:eurorack/plaits/dsp/engine/snare_drum_engine.cc **** // IMPLIED, INCLUDING BUT NOT LIMITED TO THE WARRANTIES OF MERCHANTABILITY,
  17:eurorack/plaits/dsp/engine/snare_drum_engine.cc **** // FITNESS FOR A PARTICULAR PURPOSE AND NONINFRINGEMENT. IN NO EVENT SHALL THE
  18:eurorack/plaits/dsp/engine/snare_drum_engine.cc **** // AUTHORS OR COPYRIGHT HOLDERS BE LIABLE FOR ANY CLAIM, DAMAGES OR OTHER
  19:eurorack/plaits/dsp/engine/snare_drum_engine.cc **** // LIABILITY, WHETHER IN AN ACTION OF CONTRACT, TORT OR OTHERWISE, ARISING FROM,
  20:eurorack/plaits/dsp/engine/snare_drum_engine.cc **** // OUT OF OR IN CONNECTION WITH THE SOFTWARE OR THE USE OR OTHER DEALINGS IN
  21:eurorack/plaits/dsp/engine/snare_drum_engine.cc **** // THE SOFTWARE.
  22:eurorack/plaits/dsp/engine/snare_drum_engine.cc **** // 
  23:eurorack/plaits/dsp/engine/snare_drum_engine.cc **** // See http://creativecommons.org/licenses/MIT/ for more information.
  24:eurorack/plaits/dsp/engine/snare_drum_engine.cc **** //
  25:eurorack/plaits/dsp/engine/snare_drum_engine.cc **** // -----------------------------------------------------------------------------
  26:eurorack/plaits/dsp/engine/snare_drum_engine.cc **** //
  27:eurorack/plaits/dsp/engine/snare_drum_engine.cc **** // 808 and synthetic snare drum generators.
  28:eurorack/plaits/dsp/engine/snare_drum_engine.cc **** 
  29:eurorack/plaits/dsp/engine/snare_drum_engine.cc **** #include "plaits/dsp/engine/snare_drum_engine.h"
  30:eurorack/plaits/dsp/engine/snare_drum_engine.cc **** 
ARM GAS  /var/folders/9s/8rp0_f2s1n31qbztm3b5_fdh0000gn/T//ccrjzSP7.s 			page 2


  31:eurorack/plaits/dsp/engine/snare_drum_engine.cc **** #include <algorithm>
  32:eurorack/plaits/dsp/engine/snare_drum_engine.cc **** 
  33:eurorack/plaits/dsp/engine/snare_drum_engine.cc **** namespace plaits {
  34:eurorack/plaits/dsp/engine/snare_drum_engine.cc **** 
  35:eurorack/plaits/dsp/engine/snare_drum_engine.cc **** using namespace std;
  36:eurorack/plaits/dsp/engine/snare_drum_engine.cc **** using namespace stmlib;
  37:eurorack/plaits/dsp/engine/snare_drum_engine.cc **** 
  38:eurorack/plaits/dsp/engine/snare_drum_engine.cc **** void SnareDrumEngine::Init(BufferAllocator* allocator) {
  39:eurorack/plaits/dsp/engine/snare_drum_engine.cc ****   analog_snare_drum_.Init();
  40:eurorack/plaits/dsp/engine/snare_drum_engine.cc ****   synthetic_snare_drum_.Init();
  41:eurorack/plaits/dsp/engine/snare_drum_engine.cc **** }
  42:eurorack/plaits/dsp/engine/snare_drum_engine.cc **** 
  43:eurorack/plaits/dsp/engine/snare_drum_engine.cc **** void SnareDrumEngine::Reset() {
  29              		.loc 1 43 31 view -0
  30              		.cfi_startproc
  31              		@ args = 0, pretend = 0, frame = 0
  32              		@ frame_needed = 0, uses_anonymous_args = 0
  33              		@ link register save eliminated.
  44:eurorack/plaits/dsp/engine/snare_drum_engine.cc ****   
  45:eurorack/plaits/dsp/engine/snare_drum_engine.cc **** }
  34              		.loc 1 45 1 is_stmt 0 view .LVU1
  35 0000 7047     		bx	lr
  36              		.cfi_endproc
  37              	.LFE1576:
  39              		.section	.text._ZN6stmlib3Svf4InitEv,"axG",%progbits,_ZN6stmlib3Svf4InitEv,comdat
  40              		.align	1
  41              		.weak	_ZN6stmlib3Svf4InitEv
  42              		.syntax unified
  43              		.thumb
  44              		.thumb_func
  46              	_ZN6stmlib3Svf4InitEv:
  47              	.LVL1:
  48              	.LFB1421:
  49              		.file 2 "eurorack/stmlib/dsp/filter.h"
   1:eurorack/stmlib/dsp/filter.h **** // Copyright 2014 Emilie Gillet.
   2:eurorack/stmlib/dsp/filter.h **** //
   3:eurorack/stmlib/dsp/filter.h **** // Author: Emilie Gillet (emilie.o.gillet@gmail.com)
   4:eurorack/stmlib/dsp/filter.h **** //
   5:eurorack/stmlib/dsp/filter.h **** // Permission is hereby granted, free of charge, to any person obtaining a copy
   6:eurorack/stmlib/dsp/filter.h **** // of this software and associated documentation files (the "Software"), to deal
   7:eurorack/stmlib/dsp/filter.h **** // in the Software without restriction, including without limitation the rights
   8:eurorack/stmlib/dsp/filter.h **** // to use, copy, modify, merge, publish, distribute, sublicense, and/or sell
   9:eurorack/stmlib/dsp/filter.h **** // copies of the Software, and to permit persons to whom the Software is
  10:eurorack/stmlib/dsp/filter.h **** // furnished to do so, subject to the following conditions:
  11:eurorack/stmlib/dsp/filter.h **** // 
  12:eurorack/stmlib/dsp/filter.h **** // The above copyright notice and this permission notice shall be included in
  13:eurorack/stmlib/dsp/filter.h **** // all copies or substantial portions of the Software.
  14:eurorack/stmlib/dsp/filter.h **** // 
  15:eurorack/stmlib/dsp/filter.h **** // THE SOFTWARE IS PROVIDED "AS IS", WITHOUT WARRANTY OF ANY KIND, EXPRESS OR
  16:eurorack/stmlib/dsp/filter.h **** // IMPLIED, INCLUDING BUT NOT LIMITED TO THE WARRANTIES OF MERCHANTABILITY,
  17:eurorack/stmlib/dsp/filter.h **** // FITNESS FOR A PARTICULAR PURPOSE AND NONINFRINGEMENT. IN NO EVENT SHALL THE
  18:eurorack/stmlib/dsp/filter.h **** // AUTHORS OR COPYRIGHT HOLDERS BE LIABLE FOR ANY CLAIM, DAMAGES OR OTHER
  19:eurorack/stmlib/dsp/filter.h **** // LIABILITY, WHETHER IN AN ACTION OF CONTRACT, TORT OR OTHERWISE, ARISING FROM,
  20:eurorack/stmlib/dsp/filter.h **** // OUT OF OR IN CONNECTION WITH THE SOFTWARE OR THE USE OR OTHER DEALINGS IN
  21:eurorack/stmlib/dsp/filter.h **** // THE SOFTWARE.
  22:eurorack/stmlib/dsp/filter.h **** // 
  23:eurorack/stmlib/dsp/filter.h **** // See http://creativecommons.org/licenses/MIT/ for more information.
ARM GAS  /var/folders/9s/8rp0_f2s1n31qbztm3b5_fdh0000gn/T//ccrjzSP7.s 			page 3


  24:eurorack/stmlib/dsp/filter.h **** //
  25:eurorack/stmlib/dsp/filter.h **** // -----------------------------------------------------------------------------
  26:eurorack/stmlib/dsp/filter.h **** //
  27:eurorack/stmlib/dsp/filter.h **** // Zero-delay-feedback filters (one pole and SVF).
  28:eurorack/stmlib/dsp/filter.h **** // Naive SVF.
  29:eurorack/stmlib/dsp/filter.h **** 
  30:eurorack/stmlib/dsp/filter.h **** #ifndef STMLIB_DSP_FILTER_H_
  31:eurorack/stmlib/dsp/filter.h **** #define STMLIB_DSP_FILTER_H_
  32:eurorack/stmlib/dsp/filter.h **** 
  33:eurorack/stmlib/dsp/filter.h **** #include "stmlib/stmlib.h"
  34:eurorack/stmlib/dsp/filter.h **** 
  35:eurorack/stmlib/dsp/filter.h **** #include <cmath>
  36:eurorack/stmlib/dsp/filter.h **** #include <algorithm>
  37:eurorack/stmlib/dsp/filter.h **** 
  38:eurorack/stmlib/dsp/filter.h **** namespace stmlib {
  39:eurorack/stmlib/dsp/filter.h **** 
  40:eurorack/stmlib/dsp/filter.h **** enum FilterMode {
  41:eurorack/stmlib/dsp/filter.h ****   FILTER_MODE_LOW_PASS,
  42:eurorack/stmlib/dsp/filter.h ****   FILTER_MODE_BAND_PASS,
  43:eurorack/stmlib/dsp/filter.h ****   FILTER_MODE_BAND_PASS_NORMALIZED,
  44:eurorack/stmlib/dsp/filter.h ****   FILTER_MODE_HIGH_PASS
  45:eurorack/stmlib/dsp/filter.h **** };
  46:eurorack/stmlib/dsp/filter.h **** 
  47:eurorack/stmlib/dsp/filter.h **** enum FrequencyApproximation {
  48:eurorack/stmlib/dsp/filter.h ****   FREQUENCY_EXACT,
  49:eurorack/stmlib/dsp/filter.h ****   FREQUENCY_ACCURATE,
  50:eurorack/stmlib/dsp/filter.h ****   FREQUENCY_FAST,
  51:eurorack/stmlib/dsp/filter.h ****   FREQUENCY_DIRTY
  52:eurorack/stmlib/dsp/filter.h **** };
  53:eurorack/stmlib/dsp/filter.h **** 
  54:eurorack/stmlib/dsp/filter.h **** #define M_PI_F float(M_PI)
  55:eurorack/stmlib/dsp/filter.h **** #define M_PI_POW_2 M_PI * M_PI
  56:eurorack/stmlib/dsp/filter.h **** #define M_PI_POW_3 M_PI_POW_2 * M_PI
  57:eurorack/stmlib/dsp/filter.h **** #define M_PI_POW_5 M_PI_POW_3 * M_PI_POW_2
  58:eurorack/stmlib/dsp/filter.h **** #define M_PI_POW_7 M_PI_POW_5 * M_PI_POW_2
  59:eurorack/stmlib/dsp/filter.h **** #define M_PI_POW_9 M_PI_POW_7 * M_PI_POW_2
  60:eurorack/stmlib/dsp/filter.h **** #define M_PI_POW_11 M_PI_POW_9 * M_PI_POW_2
  61:eurorack/stmlib/dsp/filter.h **** 
  62:eurorack/stmlib/dsp/filter.h **** class DCBlocker {
  63:eurorack/stmlib/dsp/filter.h ****  public:
  64:eurorack/stmlib/dsp/filter.h ****   DCBlocker() { }
  65:eurorack/stmlib/dsp/filter.h ****   ~DCBlocker() { }
  66:eurorack/stmlib/dsp/filter.h ****   
  67:eurorack/stmlib/dsp/filter.h ****   void Init(float pole) {
  68:eurorack/stmlib/dsp/filter.h ****     x_ = 0.0f;
  69:eurorack/stmlib/dsp/filter.h ****     y_ = 0.0f;
  70:eurorack/stmlib/dsp/filter.h ****     pole_ = pole;
  71:eurorack/stmlib/dsp/filter.h ****   }
  72:eurorack/stmlib/dsp/filter.h ****   
  73:eurorack/stmlib/dsp/filter.h ****   inline void Process(float* in_out, size_t size) {
  74:eurorack/stmlib/dsp/filter.h ****     float x = x_;
  75:eurorack/stmlib/dsp/filter.h ****     float y = y_;
  76:eurorack/stmlib/dsp/filter.h ****     const float pole = pole_;
  77:eurorack/stmlib/dsp/filter.h ****     while (size--) {
  78:eurorack/stmlib/dsp/filter.h ****       float old_x = x;
  79:eurorack/stmlib/dsp/filter.h ****       x = *in_out;
  80:eurorack/stmlib/dsp/filter.h ****       *in_out++ = y = y * pole + x - old_x;
ARM GAS  /var/folders/9s/8rp0_f2s1n31qbztm3b5_fdh0000gn/T//ccrjzSP7.s 			page 4


  81:eurorack/stmlib/dsp/filter.h ****     }
  82:eurorack/stmlib/dsp/filter.h ****     x_ = x;
  83:eurorack/stmlib/dsp/filter.h ****     y_ = y;
  84:eurorack/stmlib/dsp/filter.h ****   }
  85:eurorack/stmlib/dsp/filter.h ****   
  86:eurorack/stmlib/dsp/filter.h ****  private:
  87:eurorack/stmlib/dsp/filter.h ****   float pole_;
  88:eurorack/stmlib/dsp/filter.h ****   float x_;
  89:eurorack/stmlib/dsp/filter.h ****   float y_;
  90:eurorack/stmlib/dsp/filter.h **** };
  91:eurorack/stmlib/dsp/filter.h **** 
  92:eurorack/stmlib/dsp/filter.h **** class OnePole {
  93:eurorack/stmlib/dsp/filter.h ****  public:
  94:eurorack/stmlib/dsp/filter.h ****   OnePole() { }
  95:eurorack/stmlib/dsp/filter.h ****   ~OnePole() { }
  96:eurorack/stmlib/dsp/filter.h ****   
  97:eurorack/stmlib/dsp/filter.h ****   void Init() {
  98:eurorack/stmlib/dsp/filter.h ****     set_f<FREQUENCY_DIRTY>(0.01f);
  99:eurorack/stmlib/dsp/filter.h ****     Reset();
 100:eurorack/stmlib/dsp/filter.h ****   }
 101:eurorack/stmlib/dsp/filter.h ****   
 102:eurorack/stmlib/dsp/filter.h ****   void Reset() {
 103:eurorack/stmlib/dsp/filter.h ****     state_ = 0.0f;
 104:eurorack/stmlib/dsp/filter.h ****   }
 105:eurorack/stmlib/dsp/filter.h ****   
 106:eurorack/stmlib/dsp/filter.h ****   template<FrequencyApproximation approximation>
 107:eurorack/stmlib/dsp/filter.h ****   static inline float tan(float f) {
 108:eurorack/stmlib/dsp/filter.h ****     if (approximation == FREQUENCY_EXACT) {
 109:eurorack/stmlib/dsp/filter.h ****       // Clip coefficient to about 100.
 110:eurorack/stmlib/dsp/filter.h ****       f = f < 0.497f ? f : 0.497f;
 111:eurorack/stmlib/dsp/filter.h ****       return tanf(M_PI_F * f);
 112:eurorack/stmlib/dsp/filter.h ****     } else if (approximation == FREQUENCY_DIRTY) {
 113:eurorack/stmlib/dsp/filter.h ****       // Optimized for frequencies below 8kHz.
 114:eurorack/stmlib/dsp/filter.h ****       const float a = 3.736e-01f * M_PI_POW_3;
 115:eurorack/stmlib/dsp/filter.h ****       return f * (M_PI_F + a * f * f);
 116:eurorack/stmlib/dsp/filter.h ****     } else if (approximation == FREQUENCY_FAST) {
 117:eurorack/stmlib/dsp/filter.h ****       // The usual tangent approximation uses 3.1755e-01 and 2.033e-01, but
 118:eurorack/stmlib/dsp/filter.h ****       // the coefficients used here are optimized to minimize error for the
 119:eurorack/stmlib/dsp/filter.h ****       // 16Hz to 16kHz range, with a sample rate of 48kHz.
 120:eurorack/stmlib/dsp/filter.h ****       const float a = 3.260e-01f * M_PI_POW_3;
 121:eurorack/stmlib/dsp/filter.h ****       const float b = 1.823e-01f * M_PI_POW_5;
 122:eurorack/stmlib/dsp/filter.h ****       float f2 = f * f;
 123:eurorack/stmlib/dsp/filter.h ****       return f * (M_PI_F + f2 * (a + b * f2));
 124:eurorack/stmlib/dsp/filter.h ****     } else if (approximation == FREQUENCY_ACCURATE) {
 125:eurorack/stmlib/dsp/filter.h ****       // These coefficients don't need to be tweaked for the audio range.
 126:eurorack/stmlib/dsp/filter.h ****       const float a = 3.333314036e-01f * M_PI_POW_3;
 127:eurorack/stmlib/dsp/filter.h ****       const float b = 1.333923995e-01f * M_PI_POW_5;
 128:eurorack/stmlib/dsp/filter.h ****       const float c = 5.33740603e-02f * M_PI_POW_7;
 129:eurorack/stmlib/dsp/filter.h ****       const float d = 2.900525e-03f * M_PI_POW_9;
 130:eurorack/stmlib/dsp/filter.h ****       const float e = 9.5168091e-03f * M_PI_POW_11;
 131:eurorack/stmlib/dsp/filter.h ****       float f2 = f * f;
 132:eurorack/stmlib/dsp/filter.h ****       return f * (M_PI_F + f2 * (a + f2 * (b + f2 * (c + f2 * (d + f2 * e)))));
 133:eurorack/stmlib/dsp/filter.h ****     }
 134:eurorack/stmlib/dsp/filter.h ****   }
 135:eurorack/stmlib/dsp/filter.h ****   
 136:eurorack/stmlib/dsp/filter.h ****   // Set frequency and resonance from true units. Various approximations
 137:eurorack/stmlib/dsp/filter.h ****   // are available to avoid the cost of tanf.
ARM GAS  /var/folders/9s/8rp0_f2s1n31qbztm3b5_fdh0000gn/T//ccrjzSP7.s 			page 5


 138:eurorack/stmlib/dsp/filter.h ****   template<FrequencyApproximation approximation>
 139:eurorack/stmlib/dsp/filter.h ****   inline void set_f(float f) {
 140:eurorack/stmlib/dsp/filter.h ****     g_ = tan<approximation>(f);
 141:eurorack/stmlib/dsp/filter.h ****     gi_ = 1.0f / (1.0f + g_);
 142:eurorack/stmlib/dsp/filter.h ****   }
 143:eurorack/stmlib/dsp/filter.h ****   
 144:eurorack/stmlib/dsp/filter.h ****   template<FilterMode mode>
 145:eurorack/stmlib/dsp/filter.h ****   inline float Process(float in) {
 146:eurorack/stmlib/dsp/filter.h ****     float lp;
 147:eurorack/stmlib/dsp/filter.h ****     lp = (g_ * in + state_) * gi_;
 148:eurorack/stmlib/dsp/filter.h ****     state_ = g_ * (in - lp) + lp;
 149:eurorack/stmlib/dsp/filter.h **** 
 150:eurorack/stmlib/dsp/filter.h ****     if (mode == FILTER_MODE_LOW_PASS) {
 151:eurorack/stmlib/dsp/filter.h ****       return lp;
 152:eurorack/stmlib/dsp/filter.h ****     } else if (mode == FILTER_MODE_HIGH_PASS) {
 153:eurorack/stmlib/dsp/filter.h ****       return in - lp;
 154:eurorack/stmlib/dsp/filter.h ****     } else {
 155:eurorack/stmlib/dsp/filter.h ****       return 0.0f;
 156:eurorack/stmlib/dsp/filter.h ****     }
 157:eurorack/stmlib/dsp/filter.h ****   }
 158:eurorack/stmlib/dsp/filter.h ****   
 159:eurorack/stmlib/dsp/filter.h ****   template<FilterMode mode>
 160:eurorack/stmlib/dsp/filter.h ****   inline void Process(float* in_out, size_t size) {
 161:eurorack/stmlib/dsp/filter.h ****     while (size--) {
 162:eurorack/stmlib/dsp/filter.h ****       *in_out = Process<mode>(*in_out);
 163:eurorack/stmlib/dsp/filter.h ****       ++in_out;
 164:eurorack/stmlib/dsp/filter.h ****     }
 165:eurorack/stmlib/dsp/filter.h ****   }
 166:eurorack/stmlib/dsp/filter.h ****   
 167:eurorack/stmlib/dsp/filter.h ****  private:
 168:eurorack/stmlib/dsp/filter.h ****   float g_;
 169:eurorack/stmlib/dsp/filter.h ****   float gi_;
 170:eurorack/stmlib/dsp/filter.h ****   float state_;
 171:eurorack/stmlib/dsp/filter.h ****   
 172:eurorack/stmlib/dsp/filter.h ****   DISALLOW_COPY_AND_ASSIGN(OnePole);
 173:eurorack/stmlib/dsp/filter.h **** };
 174:eurorack/stmlib/dsp/filter.h **** 
 175:eurorack/stmlib/dsp/filter.h **** 
 176:eurorack/stmlib/dsp/filter.h **** 
 177:eurorack/stmlib/dsp/filter.h **** class Svf {
 178:eurorack/stmlib/dsp/filter.h ****  public:
 179:eurorack/stmlib/dsp/filter.h ****   Svf() { }
 180:eurorack/stmlib/dsp/filter.h ****   ~Svf() { }
 181:eurorack/stmlib/dsp/filter.h ****   
 182:eurorack/stmlib/dsp/filter.h ****   void Init() {
  50              		.loc 2 182 8 is_stmt 1 view -0
  51              		.cfi_startproc
  52              		@ args = 0, pretend = 0, frame = 0
  53              		@ frame_needed = 0, uses_anonymous_args = 0
  54              		@ link register save eliminated.
 183:eurorack/stmlib/dsp/filter.h ****     set_f_q<FREQUENCY_DIRTY>(0.01f, 100.0f);
  55              		.loc 2 183 5 view .LVU3
  56              	.LBB58:
  57              	.LBI58:
 184:eurorack/stmlib/dsp/filter.h ****     Reset();
 185:eurorack/stmlib/dsp/filter.h ****   }
 186:eurorack/stmlib/dsp/filter.h ****   
ARM GAS  /var/folders/9s/8rp0_f2s1n31qbztm3b5_fdh0000gn/T//ccrjzSP7.s 			page 6


 187:eurorack/stmlib/dsp/filter.h ****   void Reset() {
 188:eurorack/stmlib/dsp/filter.h ****     state_1_ = state_2_ = 0.0f;
 189:eurorack/stmlib/dsp/filter.h ****   }
 190:eurorack/stmlib/dsp/filter.h ****   
 191:eurorack/stmlib/dsp/filter.h ****   // Copy settings from another filter.
 192:eurorack/stmlib/dsp/filter.h ****   inline void set(const Svf& f) {
 193:eurorack/stmlib/dsp/filter.h ****     g_ = f.g();
 194:eurorack/stmlib/dsp/filter.h ****     r_ = f.r();
 195:eurorack/stmlib/dsp/filter.h ****     h_ = f.h();
 196:eurorack/stmlib/dsp/filter.h ****   }
 197:eurorack/stmlib/dsp/filter.h **** 
 198:eurorack/stmlib/dsp/filter.h ****   // Set all parameters from LUT.
 199:eurorack/stmlib/dsp/filter.h ****   inline void set_g_r_h(float g, float r, float h) {
 200:eurorack/stmlib/dsp/filter.h ****     g_ = g;
 201:eurorack/stmlib/dsp/filter.h ****     r_ = r;
 202:eurorack/stmlib/dsp/filter.h ****     h_ = h;
 203:eurorack/stmlib/dsp/filter.h ****   }
 204:eurorack/stmlib/dsp/filter.h ****   
 205:eurorack/stmlib/dsp/filter.h ****   // Set frequency and resonance coefficients from LUT, adjust remaining
 206:eurorack/stmlib/dsp/filter.h ****   // parameter.
 207:eurorack/stmlib/dsp/filter.h ****   inline void set_g_r(float g, float r) {
 208:eurorack/stmlib/dsp/filter.h ****     g_ = g;
 209:eurorack/stmlib/dsp/filter.h ****     r_ = r;
 210:eurorack/stmlib/dsp/filter.h ****     h_ = 1.0f / (1.0f + r_ * g_ + g_ * g_);
 211:eurorack/stmlib/dsp/filter.h ****   }
 212:eurorack/stmlib/dsp/filter.h **** 
 213:eurorack/stmlib/dsp/filter.h ****   // Set frequency from LUT, resonance in true units, adjust the rest.
 214:eurorack/stmlib/dsp/filter.h ****   inline void set_g_q(float g, float resonance) {
 215:eurorack/stmlib/dsp/filter.h ****     g_ = g;
 216:eurorack/stmlib/dsp/filter.h ****     r_ = 1.0f / resonance;
 217:eurorack/stmlib/dsp/filter.h ****     h_ = 1.0f / (1.0f + r_ * g_ + g_ * g_);
 218:eurorack/stmlib/dsp/filter.h ****   }
 219:eurorack/stmlib/dsp/filter.h **** 
 220:eurorack/stmlib/dsp/filter.h ****   // Set frequency and resonance from true units. Various approximations
 221:eurorack/stmlib/dsp/filter.h ****   // are available to avoid the cost of tanf.
 222:eurorack/stmlib/dsp/filter.h ****   template<FrequencyApproximation approximation>
 223:eurorack/stmlib/dsp/filter.h ****   inline void set_f_q(float f, float resonance) {
  58              		.loc 2 223 15 view .LVU4
  59              	.LBB59:
 224:eurorack/stmlib/dsp/filter.h ****     g_ = OnePole::tan<approximation>(f);
  60              		.loc 2 224 8 is_stmt 0 view .LVU5
  61 0000 044B     		ldr	r3, .L3
  62 0002 0360     		str	r3, [r0]	@ float
 225:eurorack/stmlib/dsp/filter.h ****     r_ = 1.0f / resonance;
  63              		.loc 2 225 8 view .LVU6
  64 0004 044B     		ldr	r3, .L3+4
  65 0006 4360     		str	r3, [r0, #4]	@ float
 226:eurorack/stmlib/dsp/filter.h ****     h_ = 1.0f / (1.0f + r_ * g_ + g_ * g_);
  66              		.loc 2 226 8 view .LVU7
  67 0008 044B     		ldr	r3, .L3+8
  68 000a 8360     		str	r3, [r0, #8]	@ float
  69              	.LVL2:
  70              		.loc 2 226 8 view .LVU8
  71              	.LBE59:
  72              	.LBE58:
 184:eurorack/stmlib/dsp/filter.h ****   }
  73              		.loc 2 184 5 is_stmt 1 view .LVU9
ARM GAS  /var/folders/9s/8rp0_f2s1n31qbztm3b5_fdh0000gn/T//ccrjzSP7.s 			page 7


  74              	.LBB60:
  75              	.LBI60:
 187:eurorack/stmlib/dsp/filter.h ****     state_1_ = state_2_ = 0.0f;
  76              		.loc 2 187 8 view .LVU10
  77              	.LBB61:
 188:eurorack/stmlib/dsp/filter.h ****   }
  78              		.loc 2 188 5 view .LVU11
 188:eurorack/stmlib/dsp/filter.h ****   }
  79              		.loc 2 188 25 is_stmt 0 view .LVU12
  80 000c 0023     		movs	r3, #0
  81 000e 0361     		str	r3, [r0, #16]	@ float
 188:eurorack/stmlib/dsp/filter.h ****   }
  82              		.loc 2 188 14 view .LVU13
  83 0010 C360     		str	r3, [r0, #12]	@ float
  84              	.LVL3:
 188:eurorack/stmlib/dsp/filter.h ****   }
  85              		.loc 2 188 14 view .LVU14
  86              	.LBE61:
  87              	.LBE60:
 185:eurorack/stmlib/dsp/filter.h ****   
  88              		.loc 2 185 3 view .LVU15
  89 0012 7047     		bx	lr
  90              	.L4:
  91              		.align	2
  92              	.L3:
  93 0014 22BA003D 		.word	1023457826
  94 0018 0AD7233C 		.word	1008981770
  95 001c CAAA7F3F 		.word	1065331402
  96              		.cfi_endproc
  97              	.LFE1421:
  99              		.section	.text._ZN6plaits15SnareDrumEngine4InitEPN6stmlib15BufferAllocatorE,"ax",%progbits
 100              		.align	1
 101              		.global	_ZN6plaits15SnareDrumEngine4InitEPN6stmlib15BufferAllocatorE
 102              		.syntax unified
 103              		.thumb
 104              		.thumb_func
 106              	_ZN6plaits15SnareDrumEngine4InitEPN6stmlib15BufferAllocatorE:
 107              	.LVL4:
 108              	.LFB1575:
  38:eurorack/plaits/dsp/engine/snare_drum_engine.cc ****   analog_snare_drum_.Init();
 109              		.loc 1 38 56 is_stmt 1 view -0
 110              		.cfi_startproc
 111              		@ args = 0, pretend = 0, frame = 0
 112              		@ frame_needed = 0, uses_anonymous_args = 0
  39:eurorack/plaits/dsp/engine/snare_drum_engine.cc ****   synthetic_snare_drum_.Init();
 113              		.loc 1 39 3 view .LVU17
 114              	.LBB87:
 115              	.LBI87:
 116              		.file 3 "eurorack/plaits/dsp/drums/analog_snare_drum.h"
   1:eurorack/plaits/dsp/drums/analog_snare_drum.h **** // Copyright 2016 Emilie Gillet.
   2:eurorack/plaits/dsp/drums/analog_snare_drum.h **** //
   3:eurorack/plaits/dsp/drums/analog_snare_drum.h **** // Author: Emilie Gillet (emilie.o.gillet@gmail.com)
   4:eurorack/plaits/dsp/drums/analog_snare_drum.h **** //
   5:eurorack/plaits/dsp/drums/analog_snare_drum.h **** // Permission is hereby granted, free of charge, to any person obtaining a copy
   6:eurorack/plaits/dsp/drums/analog_snare_drum.h **** // of this software and associated documentation files (the "Software"), to deal
   7:eurorack/plaits/dsp/drums/analog_snare_drum.h **** // in the Software without restriction, including without limitation the rights
   8:eurorack/plaits/dsp/drums/analog_snare_drum.h **** // to use, copy, modify, merge, publish, distribute, sublicense, and/or sell
ARM GAS  /var/folders/9s/8rp0_f2s1n31qbztm3b5_fdh0000gn/T//ccrjzSP7.s 			page 8


   9:eurorack/plaits/dsp/drums/analog_snare_drum.h **** // copies of the Software, and to permit persons to whom the Software is
  10:eurorack/plaits/dsp/drums/analog_snare_drum.h **** // furnished to do so, subject to the following conditions:
  11:eurorack/plaits/dsp/drums/analog_snare_drum.h **** // 
  12:eurorack/plaits/dsp/drums/analog_snare_drum.h **** // The above copyright notice and this permission notice shall be included in
  13:eurorack/plaits/dsp/drums/analog_snare_drum.h **** // all copies or substantial portions of the Software.
  14:eurorack/plaits/dsp/drums/analog_snare_drum.h **** // 
  15:eurorack/plaits/dsp/drums/analog_snare_drum.h **** // THE SOFTWARE IS PROVIDED "AS IS", WITHOUT WARRANTY OF ANY KIND, EXPRESS OR
  16:eurorack/plaits/dsp/drums/analog_snare_drum.h **** // IMPLIED, INCLUDING BUT NOT LIMITED TO THE WARRANTIES OF MERCHANTABILITY,
  17:eurorack/plaits/dsp/drums/analog_snare_drum.h **** // FITNESS FOR A PARTICULAR PURPOSE AND NONINFRINGEMENT. IN NO EVENT SHALL THE
  18:eurorack/plaits/dsp/drums/analog_snare_drum.h **** // AUTHORS OR COPYRIGHT HOLDERS BE LIABLE FOR ANY CLAIM, DAMAGES OR OTHER
  19:eurorack/plaits/dsp/drums/analog_snare_drum.h **** // LIABILITY, WHETHER IN AN ACTION OF CONTRACT, TORT OR OTHERWISE, ARISING FROM,
  20:eurorack/plaits/dsp/drums/analog_snare_drum.h **** // OUT OF OR IN CONNECTION WITH THE SOFTWARE OR THE USE OR OTHER DEALINGS IN
  21:eurorack/plaits/dsp/drums/analog_snare_drum.h **** // THE SOFTWARE.
  22:eurorack/plaits/dsp/drums/analog_snare_drum.h **** // 
  23:eurorack/plaits/dsp/drums/analog_snare_drum.h **** // See http://creativecommons.org/licenses/MIT/ for more information.
  24:eurorack/plaits/dsp/drums/analog_snare_drum.h **** //
  25:eurorack/plaits/dsp/drums/analog_snare_drum.h **** // -----------------------------------------------------------------------------
  26:eurorack/plaits/dsp/drums/analog_snare_drum.h **** //
  27:eurorack/plaits/dsp/drums/analog_snare_drum.h **** // 808 snare drum model, revisited.
  28:eurorack/plaits/dsp/drums/analog_snare_drum.h **** 
  29:eurorack/plaits/dsp/drums/analog_snare_drum.h **** #ifndef PLAITS_DSP_DRUMS_ANALOG_SNARE_DRUM_H_
  30:eurorack/plaits/dsp/drums/analog_snare_drum.h **** #define PLAITS_DSP_DRUMS_ANALOG_SNARE_DRUM_H_
  31:eurorack/plaits/dsp/drums/analog_snare_drum.h **** 
  32:eurorack/plaits/dsp/drums/analog_snare_drum.h **** #include <algorithm>
  33:eurorack/plaits/dsp/drums/analog_snare_drum.h **** 
  34:eurorack/plaits/dsp/drums/analog_snare_drum.h **** #include "stmlib/dsp/dsp.h"
  35:eurorack/plaits/dsp/drums/analog_snare_drum.h **** #include "stmlib/dsp/filter.h"
  36:eurorack/plaits/dsp/drums/analog_snare_drum.h **** #include "stmlib/dsp/parameter_interpolator.h"
  37:eurorack/plaits/dsp/drums/analog_snare_drum.h **** #include "stmlib/dsp/units.h"
  38:eurorack/plaits/dsp/drums/analog_snare_drum.h **** #include "stmlib/utils/random.h"
  39:eurorack/plaits/dsp/drums/analog_snare_drum.h **** 
  40:eurorack/plaits/dsp/drums/analog_snare_drum.h **** #include "plaits/dsp/dsp.h"
  41:eurorack/plaits/dsp/drums/analog_snare_drum.h **** #include "plaits/dsp/oscillator/sine_oscillator.h"
  42:eurorack/plaits/dsp/drums/analog_snare_drum.h **** 
  43:eurorack/plaits/dsp/drums/analog_snare_drum.h **** namespace plaits {
  44:eurorack/plaits/dsp/drums/analog_snare_drum.h **** 
  45:eurorack/plaits/dsp/drums/analog_snare_drum.h **** class AnalogSnareDrum {
  46:eurorack/plaits/dsp/drums/analog_snare_drum.h ****  public:
  47:eurorack/plaits/dsp/drums/analog_snare_drum.h ****   AnalogSnareDrum() { }
  48:eurorack/plaits/dsp/drums/analog_snare_drum.h ****   ~AnalogSnareDrum() { }
  49:eurorack/plaits/dsp/drums/analog_snare_drum.h **** 
  50:eurorack/plaits/dsp/drums/analog_snare_drum.h ****   static const int kNumModes = 5;
  51:eurorack/plaits/dsp/drums/analog_snare_drum.h **** 
  52:eurorack/plaits/dsp/drums/analog_snare_drum.h ****   void Init() {
 117              		.loc 3 52 8 view .LVU18
 118              	.LBB88:
  53:eurorack/plaits/dsp/drums/analog_snare_drum.h ****     pulse_remaining_samples_ = 0;
 119              		.loc 3 53 5 view .LVU19
 120              	.LBE88:
 121              	.LBE87:
  38:eurorack/plaits/dsp/engine/snare_drum_engine.cc ****   analog_snare_drum_.Init();
 122              		.loc 1 38 56 is_stmt 0 view .LVU20
 123 0000 2DE9F041 		push	{r4, r5, r6, r7, r8, lr}
 124              		.cfi_def_cfa_offset 24
 125              		.cfi_offset 4, -24
 126              		.cfi_offset 5, -20
 127              		.cfi_offset 6, -16
ARM GAS  /var/folders/9s/8rp0_f2s1n31qbztm3b5_fdh0000gn/T//ccrjzSP7.s 			page 9


 128              		.cfi_offset 7, -12
 129              		.cfi_offset 8, -8
 130              		.cfi_offset 14, -4
 131              	.LBB96:
 132              	.LBB94:
 133              		.loc 3 53 30 view .LVU21
 134 0004 0023     		movs	r3, #0
  54:eurorack/plaits/dsp/drums/analog_snare_drum.h ****     pulse_ = 0.0f;
 135              		.loc 3 54 12 view .LVU22
 136 0006 0025     		movs	r5, #0
 137              	.LBE94:
 138              	.LBE96:
  38:eurorack/plaits/dsp/engine/snare_drum_engine.cc ****   analog_snare_drum_.Init();
 139              		.loc 1 38 56 view .LVU23
 140 0008 0446     		mov	r4, r0
 141 000a 00F12807 		add	r7, r0, #40
 142 000e 0646     		mov	r6, r0
 143 0010 00F13C08 		add	r8, r0, #60
 144              	.LBB97:
 145              	.LBB95:
  53:eurorack/plaits/dsp/drums/analog_snare_drum.h ****     pulse_remaining_samples_ = 0;
 146              		.loc 3 53 30 view .LVU24
 147 0014 0361     		str	r3, [r0, #16]
 148              		.loc 3 54 5 is_stmt 1 view .LVU25
 149              		.loc 3 54 12 is_stmt 0 view .LVU26
 150 0016 4561     		str	r5, [r0, #20]	@ float
  55:eurorack/plaits/dsp/drums/analog_snare_drum.h ****     pulse_height_ = 0.0f;
 151              		.loc 3 55 5 is_stmt 1 view .LVU27
 152              		.loc 3 55 19 is_stmt 0 view .LVU28
 153 0018 8561     		str	r5, [r0, #24]	@ float
  56:eurorack/plaits/dsp/drums/analog_snare_drum.h ****     pulse_lp_ = 0.0f;
 154              		.loc 3 56 5 is_stmt 1 view .LVU29
 155              		.loc 3 56 15 is_stmt 0 view .LVU30
 156 001a C561     		str	r5, [r0, #28]	@ float
  57:eurorack/plaits/dsp/drums/analog_snare_drum.h ****     noise_envelope_ = 0.0f;
 157              		.loc 3 57 5 is_stmt 1 view .LVU31
 158              		.loc 3 57 21 is_stmt 0 view .LVU32
 159 001c 0562     		str	r5, [r0, #32]	@ float
  58:eurorack/plaits/dsp/drums/analog_snare_drum.h ****     sustain_gain_ = 0.0f;
 160              		.loc 3 58 5 is_stmt 1 view .LVU33
 161              		.loc 3 58 19 is_stmt 0 view .LVU34
 162 001e 4562     		str	r5, [r0, #36]	@ float
  59:eurorack/plaits/dsp/drums/analog_snare_drum.h **** 
  60:eurorack/plaits/dsp/drums/analog_snare_drum.h ****     for (int i = 0; i < kNumModes; ++i) {
 163              		.loc 3 60 5 is_stmt 1 view .LVU35
 164              	.LVL5:
 165              	.LBB89:
 166              		.loc 3 60 23 view .LVU36
 167              	.L6:
  61:eurorack/plaits/dsp/drums/analog_snare_drum.h ****       resonator_[i].Init();
 168              		.loc 3 61 7 view .LVU37
 169              		.loc 3 61 25 is_stmt 0 view .LVU38
 170 0020 3846     		mov	r0, r7
  60:eurorack/plaits/dsp/drums/analog_snare_drum.h ****       resonator_[i].Init();
 171              		.loc 3 60 23 view .LVU39
 172 0022 0C36     		adds	r6, r6, #12
 173              		.loc 3 61 25 view .LVU40
ARM GAS  /var/folders/9s/8rp0_f2s1n31qbztm3b5_fdh0000gn/T//ccrjzSP7.s 			page 10


 174 0024 FFF7FEFF 		bl	_ZN6stmlib3Svf4InitEv
 175              	.LVL6:
  62:eurorack/plaits/dsp/drums/analog_snare_drum.h ****       oscillator_[i].Init();
 176              		.loc 3 62 7 is_stmt 1 view .LVU41
 177              	.LBB90:
 178              	.LBI90:
 179              		.file 4 "eurorack/plaits/dsp/oscillator/sine_oscillator.h"
   1:eurorack/plaits/dsp/oscillator/sine_oscillator.h **** // Copyright 2016 Emilie Gillet.
   2:eurorack/plaits/dsp/oscillator/sine_oscillator.h **** //
   3:eurorack/plaits/dsp/oscillator/sine_oscillator.h **** // Author: Emilie Gillet (emilie.o.gillet@gmail.com)
   4:eurorack/plaits/dsp/oscillator/sine_oscillator.h **** //
   5:eurorack/plaits/dsp/oscillator/sine_oscillator.h **** // Permission is hereby granted, free of charge, to any person obtaining a copy
   6:eurorack/plaits/dsp/oscillator/sine_oscillator.h **** // of this software and associated documentation files (the "Software"), to deal
   7:eurorack/plaits/dsp/oscillator/sine_oscillator.h **** // in the Software without restriction, including without limitation the rights
   8:eurorack/plaits/dsp/oscillator/sine_oscillator.h **** // to use, copy, modify, merge, publish, distribute, sublicense, and/or sell
   9:eurorack/plaits/dsp/oscillator/sine_oscillator.h **** // copies of the Software, and to permit persons to whom the Software is
  10:eurorack/plaits/dsp/oscillator/sine_oscillator.h **** // furnished to do so, subject to the following conditions:
  11:eurorack/plaits/dsp/oscillator/sine_oscillator.h **** // 
  12:eurorack/plaits/dsp/oscillator/sine_oscillator.h **** // The above copyright notice and this permission notice shall be included in
  13:eurorack/plaits/dsp/oscillator/sine_oscillator.h **** // all copies or substantial portions of the Software.
  14:eurorack/plaits/dsp/oscillator/sine_oscillator.h **** // 
  15:eurorack/plaits/dsp/oscillator/sine_oscillator.h **** // THE SOFTWARE IS PROVIDED "AS IS", WITHOUT WARRANTY OF ANY KIND, EXPRESS OR
  16:eurorack/plaits/dsp/oscillator/sine_oscillator.h **** // IMPLIED, INCLUDING BUT NOT LIMITED TO THE WARRANTIES OF MERCHANTABILITY,
  17:eurorack/plaits/dsp/oscillator/sine_oscillator.h **** // FITNESS FOR A PARTICULAR PURPOSE AND NONINFRINGEMENT. IN NO EVENT SHALL THE
  18:eurorack/plaits/dsp/oscillator/sine_oscillator.h **** // AUTHORS OR COPYRIGHT HOLDERS BE LIABLE FOR ANY CLAIM, DAMAGES OR OTHER
  19:eurorack/plaits/dsp/oscillator/sine_oscillator.h **** // LIABILITY, WHETHER IN AN ACTION OF CONTRACT, TORT OR OTHERWISE, ARISING FROM,
  20:eurorack/plaits/dsp/oscillator/sine_oscillator.h **** // OUT OF OR IN CONNECTION WITH THE SOFTWARE OR THE USE OR OTHER DEALINGS IN
  21:eurorack/plaits/dsp/oscillator/sine_oscillator.h **** // THE SOFTWARE.
  22:eurorack/plaits/dsp/oscillator/sine_oscillator.h **** // 
  23:eurorack/plaits/dsp/oscillator/sine_oscillator.h **** // See http://creativecommons.org/licenses/MIT/ for more information.
  24:eurorack/plaits/dsp/oscillator/sine_oscillator.h **** //
  25:eurorack/plaits/dsp/oscillator/sine_oscillator.h **** // -----------------------------------------------------------------------------
  26:eurorack/plaits/dsp/oscillator/sine_oscillator.h **** //
  27:eurorack/plaits/dsp/oscillator/sine_oscillator.h **** // Simple sine oscillator (wavetable) + fast sine oscillator (magic circle).
  28:eurorack/plaits/dsp/oscillator/sine_oscillator.h **** //
  29:eurorack/plaits/dsp/oscillator/sine_oscillator.h **** // The fast implementation might glitch a bit under heavy modulations of the
  30:eurorack/plaits/dsp/oscillator/sine_oscillator.h **** // frequency.
  31:eurorack/plaits/dsp/oscillator/sine_oscillator.h **** 
  32:eurorack/plaits/dsp/oscillator/sine_oscillator.h **** #ifndef PLAITS_DSP_OSCILLATOR_SINE_OSCILLATOR_H_
  33:eurorack/plaits/dsp/oscillator/sine_oscillator.h **** #define PLAITS_DSP_OSCILLATOR_SINE_OSCILLATOR_H_
  34:eurorack/plaits/dsp/oscillator/sine_oscillator.h **** 
  35:eurorack/plaits/dsp/oscillator/sine_oscillator.h **** #include "stmlib/dsp/dsp.h"
  36:eurorack/plaits/dsp/oscillator/sine_oscillator.h **** #include "stmlib/dsp/parameter_interpolator.h"
  37:eurorack/plaits/dsp/oscillator/sine_oscillator.h **** #include "stmlib/dsp/rsqrt.h"
  38:eurorack/plaits/dsp/oscillator/sine_oscillator.h **** 
  39:eurorack/plaits/dsp/oscillator/sine_oscillator.h **** #include "plaits/resources.h"
  40:eurorack/plaits/dsp/oscillator/sine_oscillator.h **** 
  41:eurorack/plaits/dsp/oscillator/sine_oscillator.h **** namespace plaits {
  42:eurorack/plaits/dsp/oscillator/sine_oscillator.h **** 
  43:eurorack/plaits/dsp/oscillator/sine_oscillator.h **** class SineOscillator {
  44:eurorack/plaits/dsp/oscillator/sine_oscillator.h ****  public:
  45:eurorack/plaits/dsp/oscillator/sine_oscillator.h ****   SineOscillator() { }
  46:eurorack/plaits/dsp/oscillator/sine_oscillator.h ****   ~SineOscillator() { }
  47:eurorack/plaits/dsp/oscillator/sine_oscillator.h **** 
  48:eurorack/plaits/dsp/oscillator/sine_oscillator.h ****   void Init() {
 180              		.loc 4 48 8 view .LVU42
 181              	.LBB91:
ARM GAS  /var/folders/9s/8rp0_f2s1n31qbztm3b5_fdh0000gn/T//ccrjzSP7.s 			page 11


  49:eurorack/plaits/dsp/oscillator/sine_oscillator.h ****     phase_ = 0.0f;
 182              		.loc 4 49 5 view .LVU43
 183              		.loc 4 49 12 is_stmt 0 view .LVU44
 184 0028 C6F89450 		str	r5, [r6, #148]	@ float
  50:eurorack/plaits/dsp/oscillator/sine_oscillator.h ****     frequency_ = 0.0f;
 185              		.loc 4 50 5 is_stmt 1 view .LVU45
 186              		.loc 4 50 16 is_stmt 0 view .LVU46
 187 002c C6F89850 		str	r5, [r6, #152]	@ float
  51:eurorack/plaits/dsp/oscillator/sine_oscillator.h ****     amplitude_ = 0.0f;
 188              		.loc 4 51 5 is_stmt 1 view .LVU47
 189              	.LBE91:
 190              	.LBE90:
  60:eurorack/plaits/dsp/drums/analog_snare_drum.h ****       resonator_[i].Init();
 191              		.loc 3 60 23 is_stmt 0 view .LVU48
 192 0030 1437     		adds	r7, r7, #20
 193              	.LBB93:
 194              	.LBB92:
 195              		.loc 4 51 16 view .LVU49
 196 0032 C6F89C50 		str	r5, [r6, #156]	@ float
 197              		.loc 4 51 16 view .LVU50
 198              	.LBE92:
 199              	.LBE93:
  60:eurorack/plaits/dsp/drums/analog_snare_drum.h ****       resonator_[i].Init();
 200              		.loc 3 60 5 is_stmt 1 view .LVU51
  60:eurorack/plaits/dsp/drums/analog_snare_drum.h ****       resonator_[i].Init();
 201              		.loc 3 60 23 view .LVU52
 202 0036 4645     		cmp	r6, r8
 203 0038 F2D1     		bne	.L6
 204              	.LBE89:
  63:eurorack/plaits/dsp/drums/analog_snare_drum.h ****     }
  64:eurorack/plaits/dsp/drums/analog_snare_drum.h ****     noise_filter_.Init();
 205              		.loc 3 64 5 view .LVU53
 206              		.loc 3 64 23 is_stmt 0 view .LVU54
 207 003a 04F18C00 		add	r0, r4, #140
 208 003e FFF7FEFF 		bl	_ZN6stmlib3Svf4InitEv
 209              	.LVL7:
 210              		.loc 3 64 23 view .LVU55
 211              	.LBE95:
 212              	.LBE97:
  40:eurorack/plaits/dsp/engine/snare_drum_engine.cc **** }
 213              		.loc 1 40 3 is_stmt 1 view .LVU56
 214              	.LBB98:
 215              	.LBI98:
 216              		.file 5 "eurorack/plaits/dsp/drums/synthetic_snare_drum.h"
   1:eurorack/plaits/dsp/drums/synthetic_snare_drum.h **** // Copyright 2016 Emilie Gillet.
   2:eurorack/plaits/dsp/drums/synthetic_snare_drum.h **** //
   3:eurorack/plaits/dsp/drums/synthetic_snare_drum.h **** // Author: Emilie Gillet (emilie.o.gillet@gmail.com)
   4:eurorack/plaits/dsp/drums/synthetic_snare_drum.h **** //
   5:eurorack/plaits/dsp/drums/synthetic_snare_drum.h **** // Permission is hereby granted, free of charge, to any person obtaining a copy
   6:eurorack/plaits/dsp/drums/synthetic_snare_drum.h **** // of this software and associated documentation files (the "Software"), to deal
   7:eurorack/plaits/dsp/drums/synthetic_snare_drum.h **** // in the Software without restriction, including without limitation the rights
   8:eurorack/plaits/dsp/drums/synthetic_snare_drum.h **** // to use, copy, modify, merge, publish, distribute, sublicense, and/or sell
   9:eurorack/plaits/dsp/drums/synthetic_snare_drum.h **** // copies of the Software, and to permit persons to whom the Software is
  10:eurorack/plaits/dsp/drums/synthetic_snare_drum.h **** // furnished to do so, subject to the following conditions:
  11:eurorack/plaits/dsp/drums/synthetic_snare_drum.h **** // 
  12:eurorack/plaits/dsp/drums/synthetic_snare_drum.h **** // The above copyright notice and this permission notice shall be included in
  13:eurorack/plaits/dsp/drums/synthetic_snare_drum.h **** // all copies or substantial portions of the Software.
ARM GAS  /var/folders/9s/8rp0_f2s1n31qbztm3b5_fdh0000gn/T//ccrjzSP7.s 			page 12


  14:eurorack/plaits/dsp/drums/synthetic_snare_drum.h **** // 
  15:eurorack/plaits/dsp/drums/synthetic_snare_drum.h **** // THE SOFTWARE IS PROVIDED "AS IS", WITHOUT WARRANTY OF ANY KIND, EXPRESS OR
  16:eurorack/plaits/dsp/drums/synthetic_snare_drum.h **** // IMPLIED, INCLUDING BUT NOT LIMITED TO THE WARRANTIES OF MERCHANTABILITY,
  17:eurorack/plaits/dsp/drums/synthetic_snare_drum.h **** // FITNESS FOR A PARTICULAR PURPOSE AND NONINFRINGEMENT. IN NO EVENT SHALL THE
  18:eurorack/plaits/dsp/drums/synthetic_snare_drum.h **** // AUTHORS OR COPYRIGHT HOLDERS BE LIABLE FOR ANY CLAIM, DAMAGES OR OTHER
  19:eurorack/plaits/dsp/drums/synthetic_snare_drum.h **** // LIABILITY, WHETHER IN AN ACTION OF CONTRACT, TORT OR OTHERWISE, ARISING FROM,
  20:eurorack/plaits/dsp/drums/synthetic_snare_drum.h **** // OUT OF OR IN CONNECTION WITH THE SOFTWARE OR THE USE OR OTHER DEALINGS IN
  21:eurorack/plaits/dsp/drums/synthetic_snare_drum.h **** // THE SOFTWARE.
  22:eurorack/plaits/dsp/drums/synthetic_snare_drum.h **** // 
  23:eurorack/plaits/dsp/drums/synthetic_snare_drum.h **** // See http://creativecommons.org/licenses/MIT/ for more information.
  24:eurorack/plaits/dsp/drums/synthetic_snare_drum.h **** //
  25:eurorack/plaits/dsp/drums/synthetic_snare_drum.h **** // -----------------------------------------------------------------------------
  26:eurorack/plaits/dsp/drums/synthetic_snare_drum.h **** //
  27:eurorack/plaits/dsp/drums/synthetic_snare_drum.h **** // Naive snare drum model (two modulated oscillators + filtered noise).
  28:eurorack/plaits/dsp/drums/synthetic_snare_drum.h **** // Uses a few magic numbers taken from the 909 schematics:
  29:eurorack/plaits/dsp/drums/synthetic_snare_drum.h **** // - Ratio between the two modes of the drum set to 1.47.
  30:eurorack/plaits/dsp/drums/synthetic_snare_drum.h **** // - Funky coupling between the two modes.
  31:eurorack/plaits/dsp/drums/synthetic_snare_drum.h **** // - Noise coloration filters and envelope shapes for the snare.
  32:eurorack/plaits/dsp/drums/synthetic_snare_drum.h **** 
  33:eurorack/plaits/dsp/drums/synthetic_snare_drum.h **** #ifndef PLAITS_DSP_DRUMS_SYNTHETIC_SNARE_DRUM_H_
  34:eurorack/plaits/dsp/drums/synthetic_snare_drum.h **** #define PLAITS_DSP_DRUMS_SYNTHETIC_SNARE_DRUM_H_
  35:eurorack/plaits/dsp/drums/synthetic_snare_drum.h **** 
  36:eurorack/plaits/dsp/drums/synthetic_snare_drum.h **** #include <algorithm>
  37:eurorack/plaits/dsp/drums/synthetic_snare_drum.h **** 
  38:eurorack/plaits/dsp/drums/synthetic_snare_drum.h **** #include "stmlib/dsp/dsp.h"
  39:eurorack/plaits/dsp/drums/synthetic_snare_drum.h **** #include "stmlib/dsp/parameter_interpolator.h"
  40:eurorack/plaits/dsp/drums/synthetic_snare_drum.h **** #include "stmlib/dsp/units.h"
  41:eurorack/plaits/dsp/drums/synthetic_snare_drum.h **** 
  42:eurorack/plaits/dsp/drums/synthetic_snare_drum.h **** #include "plaits/dsp/dsp.h"
  43:eurorack/plaits/dsp/drums/synthetic_snare_drum.h **** 
  44:eurorack/plaits/dsp/drums/synthetic_snare_drum.h **** namespace plaits {
  45:eurorack/plaits/dsp/drums/synthetic_snare_drum.h **** 
  46:eurorack/plaits/dsp/drums/synthetic_snare_drum.h **** class SyntheticSnareDrum {
  47:eurorack/plaits/dsp/drums/synthetic_snare_drum.h ****  public:
  48:eurorack/plaits/dsp/drums/synthetic_snare_drum.h ****   SyntheticSnareDrum() { }
  49:eurorack/plaits/dsp/drums/synthetic_snare_drum.h ****   ~SyntheticSnareDrum() { }
  50:eurorack/plaits/dsp/drums/synthetic_snare_drum.h **** 
  51:eurorack/plaits/dsp/drums/synthetic_snare_drum.h ****   void Init() {
 217              		.loc 5 51 8 view .LVU57
 218              	.LBB99:
  52:eurorack/plaits/dsp/drums/synthetic_snare_drum.h ****     phase_[0] = 0.0f;
 219              		.loc 5 52 5 view .LVU58
  53:eurorack/plaits/dsp/drums/synthetic_snare_drum.h ****     phase_[1] = 0.0f;
  54:eurorack/plaits/dsp/drums/synthetic_snare_drum.h ****     drum_amplitude_ = 0.0f;
  55:eurorack/plaits/dsp/drums/synthetic_snare_drum.h ****     snare_amplitude_ = 0.0f;
  56:eurorack/plaits/dsp/drums/synthetic_snare_drum.h ****     fm_ = 0.0f;
  57:eurorack/plaits/dsp/drums/synthetic_snare_drum.h ****     hold_counter_ = 0;
 220              		.loc 5 57 19 is_stmt 0 view .LVU59
 221 0042 0023     		movs	r3, #0
 222              	.LBB100:
 223              	.LBB101:
 224              	.LBB102:
 140:eurorack/stmlib/dsp/filter.h ****     gi_ = 1.0f / (1.0f + g_);
 225              		.loc 2 140 8 view .LVU60
 226 0044 104A     		ldr	r2, .L8
 227              	.LBE102:
 228              	.LBE101:
ARM GAS  /var/folders/9s/8rp0_f2s1n31qbztm3b5_fdh0000gn/T//ccrjzSP7.s 			page 13


 229              	.LBE100:
  58:eurorack/plaits/dsp/drums/synthetic_snare_drum.h ****     sustain_gain_ = 0.0f;
  59:eurorack/plaits/dsp/drums/synthetic_snare_drum.h **** 
  60:eurorack/plaits/dsp/drums/synthetic_snare_drum.h ****     drum_lp_.Init();
  61:eurorack/plaits/dsp/drums/synthetic_snare_drum.h ****     snare_hp_.Init();
  62:eurorack/plaits/dsp/drums/synthetic_snare_drum.h ****     snare_lp_.Init();
 230              		.loc 5 62 19 view .LVU61
 231 0046 04F58870 		add	r0, r4, #272
  57:eurorack/plaits/dsp/drums/synthetic_snare_drum.h ****     sustain_gain_ = 0.0f;
 232              		.loc 5 57 19 view .LVU62
 233 004a C4F8F430 		str	r3, [r4, #244]
 234              	.LBB109:
 235              	.LBB105:
 236              	.LBB103:
 141:eurorack/stmlib/dsp/filter.h ****   }
 237              		.loc 2 141 9 view .LVU63
 238 004e 0F4B     		ldr	r3, .L8+4
 239              	.LBE103:
 240              	.LBE105:
 241              	.LBE109:
  52:eurorack/plaits/dsp/drums/synthetic_snare_drum.h ****     phase_[1] = 0.0f;
 242              		.loc 5 52 15 view .LVU64
 243 0050 C4F8DC50 		str	r5, [r4, #220]	@ float
  53:eurorack/plaits/dsp/drums/synthetic_snare_drum.h ****     drum_amplitude_ = 0.0f;
 244              		.loc 5 53 5 is_stmt 1 view .LVU65
  53:eurorack/plaits/dsp/drums/synthetic_snare_drum.h ****     drum_amplitude_ = 0.0f;
 245              		.loc 5 53 15 is_stmt 0 view .LVU66
 246 0054 C4F8E050 		str	r5, [r4, #224]	@ float
  54:eurorack/plaits/dsp/drums/synthetic_snare_drum.h ****     snare_amplitude_ = 0.0f;
 247              		.loc 5 54 5 is_stmt 1 view .LVU67
  54:eurorack/plaits/dsp/drums/synthetic_snare_drum.h ****     snare_amplitude_ = 0.0f;
 248              		.loc 5 54 21 is_stmt 0 view .LVU68
 249 0058 C4F8E450 		str	r5, [r4, #228]	@ float
  55:eurorack/plaits/dsp/drums/synthetic_snare_drum.h ****     fm_ = 0.0f;
 250              		.loc 5 55 5 is_stmt 1 view .LVU69
  55:eurorack/plaits/dsp/drums/synthetic_snare_drum.h ****     fm_ = 0.0f;
 251              		.loc 5 55 22 is_stmt 0 view .LVU70
 252 005c C4F8E850 		str	r5, [r4, #232]	@ float
  56:eurorack/plaits/dsp/drums/synthetic_snare_drum.h ****     hold_counter_ = 0;
 253              		.loc 5 56 5 is_stmt 1 view .LVU71
  56:eurorack/plaits/dsp/drums/synthetic_snare_drum.h ****     hold_counter_ = 0;
 254              		.loc 5 56 9 is_stmt 0 view .LVU72
 255 0060 C4F8EC50 		str	r5, [r4, #236]	@ float
  57:eurorack/plaits/dsp/drums/synthetic_snare_drum.h ****     sustain_gain_ = 0.0f;
 256              		.loc 5 57 5 is_stmt 1 view .LVU73
  58:eurorack/plaits/dsp/drums/synthetic_snare_drum.h **** 
 257              		.loc 5 58 5 view .LVU74
  58:eurorack/plaits/dsp/drums/synthetic_snare_drum.h **** 
 258              		.loc 5 58 19 is_stmt 0 view .LVU75
 259 0064 C4F8F050 		str	r5, [r4, #240]	@ float
  60:eurorack/plaits/dsp/drums/synthetic_snare_drum.h ****     snare_hp_.Init();
 260              		.loc 5 60 5 is_stmt 1 view .LVU76
 261              	.LVL8:
 262              	.LBB110:
 263              	.LBI100:
  97:eurorack/stmlib/dsp/filter.h ****     set_f<FREQUENCY_DIRTY>(0.01f);
 264              		.loc 2 97 8 view .LVU77
ARM GAS  /var/folders/9s/8rp0_f2s1n31qbztm3b5_fdh0000gn/T//ccrjzSP7.s 			page 14


 265              	.LBE110:
 266              	.LBE99:
 267              	.LBE98:
  98:eurorack/stmlib/dsp/filter.h ****     Reset();
 268              		.loc 2 98 5 view .LVU78
 269              	.LBB124:
 270              	.LBB120:
 271              	.LBB111:
 272              	.LBB106:
 273              	.LBI101:
 139:eurorack/stmlib/dsp/filter.h ****     g_ = tan<approximation>(f);
 274              		.loc 2 139 15 view .LVU79
 275              	.LBB104:
 140:eurorack/stmlib/dsp/filter.h ****     gi_ = 1.0f / (1.0f + g_);
 276              		.loc 2 140 8 is_stmt 0 view .LVU80
 277 0068 C4F8F820 		str	r2, [r4, #248]	@ float
 141:eurorack/stmlib/dsp/filter.h ****   }
 278              		.loc 2 141 9 view .LVU81
 279 006c C4F8FC30 		str	r3, [r4, #252]	@ float
 280              	.LVL9:
 141:eurorack/stmlib/dsp/filter.h ****   }
 281              		.loc 2 141 9 view .LVU82
 282              	.LBE104:
 283              	.LBE106:
 284              	.LBE111:
 285              	.LBE120:
 286              	.LBE124:
  99:eurorack/stmlib/dsp/filter.h ****   }
 287              		.loc 2 99 5 is_stmt 1 view .LVU83
 288              	.LBB125:
 289              	.LBB121:
 290              	.LBB112:
 291              	.LBB107:
 292              	.LBI107:
 102:eurorack/stmlib/dsp/filter.h ****     state_ = 0.0f;
 293              		.loc 2 102 8 view .LVU84
 294              	.LBB108:
 103:eurorack/stmlib/dsp/filter.h ****   }
 295              		.loc 2 103 5 view .LVU85
 103:eurorack/stmlib/dsp/filter.h ****   }
 296              		.loc 2 103 12 is_stmt 0 view .LVU86
 297 0070 C4F80051 		str	r5, [r4, #256]	@ float
 298              	.LVL10:
 103:eurorack/stmlib/dsp/filter.h ****   }
 299              		.loc 2 103 12 view .LVU87
 300              	.LBE108:
 301              	.LBE107:
 302              	.LBE112:
  61:eurorack/plaits/dsp/drums/synthetic_snare_drum.h ****     snare_lp_.Init();
 303              		.loc 5 61 5 is_stmt 1 view .LVU88
 304              	.LBB113:
 305              	.LBI113:
  97:eurorack/stmlib/dsp/filter.h ****     set_f<FREQUENCY_DIRTY>(0.01f);
 306              		.loc 2 97 8 view .LVU89
 307              	.LBE113:
 308              	.LBE121:
 309              	.LBE125:
ARM GAS  /var/folders/9s/8rp0_f2s1n31qbztm3b5_fdh0000gn/T//ccrjzSP7.s 			page 15


  98:eurorack/stmlib/dsp/filter.h ****     Reset();
 310              		.loc 2 98 5 view .LVU90
 311              	.LBB126:
 312              	.LBB122:
 313              	.LBB118:
 314              	.LBB114:
 315              	.LBI114:
 139:eurorack/stmlib/dsp/filter.h ****     g_ = tan<approximation>(f);
 316              		.loc 2 139 15 view .LVU91
 317              	.LBB115:
 140:eurorack/stmlib/dsp/filter.h ****     gi_ = 1.0f / (1.0f + g_);
 318              		.loc 2 140 8 is_stmt 0 view .LVU92
 319 0074 C4F80421 		str	r2, [r4, #260]	@ float
 141:eurorack/stmlib/dsp/filter.h ****   }
 320              		.loc 2 141 9 view .LVU93
 321 0078 C4F80831 		str	r3, [r4, #264]	@ float
 322              	.LVL11:
 141:eurorack/stmlib/dsp/filter.h ****   }
 323              		.loc 2 141 9 view .LVU94
 324              	.LBE115:
 325              	.LBE114:
 326              	.LBE118:
 327              	.LBE122:
 328              	.LBE126:
  99:eurorack/stmlib/dsp/filter.h ****   }
 329              		.loc 2 99 5 is_stmt 1 view .LVU95
 330              	.LBB127:
 331              	.LBB123:
 332              	.LBB119:
 333              	.LBB116:
 334              	.LBI116:
 102:eurorack/stmlib/dsp/filter.h ****     state_ = 0.0f;
 335              		.loc 2 102 8 view .LVU96
 336              	.LBB117:
 103:eurorack/stmlib/dsp/filter.h ****   }
 337              		.loc 2 103 5 view .LVU97
 103:eurorack/stmlib/dsp/filter.h ****   }
 338              		.loc 2 103 12 is_stmt 0 view .LVU98
 339 007c C4F80C51 		str	r5, [r4, #268]	@ float
 340              	.LVL12:
 103:eurorack/stmlib/dsp/filter.h ****   }
 341              		.loc 2 103 12 view .LVU99
 342              	.LBE117:
 343              	.LBE116:
 344              	.LBE119:
 345              		.loc 5 62 5 is_stmt 1 view .LVU100
 346              		.loc 5 62 19 is_stmt 0 view .LVU101
 347 0080 FFF7FEFF 		bl	_ZN6stmlib3Svf4InitEv
 348              	.LVL13:
 349              		.loc 5 62 19 view .LVU102
 350              	.LBE123:
 351              	.LBE127:
  41:eurorack/plaits/dsp/engine/snare_drum_engine.cc **** 
 352              		.loc 1 41 1 view .LVU103
 353 0084 BDE8F081 		pop	{r4, r5, r6, r7, r8, pc}
 354              	.LVL14:
 355              	.L9:
ARM GAS  /var/folders/9s/8rp0_f2s1n31qbztm3b5_fdh0000gn/T//ccrjzSP7.s 			page 16


  41:eurorack/plaits/dsp/engine/snare_drum_engine.cc **** 
 356              		.loc 1 41 1 view .LVU104
 357              		.align	2
 358              	.L8:
 359 0088 22BA003D 		.word	1023457826
 360 008c 2033783F 		.word	1064842016
 361              		.cfi_endproc
 362              	.LFE1575:
 364              		.section	.text._ZN6stmlib16SemitonesToRatioEf,"axG",%progbits,_ZN6stmlib16SemitonesToRatioEf,comda
 365              		.align	1
 366              		.weak	_ZN6stmlib16SemitonesToRatioEf
 367              		.syntax unified
 368              		.thumb
 369              		.thumb_func
 371              	_ZN6stmlib16SemitonesToRatioEf:
 372              	.LVL15:
 373              	.LFB1491:
 374              		.file 6 "eurorack/stmlib/dsp/units.h"
   1:eurorack/stmlib/dsp/units.h **** // Copyright 2014 Emilie Gillet.
   2:eurorack/stmlib/dsp/units.h **** //
   3:eurorack/stmlib/dsp/units.h **** // Author: Emilie Gillet (emilie.o.gillet@gmail.com)
   4:eurorack/stmlib/dsp/units.h **** //
   5:eurorack/stmlib/dsp/units.h **** // Permission is hereby granted, free of charge, to any person obtaining a copy
   6:eurorack/stmlib/dsp/units.h **** // of this software and associated documentation files (the "Software"), to deal
   7:eurorack/stmlib/dsp/units.h **** // in the Software without restriction, including without limitation the rights
   8:eurorack/stmlib/dsp/units.h **** // to use, copy, modify, merge, publish, distribute, sublicense, and/or sell
   9:eurorack/stmlib/dsp/units.h **** // copies of the Software, and to permit persons to whom the Software is
  10:eurorack/stmlib/dsp/units.h **** // furnished to do so, subject to the following conditions:
  11:eurorack/stmlib/dsp/units.h **** // 
  12:eurorack/stmlib/dsp/units.h **** // The above copyright notice and this permission notice shall be included in
  13:eurorack/stmlib/dsp/units.h **** // all copies or substantial portions of the Software.
  14:eurorack/stmlib/dsp/units.h **** // 
  15:eurorack/stmlib/dsp/units.h **** // THE SOFTWARE IS PROVIDED "AS IS", WITHOUT WARRANTY OF ANY KIND, EXPRESS OR
  16:eurorack/stmlib/dsp/units.h **** // IMPLIED, INCLUDING BUT NOT LIMITED TO THE WARRANTIES OF MERCHANTABILITY,
  17:eurorack/stmlib/dsp/units.h **** // FITNESS FOR A PARTICULAR PURPOSE AND NONINFRINGEMENT. IN NO EVENT SHALL THE
  18:eurorack/stmlib/dsp/units.h **** // AUTHORS OR COPYRIGHT HOLDERS BE LIABLE FOR ANY CLAIM, DAMAGES OR OTHER
  19:eurorack/stmlib/dsp/units.h **** // LIABILITY, WHETHER IN AN ACTION OF CONTRACT, TORT OR OTHERWISE, ARISING FROM,
  20:eurorack/stmlib/dsp/units.h **** // OUT OF OR IN CONNECTION WITH THE SOFTWARE OR THE USE OR OTHER DEALINGS IN
  21:eurorack/stmlib/dsp/units.h **** // THE SOFTWARE.
  22:eurorack/stmlib/dsp/units.h **** // 
  23:eurorack/stmlib/dsp/units.h **** // See http://creativecommons.org/licenses/MIT/ for more information.
  24:eurorack/stmlib/dsp/units.h **** //
  25:eurorack/stmlib/dsp/units.h **** // -----------------------------------------------------------------------------
  26:eurorack/stmlib/dsp/units.h **** //
  27:eurorack/stmlib/dsp/units.h **** // Conversion from semitones to frequency ratio.
  28:eurorack/stmlib/dsp/units.h **** 
  29:eurorack/stmlib/dsp/units.h **** #ifndef STMLIB_DSP_UNITS_H_
  30:eurorack/stmlib/dsp/units.h **** #define STMLIB_DSP_UNITS_H_
  31:eurorack/stmlib/dsp/units.h **** 
  32:eurorack/stmlib/dsp/units.h **** #include "stmlib/stmlib.h"
  33:eurorack/stmlib/dsp/units.h **** #include "stmlib/dsp/dsp.h"
  34:eurorack/stmlib/dsp/units.h **** 
  35:eurorack/stmlib/dsp/units.h **** namespace stmlib {
  36:eurorack/stmlib/dsp/units.h **** 
  37:eurorack/stmlib/dsp/units.h **** extern const float lut_pitch_ratio_high[257];
  38:eurorack/stmlib/dsp/units.h **** extern const float lut_pitch_ratio_low[257];
  39:eurorack/stmlib/dsp/units.h **** 
ARM GAS  /var/folders/9s/8rp0_f2s1n31qbztm3b5_fdh0000gn/T//ccrjzSP7.s 			page 17


  40:eurorack/stmlib/dsp/units.h **** inline float SemitonesToRatio(float semitones) {
 375              		.loc 6 40 48 is_stmt 1 view -0
 376              		.cfi_startproc
 377              		@ args = 0, pretend = 0, frame = 0
 378              		@ frame_needed = 0, uses_anonymous_args = 0
 379              		@ link register save eliminated.
  41:eurorack/stmlib/dsp/units.h ****   float pitch = semitones + 128.0f;
 380              		.loc 6 41 3 view .LVU106
 381              		.loc 6 41 9 is_stmt 0 view .LVU107
 382 0000 DFED0E7A 		vldr.32	s15, .L11
  42:eurorack/stmlib/dsp/units.h ****   MAKE_INTEGRAL_FRACTIONAL(pitch)
  43:eurorack/stmlib/dsp/units.h **** 
  44:eurorack/stmlib/dsp/units.h ****   return lut_pitch_ratio_high[pitch_integral] * \
  45:eurorack/stmlib/dsp/units.h ****       lut_pitch_ratio_low[static_cast<int32_t>(pitch_fractional * 256.0f)];
 383              		.loc 6 45 74 view .LVU108
 384 0004 0E4A     		ldr	r2, .L11+4
  41:eurorack/stmlib/dsp/units.h ****   float pitch = semitones + 128.0f;
 385              		.loc 6 41 9 view .LVU109
 386 0006 30EE270A 		vadd.f32	s0, s0, s15
 387              	.LVL16:
  42:eurorack/stmlib/dsp/units.h ****   MAKE_INTEGRAL_FRACTIONAL(pitch)
 388              		.loc 6 42 3 is_stmt 1 view .LVU110
 389 000a FDEEC07A 		vcvt.s32.f32	s15, s0
 390              	.LVL17:
  42:eurorack/stmlib/dsp/units.h ****   MAKE_INTEGRAL_FRACTIONAL(pitch)
 391              		.loc 6 42 3 view .LVU111
  44:eurorack/stmlib/dsp/units.h ****       lut_pitch_ratio_low[static_cast<int32_t>(pitch_fractional * 256.0f)];
 392              		.loc 6 44 3 view .LVU112
  42:eurorack/stmlib/dsp/units.h ****   MAKE_INTEGRAL_FRACTIONAL(pitch)
 393              		.loc 6 42 3 is_stmt 0 view .LVU113
 394 000e B8EEE77A 		vcvt.f32.s32	s14, s15
  44:eurorack/stmlib/dsp/units.h ****       lut_pitch_ratio_low[static_cast<int32_t>(pitch_fractional * 256.0f)];
 395              		.loc 6 44 45 view .LVU114
 396 0012 17EE901A 		vmov	r1, s15	@ int
  42:eurorack/stmlib/dsp/units.h ****   MAKE_INTEGRAL_FRACTIONAL(pitch)
 397              		.loc 6 42 3 view .LVU115
 398 0016 30EE470A 		vsub.f32	s0, s0, s14
 399              	.LVL18:
 400              		.loc 6 45 27 view .LVU116
 401 001a BEEECC0A 		vcvt.s32.f32	s0, s0, #8
 402              	.LVL19:
 403              		.loc 6 45 74 view .LVU117
 404 001e 10EE103A 		vmov	r3, s0	@ int
 405 0022 02EB8302 		add	r2, r2, r3, lsl #2
  44:eurorack/stmlib/dsp/units.h ****       lut_pitch_ratio_low[static_cast<int32_t>(pitch_fractional * 256.0f)];
 406              		.loc 6 44 45 view .LVU118
 407 0026 074B     		ldr	r3, .L11+8
 408 0028 03EB8103 		add	r3, r3, r1, lsl #2
 409              		.loc 6 45 74 view .LVU119
 410 002c 92ED000A 		vldr.32	s0, [r2]
 411 0030 D3ED007A 		vldr.32	s15, [r3]
 412              	.LVL20:
  46:eurorack/stmlib/dsp/units.h **** }
 413              		.loc 6 46 1 view .LVU120
 414 0034 20EE270A 		vmul.f32	s0, s0, s15
 415 0038 7047     		bx	lr
 416              	.L12:
ARM GAS  /var/folders/9s/8rp0_f2s1n31qbztm3b5_fdh0000gn/T//ccrjzSP7.s 			page 18


 417 003a 00BF     		.align	2
 418              	.L11:
 419 003c 00000043 		.word	1124073472
 420 0040 00000000 		.word	_ZN6stmlib19lut_pitch_ratio_lowE
 421 0044 00000000 		.word	_ZN6stmlib20lut_pitch_ratio_highE
 422              		.cfi_endproc
 423              	.LFE1491:
 425              		.section	.text._ZN6stmlib6Random8GetFloatEv,"axG",%progbits,_ZN6stmlib6Random8GetFloatEv,comdat
 426              		.align	1
 427              		.weak	_ZN6stmlib6Random8GetFloatEv
 428              		.syntax unified
 429              		.thumb
 430              		.thumb_func
 432              	_ZN6stmlib6Random8GetFloatEv:
 433              	.LFB1498:
 434              		.file 7 "eurorack/stmlib/utils/random.h"
   1:eurorack/stmlib/utils/random.h **** // Copyright 2012 Emilie Gillet.
   2:eurorack/stmlib/utils/random.h **** //
   3:eurorack/stmlib/utils/random.h **** // Author: Emilie Gillet (emilie.o.gillet@gmail.com)
   4:eurorack/stmlib/utils/random.h **** //
   5:eurorack/stmlib/utils/random.h **** // Permission is hereby granted, free of charge, to any person obtaining a copy
   6:eurorack/stmlib/utils/random.h **** // of this software and associated documentation files (the "Software"), to deal
   7:eurorack/stmlib/utils/random.h **** // in the Software without restriction, including without limitation the rights
   8:eurorack/stmlib/utils/random.h **** // to use, copy, modify, merge, publish, distribute, sublicense, and/or sell
   9:eurorack/stmlib/utils/random.h **** // copies of the Software, and to permit persons to whom the Software is
  10:eurorack/stmlib/utils/random.h **** // furnished to do so, subject to the following conditions:
  11:eurorack/stmlib/utils/random.h **** // 
  12:eurorack/stmlib/utils/random.h **** // The above copyright notice and this permission notice shall be included in
  13:eurorack/stmlib/utils/random.h **** // all copies or substantial portions of the Software.
  14:eurorack/stmlib/utils/random.h **** // 
  15:eurorack/stmlib/utils/random.h **** // THE SOFTWARE IS PROVIDED "AS IS", WITHOUT WARRANTY OF ANY KIND, EXPRESS OR
  16:eurorack/stmlib/utils/random.h **** // IMPLIED, INCLUDING BUT NOT LIMITED TO THE WARRANTIES OF MERCHANTABILITY,
  17:eurorack/stmlib/utils/random.h **** // FITNESS FOR A PARTICULAR PURPOSE AND NONINFRINGEMENT. IN NO EVENT SHALL THE
  18:eurorack/stmlib/utils/random.h **** // AUTHORS OR COPYRIGHT HOLDERS BE LIABLE FOR ANY CLAIM, DAMAGES OR OTHER
  19:eurorack/stmlib/utils/random.h **** // LIABILITY, WHETHER IN AN ACTION OF CONTRACT, TORT OR OTHERWISE, ARISING FROM,
  20:eurorack/stmlib/utils/random.h **** // OUT OF OR IN CONNECTION WITH THE SOFTWARE OR THE USE OR OTHER DEALINGS IN
  21:eurorack/stmlib/utils/random.h **** // THE SOFTWARE.
  22:eurorack/stmlib/utils/random.h **** // 
  23:eurorack/stmlib/utils/random.h **** // See http://creativecommons.org/licenses/MIT/ for more information.
  24:eurorack/stmlib/utils/random.h **** //
  25:eurorack/stmlib/utils/random.h **** // -----------------------------------------------------------------------------
  26:eurorack/stmlib/utils/random.h **** //
  27:eurorack/stmlib/utils/random.h **** // Fast 16-bit pseudo random number generator.
  28:eurorack/stmlib/utils/random.h **** 
  29:eurorack/stmlib/utils/random.h **** #ifndef STMLIB_UTILS_RANDOM_H_
  30:eurorack/stmlib/utils/random.h **** #define STMLIB_UTILS_RANDOM_H_
  31:eurorack/stmlib/utils/random.h **** 
  32:eurorack/stmlib/utils/random.h **** #include "stmlib/stmlib.h"
  33:eurorack/stmlib/utils/random.h **** 
  34:eurorack/stmlib/utils/random.h **** namespace stmlib {
  35:eurorack/stmlib/utils/random.h **** 
  36:eurorack/stmlib/utils/random.h **** class Random {
  37:eurorack/stmlib/utils/random.h ****  public:
  38:eurorack/stmlib/utils/random.h ****   static inline uint32_t state() { return rng_state_; }
  39:eurorack/stmlib/utils/random.h **** 
  40:eurorack/stmlib/utils/random.h ****   static inline void Seed(uint32_t seed) {
  41:eurorack/stmlib/utils/random.h ****     rng_state_ = seed;
ARM GAS  /var/folders/9s/8rp0_f2s1n31qbztm3b5_fdh0000gn/T//ccrjzSP7.s 			page 19


  42:eurorack/stmlib/utils/random.h ****   }
  43:eurorack/stmlib/utils/random.h **** 
  44:eurorack/stmlib/utils/random.h ****   static inline uint32_t GetWord() {
  45:eurorack/stmlib/utils/random.h ****     rng_state_ = rng_state_ * 1664525L + 1013904223L;
  46:eurorack/stmlib/utils/random.h ****     return state();
  47:eurorack/stmlib/utils/random.h ****   }
  48:eurorack/stmlib/utils/random.h ****   
  49:eurorack/stmlib/utils/random.h ****   static inline int16_t GetSample() {
  50:eurorack/stmlib/utils/random.h ****     return static_cast<int16_t>(GetWord() >> 16);
  51:eurorack/stmlib/utils/random.h ****   }
  52:eurorack/stmlib/utils/random.h **** 
  53:eurorack/stmlib/utils/random.h ****   static inline float GetFloat() {
 435              		.loc 7 53 23 is_stmt 1 view -0
 436              		.cfi_startproc
 437              		@ args = 0, pretend = 0, frame = 0
 438              		@ frame_needed = 0, uses_anonymous_args = 0
 439              		@ link register save eliminated.
  54:eurorack/stmlib/utils/random.h ****     return static_cast<float>(GetWord()) / 4294967296.0f;
 440              		.loc 7 54 5 view .LVU122
 441              	.LBB130:
 442              	.LBI130:
  44:eurorack/stmlib/utils/random.h ****     rng_state_ = rng_state_ * 1664525L + 1013904223L;
 443              		.loc 7 44 26 view .LVU123
 444              	.LBB131:
  45:eurorack/stmlib/utils/random.h ****     return state();
 445              		.loc 7 45 5 view .LVU124
  45:eurorack/stmlib/utils/random.h ****     return state();
 446              		.loc 7 45 29 is_stmt 0 view .LVU125
 447 0000 074A     		ldr	r2, .L14
  45:eurorack/stmlib/utils/random.h ****     return state();
 448              		.loc 7 45 40 view .LVU126
 449 0002 0848     		ldr	r0, .L14+4
  45:eurorack/stmlib/utils/random.h ****     return state();
 450              		.loc 7 45 29 view .LVU127
 451 0004 1168     		ldr	r1, [r2]
  45:eurorack/stmlib/utils/random.h ****     return state();
 452              		.loc 7 45 40 view .LVU128
 453 0006 084B     		ldr	r3, .L14+8
 454 0008 00FB0133 		mla	r3, r0, r1, r3
 455              	.LBE131:
 456              	.LBE130:
 457              		.loc 7 54 12 view .LVU129
 458 000c 07EE903A 		vmov	s15, r3	@ int
 459              	.LBB133:
 460              	.LBB132:
  45:eurorack/stmlib/utils/random.h ****     return state();
 461              		.loc 7 45 16 view .LVU130
 462 0010 1360     		str	r3, [r2]
  46:eurorack/stmlib/utils/random.h ****   }
 463              		.loc 7 46 5 is_stmt 1 view .LVU131
 464              	.LBE132:
 465              	.LBE133:
  38:eurorack/stmlib/utils/random.h **** 
 466              		.loc 7 38 36 view .LVU132
 467              		.loc 7 54 12 is_stmt 0 view .LVU133
 468 0012 B8EE670A 		vcvt.f32.u32	s0, s15
  55:eurorack/stmlib/utils/random.h ****   }
ARM GAS  /var/folders/9s/8rp0_f2s1n31qbztm3b5_fdh0000gn/T//ccrjzSP7.s 			page 20


 469              		.loc 7 55 3 view .LVU134
 470 0016 DFED057A 		vldr.32	s15, .L14+12
 471 001a 20EE270A 		vmul.f32	s0, s0, s15
 472 001e 7047     		bx	lr
 473              	.L15:
 474              		.align	2
 475              	.L14:
 476 0020 00000000 		.word	_ZN6stmlib6Random10rng_state_E
 477 0024 0D661900 		.word	1664525
 478 0028 5FF36E3C 		.word	1013904223
 479 002c 0000802F 		.word	796917760
 480              		.cfi_endproc
 481              	.LFE1498:
 483              		.section	.text._ZN6stmlib3Svf7set_f_qILNS_22FrequencyApproximationE2EEEvff,"axG",%progbits,_ZN6stm
 484              		.align	1
 485              		.weak	_ZN6stmlib3Svf7set_f_qILNS_22FrequencyApproximationE2EEEvff
 486              		.syntax unified
 487              		.thumb
 488              		.thumb_func
 490              	_ZN6stmlib3Svf7set_f_qILNS_22FrequencyApproximationE2EEEvff:
 491              	.LVL21:
 492              	.LFB1587:
 223:eurorack/stmlib/dsp/filter.h ****     g_ = OnePole::tan<approximation>(f);
 493              		.loc 2 223 15 is_stmt 1 view -0
 494              		.cfi_startproc
 495              		@ args = 0, pretend = 0, frame = 0
 496              		@ frame_needed = 0, uses_anonymous_args = 0
 497              		@ link register save eliminated.
 498              	.LBB137:
 499              	.LBI137:
 107:eurorack/stmlib/dsp/filter.h ****     if (approximation == FREQUENCY_EXACT) {
 500              		.loc 2 107 23 view .LVU136
 501              	.LBB138:
 122:eurorack/stmlib/dsp/filter.h ****       return f * (M_PI_F + f2 * (a + b * f2));
 502              		.loc 2 122 13 is_stmt 0 view .LVU137
 503 0000 60EE006A 		vmul.f32	s13, s0, s0
 504              	.LVL22:
 123:eurorack/stmlib/dsp/filter.h ****     } else if (approximation == FREQUENCY_ACCURATE) {
 505              		.loc 2 123 36 view .LVU138
 506 0004 DFED0F7A 		vldr.32	s15, .L17
 507 0008 9FED0F7A 		vldr.32	s14, .L17+4
 508 000c A6EEA77A 		vfma.f32	s14, s13, s15
 123:eurorack/stmlib/dsp/filter.h ****     } else if (approximation == FREQUENCY_ACCURATE) {
 509              		.loc 2 123 26 view .LVU139
 510 0010 DFED0E7A 		vldr.32	s15, .L17+8
 511 0014 E6EE877A 		vfma.f32	s15, s13, s14
 512              	.LBE138:
 513              	.LBE137:
 225:eurorack/stmlib/dsp/filter.h ****     h_ = 1.0f / (1.0f + r_ * g_ + g_ * g_);
 514              		.loc 2 225 15 view .LVU140
 515 0018 B7EE007A 		vmov.f32	s14, #1.0e+0
 516 001c C7EE206A 		vdiv.f32	s13, s14, s1
 517              	.LVL23:
 518              	.LBB140:
 519              	.LBB139:
 123:eurorack/stmlib/dsp/filter.h ****     } else if (approximation == FREQUENCY_ACCURATE) {
 520              		.loc 2 123 45 view .LVU141
ARM GAS  /var/folders/9s/8rp0_f2s1n31qbztm3b5_fdh0000gn/T//ccrjzSP7.s 			page 21


 521 0020 20EE270A 		vmul.f32	s0, s0, s15
 522              	.LVL24:
 123:eurorack/stmlib/dsp/filter.h ****     } else if (approximation == FREQUENCY_ACCURATE) {
 523              		.loc 2 123 45 view .LVU142
 524              	.LBE139:
 525              	.LBE140:
 526              		.loc 2 226 23 view .LVU143
 527 0024 F0EE477A 		vmov.f32	s15, s14
 224:eurorack/stmlib/dsp/filter.h ****     r_ = 1.0f / resonance;
 528              		.loc 2 224 8 view .LVU144
 529 0028 80ED000A 		vstr.32	s0, [r0]
 530              		.loc 2 226 23 view .LVU145
 531 002c E6EE807A 		vfma.f32	s15, s13, s0
 225:eurorack/stmlib/dsp/filter.h ****     h_ = 1.0f / (1.0f + r_ * g_ + g_ * g_);
 532              		.loc 2 225 8 view .LVU146
 533 0030 C0ED016A 		vstr.32	s13, [r0, #4]
 534              		.loc 2 226 33 view .LVU147
 535 0034 E0EE007A 		vfma.f32	s15, s0, s0
 536              		.loc 2 226 15 view .LVU148
 537 0038 C7EE276A 		vdiv.f32	s13, s14, s15
 538              		.loc 2 226 8 view .LVU149
 539 003c C0ED026A 		vstr.32	s13, [r0, #8]
 227:eurorack/stmlib/dsp/filter.h ****   }
 540              		.loc 2 227 3 view .LVU150
 541 0040 7047     		bx	lr
 542              	.L18:
 543 0042 00BF     		.align	2
 544              	.L17:
 545 0044 49265F42 		.word	1113531977
 546 0048 8FBA2141 		.word	1092729487
 547 004c DB0F4940 		.word	1078530011
 548              		.cfi_endproc
 549              	.LFE1587:
 551              		.section	.text._ZN6stmlib3Svf7ProcessILNS_10FilterModeE1EEEff,"axG",%progbits,_ZN6stmlib3Svf7Proce
 552              		.align	1
 553              		.weak	_ZN6stmlib3Svf7ProcessILNS_10FilterModeE1EEEff
 554              		.syntax unified
 555              		.thumb
 556              		.thumb_func
 558              	_ZN6stmlib3Svf7ProcessILNS_10FilterModeE1EEEff:
 559              	.LVL25:
 560              	.LFB1589:
 228:eurorack/stmlib/dsp/filter.h ****   
 229:eurorack/stmlib/dsp/filter.h ****   template<FilterMode mode>
 230:eurorack/stmlib/dsp/filter.h ****   inline float Process(float in) {
 561              		.loc 2 230 16 is_stmt 1 view -0
 562              		.cfi_startproc
 563              		@ args = 0, pretend = 0, frame = 0
 564              		@ frame_needed = 0, uses_anonymous_args = 0
 565              		@ link register save eliminated.
 231:eurorack/stmlib/dsp/filter.h ****     float hp, bp, lp;
 232:eurorack/stmlib/dsp/filter.h ****     hp = (in - r_ * state_1_ - g_ * state_1_ - state_2_) * h_;
 566              		.loc 2 232 21 is_stmt 0 view .LVU152
 567 0000 90ED037A 		vldr.32	s14, [r0, #12]
 568              		.loc 2 232 14 view .LVU153
 569 0004 D0ED017A 		vldr.32	s15, [r0, #4]
 570              		.loc 2 232 32 view .LVU154
ARM GAS  /var/folders/9s/8rp0_f2s1n31qbztm3b5_fdh0000gn/T//ccrjzSP7.s 			page 22


 571 0008 90ED006A 		vldr.32	s12, [r0]
 572              		.loc 2 232 14 view .LVU155
 573 000c A7EEC70A 		vfms.f32	s0, s15, s14
 574              	.LVL26:
 575              		.loc 2 232 48 view .LVU156
 576 0010 D0ED046A 		vldr.32	s13, [r0, #16]
 577              		.loc 2 232 8 view .LVU157
 578 0014 D0ED025A 		vldr.32	s11, [r0, #8]
 579              		.loc 2 232 30 view .LVU158
 580 0018 A7EE460A 		vfms.f32	s0, s14, s12
 581              		.loc 2 232 46 view .LVU159
 582 001c 70EE667A 		vsub.f32	s15, s0, s13
 583              		.loc 2 232 8 view .LVU160
 584 0020 67EEA57A 		vmul.f32	s15, s15, s11
 585              	.LVL27:
 233:eurorack/stmlib/dsp/filter.h ****     bp = g_ * hp + state_1_;
 586              		.loc 2 233 8 view .LVU161
 587 0024 A6EE277A 		vfma.f32	s14, s12, s15
 588 0028 B0EE470A 		vmov.f32	s0, s14
 589              	.LVL28:
 234:eurorack/stmlib/dsp/filter.h ****     state_1_ = g_ * hp + bp;
 590              		.loc 2 234 24 view .LVU162
 591 002c A6EE277A 		vfma.f32	s14, s12, s15
 235:eurorack/stmlib/dsp/filter.h ****     lp = g_ * bp + state_2_;
 592              		.loc 2 235 8 view .LVU163
 593 0030 E6EE006A 		vfma.f32	s13, s12, s0
 594              	.LVL29:
 234:eurorack/stmlib/dsp/filter.h ****     state_1_ = g_ * hp + bp;
 595              		.loc 2 234 14 view .LVU164
 596 0034 80ED037A 		vstr.32	s14, [r0, #12]
 236:eurorack/stmlib/dsp/filter.h ****     state_2_ = g_ * bp + lp;
 597              		.loc 2 236 24 view .LVU165
 598 0038 E6EE006A 		vfma.f32	s13, s12, s0
 599              	.LVL30:
 600              		.loc 2 236 14 view .LVU166
 601 003c C0ED046A 		vstr.32	s13, [r0, #16]
 602              	.LVL31:
 237:eurorack/stmlib/dsp/filter.h ****     
 238:eurorack/stmlib/dsp/filter.h ****     if (mode == FILTER_MODE_LOW_PASS) {
 239:eurorack/stmlib/dsp/filter.h ****       return lp;
 240:eurorack/stmlib/dsp/filter.h ****     } else if (mode == FILTER_MODE_BAND_PASS) {
 241:eurorack/stmlib/dsp/filter.h ****       return bp;
 242:eurorack/stmlib/dsp/filter.h ****     } else if (mode == FILTER_MODE_BAND_PASS_NORMALIZED) {
 243:eurorack/stmlib/dsp/filter.h ****       return bp * r_;
 244:eurorack/stmlib/dsp/filter.h ****     } else if (mode == FILTER_MODE_HIGH_PASS) {
 245:eurorack/stmlib/dsp/filter.h ****       return hp;
 246:eurorack/stmlib/dsp/filter.h ****     }
 247:eurorack/stmlib/dsp/filter.h ****   }
 603              		.loc 2 247 3 view .LVU167
 604 0040 7047     		bx	lr
 605              		.cfi_endproc
 606              	.LFE1589:
 608              		.section	.text._ZN6plaits15AnalogSnareDrum6RenderEbbfffffPfj,"axG",%progbits,_ZN6plaits15AnalogSna
 609              		.align	1
 610              		.weak	_ZN6plaits15AnalogSnareDrum6RenderEbbfffffPfj
 611              		.syntax unified
 612              		.thumb
ARM GAS  /var/folders/9s/8rp0_f2s1n31qbztm3b5_fdh0000gn/T//ccrjzSP7.s 			page 23


 613              		.thumb_func
 615              	_ZN6plaits15AnalogSnareDrum6RenderEbbfffffPfj:
 616              	.LVL32:
 617              	.LFB1532:
  65:eurorack/plaits/dsp/drums/analog_snare_drum.h ****   }
  66:eurorack/plaits/dsp/drums/analog_snare_drum.h ****   
  67:eurorack/plaits/dsp/drums/analog_snare_drum.h ****   void Render(
 618              		.loc 3 67 8 is_stmt 1 view -0
 619              		.cfi_startproc
 620              		@ args = 4, pretend = 0, frame = 48
 621              		@ frame_needed = 0, uses_anonymous_args = 0
  68:eurorack/plaits/dsp/drums/analog_snare_drum.h ****       bool sustain,
  69:eurorack/plaits/dsp/drums/analog_snare_drum.h ****       bool trigger,
  70:eurorack/plaits/dsp/drums/analog_snare_drum.h ****       float accent,
  71:eurorack/plaits/dsp/drums/analog_snare_drum.h ****       float f0,
  72:eurorack/plaits/dsp/drums/analog_snare_drum.h ****       float tone,
  73:eurorack/plaits/dsp/drums/analog_snare_drum.h ****       float decay,
  74:eurorack/plaits/dsp/drums/analog_snare_drum.h ****       float snappy,
  75:eurorack/plaits/dsp/drums/analog_snare_drum.h ****       float* out,
  76:eurorack/plaits/dsp/drums/analog_snare_drum.h ****       size_t size) {
  77:eurorack/plaits/dsp/drums/analog_snare_drum.h ****     const float decay_xt = decay * (1.0f + decay * (decay - 1.0f));
 622              		.loc 3 77 5 view .LVU169
  67:eurorack/plaits/dsp/drums/analog_snare_drum.h ****       bool sustain,
 623              		.loc 3 67 8 is_stmt 0 view .LVU170
 624 0000 2DE9F04F 		push	{r4, r5, r6, r7, r8, r9, r10, fp, lr}
 625              		.cfi_def_cfa_offset 36
 626              		.cfi_offset 4, -36
 627              		.cfi_offset 5, -32
 628              		.cfi_offset 6, -28
 629              		.cfi_offset 7, -24
 630              		.cfi_offset 8, -20
 631              		.cfi_offset 9, -16
 632              		.cfi_offset 10, -12
 633              		.cfi_offset 11, -8
 634              		.cfi_offset 14, -4
 635 0004 2DED0C8B 		vpush.64	{d8, d9, d10, d11, d12, d13}
 636              		.cfi_def_cfa_offset 84
 637              		.cfi_offset 80, -84
 638              		.cfi_offset 81, -80
 639              		.cfi_offset 82, -76
 640              		.cfi_offset 83, -72
 641              		.cfi_offset 84, -68
 642              		.cfi_offset 85, -64
 643              		.cfi_offset 86, -60
 644              		.cfi_offset 87, -56
 645              		.cfi_offset 88, -52
 646              		.cfi_offset 89, -48
 647              		.cfi_offset 90, -44
 648              		.cfi_offset 91, -40
 649              		.loc 3 77 59 view .LVU171
 650 0008 F7EE008A 		vmov.f32	s17, #1.0e+0
  67:eurorack/plaits/dsp/drums/analog_snare_drum.h ****       bool sustain,
 651              		.loc 3 67 8 view .LVU172
 652 000c 8DB0     		sub	sp, sp, #52
 653              		.cfi_def_cfa_offset 136
  67:eurorack/plaits/dsp/drums/analog_snare_drum.h ****       bool sustain,
 654              		.loc 3 67 8 view .LVU173
ARM GAS  /var/folders/9s/8rp0_f2s1n31qbztm3b5_fdh0000gn/T//ccrjzSP7.s 			page 24


 655 000e B0EE40CA 		vmov.f32	s24, s0
  78:eurorack/plaits/dsp/drums/analog_snare_drum.h ****     const int kTriggerPulseDuration = 1.0e-3 * kSampleRate;
  79:eurorack/plaits/dsp/drums/analog_snare_drum.h ****     const float kPulseDecayTime = 0.1e-3 * kSampleRate;
  80:eurorack/plaits/dsp/drums/analog_snare_drum.h ****     const float q = 2000.0f * stmlib::SemitonesToRatio(decay_xt * 84.0f);
 656              		.loc 3 80 55 view .LVU174
 657 0012 9FEDE90A 		vldr.32	s0, .L70
 658              	.LVL33:
  67:eurorack/plaits/dsp/drums/analog_snare_drum.h ****       bool sustain,
 659              		.loc 3 67 8 view .LVU175
 660 0016 F0EE42CA 		vmov.f32	s25, s4
 661 001a 0446     		mov	r4, r0
  77:eurorack/plaits/dsp/drums/analog_snare_drum.h ****     const int kTriggerPulseDuration = 1.0e-3 * kSampleRate;
 662              		.loc 3 77 59 view .LVU176
 663 001c 31EEE87A 		vsub.f32	s14, s3, s17
  67:eurorack/plaits/dsp/drums/analog_snare_drum.h ****       bool sustain,
 664              		.loc 3 67 8 view .LVU177
 665 0020 8846     		mov	r8, r1
  77:eurorack/plaits/dsp/drums/analog_snare_drum.h ****     const int kTriggerPulseDuration = 1.0e-3 * kSampleRate;
 666              		.loc 3 77 42 view .LVU178
 667 0022 F0EE687A 		vmov.f32	s15, s17
  67:eurorack/plaits/dsp/drums/analog_snare_drum.h ****       bool sustain,
 668              		.loc 3 67 8 view .LVU179
 669 0026 1546     		mov	r5, r2
 670 0028 F0EE61BA 		vmov.f32	s23, s3
 671 002c 1F46     		mov	r7, r3
 672 002e B0EE60BA 		vmov.f32	s22, s1
  81:eurorack/plaits/dsp/drums/analog_snare_drum.h ****     const float noise_envelope_decay = 1.0f - 0.0017f * \
  82:eurorack/plaits/dsp/drums/analog_snare_drum.h ****         stmlib::SemitonesToRatio(-decay * (50.0f + snappy * 10.0f));
  83:eurorack/plaits/dsp/drums/analog_snare_drum.h ****     const float exciter_leak = snappy * (2.0f - snappy) * 0.1f;
  84:eurorack/plaits/dsp/drums/analog_snare_drum.h ****     
  85:eurorack/plaits/dsp/drums/analog_snare_drum.h ****     snappy = snappy * 1.1f - 0.05f;
 673              		.loc 3 85 12 view .LVU180
 674 0032 9FEDE29A 		vldr.32	s18, .L70+4
  77:eurorack/plaits/dsp/drums/analog_snare_drum.h ****     const int kTriggerPulseDuration = 1.0e-3 * kSampleRate;
 675              		.loc 3 77 42 view .LVU181
 676 0036 E7EE217A 		vfma.f32	s15, s14, s3
 677              	.LVL34:
  78:eurorack/plaits/dsp/drums/analog_snare_drum.h ****     const float kPulseDecayTime = 0.1e-3 * kSampleRate;
 678              		.loc 3 78 5 is_stmt 1 view .LVU182
  79:eurorack/plaits/dsp/drums/analog_snare_drum.h ****     const float q = 2000.0f * stmlib::SemitonesToRatio(decay_xt * 84.0f);
 679              		.loc 3 79 5 view .LVU183
  80:eurorack/plaits/dsp/drums/analog_snare_drum.h ****     const float noise_envelope_decay = 1.0f - 0.0017f * \
 680              		.loc 3 80 5 view .LVU184
  67:eurorack/plaits/dsp/drums/analog_snare_drum.h ****       bool sustain,
 681              		.loc 3 67 8 is_stmt 0 view .LVU185
 682 003a B0EE418A 		vmov.f32	s16, s2
  83:eurorack/plaits/dsp/drums/analog_snare_drum.h ****     
 683              		.loc 3 83 47 view .LVU186
 684 003e B0EE00AA 		vmov.f32	s20, #2.0e+0
  82:eurorack/plaits/dsp/drums/analog_snare_drum.h ****     const float exciter_leak = snappy * (2.0f - snappy) * 0.1f;
 685              		.loc 3 82 67 view .LVU187
 686 0042 F0EE68AA 		vmov.f32	s21, s17
  83:eurorack/plaits/dsp/drums/analog_snare_drum.h ****     
 687              		.loc 3 83 47 view .LVU188
 688 0046 7AEE6C9A 		vsub.f32	s19, s20, s25
  77:eurorack/plaits/dsp/drums/analog_snare_drum.h ****     const int kTriggerPulseDuration = 1.0e-3 * kSampleRate;
 689              		.loc 3 77 17 view .LVU189
ARM GAS  /var/folders/9s/8rp0_f2s1n31qbztm3b5_fdh0000gn/T//ccrjzSP7.s 			page 25


 690 004a 67EEA17A 		vmul.f32	s15, s15, s3
 691              	.LVL35:
  83:eurorack/plaits/dsp/drums/analog_snare_drum.h ****     
 692              		.loc 3 83 39 view .LVU190
 693 004e 69EEAC9A 		vmul.f32	s19, s19, s25
  80:eurorack/plaits/dsp/drums/analog_snare_drum.h ****     const float noise_envelope_decay = 1.0f - 0.0017f * \
 694              		.loc 3 80 55 view .LVU191
 695 0052 27EE800A 		vmul.f32	s0, s15, s0
 696 0056 FFF7FEFF 		bl	_ZN6stmlib16SemitonesToRatioEf
 697              	.LVL36:
  80:eurorack/plaits/dsp/drums/analog_snare_drum.h ****     const float noise_envelope_decay = 1.0f - 0.0017f * \
 698              		.loc 3 80 72 view .LVU192
 699 005a DFEDD97A 		vldr.32	s15, .L70+8
 700 005e 20EE27DA 		vmul.f32	s26, s0, s15
 701              	.LVL37:
  81:eurorack/plaits/dsp/drums/analog_snare_drum.h ****         stmlib::SemitonesToRatio(-decay * (50.0f + snappy * 10.0f));
 702              		.loc 3 81 5 is_stmt 1 view .LVU193
  82:eurorack/plaits/dsp/drums/analog_snare_drum.h ****     const float exciter_leak = snappy * (2.0f - snappy) * 0.1f;
 703              		.loc 3 82 50 is_stmt 0 view .LVU194
 704 0062 9FEDD80A 		vldr.32	s0, .L70+12
 705 0066 F2EE047A 		vmov.f32	s15, #1.0e+1
 706 006a ACEEA70A 		vfma.f32	s0, s25, s15
  82:eurorack/plaits/dsp/drums/analog_snare_drum.h ****     const float exciter_leak = snappy * (2.0f - snappy) * 0.1f;
 707              		.loc 3 82 33 view .LVU195
 708 006e 2BEEC00A 		vnmul.f32	s0, s23, s0
 709 0072 FFF7FEFF 		bl	_ZN6stmlib16SemitonesToRatioEf
 710              	.LVL38:
  82:eurorack/plaits/dsp/drums/analog_snare_drum.h ****     const float exciter_leak = snappy * (2.0f - snappy) * 0.1f;
 711              		.loc 3 82 67 view .LVU196
 712 0076 DFEDD47A 		vldr.32	s15, .L70+16
 713 007a E0EE67AA 		vfms.f32	s21, s0, s15
 714              	.LVL39:
  83:eurorack/plaits/dsp/drums/analog_snare_drum.h ****     
 715              		.loc 3 83 5 is_stmt 1 view .LVU197
  83:eurorack/plaits/dsp/drums/analog_snare_drum.h ****     
 716              		.loc 3 83 17 is_stmt 0 view .LVU198
 717 007e DFEDD37A 		vldr.32	s15, .L70+20
 718 0082 69EEA79A 		vmul.f32	s19, s19, s15
 719              	.LVL40:
 720              		.loc 3 85 5 is_stmt 1 view .LVU199
 721              		.loc 3 85 12 is_stmt 0 view .LVU200
 722 0086 DFEDD27A 		vldr.32	s15, .L70+24
 723 008a ACEEA79A 		vfma.f32	s18, s25, s15
 724              	.LVL41:
  86:eurorack/plaits/dsp/drums/analog_snare_drum.h ****     CONSTRAIN(snappy, 0.0f, 1.0f);
 725              		.loc 3 86 5 is_stmt 1 view .LVU201
 726 008e DFEDD1CA 		vldr.32	s25, .L70+28
 727 0092 B5EEC09A 		vcmpe.f32	s18, #0
 728 0096 F1EE10FA 		vmrs	APSR_nzcv, FPSCR
 729 009a 00F14881 		bmi	.L50
 730              		.loc 3 86 5 discriminator 2 view .LVU202
 731 009e B4EE689A 		vcmp.f32	s18, s17
 732 00a2 F1EE10FA 		vmrs	APSR_nzcv, FPSCR
 733 00a6 38FE899A 		vselgt.f32	s18, s17, s18
 734              	.LVL42:
 735              	.L21:
 736              		.loc 3 86 34 discriminator 6 view .LVU203
ARM GAS  /var/folders/9s/8rp0_f2s1n31qbztm3b5_fdh0000gn/T//ccrjzSP7.s 			page 26


  87:eurorack/plaits/dsp/drums/analog_snare_drum.h ****     
  88:eurorack/plaits/dsp/drums/analog_snare_drum.h ****     if (trigger) {
 737              		.loc 3 88 5 discriminator 6 view .LVU204
 738 00aa 5DB1     		cbz	r5, .L23
  89:eurorack/plaits/dsp/drums/analog_snare_drum.h ****       pulse_remaining_samples_ = kTriggerPulseDuration;
 739              		.loc 3 89 7 view .LVU205
  90:eurorack/plaits/dsp/drums/analog_snare_drum.h ****       pulse_height_ = 3.0f + 7.0f * accent;
 740              		.loc 3 90 28 is_stmt 0 view .LVU206
 741 00ac B1EE0C7A 		vmov.f32	s14, #7.0e+0
  89:eurorack/plaits/dsp/drums/analog_snare_drum.h ****       pulse_remaining_samples_ = kTriggerPulseDuration;
 742              		.loc 3 89 32 view .LVU207
 743 00b0 3023     		movs	r3, #48
 744              		.loc 3 90 28 view .LVU208
 745 00b2 F0EE087A 		vmov.f32	s15, #3.0e+0
  91:eurorack/plaits/dsp/drums/analog_snare_drum.h ****       noise_envelope_ = 2.0f;
 746              		.loc 3 91 23 view .LVU209
 747 00b6 84ED04AA 		vstr.32	s20, [r4, #16]
  89:eurorack/plaits/dsp/drums/analog_snare_drum.h ****       pulse_remaining_samples_ = kTriggerPulseDuration;
 748              		.loc 3 89 32 view .LVU210
 749 00ba 2360     		str	r3, [r4]
  90:eurorack/plaits/dsp/drums/analog_snare_drum.h ****       pulse_height_ = 3.0f + 7.0f * accent;
 750              		.loc 3 90 7 is_stmt 1 view .LVU211
  90:eurorack/plaits/dsp/drums/analog_snare_drum.h ****       pulse_height_ = 3.0f + 7.0f * accent;
 751              		.loc 3 90 28 is_stmt 0 view .LVU212
 752 00bc ECEE077A 		vfma.f32	s15, s24, s14
  90:eurorack/plaits/dsp/drums/analog_snare_drum.h ****       pulse_height_ = 3.0f + 7.0f * accent;
 753              		.loc 3 90 21 view .LVU213
 754 00c0 C4ED027A 		vstr.32	s15, [r4, #8]
 755              		.loc 3 91 7 is_stmt 1 view .LVU214
 756              	.L23:
 757              		.loc 3 91 7 is_stmt 0 view .LVU215
 758 00c4 04F1180A 		add	r10, r4, #24
 759 00c8 C34E     		ldr	r6, .L70+32
  86:eurorack/plaits/dsp/drums/analog_snare_drum.h ****     
 760              		.loc 3 86 5 view .LVU216
 761 00ca 0DF1080B 		add	fp, sp, #8
 762 00ce 0025     		movs	r5, #0
 763 00d0 D146     		mov	r9, r10
 764              	.L26:
 765              	.LVL43:
 766              	.LBB174:
  92:eurorack/plaits/dsp/drums/analog_snare_drum.h ****     }
  93:eurorack/plaits/dsp/drums/analog_snare_drum.h ****     
  94:eurorack/plaits/dsp/drums/analog_snare_drum.h ****     static const float kModeFrequencies[kNumModes] = {
  95:eurorack/plaits/dsp/drums/analog_snare_drum.h ****         1.00f,
  96:eurorack/plaits/dsp/drums/analog_snare_drum.h ****         2.00f,
  97:eurorack/plaits/dsp/drums/analog_snare_drum.h ****         3.18f,
  98:eurorack/plaits/dsp/drums/analog_snare_drum.h ****         4.16f,
  99:eurorack/plaits/dsp/drums/analog_snare_drum.h ****         5.62f};
 100:eurorack/plaits/dsp/drums/analog_snare_drum.h ****     
 101:eurorack/plaits/dsp/drums/analog_snare_drum.h ****     float f[kNumModes];
 102:eurorack/plaits/dsp/drums/analog_snare_drum.h ****     float gain[kNumModes];
 103:eurorack/plaits/dsp/drums/analog_snare_drum.h ****     
 104:eurorack/plaits/dsp/drums/analog_snare_drum.h ****     for (int i = 0; i < kNumModes; ++i) {
 105:eurorack/plaits/dsp/drums/analog_snare_drum.h ****       f[i] = std::min(f0 * kModeFrequencies[i], 0.499f);
 767              		.loc 3 105 7 is_stmt 1 view .LVU217
 768              		.loc 3 105 46 is_stmt 0 view .LVU218
ARM GAS  /var/folders/9s/8rp0_f2s1n31qbztm3b5_fdh0000gn/T//ccrjzSP7.s 			page 27


 769 00d2 F6EC017A 		vldmia.32	r6!, {s15}
 770              	.LBB175:
 771              	.LBB176:
 772              		.file 8 "/Library/DaisyToolchain/0.2.0/arm/arm-none-eabi/include/c++/10.3.1/bits/stl_algobase.h"
   1:/Library/DaisyToolchain/0.2.0/arm/arm-none-eabi/include/c++/10.3.1/bits/stl_algobase.h **** // Core algorithmic facilities -*- C++ -*-
   2:/Library/DaisyToolchain/0.2.0/arm/arm-none-eabi/include/c++/10.3.1/bits/stl_algobase.h **** 
   3:/Library/DaisyToolchain/0.2.0/arm/arm-none-eabi/include/c++/10.3.1/bits/stl_algobase.h **** // Copyright (C) 2001-2020 Free Software Foundation, Inc.
   4:/Library/DaisyToolchain/0.2.0/arm/arm-none-eabi/include/c++/10.3.1/bits/stl_algobase.h **** //
   5:/Library/DaisyToolchain/0.2.0/arm/arm-none-eabi/include/c++/10.3.1/bits/stl_algobase.h **** // This file is part of the GNU ISO C++ Library.  This library is free
   6:/Library/DaisyToolchain/0.2.0/arm/arm-none-eabi/include/c++/10.3.1/bits/stl_algobase.h **** // software; you can redistribute it and/or modify it under the
   7:/Library/DaisyToolchain/0.2.0/arm/arm-none-eabi/include/c++/10.3.1/bits/stl_algobase.h **** // terms of the GNU General Public License as published by the
   8:/Library/DaisyToolchain/0.2.0/arm/arm-none-eabi/include/c++/10.3.1/bits/stl_algobase.h **** // Free Software Foundation; either version 3, or (at your option)
   9:/Library/DaisyToolchain/0.2.0/arm/arm-none-eabi/include/c++/10.3.1/bits/stl_algobase.h **** // any later version.
  10:/Library/DaisyToolchain/0.2.0/arm/arm-none-eabi/include/c++/10.3.1/bits/stl_algobase.h **** 
  11:/Library/DaisyToolchain/0.2.0/arm/arm-none-eabi/include/c++/10.3.1/bits/stl_algobase.h **** // This library is distributed in the hope that it will be useful,
  12:/Library/DaisyToolchain/0.2.0/arm/arm-none-eabi/include/c++/10.3.1/bits/stl_algobase.h **** // but WITHOUT ANY WARRANTY; without even the implied warranty of
  13:/Library/DaisyToolchain/0.2.0/arm/arm-none-eabi/include/c++/10.3.1/bits/stl_algobase.h **** // MERCHANTABILITY or FITNESS FOR A PARTICULAR PURPOSE.  See the
  14:/Library/DaisyToolchain/0.2.0/arm/arm-none-eabi/include/c++/10.3.1/bits/stl_algobase.h **** // GNU General Public License for more details.
  15:/Library/DaisyToolchain/0.2.0/arm/arm-none-eabi/include/c++/10.3.1/bits/stl_algobase.h **** 
  16:/Library/DaisyToolchain/0.2.0/arm/arm-none-eabi/include/c++/10.3.1/bits/stl_algobase.h **** // Under Section 7 of GPL version 3, you are granted additional
  17:/Library/DaisyToolchain/0.2.0/arm/arm-none-eabi/include/c++/10.3.1/bits/stl_algobase.h **** // permissions described in the GCC Runtime Library Exception, version
  18:/Library/DaisyToolchain/0.2.0/arm/arm-none-eabi/include/c++/10.3.1/bits/stl_algobase.h **** // 3.1, as published by the Free Software Foundation.
  19:/Library/DaisyToolchain/0.2.0/arm/arm-none-eabi/include/c++/10.3.1/bits/stl_algobase.h **** 
  20:/Library/DaisyToolchain/0.2.0/arm/arm-none-eabi/include/c++/10.3.1/bits/stl_algobase.h **** // You should have received a copy of the GNU General Public License and
  21:/Library/DaisyToolchain/0.2.0/arm/arm-none-eabi/include/c++/10.3.1/bits/stl_algobase.h **** // a copy of the GCC Runtime Library Exception along with this program;
  22:/Library/DaisyToolchain/0.2.0/arm/arm-none-eabi/include/c++/10.3.1/bits/stl_algobase.h **** // see the files COPYING3 and COPYING.RUNTIME respectively.  If not, see
  23:/Library/DaisyToolchain/0.2.0/arm/arm-none-eabi/include/c++/10.3.1/bits/stl_algobase.h **** // <http://www.gnu.org/licenses/>.
  24:/Library/DaisyToolchain/0.2.0/arm/arm-none-eabi/include/c++/10.3.1/bits/stl_algobase.h **** 
  25:/Library/DaisyToolchain/0.2.0/arm/arm-none-eabi/include/c++/10.3.1/bits/stl_algobase.h **** /*
  26:/Library/DaisyToolchain/0.2.0/arm/arm-none-eabi/include/c++/10.3.1/bits/stl_algobase.h ****  *
  27:/Library/DaisyToolchain/0.2.0/arm/arm-none-eabi/include/c++/10.3.1/bits/stl_algobase.h ****  * Copyright (c) 1994
  28:/Library/DaisyToolchain/0.2.0/arm/arm-none-eabi/include/c++/10.3.1/bits/stl_algobase.h ****  * Hewlett-Packard Company
  29:/Library/DaisyToolchain/0.2.0/arm/arm-none-eabi/include/c++/10.3.1/bits/stl_algobase.h ****  *
  30:/Library/DaisyToolchain/0.2.0/arm/arm-none-eabi/include/c++/10.3.1/bits/stl_algobase.h ****  * Permission to use, copy, modify, distribute and sell this software
  31:/Library/DaisyToolchain/0.2.0/arm/arm-none-eabi/include/c++/10.3.1/bits/stl_algobase.h ****  * and its documentation for any purpose is hereby granted without fee,
  32:/Library/DaisyToolchain/0.2.0/arm/arm-none-eabi/include/c++/10.3.1/bits/stl_algobase.h ****  * provided that the above copyright notice appear in all copies and
  33:/Library/DaisyToolchain/0.2.0/arm/arm-none-eabi/include/c++/10.3.1/bits/stl_algobase.h ****  * that both that copyright notice and this permission notice appear
  34:/Library/DaisyToolchain/0.2.0/arm/arm-none-eabi/include/c++/10.3.1/bits/stl_algobase.h ****  * in supporting documentation.  Hewlett-Packard Company makes no
  35:/Library/DaisyToolchain/0.2.0/arm/arm-none-eabi/include/c++/10.3.1/bits/stl_algobase.h ****  * representations about the suitability of this software for any
  36:/Library/DaisyToolchain/0.2.0/arm/arm-none-eabi/include/c++/10.3.1/bits/stl_algobase.h ****  * purpose.  It is provided "as is" without express or implied warranty.
  37:/Library/DaisyToolchain/0.2.0/arm/arm-none-eabi/include/c++/10.3.1/bits/stl_algobase.h ****  *
  38:/Library/DaisyToolchain/0.2.0/arm/arm-none-eabi/include/c++/10.3.1/bits/stl_algobase.h ****  *
  39:/Library/DaisyToolchain/0.2.0/arm/arm-none-eabi/include/c++/10.3.1/bits/stl_algobase.h ****  * Copyright (c) 1996-1998
  40:/Library/DaisyToolchain/0.2.0/arm/arm-none-eabi/include/c++/10.3.1/bits/stl_algobase.h ****  * Silicon Graphics Computer Systems, Inc.
  41:/Library/DaisyToolchain/0.2.0/arm/arm-none-eabi/include/c++/10.3.1/bits/stl_algobase.h ****  *
  42:/Library/DaisyToolchain/0.2.0/arm/arm-none-eabi/include/c++/10.3.1/bits/stl_algobase.h ****  * Permission to use, copy, modify, distribute and sell this software
  43:/Library/DaisyToolchain/0.2.0/arm/arm-none-eabi/include/c++/10.3.1/bits/stl_algobase.h ****  * and its documentation for any purpose is hereby granted without fee,
  44:/Library/DaisyToolchain/0.2.0/arm/arm-none-eabi/include/c++/10.3.1/bits/stl_algobase.h ****  * provided that the above copyright notice appear in all copies and
  45:/Library/DaisyToolchain/0.2.0/arm/arm-none-eabi/include/c++/10.3.1/bits/stl_algobase.h ****  * that both that copyright notice and this permission notice appear
  46:/Library/DaisyToolchain/0.2.0/arm/arm-none-eabi/include/c++/10.3.1/bits/stl_algobase.h ****  * in supporting documentation.  Silicon Graphics makes no
  47:/Library/DaisyToolchain/0.2.0/arm/arm-none-eabi/include/c++/10.3.1/bits/stl_algobase.h ****  * representations about the suitability of this software for any
  48:/Library/DaisyToolchain/0.2.0/arm/arm-none-eabi/include/c++/10.3.1/bits/stl_algobase.h ****  * purpose.  It is provided "as is" without express or implied warranty.
  49:/Library/DaisyToolchain/0.2.0/arm/arm-none-eabi/include/c++/10.3.1/bits/stl_algobase.h ****  */
  50:/Library/DaisyToolchain/0.2.0/arm/arm-none-eabi/include/c++/10.3.1/bits/stl_algobase.h **** 
  51:/Library/DaisyToolchain/0.2.0/arm/arm-none-eabi/include/c++/10.3.1/bits/stl_algobase.h **** /** @file bits/stl_algobase.h
  52:/Library/DaisyToolchain/0.2.0/arm/arm-none-eabi/include/c++/10.3.1/bits/stl_algobase.h ****  *  This is an internal header file, included by other library headers.
  53:/Library/DaisyToolchain/0.2.0/arm/arm-none-eabi/include/c++/10.3.1/bits/stl_algobase.h ****  *  Do not attempt to use it directly. @headername{algorithm}
ARM GAS  /var/folders/9s/8rp0_f2s1n31qbztm3b5_fdh0000gn/T//ccrjzSP7.s 			page 28


  54:/Library/DaisyToolchain/0.2.0/arm/arm-none-eabi/include/c++/10.3.1/bits/stl_algobase.h ****  */
  55:/Library/DaisyToolchain/0.2.0/arm/arm-none-eabi/include/c++/10.3.1/bits/stl_algobase.h **** 
  56:/Library/DaisyToolchain/0.2.0/arm/arm-none-eabi/include/c++/10.3.1/bits/stl_algobase.h **** #ifndef _STL_ALGOBASE_H
  57:/Library/DaisyToolchain/0.2.0/arm/arm-none-eabi/include/c++/10.3.1/bits/stl_algobase.h **** #define _STL_ALGOBASE_H 1
  58:/Library/DaisyToolchain/0.2.0/arm/arm-none-eabi/include/c++/10.3.1/bits/stl_algobase.h **** 
  59:/Library/DaisyToolchain/0.2.0/arm/arm-none-eabi/include/c++/10.3.1/bits/stl_algobase.h **** #include <bits/c++config.h>
  60:/Library/DaisyToolchain/0.2.0/arm/arm-none-eabi/include/c++/10.3.1/bits/stl_algobase.h **** #include <bits/functexcept.h>
  61:/Library/DaisyToolchain/0.2.0/arm/arm-none-eabi/include/c++/10.3.1/bits/stl_algobase.h **** #include <bits/cpp_type_traits.h>
  62:/Library/DaisyToolchain/0.2.0/arm/arm-none-eabi/include/c++/10.3.1/bits/stl_algobase.h **** #include <ext/type_traits.h>
  63:/Library/DaisyToolchain/0.2.0/arm/arm-none-eabi/include/c++/10.3.1/bits/stl_algobase.h **** #include <ext/numeric_traits.h>
  64:/Library/DaisyToolchain/0.2.0/arm/arm-none-eabi/include/c++/10.3.1/bits/stl_algobase.h **** #include <bits/stl_pair.h>
  65:/Library/DaisyToolchain/0.2.0/arm/arm-none-eabi/include/c++/10.3.1/bits/stl_algobase.h **** #include <bits/stl_iterator_base_types.h>
  66:/Library/DaisyToolchain/0.2.0/arm/arm-none-eabi/include/c++/10.3.1/bits/stl_algobase.h **** #include <bits/stl_iterator_base_funcs.h>
  67:/Library/DaisyToolchain/0.2.0/arm/arm-none-eabi/include/c++/10.3.1/bits/stl_algobase.h **** #include <bits/stl_iterator.h>
  68:/Library/DaisyToolchain/0.2.0/arm/arm-none-eabi/include/c++/10.3.1/bits/stl_algobase.h **** #include <bits/concept_check.h>
  69:/Library/DaisyToolchain/0.2.0/arm/arm-none-eabi/include/c++/10.3.1/bits/stl_algobase.h **** #include <debug/debug.h>
  70:/Library/DaisyToolchain/0.2.0/arm/arm-none-eabi/include/c++/10.3.1/bits/stl_algobase.h **** #include <bits/move.h> // For std::swap
  71:/Library/DaisyToolchain/0.2.0/arm/arm-none-eabi/include/c++/10.3.1/bits/stl_algobase.h **** #include <bits/predefined_ops.h>
  72:/Library/DaisyToolchain/0.2.0/arm/arm-none-eabi/include/c++/10.3.1/bits/stl_algobase.h **** #if __cplusplus >= 201103L
  73:/Library/DaisyToolchain/0.2.0/arm/arm-none-eabi/include/c++/10.3.1/bits/stl_algobase.h **** # include <type_traits>
  74:/Library/DaisyToolchain/0.2.0/arm/arm-none-eabi/include/c++/10.3.1/bits/stl_algobase.h **** #endif
  75:/Library/DaisyToolchain/0.2.0/arm/arm-none-eabi/include/c++/10.3.1/bits/stl_algobase.h **** #if __cplusplus > 201703L
  76:/Library/DaisyToolchain/0.2.0/arm/arm-none-eabi/include/c++/10.3.1/bits/stl_algobase.h **** # include <compare>
  77:/Library/DaisyToolchain/0.2.0/arm/arm-none-eabi/include/c++/10.3.1/bits/stl_algobase.h **** #endif
  78:/Library/DaisyToolchain/0.2.0/arm/arm-none-eabi/include/c++/10.3.1/bits/stl_algobase.h **** 
  79:/Library/DaisyToolchain/0.2.0/arm/arm-none-eabi/include/c++/10.3.1/bits/stl_algobase.h **** namespace std _GLIBCXX_VISIBILITY(default)
  80:/Library/DaisyToolchain/0.2.0/arm/arm-none-eabi/include/c++/10.3.1/bits/stl_algobase.h **** {
  81:/Library/DaisyToolchain/0.2.0/arm/arm-none-eabi/include/c++/10.3.1/bits/stl_algobase.h **** _GLIBCXX_BEGIN_NAMESPACE_VERSION
  82:/Library/DaisyToolchain/0.2.0/arm/arm-none-eabi/include/c++/10.3.1/bits/stl_algobase.h **** 
  83:/Library/DaisyToolchain/0.2.0/arm/arm-none-eabi/include/c++/10.3.1/bits/stl_algobase.h ****   /*
  84:/Library/DaisyToolchain/0.2.0/arm/arm-none-eabi/include/c++/10.3.1/bits/stl_algobase.h ****    * A constexpr wrapper for __builtin_memcmp.
  85:/Library/DaisyToolchain/0.2.0/arm/arm-none-eabi/include/c++/10.3.1/bits/stl_algobase.h ****    * @param __num The number of elements of type _Tp (not bytes).
  86:/Library/DaisyToolchain/0.2.0/arm/arm-none-eabi/include/c++/10.3.1/bits/stl_algobase.h ****    */
  87:/Library/DaisyToolchain/0.2.0/arm/arm-none-eabi/include/c++/10.3.1/bits/stl_algobase.h ****   template<typename _Tp, typename _Up>
  88:/Library/DaisyToolchain/0.2.0/arm/arm-none-eabi/include/c++/10.3.1/bits/stl_algobase.h ****     _GLIBCXX14_CONSTEXPR
  89:/Library/DaisyToolchain/0.2.0/arm/arm-none-eabi/include/c++/10.3.1/bits/stl_algobase.h ****     inline int
  90:/Library/DaisyToolchain/0.2.0/arm/arm-none-eabi/include/c++/10.3.1/bits/stl_algobase.h ****     __memcmp(const _Tp* __first1, const _Up* __first2, size_t __num)
  91:/Library/DaisyToolchain/0.2.0/arm/arm-none-eabi/include/c++/10.3.1/bits/stl_algobase.h ****     {
  92:/Library/DaisyToolchain/0.2.0/arm/arm-none-eabi/include/c++/10.3.1/bits/stl_algobase.h **** #if __cplusplus >= 201103L
  93:/Library/DaisyToolchain/0.2.0/arm/arm-none-eabi/include/c++/10.3.1/bits/stl_algobase.h ****       static_assert(sizeof(_Tp) == sizeof(_Up), "can be compared with memcmp");
  94:/Library/DaisyToolchain/0.2.0/arm/arm-none-eabi/include/c++/10.3.1/bits/stl_algobase.h **** #endif
  95:/Library/DaisyToolchain/0.2.0/arm/arm-none-eabi/include/c++/10.3.1/bits/stl_algobase.h **** #ifdef __cpp_lib_is_constant_evaluated
  96:/Library/DaisyToolchain/0.2.0/arm/arm-none-eabi/include/c++/10.3.1/bits/stl_algobase.h ****       if (std::is_constant_evaluated())
  97:/Library/DaisyToolchain/0.2.0/arm/arm-none-eabi/include/c++/10.3.1/bits/stl_algobase.h **** 	{
  98:/Library/DaisyToolchain/0.2.0/arm/arm-none-eabi/include/c++/10.3.1/bits/stl_algobase.h **** 	  for(; __num > 0; ++__first1, ++__first2, --__num)
  99:/Library/DaisyToolchain/0.2.0/arm/arm-none-eabi/include/c++/10.3.1/bits/stl_algobase.h **** 	    if (*__first1 != *__first2)
 100:/Library/DaisyToolchain/0.2.0/arm/arm-none-eabi/include/c++/10.3.1/bits/stl_algobase.h **** 	      return *__first1 < *__first2 ? -1 : 1;
 101:/Library/DaisyToolchain/0.2.0/arm/arm-none-eabi/include/c++/10.3.1/bits/stl_algobase.h **** 	  return 0;
 102:/Library/DaisyToolchain/0.2.0/arm/arm-none-eabi/include/c++/10.3.1/bits/stl_algobase.h **** 	}
 103:/Library/DaisyToolchain/0.2.0/arm/arm-none-eabi/include/c++/10.3.1/bits/stl_algobase.h ****       else
 104:/Library/DaisyToolchain/0.2.0/arm/arm-none-eabi/include/c++/10.3.1/bits/stl_algobase.h **** #endif
 105:/Library/DaisyToolchain/0.2.0/arm/arm-none-eabi/include/c++/10.3.1/bits/stl_algobase.h **** 	return __builtin_memcmp(__first1, __first2, sizeof(_Tp) * __num);
 106:/Library/DaisyToolchain/0.2.0/arm/arm-none-eabi/include/c++/10.3.1/bits/stl_algobase.h ****     }
 107:/Library/DaisyToolchain/0.2.0/arm/arm-none-eabi/include/c++/10.3.1/bits/stl_algobase.h **** 
 108:/Library/DaisyToolchain/0.2.0/arm/arm-none-eabi/include/c++/10.3.1/bits/stl_algobase.h **** #if __cplusplus < 201103L
 109:/Library/DaisyToolchain/0.2.0/arm/arm-none-eabi/include/c++/10.3.1/bits/stl_algobase.h ****   // See http://gcc.gnu.org/ml/libstdc++/2004-08/msg00167.html: in a
 110:/Library/DaisyToolchain/0.2.0/arm/arm-none-eabi/include/c++/10.3.1/bits/stl_algobase.h ****   // nutshell, we are partially implementing the resolution of DR 187,
ARM GAS  /var/folders/9s/8rp0_f2s1n31qbztm3b5_fdh0000gn/T//ccrjzSP7.s 			page 29


 111:/Library/DaisyToolchain/0.2.0/arm/arm-none-eabi/include/c++/10.3.1/bits/stl_algobase.h ****   // when it's safe, i.e., the value_types are equal.
 112:/Library/DaisyToolchain/0.2.0/arm/arm-none-eabi/include/c++/10.3.1/bits/stl_algobase.h ****   template<bool _BoolType>
 113:/Library/DaisyToolchain/0.2.0/arm/arm-none-eabi/include/c++/10.3.1/bits/stl_algobase.h ****     struct __iter_swap
 114:/Library/DaisyToolchain/0.2.0/arm/arm-none-eabi/include/c++/10.3.1/bits/stl_algobase.h ****     {
 115:/Library/DaisyToolchain/0.2.0/arm/arm-none-eabi/include/c++/10.3.1/bits/stl_algobase.h ****       template<typename _ForwardIterator1, typename _ForwardIterator2>
 116:/Library/DaisyToolchain/0.2.0/arm/arm-none-eabi/include/c++/10.3.1/bits/stl_algobase.h **** 	static void
 117:/Library/DaisyToolchain/0.2.0/arm/arm-none-eabi/include/c++/10.3.1/bits/stl_algobase.h **** 	iter_swap(_ForwardIterator1 __a, _ForwardIterator2 __b)
 118:/Library/DaisyToolchain/0.2.0/arm/arm-none-eabi/include/c++/10.3.1/bits/stl_algobase.h **** 	{
 119:/Library/DaisyToolchain/0.2.0/arm/arm-none-eabi/include/c++/10.3.1/bits/stl_algobase.h **** 	  typedef typename iterator_traits<_ForwardIterator1>::value_type
 120:/Library/DaisyToolchain/0.2.0/arm/arm-none-eabi/include/c++/10.3.1/bits/stl_algobase.h **** 	    _ValueType1;
 121:/Library/DaisyToolchain/0.2.0/arm/arm-none-eabi/include/c++/10.3.1/bits/stl_algobase.h **** 	  _ValueType1 __tmp = *__a;
 122:/Library/DaisyToolchain/0.2.0/arm/arm-none-eabi/include/c++/10.3.1/bits/stl_algobase.h **** 	  *__a = *__b;
 123:/Library/DaisyToolchain/0.2.0/arm/arm-none-eabi/include/c++/10.3.1/bits/stl_algobase.h **** 	  *__b = __tmp;
 124:/Library/DaisyToolchain/0.2.0/arm/arm-none-eabi/include/c++/10.3.1/bits/stl_algobase.h **** 	}
 125:/Library/DaisyToolchain/0.2.0/arm/arm-none-eabi/include/c++/10.3.1/bits/stl_algobase.h ****     };
 126:/Library/DaisyToolchain/0.2.0/arm/arm-none-eabi/include/c++/10.3.1/bits/stl_algobase.h **** 
 127:/Library/DaisyToolchain/0.2.0/arm/arm-none-eabi/include/c++/10.3.1/bits/stl_algobase.h ****   template<>
 128:/Library/DaisyToolchain/0.2.0/arm/arm-none-eabi/include/c++/10.3.1/bits/stl_algobase.h ****     struct __iter_swap<true>
 129:/Library/DaisyToolchain/0.2.0/arm/arm-none-eabi/include/c++/10.3.1/bits/stl_algobase.h ****     {
 130:/Library/DaisyToolchain/0.2.0/arm/arm-none-eabi/include/c++/10.3.1/bits/stl_algobase.h ****       template<typename _ForwardIterator1, typename _ForwardIterator2>
 131:/Library/DaisyToolchain/0.2.0/arm/arm-none-eabi/include/c++/10.3.1/bits/stl_algobase.h **** 	static void
 132:/Library/DaisyToolchain/0.2.0/arm/arm-none-eabi/include/c++/10.3.1/bits/stl_algobase.h **** 	iter_swap(_ForwardIterator1 __a, _ForwardIterator2 __b)
 133:/Library/DaisyToolchain/0.2.0/arm/arm-none-eabi/include/c++/10.3.1/bits/stl_algobase.h **** 	{
 134:/Library/DaisyToolchain/0.2.0/arm/arm-none-eabi/include/c++/10.3.1/bits/stl_algobase.h **** 	  swap(*__a, *__b);
 135:/Library/DaisyToolchain/0.2.0/arm/arm-none-eabi/include/c++/10.3.1/bits/stl_algobase.h **** 	}
 136:/Library/DaisyToolchain/0.2.0/arm/arm-none-eabi/include/c++/10.3.1/bits/stl_algobase.h ****     };
 137:/Library/DaisyToolchain/0.2.0/arm/arm-none-eabi/include/c++/10.3.1/bits/stl_algobase.h **** #endif // C++03
 138:/Library/DaisyToolchain/0.2.0/arm/arm-none-eabi/include/c++/10.3.1/bits/stl_algobase.h **** 
 139:/Library/DaisyToolchain/0.2.0/arm/arm-none-eabi/include/c++/10.3.1/bits/stl_algobase.h ****   /**
 140:/Library/DaisyToolchain/0.2.0/arm/arm-none-eabi/include/c++/10.3.1/bits/stl_algobase.h ****    *  @brief Swaps the contents of two iterators.
 141:/Library/DaisyToolchain/0.2.0/arm/arm-none-eabi/include/c++/10.3.1/bits/stl_algobase.h ****    *  @ingroup mutating_algorithms
 142:/Library/DaisyToolchain/0.2.0/arm/arm-none-eabi/include/c++/10.3.1/bits/stl_algobase.h ****    *  @param  __a  An iterator.
 143:/Library/DaisyToolchain/0.2.0/arm/arm-none-eabi/include/c++/10.3.1/bits/stl_algobase.h ****    *  @param  __b  Another iterator.
 144:/Library/DaisyToolchain/0.2.0/arm/arm-none-eabi/include/c++/10.3.1/bits/stl_algobase.h ****    *  @return   Nothing.
 145:/Library/DaisyToolchain/0.2.0/arm/arm-none-eabi/include/c++/10.3.1/bits/stl_algobase.h ****    *
 146:/Library/DaisyToolchain/0.2.0/arm/arm-none-eabi/include/c++/10.3.1/bits/stl_algobase.h ****    *  This function swaps the values pointed to by two iterators, not the
 147:/Library/DaisyToolchain/0.2.0/arm/arm-none-eabi/include/c++/10.3.1/bits/stl_algobase.h ****    *  iterators themselves.
 148:/Library/DaisyToolchain/0.2.0/arm/arm-none-eabi/include/c++/10.3.1/bits/stl_algobase.h ****   */
 149:/Library/DaisyToolchain/0.2.0/arm/arm-none-eabi/include/c++/10.3.1/bits/stl_algobase.h ****   template<typename _ForwardIterator1, typename _ForwardIterator2>
 150:/Library/DaisyToolchain/0.2.0/arm/arm-none-eabi/include/c++/10.3.1/bits/stl_algobase.h ****     _GLIBCXX20_CONSTEXPR
 151:/Library/DaisyToolchain/0.2.0/arm/arm-none-eabi/include/c++/10.3.1/bits/stl_algobase.h ****     inline void
 152:/Library/DaisyToolchain/0.2.0/arm/arm-none-eabi/include/c++/10.3.1/bits/stl_algobase.h ****     iter_swap(_ForwardIterator1 __a, _ForwardIterator2 __b)
 153:/Library/DaisyToolchain/0.2.0/arm/arm-none-eabi/include/c++/10.3.1/bits/stl_algobase.h ****     {
 154:/Library/DaisyToolchain/0.2.0/arm/arm-none-eabi/include/c++/10.3.1/bits/stl_algobase.h ****       // concept requirements
 155:/Library/DaisyToolchain/0.2.0/arm/arm-none-eabi/include/c++/10.3.1/bits/stl_algobase.h ****       __glibcxx_function_requires(_Mutable_ForwardIteratorConcept<
 156:/Library/DaisyToolchain/0.2.0/arm/arm-none-eabi/include/c++/10.3.1/bits/stl_algobase.h **** 				  _ForwardIterator1>)
 157:/Library/DaisyToolchain/0.2.0/arm/arm-none-eabi/include/c++/10.3.1/bits/stl_algobase.h ****       __glibcxx_function_requires(_Mutable_ForwardIteratorConcept<
 158:/Library/DaisyToolchain/0.2.0/arm/arm-none-eabi/include/c++/10.3.1/bits/stl_algobase.h **** 				  _ForwardIterator2>)
 159:/Library/DaisyToolchain/0.2.0/arm/arm-none-eabi/include/c++/10.3.1/bits/stl_algobase.h **** 
 160:/Library/DaisyToolchain/0.2.0/arm/arm-none-eabi/include/c++/10.3.1/bits/stl_algobase.h **** #if __cplusplus < 201103L
 161:/Library/DaisyToolchain/0.2.0/arm/arm-none-eabi/include/c++/10.3.1/bits/stl_algobase.h ****       typedef typename iterator_traits<_ForwardIterator1>::value_type
 162:/Library/DaisyToolchain/0.2.0/arm/arm-none-eabi/include/c++/10.3.1/bits/stl_algobase.h **** 	_ValueType1;
 163:/Library/DaisyToolchain/0.2.0/arm/arm-none-eabi/include/c++/10.3.1/bits/stl_algobase.h ****       typedef typename iterator_traits<_ForwardIterator2>::value_type
 164:/Library/DaisyToolchain/0.2.0/arm/arm-none-eabi/include/c++/10.3.1/bits/stl_algobase.h **** 	_ValueType2;
 165:/Library/DaisyToolchain/0.2.0/arm/arm-none-eabi/include/c++/10.3.1/bits/stl_algobase.h **** 
 166:/Library/DaisyToolchain/0.2.0/arm/arm-none-eabi/include/c++/10.3.1/bits/stl_algobase.h ****       __glibcxx_function_requires(_ConvertibleConcept<_ValueType1,
 167:/Library/DaisyToolchain/0.2.0/arm/arm-none-eabi/include/c++/10.3.1/bits/stl_algobase.h **** 				  _ValueType2>)
ARM GAS  /var/folders/9s/8rp0_f2s1n31qbztm3b5_fdh0000gn/T//ccrjzSP7.s 			page 30


 168:/Library/DaisyToolchain/0.2.0/arm/arm-none-eabi/include/c++/10.3.1/bits/stl_algobase.h ****       __glibcxx_function_requires(_ConvertibleConcept<_ValueType2,
 169:/Library/DaisyToolchain/0.2.0/arm/arm-none-eabi/include/c++/10.3.1/bits/stl_algobase.h **** 				  _ValueType1>)
 170:/Library/DaisyToolchain/0.2.0/arm/arm-none-eabi/include/c++/10.3.1/bits/stl_algobase.h **** 
 171:/Library/DaisyToolchain/0.2.0/arm/arm-none-eabi/include/c++/10.3.1/bits/stl_algobase.h ****       typedef typename iterator_traits<_ForwardIterator1>::reference
 172:/Library/DaisyToolchain/0.2.0/arm/arm-none-eabi/include/c++/10.3.1/bits/stl_algobase.h **** 	_ReferenceType1;
 173:/Library/DaisyToolchain/0.2.0/arm/arm-none-eabi/include/c++/10.3.1/bits/stl_algobase.h ****       typedef typename iterator_traits<_ForwardIterator2>::reference
 174:/Library/DaisyToolchain/0.2.0/arm/arm-none-eabi/include/c++/10.3.1/bits/stl_algobase.h **** 	_ReferenceType2;
 175:/Library/DaisyToolchain/0.2.0/arm/arm-none-eabi/include/c++/10.3.1/bits/stl_algobase.h ****       std::__iter_swap<__are_same<_ValueType1, _ValueType2>::__value
 176:/Library/DaisyToolchain/0.2.0/arm/arm-none-eabi/include/c++/10.3.1/bits/stl_algobase.h **** 	&& __are_same<_ValueType1&, _ReferenceType1>::__value
 177:/Library/DaisyToolchain/0.2.0/arm/arm-none-eabi/include/c++/10.3.1/bits/stl_algobase.h **** 	&& __are_same<_ValueType2&, _ReferenceType2>::__value>::
 178:/Library/DaisyToolchain/0.2.0/arm/arm-none-eabi/include/c++/10.3.1/bits/stl_algobase.h **** 	iter_swap(__a, __b);
 179:/Library/DaisyToolchain/0.2.0/arm/arm-none-eabi/include/c++/10.3.1/bits/stl_algobase.h **** #else
 180:/Library/DaisyToolchain/0.2.0/arm/arm-none-eabi/include/c++/10.3.1/bits/stl_algobase.h ****       // _GLIBCXX_RESOLVE_LIB_DEFECTS
 181:/Library/DaisyToolchain/0.2.0/arm/arm-none-eabi/include/c++/10.3.1/bits/stl_algobase.h ****       // 187. iter_swap underspecified
 182:/Library/DaisyToolchain/0.2.0/arm/arm-none-eabi/include/c++/10.3.1/bits/stl_algobase.h ****       swap(*__a, *__b);
 183:/Library/DaisyToolchain/0.2.0/arm/arm-none-eabi/include/c++/10.3.1/bits/stl_algobase.h **** #endif
 184:/Library/DaisyToolchain/0.2.0/arm/arm-none-eabi/include/c++/10.3.1/bits/stl_algobase.h ****     }
 185:/Library/DaisyToolchain/0.2.0/arm/arm-none-eabi/include/c++/10.3.1/bits/stl_algobase.h **** 
 186:/Library/DaisyToolchain/0.2.0/arm/arm-none-eabi/include/c++/10.3.1/bits/stl_algobase.h ****   /**
 187:/Library/DaisyToolchain/0.2.0/arm/arm-none-eabi/include/c++/10.3.1/bits/stl_algobase.h ****    *  @brief Swap the elements of two sequences.
 188:/Library/DaisyToolchain/0.2.0/arm/arm-none-eabi/include/c++/10.3.1/bits/stl_algobase.h ****    *  @ingroup mutating_algorithms
 189:/Library/DaisyToolchain/0.2.0/arm/arm-none-eabi/include/c++/10.3.1/bits/stl_algobase.h ****    *  @param  __first1  A forward iterator.
 190:/Library/DaisyToolchain/0.2.0/arm/arm-none-eabi/include/c++/10.3.1/bits/stl_algobase.h ****    *  @param  __last1   A forward iterator.
 191:/Library/DaisyToolchain/0.2.0/arm/arm-none-eabi/include/c++/10.3.1/bits/stl_algobase.h ****    *  @param  __first2  A forward iterator.
 192:/Library/DaisyToolchain/0.2.0/arm/arm-none-eabi/include/c++/10.3.1/bits/stl_algobase.h ****    *  @return   An iterator equal to @p first2+(last1-first1).
 193:/Library/DaisyToolchain/0.2.0/arm/arm-none-eabi/include/c++/10.3.1/bits/stl_algobase.h ****    *
 194:/Library/DaisyToolchain/0.2.0/arm/arm-none-eabi/include/c++/10.3.1/bits/stl_algobase.h ****    *  Swaps each element in the range @p [first1,last1) with the
 195:/Library/DaisyToolchain/0.2.0/arm/arm-none-eabi/include/c++/10.3.1/bits/stl_algobase.h ****    *  corresponding element in the range @p [first2,(last1-first1)).
 196:/Library/DaisyToolchain/0.2.0/arm/arm-none-eabi/include/c++/10.3.1/bits/stl_algobase.h ****    *  The ranges must not overlap.
 197:/Library/DaisyToolchain/0.2.0/arm/arm-none-eabi/include/c++/10.3.1/bits/stl_algobase.h ****   */
 198:/Library/DaisyToolchain/0.2.0/arm/arm-none-eabi/include/c++/10.3.1/bits/stl_algobase.h ****   template<typename _ForwardIterator1, typename _ForwardIterator2>
 199:/Library/DaisyToolchain/0.2.0/arm/arm-none-eabi/include/c++/10.3.1/bits/stl_algobase.h ****     _GLIBCXX20_CONSTEXPR
 200:/Library/DaisyToolchain/0.2.0/arm/arm-none-eabi/include/c++/10.3.1/bits/stl_algobase.h ****     _ForwardIterator2
 201:/Library/DaisyToolchain/0.2.0/arm/arm-none-eabi/include/c++/10.3.1/bits/stl_algobase.h ****     swap_ranges(_ForwardIterator1 __first1, _ForwardIterator1 __last1,
 202:/Library/DaisyToolchain/0.2.0/arm/arm-none-eabi/include/c++/10.3.1/bits/stl_algobase.h **** 		_ForwardIterator2 __first2)
 203:/Library/DaisyToolchain/0.2.0/arm/arm-none-eabi/include/c++/10.3.1/bits/stl_algobase.h ****     {
 204:/Library/DaisyToolchain/0.2.0/arm/arm-none-eabi/include/c++/10.3.1/bits/stl_algobase.h ****       // concept requirements
 205:/Library/DaisyToolchain/0.2.0/arm/arm-none-eabi/include/c++/10.3.1/bits/stl_algobase.h ****       __glibcxx_function_requires(_Mutable_ForwardIteratorConcept<
 206:/Library/DaisyToolchain/0.2.0/arm/arm-none-eabi/include/c++/10.3.1/bits/stl_algobase.h **** 				  _ForwardIterator1>)
 207:/Library/DaisyToolchain/0.2.0/arm/arm-none-eabi/include/c++/10.3.1/bits/stl_algobase.h ****       __glibcxx_function_requires(_Mutable_ForwardIteratorConcept<
 208:/Library/DaisyToolchain/0.2.0/arm/arm-none-eabi/include/c++/10.3.1/bits/stl_algobase.h **** 				  _ForwardIterator2>)
 209:/Library/DaisyToolchain/0.2.0/arm/arm-none-eabi/include/c++/10.3.1/bits/stl_algobase.h ****       __glibcxx_requires_valid_range(__first1, __last1);
 210:/Library/DaisyToolchain/0.2.0/arm/arm-none-eabi/include/c++/10.3.1/bits/stl_algobase.h **** 
 211:/Library/DaisyToolchain/0.2.0/arm/arm-none-eabi/include/c++/10.3.1/bits/stl_algobase.h ****       for (; __first1 != __last1; ++__first1, (void)++__first2)
 212:/Library/DaisyToolchain/0.2.0/arm/arm-none-eabi/include/c++/10.3.1/bits/stl_algobase.h **** 	std::iter_swap(__first1, __first2);
 213:/Library/DaisyToolchain/0.2.0/arm/arm-none-eabi/include/c++/10.3.1/bits/stl_algobase.h ****       return __first2;
 214:/Library/DaisyToolchain/0.2.0/arm/arm-none-eabi/include/c++/10.3.1/bits/stl_algobase.h ****     }
 215:/Library/DaisyToolchain/0.2.0/arm/arm-none-eabi/include/c++/10.3.1/bits/stl_algobase.h **** 
 216:/Library/DaisyToolchain/0.2.0/arm/arm-none-eabi/include/c++/10.3.1/bits/stl_algobase.h ****   /**
 217:/Library/DaisyToolchain/0.2.0/arm/arm-none-eabi/include/c++/10.3.1/bits/stl_algobase.h ****    *  @brief This does what you think it does.
 218:/Library/DaisyToolchain/0.2.0/arm/arm-none-eabi/include/c++/10.3.1/bits/stl_algobase.h ****    *  @ingroup sorting_algorithms
 219:/Library/DaisyToolchain/0.2.0/arm/arm-none-eabi/include/c++/10.3.1/bits/stl_algobase.h ****    *  @param  __a  A thing of arbitrary type.
 220:/Library/DaisyToolchain/0.2.0/arm/arm-none-eabi/include/c++/10.3.1/bits/stl_algobase.h ****    *  @param  __b  Another thing of arbitrary type.
 221:/Library/DaisyToolchain/0.2.0/arm/arm-none-eabi/include/c++/10.3.1/bits/stl_algobase.h ****    *  @return   The lesser of the parameters.
 222:/Library/DaisyToolchain/0.2.0/arm/arm-none-eabi/include/c++/10.3.1/bits/stl_algobase.h ****    *
 223:/Library/DaisyToolchain/0.2.0/arm/arm-none-eabi/include/c++/10.3.1/bits/stl_algobase.h ****    *  This is the simple classic generic implementation.  It will work on
 224:/Library/DaisyToolchain/0.2.0/arm/arm-none-eabi/include/c++/10.3.1/bits/stl_algobase.h ****    *  temporary expressions, since they are only evaluated once, unlike a
ARM GAS  /var/folders/9s/8rp0_f2s1n31qbztm3b5_fdh0000gn/T//ccrjzSP7.s 			page 31


 225:/Library/DaisyToolchain/0.2.0/arm/arm-none-eabi/include/c++/10.3.1/bits/stl_algobase.h ****    *  preprocessor macro.
 226:/Library/DaisyToolchain/0.2.0/arm/arm-none-eabi/include/c++/10.3.1/bits/stl_algobase.h ****   */
 227:/Library/DaisyToolchain/0.2.0/arm/arm-none-eabi/include/c++/10.3.1/bits/stl_algobase.h ****   template<typename _Tp>
 228:/Library/DaisyToolchain/0.2.0/arm/arm-none-eabi/include/c++/10.3.1/bits/stl_algobase.h ****     _GLIBCXX14_CONSTEXPR
 229:/Library/DaisyToolchain/0.2.0/arm/arm-none-eabi/include/c++/10.3.1/bits/stl_algobase.h ****     inline const _Tp&
 230:/Library/DaisyToolchain/0.2.0/arm/arm-none-eabi/include/c++/10.3.1/bits/stl_algobase.h ****     min(const _Tp& __a, const _Tp& __b)
 231:/Library/DaisyToolchain/0.2.0/arm/arm-none-eabi/include/c++/10.3.1/bits/stl_algobase.h ****     {
 232:/Library/DaisyToolchain/0.2.0/arm/arm-none-eabi/include/c++/10.3.1/bits/stl_algobase.h ****       // concept requirements
 233:/Library/DaisyToolchain/0.2.0/arm/arm-none-eabi/include/c++/10.3.1/bits/stl_algobase.h ****       __glibcxx_function_requires(_LessThanComparableConcept<_Tp>)
 234:/Library/DaisyToolchain/0.2.0/arm/arm-none-eabi/include/c++/10.3.1/bits/stl_algobase.h ****       //return __b < __a ? __b : __a;
 235:/Library/DaisyToolchain/0.2.0/arm/arm-none-eabi/include/c++/10.3.1/bits/stl_algobase.h ****       if (__b < __a)
 773              		.loc 8 235 7 view .LVU219
 774 00d6 DFEDC1DA 		vldr.32	s27, .L70+36
 775              	.LBE176:
 776              	.LBE175:
 777              		.loc 3 105 26 view .LVU220
 778 00da 27EE8B0A 		vmul.f32	s0, s15, s22
 779              	.LVL44:
 780              	.LBB178:
 781              	.LBI175:
 230:/Library/DaisyToolchain/0.2.0/arm/arm-none-eabi/include/c++/10.3.1/bits/stl_algobase.h ****     {
 782              		.loc 8 230 5 is_stmt 1 view .LVU221
 783              	.LBB177:
 236:/Library/DaisyToolchain/0.2.0/arm/arm-none-eabi/include/c++/10.3.1/bits/stl_algobase.h **** 	return __b;
 784              		.loc 8 236 9 is_stmt 0 view .LVU222
 785 00de B4EE6D0A 		vcmp.f32	s0, s27
 786 00e2 F1EE10FA 		vmrs	APSR_nzcv, FPSCR
 787 00e6 3DFE800A 		vselgt.f32	s0, s27, s0
 788              	.LVL45:
 789              		.loc 8 236 9 view .LVU223
 790              	.LBE177:
 791              	.LBE178:
 792              		.loc 3 105 12 view .LVU224
 793 00ea ABEC010A 		vstmia.32	fp!, {s0}
 106:eurorack/plaits/dsp/drums/analog_snare_drum.h ****       resonator_[i].set_f_q<stmlib::FREQUENCY_FAST>(
 794              		.loc 3 106 7 is_stmt 1 view .LVU225
 107:eurorack/plaits/dsp/drums/analog_snare_drum.h ****           f[i],
 108:eurorack/plaits/dsp/drums/analog_snare_drum.h ****           1.0f + f[i] * (i == 0 ? q : q * 0.25f));
 795              		.loc 3 108 33 is_stmt 0 view .LVU226
 796 00ee 002D     		cmp	r5, #0
 797 00f0 00F02081 		beq	.L52
 798              		.loc 3 108 33 discriminator 1 view .LVU227
 799 00f4 B5EE007A 		vmov.f32	s14, #2.5e-1
 800 00f8 2DEE077A 		vmul.f32	s14, s26, s14
 801              	.L25:
 106:eurorack/plaits/dsp/drums/analog_snare_drum.h ****       resonator_[i].set_f_q<stmlib::FREQUENCY_FAST>(
 802              		.loc 3 106 52 discriminator 4 view .LVU228
 803 00fc F0EE680A 		vmov.f32	s1, s17
 104:eurorack/plaits/dsp/drums/analog_snare_drum.h ****       f[i] = std::min(f0 * kModeFrequencies[i], 0.499f);
 804              		.loc 3 104 5 discriminator 4 view .LVU229
 805 0100 0135     		adds	r5, r5, #1
 806              	.LVL46:
 106:eurorack/plaits/dsp/drums/analog_snare_drum.h ****       resonator_[i].set_f_q<stmlib::FREQUENCY_FAST>(
 807              		.loc 3 106 52 discriminator 4 view .LVU230
 808 0102 4846     		mov	r0, r9
 104:eurorack/plaits/dsp/drums/analog_snare_drum.h ****       f[i] = std::min(f0 * kModeFrequencies[i], 0.499f);
 809              		.loc 3 104 23 discriminator 4 view .LVU231
ARM GAS  /var/folders/9s/8rp0_f2s1n31qbztm3b5_fdh0000gn/T//ccrjzSP7.s 			page 32


 810 0104 09F11409 		add	r9, r9, #20
 106:eurorack/plaits/dsp/drums/analog_snare_drum.h ****       resonator_[i].set_f_q<stmlib::FREQUENCY_FAST>(
 811              		.loc 3 106 52 discriminator 4 view .LVU232
 812 0108 E0EE070A 		vfma.f32	s1, s0, s14
 813 010c FFF7FEFF 		bl	_ZN6stmlib3Svf7set_f_qILNS_22FrequencyApproximationE2EEEvff
 814              	.LVL47:
 104:eurorack/plaits/dsp/drums/analog_snare_drum.h ****       f[i] = std::min(f0 * kModeFrequencies[i], 0.499f);
 815              		.loc 3 104 5 is_stmt 1 discriminator 4 view .LVU233
 104:eurorack/plaits/dsp/drums/analog_snare_drum.h ****       f[i] = std::min(f0 * kModeFrequencies[i], 0.499f);
 816              		.loc 3 104 23 discriminator 4 view .LVU234
 817 0110 052D     		cmp	r5, #5
 818 0112 DED1     		bne	.L26
 819              	.LBE174:
 109:eurorack/plaits/dsp/drums/analog_snare_drum.h ****     }
 110:eurorack/plaits/dsp/drums/analog_snare_drum.h ****     
 111:eurorack/plaits/dsp/drums/analog_snare_drum.h ****     if (tone < 0.666667f) {
 820              		.loc 3 111 5 view .LVU235
 821              	.LBB179:
 822 0114 9FEDB21A 		vldr.32	s2, .L70+40
 823 0118 B7EE087A 		vmov.f32	s14, #1.5e+0
 824 011c B4EEC18A 		vcmpe.f32	s16, s2
 825 0120 F1EE10FA 		vmrs	APSR_nzcv, FPSCR
 826 0124 40F10981 		bpl	.L67
 112:eurorack/plaits/dsp/drums/analog_snare_drum.h ****       // 808-style (2 modes)
 113:eurorack/plaits/dsp/drums/analog_snare_drum.h ****       tone *= 1.5f;
 827              		.loc 3 113 7 view .LVU236
 828              		.loc 3 113 12 is_stmt 0 view .LVU237
 829 0128 28EE078A 		vmul.f32	s16, s16, s14
 830              	.LVL48:
 114:eurorack/plaits/dsp/drums/analog_snare_drum.h ****       gain[0] = 1.5f + (1.0f - tone) * (1.0f - tone) * 4.5f;
 831              		.loc 3 114 7 is_stmt 1 view .LVU238
 832              	.LBB180:
 833              	.LBB181:
 834              	.LBB182:
 835              	.LBB183:
 237:/Library/DaisyToolchain/0.2.0/arm/arm-none-eabi/include/c++/10.3.1/bits/stl_algobase.h ****       return __a;
 238:/Library/DaisyToolchain/0.2.0/arm/arm-none-eabi/include/c++/10.3.1/bits/stl_algobase.h ****     }
 239:/Library/DaisyToolchain/0.2.0/arm/arm-none-eabi/include/c++/10.3.1/bits/stl_algobase.h **** 
 240:/Library/DaisyToolchain/0.2.0/arm/arm-none-eabi/include/c++/10.3.1/bits/stl_algobase.h ****   /**
 241:/Library/DaisyToolchain/0.2.0/arm/arm-none-eabi/include/c++/10.3.1/bits/stl_algobase.h ****    *  @brief This does what you think it does.
 242:/Library/DaisyToolchain/0.2.0/arm/arm-none-eabi/include/c++/10.3.1/bits/stl_algobase.h ****    *  @ingroup sorting_algorithms
 243:/Library/DaisyToolchain/0.2.0/arm/arm-none-eabi/include/c++/10.3.1/bits/stl_algobase.h ****    *  @param  __a  A thing of arbitrary type.
 244:/Library/DaisyToolchain/0.2.0/arm/arm-none-eabi/include/c++/10.3.1/bits/stl_algobase.h ****    *  @param  __b  Another thing of arbitrary type.
 245:/Library/DaisyToolchain/0.2.0/arm/arm-none-eabi/include/c++/10.3.1/bits/stl_algobase.h ****    *  @return   The greater of the parameters.
 246:/Library/DaisyToolchain/0.2.0/arm/arm-none-eabi/include/c++/10.3.1/bits/stl_algobase.h ****    *
 247:/Library/DaisyToolchain/0.2.0/arm/arm-none-eabi/include/c++/10.3.1/bits/stl_algobase.h ****    *  This is the simple classic generic implementation.  It will work on
 248:/Library/DaisyToolchain/0.2.0/arm/arm-none-eabi/include/c++/10.3.1/bits/stl_algobase.h ****    *  temporary expressions, since they are only evaluated once, unlike a
 249:/Library/DaisyToolchain/0.2.0/arm/arm-none-eabi/include/c++/10.3.1/bits/stl_algobase.h ****    *  preprocessor macro.
 250:/Library/DaisyToolchain/0.2.0/arm/arm-none-eabi/include/c++/10.3.1/bits/stl_algobase.h ****   */
 251:/Library/DaisyToolchain/0.2.0/arm/arm-none-eabi/include/c++/10.3.1/bits/stl_algobase.h ****   template<typename _Tp>
 252:/Library/DaisyToolchain/0.2.0/arm/arm-none-eabi/include/c++/10.3.1/bits/stl_algobase.h ****     _GLIBCXX14_CONSTEXPR
 253:/Library/DaisyToolchain/0.2.0/arm/arm-none-eabi/include/c++/10.3.1/bits/stl_algobase.h ****     inline const _Tp&
 254:/Library/DaisyToolchain/0.2.0/arm/arm-none-eabi/include/c++/10.3.1/bits/stl_algobase.h ****     max(const _Tp& __a, const _Tp& __b)
 255:/Library/DaisyToolchain/0.2.0/arm/arm-none-eabi/include/c++/10.3.1/bits/stl_algobase.h ****     {
 256:/Library/DaisyToolchain/0.2.0/arm/arm-none-eabi/include/c++/10.3.1/bits/stl_algobase.h ****       // concept requirements
 257:/Library/DaisyToolchain/0.2.0/arm/arm-none-eabi/include/c++/10.3.1/bits/stl_algobase.h ****       __glibcxx_function_requires(_LessThanComparableConcept<_Tp>)
 258:/Library/DaisyToolchain/0.2.0/arm/arm-none-eabi/include/c++/10.3.1/bits/stl_algobase.h ****       //return  __a < __b ? __b : __a;
ARM GAS  /var/folders/9s/8rp0_f2s1n31qbztm3b5_fdh0000gn/T//ccrjzSP7.s 			page 33


 259:/Library/DaisyToolchain/0.2.0/arm/arm-none-eabi/include/c++/10.3.1/bits/stl_algobase.h ****       if (__a < __b)
 260:/Library/DaisyToolchain/0.2.0/arm/arm-none-eabi/include/c++/10.3.1/bits/stl_algobase.h **** 	return __b;
 261:/Library/DaisyToolchain/0.2.0/arm/arm-none-eabi/include/c++/10.3.1/bits/stl_algobase.h ****       return __a;
 262:/Library/DaisyToolchain/0.2.0/arm/arm-none-eabi/include/c++/10.3.1/bits/stl_algobase.h ****     }
 263:/Library/DaisyToolchain/0.2.0/arm/arm-none-eabi/include/c++/10.3.1/bits/stl_algobase.h **** 
 264:/Library/DaisyToolchain/0.2.0/arm/arm-none-eabi/include/c++/10.3.1/bits/stl_algobase.h ****   /**
 265:/Library/DaisyToolchain/0.2.0/arm/arm-none-eabi/include/c++/10.3.1/bits/stl_algobase.h ****    *  @brief This does what you think it does.
 266:/Library/DaisyToolchain/0.2.0/arm/arm-none-eabi/include/c++/10.3.1/bits/stl_algobase.h ****    *  @ingroup sorting_algorithms
 267:/Library/DaisyToolchain/0.2.0/arm/arm-none-eabi/include/c++/10.3.1/bits/stl_algobase.h ****    *  @param  __a  A thing of arbitrary type.
 268:/Library/DaisyToolchain/0.2.0/arm/arm-none-eabi/include/c++/10.3.1/bits/stl_algobase.h ****    *  @param  __b  Another thing of arbitrary type.
 269:/Library/DaisyToolchain/0.2.0/arm/arm-none-eabi/include/c++/10.3.1/bits/stl_algobase.h ****    *  @param  __comp  A @link comparison_functors comparison functor@endlink.
 270:/Library/DaisyToolchain/0.2.0/arm/arm-none-eabi/include/c++/10.3.1/bits/stl_algobase.h ****    *  @return   The lesser of the parameters.
 271:/Library/DaisyToolchain/0.2.0/arm/arm-none-eabi/include/c++/10.3.1/bits/stl_algobase.h ****    *
 272:/Library/DaisyToolchain/0.2.0/arm/arm-none-eabi/include/c++/10.3.1/bits/stl_algobase.h ****    *  This will work on temporary expressions, since they are only evaluated
 273:/Library/DaisyToolchain/0.2.0/arm/arm-none-eabi/include/c++/10.3.1/bits/stl_algobase.h ****    *  once, unlike a preprocessor macro.
 274:/Library/DaisyToolchain/0.2.0/arm/arm-none-eabi/include/c++/10.3.1/bits/stl_algobase.h ****   */
 275:/Library/DaisyToolchain/0.2.0/arm/arm-none-eabi/include/c++/10.3.1/bits/stl_algobase.h ****   template<typename _Tp, typename _Compare>
 276:/Library/DaisyToolchain/0.2.0/arm/arm-none-eabi/include/c++/10.3.1/bits/stl_algobase.h ****     _GLIBCXX14_CONSTEXPR
 277:/Library/DaisyToolchain/0.2.0/arm/arm-none-eabi/include/c++/10.3.1/bits/stl_algobase.h ****     inline const _Tp&
 278:/Library/DaisyToolchain/0.2.0/arm/arm-none-eabi/include/c++/10.3.1/bits/stl_algobase.h ****     min(const _Tp& __a, const _Tp& __b, _Compare __comp)
 279:/Library/DaisyToolchain/0.2.0/arm/arm-none-eabi/include/c++/10.3.1/bits/stl_algobase.h ****     {
 280:/Library/DaisyToolchain/0.2.0/arm/arm-none-eabi/include/c++/10.3.1/bits/stl_algobase.h ****       //return __comp(__b, __a) ? __b : __a;
 281:/Library/DaisyToolchain/0.2.0/arm/arm-none-eabi/include/c++/10.3.1/bits/stl_algobase.h ****       if (__comp(__b, __a))
 282:/Library/DaisyToolchain/0.2.0/arm/arm-none-eabi/include/c++/10.3.1/bits/stl_algobase.h **** 	return __b;
 283:/Library/DaisyToolchain/0.2.0/arm/arm-none-eabi/include/c++/10.3.1/bits/stl_algobase.h ****       return __a;
 284:/Library/DaisyToolchain/0.2.0/arm/arm-none-eabi/include/c++/10.3.1/bits/stl_algobase.h ****     }
 285:/Library/DaisyToolchain/0.2.0/arm/arm-none-eabi/include/c++/10.3.1/bits/stl_algobase.h **** 
 286:/Library/DaisyToolchain/0.2.0/arm/arm-none-eabi/include/c++/10.3.1/bits/stl_algobase.h ****   /**
 287:/Library/DaisyToolchain/0.2.0/arm/arm-none-eabi/include/c++/10.3.1/bits/stl_algobase.h ****    *  @brief This does what you think it does.
 288:/Library/DaisyToolchain/0.2.0/arm/arm-none-eabi/include/c++/10.3.1/bits/stl_algobase.h ****    *  @ingroup sorting_algorithms
 289:/Library/DaisyToolchain/0.2.0/arm/arm-none-eabi/include/c++/10.3.1/bits/stl_algobase.h ****    *  @param  __a  A thing of arbitrary type.
 290:/Library/DaisyToolchain/0.2.0/arm/arm-none-eabi/include/c++/10.3.1/bits/stl_algobase.h ****    *  @param  __b  Another thing of arbitrary type.
 291:/Library/DaisyToolchain/0.2.0/arm/arm-none-eabi/include/c++/10.3.1/bits/stl_algobase.h ****    *  @param  __comp  A @link comparison_functors comparison functor@endlink.
 292:/Library/DaisyToolchain/0.2.0/arm/arm-none-eabi/include/c++/10.3.1/bits/stl_algobase.h ****    *  @return   The greater of the parameters.
 293:/Library/DaisyToolchain/0.2.0/arm/arm-none-eabi/include/c++/10.3.1/bits/stl_algobase.h ****    *
 294:/Library/DaisyToolchain/0.2.0/arm/arm-none-eabi/include/c++/10.3.1/bits/stl_algobase.h ****    *  This will work on temporary expressions, since they are only evaluated
 295:/Library/DaisyToolchain/0.2.0/arm/arm-none-eabi/include/c++/10.3.1/bits/stl_algobase.h ****    *  once, unlike a preprocessor macro.
 296:/Library/DaisyToolchain/0.2.0/arm/arm-none-eabi/include/c++/10.3.1/bits/stl_algobase.h ****   */
 297:/Library/DaisyToolchain/0.2.0/arm/arm-none-eabi/include/c++/10.3.1/bits/stl_algobase.h ****   template<typename _Tp, typename _Compare>
 298:/Library/DaisyToolchain/0.2.0/arm/arm-none-eabi/include/c++/10.3.1/bits/stl_algobase.h ****     _GLIBCXX14_CONSTEXPR
 299:/Library/DaisyToolchain/0.2.0/arm/arm-none-eabi/include/c++/10.3.1/bits/stl_algobase.h ****     inline const _Tp&
 300:/Library/DaisyToolchain/0.2.0/arm/arm-none-eabi/include/c++/10.3.1/bits/stl_algobase.h ****     max(const _Tp& __a, const _Tp& __b, _Compare __comp)
 301:/Library/DaisyToolchain/0.2.0/arm/arm-none-eabi/include/c++/10.3.1/bits/stl_algobase.h ****     {
 302:/Library/DaisyToolchain/0.2.0/arm/arm-none-eabi/include/c++/10.3.1/bits/stl_algobase.h ****       //return __comp(__a, __b) ? __b : __a;
 303:/Library/DaisyToolchain/0.2.0/arm/arm-none-eabi/include/c++/10.3.1/bits/stl_algobase.h ****       if (__comp(__a, __b))
 304:/Library/DaisyToolchain/0.2.0/arm/arm-none-eabi/include/c++/10.3.1/bits/stl_algobase.h **** 	return __b;
 305:/Library/DaisyToolchain/0.2.0/arm/arm-none-eabi/include/c++/10.3.1/bits/stl_algobase.h ****       return __a;
 306:/Library/DaisyToolchain/0.2.0/arm/arm-none-eabi/include/c++/10.3.1/bits/stl_algobase.h ****     }
 307:/Library/DaisyToolchain/0.2.0/arm/arm-none-eabi/include/c++/10.3.1/bits/stl_algobase.h **** 
 308:/Library/DaisyToolchain/0.2.0/arm/arm-none-eabi/include/c++/10.3.1/bits/stl_algobase.h ****   // Fallback implementation of the function in bits/stl_iterator.h used to
 309:/Library/DaisyToolchain/0.2.0/arm/arm-none-eabi/include/c++/10.3.1/bits/stl_algobase.h ****   // remove the __normal_iterator wrapper. See copy, fill, ...
 310:/Library/DaisyToolchain/0.2.0/arm/arm-none-eabi/include/c++/10.3.1/bits/stl_algobase.h ****   template<typename _Iterator>
 311:/Library/DaisyToolchain/0.2.0/arm/arm-none-eabi/include/c++/10.3.1/bits/stl_algobase.h ****     _GLIBCXX20_CONSTEXPR
 312:/Library/DaisyToolchain/0.2.0/arm/arm-none-eabi/include/c++/10.3.1/bits/stl_algobase.h ****     inline _Iterator
 313:/Library/DaisyToolchain/0.2.0/arm/arm-none-eabi/include/c++/10.3.1/bits/stl_algobase.h ****     __niter_base(_Iterator __it)
 314:/Library/DaisyToolchain/0.2.0/arm/arm-none-eabi/include/c++/10.3.1/bits/stl_algobase.h ****     _GLIBCXX_NOEXCEPT_IF(std::is_nothrow_copy_constructible<_Iterator>::value)
 315:/Library/DaisyToolchain/0.2.0/arm/arm-none-eabi/include/c++/10.3.1/bits/stl_algobase.h ****     { return __it; }
ARM GAS  /var/folders/9s/8rp0_f2s1n31qbztm3b5_fdh0000gn/T//ccrjzSP7.s 			page 34


 316:/Library/DaisyToolchain/0.2.0/arm/arm-none-eabi/include/c++/10.3.1/bits/stl_algobase.h **** 
 317:/Library/DaisyToolchain/0.2.0/arm/arm-none-eabi/include/c++/10.3.1/bits/stl_algobase.h ****   // Reverse the __niter_base transformation to get a
 318:/Library/DaisyToolchain/0.2.0/arm/arm-none-eabi/include/c++/10.3.1/bits/stl_algobase.h ****   // __normal_iterator back again (this assumes that __normal_iterator
 319:/Library/DaisyToolchain/0.2.0/arm/arm-none-eabi/include/c++/10.3.1/bits/stl_algobase.h ****   // is only used to wrap random access iterators, like pointers).
 320:/Library/DaisyToolchain/0.2.0/arm/arm-none-eabi/include/c++/10.3.1/bits/stl_algobase.h ****   template<typename _From, typename _To>
 321:/Library/DaisyToolchain/0.2.0/arm/arm-none-eabi/include/c++/10.3.1/bits/stl_algobase.h ****     _GLIBCXX20_CONSTEXPR
 322:/Library/DaisyToolchain/0.2.0/arm/arm-none-eabi/include/c++/10.3.1/bits/stl_algobase.h ****     inline _From
 323:/Library/DaisyToolchain/0.2.0/arm/arm-none-eabi/include/c++/10.3.1/bits/stl_algobase.h ****     __niter_wrap(_From __from, _To __res)
 324:/Library/DaisyToolchain/0.2.0/arm/arm-none-eabi/include/c++/10.3.1/bits/stl_algobase.h ****     { return __from + (__res - std::__niter_base(__from)); }
 325:/Library/DaisyToolchain/0.2.0/arm/arm-none-eabi/include/c++/10.3.1/bits/stl_algobase.h **** 
 326:/Library/DaisyToolchain/0.2.0/arm/arm-none-eabi/include/c++/10.3.1/bits/stl_algobase.h ****   // No need to wrap, iterator already has the right type.
 327:/Library/DaisyToolchain/0.2.0/arm/arm-none-eabi/include/c++/10.3.1/bits/stl_algobase.h ****   template<typename _Iterator>
 328:/Library/DaisyToolchain/0.2.0/arm/arm-none-eabi/include/c++/10.3.1/bits/stl_algobase.h ****     _GLIBCXX20_CONSTEXPR
 329:/Library/DaisyToolchain/0.2.0/arm/arm-none-eabi/include/c++/10.3.1/bits/stl_algobase.h ****     inline _Iterator
 330:/Library/DaisyToolchain/0.2.0/arm/arm-none-eabi/include/c++/10.3.1/bits/stl_algobase.h ****     __niter_wrap(const _Iterator&, _Iterator __res)
 331:/Library/DaisyToolchain/0.2.0/arm/arm-none-eabi/include/c++/10.3.1/bits/stl_algobase.h ****     { return __res; }
 332:/Library/DaisyToolchain/0.2.0/arm/arm-none-eabi/include/c++/10.3.1/bits/stl_algobase.h **** 
 333:/Library/DaisyToolchain/0.2.0/arm/arm-none-eabi/include/c++/10.3.1/bits/stl_algobase.h ****   // All of these auxiliary structs serve two purposes.  (1) Replace
 334:/Library/DaisyToolchain/0.2.0/arm/arm-none-eabi/include/c++/10.3.1/bits/stl_algobase.h ****   // calls to copy with memmove whenever possible.  (Memmove, not memcpy,
 335:/Library/DaisyToolchain/0.2.0/arm/arm-none-eabi/include/c++/10.3.1/bits/stl_algobase.h ****   // because the input and output ranges are permitted to overlap.)
 336:/Library/DaisyToolchain/0.2.0/arm/arm-none-eabi/include/c++/10.3.1/bits/stl_algobase.h ****   // (2) If we're using random access iterators, then write the loop as
 337:/Library/DaisyToolchain/0.2.0/arm/arm-none-eabi/include/c++/10.3.1/bits/stl_algobase.h ****   // a for loop with an explicit count.
 338:/Library/DaisyToolchain/0.2.0/arm/arm-none-eabi/include/c++/10.3.1/bits/stl_algobase.h **** 
 339:/Library/DaisyToolchain/0.2.0/arm/arm-none-eabi/include/c++/10.3.1/bits/stl_algobase.h ****   template<bool _IsMove, bool _IsSimple, typename _Category>
 340:/Library/DaisyToolchain/0.2.0/arm/arm-none-eabi/include/c++/10.3.1/bits/stl_algobase.h ****     struct __copy_move
 341:/Library/DaisyToolchain/0.2.0/arm/arm-none-eabi/include/c++/10.3.1/bits/stl_algobase.h ****     {
 342:/Library/DaisyToolchain/0.2.0/arm/arm-none-eabi/include/c++/10.3.1/bits/stl_algobase.h ****       template<typename _II, typename _OI>
 343:/Library/DaisyToolchain/0.2.0/arm/arm-none-eabi/include/c++/10.3.1/bits/stl_algobase.h **** 	_GLIBCXX20_CONSTEXPR
 344:/Library/DaisyToolchain/0.2.0/arm/arm-none-eabi/include/c++/10.3.1/bits/stl_algobase.h **** 	static _OI
 345:/Library/DaisyToolchain/0.2.0/arm/arm-none-eabi/include/c++/10.3.1/bits/stl_algobase.h **** 	__copy_m(_II __first, _II __last, _OI __result)
 346:/Library/DaisyToolchain/0.2.0/arm/arm-none-eabi/include/c++/10.3.1/bits/stl_algobase.h **** 	{
 347:/Library/DaisyToolchain/0.2.0/arm/arm-none-eabi/include/c++/10.3.1/bits/stl_algobase.h **** 	  for (; __first != __last; ++__result, (void)++__first)
 348:/Library/DaisyToolchain/0.2.0/arm/arm-none-eabi/include/c++/10.3.1/bits/stl_algobase.h **** 	    *__result = *__first;
 349:/Library/DaisyToolchain/0.2.0/arm/arm-none-eabi/include/c++/10.3.1/bits/stl_algobase.h **** 	  return __result;
 350:/Library/DaisyToolchain/0.2.0/arm/arm-none-eabi/include/c++/10.3.1/bits/stl_algobase.h **** 	}
 351:/Library/DaisyToolchain/0.2.0/arm/arm-none-eabi/include/c++/10.3.1/bits/stl_algobase.h ****     };
 352:/Library/DaisyToolchain/0.2.0/arm/arm-none-eabi/include/c++/10.3.1/bits/stl_algobase.h **** 
 353:/Library/DaisyToolchain/0.2.0/arm/arm-none-eabi/include/c++/10.3.1/bits/stl_algobase.h **** #if __cplusplus >= 201103L
 354:/Library/DaisyToolchain/0.2.0/arm/arm-none-eabi/include/c++/10.3.1/bits/stl_algobase.h ****   template<typename _Category>
 355:/Library/DaisyToolchain/0.2.0/arm/arm-none-eabi/include/c++/10.3.1/bits/stl_algobase.h ****     struct __copy_move<true, false, _Category>
 356:/Library/DaisyToolchain/0.2.0/arm/arm-none-eabi/include/c++/10.3.1/bits/stl_algobase.h ****     {
 357:/Library/DaisyToolchain/0.2.0/arm/arm-none-eabi/include/c++/10.3.1/bits/stl_algobase.h ****       template<typename _II, typename _OI>
 358:/Library/DaisyToolchain/0.2.0/arm/arm-none-eabi/include/c++/10.3.1/bits/stl_algobase.h **** 	_GLIBCXX20_CONSTEXPR
 359:/Library/DaisyToolchain/0.2.0/arm/arm-none-eabi/include/c++/10.3.1/bits/stl_algobase.h **** 	static _OI
 360:/Library/DaisyToolchain/0.2.0/arm/arm-none-eabi/include/c++/10.3.1/bits/stl_algobase.h **** 	__copy_m(_II __first, _II __last, _OI __result)
 361:/Library/DaisyToolchain/0.2.0/arm/arm-none-eabi/include/c++/10.3.1/bits/stl_algobase.h **** 	{
 362:/Library/DaisyToolchain/0.2.0/arm/arm-none-eabi/include/c++/10.3.1/bits/stl_algobase.h **** 	  for (; __first != __last; ++__result, (void)++__first)
 363:/Library/DaisyToolchain/0.2.0/arm/arm-none-eabi/include/c++/10.3.1/bits/stl_algobase.h **** 	    *__result = std::move(*__first);
 364:/Library/DaisyToolchain/0.2.0/arm/arm-none-eabi/include/c++/10.3.1/bits/stl_algobase.h **** 	  return __result;
 365:/Library/DaisyToolchain/0.2.0/arm/arm-none-eabi/include/c++/10.3.1/bits/stl_algobase.h **** 	}
 366:/Library/DaisyToolchain/0.2.0/arm/arm-none-eabi/include/c++/10.3.1/bits/stl_algobase.h ****     };
 367:/Library/DaisyToolchain/0.2.0/arm/arm-none-eabi/include/c++/10.3.1/bits/stl_algobase.h **** #endif
 368:/Library/DaisyToolchain/0.2.0/arm/arm-none-eabi/include/c++/10.3.1/bits/stl_algobase.h **** 
 369:/Library/DaisyToolchain/0.2.0/arm/arm-none-eabi/include/c++/10.3.1/bits/stl_algobase.h ****   template<>
 370:/Library/DaisyToolchain/0.2.0/arm/arm-none-eabi/include/c++/10.3.1/bits/stl_algobase.h ****     struct __copy_move<false, false, random_access_iterator_tag>
 371:/Library/DaisyToolchain/0.2.0/arm/arm-none-eabi/include/c++/10.3.1/bits/stl_algobase.h ****     {
 372:/Library/DaisyToolchain/0.2.0/arm/arm-none-eabi/include/c++/10.3.1/bits/stl_algobase.h ****       template<typename _II, typename _OI>
ARM GAS  /var/folders/9s/8rp0_f2s1n31qbztm3b5_fdh0000gn/T//ccrjzSP7.s 			page 35


 373:/Library/DaisyToolchain/0.2.0/arm/arm-none-eabi/include/c++/10.3.1/bits/stl_algobase.h **** 	_GLIBCXX20_CONSTEXPR
 374:/Library/DaisyToolchain/0.2.0/arm/arm-none-eabi/include/c++/10.3.1/bits/stl_algobase.h **** 	static _OI
 375:/Library/DaisyToolchain/0.2.0/arm/arm-none-eabi/include/c++/10.3.1/bits/stl_algobase.h **** 	__copy_m(_II __first, _II __last, _OI __result)
 376:/Library/DaisyToolchain/0.2.0/arm/arm-none-eabi/include/c++/10.3.1/bits/stl_algobase.h **** 	{
 377:/Library/DaisyToolchain/0.2.0/arm/arm-none-eabi/include/c++/10.3.1/bits/stl_algobase.h **** 	  typedef typename iterator_traits<_II>::difference_type _Distance;
 378:/Library/DaisyToolchain/0.2.0/arm/arm-none-eabi/include/c++/10.3.1/bits/stl_algobase.h **** 	  for(_Distance __n = __last - __first; __n > 0; --__n)
 379:/Library/DaisyToolchain/0.2.0/arm/arm-none-eabi/include/c++/10.3.1/bits/stl_algobase.h **** 	    {
 380:/Library/DaisyToolchain/0.2.0/arm/arm-none-eabi/include/c++/10.3.1/bits/stl_algobase.h **** 	      *__result = *__first;
 381:/Library/DaisyToolchain/0.2.0/arm/arm-none-eabi/include/c++/10.3.1/bits/stl_algobase.h **** 	      ++__first;
 382:/Library/DaisyToolchain/0.2.0/arm/arm-none-eabi/include/c++/10.3.1/bits/stl_algobase.h **** 	      ++__result;
 383:/Library/DaisyToolchain/0.2.0/arm/arm-none-eabi/include/c++/10.3.1/bits/stl_algobase.h **** 	    }
 384:/Library/DaisyToolchain/0.2.0/arm/arm-none-eabi/include/c++/10.3.1/bits/stl_algobase.h **** 	  return __result;
 385:/Library/DaisyToolchain/0.2.0/arm/arm-none-eabi/include/c++/10.3.1/bits/stl_algobase.h **** 	}
 386:/Library/DaisyToolchain/0.2.0/arm/arm-none-eabi/include/c++/10.3.1/bits/stl_algobase.h ****     };
 387:/Library/DaisyToolchain/0.2.0/arm/arm-none-eabi/include/c++/10.3.1/bits/stl_algobase.h **** 
 388:/Library/DaisyToolchain/0.2.0/arm/arm-none-eabi/include/c++/10.3.1/bits/stl_algobase.h **** #if __cplusplus >= 201103L
 389:/Library/DaisyToolchain/0.2.0/arm/arm-none-eabi/include/c++/10.3.1/bits/stl_algobase.h ****   template<>
 390:/Library/DaisyToolchain/0.2.0/arm/arm-none-eabi/include/c++/10.3.1/bits/stl_algobase.h ****     struct __copy_move<true, false, random_access_iterator_tag>
 391:/Library/DaisyToolchain/0.2.0/arm/arm-none-eabi/include/c++/10.3.1/bits/stl_algobase.h ****     {
 392:/Library/DaisyToolchain/0.2.0/arm/arm-none-eabi/include/c++/10.3.1/bits/stl_algobase.h ****       template<typename _II, typename _OI>
 393:/Library/DaisyToolchain/0.2.0/arm/arm-none-eabi/include/c++/10.3.1/bits/stl_algobase.h **** 	_GLIBCXX20_CONSTEXPR
 394:/Library/DaisyToolchain/0.2.0/arm/arm-none-eabi/include/c++/10.3.1/bits/stl_algobase.h **** 	static _OI
 395:/Library/DaisyToolchain/0.2.0/arm/arm-none-eabi/include/c++/10.3.1/bits/stl_algobase.h **** 	__copy_m(_II __first, _II __last, _OI __result)
 396:/Library/DaisyToolchain/0.2.0/arm/arm-none-eabi/include/c++/10.3.1/bits/stl_algobase.h **** 	{
 397:/Library/DaisyToolchain/0.2.0/arm/arm-none-eabi/include/c++/10.3.1/bits/stl_algobase.h **** 	  typedef typename iterator_traits<_II>::difference_type _Distance;
 398:/Library/DaisyToolchain/0.2.0/arm/arm-none-eabi/include/c++/10.3.1/bits/stl_algobase.h **** 	  for(_Distance __n = __last - __first; __n > 0; --__n)
 399:/Library/DaisyToolchain/0.2.0/arm/arm-none-eabi/include/c++/10.3.1/bits/stl_algobase.h **** 	    {
 400:/Library/DaisyToolchain/0.2.0/arm/arm-none-eabi/include/c++/10.3.1/bits/stl_algobase.h **** 	      *__result = std::move(*__first);
 401:/Library/DaisyToolchain/0.2.0/arm/arm-none-eabi/include/c++/10.3.1/bits/stl_algobase.h **** 	      ++__first;
 402:/Library/DaisyToolchain/0.2.0/arm/arm-none-eabi/include/c++/10.3.1/bits/stl_algobase.h **** 	      ++__result;
 403:/Library/DaisyToolchain/0.2.0/arm/arm-none-eabi/include/c++/10.3.1/bits/stl_algobase.h **** 	    }
 404:/Library/DaisyToolchain/0.2.0/arm/arm-none-eabi/include/c++/10.3.1/bits/stl_algobase.h **** 	  return __result;
 405:/Library/DaisyToolchain/0.2.0/arm/arm-none-eabi/include/c++/10.3.1/bits/stl_algobase.h **** 	}
 406:/Library/DaisyToolchain/0.2.0/arm/arm-none-eabi/include/c++/10.3.1/bits/stl_algobase.h ****     };
 407:/Library/DaisyToolchain/0.2.0/arm/arm-none-eabi/include/c++/10.3.1/bits/stl_algobase.h **** #endif
 408:/Library/DaisyToolchain/0.2.0/arm/arm-none-eabi/include/c++/10.3.1/bits/stl_algobase.h **** 
 409:/Library/DaisyToolchain/0.2.0/arm/arm-none-eabi/include/c++/10.3.1/bits/stl_algobase.h ****   template<bool _IsMove>
 410:/Library/DaisyToolchain/0.2.0/arm/arm-none-eabi/include/c++/10.3.1/bits/stl_algobase.h ****     struct __copy_move<_IsMove, true, random_access_iterator_tag>
 411:/Library/DaisyToolchain/0.2.0/arm/arm-none-eabi/include/c++/10.3.1/bits/stl_algobase.h ****     {
 412:/Library/DaisyToolchain/0.2.0/arm/arm-none-eabi/include/c++/10.3.1/bits/stl_algobase.h ****       template<typename _Tp>
 413:/Library/DaisyToolchain/0.2.0/arm/arm-none-eabi/include/c++/10.3.1/bits/stl_algobase.h **** 	_GLIBCXX20_CONSTEXPR
 414:/Library/DaisyToolchain/0.2.0/arm/arm-none-eabi/include/c++/10.3.1/bits/stl_algobase.h **** 	static _Tp*
 415:/Library/DaisyToolchain/0.2.0/arm/arm-none-eabi/include/c++/10.3.1/bits/stl_algobase.h **** 	__copy_m(const _Tp* __first, const _Tp* __last, _Tp* __result)
 416:/Library/DaisyToolchain/0.2.0/arm/arm-none-eabi/include/c++/10.3.1/bits/stl_algobase.h **** 	{
 417:/Library/DaisyToolchain/0.2.0/arm/arm-none-eabi/include/c++/10.3.1/bits/stl_algobase.h **** #if __cplusplus >= 201103L
 418:/Library/DaisyToolchain/0.2.0/arm/arm-none-eabi/include/c++/10.3.1/bits/stl_algobase.h **** 	  using __assignable = conditional<_IsMove,
 419:/Library/DaisyToolchain/0.2.0/arm/arm-none-eabi/include/c++/10.3.1/bits/stl_algobase.h **** 					   is_move_assignable<_Tp>,
 420:/Library/DaisyToolchain/0.2.0/arm/arm-none-eabi/include/c++/10.3.1/bits/stl_algobase.h **** 					   is_copy_assignable<_Tp>>;
 421:/Library/DaisyToolchain/0.2.0/arm/arm-none-eabi/include/c++/10.3.1/bits/stl_algobase.h **** 	  // trivial types can have deleted assignment
 422:/Library/DaisyToolchain/0.2.0/arm/arm-none-eabi/include/c++/10.3.1/bits/stl_algobase.h **** 	  static_assert( __assignable::type::value, "type is not assignable" );
 423:/Library/DaisyToolchain/0.2.0/arm/arm-none-eabi/include/c++/10.3.1/bits/stl_algobase.h **** #endif
 424:/Library/DaisyToolchain/0.2.0/arm/arm-none-eabi/include/c++/10.3.1/bits/stl_algobase.h **** 	  const ptrdiff_t _Num = __last - __first;
 425:/Library/DaisyToolchain/0.2.0/arm/arm-none-eabi/include/c++/10.3.1/bits/stl_algobase.h **** 	  if (_Num)
 426:/Library/DaisyToolchain/0.2.0/arm/arm-none-eabi/include/c++/10.3.1/bits/stl_algobase.h **** 	    __builtin_memmove(__result, __first, sizeof(_Tp) * _Num);
 427:/Library/DaisyToolchain/0.2.0/arm/arm-none-eabi/include/c++/10.3.1/bits/stl_algobase.h **** 	  return __result + _Num;
 428:/Library/DaisyToolchain/0.2.0/arm/arm-none-eabi/include/c++/10.3.1/bits/stl_algobase.h **** 	}
 429:/Library/DaisyToolchain/0.2.0/arm/arm-none-eabi/include/c++/10.3.1/bits/stl_algobase.h ****     };
ARM GAS  /var/folders/9s/8rp0_f2s1n31qbztm3b5_fdh0000gn/T//ccrjzSP7.s 			page 36


 430:/Library/DaisyToolchain/0.2.0/arm/arm-none-eabi/include/c++/10.3.1/bits/stl_algobase.h **** 
 431:/Library/DaisyToolchain/0.2.0/arm/arm-none-eabi/include/c++/10.3.1/bits/stl_algobase.h ****   // Helpers for streambuf iterators (either istream or ostream).
 432:/Library/DaisyToolchain/0.2.0/arm/arm-none-eabi/include/c++/10.3.1/bits/stl_algobase.h ****   // NB: avoid including <iosfwd>, relatively large.
 433:/Library/DaisyToolchain/0.2.0/arm/arm-none-eabi/include/c++/10.3.1/bits/stl_algobase.h ****   template<typename _CharT>
 434:/Library/DaisyToolchain/0.2.0/arm/arm-none-eabi/include/c++/10.3.1/bits/stl_algobase.h ****     struct char_traits;
 435:/Library/DaisyToolchain/0.2.0/arm/arm-none-eabi/include/c++/10.3.1/bits/stl_algobase.h **** 
 436:/Library/DaisyToolchain/0.2.0/arm/arm-none-eabi/include/c++/10.3.1/bits/stl_algobase.h ****   template<typename _CharT, typename _Traits>
 437:/Library/DaisyToolchain/0.2.0/arm/arm-none-eabi/include/c++/10.3.1/bits/stl_algobase.h ****     class istreambuf_iterator;
 438:/Library/DaisyToolchain/0.2.0/arm/arm-none-eabi/include/c++/10.3.1/bits/stl_algobase.h **** 
 439:/Library/DaisyToolchain/0.2.0/arm/arm-none-eabi/include/c++/10.3.1/bits/stl_algobase.h ****   template<typename _CharT, typename _Traits>
 440:/Library/DaisyToolchain/0.2.0/arm/arm-none-eabi/include/c++/10.3.1/bits/stl_algobase.h ****     class ostreambuf_iterator;
 441:/Library/DaisyToolchain/0.2.0/arm/arm-none-eabi/include/c++/10.3.1/bits/stl_algobase.h **** 
 442:/Library/DaisyToolchain/0.2.0/arm/arm-none-eabi/include/c++/10.3.1/bits/stl_algobase.h ****   template<bool _IsMove, typename _CharT>
 443:/Library/DaisyToolchain/0.2.0/arm/arm-none-eabi/include/c++/10.3.1/bits/stl_algobase.h ****     typename __gnu_cxx::__enable_if<__is_char<_CharT>::__value,
 444:/Library/DaisyToolchain/0.2.0/arm/arm-none-eabi/include/c++/10.3.1/bits/stl_algobase.h **** 	     ostreambuf_iterator<_CharT, char_traits<_CharT> > >::__type
 445:/Library/DaisyToolchain/0.2.0/arm/arm-none-eabi/include/c++/10.3.1/bits/stl_algobase.h ****     __copy_move_a2(_CharT*, _CharT*,
 446:/Library/DaisyToolchain/0.2.0/arm/arm-none-eabi/include/c++/10.3.1/bits/stl_algobase.h **** 		   ostreambuf_iterator<_CharT, char_traits<_CharT> >);
 447:/Library/DaisyToolchain/0.2.0/arm/arm-none-eabi/include/c++/10.3.1/bits/stl_algobase.h **** 
 448:/Library/DaisyToolchain/0.2.0/arm/arm-none-eabi/include/c++/10.3.1/bits/stl_algobase.h ****   template<bool _IsMove, typename _CharT>
 449:/Library/DaisyToolchain/0.2.0/arm/arm-none-eabi/include/c++/10.3.1/bits/stl_algobase.h ****     typename __gnu_cxx::__enable_if<__is_char<_CharT>::__value,
 450:/Library/DaisyToolchain/0.2.0/arm/arm-none-eabi/include/c++/10.3.1/bits/stl_algobase.h **** 	     ostreambuf_iterator<_CharT, char_traits<_CharT> > >::__type
 451:/Library/DaisyToolchain/0.2.0/arm/arm-none-eabi/include/c++/10.3.1/bits/stl_algobase.h ****     __copy_move_a2(const _CharT*, const _CharT*,
 452:/Library/DaisyToolchain/0.2.0/arm/arm-none-eabi/include/c++/10.3.1/bits/stl_algobase.h **** 		   ostreambuf_iterator<_CharT, char_traits<_CharT> >);
 453:/Library/DaisyToolchain/0.2.0/arm/arm-none-eabi/include/c++/10.3.1/bits/stl_algobase.h **** 
 454:/Library/DaisyToolchain/0.2.0/arm/arm-none-eabi/include/c++/10.3.1/bits/stl_algobase.h ****   template<bool _IsMove, typename _CharT>
 455:/Library/DaisyToolchain/0.2.0/arm/arm-none-eabi/include/c++/10.3.1/bits/stl_algobase.h ****     typename __gnu_cxx::__enable_if<__is_char<_CharT>::__value,
 456:/Library/DaisyToolchain/0.2.0/arm/arm-none-eabi/include/c++/10.3.1/bits/stl_algobase.h **** 				    _CharT*>::__type
 457:/Library/DaisyToolchain/0.2.0/arm/arm-none-eabi/include/c++/10.3.1/bits/stl_algobase.h ****     __copy_move_a2(istreambuf_iterator<_CharT, char_traits<_CharT> >,
 458:/Library/DaisyToolchain/0.2.0/arm/arm-none-eabi/include/c++/10.3.1/bits/stl_algobase.h **** 		   istreambuf_iterator<_CharT, char_traits<_CharT> >, _CharT*);
 459:/Library/DaisyToolchain/0.2.0/arm/arm-none-eabi/include/c++/10.3.1/bits/stl_algobase.h **** 
 460:/Library/DaisyToolchain/0.2.0/arm/arm-none-eabi/include/c++/10.3.1/bits/stl_algobase.h ****   template<bool _IsMove, typename _II, typename _OI>
 461:/Library/DaisyToolchain/0.2.0/arm/arm-none-eabi/include/c++/10.3.1/bits/stl_algobase.h ****     _GLIBCXX20_CONSTEXPR
 462:/Library/DaisyToolchain/0.2.0/arm/arm-none-eabi/include/c++/10.3.1/bits/stl_algobase.h ****     inline _OI
 463:/Library/DaisyToolchain/0.2.0/arm/arm-none-eabi/include/c++/10.3.1/bits/stl_algobase.h ****     __copy_move_a2(_II __first, _II __last, _OI __result)
 464:/Library/DaisyToolchain/0.2.0/arm/arm-none-eabi/include/c++/10.3.1/bits/stl_algobase.h ****     {
 465:/Library/DaisyToolchain/0.2.0/arm/arm-none-eabi/include/c++/10.3.1/bits/stl_algobase.h ****       typedef typename iterator_traits<_II>::iterator_category _Category;
 466:/Library/DaisyToolchain/0.2.0/arm/arm-none-eabi/include/c++/10.3.1/bits/stl_algobase.h **** #ifdef __cpp_lib_is_constant_evaluated
 467:/Library/DaisyToolchain/0.2.0/arm/arm-none-eabi/include/c++/10.3.1/bits/stl_algobase.h ****       if (std::is_constant_evaluated())
 468:/Library/DaisyToolchain/0.2.0/arm/arm-none-eabi/include/c++/10.3.1/bits/stl_algobase.h **** 	return std::__copy_move<_IsMove, false, _Category>::
 469:/Library/DaisyToolchain/0.2.0/arm/arm-none-eabi/include/c++/10.3.1/bits/stl_algobase.h **** 	  __copy_m(__first, __last, __result);
 470:/Library/DaisyToolchain/0.2.0/arm/arm-none-eabi/include/c++/10.3.1/bits/stl_algobase.h **** #endif
 471:/Library/DaisyToolchain/0.2.0/arm/arm-none-eabi/include/c++/10.3.1/bits/stl_algobase.h ****       return std::__copy_move<_IsMove, __memcpyable<_OI, _II>::__value,
 472:/Library/DaisyToolchain/0.2.0/arm/arm-none-eabi/include/c++/10.3.1/bits/stl_algobase.h **** 			      _Category>::__copy_m(__first, __last, __result);
 473:/Library/DaisyToolchain/0.2.0/arm/arm-none-eabi/include/c++/10.3.1/bits/stl_algobase.h ****     }
 474:/Library/DaisyToolchain/0.2.0/arm/arm-none-eabi/include/c++/10.3.1/bits/stl_algobase.h **** 
 475:/Library/DaisyToolchain/0.2.0/arm/arm-none-eabi/include/c++/10.3.1/bits/stl_algobase.h **** _GLIBCXX_BEGIN_NAMESPACE_CONTAINER
 476:/Library/DaisyToolchain/0.2.0/arm/arm-none-eabi/include/c++/10.3.1/bits/stl_algobase.h **** 
 477:/Library/DaisyToolchain/0.2.0/arm/arm-none-eabi/include/c++/10.3.1/bits/stl_algobase.h ****   template<typename _Tp, typename _Ref, typename _Ptr>
 478:/Library/DaisyToolchain/0.2.0/arm/arm-none-eabi/include/c++/10.3.1/bits/stl_algobase.h ****     struct _Deque_iterator;
 479:/Library/DaisyToolchain/0.2.0/arm/arm-none-eabi/include/c++/10.3.1/bits/stl_algobase.h **** 
 480:/Library/DaisyToolchain/0.2.0/arm/arm-none-eabi/include/c++/10.3.1/bits/stl_algobase.h **** _GLIBCXX_END_NAMESPACE_CONTAINER
 481:/Library/DaisyToolchain/0.2.0/arm/arm-none-eabi/include/c++/10.3.1/bits/stl_algobase.h **** 
 482:/Library/DaisyToolchain/0.2.0/arm/arm-none-eabi/include/c++/10.3.1/bits/stl_algobase.h ****   template<bool _IsMove,
 483:/Library/DaisyToolchain/0.2.0/arm/arm-none-eabi/include/c++/10.3.1/bits/stl_algobase.h **** 	   typename _Tp, typename _Ref, typename _Ptr, typename _OI>
 484:/Library/DaisyToolchain/0.2.0/arm/arm-none-eabi/include/c++/10.3.1/bits/stl_algobase.h ****     _OI
 485:/Library/DaisyToolchain/0.2.0/arm/arm-none-eabi/include/c++/10.3.1/bits/stl_algobase.h ****     __copy_move_a1(_GLIBCXX_STD_C::_Deque_iterator<_Tp, _Ref, _Ptr>,
 486:/Library/DaisyToolchain/0.2.0/arm/arm-none-eabi/include/c++/10.3.1/bits/stl_algobase.h **** 		   _GLIBCXX_STD_C::_Deque_iterator<_Tp, _Ref, _Ptr>,
ARM GAS  /var/folders/9s/8rp0_f2s1n31qbztm3b5_fdh0000gn/T//ccrjzSP7.s 			page 37


 487:/Library/DaisyToolchain/0.2.0/arm/arm-none-eabi/include/c++/10.3.1/bits/stl_algobase.h **** 		   _OI);
 488:/Library/DaisyToolchain/0.2.0/arm/arm-none-eabi/include/c++/10.3.1/bits/stl_algobase.h **** 
 489:/Library/DaisyToolchain/0.2.0/arm/arm-none-eabi/include/c++/10.3.1/bits/stl_algobase.h ****   template<bool _IsMove,
 490:/Library/DaisyToolchain/0.2.0/arm/arm-none-eabi/include/c++/10.3.1/bits/stl_algobase.h **** 	   typename _ITp, typename _IRef, typename _IPtr, typename _OTp>
 491:/Library/DaisyToolchain/0.2.0/arm/arm-none-eabi/include/c++/10.3.1/bits/stl_algobase.h ****     _GLIBCXX_STD_C::_Deque_iterator<_OTp, _OTp&, _OTp*>
 492:/Library/DaisyToolchain/0.2.0/arm/arm-none-eabi/include/c++/10.3.1/bits/stl_algobase.h ****     __copy_move_a1(_GLIBCXX_STD_C::_Deque_iterator<_ITp, _IRef, _IPtr>,
 493:/Library/DaisyToolchain/0.2.0/arm/arm-none-eabi/include/c++/10.3.1/bits/stl_algobase.h **** 		   _GLIBCXX_STD_C::_Deque_iterator<_ITp, _IRef, _IPtr>,
 494:/Library/DaisyToolchain/0.2.0/arm/arm-none-eabi/include/c++/10.3.1/bits/stl_algobase.h **** 		   _GLIBCXX_STD_C::_Deque_iterator<_OTp, _OTp&, _OTp*>);
 495:/Library/DaisyToolchain/0.2.0/arm/arm-none-eabi/include/c++/10.3.1/bits/stl_algobase.h **** 
 496:/Library/DaisyToolchain/0.2.0/arm/arm-none-eabi/include/c++/10.3.1/bits/stl_algobase.h ****   template<bool _IsMove, typename _II, typename _Tp>
 497:/Library/DaisyToolchain/0.2.0/arm/arm-none-eabi/include/c++/10.3.1/bits/stl_algobase.h ****     typename __gnu_cxx::__enable_if<
 498:/Library/DaisyToolchain/0.2.0/arm/arm-none-eabi/include/c++/10.3.1/bits/stl_algobase.h ****       __is_random_access_iter<_II>::__value,
 499:/Library/DaisyToolchain/0.2.0/arm/arm-none-eabi/include/c++/10.3.1/bits/stl_algobase.h ****       _GLIBCXX_STD_C::_Deque_iterator<_Tp, _Tp&, _Tp*> >::__type
 500:/Library/DaisyToolchain/0.2.0/arm/arm-none-eabi/include/c++/10.3.1/bits/stl_algobase.h ****     __copy_move_a1(_II, _II, _GLIBCXX_STD_C::_Deque_iterator<_Tp, _Tp&, _Tp*>);
 501:/Library/DaisyToolchain/0.2.0/arm/arm-none-eabi/include/c++/10.3.1/bits/stl_algobase.h **** 
 502:/Library/DaisyToolchain/0.2.0/arm/arm-none-eabi/include/c++/10.3.1/bits/stl_algobase.h ****   template<bool _IsMove, typename _II, typename _OI>
 503:/Library/DaisyToolchain/0.2.0/arm/arm-none-eabi/include/c++/10.3.1/bits/stl_algobase.h ****     _GLIBCXX20_CONSTEXPR
 504:/Library/DaisyToolchain/0.2.0/arm/arm-none-eabi/include/c++/10.3.1/bits/stl_algobase.h ****     inline _OI
 505:/Library/DaisyToolchain/0.2.0/arm/arm-none-eabi/include/c++/10.3.1/bits/stl_algobase.h ****     __copy_move_a1(_II __first, _II __last, _OI __result)
 506:/Library/DaisyToolchain/0.2.0/arm/arm-none-eabi/include/c++/10.3.1/bits/stl_algobase.h ****     { return std::__copy_move_a2<_IsMove>(__first, __last, __result); }
 507:/Library/DaisyToolchain/0.2.0/arm/arm-none-eabi/include/c++/10.3.1/bits/stl_algobase.h **** 
 508:/Library/DaisyToolchain/0.2.0/arm/arm-none-eabi/include/c++/10.3.1/bits/stl_algobase.h ****   template<bool _IsMove, typename _II, typename _OI>
 509:/Library/DaisyToolchain/0.2.0/arm/arm-none-eabi/include/c++/10.3.1/bits/stl_algobase.h ****     _GLIBCXX20_CONSTEXPR
 510:/Library/DaisyToolchain/0.2.0/arm/arm-none-eabi/include/c++/10.3.1/bits/stl_algobase.h ****     inline _OI
 511:/Library/DaisyToolchain/0.2.0/arm/arm-none-eabi/include/c++/10.3.1/bits/stl_algobase.h ****     __copy_move_a(_II __first, _II __last, _OI __result)
 512:/Library/DaisyToolchain/0.2.0/arm/arm-none-eabi/include/c++/10.3.1/bits/stl_algobase.h ****     {
 513:/Library/DaisyToolchain/0.2.0/arm/arm-none-eabi/include/c++/10.3.1/bits/stl_algobase.h ****       return std::__niter_wrap(__result,
 514:/Library/DaisyToolchain/0.2.0/arm/arm-none-eabi/include/c++/10.3.1/bits/stl_algobase.h **** 		std::__copy_move_a1<_IsMove>(std::__niter_base(__first),
 515:/Library/DaisyToolchain/0.2.0/arm/arm-none-eabi/include/c++/10.3.1/bits/stl_algobase.h **** 					     std::__niter_base(__last),
 516:/Library/DaisyToolchain/0.2.0/arm/arm-none-eabi/include/c++/10.3.1/bits/stl_algobase.h **** 					     std::__niter_base(__result)));
 517:/Library/DaisyToolchain/0.2.0/arm/arm-none-eabi/include/c++/10.3.1/bits/stl_algobase.h ****     }
 518:/Library/DaisyToolchain/0.2.0/arm/arm-none-eabi/include/c++/10.3.1/bits/stl_algobase.h **** 
 519:/Library/DaisyToolchain/0.2.0/arm/arm-none-eabi/include/c++/10.3.1/bits/stl_algobase.h ****   template<bool _IsMove,
 520:/Library/DaisyToolchain/0.2.0/arm/arm-none-eabi/include/c++/10.3.1/bits/stl_algobase.h **** 	   typename _Ite, typename _Seq, typename _Cat, typename _OI>
 521:/Library/DaisyToolchain/0.2.0/arm/arm-none-eabi/include/c++/10.3.1/bits/stl_algobase.h ****     _OI
 522:/Library/DaisyToolchain/0.2.0/arm/arm-none-eabi/include/c++/10.3.1/bits/stl_algobase.h ****     __copy_move_a(const ::__gnu_debug::_Safe_iterator<_Ite, _Seq, _Cat>&,
 523:/Library/DaisyToolchain/0.2.0/arm/arm-none-eabi/include/c++/10.3.1/bits/stl_algobase.h **** 		  const ::__gnu_debug::_Safe_iterator<_Ite, _Seq, _Cat>&,
 524:/Library/DaisyToolchain/0.2.0/arm/arm-none-eabi/include/c++/10.3.1/bits/stl_algobase.h **** 		  _OI);
 525:/Library/DaisyToolchain/0.2.0/arm/arm-none-eabi/include/c++/10.3.1/bits/stl_algobase.h **** 
 526:/Library/DaisyToolchain/0.2.0/arm/arm-none-eabi/include/c++/10.3.1/bits/stl_algobase.h ****   template<bool _IsMove,
 527:/Library/DaisyToolchain/0.2.0/arm/arm-none-eabi/include/c++/10.3.1/bits/stl_algobase.h **** 	   typename _II, typename _Ite, typename _Seq, typename _Cat>
 528:/Library/DaisyToolchain/0.2.0/arm/arm-none-eabi/include/c++/10.3.1/bits/stl_algobase.h ****     __gnu_debug::_Safe_iterator<_Ite, _Seq, _Cat>
 529:/Library/DaisyToolchain/0.2.0/arm/arm-none-eabi/include/c++/10.3.1/bits/stl_algobase.h ****     __copy_move_a(_II, _II,
 530:/Library/DaisyToolchain/0.2.0/arm/arm-none-eabi/include/c++/10.3.1/bits/stl_algobase.h **** 		  const ::__gnu_debug::_Safe_iterator<_Ite, _Seq, _Cat>&);
 531:/Library/DaisyToolchain/0.2.0/arm/arm-none-eabi/include/c++/10.3.1/bits/stl_algobase.h **** 
 532:/Library/DaisyToolchain/0.2.0/arm/arm-none-eabi/include/c++/10.3.1/bits/stl_algobase.h ****   template<bool _IsMove,
 533:/Library/DaisyToolchain/0.2.0/arm/arm-none-eabi/include/c++/10.3.1/bits/stl_algobase.h **** 	   typename _IIte, typename _ISeq, typename _ICat,
 534:/Library/DaisyToolchain/0.2.0/arm/arm-none-eabi/include/c++/10.3.1/bits/stl_algobase.h **** 	   typename _OIte, typename _OSeq, typename _OCat>
 535:/Library/DaisyToolchain/0.2.0/arm/arm-none-eabi/include/c++/10.3.1/bits/stl_algobase.h ****     ::__gnu_debug::_Safe_iterator<_OIte, _OSeq, _OCat>
 536:/Library/DaisyToolchain/0.2.0/arm/arm-none-eabi/include/c++/10.3.1/bits/stl_algobase.h ****     __copy_move_a(const ::__gnu_debug::_Safe_iterator<_IIte, _ISeq, _ICat>&,
 537:/Library/DaisyToolchain/0.2.0/arm/arm-none-eabi/include/c++/10.3.1/bits/stl_algobase.h **** 		  const ::__gnu_debug::_Safe_iterator<_IIte, _ISeq, _ICat>&,
 538:/Library/DaisyToolchain/0.2.0/arm/arm-none-eabi/include/c++/10.3.1/bits/stl_algobase.h **** 		  const ::__gnu_debug::_Safe_iterator<_OIte, _OSeq, _OCat>&);
 539:/Library/DaisyToolchain/0.2.0/arm/arm-none-eabi/include/c++/10.3.1/bits/stl_algobase.h **** 
 540:/Library/DaisyToolchain/0.2.0/arm/arm-none-eabi/include/c++/10.3.1/bits/stl_algobase.h ****   /**
 541:/Library/DaisyToolchain/0.2.0/arm/arm-none-eabi/include/c++/10.3.1/bits/stl_algobase.h ****    *  @brief Copies the range [first,last) into result.
 542:/Library/DaisyToolchain/0.2.0/arm/arm-none-eabi/include/c++/10.3.1/bits/stl_algobase.h ****    *  @ingroup mutating_algorithms
 543:/Library/DaisyToolchain/0.2.0/arm/arm-none-eabi/include/c++/10.3.1/bits/stl_algobase.h ****    *  @param  __first  An input iterator.
ARM GAS  /var/folders/9s/8rp0_f2s1n31qbztm3b5_fdh0000gn/T//ccrjzSP7.s 			page 38


 544:/Library/DaisyToolchain/0.2.0/arm/arm-none-eabi/include/c++/10.3.1/bits/stl_algobase.h ****    *  @param  __last   An input iterator.
 545:/Library/DaisyToolchain/0.2.0/arm/arm-none-eabi/include/c++/10.3.1/bits/stl_algobase.h ****    *  @param  __result An output iterator.
 546:/Library/DaisyToolchain/0.2.0/arm/arm-none-eabi/include/c++/10.3.1/bits/stl_algobase.h ****    *  @return   result + (last - first)
 547:/Library/DaisyToolchain/0.2.0/arm/arm-none-eabi/include/c++/10.3.1/bits/stl_algobase.h ****    *
 548:/Library/DaisyToolchain/0.2.0/arm/arm-none-eabi/include/c++/10.3.1/bits/stl_algobase.h ****    *  This inline function will boil down to a call to @c memmove whenever
 549:/Library/DaisyToolchain/0.2.0/arm/arm-none-eabi/include/c++/10.3.1/bits/stl_algobase.h ****    *  possible.  Failing that, if random access iterators are passed, then the
 550:/Library/DaisyToolchain/0.2.0/arm/arm-none-eabi/include/c++/10.3.1/bits/stl_algobase.h ****    *  loop count will be known (and therefore a candidate for compiler
 551:/Library/DaisyToolchain/0.2.0/arm/arm-none-eabi/include/c++/10.3.1/bits/stl_algobase.h ****    *  optimizations such as unrolling).  Result may not be contained within
 552:/Library/DaisyToolchain/0.2.0/arm/arm-none-eabi/include/c++/10.3.1/bits/stl_algobase.h ****    *  [first,last); the copy_backward function should be used instead.
 553:/Library/DaisyToolchain/0.2.0/arm/arm-none-eabi/include/c++/10.3.1/bits/stl_algobase.h ****    *
 554:/Library/DaisyToolchain/0.2.0/arm/arm-none-eabi/include/c++/10.3.1/bits/stl_algobase.h ****    *  Note that the end of the output range is permitted to be contained
 555:/Library/DaisyToolchain/0.2.0/arm/arm-none-eabi/include/c++/10.3.1/bits/stl_algobase.h ****    *  within [first,last).
 556:/Library/DaisyToolchain/0.2.0/arm/arm-none-eabi/include/c++/10.3.1/bits/stl_algobase.h ****   */
 557:/Library/DaisyToolchain/0.2.0/arm/arm-none-eabi/include/c++/10.3.1/bits/stl_algobase.h ****   template<typename _II, typename _OI>
 558:/Library/DaisyToolchain/0.2.0/arm/arm-none-eabi/include/c++/10.3.1/bits/stl_algobase.h ****     _GLIBCXX20_CONSTEXPR
 559:/Library/DaisyToolchain/0.2.0/arm/arm-none-eabi/include/c++/10.3.1/bits/stl_algobase.h ****     inline _OI
 560:/Library/DaisyToolchain/0.2.0/arm/arm-none-eabi/include/c++/10.3.1/bits/stl_algobase.h ****     copy(_II __first, _II __last, _OI __result)
 561:/Library/DaisyToolchain/0.2.0/arm/arm-none-eabi/include/c++/10.3.1/bits/stl_algobase.h ****     {
 562:/Library/DaisyToolchain/0.2.0/arm/arm-none-eabi/include/c++/10.3.1/bits/stl_algobase.h ****       // concept requirements
 563:/Library/DaisyToolchain/0.2.0/arm/arm-none-eabi/include/c++/10.3.1/bits/stl_algobase.h ****       __glibcxx_function_requires(_InputIteratorConcept<_II>)
 564:/Library/DaisyToolchain/0.2.0/arm/arm-none-eabi/include/c++/10.3.1/bits/stl_algobase.h ****       __glibcxx_function_requires(_OutputIteratorConcept<_OI,
 565:/Library/DaisyToolchain/0.2.0/arm/arm-none-eabi/include/c++/10.3.1/bits/stl_algobase.h **** 	    typename iterator_traits<_II>::value_type>)
 566:/Library/DaisyToolchain/0.2.0/arm/arm-none-eabi/include/c++/10.3.1/bits/stl_algobase.h ****       __glibcxx_requires_can_increment_range(__first, __last, __result);
 567:/Library/DaisyToolchain/0.2.0/arm/arm-none-eabi/include/c++/10.3.1/bits/stl_algobase.h **** 
 568:/Library/DaisyToolchain/0.2.0/arm/arm-none-eabi/include/c++/10.3.1/bits/stl_algobase.h ****       return std::__copy_move_a<__is_move_iterator<_II>::__value>
 569:/Library/DaisyToolchain/0.2.0/arm/arm-none-eabi/include/c++/10.3.1/bits/stl_algobase.h **** 	     (std::__miter_base(__first), std::__miter_base(__last), __result);
 570:/Library/DaisyToolchain/0.2.0/arm/arm-none-eabi/include/c++/10.3.1/bits/stl_algobase.h ****     }
 571:/Library/DaisyToolchain/0.2.0/arm/arm-none-eabi/include/c++/10.3.1/bits/stl_algobase.h **** 
 572:/Library/DaisyToolchain/0.2.0/arm/arm-none-eabi/include/c++/10.3.1/bits/stl_algobase.h **** #if __cplusplus >= 201103L
 573:/Library/DaisyToolchain/0.2.0/arm/arm-none-eabi/include/c++/10.3.1/bits/stl_algobase.h ****   /**
 574:/Library/DaisyToolchain/0.2.0/arm/arm-none-eabi/include/c++/10.3.1/bits/stl_algobase.h ****    *  @brief Moves the range [first,last) into result.
 575:/Library/DaisyToolchain/0.2.0/arm/arm-none-eabi/include/c++/10.3.1/bits/stl_algobase.h ****    *  @ingroup mutating_algorithms
 576:/Library/DaisyToolchain/0.2.0/arm/arm-none-eabi/include/c++/10.3.1/bits/stl_algobase.h ****    *  @param  __first  An input iterator.
 577:/Library/DaisyToolchain/0.2.0/arm/arm-none-eabi/include/c++/10.3.1/bits/stl_algobase.h ****    *  @param  __last   An input iterator.
 578:/Library/DaisyToolchain/0.2.0/arm/arm-none-eabi/include/c++/10.3.1/bits/stl_algobase.h ****    *  @param  __result An output iterator.
 579:/Library/DaisyToolchain/0.2.0/arm/arm-none-eabi/include/c++/10.3.1/bits/stl_algobase.h ****    *  @return   result + (last - first)
 580:/Library/DaisyToolchain/0.2.0/arm/arm-none-eabi/include/c++/10.3.1/bits/stl_algobase.h ****    *
 581:/Library/DaisyToolchain/0.2.0/arm/arm-none-eabi/include/c++/10.3.1/bits/stl_algobase.h ****    *  This inline function will boil down to a call to @c memmove whenever
 582:/Library/DaisyToolchain/0.2.0/arm/arm-none-eabi/include/c++/10.3.1/bits/stl_algobase.h ****    *  possible.  Failing that, if random access iterators are passed, then the
 583:/Library/DaisyToolchain/0.2.0/arm/arm-none-eabi/include/c++/10.3.1/bits/stl_algobase.h ****    *  loop count will be known (and therefore a candidate for compiler
 584:/Library/DaisyToolchain/0.2.0/arm/arm-none-eabi/include/c++/10.3.1/bits/stl_algobase.h ****    *  optimizations such as unrolling).  Result may not be contained within
 585:/Library/DaisyToolchain/0.2.0/arm/arm-none-eabi/include/c++/10.3.1/bits/stl_algobase.h ****    *  [first,last); the move_backward function should be used instead.
 586:/Library/DaisyToolchain/0.2.0/arm/arm-none-eabi/include/c++/10.3.1/bits/stl_algobase.h ****    *
 587:/Library/DaisyToolchain/0.2.0/arm/arm-none-eabi/include/c++/10.3.1/bits/stl_algobase.h ****    *  Note that the end of the output range is permitted to be contained
 588:/Library/DaisyToolchain/0.2.0/arm/arm-none-eabi/include/c++/10.3.1/bits/stl_algobase.h ****    *  within [first,last).
 589:/Library/DaisyToolchain/0.2.0/arm/arm-none-eabi/include/c++/10.3.1/bits/stl_algobase.h ****   */
 590:/Library/DaisyToolchain/0.2.0/arm/arm-none-eabi/include/c++/10.3.1/bits/stl_algobase.h ****   template<typename _II, typename _OI>
 591:/Library/DaisyToolchain/0.2.0/arm/arm-none-eabi/include/c++/10.3.1/bits/stl_algobase.h ****     _GLIBCXX20_CONSTEXPR
 592:/Library/DaisyToolchain/0.2.0/arm/arm-none-eabi/include/c++/10.3.1/bits/stl_algobase.h ****     inline _OI
 593:/Library/DaisyToolchain/0.2.0/arm/arm-none-eabi/include/c++/10.3.1/bits/stl_algobase.h ****     move(_II __first, _II __last, _OI __result)
 594:/Library/DaisyToolchain/0.2.0/arm/arm-none-eabi/include/c++/10.3.1/bits/stl_algobase.h ****     {
 595:/Library/DaisyToolchain/0.2.0/arm/arm-none-eabi/include/c++/10.3.1/bits/stl_algobase.h ****       // concept requirements
 596:/Library/DaisyToolchain/0.2.0/arm/arm-none-eabi/include/c++/10.3.1/bits/stl_algobase.h ****       __glibcxx_function_requires(_InputIteratorConcept<_II>)
 597:/Library/DaisyToolchain/0.2.0/arm/arm-none-eabi/include/c++/10.3.1/bits/stl_algobase.h ****       __glibcxx_function_requires(_OutputIteratorConcept<_OI,
 598:/Library/DaisyToolchain/0.2.0/arm/arm-none-eabi/include/c++/10.3.1/bits/stl_algobase.h **** 	    typename iterator_traits<_II>::value_type>)
 599:/Library/DaisyToolchain/0.2.0/arm/arm-none-eabi/include/c++/10.3.1/bits/stl_algobase.h ****       __glibcxx_requires_can_increment_range(__first, __last, __result);
 600:/Library/DaisyToolchain/0.2.0/arm/arm-none-eabi/include/c++/10.3.1/bits/stl_algobase.h **** 
ARM GAS  /var/folders/9s/8rp0_f2s1n31qbztm3b5_fdh0000gn/T//ccrjzSP7.s 			page 39


 601:/Library/DaisyToolchain/0.2.0/arm/arm-none-eabi/include/c++/10.3.1/bits/stl_algobase.h ****       return std::__copy_move_a<true>(std::__miter_base(__first),
 602:/Library/DaisyToolchain/0.2.0/arm/arm-none-eabi/include/c++/10.3.1/bits/stl_algobase.h **** 				      std::__miter_base(__last), __result);
 603:/Library/DaisyToolchain/0.2.0/arm/arm-none-eabi/include/c++/10.3.1/bits/stl_algobase.h ****     }
 604:/Library/DaisyToolchain/0.2.0/arm/arm-none-eabi/include/c++/10.3.1/bits/stl_algobase.h **** 
 605:/Library/DaisyToolchain/0.2.0/arm/arm-none-eabi/include/c++/10.3.1/bits/stl_algobase.h **** #define _GLIBCXX_MOVE3(_Tp, _Up, _Vp) std::move(_Tp, _Up, _Vp)
 606:/Library/DaisyToolchain/0.2.0/arm/arm-none-eabi/include/c++/10.3.1/bits/stl_algobase.h **** #else
 607:/Library/DaisyToolchain/0.2.0/arm/arm-none-eabi/include/c++/10.3.1/bits/stl_algobase.h **** #define _GLIBCXX_MOVE3(_Tp, _Up, _Vp) std::copy(_Tp, _Up, _Vp)
 608:/Library/DaisyToolchain/0.2.0/arm/arm-none-eabi/include/c++/10.3.1/bits/stl_algobase.h **** #endif
 609:/Library/DaisyToolchain/0.2.0/arm/arm-none-eabi/include/c++/10.3.1/bits/stl_algobase.h **** 
 610:/Library/DaisyToolchain/0.2.0/arm/arm-none-eabi/include/c++/10.3.1/bits/stl_algobase.h ****   template<bool _IsMove, bool _IsSimple, typename _Category>
 611:/Library/DaisyToolchain/0.2.0/arm/arm-none-eabi/include/c++/10.3.1/bits/stl_algobase.h ****     struct __copy_move_backward
 612:/Library/DaisyToolchain/0.2.0/arm/arm-none-eabi/include/c++/10.3.1/bits/stl_algobase.h ****     {
 613:/Library/DaisyToolchain/0.2.0/arm/arm-none-eabi/include/c++/10.3.1/bits/stl_algobase.h ****       template<typename _BI1, typename _BI2>
 614:/Library/DaisyToolchain/0.2.0/arm/arm-none-eabi/include/c++/10.3.1/bits/stl_algobase.h **** 	_GLIBCXX20_CONSTEXPR
 615:/Library/DaisyToolchain/0.2.0/arm/arm-none-eabi/include/c++/10.3.1/bits/stl_algobase.h **** 	static _BI2
 616:/Library/DaisyToolchain/0.2.0/arm/arm-none-eabi/include/c++/10.3.1/bits/stl_algobase.h **** 	__copy_move_b(_BI1 __first, _BI1 __last, _BI2 __result)
 617:/Library/DaisyToolchain/0.2.0/arm/arm-none-eabi/include/c++/10.3.1/bits/stl_algobase.h **** 	{
 618:/Library/DaisyToolchain/0.2.0/arm/arm-none-eabi/include/c++/10.3.1/bits/stl_algobase.h **** 	  while (__first != __last)
 619:/Library/DaisyToolchain/0.2.0/arm/arm-none-eabi/include/c++/10.3.1/bits/stl_algobase.h **** 	    *--__result = *--__last;
 620:/Library/DaisyToolchain/0.2.0/arm/arm-none-eabi/include/c++/10.3.1/bits/stl_algobase.h **** 	  return __result;
 621:/Library/DaisyToolchain/0.2.0/arm/arm-none-eabi/include/c++/10.3.1/bits/stl_algobase.h **** 	}
 622:/Library/DaisyToolchain/0.2.0/arm/arm-none-eabi/include/c++/10.3.1/bits/stl_algobase.h ****     };
 623:/Library/DaisyToolchain/0.2.0/arm/arm-none-eabi/include/c++/10.3.1/bits/stl_algobase.h **** 
 624:/Library/DaisyToolchain/0.2.0/arm/arm-none-eabi/include/c++/10.3.1/bits/stl_algobase.h **** #if __cplusplus >= 201103L
 625:/Library/DaisyToolchain/0.2.0/arm/arm-none-eabi/include/c++/10.3.1/bits/stl_algobase.h ****   template<typename _Category>
 626:/Library/DaisyToolchain/0.2.0/arm/arm-none-eabi/include/c++/10.3.1/bits/stl_algobase.h ****     struct __copy_move_backward<true, false, _Category>
 627:/Library/DaisyToolchain/0.2.0/arm/arm-none-eabi/include/c++/10.3.1/bits/stl_algobase.h ****     {
 628:/Library/DaisyToolchain/0.2.0/arm/arm-none-eabi/include/c++/10.3.1/bits/stl_algobase.h ****       template<typename _BI1, typename _BI2>
 629:/Library/DaisyToolchain/0.2.0/arm/arm-none-eabi/include/c++/10.3.1/bits/stl_algobase.h **** 	_GLIBCXX20_CONSTEXPR
 630:/Library/DaisyToolchain/0.2.0/arm/arm-none-eabi/include/c++/10.3.1/bits/stl_algobase.h **** 	static _BI2
 631:/Library/DaisyToolchain/0.2.0/arm/arm-none-eabi/include/c++/10.3.1/bits/stl_algobase.h **** 	__copy_move_b(_BI1 __first, _BI1 __last, _BI2 __result)
 632:/Library/DaisyToolchain/0.2.0/arm/arm-none-eabi/include/c++/10.3.1/bits/stl_algobase.h **** 	{
 633:/Library/DaisyToolchain/0.2.0/arm/arm-none-eabi/include/c++/10.3.1/bits/stl_algobase.h **** 	  while (__first != __last)
 634:/Library/DaisyToolchain/0.2.0/arm/arm-none-eabi/include/c++/10.3.1/bits/stl_algobase.h **** 	    *--__result = std::move(*--__last);
 635:/Library/DaisyToolchain/0.2.0/arm/arm-none-eabi/include/c++/10.3.1/bits/stl_algobase.h **** 	  return __result;
 636:/Library/DaisyToolchain/0.2.0/arm/arm-none-eabi/include/c++/10.3.1/bits/stl_algobase.h **** 	}
 637:/Library/DaisyToolchain/0.2.0/arm/arm-none-eabi/include/c++/10.3.1/bits/stl_algobase.h ****     };
 638:/Library/DaisyToolchain/0.2.0/arm/arm-none-eabi/include/c++/10.3.1/bits/stl_algobase.h **** #endif
 639:/Library/DaisyToolchain/0.2.0/arm/arm-none-eabi/include/c++/10.3.1/bits/stl_algobase.h **** 
 640:/Library/DaisyToolchain/0.2.0/arm/arm-none-eabi/include/c++/10.3.1/bits/stl_algobase.h ****   template<>
 641:/Library/DaisyToolchain/0.2.0/arm/arm-none-eabi/include/c++/10.3.1/bits/stl_algobase.h ****     struct __copy_move_backward<false, false, random_access_iterator_tag>
 642:/Library/DaisyToolchain/0.2.0/arm/arm-none-eabi/include/c++/10.3.1/bits/stl_algobase.h ****     {
 643:/Library/DaisyToolchain/0.2.0/arm/arm-none-eabi/include/c++/10.3.1/bits/stl_algobase.h ****       template<typename _BI1, typename _BI2>
 644:/Library/DaisyToolchain/0.2.0/arm/arm-none-eabi/include/c++/10.3.1/bits/stl_algobase.h **** 	_GLIBCXX20_CONSTEXPR
 645:/Library/DaisyToolchain/0.2.0/arm/arm-none-eabi/include/c++/10.3.1/bits/stl_algobase.h **** 	static _BI2
 646:/Library/DaisyToolchain/0.2.0/arm/arm-none-eabi/include/c++/10.3.1/bits/stl_algobase.h **** 	__copy_move_b(_BI1 __first, _BI1 __last, _BI2 __result)
 647:/Library/DaisyToolchain/0.2.0/arm/arm-none-eabi/include/c++/10.3.1/bits/stl_algobase.h **** 	{
 648:/Library/DaisyToolchain/0.2.0/arm/arm-none-eabi/include/c++/10.3.1/bits/stl_algobase.h **** 	  typename iterator_traits<_BI1>::difference_type
 649:/Library/DaisyToolchain/0.2.0/arm/arm-none-eabi/include/c++/10.3.1/bits/stl_algobase.h **** 	    __n = __last - __first;
 650:/Library/DaisyToolchain/0.2.0/arm/arm-none-eabi/include/c++/10.3.1/bits/stl_algobase.h **** 	  for (; __n > 0; --__n)
 651:/Library/DaisyToolchain/0.2.0/arm/arm-none-eabi/include/c++/10.3.1/bits/stl_algobase.h **** 	    *--__result = *--__last;
 652:/Library/DaisyToolchain/0.2.0/arm/arm-none-eabi/include/c++/10.3.1/bits/stl_algobase.h **** 	  return __result;
 653:/Library/DaisyToolchain/0.2.0/arm/arm-none-eabi/include/c++/10.3.1/bits/stl_algobase.h **** 	}
 654:/Library/DaisyToolchain/0.2.0/arm/arm-none-eabi/include/c++/10.3.1/bits/stl_algobase.h ****     };
 655:/Library/DaisyToolchain/0.2.0/arm/arm-none-eabi/include/c++/10.3.1/bits/stl_algobase.h **** 
 656:/Library/DaisyToolchain/0.2.0/arm/arm-none-eabi/include/c++/10.3.1/bits/stl_algobase.h **** #if __cplusplus >= 201103L
 657:/Library/DaisyToolchain/0.2.0/arm/arm-none-eabi/include/c++/10.3.1/bits/stl_algobase.h ****   template<>
ARM GAS  /var/folders/9s/8rp0_f2s1n31qbztm3b5_fdh0000gn/T//ccrjzSP7.s 			page 40


 658:/Library/DaisyToolchain/0.2.0/arm/arm-none-eabi/include/c++/10.3.1/bits/stl_algobase.h ****     struct __copy_move_backward<true, false, random_access_iterator_tag>
 659:/Library/DaisyToolchain/0.2.0/arm/arm-none-eabi/include/c++/10.3.1/bits/stl_algobase.h ****     {
 660:/Library/DaisyToolchain/0.2.0/arm/arm-none-eabi/include/c++/10.3.1/bits/stl_algobase.h ****       template<typename _BI1, typename _BI2>
 661:/Library/DaisyToolchain/0.2.0/arm/arm-none-eabi/include/c++/10.3.1/bits/stl_algobase.h **** 	_GLIBCXX20_CONSTEXPR
 662:/Library/DaisyToolchain/0.2.0/arm/arm-none-eabi/include/c++/10.3.1/bits/stl_algobase.h **** 	static _BI2
 663:/Library/DaisyToolchain/0.2.0/arm/arm-none-eabi/include/c++/10.3.1/bits/stl_algobase.h **** 	__copy_move_b(_BI1 __first, _BI1 __last, _BI2 __result)
 664:/Library/DaisyToolchain/0.2.0/arm/arm-none-eabi/include/c++/10.3.1/bits/stl_algobase.h **** 	{
 665:/Library/DaisyToolchain/0.2.0/arm/arm-none-eabi/include/c++/10.3.1/bits/stl_algobase.h **** 	  typename iterator_traits<_BI1>::difference_type
 666:/Library/DaisyToolchain/0.2.0/arm/arm-none-eabi/include/c++/10.3.1/bits/stl_algobase.h **** 	    __n = __last - __first;
 667:/Library/DaisyToolchain/0.2.0/arm/arm-none-eabi/include/c++/10.3.1/bits/stl_algobase.h **** 	  for (; __n > 0; --__n)
 668:/Library/DaisyToolchain/0.2.0/arm/arm-none-eabi/include/c++/10.3.1/bits/stl_algobase.h **** 	    *--__result = std::move(*--__last);
 669:/Library/DaisyToolchain/0.2.0/arm/arm-none-eabi/include/c++/10.3.1/bits/stl_algobase.h **** 	  return __result;
 670:/Library/DaisyToolchain/0.2.0/arm/arm-none-eabi/include/c++/10.3.1/bits/stl_algobase.h **** 	}
 671:/Library/DaisyToolchain/0.2.0/arm/arm-none-eabi/include/c++/10.3.1/bits/stl_algobase.h ****     };
 672:/Library/DaisyToolchain/0.2.0/arm/arm-none-eabi/include/c++/10.3.1/bits/stl_algobase.h **** #endif
 673:/Library/DaisyToolchain/0.2.0/arm/arm-none-eabi/include/c++/10.3.1/bits/stl_algobase.h **** 
 674:/Library/DaisyToolchain/0.2.0/arm/arm-none-eabi/include/c++/10.3.1/bits/stl_algobase.h ****   template<bool _IsMove>
 675:/Library/DaisyToolchain/0.2.0/arm/arm-none-eabi/include/c++/10.3.1/bits/stl_algobase.h ****     struct __copy_move_backward<_IsMove, true, random_access_iterator_tag>
 676:/Library/DaisyToolchain/0.2.0/arm/arm-none-eabi/include/c++/10.3.1/bits/stl_algobase.h ****     {
 677:/Library/DaisyToolchain/0.2.0/arm/arm-none-eabi/include/c++/10.3.1/bits/stl_algobase.h ****       template<typename _Tp>
 678:/Library/DaisyToolchain/0.2.0/arm/arm-none-eabi/include/c++/10.3.1/bits/stl_algobase.h **** 	_GLIBCXX20_CONSTEXPR
 679:/Library/DaisyToolchain/0.2.0/arm/arm-none-eabi/include/c++/10.3.1/bits/stl_algobase.h **** 	static _Tp*
 680:/Library/DaisyToolchain/0.2.0/arm/arm-none-eabi/include/c++/10.3.1/bits/stl_algobase.h **** 	__copy_move_b(const _Tp* __first, const _Tp* __last, _Tp* __result)
 681:/Library/DaisyToolchain/0.2.0/arm/arm-none-eabi/include/c++/10.3.1/bits/stl_algobase.h **** 	{
 682:/Library/DaisyToolchain/0.2.0/arm/arm-none-eabi/include/c++/10.3.1/bits/stl_algobase.h **** #if __cplusplus >= 201103L
 683:/Library/DaisyToolchain/0.2.0/arm/arm-none-eabi/include/c++/10.3.1/bits/stl_algobase.h **** 	  using __assignable = conditional<_IsMove,
 684:/Library/DaisyToolchain/0.2.0/arm/arm-none-eabi/include/c++/10.3.1/bits/stl_algobase.h **** 					   is_move_assignable<_Tp>,
 685:/Library/DaisyToolchain/0.2.0/arm/arm-none-eabi/include/c++/10.3.1/bits/stl_algobase.h **** 					   is_copy_assignable<_Tp>>;
 686:/Library/DaisyToolchain/0.2.0/arm/arm-none-eabi/include/c++/10.3.1/bits/stl_algobase.h **** 	  // trivial types can have deleted assignment
 687:/Library/DaisyToolchain/0.2.0/arm/arm-none-eabi/include/c++/10.3.1/bits/stl_algobase.h **** 	  static_assert( __assignable::type::value, "type is not assignable" );
 688:/Library/DaisyToolchain/0.2.0/arm/arm-none-eabi/include/c++/10.3.1/bits/stl_algobase.h **** #endif
 689:/Library/DaisyToolchain/0.2.0/arm/arm-none-eabi/include/c++/10.3.1/bits/stl_algobase.h **** 	  const ptrdiff_t _Num = __last - __first;
 690:/Library/DaisyToolchain/0.2.0/arm/arm-none-eabi/include/c++/10.3.1/bits/stl_algobase.h **** 	  if (_Num)
 691:/Library/DaisyToolchain/0.2.0/arm/arm-none-eabi/include/c++/10.3.1/bits/stl_algobase.h **** 	    __builtin_memmove(__result - _Num, __first, sizeof(_Tp) * _Num);
 692:/Library/DaisyToolchain/0.2.0/arm/arm-none-eabi/include/c++/10.3.1/bits/stl_algobase.h **** 	  return __result - _Num;
 693:/Library/DaisyToolchain/0.2.0/arm/arm-none-eabi/include/c++/10.3.1/bits/stl_algobase.h **** 	}
 694:/Library/DaisyToolchain/0.2.0/arm/arm-none-eabi/include/c++/10.3.1/bits/stl_algobase.h ****     };
 695:/Library/DaisyToolchain/0.2.0/arm/arm-none-eabi/include/c++/10.3.1/bits/stl_algobase.h **** 
 696:/Library/DaisyToolchain/0.2.0/arm/arm-none-eabi/include/c++/10.3.1/bits/stl_algobase.h ****   template<bool _IsMove, typename _BI1, typename _BI2>
 697:/Library/DaisyToolchain/0.2.0/arm/arm-none-eabi/include/c++/10.3.1/bits/stl_algobase.h ****     _GLIBCXX20_CONSTEXPR
 698:/Library/DaisyToolchain/0.2.0/arm/arm-none-eabi/include/c++/10.3.1/bits/stl_algobase.h ****     inline _BI2
 699:/Library/DaisyToolchain/0.2.0/arm/arm-none-eabi/include/c++/10.3.1/bits/stl_algobase.h ****     __copy_move_backward_a2(_BI1 __first, _BI1 __last, _BI2 __result)
 700:/Library/DaisyToolchain/0.2.0/arm/arm-none-eabi/include/c++/10.3.1/bits/stl_algobase.h ****     {
 701:/Library/DaisyToolchain/0.2.0/arm/arm-none-eabi/include/c++/10.3.1/bits/stl_algobase.h ****       typedef typename iterator_traits<_BI1>::iterator_category _Category;
 702:/Library/DaisyToolchain/0.2.0/arm/arm-none-eabi/include/c++/10.3.1/bits/stl_algobase.h **** #ifdef __cpp_lib_is_constant_evaluated
 703:/Library/DaisyToolchain/0.2.0/arm/arm-none-eabi/include/c++/10.3.1/bits/stl_algobase.h ****       if (std::is_constant_evaluated())
 704:/Library/DaisyToolchain/0.2.0/arm/arm-none-eabi/include/c++/10.3.1/bits/stl_algobase.h **** 	return std::__copy_move_backward<_IsMove, false, _Category>::
 705:/Library/DaisyToolchain/0.2.0/arm/arm-none-eabi/include/c++/10.3.1/bits/stl_algobase.h **** 	  __copy_move_b(__first, __last, __result);
 706:/Library/DaisyToolchain/0.2.0/arm/arm-none-eabi/include/c++/10.3.1/bits/stl_algobase.h **** #endif
 707:/Library/DaisyToolchain/0.2.0/arm/arm-none-eabi/include/c++/10.3.1/bits/stl_algobase.h ****       return std::__copy_move_backward<_IsMove,
 708:/Library/DaisyToolchain/0.2.0/arm/arm-none-eabi/include/c++/10.3.1/bits/stl_algobase.h **** 				       __memcpyable<_BI2, _BI1>::__value,
 709:/Library/DaisyToolchain/0.2.0/arm/arm-none-eabi/include/c++/10.3.1/bits/stl_algobase.h **** 				       _Category>::__copy_move_b(__first,
 710:/Library/DaisyToolchain/0.2.0/arm/arm-none-eabi/include/c++/10.3.1/bits/stl_algobase.h **** 								 __last,
 711:/Library/DaisyToolchain/0.2.0/arm/arm-none-eabi/include/c++/10.3.1/bits/stl_algobase.h **** 								 __result);
 712:/Library/DaisyToolchain/0.2.0/arm/arm-none-eabi/include/c++/10.3.1/bits/stl_algobase.h ****     }
 713:/Library/DaisyToolchain/0.2.0/arm/arm-none-eabi/include/c++/10.3.1/bits/stl_algobase.h **** 
 714:/Library/DaisyToolchain/0.2.0/arm/arm-none-eabi/include/c++/10.3.1/bits/stl_algobase.h ****   template<bool _IsMove, typename _BI1, typename _BI2>
ARM GAS  /var/folders/9s/8rp0_f2s1n31qbztm3b5_fdh0000gn/T//ccrjzSP7.s 			page 41


 715:/Library/DaisyToolchain/0.2.0/arm/arm-none-eabi/include/c++/10.3.1/bits/stl_algobase.h ****     _GLIBCXX20_CONSTEXPR
 716:/Library/DaisyToolchain/0.2.0/arm/arm-none-eabi/include/c++/10.3.1/bits/stl_algobase.h ****     inline _BI2
 717:/Library/DaisyToolchain/0.2.0/arm/arm-none-eabi/include/c++/10.3.1/bits/stl_algobase.h ****     __copy_move_backward_a1(_BI1 __first, _BI1 __last, _BI2 __result)
 718:/Library/DaisyToolchain/0.2.0/arm/arm-none-eabi/include/c++/10.3.1/bits/stl_algobase.h ****     { return std::__copy_move_backward_a2<_IsMove>(__first, __last, __result); }
 719:/Library/DaisyToolchain/0.2.0/arm/arm-none-eabi/include/c++/10.3.1/bits/stl_algobase.h **** 
 720:/Library/DaisyToolchain/0.2.0/arm/arm-none-eabi/include/c++/10.3.1/bits/stl_algobase.h ****   template<bool _IsMove,
 721:/Library/DaisyToolchain/0.2.0/arm/arm-none-eabi/include/c++/10.3.1/bits/stl_algobase.h **** 	   typename _Tp, typename _Ref, typename _Ptr, typename _OI>
 722:/Library/DaisyToolchain/0.2.0/arm/arm-none-eabi/include/c++/10.3.1/bits/stl_algobase.h ****     _OI
 723:/Library/DaisyToolchain/0.2.0/arm/arm-none-eabi/include/c++/10.3.1/bits/stl_algobase.h ****     __copy_move_backward_a1(_GLIBCXX_STD_C::_Deque_iterator<_Tp, _Ref, _Ptr>,
 724:/Library/DaisyToolchain/0.2.0/arm/arm-none-eabi/include/c++/10.3.1/bits/stl_algobase.h **** 			    _GLIBCXX_STD_C::_Deque_iterator<_Tp, _Ref, _Ptr>,
 725:/Library/DaisyToolchain/0.2.0/arm/arm-none-eabi/include/c++/10.3.1/bits/stl_algobase.h **** 			    _OI);
 726:/Library/DaisyToolchain/0.2.0/arm/arm-none-eabi/include/c++/10.3.1/bits/stl_algobase.h **** 
 727:/Library/DaisyToolchain/0.2.0/arm/arm-none-eabi/include/c++/10.3.1/bits/stl_algobase.h ****   template<bool _IsMove,
 728:/Library/DaisyToolchain/0.2.0/arm/arm-none-eabi/include/c++/10.3.1/bits/stl_algobase.h **** 	   typename _ITp, typename _IRef, typename _IPtr, typename _OTp>
 729:/Library/DaisyToolchain/0.2.0/arm/arm-none-eabi/include/c++/10.3.1/bits/stl_algobase.h ****     _GLIBCXX_STD_C::_Deque_iterator<_OTp, _OTp&, _OTp*>
 730:/Library/DaisyToolchain/0.2.0/arm/arm-none-eabi/include/c++/10.3.1/bits/stl_algobase.h ****     __copy_move_backward_a1(
 731:/Library/DaisyToolchain/0.2.0/arm/arm-none-eabi/include/c++/10.3.1/bits/stl_algobase.h **** 			_GLIBCXX_STD_C::_Deque_iterator<_ITp, _IRef, _IPtr>,
 732:/Library/DaisyToolchain/0.2.0/arm/arm-none-eabi/include/c++/10.3.1/bits/stl_algobase.h **** 			_GLIBCXX_STD_C::_Deque_iterator<_ITp, _IRef, _IPtr>,
 733:/Library/DaisyToolchain/0.2.0/arm/arm-none-eabi/include/c++/10.3.1/bits/stl_algobase.h **** 			_GLIBCXX_STD_C::_Deque_iterator<_OTp, _OTp&, _OTp*>);
 734:/Library/DaisyToolchain/0.2.0/arm/arm-none-eabi/include/c++/10.3.1/bits/stl_algobase.h **** 
 735:/Library/DaisyToolchain/0.2.0/arm/arm-none-eabi/include/c++/10.3.1/bits/stl_algobase.h ****   template<bool _IsMove, typename _II, typename _Tp>
 736:/Library/DaisyToolchain/0.2.0/arm/arm-none-eabi/include/c++/10.3.1/bits/stl_algobase.h ****     typename __gnu_cxx::__enable_if<
 737:/Library/DaisyToolchain/0.2.0/arm/arm-none-eabi/include/c++/10.3.1/bits/stl_algobase.h ****       __is_random_access_iter<_II>::__value,
 738:/Library/DaisyToolchain/0.2.0/arm/arm-none-eabi/include/c++/10.3.1/bits/stl_algobase.h ****       _GLIBCXX_STD_C::_Deque_iterator<_Tp, _Tp&, _Tp*> >::__type
 739:/Library/DaisyToolchain/0.2.0/arm/arm-none-eabi/include/c++/10.3.1/bits/stl_algobase.h ****     __copy_move_backward_a1(_II, _II,
 740:/Library/DaisyToolchain/0.2.0/arm/arm-none-eabi/include/c++/10.3.1/bits/stl_algobase.h **** 			    _GLIBCXX_STD_C::_Deque_iterator<_Tp, _Tp&, _Tp*>);
 741:/Library/DaisyToolchain/0.2.0/arm/arm-none-eabi/include/c++/10.3.1/bits/stl_algobase.h **** 
 742:/Library/DaisyToolchain/0.2.0/arm/arm-none-eabi/include/c++/10.3.1/bits/stl_algobase.h ****   template<bool _IsMove, typename _II, typename _OI>
 743:/Library/DaisyToolchain/0.2.0/arm/arm-none-eabi/include/c++/10.3.1/bits/stl_algobase.h ****     _GLIBCXX20_CONSTEXPR
 744:/Library/DaisyToolchain/0.2.0/arm/arm-none-eabi/include/c++/10.3.1/bits/stl_algobase.h ****     inline _OI
 745:/Library/DaisyToolchain/0.2.0/arm/arm-none-eabi/include/c++/10.3.1/bits/stl_algobase.h ****     __copy_move_backward_a(_II __first, _II __last, _OI __result)
 746:/Library/DaisyToolchain/0.2.0/arm/arm-none-eabi/include/c++/10.3.1/bits/stl_algobase.h ****     {
 747:/Library/DaisyToolchain/0.2.0/arm/arm-none-eabi/include/c++/10.3.1/bits/stl_algobase.h ****       return std::__niter_wrap(__result,
 748:/Library/DaisyToolchain/0.2.0/arm/arm-none-eabi/include/c++/10.3.1/bits/stl_algobase.h **** 		std::__copy_move_backward_a1<_IsMove>
 749:/Library/DaisyToolchain/0.2.0/arm/arm-none-eabi/include/c++/10.3.1/bits/stl_algobase.h **** 		  (std::__niter_base(__first), std::__niter_base(__last),
 750:/Library/DaisyToolchain/0.2.0/arm/arm-none-eabi/include/c++/10.3.1/bits/stl_algobase.h **** 		   std::__niter_base(__result)));
 751:/Library/DaisyToolchain/0.2.0/arm/arm-none-eabi/include/c++/10.3.1/bits/stl_algobase.h ****     }
 752:/Library/DaisyToolchain/0.2.0/arm/arm-none-eabi/include/c++/10.3.1/bits/stl_algobase.h **** 
 753:/Library/DaisyToolchain/0.2.0/arm/arm-none-eabi/include/c++/10.3.1/bits/stl_algobase.h ****   template<bool _IsMove,
 754:/Library/DaisyToolchain/0.2.0/arm/arm-none-eabi/include/c++/10.3.1/bits/stl_algobase.h **** 	   typename _Ite, typename _Seq, typename _Cat, typename _OI>
 755:/Library/DaisyToolchain/0.2.0/arm/arm-none-eabi/include/c++/10.3.1/bits/stl_algobase.h ****     _OI
 756:/Library/DaisyToolchain/0.2.0/arm/arm-none-eabi/include/c++/10.3.1/bits/stl_algobase.h ****     __copy_move_backward_a(
 757:/Library/DaisyToolchain/0.2.0/arm/arm-none-eabi/include/c++/10.3.1/bits/stl_algobase.h **** 		const ::__gnu_debug::_Safe_iterator<_Ite, _Seq, _Cat>&,
 758:/Library/DaisyToolchain/0.2.0/arm/arm-none-eabi/include/c++/10.3.1/bits/stl_algobase.h **** 		const ::__gnu_debug::_Safe_iterator<_Ite, _Seq, _Cat>&,
 759:/Library/DaisyToolchain/0.2.0/arm/arm-none-eabi/include/c++/10.3.1/bits/stl_algobase.h **** 		_OI);
 760:/Library/DaisyToolchain/0.2.0/arm/arm-none-eabi/include/c++/10.3.1/bits/stl_algobase.h **** 
 761:/Library/DaisyToolchain/0.2.0/arm/arm-none-eabi/include/c++/10.3.1/bits/stl_algobase.h ****   template<bool _IsMove,
 762:/Library/DaisyToolchain/0.2.0/arm/arm-none-eabi/include/c++/10.3.1/bits/stl_algobase.h **** 	   typename _II, typename _Ite, typename _Seq, typename _Cat>
 763:/Library/DaisyToolchain/0.2.0/arm/arm-none-eabi/include/c++/10.3.1/bits/stl_algobase.h ****     __gnu_debug::_Safe_iterator<_Ite, _Seq, _Cat>
 764:/Library/DaisyToolchain/0.2.0/arm/arm-none-eabi/include/c++/10.3.1/bits/stl_algobase.h ****     __copy_move_backward_a(_II, _II,
 765:/Library/DaisyToolchain/0.2.0/arm/arm-none-eabi/include/c++/10.3.1/bits/stl_algobase.h **** 		const ::__gnu_debug::_Safe_iterator<_Ite, _Seq, _Cat>&);
 766:/Library/DaisyToolchain/0.2.0/arm/arm-none-eabi/include/c++/10.3.1/bits/stl_algobase.h **** 
 767:/Library/DaisyToolchain/0.2.0/arm/arm-none-eabi/include/c++/10.3.1/bits/stl_algobase.h ****   template<bool _IsMove,
 768:/Library/DaisyToolchain/0.2.0/arm/arm-none-eabi/include/c++/10.3.1/bits/stl_algobase.h **** 	   typename _IIte, typename _ISeq, typename _ICat,
 769:/Library/DaisyToolchain/0.2.0/arm/arm-none-eabi/include/c++/10.3.1/bits/stl_algobase.h **** 	   typename _OIte, typename _OSeq, typename _OCat>
 770:/Library/DaisyToolchain/0.2.0/arm/arm-none-eabi/include/c++/10.3.1/bits/stl_algobase.h ****     ::__gnu_debug::_Safe_iterator<_OIte, _OSeq, _OCat>
 771:/Library/DaisyToolchain/0.2.0/arm/arm-none-eabi/include/c++/10.3.1/bits/stl_algobase.h ****     __copy_move_backward_a(
ARM GAS  /var/folders/9s/8rp0_f2s1n31qbztm3b5_fdh0000gn/T//ccrjzSP7.s 			page 42


 772:/Library/DaisyToolchain/0.2.0/arm/arm-none-eabi/include/c++/10.3.1/bits/stl_algobase.h **** 		const ::__gnu_debug::_Safe_iterator<_IIte, _ISeq, _ICat>&,
 773:/Library/DaisyToolchain/0.2.0/arm/arm-none-eabi/include/c++/10.3.1/bits/stl_algobase.h **** 		const ::__gnu_debug::_Safe_iterator<_IIte, _ISeq, _ICat>&,
 774:/Library/DaisyToolchain/0.2.0/arm/arm-none-eabi/include/c++/10.3.1/bits/stl_algobase.h **** 		const ::__gnu_debug::_Safe_iterator<_OIte, _OSeq, _OCat>&);
 775:/Library/DaisyToolchain/0.2.0/arm/arm-none-eabi/include/c++/10.3.1/bits/stl_algobase.h **** 
 776:/Library/DaisyToolchain/0.2.0/arm/arm-none-eabi/include/c++/10.3.1/bits/stl_algobase.h ****   /**
 777:/Library/DaisyToolchain/0.2.0/arm/arm-none-eabi/include/c++/10.3.1/bits/stl_algobase.h ****    *  @brief Copies the range [first,last) into result.
 778:/Library/DaisyToolchain/0.2.0/arm/arm-none-eabi/include/c++/10.3.1/bits/stl_algobase.h ****    *  @ingroup mutating_algorithms
 779:/Library/DaisyToolchain/0.2.0/arm/arm-none-eabi/include/c++/10.3.1/bits/stl_algobase.h ****    *  @param  __first  A bidirectional iterator.
 780:/Library/DaisyToolchain/0.2.0/arm/arm-none-eabi/include/c++/10.3.1/bits/stl_algobase.h ****    *  @param  __last   A bidirectional iterator.
 781:/Library/DaisyToolchain/0.2.0/arm/arm-none-eabi/include/c++/10.3.1/bits/stl_algobase.h ****    *  @param  __result A bidirectional iterator.
 782:/Library/DaisyToolchain/0.2.0/arm/arm-none-eabi/include/c++/10.3.1/bits/stl_algobase.h ****    *  @return   result - (last - first)
 783:/Library/DaisyToolchain/0.2.0/arm/arm-none-eabi/include/c++/10.3.1/bits/stl_algobase.h ****    *
 784:/Library/DaisyToolchain/0.2.0/arm/arm-none-eabi/include/c++/10.3.1/bits/stl_algobase.h ****    *  The function has the same effect as copy, but starts at the end of the
 785:/Library/DaisyToolchain/0.2.0/arm/arm-none-eabi/include/c++/10.3.1/bits/stl_algobase.h ****    *  range and works its way to the start, returning the start of the result.
 786:/Library/DaisyToolchain/0.2.0/arm/arm-none-eabi/include/c++/10.3.1/bits/stl_algobase.h ****    *  This inline function will boil down to a call to @c memmove whenever
 787:/Library/DaisyToolchain/0.2.0/arm/arm-none-eabi/include/c++/10.3.1/bits/stl_algobase.h ****    *  possible.  Failing that, if random access iterators are passed, then the
 788:/Library/DaisyToolchain/0.2.0/arm/arm-none-eabi/include/c++/10.3.1/bits/stl_algobase.h ****    *  loop count will be known (and therefore a candidate for compiler
 789:/Library/DaisyToolchain/0.2.0/arm/arm-none-eabi/include/c++/10.3.1/bits/stl_algobase.h ****    *  optimizations such as unrolling).
 790:/Library/DaisyToolchain/0.2.0/arm/arm-none-eabi/include/c++/10.3.1/bits/stl_algobase.h ****    *
 791:/Library/DaisyToolchain/0.2.0/arm/arm-none-eabi/include/c++/10.3.1/bits/stl_algobase.h ****    *  Result may not be in the range (first,last].  Use copy instead.  Note
 792:/Library/DaisyToolchain/0.2.0/arm/arm-none-eabi/include/c++/10.3.1/bits/stl_algobase.h ****    *  that the start of the output range may overlap [first,last).
 793:/Library/DaisyToolchain/0.2.0/arm/arm-none-eabi/include/c++/10.3.1/bits/stl_algobase.h ****   */
 794:/Library/DaisyToolchain/0.2.0/arm/arm-none-eabi/include/c++/10.3.1/bits/stl_algobase.h ****   template<typename _BI1, typename _BI2>
 795:/Library/DaisyToolchain/0.2.0/arm/arm-none-eabi/include/c++/10.3.1/bits/stl_algobase.h ****     _GLIBCXX20_CONSTEXPR
 796:/Library/DaisyToolchain/0.2.0/arm/arm-none-eabi/include/c++/10.3.1/bits/stl_algobase.h ****     inline _BI2
 797:/Library/DaisyToolchain/0.2.0/arm/arm-none-eabi/include/c++/10.3.1/bits/stl_algobase.h ****     copy_backward(_BI1 __first, _BI1 __last, _BI2 __result)
 798:/Library/DaisyToolchain/0.2.0/arm/arm-none-eabi/include/c++/10.3.1/bits/stl_algobase.h ****     {
 799:/Library/DaisyToolchain/0.2.0/arm/arm-none-eabi/include/c++/10.3.1/bits/stl_algobase.h ****       // concept requirements
 800:/Library/DaisyToolchain/0.2.0/arm/arm-none-eabi/include/c++/10.3.1/bits/stl_algobase.h ****       __glibcxx_function_requires(_BidirectionalIteratorConcept<_BI1>)
 801:/Library/DaisyToolchain/0.2.0/arm/arm-none-eabi/include/c++/10.3.1/bits/stl_algobase.h ****       __glibcxx_function_requires(_Mutable_BidirectionalIteratorConcept<_BI2>)
 802:/Library/DaisyToolchain/0.2.0/arm/arm-none-eabi/include/c++/10.3.1/bits/stl_algobase.h ****       __glibcxx_function_requires(_ConvertibleConcept<
 803:/Library/DaisyToolchain/0.2.0/arm/arm-none-eabi/include/c++/10.3.1/bits/stl_algobase.h **** 	    typename iterator_traits<_BI1>::value_type,
 804:/Library/DaisyToolchain/0.2.0/arm/arm-none-eabi/include/c++/10.3.1/bits/stl_algobase.h **** 	    typename iterator_traits<_BI2>::value_type>)
 805:/Library/DaisyToolchain/0.2.0/arm/arm-none-eabi/include/c++/10.3.1/bits/stl_algobase.h ****       __glibcxx_requires_can_decrement_range(__first, __last, __result);
 806:/Library/DaisyToolchain/0.2.0/arm/arm-none-eabi/include/c++/10.3.1/bits/stl_algobase.h **** 
 807:/Library/DaisyToolchain/0.2.0/arm/arm-none-eabi/include/c++/10.3.1/bits/stl_algobase.h ****       return std::__copy_move_backward_a<__is_move_iterator<_BI1>::__value>
 808:/Library/DaisyToolchain/0.2.0/arm/arm-none-eabi/include/c++/10.3.1/bits/stl_algobase.h **** 	     (std::__miter_base(__first), std::__miter_base(__last), __result);
 809:/Library/DaisyToolchain/0.2.0/arm/arm-none-eabi/include/c++/10.3.1/bits/stl_algobase.h ****     }
 810:/Library/DaisyToolchain/0.2.0/arm/arm-none-eabi/include/c++/10.3.1/bits/stl_algobase.h **** 
 811:/Library/DaisyToolchain/0.2.0/arm/arm-none-eabi/include/c++/10.3.1/bits/stl_algobase.h **** #if __cplusplus >= 201103L
 812:/Library/DaisyToolchain/0.2.0/arm/arm-none-eabi/include/c++/10.3.1/bits/stl_algobase.h ****   /**
 813:/Library/DaisyToolchain/0.2.0/arm/arm-none-eabi/include/c++/10.3.1/bits/stl_algobase.h ****    *  @brief Moves the range [first,last) into result.
 814:/Library/DaisyToolchain/0.2.0/arm/arm-none-eabi/include/c++/10.3.1/bits/stl_algobase.h ****    *  @ingroup mutating_algorithms
 815:/Library/DaisyToolchain/0.2.0/arm/arm-none-eabi/include/c++/10.3.1/bits/stl_algobase.h ****    *  @param  __first  A bidirectional iterator.
 816:/Library/DaisyToolchain/0.2.0/arm/arm-none-eabi/include/c++/10.3.1/bits/stl_algobase.h ****    *  @param  __last   A bidirectional iterator.
 817:/Library/DaisyToolchain/0.2.0/arm/arm-none-eabi/include/c++/10.3.1/bits/stl_algobase.h ****    *  @param  __result A bidirectional iterator.
 818:/Library/DaisyToolchain/0.2.0/arm/arm-none-eabi/include/c++/10.3.1/bits/stl_algobase.h ****    *  @return   result - (last - first)
 819:/Library/DaisyToolchain/0.2.0/arm/arm-none-eabi/include/c++/10.3.1/bits/stl_algobase.h ****    *
 820:/Library/DaisyToolchain/0.2.0/arm/arm-none-eabi/include/c++/10.3.1/bits/stl_algobase.h ****    *  The function has the same effect as move, but starts at the end of the
 821:/Library/DaisyToolchain/0.2.0/arm/arm-none-eabi/include/c++/10.3.1/bits/stl_algobase.h ****    *  range and works its way to the start, returning the start of the result.
 822:/Library/DaisyToolchain/0.2.0/arm/arm-none-eabi/include/c++/10.3.1/bits/stl_algobase.h ****    *  This inline function will boil down to a call to @c memmove whenever
 823:/Library/DaisyToolchain/0.2.0/arm/arm-none-eabi/include/c++/10.3.1/bits/stl_algobase.h ****    *  possible.  Failing that, if random access iterators are passed, then the
 824:/Library/DaisyToolchain/0.2.0/arm/arm-none-eabi/include/c++/10.3.1/bits/stl_algobase.h ****    *  loop count will be known (and therefore a candidate for compiler
 825:/Library/DaisyToolchain/0.2.0/arm/arm-none-eabi/include/c++/10.3.1/bits/stl_algobase.h ****    *  optimizations such as unrolling).
 826:/Library/DaisyToolchain/0.2.0/arm/arm-none-eabi/include/c++/10.3.1/bits/stl_algobase.h ****    *
 827:/Library/DaisyToolchain/0.2.0/arm/arm-none-eabi/include/c++/10.3.1/bits/stl_algobase.h ****    *  Result may not be in the range (first,last].  Use move instead.  Note
 828:/Library/DaisyToolchain/0.2.0/arm/arm-none-eabi/include/c++/10.3.1/bits/stl_algobase.h ****    *  that the start of the output range may overlap [first,last).
ARM GAS  /var/folders/9s/8rp0_f2s1n31qbztm3b5_fdh0000gn/T//ccrjzSP7.s 			page 43


 829:/Library/DaisyToolchain/0.2.0/arm/arm-none-eabi/include/c++/10.3.1/bits/stl_algobase.h ****   */
 830:/Library/DaisyToolchain/0.2.0/arm/arm-none-eabi/include/c++/10.3.1/bits/stl_algobase.h ****   template<typename _BI1, typename _BI2>
 831:/Library/DaisyToolchain/0.2.0/arm/arm-none-eabi/include/c++/10.3.1/bits/stl_algobase.h ****     _GLIBCXX20_CONSTEXPR
 832:/Library/DaisyToolchain/0.2.0/arm/arm-none-eabi/include/c++/10.3.1/bits/stl_algobase.h ****     inline _BI2
 833:/Library/DaisyToolchain/0.2.0/arm/arm-none-eabi/include/c++/10.3.1/bits/stl_algobase.h ****     move_backward(_BI1 __first, _BI1 __last, _BI2 __result)
 834:/Library/DaisyToolchain/0.2.0/arm/arm-none-eabi/include/c++/10.3.1/bits/stl_algobase.h ****     {
 835:/Library/DaisyToolchain/0.2.0/arm/arm-none-eabi/include/c++/10.3.1/bits/stl_algobase.h ****       // concept requirements
 836:/Library/DaisyToolchain/0.2.0/arm/arm-none-eabi/include/c++/10.3.1/bits/stl_algobase.h ****       __glibcxx_function_requires(_BidirectionalIteratorConcept<_BI1>)
 837:/Library/DaisyToolchain/0.2.0/arm/arm-none-eabi/include/c++/10.3.1/bits/stl_algobase.h ****       __glibcxx_function_requires(_Mutable_BidirectionalIteratorConcept<_BI2>)
 838:/Library/DaisyToolchain/0.2.0/arm/arm-none-eabi/include/c++/10.3.1/bits/stl_algobase.h ****       __glibcxx_function_requires(_ConvertibleConcept<
 839:/Library/DaisyToolchain/0.2.0/arm/arm-none-eabi/include/c++/10.3.1/bits/stl_algobase.h **** 	    typename iterator_traits<_BI1>::value_type,
 840:/Library/DaisyToolchain/0.2.0/arm/arm-none-eabi/include/c++/10.3.1/bits/stl_algobase.h **** 	    typename iterator_traits<_BI2>::value_type>)
 841:/Library/DaisyToolchain/0.2.0/arm/arm-none-eabi/include/c++/10.3.1/bits/stl_algobase.h ****       __glibcxx_requires_can_decrement_range(__first, __last, __result);
 842:/Library/DaisyToolchain/0.2.0/arm/arm-none-eabi/include/c++/10.3.1/bits/stl_algobase.h **** 
 843:/Library/DaisyToolchain/0.2.0/arm/arm-none-eabi/include/c++/10.3.1/bits/stl_algobase.h ****       return std::__copy_move_backward_a<true>(std::__miter_base(__first),
 844:/Library/DaisyToolchain/0.2.0/arm/arm-none-eabi/include/c++/10.3.1/bits/stl_algobase.h **** 					       std::__miter_base(__last),
 845:/Library/DaisyToolchain/0.2.0/arm/arm-none-eabi/include/c++/10.3.1/bits/stl_algobase.h **** 					       __result);
 846:/Library/DaisyToolchain/0.2.0/arm/arm-none-eabi/include/c++/10.3.1/bits/stl_algobase.h ****     }
 847:/Library/DaisyToolchain/0.2.0/arm/arm-none-eabi/include/c++/10.3.1/bits/stl_algobase.h **** 
 848:/Library/DaisyToolchain/0.2.0/arm/arm-none-eabi/include/c++/10.3.1/bits/stl_algobase.h **** #define _GLIBCXX_MOVE_BACKWARD3(_Tp, _Up, _Vp) std::move_backward(_Tp, _Up, _Vp)
 849:/Library/DaisyToolchain/0.2.0/arm/arm-none-eabi/include/c++/10.3.1/bits/stl_algobase.h **** #else
 850:/Library/DaisyToolchain/0.2.0/arm/arm-none-eabi/include/c++/10.3.1/bits/stl_algobase.h **** #define _GLIBCXX_MOVE_BACKWARD3(_Tp, _Up, _Vp) std::copy_backward(_Tp, _Up, _Vp)
 851:/Library/DaisyToolchain/0.2.0/arm/arm-none-eabi/include/c++/10.3.1/bits/stl_algobase.h **** #endif
 852:/Library/DaisyToolchain/0.2.0/arm/arm-none-eabi/include/c++/10.3.1/bits/stl_algobase.h **** 
 853:/Library/DaisyToolchain/0.2.0/arm/arm-none-eabi/include/c++/10.3.1/bits/stl_algobase.h ****   template<typename _ForwardIterator, typename _Tp>
 854:/Library/DaisyToolchain/0.2.0/arm/arm-none-eabi/include/c++/10.3.1/bits/stl_algobase.h ****     _GLIBCXX20_CONSTEXPR
 855:/Library/DaisyToolchain/0.2.0/arm/arm-none-eabi/include/c++/10.3.1/bits/stl_algobase.h ****     inline typename
 856:/Library/DaisyToolchain/0.2.0/arm/arm-none-eabi/include/c++/10.3.1/bits/stl_algobase.h ****     __gnu_cxx::__enable_if<!__is_scalar<_Tp>::__value, void>::__type
 857:/Library/DaisyToolchain/0.2.0/arm/arm-none-eabi/include/c++/10.3.1/bits/stl_algobase.h ****     __fill_a1(_ForwardIterator __first, _ForwardIterator __last,
 858:/Library/DaisyToolchain/0.2.0/arm/arm-none-eabi/include/c++/10.3.1/bits/stl_algobase.h **** 	      const _Tp& __value)
 859:/Library/DaisyToolchain/0.2.0/arm/arm-none-eabi/include/c++/10.3.1/bits/stl_algobase.h ****     {
 860:/Library/DaisyToolchain/0.2.0/arm/arm-none-eabi/include/c++/10.3.1/bits/stl_algobase.h ****       for (; __first != __last; ++__first)
 861:/Library/DaisyToolchain/0.2.0/arm/arm-none-eabi/include/c++/10.3.1/bits/stl_algobase.h **** 	*__first = __value;
 862:/Library/DaisyToolchain/0.2.0/arm/arm-none-eabi/include/c++/10.3.1/bits/stl_algobase.h ****     }
 863:/Library/DaisyToolchain/0.2.0/arm/arm-none-eabi/include/c++/10.3.1/bits/stl_algobase.h **** 
 864:/Library/DaisyToolchain/0.2.0/arm/arm-none-eabi/include/c++/10.3.1/bits/stl_algobase.h ****   template<typename _ForwardIterator, typename _Tp>
 865:/Library/DaisyToolchain/0.2.0/arm/arm-none-eabi/include/c++/10.3.1/bits/stl_algobase.h ****     _GLIBCXX20_CONSTEXPR
 866:/Library/DaisyToolchain/0.2.0/arm/arm-none-eabi/include/c++/10.3.1/bits/stl_algobase.h ****     inline typename
 867:/Library/DaisyToolchain/0.2.0/arm/arm-none-eabi/include/c++/10.3.1/bits/stl_algobase.h ****     __gnu_cxx::__enable_if<__is_scalar<_Tp>::__value, void>::__type
 868:/Library/DaisyToolchain/0.2.0/arm/arm-none-eabi/include/c++/10.3.1/bits/stl_algobase.h ****     __fill_a1(_ForwardIterator __first, _ForwardIterator __last,
 869:/Library/DaisyToolchain/0.2.0/arm/arm-none-eabi/include/c++/10.3.1/bits/stl_algobase.h **** 	      const _Tp& __value)
 870:/Library/DaisyToolchain/0.2.0/arm/arm-none-eabi/include/c++/10.3.1/bits/stl_algobase.h ****     {
 871:/Library/DaisyToolchain/0.2.0/arm/arm-none-eabi/include/c++/10.3.1/bits/stl_algobase.h ****       const _Tp __tmp = __value;
 872:/Library/DaisyToolchain/0.2.0/arm/arm-none-eabi/include/c++/10.3.1/bits/stl_algobase.h ****       for (; __first != __last; ++__first)
 873:/Library/DaisyToolchain/0.2.0/arm/arm-none-eabi/include/c++/10.3.1/bits/stl_algobase.h **** 	*__first = __tmp;
 836              		.loc 8 873 11 is_stmt 0 view .LVU239
 837 012c CDED09CA 		vstr.32	s25, [sp, #36]
 838              	.LBE183:
 839              	.LBE182:
 840              	.LBE181:
 841              	.LBE180:
 842              		.loc 3 114 22 view .LVU240
 843 0130 B1EE026A 		vmov.f32	s12, #4.5e+0
 844              	.LBB193:
 845              	.LBB190:
 846              	.LBB187:
 847              	.LBB184:
ARM GAS  /var/folders/9s/8rp0_f2s1n31qbztm3b5_fdh0000gn/T//ccrjzSP7.s 			page 44


 848              		.loc 8 873 11 view .LVU241
 849 0134 CDED0ACA 		vstr.32	s25, [sp, #40]
 850              	.LBE184:
 851              	.LBE187:
 852              	.LBE190:
 853              	.LBE193:
 854              		.loc 3 114 22 view .LVU242
 855 0138 F0EE476A 		vmov.f32	s13, s14
 856              	.LBB194:
 857              	.LBB191:
 858              	.LBB188:
 859              	.LBB185:
 860              		.loc 8 873 11 view .LVU243
 861 013c CDED0BCA 		vstr.32	s25, [sp, #44]
 862              	.LBE185:
 863              	.LBE188:
 864              	.LBE191:
 865              	.LBE194:
 866              		.loc 3 114 30 view .LVU244
 867 0140 78EEC87A 		vsub.f32	s15, s17, s16
 868              		.loc 3 114 38 view .LVU245
 869 0144 67EEA77A 		vmul.f32	s15, s15, s15
 870              		.loc 3 114 22 view .LVU246
 871 0148 E7EE866A 		vfma.f32	s13, s15, s12
 115:eurorack/plaits/dsp/drums/analog_snare_drum.h ****       gain[1] = 2.0f * tone + 0.15f;
 872              		.loc 3 115 29 view .LVU247
 873 014c DFEDA57A 		vldr.32	s15, .L70+44
 874 0150 E8EE0A7A 		vfma.f32	s15, s16, s20
 114:eurorack/plaits/dsp/drums/analog_snare_drum.h ****       gain[0] = 1.5f + (1.0f - tone) * (1.0f - tone) * 4.5f;
 875              		.loc 3 114 15 view .LVU248
 876 0154 CDED076A 		vstr.32	s13, [sp, #28]
 877              		.loc 3 115 7 is_stmt 1 view .LVU249
 878              		.loc 3 115 15 is_stmt 0 view .LVU250
 879 0158 CDED087A 		vstr.32	s15, [sp, #32]
 116:eurorack/plaits/dsp/drums/analog_snare_drum.h ****       std::fill(&gain[2], &gain[kNumModes], 0.0f);
 880              		.loc 3 116 7 is_stmt 1 view .LVU251
 881              	.LVL49:
 882              	.LBB195:
 883              	.LBI180:
 874:/Library/DaisyToolchain/0.2.0/arm/arm-none-eabi/include/c++/10.3.1/bits/stl_algobase.h ****     }
 875:/Library/DaisyToolchain/0.2.0/arm/arm-none-eabi/include/c++/10.3.1/bits/stl_algobase.h **** 
 876:/Library/DaisyToolchain/0.2.0/arm/arm-none-eabi/include/c++/10.3.1/bits/stl_algobase.h ****   // Specialization: for char types we can use memset.
 877:/Library/DaisyToolchain/0.2.0/arm/arm-none-eabi/include/c++/10.3.1/bits/stl_algobase.h ****   template<typename _Tp>
 878:/Library/DaisyToolchain/0.2.0/arm/arm-none-eabi/include/c++/10.3.1/bits/stl_algobase.h ****     _GLIBCXX20_CONSTEXPR
 879:/Library/DaisyToolchain/0.2.0/arm/arm-none-eabi/include/c++/10.3.1/bits/stl_algobase.h ****     inline typename
 880:/Library/DaisyToolchain/0.2.0/arm/arm-none-eabi/include/c++/10.3.1/bits/stl_algobase.h ****     __gnu_cxx::__enable_if<__is_byte<_Tp>::__value, void>::__type
 881:/Library/DaisyToolchain/0.2.0/arm/arm-none-eabi/include/c++/10.3.1/bits/stl_algobase.h ****     __fill_a1(_Tp* __first, _Tp* __last, const _Tp& __c)
 882:/Library/DaisyToolchain/0.2.0/arm/arm-none-eabi/include/c++/10.3.1/bits/stl_algobase.h ****     {
 883:/Library/DaisyToolchain/0.2.0/arm/arm-none-eabi/include/c++/10.3.1/bits/stl_algobase.h ****       const _Tp __tmp = __c;
 884:/Library/DaisyToolchain/0.2.0/arm/arm-none-eabi/include/c++/10.3.1/bits/stl_algobase.h **** #if __cpp_lib_is_constant_evaluated
 885:/Library/DaisyToolchain/0.2.0/arm/arm-none-eabi/include/c++/10.3.1/bits/stl_algobase.h ****       if (std::is_constant_evaluated())
 886:/Library/DaisyToolchain/0.2.0/arm/arm-none-eabi/include/c++/10.3.1/bits/stl_algobase.h **** 	{
 887:/Library/DaisyToolchain/0.2.0/arm/arm-none-eabi/include/c++/10.3.1/bits/stl_algobase.h **** 	  for (; __first != __last; ++__first)
 888:/Library/DaisyToolchain/0.2.0/arm/arm-none-eabi/include/c++/10.3.1/bits/stl_algobase.h **** 	    *__first = __tmp;
 889:/Library/DaisyToolchain/0.2.0/arm/arm-none-eabi/include/c++/10.3.1/bits/stl_algobase.h **** 	  return;
 890:/Library/DaisyToolchain/0.2.0/arm/arm-none-eabi/include/c++/10.3.1/bits/stl_algobase.h **** 	}
 891:/Library/DaisyToolchain/0.2.0/arm/arm-none-eabi/include/c++/10.3.1/bits/stl_algobase.h **** #endif
ARM GAS  /var/folders/9s/8rp0_f2s1n31qbztm3b5_fdh0000gn/T//ccrjzSP7.s 			page 45


 892:/Library/DaisyToolchain/0.2.0/arm/arm-none-eabi/include/c++/10.3.1/bits/stl_algobase.h ****       if (const size_t __len = __last - __first)
 893:/Library/DaisyToolchain/0.2.0/arm/arm-none-eabi/include/c++/10.3.1/bits/stl_algobase.h **** 	__builtin_memset(__first, static_cast<unsigned char>(__tmp), __len);
 894:/Library/DaisyToolchain/0.2.0/arm/arm-none-eabi/include/c++/10.3.1/bits/stl_algobase.h ****     }
 895:/Library/DaisyToolchain/0.2.0/arm/arm-none-eabi/include/c++/10.3.1/bits/stl_algobase.h **** 
 896:/Library/DaisyToolchain/0.2.0/arm/arm-none-eabi/include/c++/10.3.1/bits/stl_algobase.h ****   template<typename _Ite, typename _Cont, typename _Tp>
 897:/Library/DaisyToolchain/0.2.0/arm/arm-none-eabi/include/c++/10.3.1/bits/stl_algobase.h ****     _GLIBCXX20_CONSTEXPR
 898:/Library/DaisyToolchain/0.2.0/arm/arm-none-eabi/include/c++/10.3.1/bits/stl_algobase.h ****     inline void
 899:/Library/DaisyToolchain/0.2.0/arm/arm-none-eabi/include/c++/10.3.1/bits/stl_algobase.h ****     __fill_a1(::__gnu_cxx::__normal_iterator<_Ite, _Cont> __first,
 900:/Library/DaisyToolchain/0.2.0/arm/arm-none-eabi/include/c++/10.3.1/bits/stl_algobase.h **** 	      ::__gnu_cxx::__normal_iterator<_Ite, _Cont> __last,
 901:/Library/DaisyToolchain/0.2.0/arm/arm-none-eabi/include/c++/10.3.1/bits/stl_algobase.h **** 	      const _Tp& __value)
 902:/Library/DaisyToolchain/0.2.0/arm/arm-none-eabi/include/c++/10.3.1/bits/stl_algobase.h ****     { std::__fill_a1(__first.base(), __last.base(), __value); }
 903:/Library/DaisyToolchain/0.2.0/arm/arm-none-eabi/include/c++/10.3.1/bits/stl_algobase.h **** 
 904:/Library/DaisyToolchain/0.2.0/arm/arm-none-eabi/include/c++/10.3.1/bits/stl_algobase.h ****   template<typename _Tp, typename _VTp>
 905:/Library/DaisyToolchain/0.2.0/arm/arm-none-eabi/include/c++/10.3.1/bits/stl_algobase.h ****     void
 906:/Library/DaisyToolchain/0.2.0/arm/arm-none-eabi/include/c++/10.3.1/bits/stl_algobase.h ****     __fill_a1(const _GLIBCXX_STD_C::_Deque_iterator<_Tp, _Tp&, _Tp*>&,
 907:/Library/DaisyToolchain/0.2.0/arm/arm-none-eabi/include/c++/10.3.1/bits/stl_algobase.h **** 	      const _GLIBCXX_STD_C::_Deque_iterator<_Tp, _Tp&, _Tp*>&,
 908:/Library/DaisyToolchain/0.2.0/arm/arm-none-eabi/include/c++/10.3.1/bits/stl_algobase.h **** 	      const _VTp&);
 909:/Library/DaisyToolchain/0.2.0/arm/arm-none-eabi/include/c++/10.3.1/bits/stl_algobase.h **** 
 910:/Library/DaisyToolchain/0.2.0/arm/arm-none-eabi/include/c++/10.3.1/bits/stl_algobase.h ****   template<typename _FIte, typename _Tp>
 911:/Library/DaisyToolchain/0.2.0/arm/arm-none-eabi/include/c++/10.3.1/bits/stl_algobase.h ****     _GLIBCXX20_CONSTEXPR
 912:/Library/DaisyToolchain/0.2.0/arm/arm-none-eabi/include/c++/10.3.1/bits/stl_algobase.h ****     inline void
 913:/Library/DaisyToolchain/0.2.0/arm/arm-none-eabi/include/c++/10.3.1/bits/stl_algobase.h ****     __fill_a(_FIte __first, _FIte __last, const _Tp& __value)
 914:/Library/DaisyToolchain/0.2.0/arm/arm-none-eabi/include/c++/10.3.1/bits/stl_algobase.h ****     { std::__fill_a1(__first, __last, __value); }
 915:/Library/DaisyToolchain/0.2.0/arm/arm-none-eabi/include/c++/10.3.1/bits/stl_algobase.h **** 
 916:/Library/DaisyToolchain/0.2.0/arm/arm-none-eabi/include/c++/10.3.1/bits/stl_algobase.h ****   template<typename _Ite, typename _Seq, typename _Cat, typename _Tp>
 917:/Library/DaisyToolchain/0.2.0/arm/arm-none-eabi/include/c++/10.3.1/bits/stl_algobase.h ****     void
 918:/Library/DaisyToolchain/0.2.0/arm/arm-none-eabi/include/c++/10.3.1/bits/stl_algobase.h ****     __fill_a(const ::__gnu_debug::_Safe_iterator<_Ite, _Seq, _Cat>&,
 919:/Library/DaisyToolchain/0.2.0/arm/arm-none-eabi/include/c++/10.3.1/bits/stl_algobase.h **** 	     const ::__gnu_debug::_Safe_iterator<_Ite, _Seq, _Cat>&,
 920:/Library/DaisyToolchain/0.2.0/arm/arm-none-eabi/include/c++/10.3.1/bits/stl_algobase.h **** 	     const _Tp&);
 921:/Library/DaisyToolchain/0.2.0/arm/arm-none-eabi/include/c++/10.3.1/bits/stl_algobase.h **** 
 922:/Library/DaisyToolchain/0.2.0/arm/arm-none-eabi/include/c++/10.3.1/bits/stl_algobase.h ****   /**
 923:/Library/DaisyToolchain/0.2.0/arm/arm-none-eabi/include/c++/10.3.1/bits/stl_algobase.h ****    *  @brief Fills the range [first,last) with copies of value.
 924:/Library/DaisyToolchain/0.2.0/arm/arm-none-eabi/include/c++/10.3.1/bits/stl_algobase.h ****    *  @ingroup mutating_algorithms
 925:/Library/DaisyToolchain/0.2.0/arm/arm-none-eabi/include/c++/10.3.1/bits/stl_algobase.h ****    *  @param  __first  A forward iterator.
 926:/Library/DaisyToolchain/0.2.0/arm/arm-none-eabi/include/c++/10.3.1/bits/stl_algobase.h ****    *  @param  __last   A forward iterator.
 927:/Library/DaisyToolchain/0.2.0/arm/arm-none-eabi/include/c++/10.3.1/bits/stl_algobase.h ****    *  @param  __value  A reference-to-const of arbitrary type.
 928:/Library/DaisyToolchain/0.2.0/arm/arm-none-eabi/include/c++/10.3.1/bits/stl_algobase.h ****    *  @return   Nothing.
 929:/Library/DaisyToolchain/0.2.0/arm/arm-none-eabi/include/c++/10.3.1/bits/stl_algobase.h ****    *
 930:/Library/DaisyToolchain/0.2.0/arm/arm-none-eabi/include/c++/10.3.1/bits/stl_algobase.h ****    *  This function fills a range with copies of the same value.  For char
 931:/Library/DaisyToolchain/0.2.0/arm/arm-none-eabi/include/c++/10.3.1/bits/stl_algobase.h ****    *  types filling contiguous areas of memory, this becomes an inline call
 932:/Library/DaisyToolchain/0.2.0/arm/arm-none-eabi/include/c++/10.3.1/bits/stl_algobase.h ****    *  to @c memset or @c wmemset.
 933:/Library/DaisyToolchain/0.2.0/arm/arm-none-eabi/include/c++/10.3.1/bits/stl_algobase.h ****   */
 934:/Library/DaisyToolchain/0.2.0/arm/arm-none-eabi/include/c++/10.3.1/bits/stl_algobase.h ****   template<typename _ForwardIterator, typename _Tp>
 935:/Library/DaisyToolchain/0.2.0/arm/arm-none-eabi/include/c++/10.3.1/bits/stl_algobase.h ****     _GLIBCXX20_CONSTEXPR
 936:/Library/DaisyToolchain/0.2.0/arm/arm-none-eabi/include/c++/10.3.1/bits/stl_algobase.h ****     inline void
 937:/Library/DaisyToolchain/0.2.0/arm/arm-none-eabi/include/c++/10.3.1/bits/stl_algobase.h ****     fill(_ForwardIterator __first, _ForwardIterator __last, const _Tp& __value)
 884              		.loc 8 937 5 view .LVU252
 885              	.LBB192:
 886              	.LBI181:
 913:/Library/DaisyToolchain/0.2.0/arm/arm-none-eabi/include/c++/10.3.1/bits/stl_algobase.h ****     { std::__fill_a1(__first, __last, __value); }
 887              		.loc 8 913 5 view .LVU253
 888              	.LBB189:
 889              	.LBI182:
 868:/Library/DaisyToolchain/0.2.0/arm/arm-none-eabi/include/c++/10.3.1/bits/stl_algobase.h **** 	      const _Tp& __value)
 890              		.loc 8 868 5 view .LVU254
 891              	.LBB186:
 872:/Library/DaisyToolchain/0.2.0/arm/arm-none-eabi/include/c++/10.3.1/bits/stl_algobase.h **** 	*__first = __tmp;
ARM GAS  /var/folders/9s/8rp0_f2s1n31qbztm3b5_fdh0000gn/T//ccrjzSP7.s 			page 46


 892              		.loc 8 872 22 view .LVU255
 872:/Library/DaisyToolchain/0.2.0/arm/arm-none-eabi/include/c++/10.3.1/bits/stl_algobase.h **** 	*__first = __tmp;
 893              		.loc 8 872 7 view .LVU256
 872:/Library/DaisyToolchain/0.2.0/arm/arm-none-eabi/include/c++/10.3.1/bits/stl_algobase.h **** 	*__first = __tmp;
 894              		.loc 8 872 22 view .LVU257
 872:/Library/DaisyToolchain/0.2.0/arm/arm-none-eabi/include/c++/10.3.1/bits/stl_algobase.h **** 	*__first = __tmp;
 895              		.loc 8 872 7 view .LVU258
 872:/Library/DaisyToolchain/0.2.0/arm/arm-none-eabi/include/c++/10.3.1/bits/stl_algobase.h **** 	*__first = __tmp;
 896              		.loc 8 872 22 view .LVU259
 872:/Library/DaisyToolchain/0.2.0/arm/arm-none-eabi/include/c++/10.3.1/bits/stl_algobase.h **** 	*__first = __tmp;
 897              		.loc 8 872 7 view .LVU260
 872:/Library/DaisyToolchain/0.2.0/arm/arm-none-eabi/include/c++/10.3.1/bits/stl_algobase.h **** 	*__first = __tmp;
 898              		.loc 8 872 22 view .LVU261
 899              	.L29:
 872:/Library/DaisyToolchain/0.2.0/arm/arm-none-eabi/include/c++/10.3.1/bits/stl_algobase.h **** 	*__first = __tmp;
 900              		.loc 8 872 22 is_stmt 0 view .LVU262
 901              	.LBE186:
 902              	.LBE189:
 903              	.LBE192:
 904              	.LBE195:
 905              	.LBE179:
 117:eurorack/plaits/dsp/drums/analog_snare_drum.h ****     } else {
 118:eurorack/plaits/dsp/drums/analog_snare_drum.h ****       // What the 808 could have been if there were extra modes!
 119:eurorack/plaits/dsp/drums/analog_snare_drum.h ****       tone = (tone - 0.666667f) * 3.0f;
 120:eurorack/plaits/dsp/drums/analog_snare_drum.h ****       gain[0] = 1.5f - tone * 0.5f;
 121:eurorack/plaits/dsp/drums/analog_snare_drum.h ****       gain[1] = 2.15f - tone * 0.7f;
 122:eurorack/plaits/dsp/drums/analog_snare_drum.h ****       for (int i = 2; i < kNumModes; ++i) {
 123:eurorack/plaits/dsp/drums/analog_snare_drum.h ****         gain[i] = tone;
 124:eurorack/plaits/dsp/drums/analog_snare_drum.h ****         tone *= tone;
 125:eurorack/plaits/dsp/drums/analog_snare_drum.h ****       }
 126:eurorack/plaits/dsp/drums/analog_snare_drum.h ****     }
 127:eurorack/plaits/dsp/drums/analog_snare_drum.h **** 
 128:eurorack/plaits/dsp/drums/analog_snare_drum.h ****     float f_noise = f0 * 16.0f;
 906              		.loc 3 128 5 is_stmt 1 view .LVU263
 907              		.loc 3 128 11 is_stmt 0 view .LVU264
 908 015c B3EE000A 		vmov.f32	s0, #1.6e+1
 909 0160 2BEE000A 		vmul.f32	s0, s22, s0
 910              	.LVL50:
 129:eurorack/plaits/dsp/drums/analog_snare_drum.h ****     CONSTRAIN(f_noise, 0.0f, 0.499f);
 911              		.loc 3 129 5 is_stmt 1 view .LVU265
 912 0164 B5EEC00A 		vcmpe.f32	s0, #0
 913 0168 F1EE10FA 		vmrs	APSR_nzcv, FPSCR
 914 016c 00F10681 		bmi	.L53
 915              		.loc 3 129 5 discriminator 2 view .LVU266
 916 0170 B4EE6D0A 		vcmp.f32	s0, s27
 917 0174 DFED997A 		vldr.32	s15, .L70+36
 918 0178 F1EE10FA 		vmrs	APSR_nzcv, FPSCR
 919 017c 37FE800A 		vselgt.f32	s0, s15, s0
 920              	.LVL51:
 921              	.L30:
 922              		.loc 3 129 37 discriminator 6 view .LVU267
 130:eurorack/plaits/dsp/drums/analog_snare_drum.h ****     noise_filter_.set_f_q<stmlib::FREQUENCY_FAST>(
 923              		.loc 3 130 5 discriminator 6 view .LVU268
 924              		.loc 3 130 50 is_stmt 0 discriminator 6 view .LVU269
 925 0180 F0EE680A 		vmov.f32	s1, s17
 926 0184 04F17C09 		add	r9, r4, #124
 927 0188 4846     		mov	r0, r9
ARM GAS  /var/folders/9s/8rp0_f2s1n31qbztm3b5_fdh0000gn/T//ccrjzSP7.s 			page 47


 928 018a E0EE070A 		vfma.f32	s1, s0, s14
 929 018e FFF7FEFF 		bl	_ZN6stmlib3Svf7set_f_qILNS_22FrequencyApproximationE2EEEvff
 930              	.LVL52:
 131:eurorack/plaits/dsp/drums/analog_snare_drum.h ****         f_noise, 1.0f + f_noise * 1.5f);
 132:eurorack/plaits/dsp/drums/analog_snare_drum.h ****         
 133:eurorack/plaits/dsp/drums/analog_snare_drum.h ****     
 134:eurorack/plaits/dsp/drums/analog_snare_drum.h ****     stmlib::ParameterInterpolator sustain_gain(
 931              		.loc 3 134 5 is_stmt 1 discriminator 6 view .LVU270
 932              	.LBB200:
 933              	.LBI200:
 934              		.file 9 "eurorack/stmlib/dsp/parameter_interpolator.h"
   1:eurorack/stmlib/dsp/parameter_interpolator.h **** // Copyright 2015 Emilie Gillet.
   2:eurorack/stmlib/dsp/parameter_interpolator.h **** //
   3:eurorack/stmlib/dsp/parameter_interpolator.h **** // Author: Emilie Gillet (emilie.o.gillet@gmail.com)
   4:eurorack/stmlib/dsp/parameter_interpolator.h **** //
   5:eurorack/stmlib/dsp/parameter_interpolator.h **** // Permission is hereby granted, free of charge, to any person obtaining a copy
   6:eurorack/stmlib/dsp/parameter_interpolator.h **** // of this software and associated documentation files (the "Software"), to deal
   7:eurorack/stmlib/dsp/parameter_interpolator.h **** // in the Software without restriction, including without limitation the rights
   8:eurorack/stmlib/dsp/parameter_interpolator.h **** // to use, copy, modify, merge, publish, distribute, sublicense, and/or sell
   9:eurorack/stmlib/dsp/parameter_interpolator.h **** // copies of the Software, and to permit persons to whom the Software is
  10:eurorack/stmlib/dsp/parameter_interpolator.h **** // furnished to do so, subject to the following conditions:
  11:eurorack/stmlib/dsp/parameter_interpolator.h **** // 
  12:eurorack/stmlib/dsp/parameter_interpolator.h **** // The above copyright notice and this permission notice shall be included in
  13:eurorack/stmlib/dsp/parameter_interpolator.h **** // all copies or substantial portions of the Software.
  14:eurorack/stmlib/dsp/parameter_interpolator.h **** // 
  15:eurorack/stmlib/dsp/parameter_interpolator.h **** // THE SOFTWARE IS PROVIDED "AS IS", WITHOUT WARRANTY OF ANY KIND, EXPRESS OR
  16:eurorack/stmlib/dsp/parameter_interpolator.h **** // IMPLIED, INCLUDING BUT NOT LIMITED TO THE WARRANTIES OF MERCHANTABILITY,
  17:eurorack/stmlib/dsp/parameter_interpolator.h **** // FITNESS FOR A PARTICULAR PURPOSE AND NONINFRINGEMENT. IN NO EVENT SHALL THE
  18:eurorack/stmlib/dsp/parameter_interpolator.h **** // AUTHORS OR COPYRIGHT HOLDERS BE LIABLE FOR ANY CLAIM, DAMAGES OR OTHER
  19:eurorack/stmlib/dsp/parameter_interpolator.h **** // LIABILITY, WHETHER IN AN ACTION OF CONTRACT, TORT OR OTHERWISE, ARISING FROM,
  20:eurorack/stmlib/dsp/parameter_interpolator.h **** // OUT OF OR IN CONNECTION WITH THE SOFTWARE OR THE USE OR OTHER DEALINGS IN
  21:eurorack/stmlib/dsp/parameter_interpolator.h **** // THE SOFTWARE.
  22:eurorack/stmlib/dsp/parameter_interpolator.h **** // 
  23:eurorack/stmlib/dsp/parameter_interpolator.h **** // See http://creativecommons.org/licenses/MIT/ for more information.
  24:eurorack/stmlib/dsp/parameter_interpolator.h **** //
  25:eurorack/stmlib/dsp/parameter_interpolator.h **** // -----------------------------------------------------------------------------
  26:eurorack/stmlib/dsp/parameter_interpolator.h **** //
  27:eurorack/stmlib/dsp/parameter_interpolator.h **** // Linear interpolation of parameters in rendering loops.
  28:eurorack/stmlib/dsp/parameter_interpolator.h **** 
  29:eurorack/stmlib/dsp/parameter_interpolator.h **** #ifndef STMLIB_DSP_PARAMETER_INTERPOLATOR_H_
  30:eurorack/stmlib/dsp/parameter_interpolator.h **** #define STMLIB_DSP_PARAMETER_INTERPOLATOR_H_
  31:eurorack/stmlib/dsp/parameter_interpolator.h **** 
  32:eurorack/stmlib/dsp/parameter_interpolator.h **** #include "stmlib/stmlib.h"
  33:eurorack/stmlib/dsp/parameter_interpolator.h **** 
  34:eurorack/stmlib/dsp/parameter_interpolator.h **** namespace stmlib {
  35:eurorack/stmlib/dsp/parameter_interpolator.h **** 
  36:eurorack/stmlib/dsp/parameter_interpolator.h **** class ParameterInterpolator {
  37:eurorack/stmlib/dsp/parameter_interpolator.h ****  public:
  38:eurorack/stmlib/dsp/parameter_interpolator.h ****   ParameterInterpolator() { }
  39:eurorack/stmlib/dsp/parameter_interpolator.h ****   ParameterInterpolator(float* state, float new_value, size_t size) {
 935              		.loc 9 39 3 discriminator 6 view .LVU271
 936              	.LBE200:
  40:eurorack/stmlib/dsp/parameter_interpolator.h ****     Init(state, new_value, size);
 937              		.loc 9 40 5 discriminator 6 view .LVU272
 938              	.LBB203:
 939              	.LBB201:
 940              	.LBI201:
ARM GAS  /var/folders/9s/8rp0_f2s1n31qbztm3b5_fdh0000gn/T//ccrjzSP7.s 			page 48


  41:eurorack/stmlib/dsp/parameter_interpolator.h ****   }
  42:eurorack/stmlib/dsp/parameter_interpolator.h **** 
  43:eurorack/stmlib/dsp/parameter_interpolator.h ****   ParameterInterpolator(float* state, float new_value, float step) {
  44:eurorack/stmlib/dsp/parameter_interpolator.h ****     state_ = state;
  45:eurorack/stmlib/dsp/parameter_interpolator.h ****     value_ = *state;
  46:eurorack/stmlib/dsp/parameter_interpolator.h ****     increment_ = (new_value - *state) * step;
  47:eurorack/stmlib/dsp/parameter_interpolator.h ****   }
  48:eurorack/stmlib/dsp/parameter_interpolator.h **** 
  49:eurorack/stmlib/dsp/parameter_interpolator.h ****   ~ParameterInterpolator() {
  50:eurorack/stmlib/dsp/parameter_interpolator.h ****     *state_ = value_;
  51:eurorack/stmlib/dsp/parameter_interpolator.h ****   }
  52:eurorack/stmlib/dsp/parameter_interpolator.h ****   
  53:eurorack/stmlib/dsp/parameter_interpolator.h ****   inline void Init(float* state, float new_value, size_t size) {
 941              		.loc 9 53 15 discriminator 6 view .LVU273
 942              	.LBB202:
  54:eurorack/stmlib/dsp/parameter_interpolator.h ****     state_ = state;
 943              		.loc 9 54 5 discriminator 6 view .LVU274
  55:eurorack/stmlib/dsp/parameter_interpolator.h ****     value_ = *state;
 944              		.loc 9 55 5 discriminator 6 view .LVU275
 945              		.loc 9 55 14 is_stmt 0 discriminator 6 view .LVU276
 946 0192 D4ED05CA 		vldr.32	s25, [r4, #20]
 947              	.LVL53:
  56:eurorack/stmlib/dsp/parameter_interpolator.h ****     increment_ = (new_value - *state) / static_cast<float>(size);
 948              		.loc 9 56 5 is_stmt 1 discriminator 6 view .LVU277
 949              		.loc 9 56 41 is_stmt 0 discriminator 6 view .LVU278
 950 0196 DDED227A 		vldr.32	s15, [sp, #136]	@ int
 951              		.loc 9 56 29 discriminator 6 view .LVU279
 952 019a B0EE6C7A 		vmov.f32	s14, s25
 953              		.loc 9 56 41 discriminator 6 view .LVU280
 954 019e F8EE677A 		vcvt.f32.u32	s15, s15
 955              		.loc 9 56 29 discriminator 6 view .LVU281
 956 01a2 9BEE8C7A 		vfnms.f32	s14, s23, s24
 957              		.loc 9 56 39 discriminator 6 view .LVU282
 958 01a6 87EE278A 		vdiv.f32	s16, s14, s15
 959              	.LVL54:
 960              	.L49:
 961              		.loc 9 56 39 discriminator 6 view .LVU283
 962              	.LBE202:
 963              	.LBE201:
 964              	.LBE203:
 135:eurorack/plaits/dsp/drums/analog_snare_drum.h ****         &sustain_gain_,
 136:eurorack/plaits/dsp/drums/analog_snare_drum.h ****         accent * decay,
 137:eurorack/plaits/dsp/drums/analog_snare_drum.h ****         size);
 138:eurorack/plaits/dsp/drums/analog_snare_drum.h ****     
 139:eurorack/plaits/dsp/drums/analog_snare_drum.h ****     while (size--) {
 965              		.loc 3 139 5 is_stmt 1 view .LVU284
 966              		.loc 3 139 16 view .LVU285
 967              		.loc 3 139 16 is_stmt 0 view .LVU286
 968 01aa 229B     		ldr	r3, [sp, #136]
 969 01ac 002B     		cmp	r3, #0
 970 01ae 00F02C81 		beq	.L32
 971              	.LBB204:
 140:eurorack/plaits/dsp/drums/analog_snare_drum.h ****       // Q45 / Q46
 141:eurorack/plaits/dsp/drums/analog_snare_drum.h ****       float pulse = 0.0f;
 972              		.loc 3 141 7 is_stmt 1 view .LVU287
 973              	.LVL55:
 142:eurorack/plaits/dsp/drums/analog_snare_drum.h ****       if (pulse_remaining_samples_) {
ARM GAS  /var/folders/9s/8rp0_f2s1n31qbztm3b5_fdh0000gn/T//ccrjzSP7.s 			page 49


 974              		.loc 3 142 7 view .LVU288
 975              		.loc 3 142 11 is_stmt 0 view .LVU289
 976 01b2 2268     		ldr	r2, [r4]
 977              		.loc 3 142 7 view .LVU290
 978 01b4 002A     		cmp	r2, #0
 979 01b6 00F0E480 		beq	.L33
 143:eurorack/plaits/dsp/drums/analog_snare_drum.h ****         --pulse_remaining_samples_;
 980              		.loc 3 143 9 is_stmt 1 view .LVU291
 981 01ba 013A     		subs	r2, r2, #1
 144:eurorack/plaits/dsp/drums/analog_snare_drum.h ****         pulse = pulse_remaining_samples_ ? pulse_height_ : pulse_height_ - 1.0f;
 982              		.loc 3 144 42 is_stmt 0 view .LVU292
 983 01bc 94ED02CA 		vldr.32	s24, [r4, #8]
 143:eurorack/plaits/dsp/drums/analog_snare_drum.h ****         --pulse_remaining_samples_;
 984              		.loc 3 143 9 view .LVU293
 985 01c0 2260     		str	r2, [r4]
 986              		.loc 3 144 9 is_stmt 1 view .LVU294
 987              		.loc 3 144 42 is_stmt 0 view .LVU295
 988 01c2 0AB9     		cbnz	r2, .L68
 989              		.loc 3 144 42 discriminator 2 view .LVU296
 990 01c4 3CEE68CA 		vsub.f32	s24, s24, s17
 991              	.LVL56:
 145:eurorack/plaits/dsp/drums/analog_snare_drum.h ****         pulse_ = pulse;
 992              		.loc 3 145 9 is_stmt 1 discriminator 2 view .LVU297
 993              	.L68:
 146:eurorack/plaits/dsp/drums/analog_snare_drum.h ****       } else {
 147:eurorack/plaits/dsp/drums/analog_snare_drum.h ****         pulse_ *= 1.0f - 1.0f / kPulseDecayTime;
 148:eurorack/plaits/dsp/drums/analog_snare_drum.h ****         pulse = pulse_;
 149:eurorack/plaits/dsp/drums/analog_snare_drum.h ****       }
 150:eurorack/plaits/dsp/drums/analog_snare_drum.h ****       
 151:eurorack/plaits/dsp/drums/analog_snare_drum.h ****       float sustain_gain_value = sustain_gain.Next();
 152:eurorack/plaits/dsp/drums/analog_snare_drum.h ****       
 153:eurorack/plaits/dsp/drums/analog_snare_drum.h ****       // R189 / C57 / R190 + C58 / C59 / R197 / R196 / IC14
 154:eurorack/plaits/dsp/drums/analog_snare_drum.h ****       ONE_POLE(pulse_lp_, pulse, 0.75f);
 994              		.loc 3 154 7 is_stmt 0 view .LVU298
 995 01c8 D4ED037A 		vldr.32	s15, [r4, #12]
 996 01cc B6EE087A 		vmov.f32	s14, #7.5e-1
 997              	.LBB205:
 998              	.LBB206:
  57:eurorack/stmlib/dsp/parameter_interpolator.h ****   }
  58:eurorack/stmlib/dsp/parameter_interpolator.h **** 
  59:eurorack/stmlib/dsp/parameter_interpolator.h ****   inline float Next() {
  60:eurorack/stmlib/dsp/parameter_interpolator.h ****     value_ += increment_;
 999              		.loc 9 60 12 view .LVU299
 1000 01d0 7CEE88CA 		vadd.f32	s25, s25, s16
 1001              	.LVL57:
 1002              		.loc 9 60 12 view .LVU300
 1003 01d4 2546     		mov	r5, r4
 1004              	.LBE206:
 1005              	.LBE205:
 1006              		.loc 3 154 7 view .LVU301
 1007 01d6 7CEE676A 		vsub.f32	s13, s24, s15
 1008 01da 07A9     		add	r1, sp, #28
 1009 01dc 02AE     		add	r6, sp, #8
 1010 01de 5046     		mov	r0, r10
 1011              	.LBB208:
 155:eurorack/plaits/dsp/drums/analog_snare_drum.h ****       
 156:eurorack/plaits/dsp/drums/analog_snare_drum.h ****       float shell = 0.0f;
ARM GAS  /var/folders/9s/8rp0_f2s1n31qbztm3b5_fdh0000gn/T//ccrjzSP7.s 			page 50


 157:eurorack/plaits/dsp/drums/analog_snare_drum.h ****       for (int i = 0; i < kNumModes; ++i) {
 1012              		.loc 3 157 16 view .LVU302
 1013 01e0 4FF0000B 		mov	fp, #0
 1014              	.LBE208:
 156:eurorack/plaits/dsp/drums/analog_snare_drum.h ****       for (int i = 0; i < kNumModes; ++i) {
 1015              		.loc 3 156 13 view .LVU303
 1016 01e4 9FED7BBA 		vldr.32	s22, .L70+28
 154:eurorack/plaits/dsp/drums/analog_snare_drum.h ****       
 1017              		.loc 3 154 7 view .LVU304
 1018 01e8 E6EE877A 		vfma.f32	s15, s13, s14
 147:eurorack/plaits/dsp/drums/analog_snare_drum.h ****         pulse = pulse_;
 1019              		.loc 3 147 16 view .LVU305
 1020 01ec 84ED01CA 		vstr.32	s24, [r4, #4]
 148:eurorack/plaits/dsp/drums/analog_snare_drum.h ****       }
 1021              		.loc 3 148 9 is_stmt 1 view .LVU306
 1022              	.LVL58:
 151:eurorack/plaits/dsp/drums/analog_snare_drum.h ****       
 1023              		.loc 3 151 7 view .LVU307
 1024              	.LBB222:
 1025              	.LBI205:
  59:eurorack/stmlib/dsp/parameter_interpolator.h ****     value_ += increment_;
 1026              		.loc 9 59 16 view .LVU308
 1027              	.LBB207:
 1028              		.loc 9 60 5 view .LVU309
  61:eurorack/stmlib/dsp/parameter_interpolator.h ****     return value_;
 1029              		.loc 9 61 5 view .LVU310
 1030              		.loc 9 61 5 is_stmt 0 view .LVU311
 1031              	.LBE207:
 1032              	.LBE222:
 154:eurorack/plaits/dsp/drums/analog_snare_drum.h ****       
 1033              		.loc 3 154 7 is_stmt 1 view .LVU312
 1034 01f0 C4ED037A 		vstr.32	s15, [r4, #12]
 154:eurorack/plaits/dsp/drums/analog_snare_drum.h ****       
 1035              		.loc 3 154 40 view .LVU313
 156:eurorack/plaits/dsp/drums/analog_snare_drum.h ****       for (int i = 0; i < kNumModes; ++i) {
 1036              		.loc 3 156 7 view .LVU314
 1037              	.LVL59:
 1038              		.loc 3 157 7 view .LVU315
 1039              	.LBB223:
 1040              		.loc 3 157 25 view .LVU316
 1041              	.L44:
 1042              	.LBB209:
 158:eurorack/plaits/dsp/drums/analog_snare_drum.h ****         float excitation = i == 0
 1043              		.loc 3 158 9 view .LVU317
 159:eurorack/plaits/dsp/drums/analog_snare_drum.h ****             ? (pulse - pulse_lp_) + 0.006f * pulse
 1044              		.loc 3 159 13 is_stmt 0 view .LVU318
 1045 01f4 BBF1000F 		cmp	fp, #0
 1046 01f8 40F0CA80 		bne	.L36
 1047              	.LVL60:
 1048              		.loc 3 159 22 discriminator 1 view .LVU319
 1049 01fc D4ED03BA 		vldr.32	s23, [r4, #12]
 1050              		.loc 3 159 13 discriminator 1 view .LVU320
 1051 0200 DFED797A 		vldr.32	s15, .L70+48
 1052              		.loc 3 159 22 discriminator 1 view .LVU321
 1053 0204 7CEE6BBA 		vsub.f32	s23, s24, s23
 1054              		.loc 3 159 13 discriminator 1 view .LVU322
 1055 0208 ECEE27BA 		vfma.f32	s23, s24, s15
ARM GAS  /var/folders/9s/8rp0_f2s1n31qbztm3b5_fdh0000gn/T//ccrjzSP7.s 			page 51


 1056              	.LVL61:
 1057              	.L37:
 160:eurorack/plaits/dsp/drums/analog_snare_drum.h ****             : 0.026f * pulse;
 161:eurorack/plaits/dsp/drums/analog_snare_drum.h ****         shell += gain[i] * (sustain
 1058              		.loc 3 161 9 is_stmt 1 view .LVU323
 1059              		.loc 3 161 24 is_stmt 0 view .LVU324
 1060 020c B1EC01DA 		vldmia.32	r1!, {s26}
 162:eurorack/plaits/dsp/drums/analog_snare_drum.h ****             ? oscillator_[i].Next(f[i]) * sustain_gain_value * 0.25f
 1061              		.loc 3 162 13 view .LVU325
 1062 0210 B8F1000F 		cmp	r8, #0
 1063 0214 00F0C180 		beq	.L38
 1064              	.LBB210:
 1065              	.LBB211:
  52:eurorack/plaits/dsp/oscillator/sine_oscillator.h ****   }
  53:eurorack/plaits/dsp/oscillator/sine_oscillator.h ****   
  54:eurorack/plaits/dsp/oscillator/sine_oscillator.h ****   inline float Next(float frequency) {
  55:eurorack/plaits/dsp/oscillator/sine_oscillator.h ****     if (frequency >= 0.5f) {
 1066              		.loc 4 55 5 discriminator 1 view .LVU326
 1067 0218 B6EE007A 		vmov.f32	s14, #5.0e-1
 1068              	.LBE211:
 1069              	.LBE210:
 1070              		.loc 3 162 34 discriminator 1 view .LVU327
 1071 021c D6ED007A 		vldr.32	s15, [r6]
 1072              	.LVL62:
 1073              	.LBB219:
 1074              	.LBI210:
  54:eurorack/plaits/dsp/oscillator/sine_oscillator.h ****     if (frequency >= 0.5f) {
 1075              		.loc 4 54 16 is_stmt 1 discriminator 1 view .LVU328
 1076              	.LBB218:
 1077              		.loc 4 55 5 discriminator 1 view .LVU329
 1078              	.LBB212:
 1079              	.LBB213:
 1080              		.file 10 "eurorack/stmlib/dsp/dsp.h"
   1:eurorack/stmlib/dsp/dsp.h **** // Copyright 2012 Emilie Gillet.
   2:eurorack/stmlib/dsp/dsp.h **** //
   3:eurorack/stmlib/dsp/dsp.h **** // Author: Emilie Gillet (emilie.o.gillet@gmail.com)
   4:eurorack/stmlib/dsp/dsp.h **** //
   5:eurorack/stmlib/dsp/dsp.h **** // Permission is hereby granted, free of charge, to any person obtaining a copy
   6:eurorack/stmlib/dsp/dsp.h **** // of this software and associated documentation files (the "Software"), to deal
   7:eurorack/stmlib/dsp/dsp.h **** // in the Software without restriction, including without limitation the rights
   8:eurorack/stmlib/dsp/dsp.h **** // to use, copy, modify, merge, publish, distribute, sublicense, and/or sell
   9:eurorack/stmlib/dsp/dsp.h **** // copies of the Software, and to permit persons to whom the Software is
  10:eurorack/stmlib/dsp/dsp.h **** // furnished to do so, subject to the following conditions:
  11:eurorack/stmlib/dsp/dsp.h **** // 
  12:eurorack/stmlib/dsp/dsp.h **** // The above copyright notice and this permission notice shall be included in
  13:eurorack/stmlib/dsp/dsp.h **** // all copies or substantial portions of the Software.
  14:eurorack/stmlib/dsp/dsp.h **** // 
  15:eurorack/stmlib/dsp/dsp.h **** // THE SOFTWARE IS PROVIDED "AS IS", WITHOUT WARRANTY OF ANY KIND, EXPRESS OR
  16:eurorack/stmlib/dsp/dsp.h **** // IMPLIED, INCLUDING BUT NOT LIMITED TO THE WARRANTIES OF MERCHANTABILITY,
  17:eurorack/stmlib/dsp/dsp.h **** // FITNESS FOR A PARTICULAR PURPOSE AND NONINFRINGEMENT. IN NO EVENT SHALL THE
  18:eurorack/stmlib/dsp/dsp.h **** // AUTHORS OR COPYRIGHT HOLDERS BE LIABLE FOR ANY CLAIM, DAMAGES OR OTHER
  19:eurorack/stmlib/dsp/dsp.h **** // LIABILITY, WHETHER IN AN ACTION OF CONTRACT, TORT OR OTHERWISE, ARISING FROM,
  20:eurorack/stmlib/dsp/dsp.h **** // OUT OF OR IN CONNECTION WITH THE SOFTWARE OR THE USE OR OTHER DEALINGS IN
  21:eurorack/stmlib/dsp/dsp.h **** // THE SOFTWARE.
  22:eurorack/stmlib/dsp/dsp.h **** // 
  23:eurorack/stmlib/dsp/dsp.h **** // See http://creativecommons.org/licenses/MIT/ for more information.
  24:eurorack/stmlib/dsp/dsp.h **** //
ARM GAS  /var/folders/9s/8rp0_f2s1n31qbztm3b5_fdh0000gn/T//ccrjzSP7.s 			page 52


  25:eurorack/stmlib/dsp/dsp.h **** // -----------------------------------------------------------------------------
  26:eurorack/stmlib/dsp/dsp.h **** //
  27:eurorack/stmlib/dsp/dsp.h **** // DSP utility routines.
  28:eurorack/stmlib/dsp/dsp.h **** 
  29:eurorack/stmlib/dsp/dsp.h **** #ifndef STMLIB_UTILS_DSP_DSP_H_
  30:eurorack/stmlib/dsp/dsp.h **** #define STMLIB_UTILS_DSP_DSP_H_
  31:eurorack/stmlib/dsp/dsp.h **** 
  32:eurorack/stmlib/dsp/dsp.h **** #include "stmlib/stmlib.h"
  33:eurorack/stmlib/dsp/dsp.h **** 
  34:eurorack/stmlib/dsp/dsp.h **** #include <cmath>
  35:eurorack/stmlib/dsp/dsp.h **** #include <math.h>
  36:eurorack/stmlib/dsp/dsp.h **** 
  37:eurorack/stmlib/dsp/dsp.h **** namespace stmlib {
  38:eurorack/stmlib/dsp/dsp.h **** 
  39:eurorack/stmlib/dsp/dsp.h **** #define MAKE_INTEGRAL_FRACTIONAL(x) \
  40:eurorack/stmlib/dsp/dsp.h ****   int32_t x ## _integral = static_cast<int32_t>(x); \
  41:eurorack/stmlib/dsp/dsp.h ****   float x ## _fractional = x - static_cast<float>(x ## _integral);
  42:eurorack/stmlib/dsp/dsp.h **** 
  43:eurorack/stmlib/dsp/dsp.h **** inline float Interpolate(const float* table, float index, float size) {
  44:eurorack/stmlib/dsp/dsp.h ****   index *= size;
  45:eurorack/stmlib/dsp/dsp.h ****   MAKE_INTEGRAL_FRACTIONAL(index)
  46:eurorack/stmlib/dsp/dsp.h ****   float a = table[index_integral];
 1081              		.loc 10 46 9 is_stmt 0 discriminator 1 view .LVU330
 1082 0220 724B     		ldr	r3, .L70+52
 1083              	.LBE213:
 1084              	.LBE212:
  56:eurorack/plaits/dsp/oscillator/sine_oscillator.h ****       frequency = 0.5f;
 1085              		.loc 4 56 17 discriminator 1 view .LVU331
 1086 0222 F4EE477A 		vcmp.f32	s15, s14
 1087 0226 F1EE10FA 		vmrs	APSR_nzcv, FPSCR
 1088 022a 67FE277A 		vselge.f32	s15, s14, s15
 1089              	.LVL63:
  57:eurorack/plaits/dsp/oscillator/sine_oscillator.h ****     }
  58:eurorack/plaits/dsp/oscillator/sine_oscillator.h ****     
  59:eurorack/plaits/dsp/oscillator/sine_oscillator.h ****     phase_ += frequency;
 1090              		.loc 4 59 5 is_stmt 1 discriminator 1 view .LVU332
 1091              		.loc 4 59 12 is_stmt 0 discriminator 1 view .LVU333
 1092 022e 95ED247A 		vldr.32	s14, [r5, #144]
 1093 0232 77EE877A 		vadd.f32	s15, s15, s14
 1094              	.LVL64:
  60:eurorack/plaits/dsp/oscillator/sine_oscillator.h ****     if (phase_ >= 1.0f) {
 1095              		.loc 4 60 5 is_stmt 1 discriminator 1 view .LVU334
 1096              	.LBB216:
 1097              	.LBB214:
  44:eurorack/stmlib/dsp/dsp.h ****   MAKE_INTEGRAL_FRACTIONAL(index)
 1098              		.loc 10 44 9 is_stmt 0 discriminator 1 view .LVU335
 1099 0236 9FED6E7A 		vldr.32	s14, .L70+56
 1100              	.LBE214:
 1101              	.LBE216:
 1102              		.loc 4 60 5 discriminator 1 view .LVU336
 1103 023a F4EEE87A 		vcmpe.f32	s15, s17
 1104 023e F1EE10FA 		vmrs	APSR_nzcv, FPSCR
 1105              	.LVL65:
  61:eurorack/plaits/dsp/oscillator/sine_oscillator.h ****       phase_ -= 1.0f;
 1106              		.loc 4 61 7 is_stmt 1 discriminator 1 view .LVU337
 1107              		.loc 4 61 14 is_stmt 0 discriminator 1 view .LVU338
 1108 0242 A8BF     		it	ge
ARM GAS  /var/folders/9s/8rp0_f2s1n31qbztm3b5_fdh0000gn/T//ccrjzSP7.s 			page 53


 1109 0244 77EEE87A 		vsubge.f32	s15, s15, s17
 1110 0248 C5ED247A 		vstr.32	s15, [r5, #144]
  62:eurorack/plaits/dsp/oscillator/sine_oscillator.h ****     }
  63:eurorack/plaits/dsp/oscillator/sine_oscillator.h ****     
  64:eurorack/plaits/dsp/oscillator/sine_oscillator.h ****     return stmlib::Interpolate(lut_sine, phase_, 1024.0f);
 1111              		.loc 4 64 5 is_stmt 1 discriminator 1 view .LVU339
 1112              	.LVL66:
 1113              	.LBB217:
 1114              	.LBI212:
  43:eurorack/stmlib/dsp/dsp.h ****   index *= size;
 1115              		.loc 10 43 14 discriminator 1 view .LVU340
 1116              	.LBB215:
  44:eurorack/stmlib/dsp/dsp.h ****   MAKE_INTEGRAL_FRACTIONAL(index)
 1117              		.loc 10 44 3 discriminator 1 view .LVU341
  44:eurorack/stmlib/dsp/dsp.h ****   MAKE_INTEGRAL_FRACTIONAL(index)
 1118              		.loc 10 44 9 is_stmt 0 discriminator 1 view .LVU342
 1119 024c D5ED247A 		vldr.32	s15, [r5, #144]
  44:eurorack/stmlib/dsp/dsp.h ****   MAKE_INTEGRAL_FRACTIONAL(index)
 1120              		.loc 10 44 9 discriminator 1 view .LVU343
 1121 0250 67EE877A 		vmul.f32	s15, s15, s14
 1122              	.LVL67:
  45:eurorack/stmlib/dsp/dsp.h ****   float a = table[index_integral];
 1123              		.loc 10 45 3 is_stmt 1 discriminator 1 view .LVU344
 1124 0254 BDEEE77A 		vcvt.s32.f32	s14, s15
 1125 0258 17EE10CA 		vmov	ip, s14	@ int
 1126              	.LVL68:
  45:eurorack/stmlib/dsp/dsp.h ****   float a = table[index_integral];
 1127              		.loc 10 45 3 discriminator 1 view .LVU345
 1128              		.loc 10 46 3 discriminator 1 view .LVU346
  45:eurorack/stmlib/dsp/dsp.h ****   float a = table[index_integral];
 1129              		.loc 10 45 3 is_stmt 0 discriminator 1 view .LVU347
 1130 025c B8EEC77A 		vcvt.f32.s32	s14, s14
 1131              		.loc 10 46 9 discriminator 1 view .LVU348
 1132 0260 03EB8C0E 		add	lr, r3, ip, lsl #2
  45:eurorack/stmlib/dsp/dsp.h ****   float a = table[index_integral];
 1133              		.loc 10 45 3 discriminator 1 view .LVU349
 1134 0264 77EEC77A 		vsub.f32	s15, s15, s14
 1135              	.LVL69:
