ARM GAS  /var/folders/9s/8rp0_f2s1n31qbztm3b5_fdh0000gn/T//ccR6g0UC.s 			page 1


   1              		.cpu cortex-m7
   2              		.arch armv7e-m
   3              		.fpu fpv5-d16
   4              		.eabi_attribute 28, 1
   5              		.eabi_attribute 20, 1
   6              		.eabi_attribute 21, 1
   7              		.eabi_attribute 23, 3
   8              		.eabi_attribute 24, 1
   9              		.eabi_attribute 25, 1
  10              		.eabi_attribute 26, 1
  11              		.eabi_attribute 30, 4
  12              		.eabi_attribute 34, 1
  13              		.eabi_attribute 18, 4
  14              		.file	"string_engine.cc"
  15              		.text
  16              	.Ltext0:
  17              		.cfi_sections	.debug_frame
  18              		.section	.text._ZN6plaits12StringEngine6RenderERKNS_16EngineParametersEPfS4_jPb,"ax",%progbits
  19              		.align	1
  20              		.global	_ZN6plaits12StringEngine6RenderERKNS_16EngineParametersEPfS4_jPb
  21              		.syntax unified
  22              		.thumb
  23              		.thumb_func
  25              	_ZN6plaits12StringEngine6RenderERKNS_16EngineParametersEPfS4_jPb:
  26              	.LVL0:
  27              	.LFB1535:
  28              		.file 1 "eurorack/plaits/dsp/engine/string_engine.cc"
   1:eurorack/plaits/dsp/engine/string_engine.cc **** // Copyright 2016 Emilie Gillet.
   2:eurorack/plaits/dsp/engine/string_engine.cc **** //
   3:eurorack/plaits/dsp/engine/string_engine.cc **** // Author: Emilie Gillet (emilie.o.gillet@gmail.com)
   4:eurorack/plaits/dsp/engine/string_engine.cc **** //
   5:eurorack/plaits/dsp/engine/string_engine.cc **** // Permission is hereby granted, free of charge, to any person obtaining a copy
   6:eurorack/plaits/dsp/engine/string_engine.cc **** // of this software and associated documentation files (the "Software"), to deal
   7:eurorack/plaits/dsp/engine/string_engine.cc **** // in the Software without restriction, including without limitation the rights
   8:eurorack/plaits/dsp/engine/string_engine.cc **** // to use, copy, modify, merge, publish, distribute, sublicense, and/or sell
   9:eurorack/plaits/dsp/engine/string_engine.cc **** // copies of the Software, and to permit persons to whom the Software is
  10:eurorack/plaits/dsp/engine/string_engine.cc **** // furnished to do so, subject to the following conditions:
  11:eurorack/plaits/dsp/engine/string_engine.cc **** // 
  12:eurorack/plaits/dsp/engine/string_engine.cc **** // The above copyright notice and this permission notice shall be included in
  13:eurorack/plaits/dsp/engine/string_engine.cc **** // all copies or substantial portions of the Software.
  14:eurorack/plaits/dsp/engine/string_engine.cc **** // 
  15:eurorack/plaits/dsp/engine/string_engine.cc **** // THE SOFTWARE IS PROVIDED "AS IS", WITHOUT WARRANTY OF ANY KIND, EXPRESS OR
  16:eurorack/plaits/dsp/engine/string_engine.cc **** // IMPLIED, INCLUDING BUT NOT LIMITED TO THE WARRANTIES OF MERCHANTABILITY,
  17:eurorack/plaits/dsp/engine/string_engine.cc **** // FITNESS FOR A PARTICULAR PURPOSE AND NONINFRINGEMENT. IN NO EVENT SHALL THE
  18:eurorack/plaits/dsp/engine/string_engine.cc **** // AUTHORS OR COPYRIGHT HOLDERS BE LIABLE FOR ANY CLAIM, DAMAGES OR OTHER
  19:eurorack/plaits/dsp/engine/string_engine.cc **** // LIABILITY, WHETHER IN AN ACTION OF CONTRACT, TORT OR OTHERWISE, ARISING FROM,
  20:eurorack/plaits/dsp/engine/string_engine.cc **** // OUT OF OR IN CONNECTION WITH THE SOFTWARE OR THE USE OR OTHER DEALINGS IN
  21:eurorack/plaits/dsp/engine/string_engine.cc **** // THE SOFTWARE.
  22:eurorack/plaits/dsp/engine/string_engine.cc **** // 
  23:eurorack/plaits/dsp/engine/string_engine.cc **** // See http://creativecommons.org/licenses/MIT/ for more information.
  24:eurorack/plaits/dsp/engine/string_engine.cc **** //
  25:eurorack/plaits/dsp/engine/string_engine.cc **** // -----------------------------------------------------------------------------
  26:eurorack/plaits/dsp/engine/string_engine.cc **** //
  27:eurorack/plaits/dsp/engine/string_engine.cc **** // Three voices of string synthesis.
  28:eurorack/plaits/dsp/engine/string_engine.cc **** 
  29:eurorack/plaits/dsp/engine/string_engine.cc **** #include "plaits/dsp/engine/string_engine.h"
  30:eurorack/plaits/dsp/engine/string_engine.cc **** 
ARM GAS  /var/folders/9s/8rp0_f2s1n31qbztm3b5_fdh0000gn/T//ccR6g0UC.s 			page 2


  31:eurorack/plaits/dsp/engine/string_engine.cc **** #include <algorithm>
  32:eurorack/plaits/dsp/engine/string_engine.cc **** 
  33:eurorack/plaits/dsp/engine/string_engine.cc **** namespace plaits {
  34:eurorack/plaits/dsp/engine/string_engine.cc **** 
  35:eurorack/plaits/dsp/engine/string_engine.cc **** using namespace std;
  36:eurorack/plaits/dsp/engine/string_engine.cc **** using namespace stmlib;
  37:eurorack/plaits/dsp/engine/string_engine.cc **** 
  38:eurorack/plaits/dsp/engine/string_engine.cc **** void StringEngine::Init(BufferAllocator* allocator) {
  39:eurorack/plaits/dsp/engine/string_engine.cc ****   temp_buffer_ = allocator->Allocate<float>(kMaxBlockSize);
  40:eurorack/plaits/dsp/engine/string_engine.cc ****   for (int i = 0; i < kNumStrings; ++i) {
  41:eurorack/plaits/dsp/engine/string_engine.cc ****     voice_[i].Init(allocator);
  42:eurorack/plaits/dsp/engine/string_engine.cc ****     f0_[i] = 0.01f;
  43:eurorack/plaits/dsp/engine/string_engine.cc ****   }
  44:eurorack/plaits/dsp/engine/string_engine.cc ****   active_string_ = kNumStrings - 1;
  45:eurorack/plaits/dsp/engine/string_engine.cc ****   f0_delay_.Init(allocator->Allocate<float>(16));
  46:eurorack/plaits/dsp/engine/string_engine.cc **** }
  47:eurorack/plaits/dsp/engine/string_engine.cc **** 
  48:eurorack/plaits/dsp/engine/string_engine.cc **** void StringEngine::Reset() {
  49:eurorack/plaits/dsp/engine/string_engine.cc ****   f0_delay_.Reset();
  50:eurorack/plaits/dsp/engine/string_engine.cc ****   for (int i = 0; i < kNumStrings; ++i) {
  51:eurorack/plaits/dsp/engine/string_engine.cc ****     voice_[i].Reset();
  52:eurorack/plaits/dsp/engine/string_engine.cc ****   }
  53:eurorack/plaits/dsp/engine/string_engine.cc **** }
  54:eurorack/plaits/dsp/engine/string_engine.cc **** 
  55:eurorack/plaits/dsp/engine/string_engine.cc **** void StringEngine::Render(
  56:eurorack/plaits/dsp/engine/string_engine.cc ****     const EngineParameters& parameters,
  57:eurorack/plaits/dsp/engine/string_engine.cc ****     float* out,
  58:eurorack/plaits/dsp/engine/string_engine.cc ****     float* aux,
  59:eurorack/plaits/dsp/engine/string_engine.cc ****     size_t size,
  60:eurorack/plaits/dsp/engine/string_engine.cc ****     bool* already_enveloped) {
  29              		.loc 1 60 30 view -0
  30              		.cfi_startproc
  31              		@ args = 8, pretend = 0, frame = 8
  32              		@ frame_needed = 0, uses_anonymous_args = 0
  61:eurorack/plaits/dsp/engine/string_engine.cc ****   if (parameters.trigger & TRIGGER_RISING_EDGE) {
  33              		.loc 1 61 3 view .LVU1
  60:eurorack/plaits/dsp/engine/string_engine.cc ****   if (parameters.trigger & TRIGGER_RISING_EDGE) {
  34              		.loc 1 60 30 is_stmt 0 view .LVU2
  35 0000 2DE9F04F 		push	{r4, r5, r6, r7, r8, r9, r10, fp, lr}
  36              		.cfi_def_cfa_offset 36
  37              		.cfi_offset 4, -36
  38              		.cfi_offset 5, -32
  39              		.cfi_offset 6, -28
  40              		.cfi_offset 7, -24
  41              		.cfi_offset 8, -20
  42              		.cfi_offset 9, -16
  43              		.cfi_offset 10, -12
  44              		.cfi_offset 11, -8
  45              		.cfi_offset 14, -4
  46 0004 0E46     		mov	r6, r1
  47 0006 9946     		mov	r9, r3
  48 0008 0446     		mov	r4, r0
  49 000a 87B0     		sub	sp, sp, #28
  50              		.cfi_def_cfa_offset 64
  51              		.loc 1 61 3 view .LVU3
  52 000c 3378     		ldrb	r3, [r6]	@ zero_extendqisi2
  53              	.LVL1:
ARM GAS  /var/folders/9s/8rp0_f2s1n31qbztm3b5_fdh0000gn/T//ccR6g0UC.s 			page 3


  60:eurorack/plaits/dsp/engine/string_engine.cc ****   if (parameters.trigger & TRIGGER_RISING_EDGE) {
  54              		.loc 1 60 30 view .LVU4
  55 000e 9046     		mov	r8, r2
  56              	.LBB39:
  57              	.LBB40:
  58              		.file 2 "eurorack/plaits/dsp/physical_modelling/delay_line.h"
   1:eurorack/plaits/dsp/physical_modelling/delay_line.h **** // Copyright 2014 Emilie Gillet.
   2:eurorack/plaits/dsp/physical_modelling/delay_line.h **** //
   3:eurorack/plaits/dsp/physical_modelling/delay_line.h **** // Author: Emilie Gillet (emilie.o.gillet@gmail.com)
   4:eurorack/plaits/dsp/physical_modelling/delay_line.h **** //
   5:eurorack/plaits/dsp/physical_modelling/delay_line.h **** // Permission is hereby granted, free of charge, to any person obtaining a copy
   6:eurorack/plaits/dsp/physical_modelling/delay_line.h **** // of this software and associated documentation files (the "Software"), to deal
   7:eurorack/plaits/dsp/physical_modelling/delay_line.h **** // in the Software without restriction, including without limitation the rights
   8:eurorack/plaits/dsp/physical_modelling/delay_line.h **** // to use, copy, modify, merge, publish, distribute, sublicense, and/or sell
   9:eurorack/plaits/dsp/physical_modelling/delay_line.h **** // copies of the Software, and to permit persons to whom the Software is
  10:eurorack/plaits/dsp/physical_modelling/delay_line.h **** // furnished to do so, subject to the following conditions:
  11:eurorack/plaits/dsp/physical_modelling/delay_line.h **** // 
  12:eurorack/plaits/dsp/physical_modelling/delay_line.h **** // The above copyright notice and this permission notice shall be included in
  13:eurorack/plaits/dsp/physical_modelling/delay_line.h **** // all copies or substantial portions of the Software.
  14:eurorack/plaits/dsp/physical_modelling/delay_line.h **** // 
  15:eurorack/plaits/dsp/physical_modelling/delay_line.h **** // THE SOFTWARE IS PROVIDED "AS IS", WITHOUT WARRANTY OF ANY KIND, EXPRESS OR
  16:eurorack/plaits/dsp/physical_modelling/delay_line.h **** // IMPLIED, INCLUDING BUT NOT LIMITED TO THE WARRANTIES OF MERCHANTABILITY,
  17:eurorack/plaits/dsp/physical_modelling/delay_line.h **** // FITNESS FOR A PARTICULAR PURPOSE AND NONINFRINGEMENT. IN NO EVENT SHALL THE
  18:eurorack/plaits/dsp/physical_modelling/delay_line.h **** // AUTHORS OR COPYRIGHT HOLDERS BE LIABLE FOR ANY CLAIM, DAMAGES OR OTHER
  19:eurorack/plaits/dsp/physical_modelling/delay_line.h **** // LIABILITY, WHETHER IN AN ACTION OF CONTRACT, TORT OR OTHERWISE, ARISING FROM,
  20:eurorack/plaits/dsp/physical_modelling/delay_line.h **** // OUT OF OR IN CONNECTION WITH THE SOFTWARE OR THE USE OR OTHER DEALINGS IN
  21:eurorack/plaits/dsp/physical_modelling/delay_line.h **** // THE SOFTWARE.
  22:eurorack/plaits/dsp/physical_modelling/delay_line.h **** // 
  23:eurorack/plaits/dsp/physical_modelling/delay_line.h **** // See http://creativecommons.org/licenses/MIT/ for more information.
  24:eurorack/plaits/dsp/physical_modelling/delay_line.h **** //
  25:eurorack/plaits/dsp/physical_modelling/delay_line.h **** // -----------------------------------------------------------------------------
  26:eurorack/plaits/dsp/physical_modelling/delay_line.h **** //
  27:eurorack/plaits/dsp/physical_modelling/delay_line.h **** // Delay line (same implementation as from stmlib, but does not own its buffer).
  28:eurorack/plaits/dsp/physical_modelling/delay_line.h **** 
  29:eurorack/plaits/dsp/physical_modelling/delay_line.h **** #ifndef PLAITS_DSP_PHYSICAL_MODELLING_DELAY_LINE_H_
  30:eurorack/plaits/dsp/physical_modelling/delay_line.h **** #define PLAITS_DSP_PHYSICAL_MODELLING_DELAY_LINE_H_
  31:eurorack/plaits/dsp/physical_modelling/delay_line.h **** 
  32:eurorack/plaits/dsp/physical_modelling/delay_line.h **** #include <algorithm>
  33:eurorack/plaits/dsp/physical_modelling/delay_line.h **** 
  34:eurorack/plaits/dsp/physical_modelling/delay_line.h **** #include "stmlib/dsp/dsp.h"
  35:eurorack/plaits/dsp/physical_modelling/delay_line.h **** 
  36:eurorack/plaits/dsp/physical_modelling/delay_line.h **** namespace plaits {
  37:eurorack/plaits/dsp/physical_modelling/delay_line.h **** 
  38:eurorack/plaits/dsp/physical_modelling/delay_line.h **** template<typename T, size_t max_delay>
  39:eurorack/plaits/dsp/physical_modelling/delay_line.h **** class DelayLine {
  40:eurorack/plaits/dsp/physical_modelling/delay_line.h ****  public:
  41:eurorack/plaits/dsp/physical_modelling/delay_line.h ****   DelayLine() { }
  42:eurorack/plaits/dsp/physical_modelling/delay_line.h ****   ~DelayLine() { }
  43:eurorack/plaits/dsp/physical_modelling/delay_line.h ****   
  44:eurorack/plaits/dsp/physical_modelling/delay_line.h ****   void Init(float* buffer) {
  45:eurorack/plaits/dsp/physical_modelling/delay_line.h ****     line_ = buffer;
  46:eurorack/plaits/dsp/physical_modelling/delay_line.h ****     Reset();
  47:eurorack/plaits/dsp/physical_modelling/delay_line.h ****   }
  48:eurorack/plaits/dsp/physical_modelling/delay_line.h ****   
  49:eurorack/plaits/dsp/physical_modelling/delay_line.h ****   void Reset() {
  50:eurorack/plaits/dsp/physical_modelling/delay_line.h ****     std::fill(&line_[0], &line_[max_delay], T(0));
  51:eurorack/plaits/dsp/physical_modelling/delay_line.h ****     write_ptr_ = 0;
ARM GAS  /var/folders/9s/8rp0_f2s1n31qbztm3b5_fdh0000gn/T//ccR6g0UC.s 			page 4


  52:eurorack/plaits/dsp/physical_modelling/delay_line.h ****   }
  53:eurorack/plaits/dsp/physical_modelling/delay_line.h ****   
  54:eurorack/plaits/dsp/physical_modelling/delay_line.h ****   inline void Write(const T sample) {
  55:eurorack/plaits/dsp/physical_modelling/delay_line.h ****     line_[write_ptr_] = sample;
  56:eurorack/plaits/dsp/physical_modelling/delay_line.h ****     write_ptr_ = (write_ptr_ - 1 + max_delay) % max_delay;
  57:eurorack/plaits/dsp/physical_modelling/delay_line.h ****   }
  58:eurorack/plaits/dsp/physical_modelling/delay_line.h ****   
  59:eurorack/plaits/dsp/physical_modelling/delay_line.h ****   inline const T Allpass(const T sample, size_t delay, const T coefficient) {
  60:eurorack/plaits/dsp/physical_modelling/delay_line.h ****     T read = line_[(write_ptr_ + delay) % max_delay];
  61:eurorack/plaits/dsp/physical_modelling/delay_line.h ****     T write = sample + coefficient * read;
  62:eurorack/plaits/dsp/physical_modelling/delay_line.h ****     Write(write);
  63:eurorack/plaits/dsp/physical_modelling/delay_line.h ****     return -write * coefficient + read;
  64:eurorack/plaits/dsp/physical_modelling/delay_line.h ****   }
  65:eurorack/plaits/dsp/physical_modelling/delay_line.h **** 
  66:eurorack/plaits/dsp/physical_modelling/delay_line.h ****   inline const T WriteRead(const T sample, float delay) {
  67:eurorack/plaits/dsp/physical_modelling/delay_line.h ****     Write(sample);
  68:eurorack/plaits/dsp/physical_modelling/delay_line.h ****     return Read(delay);
  69:eurorack/plaits/dsp/physical_modelling/delay_line.h ****   }
  70:eurorack/plaits/dsp/physical_modelling/delay_line.h ****   
  71:eurorack/plaits/dsp/physical_modelling/delay_line.h ****   inline const T Read(float delay) const {
  72:eurorack/plaits/dsp/physical_modelling/delay_line.h ****     MAKE_INTEGRAL_FRACTIONAL(delay)
  73:eurorack/plaits/dsp/physical_modelling/delay_line.h ****     const T a = line_[(write_ptr_ + delay_integral) % max_delay];
  59              		.loc 2 73 24 view .LVU5
  60 0010 D0E94F51 		ldrd	r5, r1, [r0, #316]
  61              	.LVL2:
  62              		.loc 2 73 24 view .LVU6
  63              	.LBE40:
  64              	.LBE39:
  65              		.loc 1 61 3 view .LVU7
  66 0014 DF07     		lsls	r7, r3, #31
  67              	.LBB45:
  68              	.LBB41:
  74:eurorack/plaits/dsp/physical_modelling/delay_line.h ****     const T b = line_[(write_ptr_ + delay_integral + 1) % max_delay];
  69              		.loc 2 74 52 view .LVU8
  70 0016 05F10F00 		add	r0, r5, #15
  71              	.LVL3:
  72              		.loc 2 74 57 view .LVU9
  73 001a 00F00F00 		and	r0, r0, #15
  74              	.LBE41:
  75              	.LBE45:
  76              		.loc 1 61 3 view .LVU10
  77 001e 20D5     		bpl	.L2
  78              	.LBB46:
  79              	.LBB42:
  73:eurorack/plaits/dsp/physical_modelling/delay_line.h ****     const T b = line_[(write_ptr_ + delay_integral + 1) % max_delay];
  80              		.loc 2 73 35 view .LVU11
  81 0020 05F10E02 		add	r2, r5, #14
  82              	.LVL4:
  75:eurorack/plaits/dsp/physical_modelling/delay_line.h ****     return a + (b - a) * T(delay_fractional);
  83              		.loc 2 75 44 view .LVU12
  84 0024 DFED516A 		vldr.32	s13, .L16
  85              	.LBE42:
  86              	.LBE46:
  62:eurorack/plaits/dsp/engine/string_engine.cc ****     // 8 in original firmware version.
  63:eurorack/plaits/dsp/engine/string_engine.cc ****     // 05.01.18: mic.w: problem with microbrute.
  64:eurorack/plaits/dsp/engine/string_engine.cc ****     f0_[active_string_] = f0_delay_.Read(14);
  87              		.loc 1 64 9 view .LVU13
ARM GAS  /var/folders/9s/8rp0_f2s1n31qbztm3b5_fdh0000gn/T//ccR6g0UC.s 			page 5


  88 0028 D4F84431 		ldr	r3, [r4, #324]
  89              		.loc 1 64 5 is_stmt 1 view .LVU14
  90              	.LVL5:
  91              	.LBB47:
  92              	.LBI39:
  71:eurorack/plaits/dsp/physical_modelling/delay_line.h ****     MAKE_INTEGRAL_FRACTIONAL(delay)
  93              		.loc 2 71 18 view .LVU15
  94              	.LBB43:
  73:eurorack/plaits/dsp/physical_modelling/delay_line.h ****     const T b = line_[(write_ptr_ + delay_integral + 1) % max_delay];
  95              		.loc 2 73 53 is_stmt 0 view .LVU16
  96 002c 02F00F02 		and	r2, r2, #15
  73:eurorack/plaits/dsp/physical_modelling/delay_line.h ****     const T b = line_[(write_ptr_ + delay_integral + 1) % max_delay];
  97              		.loc 2 73 13 view .LVU17
  98 0030 01EB8202 		add	r2, r1, r2, lsl #2
  99 0034 D2ED007A 		vldr.32	s15, [r2]
 100              	.LVL6:
  74:eurorack/plaits/dsp/physical_modelling/delay_line.h ****     return a + (b - a) * T(delay_fractional);
 101              		.loc 2 74 13 view .LVU18
 102 0038 01EB8002 		add	r2, r1, r0, lsl #2
 103              	.LVL7:
 104              		.loc 2 75 19 view .LVU19
 105 003c 92ED007A 		vldr.32	s14, [r2]
 106              	.LBE43:
 107              	.LBE47:
 108              		.loc 1 64 25 view .LVU20
 109 0040 04EB8302 		add	r2, r4, r3, lsl #2
 110              	.LVL8:
  65:eurorack/plaits/dsp/engine/string_engine.cc ****     active_string_ = (active_string_ + 1) % kNumStrings;
 111              		.loc 1 65 38 view .LVU21
 112 0044 0133     		adds	r3, r3, #1
 113              	.LBB48:
 114              	.LBB44:
 115              		.loc 2 75 19 view .LVU22
 116 0046 37EE677A 		vsub.f32	s14, s14, s15
 117              	.LVL9:
 118              		.loc 2 75 44 view .LVU23
 119 004a E7EE267A 		vfma.f32	s15, s14, s13
 120              	.LVL10:
 121              		.loc 2 75 44 view .LVU24
 122              	.LBE44:
 123              	.LBE48:
  64:eurorack/plaits/dsp/engine/string_engine.cc ****     active_string_ = (active_string_ + 1) % kNumStrings;
 124              		.loc 1 64 25 view .LVU25
 125 004e C2ED4C7A 		vstr.32	s15, [r2, #304]
 126              		.loc 1 65 5 is_stmt 1 view .LVU26
 127              		.loc 1 65 43 is_stmt 0 view .LVU27
 128 0052 0322     		movs	r2, #3
 129 0054 93FBF2F2 		sdiv	r2, r3, r2
 130 0058 02EB4202 		add	r2, r2, r2, lsl #1
 131 005c 9B1A     		subs	r3, r3, r2
 132              		.loc 1 65 20 view .LVU28
 133 005e C4F84431 		str	r3, [r4, #324]
 134              	.L2:
  66:eurorack/plaits/dsp/engine/string_engine.cc ****   }
  67:eurorack/plaits/dsp/engine/string_engine.cc ****   
  68:eurorack/plaits/dsp/engine/string_engine.cc ****   const float f0 = NoteToFrequency(parameters.note);
 135              		.loc 1 68 3 is_stmt 1 view .LVU29
ARM GAS  /var/folders/9s/8rp0_f2s1n31qbztm3b5_fdh0000gn/T//ccR6g0UC.s 			page 6


 136              	.LVL11:
 137              	.LBB49:
 138              	.LBI49:
 139              		.file 3 "eurorack/plaits/dsp/engine/engine.h"
   1:eurorack/plaits/dsp/engine/engine.h **** // Copyright 2016 Emilie Gillet.
   2:eurorack/plaits/dsp/engine/engine.h **** //
   3:eurorack/plaits/dsp/engine/engine.h **** // Author: Emilie Gillet (emilie.o.gillet@gmail.com)
   4:eurorack/plaits/dsp/engine/engine.h **** //
   5:eurorack/plaits/dsp/engine/engine.h **** // Permission is hereby granted, free of charge, to any person obtaining a copy
   6:eurorack/plaits/dsp/engine/engine.h **** // of this software and associated documentation files (the "Software"), to deal
   7:eurorack/plaits/dsp/engine/engine.h **** // in the Software without restriction, including without limitation the rights
   8:eurorack/plaits/dsp/engine/engine.h **** // to use, copy, modify, merge, publish, distribute, sublicense, and/or sell
   9:eurorack/plaits/dsp/engine/engine.h **** // copies of the Software, and to permit persons to whom the Software is
  10:eurorack/plaits/dsp/engine/engine.h **** // furnished to do so, subject to the following conditions:
  11:eurorack/plaits/dsp/engine/engine.h **** // 
  12:eurorack/plaits/dsp/engine/engine.h **** // The above copyright notice and this permission notice shall be included in
  13:eurorack/plaits/dsp/engine/engine.h **** // all copies or substantial portions of the Software.
  14:eurorack/plaits/dsp/engine/engine.h **** // 
  15:eurorack/plaits/dsp/engine/engine.h **** // THE SOFTWARE IS PROVIDED "AS IS", WITHOUT WARRANTY OF ANY KIND, EXPRESS OR
  16:eurorack/plaits/dsp/engine/engine.h **** // IMPLIED, INCLUDING BUT NOT LIMITED TO THE WARRANTIES OF MERCHANTABILITY,
  17:eurorack/plaits/dsp/engine/engine.h **** // FITNESS FOR A PARTICULAR PURPOSE AND NONINFRINGEMENT. IN NO EVENT SHALL THE
  18:eurorack/plaits/dsp/engine/engine.h **** // AUTHORS OR COPYRIGHT HOLDERS BE LIABLE FOR ANY CLAIM, DAMAGES OR OTHER
  19:eurorack/plaits/dsp/engine/engine.h **** // LIABILITY, WHETHER IN AN ACTION OF CONTRACT, TORT OR OTHERWISE, ARISING FROM,
  20:eurorack/plaits/dsp/engine/engine.h **** // OUT OF OR IN CONNECTION WITH THE SOFTWARE OR THE USE OR OTHER DEALINGS IN
  21:eurorack/plaits/dsp/engine/engine.h **** // THE SOFTWARE.
  22:eurorack/plaits/dsp/engine/engine.h **** // 
  23:eurorack/plaits/dsp/engine/engine.h **** // See http://creativecommons.org/licenses/MIT/ for more information.
  24:eurorack/plaits/dsp/engine/engine.h **** //
  25:eurorack/plaits/dsp/engine/engine.h **** // -----------------------------------------------------------------------------
  26:eurorack/plaits/dsp/engine/engine.h **** //
  27:eurorack/plaits/dsp/engine/engine.h **** // Base class for all engines.
  28:eurorack/plaits/dsp/engine/engine.h **** 
  29:eurorack/plaits/dsp/engine/engine.h **** #ifndef PLAITS_DSP_ENGINE_ENGINE_H_
  30:eurorack/plaits/dsp/engine/engine.h **** #define PLAITS_DSP_ENGINE_ENGINE_H_
  31:eurorack/plaits/dsp/engine/engine.h **** 
  32:eurorack/plaits/dsp/engine/engine.h **** #include "plaits/dsp/dsp.h"
  33:eurorack/plaits/dsp/engine/engine.h **** 
  34:eurorack/plaits/dsp/engine/engine.h **** #include "stmlib/dsp/units.h"
  35:eurorack/plaits/dsp/engine/engine.h **** #include "stmlib/utils/buffer_allocator.h"
  36:eurorack/plaits/dsp/engine/engine.h **** 
  37:eurorack/plaits/dsp/engine/engine.h **** namespace plaits {
  38:eurorack/plaits/dsp/engine/engine.h **** 
  39:eurorack/plaits/dsp/engine/engine.h **** inline float NoteToFrequency(float midi_note) {
 140              		.loc 3 39 14 view .LVU30
 141              	.LBB50:
  40:eurorack/plaits/dsp/engine/engine.h ****   midi_note -= 9.0f;
 142              		.loc 3 40 3 view .LVU31
 143              		.loc 3 40 13 is_stmt 0 view .LVU32
 144 0062 B2EE027A 		vmov.f32	s14, #9.0e+0
 145 0066 D6ED017A 		vldr.32	s15, [r6, #4]
 146 006a 77EEC77A 		vsub.f32	s15, s15, s14
 147              	.LVL12:
  41:eurorack/plaits/dsp/engine/engine.h ****   CONSTRAIN(midi_note, -128.0f, 127.0f);
 148              		.loc 3 41 3 is_stmt 1 view .LVU33
 149 006e 9FED407A 		vldr.32	s14, .L16+4
 150 0072 F4EEC77A 		vcmpe.f32	s15, s14
 151 0076 F1EE10FA 		vmrs	APSR_nzcv, FPSCR
ARM GAS  /var/folders/9s/8rp0_f2s1n31qbztm3b5_fdh0000gn/T//ccR6g0UC.s 			page 7


 152 007a 73D4     		bmi	.L8
 153              		.loc 3 41 3 view .LVU34
 154 007c 9FED3D7A 		vldr.32	s14, .L16+8
 155 0080 F4EE477A 		vcmp.f32	s15, s14
 156 0084 F1EE10FA 		vmrs	APSR_nzcv, FPSCR
 157 0088 77FE277A 		vselgt.f32	s15, s14, s15
 158              	.LVL13:
 159              	.L3:
 160              		.loc 3 41 40 view .LVU35
  42:eurorack/plaits/dsp/engine/engine.h ****   return a0 * 0.25f * stmlib::SemitonesToRatio(midi_note);
 161              		.loc 3 42 3 view .LVU36
 162              	.LBB51:
 163              	.LBI51:
 164              		.file 4 "eurorack/stmlib/dsp/units.h"
   1:eurorack/stmlib/dsp/units.h **** // Copyright 2014 Emilie Gillet.
   2:eurorack/stmlib/dsp/units.h **** //
   3:eurorack/stmlib/dsp/units.h **** // Author: Emilie Gillet (emilie.o.gillet@gmail.com)
   4:eurorack/stmlib/dsp/units.h **** //
   5:eurorack/stmlib/dsp/units.h **** // Permission is hereby granted, free of charge, to any person obtaining a copy
   6:eurorack/stmlib/dsp/units.h **** // of this software and associated documentation files (the "Software"), to deal
   7:eurorack/stmlib/dsp/units.h **** // in the Software without restriction, including without limitation the rights
   8:eurorack/stmlib/dsp/units.h **** // to use, copy, modify, merge, publish, distribute, sublicense, and/or sell
   9:eurorack/stmlib/dsp/units.h **** // copies of the Software, and to permit persons to whom the Software is
  10:eurorack/stmlib/dsp/units.h **** // furnished to do so, subject to the following conditions:
  11:eurorack/stmlib/dsp/units.h **** // 
  12:eurorack/stmlib/dsp/units.h **** // The above copyright notice and this permission notice shall be included in
  13:eurorack/stmlib/dsp/units.h **** // all copies or substantial portions of the Software.
  14:eurorack/stmlib/dsp/units.h **** // 
  15:eurorack/stmlib/dsp/units.h **** // THE SOFTWARE IS PROVIDED "AS IS", WITHOUT WARRANTY OF ANY KIND, EXPRESS OR
  16:eurorack/stmlib/dsp/units.h **** // IMPLIED, INCLUDING BUT NOT LIMITED TO THE WARRANTIES OF MERCHANTABILITY,
  17:eurorack/stmlib/dsp/units.h **** // FITNESS FOR A PARTICULAR PURPOSE AND NONINFRINGEMENT. IN NO EVENT SHALL THE
  18:eurorack/stmlib/dsp/units.h **** // AUTHORS OR COPYRIGHT HOLDERS BE LIABLE FOR ANY CLAIM, DAMAGES OR OTHER
  19:eurorack/stmlib/dsp/units.h **** // LIABILITY, WHETHER IN AN ACTION OF CONTRACT, TORT OR OTHERWISE, ARISING FROM,
  20:eurorack/stmlib/dsp/units.h **** // OUT OF OR IN CONNECTION WITH THE SOFTWARE OR THE USE OR OTHER DEALINGS IN
  21:eurorack/stmlib/dsp/units.h **** // THE SOFTWARE.
  22:eurorack/stmlib/dsp/units.h **** // 
  23:eurorack/stmlib/dsp/units.h **** // See http://creativecommons.org/licenses/MIT/ for more information.
  24:eurorack/stmlib/dsp/units.h **** //
  25:eurorack/stmlib/dsp/units.h **** // -----------------------------------------------------------------------------
  26:eurorack/stmlib/dsp/units.h **** //
  27:eurorack/stmlib/dsp/units.h **** // Conversion from semitones to frequency ratio.
  28:eurorack/stmlib/dsp/units.h **** 
  29:eurorack/stmlib/dsp/units.h **** #ifndef STMLIB_DSP_UNITS_H_
  30:eurorack/stmlib/dsp/units.h **** #define STMLIB_DSP_UNITS_H_
  31:eurorack/stmlib/dsp/units.h **** 
  32:eurorack/stmlib/dsp/units.h **** #include "stmlib/stmlib.h"
  33:eurorack/stmlib/dsp/units.h **** #include "stmlib/dsp/dsp.h"
  34:eurorack/stmlib/dsp/units.h **** 
  35:eurorack/stmlib/dsp/units.h **** namespace stmlib {
  36:eurorack/stmlib/dsp/units.h **** 
  37:eurorack/stmlib/dsp/units.h **** extern const float lut_pitch_ratio_high[257];
  38:eurorack/stmlib/dsp/units.h **** extern const float lut_pitch_ratio_low[257];
  39:eurorack/stmlib/dsp/units.h **** 
  40:eurorack/stmlib/dsp/units.h **** inline float SemitonesToRatio(float semitones) {
 165              		.loc 4 40 14 view .LVU37
 166              	.LBB52:
  41:eurorack/stmlib/dsp/units.h ****   float pitch = semitones + 128.0f;
ARM GAS  /var/folders/9s/8rp0_f2s1n31qbztm3b5_fdh0000gn/T//ccR6g0UC.s 			page 8


 167              		.loc 4 41 3 view .LVU38
 168              		.loc 4 41 9 is_stmt 0 view .LVU39
 169 008c 9FED3A7A 		vldr.32	s14, .L16+12
 170              	.LBE52:
 171              	.LBE51:
 172              	.LBE50:
 173              	.LBE49:
 174              	.LBB64:
 175              	.LBB65:
  55:eurorack/plaits/dsp/physical_modelling/delay_line.h ****     write_ptr_ = (write_ptr_ - 1 + max_delay) % max_delay;
 176              		.loc 2 55 23 view .LVU40
 177 0090 01EB8501 		add	r1, r1, r5, lsl #2
 178              	.LBE65:
 179              	.LBE64:
 180              	.LBB68:
 181              	.LBB59:
 182              	.LBB56:
 183              	.LBB53:
  42:eurorack/stmlib/dsp/units.h ****   MAKE_INTEGRAL_FRACTIONAL(pitch)
  43:eurorack/stmlib/dsp/units.h **** 
  44:eurorack/stmlib/dsp/units.h ****   return lut_pitch_ratio_high[pitch_integral] * \
  45:eurorack/stmlib/dsp/units.h ****       lut_pitch_ratio_low[static_cast<int32_t>(pitch_fractional * 256.0f)];
 184              		.loc 4 45 74 view .LVU41
 185 0094 394A     		ldr	r2, .L16+16
 186 0096 04F5987B 		add	fp, r4, #304
  41:eurorack/stmlib/dsp/units.h ****   MAKE_INTEGRAL_FRACTIONAL(pitch)
 187              		.loc 4 41 9 view .LVU42
 188 009a 77EE877A 		vadd.f32	s15, s15, s14
 189              	.LVL14:
  42:eurorack/stmlib/dsp/units.h ****   MAKE_INTEGRAL_FRACTIONAL(pitch)
 190              		.loc 4 42 3 is_stmt 1 view .LVU43
 191 009e 04F1100A 		add	r10, r4, #16
 192 00a2 BDEEE77A 		vcvt.s32.f32	s14, s15
 193              	.LVL15:
  42:eurorack/stmlib/dsp/units.h ****   MAKE_INTEGRAL_FRACTIONAL(pitch)
 194              		.loc 4 42 3 view .LVU44
  44:eurorack/stmlib/dsp/units.h ****       lut_pitch_ratio_low[static_cast<int32_t>(pitch_fractional * 256.0f)];
 195              		.loc 4 44 3 view .LVU45
  42:eurorack/stmlib/dsp/units.h ****   MAKE_INTEGRAL_FRACTIONAL(pitch)
 196              		.loc 4 42 3 is_stmt 0 view .LVU46
 197 00a6 F8EEC76A 		vcvt.f32.s32	s13, s14
  44:eurorack/stmlib/dsp/units.h ****       lut_pitch_ratio_low[static_cast<int32_t>(pitch_fractional * 256.0f)];
 198              		.loc 4 44 45 view .LVU47
 199 00aa 17EE107A 		vmov	r7, s14	@ int
  42:eurorack/stmlib/dsp/units.h ****   MAKE_INTEGRAL_FRACTIONAL(pitch)
 200              		.loc 4 42 3 view .LVU48
 201 00ae 77EEE67A 		vsub.f32	s15, s15, s13
 202              		.loc 4 45 27 view .LVU49
 203 00b2 FEEECC7A 		vcvt.s32.f32	s15, s15, #8
 204              		.loc 4 45 74 view .LVU50
 205 00b6 17EE903A 		vmov	r3, s15	@ int
 206 00ba 02EB8302 		add	r2, r2, r3, lsl #2
  44:eurorack/stmlib/dsp/units.h ****       lut_pitch_ratio_low[static_cast<int32_t>(pitch_fractional * 256.0f)];
 207              		.loc 4 44 45 view .LVU51
 208 00be 304B     		ldr	r3, .L16+20
 209 00c0 03EB8703 		add	r3, r3, r7, lsl #2
 210              		.loc 4 45 74 view .LVU52
ARM GAS  /var/folders/9s/8rp0_f2s1n31qbztm3b5_fdh0000gn/T//ccR6g0UC.s 			page 9


 211 00c4 D2ED007A 		vldr.32	s15, [r2]
 212              	.LBE53:
 213              	.LBE56:
 214              	.LBE59:
 215              	.LBE68:
 216              	.LBB69:
  69:eurorack/plaits/dsp/engine/string_engine.cc ****   f0_[active_string_] = f0;
  70:eurorack/plaits/dsp/engine/string_engine.cc ****   f0_delay_.Write(f0);
  71:eurorack/plaits/dsp/engine/string_engine.cc ****   
  72:eurorack/plaits/dsp/engine/string_engine.cc ****   fill(&out[0], &out[size], 0.0f);
  73:eurorack/plaits/dsp/engine/string_engine.cc ****   fill(&aux[0], &aux[size], 0.0f);
  74:eurorack/plaits/dsp/engine/string_engine.cc ****   
  75:eurorack/plaits/dsp/engine/string_engine.cc ****   for (int i = 0; i < kNumStrings; ++i) {
 217              		.loc 1 75 12 view .LVU53
 218 00c8 0027     		movs	r7, #0
 219              	.LBE69:
 220              	.LBB70:
 221              	.LBB60:
 222              	.LBB57:
 223              	.LBB54:
 224              		.loc 4 45 74 view .LVU54
 225 00ca 93ED007A 		vldr.32	s14, [r3]
 226              	.LBE54:
 227              	.LBE57:
 228              	.LBE60:
 229              	.LBE70:
  69:eurorack/plaits/dsp/engine/string_engine.cc ****   f0_[active_string_] = f0;
 230              		.loc 1 69 23 view .LVU55
 231 00ce D4F84431 		ldr	r3, [r4, #324]
 232              	.LBB71:
 233              	.LBB61:
 234              	.LBB58:
 235              	.LBB55:
 236              		.loc 4 45 74 view .LVU56
 237 00d2 67EE877A 		vmul.f32	s15, s15, s14
 238              	.LBE55:
 239              	.LBE58:
 240              		.loc 3 42 57 view .LVU57
 241 00d6 9FED2B7A 		vldr.32	s14, .L16+24
 242              	.LBE61:
 243              	.LBE71:
  69:eurorack/plaits/dsp/engine/string_engine.cc ****   f0_[active_string_] = f0;
 244              		.loc 1 69 23 view .LVU58
 245 00da 04EB8303 		add	r3, r4, r3, lsl #2
 246              	.LBB72:
 247              	.LBB62:
 248              		.loc 3 42 57 view .LVU59
 249 00de 67EE877A 		vmul.f32	s15, s15, s14
 250              	.LVL16:
 251              		.loc 3 42 57 view .LVU60
 252              	.LBE62:
 253              	.LBE72:
  69:eurorack/plaits/dsp/engine/string_engine.cc ****   f0_[active_string_] = f0;
 254              		.loc 1 69 3 is_stmt 1 view .LVU61
  69:eurorack/plaits/dsp/engine/string_engine.cc ****   f0_[active_string_] = f0;
 255              		.loc 1 69 23 is_stmt 0 view .LVU62
 256 00e2 C3ED4C7A 		vstr.32	s15, [r3, #304]
ARM GAS  /var/folders/9s/8rp0_f2s1n31qbztm3b5_fdh0000gn/T//ccR6g0UC.s 			page 10


  70:eurorack/plaits/dsp/engine/string_engine.cc ****   
 257              		.loc 1 70 3 is_stmt 1 view .LVU63
 258              	.LVL17:
 259              	.LBB73:
 260              	.LBI64:
  54:eurorack/plaits/dsp/physical_modelling/delay_line.h ****     line_[write_ptr_] = sample;
 261              		.loc 2 54 15 view .LVU64
 262              	.LBE73:
  72:eurorack/plaits/dsp/engine/string_engine.cc ****   fill(&aux[0], &aux[size], 0.0f);
 263              		.loc 1 72 26 is_stmt 0 view .LVU65
 264 00e6 109B     		ldr	r3, [sp, #64]
 265              	.LBB74:
 266              	.LBB66:
  55:eurorack/plaits/dsp/physical_modelling/delay_line.h ****     write_ptr_ = (write_ptr_ - 1 + max_delay) % max_delay;
 267              		.loc 2 55 23 view .LVU66
 268 00e8 C1ED007A 		vstr.32	s15, [r1]
 269              	.LBE66:
 270              	.LBE74:
 271              	.LBB75:
 272              	.LBB76:
 273              	.LBB77:
 274              	.LBB78:
 275              		.file 5 "/Library/DaisyToolchain/0.2.0/arm/arm-none-eabi/include/c++/10.3.1/bits/stl_algobase.h"
   1:/Library/DaisyToolchain/0.2.0/arm/arm-none-eabi/include/c++/10.3.1/bits/stl_algobase.h **** // Core algorithmic facilities -*- C++ -*-
   2:/Library/DaisyToolchain/0.2.0/arm/arm-none-eabi/include/c++/10.3.1/bits/stl_algobase.h **** 
   3:/Library/DaisyToolchain/0.2.0/arm/arm-none-eabi/include/c++/10.3.1/bits/stl_algobase.h **** // Copyright (C) 2001-2020 Free Software Foundation, Inc.
   4:/Library/DaisyToolchain/0.2.0/arm/arm-none-eabi/include/c++/10.3.1/bits/stl_algobase.h **** //
   5:/Library/DaisyToolchain/0.2.0/arm/arm-none-eabi/include/c++/10.3.1/bits/stl_algobase.h **** // This file is part of the GNU ISO C++ Library.  This library is free
   6:/Library/DaisyToolchain/0.2.0/arm/arm-none-eabi/include/c++/10.3.1/bits/stl_algobase.h **** // software; you can redistribute it and/or modify it under the
   7:/Library/DaisyToolchain/0.2.0/arm/arm-none-eabi/include/c++/10.3.1/bits/stl_algobase.h **** // terms of the GNU General Public License as published by the
   8:/Library/DaisyToolchain/0.2.0/arm/arm-none-eabi/include/c++/10.3.1/bits/stl_algobase.h **** // Free Software Foundation; either version 3, or (at your option)
   9:/Library/DaisyToolchain/0.2.0/arm/arm-none-eabi/include/c++/10.3.1/bits/stl_algobase.h **** // any later version.
  10:/Library/DaisyToolchain/0.2.0/arm/arm-none-eabi/include/c++/10.3.1/bits/stl_algobase.h **** 
  11:/Library/DaisyToolchain/0.2.0/arm/arm-none-eabi/include/c++/10.3.1/bits/stl_algobase.h **** // This library is distributed in the hope that it will be useful,
  12:/Library/DaisyToolchain/0.2.0/arm/arm-none-eabi/include/c++/10.3.1/bits/stl_algobase.h **** // but WITHOUT ANY WARRANTY; without even the implied warranty of
  13:/Library/DaisyToolchain/0.2.0/arm/arm-none-eabi/include/c++/10.3.1/bits/stl_algobase.h **** // MERCHANTABILITY or FITNESS FOR A PARTICULAR PURPOSE.  See the
  14:/Library/DaisyToolchain/0.2.0/arm/arm-none-eabi/include/c++/10.3.1/bits/stl_algobase.h **** // GNU General Public License for more details.
  15:/Library/DaisyToolchain/0.2.0/arm/arm-none-eabi/include/c++/10.3.1/bits/stl_algobase.h **** 
  16:/Library/DaisyToolchain/0.2.0/arm/arm-none-eabi/include/c++/10.3.1/bits/stl_algobase.h **** // Under Section 7 of GPL version 3, you are granted additional
  17:/Library/DaisyToolchain/0.2.0/arm/arm-none-eabi/include/c++/10.3.1/bits/stl_algobase.h **** // permissions described in the GCC Runtime Library Exception, version
  18:/Library/DaisyToolchain/0.2.0/arm/arm-none-eabi/include/c++/10.3.1/bits/stl_algobase.h **** // 3.1, as published by the Free Software Foundation.
  19:/Library/DaisyToolchain/0.2.0/arm/arm-none-eabi/include/c++/10.3.1/bits/stl_algobase.h **** 
  20:/Library/DaisyToolchain/0.2.0/arm/arm-none-eabi/include/c++/10.3.1/bits/stl_algobase.h **** // You should have received a copy of the GNU General Public License and
  21:/Library/DaisyToolchain/0.2.0/arm/arm-none-eabi/include/c++/10.3.1/bits/stl_algobase.h **** // a copy of the GCC Runtime Library Exception along with this program;
  22:/Library/DaisyToolchain/0.2.0/arm/arm-none-eabi/include/c++/10.3.1/bits/stl_algobase.h **** // see the files COPYING3 and COPYING.RUNTIME respectively.  If not, see
  23:/Library/DaisyToolchain/0.2.0/arm/arm-none-eabi/include/c++/10.3.1/bits/stl_algobase.h **** // <http://www.gnu.org/licenses/>.
  24:/Library/DaisyToolchain/0.2.0/arm/arm-none-eabi/include/c++/10.3.1/bits/stl_algobase.h **** 
  25:/Library/DaisyToolchain/0.2.0/arm/arm-none-eabi/include/c++/10.3.1/bits/stl_algobase.h **** /*
  26:/Library/DaisyToolchain/0.2.0/arm/arm-none-eabi/include/c++/10.3.1/bits/stl_algobase.h ****  *
  27:/Library/DaisyToolchain/0.2.0/arm/arm-none-eabi/include/c++/10.3.1/bits/stl_algobase.h ****  * Copyright (c) 1994
  28:/Library/DaisyToolchain/0.2.0/arm/arm-none-eabi/include/c++/10.3.1/bits/stl_algobase.h ****  * Hewlett-Packard Company
  29:/Library/DaisyToolchain/0.2.0/arm/arm-none-eabi/include/c++/10.3.1/bits/stl_algobase.h ****  *
  30:/Library/DaisyToolchain/0.2.0/arm/arm-none-eabi/include/c++/10.3.1/bits/stl_algobase.h ****  * Permission to use, copy, modify, distribute and sell this software
  31:/Library/DaisyToolchain/0.2.0/arm/arm-none-eabi/include/c++/10.3.1/bits/stl_algobase.h ****  * and its documentation for any purpose is hereby granted without fee,
  32:/Library/DaisyToolchain/0.2.0/arm/arm-none-eabi/include/c++/10.3.1/bits/stl_algobase.h ****  * provided that the above copyright notice appear in all copies and
  33:/Library/DaisyToolchain/0.2.0/arm/arm-none-eabi/include/c++/10.3.1/bits/stl_algobase.h ****  * that both that copyright notice and this permission notice appear
  34:/Library/DaisyToolchain/0.2.0/arm/arm-none-eabi/include/c++/10.3.1/bits/stl_algobase.h ****  * in supporting documentation.  Hewlett-Packard Company makes no
ARM GAS  /var/folders/9s/8rp0_f2s1n31qbztm3b5_fdh0000gn/T//ccR6g0UC.s 			page 11


  35:/Library/DaisyToolchain/0.2.0/arm/arm-none-eabi/include/c++/10.3.1/bits/stl_algobase.h ****  * representations about the suitability of this software for any
  36:/Library/DaisyToolchain/0.2.0/arm/arm-none-eabi/include/c++/10.3.1/bits/stl_algobase.h ****  * purpose.  It is provided "as is" without express or implied warranty.
  37:/Library/DaisyToolchain/0.2.0/arm/arm-none-eabi/include/c++/10.3.1/bits/stl_algobase.h ****  *
  38:/Library/DaisyToolchain/0.2.0/arm/arm-none-eabi/include/c++/10.3.1/bits/stl_algobase.h ****  *
  39:/Library/DaisyToolchain/0.2.0/arm/arm-none-eabi/include/c++/10.3.1/bits/stl_algobase.h ****  * Copyright (c) 1996-1998
  40:/Library/DaisyToolchain/0.2.0/arm/arm-none-eabi/include/c++/10.3.1/bits/stl_algobase.h ****  * Silicon Graphics Computer Systems, Inc.
  41:/Library/DaisyToolchain/0.2.0/arm/arm-none-eabi/include/c++/10.3.1/bits/stl_algobase.h ****  *
  42:/Library/DaisyToolchain/0.2.0/arm/arm-none-eabi/include/c++/10.3.1/bits/stl_algobase.h ****  * Permission to use, copy, modify, distribute and sell this software
  43:/Library/DaisyToolchain/0.2.0/arm/arm-none-eabi/include/c++/10.3.1/bits/stl_algobase.h ****  * and its documentation for any purpose is hereby granted without fee,
  44:/Library/DaisyToolchain/0.2.0/arm/arm-none-eabi/include/c++/10.3.1/bits/stl_algobase.h ****  * provided that the above copyright notice appear in all copies and
  45:/Library/DaisyToolchain/0.2.0/arm/arm-none-eabi/include/c++/10.3.1/bits/stl_algobase.h ****  * that both that copyright notice and this permission notice appear
  46:/Library/DaisyToolchain/0.2.0/arm/arm-none-eabi/include/c++/10.3.1/bits/stl_algobase.h ****  * in supporting documentation.  Silicon Graphics makes no
  47:/Library/DaisyToolchain/0.2.0/arm/arm-none-eabi/include/c++/10.3.1/bits/stl_algobase.h ****  * representations about the suitability of this software for any
  48:/Library/DaisyToolchain/0.2.0/arm/arm-none-eabi/include/c++/10.3.1/bits/stl_algobase.h ****  * purpose.  It is provided "as is" without express or implied warranty.
  49:/Library/DaisyToolchain/0.2.0/arm/arm-none-eabi/include/c++/10.3.1/bits/stl_algobase.h ****  */
  50:/Library/DaisyToolchain/0.2.0/arm/arm-none-eabi/include/c++/10.3.1/bits/stl_algobase.h **** 
  51:/Library/DaisyToolchain/0.2.0/arm/arm-none-eabi/include/c++/10.3.1/bits/stl_algobase.h **** /** @file bits/stl_algobase.h
  52:/Library/DaisyToolchain/0.2.0/arm/arm-none-eabi/include/c++/10.3.1/bits/stl_algobase.h ****  *  This is an internal header file, included by other library headers.
  53:/Library/DaisyToolchain/0.2.0/arm/arm-none-eabi/include/c++/10.3.1/bits/stl_algobase.h ****  *  Do not attempt to use it directly. @headername{algorithm}
  54:/Library/DaisyToolchain/0.2.0/arm/arm-none-eabi/include/c++/10.3.1/bits/stl_algobase.h ****  */
  55:/Library/DaisyToolchain/0.2.0/arm/arm-none-eabi/include/c++/10.3.1/bits/stl_algobase.h **** 
  56:/Library/DaisyToolchain/0.2.0/arm/arm-none-eabi/include/c++/10.3.1/bits/stl_algobase.h **** #ifndef _STL_ALGOBASE_H
  57:/Library/DaisyToolchain/0.2.0/arm/arm-none-eabi/include/c++/10.3.1/bits/stl_algobase.h **** #define _STL_ALGOBASE_H 1
  58:/Library/DaisyToolchain/0.2.0/arm/arm-none-eabi/include/c++/10.3.1/bits/stl_algobase.h **** 
  59:/Library/DaisyToolchain/0.2.0/arm/arm-none-eabi/include/c++/10.3.1/bits/stl_algobase.h **** #include <bits/c++config.h>
  60:/Library/DaisyToolchain/0.2.0/arm/arm-none-eabi/include/c++/10.3.1/bits/stl_algobase.h **** #include <bits/functexcept.h>
  61:/Library/DaisyToolchain/0.2.0/arm/arm-none-eabi/include/c++/10.3.1/bits/stl_algobase.h **** #include <bits/cpp_type_traits.h>
  62:/Library/DaisyToolchain/0.2.0/arm/arm-none-eabi/include/c++/10.3.1/bits/stl_algobase.h **** #include <ext/type_traits.h>
  63:/Library/DaisyToolchain/0.2.0/arm/arm-none-eabi/include/c++/10.3.1/bits/stl_algobase.h **** #include <ext/numeric_traits.h>
  64:/Library/DaisyToolchain/0.2.0/arm/arm-none-eabi/include/c++/10.3.1/bits/stl_algobase.h **** #include <bits/stl_pair.h>
  65:/Library/DaisyToolchain/0.2.0/arm/arm-none-eabi/include/c++/10.3.1/bits/stl_algobase.h **** #include <bits/stl_iterator_base_types.h>
  66:/Library/DaisyToolchain/0.2.0/arm/arm-none-eabi/include/c++/10.3.1/bits/stl_algobase.h **** #include <bits/stl_iterator_base_funcs.h>
  67:/Library/DaisyToolchain/0.2.0/arm/arm-none-eabi/include/c++/10.3.1/bits/stl_algobase.h **** #include <bits/stl_iterator.h>
  68:/Library/DaisyToolchain/0.2.0/arm/arm-none-eabi/include/c++/10.3.1/bits/stl_algobase.h **** #include <bits/concept_check.h>
  69:/Library/DaisyToolchain/0.2.0/arm/arm-none-eabi/include/c++/10.3.1/bits/stl_algobase.h **** #include <debug/debug.h>
  70:/Library/DaisyToolchain/0.2.0/arm/arm-none-eabi/include/c++/10.3.1/bits/stl_algobase.h **** #include <bits/move.h> // For std::swap
  71:/Library/DaisyToolchain/0.2.0/arm/arm-none-eabi/include/c++/10.3.1/bits/stl_algobase.h **** #include <bits/predefined_ops.h>
  72:/Library/DaisyToolchain/0.2.0/arm/arm-none-eabi/include/c++/10.3.1/bits/stl_algobase.h **** #if __cplusplus >= 201103L
  73:/Library/DaisyToolchain/0.2.0/arm/arm-none-eabi/include/c++/10.3.1/bits/stl_algobase.h **** # include <type_traits>
  74:/Library/DaisyToolchain/0.2.0/arm/arm-none-eabi/include/c++/10.3.1/bits/stl_algobase.h **** #endif
  75:/Library/DaisyToolchain/0.2.0/arm/arm-none-eabi/include/c++/10.3.1/bits/stl_algobase.h **** #if __cplusplus > 201703L
  76:/Library/DaisyToolchain/0.2.0/arm/arm-none-eabi/include/c++/10.3.1/bits/stl_algobase.h **** # include <compare>
  77:/Library/DaisyToolchain/0.2.0/arm/arm-none-eabi/include/c++/10.3.1/bits/stl_algobase.h **** #endif
  78:/Library/DaisyToolchain/0.2.0/arm/arm-none-eabi/include/c++/10.3.1/bits/stl_algobase.h **** 
  79:/Library/DaisyToolchain/0.2.0/arm/arm-none-eabi/include/c++/10.3.1/bits/stl_algobase.h **** namespace std _GLIBCXX_VISIBILITY(default)
  80:/Library/DaisyToolchain/0.2.0/arm/arm-none-eabi/include/c++/10.3.1/bits/stl_algobase.h **** {
  81:/Library/DaisyToolchain/0.2.0/arm/arm-none-eabi/include/c++/10.3.1/bits/stl_algobase.h **** _GLIBCXX_BEGIN_NAMESPACE_VERSION
  82:/Library/DaisyToolchain/0.2.0/arm/arm-none-eabi/include/c++/10.3.1/bits/stl_algobase.h **** 
  83:/Library/DaisyToolchain/0.2.0/arm/arm-none-eabi/include/c++/10.3.1/bits/stl_algobase.h ****   /*
  84:/Library/DaisyToolchain/0.2.0/arm/arm-none-eabi/include/c++/10.3.1/bits/stl_algobase.h ****    * A constexpr wrapper for __builtin_memcmp.
  85:/Library/DaisyToolchain/0.2.0/arm/arm-none-eabi/include/c++/10.3.1/bits/stl_algobase.h ****    * @param __num The number of elements of type _Tp (not bytes).
  86:/Library/DaisyToolchain/0.2.0/arm/arm-none-eabi/include/c++/10.3.1/bits/stl_algobase.h ****    */
  87:/Library/DaisyToolchain/0.2.0/arm/arm-none-eabi/include/c++/10.3.1/bits/stl_algobase.h ****   template<typename _Tp, typename _Up>
  88:/Library/DaisyToolchain/0.2.0/arm/arm-none-eabi/include/c++/10.3.1/bits/stl_algobase.h ****     _GLIBCXX14_CONSTEXPR
  89:/Library/DaisyToolchain/0.2.0/arm/arm-none-eabi/include/c++/10.3.1/bits/stl_algobase.h ****     inline int
  90:/Library/DaisyToolchain/0.2.0/arm/arm-none-eabi/include/c++/10.3.1/bits/stl_algobase.h ****     __memcmp(const _Tp* __first1, const _Up* __first2, size_t __num)
  91:/Library/DaisyToolchain/0.2.0/arm/arm-none-eabi/include/c++/10.3.1/bits/stl_algobase.h ****     {
ARM GAS  /var/folders/9s/8rp0_f2s1n31qbztm3b5_fdh0000gn/T//ccR6g0UC.s 			page 12


  92:/Library/DaisyToolchain/0.2.0/arm/arm-none-eabi/include/c++/10.3.1/bits/stl_algobase.h **** #if __cplusplus >= 201103L
  93:/Library/DaisyToolchain/0.2.0/arm/arm-none-eabi/include/c++/10.3.1/bits/stl_algobase.h ****       static_assert(sizeof(_Tp) == sizeof(_Up), "can be compared with memcmp");
  94:/Library/DaisyToolchain/0.2.0/arm/arm-none-eabi/include/c++/10.3.1/bits/stl_algobase.h **** #endif
  95:/Library/DaisyToolchain/0.2.0/arm/arm-none-eabi/include/c++/10.3.1/bits/stl_algobase.h **** #ifdef __cpp_lib_is_constant_evaluated
  96:/Library/DaisyToolchain/0.2.0/arm/arm-none-eabi/include/c++/10.3.1/bits/stl_algobase.h ****       if (std::is_constant_evaluated())
  97:/Library/DaisyToolchain/0.2.0/arm/arm-none-eabi/include/c++/10.3.1/bits/stl_algobase.h **** 	{
  98:/Library/DaisyToolchain/0.2.0/arm/arm-none-eabi/include/c++/10.3.1/bits/stl_algobase.h **** 	  for(; __num > 0; ++__first1, ++__first2, --__num)
  99:/Library/DaisyToolchain/0.2.0/arm/arm-none-eabi/include/c++/10.3.1/bits/stl_algobase.h **** 	    if (*__first1 != *__first2)
 100:/Library/DaisyToolchain/0.2.0/arm/arm-none-eabi/include/c++/10.3.1/bits/stl_algobase.h **** 	      return *__first1 < *__first2 ? -1 : 1;
 101:/Library/DaisyToolchain/0.2.0/arm/arm-none-eabi/include/c++/10.3.1/bits/stl_algobase.h **** 	  return 0;
 102:/Library/DaisyToolchain/0.2.0/arm/arm-none-eabi/include/c++/10.3.1/bits/stl_algobase.h **** 	}
 103:/Library/DaisyToolchain/0.2.0/arm/arm-none-eabi/include/c++/10.3.1/bits/stl_algobase.h ****       else
 104:/Library/DaisyToolchain/0.2.0/arm/arm-none-eabi/include/c++/10.3.1/bits/stl_algobase.h **** #endif
 105:/Library/DaisyToolchain/0.2.0/arm/arm-none-eabi/include/c++/10.3.1/bits/stl_algobase.h **** 	return __builtin_memcmp(__first1, __first2, sizeof(_Tp) * __num);
 106:/Library/DaisyToolchain/0.2.0/arm/arm-none-eabi/include/c++/10.3.1/bits/stl_algobase.h ****     }
 107:/Library/DaisyToolchain/0.2.0/arm/arm-none-eabi/include/c++/10.3.1/bits/stl_algobase.h **** 
 108:/Library/DaisyToolchain/0.2.0/arm/arm-none-eabi/include/c++/10.3.1/bits/stl_algobase.h **** #if __cplusplus < 201103L
 109:/Library/DaisyToolchain/0.2.0/arm/arm-none-eabi/include/c++/10.3.1/bits/stl_algobase.h ****   // See http://gcc.gnu.org/ml/libstdc++/2004-08/msg00167.html: in a
 110:/Library/DaisyToolchain/0.2.0/arm/arm-none-eabi/include/c++/10.3.1/bits/stl_algobase.h ****   // nutshell, we are partially implementing the resolution of DR 187,
 111:/Library/DaisyToolchain/0.2.0/arm/arm-none-eabi/include/c++/10.3.1/bits/stl_algobase.h ****   // when it's safe, i.e., the value_types are equal.
 112:/Library/DaisyToolchain/0.2.0/arm/arm-none-eabi/include/c++/10.3.1/bits/stl_algobase.h ****   template<bool _BoolType>
 113:/Library/DaisyToolchain/0.2.0/arm/arm-none-eabi/include/c++/10.3.1/bits/stl_algobase.h ****     struct __iter_swap
 114:/Library/DaisyToolchain/0.2.0/arm/arm-none-eabi/include/c++/10.3.1/bits/stl_algobase.h ****     {
 115:/Library/DaisyToolchain/0.2.0/arm/arm-none-eabi/include/c++/10.3.1/bits/stl_algobase.h ****       template<typename _ForwardIterator1, typename _ForwardIterator2>
 116:/Library/DaisyToolchain/0.2.0/arm/arm-none-eabi/include/c++/10.3.1/bits/stl_algobase.h **** 	static void
 117:/Library/DaisyToolchain/0.2.0/arm/arm-none-eabi/include/c++/10.3.1/bits/stl_algobase.h **** 	iter_swap(_ForwardIterator1 __a, _ForwardIterator2 __b)
 118:/Library/DaisyToolchain/0.2.0/arm/arm-none-eabi/include/c++/10.3.1/bits/stl_algobase.h **** 	{
 119:/Library/DaisyToolchain/0.2.0/arm/arm-none-eabi/include/c++/10.3.1/bits/stl_algobase.h **** 	  typedef typename iterator_traits<_ForwardIterator1>::value_type
 120:/Library/DaisyToolchain/0.2.0/arm/arm-none-eabi/include/c++/10.3.1/bits/stl_algobase.h **** 	    _ValueType1;
 121:/Library/DaisyToolchain/0.2.0/arm/arm-none-eabi/include/c++/10.3.1/bits/stl_algobase.h **** 	  _ValueType1 __tmp = *__a;
 122:/Library/DaisyToolchain/0.2.0/arm/arm-none-eabi/include/c++/10.3.1/bits/stl_algobase.h **** 	  *__a = *__b;
 123:/Library/DaisyToolchain/0.2.0/arm/arm-none-eabi/include/c++/10.3.1/bits/stl_algobase.h **** 	  *__b = __tmp;
 124:/Library/DaisyToolchain/0.2.0/arm/arm-none-eabi/include/c++/10.3.1/bits/stl_algobase.h **** 	}
 125:/Library/DaisyToolchain/0.2.0/arm/arm-none-eabi/include/c++/10.3.1/bits/stl_algobase.h ****     };
 126:/Library/DaisyToolchain/0.2.0/arm/arm-none-eabi/include/c++/10.3.1/bits/stl_algobase.h **** 
 127:/Library/DaisyToolchain/0.2.0/arm/arm-none-eabi/include/c++/10.3.1/bits/stl_algobase.h ****   template<>
 128:/Library/DaisyToolchain/0.2.0/arm/arm-none-eabi/include/c++/10.3.1/bits/stl_algobase.h ****     struct __iter_swap<true>
 129:/Library/DaisyToolchain/0.2.0/arm/arm-none-eabi/include/c++/10.3.1/bits/stl_algobase.h ****     {
 130:/Library/DaisyToolchain/0.2.0/arm/arm-none-eabi/include/c++/10.3.1/bits/stl_algobase.h ****       template<typename _ForwardIterator1, typename _ForwardIterator2>
 131:/Library/DaisyToolchain/0.2.0/arm/arm-none-eabi/include/c++/10.3.1/bits/stl_algobase.h **** 	static void
 132:/Library/DaisyToolchain/0.2.0/arm/arm-none-eabi/include/c++/10.3.1/bits/stl_algobase.h **** 	iter_swap(_ForwardIterator1 __a, _ForwardIterator2 __b)
 133:/Library/DaisyToolchain/0.2.0/arm/arm-none-eabi/include/c++/10.3.1/bits/stl_algobase.h **** 	{
 134:/Library/DaisyToolchain/0.2.0/arm/arm-none-eabi/include/c++/10.3.1/bits/stl_algobase.h **** 	  swap(*__a, *__b);
 135:/Library/DaisyToolchain/0.2.0/arm/arm-none-eabi/include/c++/10.3.1/bits/stl_algobase.h **** 	}
 136:/Library/DaisyToolchain/0.2.0/arm/arm-none-eabi/include/c++/10.3.1/bits/stl_algobase.h ****     };
 137:/Library/DaisyToolchain/0.2.0/arm/arm-none-eabi/include/c++/10.3.1/bits/stl_algobase.h **** #endif // C++03
 138:/Library/DaisyToolchain/0.2.0/arm/arm-none-eabi/include/c++/10.3.1/bits/stl_algobase.h **** 
 139:/Library/DaisyToolchain/0.2.0/arm/arm-none-eabi/include/c++/10.3.1/bits/stl_algobase.h ****   /**
 140:/Library/DaisyToolchain/0.2.0/arm/arm-none-eabi/include/c++/10.3.1/bits/stl_algobase.h ****    *  @brief Swaps the contents of two iterators.
 141:/Library/DaisyToolchain/0.2.0/arm/arm-none-eabi/include/c++/10.3.1/bits/stl_algobase.h ****    *  @ingroup mutating_algorithms
 142:/Library/DaisyToolchain/0.2.0/arm/arm-none-eabi/include/c++/10.3.1/bits/stl_algobase.h ****    *  @param  __a  An iterator.
 143:/Library/DaisyToolchain/0.2.0/arm/arm-none-eabi/include/c++/10.3.1/bits/stl_algobase.h ****    *  @param  __b  Another iterator.
 144:/Library/DaisyToolchain/0.2.0/arm/arm-none-eabi/include/c++/10.3.1/bits/stl_algobase.h ****    *  @return   Nothing.
 145:/Library/DaisyToolchain/0.2.0/arm/arm-none-eabi/include/c++/10.3.1/bits/stl_algobase.h ****    *
 146:/Library/DaisyToolchain/0.2.0/arm/arm-none-eabi/include/c++/10.3.1/bits/stl_algobase.h ****    *  This function swaps the values pointed to by two iterators, not the
 147:/Library/DaisyToolchain/0.2.0/arm/arm-none-eabi/include/c++/10.3.1/bits/stl_algobase.h ****    *  iterators themselves.
 148:/Library/DaisyToolchain/0.2.0/arm/arm-none-eabi/include/c++/10.3.1/bits/stl_algobase.h ****   */
ARM GAS  /var/folders/9s/8rp0_f2s1n31qbztm3b5_fdh0000gn/T//ccR6g0UC.s 			page 13


 149:/Library/DaisyToolchain/0.2.0/arm/arm-none-eabi/include/c++/10.3.1/bits/stl_algobase.h ****   template<typename _ForwardIterator1, typename _ForwardIterator2>
 150:/Library/DaisyToolchain/0.2.0/arm/arm-none-eabi/include/c++/10.3.1/bits/stl_algobase.h ****     _GLIBCXX20_CONSTEXPR
 151:/Library/DaisyToolchain/0.2.0/arm/arm-none-eabi/include/c++/10.3.1/bits/stl_algobase.h ****     inline void
 152:/Library/DaisyToolchain/0.2.0/arm/arm-none-eabi/include/c++/10.3.1/bits/stl_algobase.h ****     iter_swap(_ForwardIterator1 __a, _ForwardIterator2 __b)
 153:/Library/DaisyToolchain/0.2.0/arm/arm-none-eabi/include/c++/10.3.1/bits/stl_algobase.h ****     {
 154:/Library/DaisyToolchain/0.2.0/arm/arm-none-eabi/include/c++/10.3.1/bits/stl_algobase.h ****       // concept requirements
 155:/Library/DaisyToolchain/0.2.0/arm/arm-none-eabi/include/c++/10.3.1/bits/stl_algobase.h ****       __glibcxx_function_requires(_Mutable_ForwardIteratorConcept<
 156:/Library/DaisyToolchain/0.2.0/arm/arm-none-eabi/include/c++/10.3.1/bits/stl_algobase.h **** 				  _ForwardIterator1>)
 157:/Library/DaisyToolchain/0.2.0/arm/arm-none-eabi/include/c++/10.3.1/bits/stl_algobase.h ****       __glibcxx_function_requires(_Mutable_ForwardIteratorConcept<
 158:/Library/DaisyToolchain/0.2.0/arm/arm-none-eabi/include/c++/10.3.1/bits/stl_algobase.h **** 				  _ForwardIterator2>)
 159:/Library/DaisyToolchain/0.2.0/arm/arm-none-eabi/include/c++/10.3.1/bits/stl_algobase.h **** 
 160:/Library/DaisyToolchain/0.2.0/arm/arm-none-eabi/include/c++/10.3.1/bits/stl_algobase.h **** #if __cplusplus < 201103L
 161:/Library/DaisyToolchain/0.2.0/arm/arm-none-eabi/include/c++/10.3.1/bits/stl_algobase.h ****       typedef typename iterator_traits<_ForwardIterator1>::value_type
 162:/Library/DaisyToolchain/0.2.0/arm/arm-none-eabi/include/c++/10.3.1/bits/stl_algobase.h **** 	_ValueType1;
 163:/Library/DaisyToolchain/0.2.0/arm/arm-none-eabi/include/c++/10.3.1/bits/stl_algobase.h ****       typedef typename iterator_traits<_ForwardIterator2>::value_type
 164:/Library/DaisyToolchain/0.2.0/arm/arm-none-eabi/include/c++/10.3.1/bits/stl_algobase.h **** 	_ValueType2;
 165:/Library/DaisyToolchain/0.2.0/arm/arm-none-eabi/include/c++/10.3.1/bits/stl_algobase.h **** 
 166:/Library/DaisyToolchain/0.2.0/arm/arm-none-eabi/include/c++/10.3.1/bits/stl_algobase.h ****       __glibcxx_function_requires(_ConvertibleConcept<_ValueType1,
 167:/Library/DaisyToolchain/0.2.0/arm/arm-none-eabi/include/c++/10.3.1/bits/stl_algobase.h **** 				  _ValueType2>)
 168:/Library/DaisyToolchain/0.2.0/arm/arm-none-eabi/include/c++/10.3.1/bits/stl_algobase.h ****       __glibcxx_function_requires(_ConvertibleConcept<_ValueType2,
 169:/Library/DaisyToolchain/0.2.0/arm/arm-none-eabi/include/c++/10.3.1/bits/stl_algobase.h **** 				  _ValueType1>)
 170:/Library/DaisyToolchain/0.2.0/arm/arm-none-eabi/include/c++/10.3.1/bits/stl_algobase.h **** 
 171:/Library/DaisyToolchain/0.2.0/arm/arm-none-eabi/include/c++/10.3.1/bits/stl_algobase.h ****       typedef typename iterator_traits<_ForwardIterator1>::reference
 172:/Library/DaisyToolchain/0.2.0/arm/arm-none-eabi/include/c++/10.3.1/bits/stl_algobase.h **** 	_ReferenceType1;
 173:/Library/DaisyToolchain/0.2.0/arm/arm-none-eabi/include/c++/10.3.1/bits/stl_algobase.h ****       typedef typename iterator_traits<_ForwardIterator2>::reference
 174:/Library/DaisyToolchain/0.2.0/arm/arm-none-eabi/include/c++/10.3.1/bits/stl_algobase.h **** 	_ReferenceType2;
 175:/Library/DaisyToolchain/0.2.0/arm/arm-none-eabi/include/c++/10.3.1/bits/stl_algobase.h ****       std::__iter_swap<__are_same<_ValueType1, _ValueType2>::__value
 176:/Library/DaisyToolchain/0.2.0/arm/arm-none-eabi/include/c++/10.3.1/bits/stl_algobase.h **** 	&& __are_same<_ValueType1&, _ReferenceType1>::__value
 177:/Library/DaisyToolchain/0.2.0/arm/arm-none-eabi/include/c++/10.3.1/bits/stl_algobase.h **** 	&& __are_same<_ValueType2&, _ReferenceType2>::__value>::
 178:/Library/DaisyToolchain/0.2.0/arm/arm-none-eabi/include/c++/10.3.1/bits/stl_algobase.h **** 	iter_swap(__a, __b);
 179:/Library/DaisyToolchain/0.2.0/arm/arm-none-eabi/include/c++/10.3.1/bits/stl_algobase.h **** #else
 180:/Library/DaisyToolchain/0.2.0/arm/arm-none-eabi/include/c++/10.3.1/bits/stl_algobase.h ****       // _GLIBCXX_RESOLVE_LIB_DEFECTS
 181:/Library/DaisyToolchain/0.2.0/arm/arm-none-eabi/include/c++/10.3.1/bits/stl_algobase.h ****       // 187. iter_swap underspecified
 182:/Library/DaisyToolchain/0.2.0/arm/arm-none-eabi/include/c++/10.3.1/bits/stl_algobase.h ****       swap(*__a, *__b);
 183:/Library/DaisyToolchain/0.2.0/arm/arm-none-eabi/include/c++/10.3.1/bits/stl_algobase.h **** #endif
 184:/Library/DaisyToolchain/0.2.0/arm/arm-none-eabi/include/c++/10.3.1/bits/stl_algobase.h ****     }
 185:/Library/DaisyToolchain/0.2.0/arm/arm-none-eabi/include/c++/10.3.1/bits/stl_algobase.h **** 
 186:/Library/DaisyToolchain/0.2.0/arm/arm-none-eabi/include/c++/10.3.1/bits/stl_algobase.h ****   /**
 187:/Library/DaisyToolchain/0.2.0/arm/arm-none-eabi/include/c++/10.3.1/bits/stl_algobase.h ****    *  @brief Swap the elements of two sequences.
 188:/Library/DaisyToolchain/0.2.0/arm/arm-none-eabi/include/c++/10.3.1/bits/stl_algobase.h ****    *  @ingroup mutating_algorithms
 189:/Library/DaisyToolchain/0.2.0/arm/arm-none-eabi/include/c++/10.3.1/bits/stl_algobase.h ****    *  @param  __first1  A forward iterator.
 190:/Library/DaisyToolchain/0.2.0/arm/arm-none-eabi/include/c++/10.3.1/bits/stl_algobase.h ****    *  @param  __last1   A forward iterator.
 191:/Library/DaisyToolchain/0.2.0/arm/arm-none-eabi/include/c++/10.3.1/bits/stl_algobase.h ****    *  @param  __first2  A forward iterator.
 192:/Library/DaisyToolchain/0.2.0/arm/arm-none-eabi/include/c++/10.3.1/bits/stl_algobase.h ****    *  @return   An iterator equal to @p first2+(last1-first1).
 193:/Library/DaisyToolchain/0.2.0/arm/arm-none-eabi/include/c++/10.3.1/bits/stl_algobase.h ****    *
 194:/Library/DaisyToolchain/0.2.0/arm/arm-none-eabi/include/c++/10.3.1/bits/stl_algobase.h ****    *  Swaps each element in the range @p [first1,last1) with the
 195:/Library/DaisyToolchain/0.2.0/arm/arm-none-eabi/include/c++/10.3.1/bits/stl_algobase.h ****    *  corresponding element in the range @p [first2,(last1-first1)).
 196:/Library/DaisyToolchain/0.2.0/arm/arm-none-eabi/include/c++/10.3.1/bits/stl_algobase.h ****    *  The ranges must not overlap.
 197:/Library/DaisyToolchain/0.2.0/arm/arm-none-eabi/include/c++/10.3.1/bits/stl_algobase.h ****   */
 198:/Library/DaisyToolchain/0.2.0/arm/arm-none-eabi/include/c++/10.3.1/bits/stl_algobase.h ****   template<typename _ForwardIterator1, typename _ForwardIterator2>
 199:/Library/DaisyToolchain/0.2.0/arm/arm-none-eabi/include/c++/10.3.1/bits/stl_algobase.h ****     _GLIBCXX20_CONSTEXPR
 200:/Library/DaisyToolchain/0.2.0/arm/arm-none-eabi/include/c++/10.3.1/bits/stl_algobase.h ****     _ForwardIterator2
 201:/Library/DaisyToolchain/0.2.0/arm/arm-none-eabi/include/c++/10.3.1/bits/stl_algobase.h ****     swap_ranges(_ForwardIterator1 __first1, _ForwardIterator1 __last1,
 202:/Library/DaisyToolchain/0.2.0/arm/arm-none-eabi/include/c++/10.3.1/bits/stl_algobase.h **** 		_ForwardIterator2 __first2)
 203:/Library/DaisyToolchain/0.2.0/arm/arm-none-eabi/include/c++/10.3.1/bits/stl_algobase.h ****     {
 204:/Library/DaisyToolchain/0.2.0/arm/arm-none-eabi/include/c++/10.3.1/bits/stl_algobase.h ****       // concept requirements
 205:/Library/DaisyToolchain/0.2.0/arm/arm-none-eabi/include/c++/10.3.1/bits/stl_algobase.h ****       __glibcxx_function_requires(_Mutable_ForwardIteratorConcept<
ARM GAS  /var/folders/9s/8rp0_f2s1n31qbztm3b5_fdh0000gn/T//ccR6g0UC.s 			page 14


 206:/Library/DaisyToolchain/0.2.0/arm/arm-none-eabi/include/c++/10.3.1/bits/stl_algobase.h **** 				  _ForwardIterator1>)
 207:/Library/DaisyToolchain/0.2.0/arm/arm-none-eabi/include/c++/10.3.1/bits/stl_algobase.h ****       __glibcxx_function_requires(_Mutable_ForwardIteratorConcept<
 208:/Library/DaisyToolchain/0.2.0/arm/arm-none-eabi/include/c++/10.3.1/bits/stl_algobase.h **** 				  _ForwardIterator2>)
 209:/Library/DaisyToolchain/0.2.0/arm/arm-none-eabi/include/c++/10.3.1/bits/stl_algobase.h ****       __glibcxx_requires_valid_range(__first1, __last1);
 210:/Library/DaisyToolchain/0.2.0/arm/arm-none-eabi/include/c++/10.3.1/bits/stl_algobase.h **** 
 211:/Library/DaisyToolchain/0.2.0/arm/arm-none-eabi/include/c++/10.3.1/bits/stl_algobase.h ****       for (; __first1 != __last1; ++__first1, (void)++__first2)
 212:/Library/DaisyToolchain/0.2.0/arm/arm-none-eabi/include/c++/10.3.1/bits/stl_algobase.h **** 	std::iter_swap(__first1, __first2);
 213:/Library/DaisyToolchain/0.2.0/arm/arm-none-eabi/include/c++/10.3.1/bits/stl_algobase.h ****       return __first2;
 214:/Library/DaisyToolchain/0.2.0/arm/arm-none-eabi/include/c++/10.3.1/bits/stl_algobase.h ****     }
 215:/Library/DaisyToolchain/0.2.0/arm/arm-none-eabi/include/c++/10.3.1/bits/stl_algobase.h **** 
 216:/Library/DaisyToolchain/0.2.0/arm/arm-none-eabi/include/c++/10.3.1/bits/stl_algobase.h ****   /**
 217:/Library/DaisyToolchain/0.2.0/arm/arm-none-eabi/include/c++/10.3.1/bits/stl_algobase.h ****    *  @brief This does what you think it does.
 218:/Library/DaisyToolchain/0.2.0/arm/arm-none-eabi/include/c++/10.3.1/bits/stl_algobase.h ****    *  @ingroup sorting_algorithms
 219:/Library/DaisyToolchain/0.2.0/arm/arm-none-eabi/include/c++/10.3.1/bits/stl_algobase.h ****    *  @param  __a  A thing of arbitrary type.
 220:/Library/DaisyToolchain/0.2.0/arm/arm-none-eabi/include/c++/10.3.1/bits/stl_algobase.h ****    *  @param  __b  Another thing of arbitrary type.
 221:/Library/DaisyToolchain/0.2.0/arm/arm-none-eabi/include/c++/10.3.1/bits/stl_algobase.h ****    *  @return   The lesser of the parameters.
 222:/Library/DaisyToolchain/0.2.0/arm/arm-none-eabi/include/c++/10.3.1/bits/stl_algobase.h ****    *
 223:/Library/DaisyToolchain/0.2.0/arm/arm-none-eabi/include/c++/10.3.1/bits/stl_algobase.h ****    *  This is the simple classic generic implementation.  It will work on
 224:/Library/DaisyToolchain/0.2.0/arm/arm-none-eabi/include/c++/10.3.1/bits/stl_algobase.h ****    *  temporary expressions, since they are only evaluated once, unlike a
 225:/Library/DaisyToolchain/0.2.0/arm/arm-none-eabi/include/c++/10.3.1/bits/stl_algobase.h ****    *  preprocessor macro.
 226:/Library/DaisyToolchain/0.2.0/arm/arm-none-eabi/include/c++/10.3.1/bits/stl_algobase.h ****   */
 227:/Library/DaisyToolchain/0.2.0/arm/arm-none-eabi/include/c++/10.3.1/bits/stl_algobase.h ****   template<typename _Tp>
 228:/Library/DaisyToolchain/0.2.0/arm/arm-none-eabi/include/c++/10.3.1/bits/stl_algobase.h ****     _GLIBCXX14_CONSTEXPR
 229:/Library/DaisyToolchain/0.2.0/arm/arm-none-eabi/include/c++/10.3.1/bits/stl_algobase.h ****     inline const _Tp&
 230:/Library/DaisyToolchain/0.2.0/arm/arm-none-eabi/include/c++/10.3.1/bits/stl_algobase.h ****     min(const _Tp& __a, const _Tp& __b)
 231:/Library/DaisyToolchain/0.2.0/arm/arm-none-eabi/include/c++/10.3.1/bits/stl_algobase.h ****     {
 232:/Library/DaisyToolchain/0.2.0/arm/arm-none-eabi/include/c++/10.3.1/bits/stl_algobase.h ****       // concept requirements
 233:/Library/DaisyToolchain/0.2.0/arm/arm-none-eabi/include/c++/10.3.1/bits/stl_algobase.h ****       __glibcxx_function_requires(_LessThanComparableConcept<_Tp>)
 234:/Library/DaisyToolchain/0.2.0/arm/arm-none-eabi/include/c++/10.3.1/bits/stl_algobase.h ****       //return __b < __a ? __b : __a;
 235:/Library/DaisyToolchain/0.2.0/arm/arm-none-eabi/include/c++/10.3.1/bits/stl_algobase.h ****       if (__b < __a)
 236:/Library/DaisyToolchain/0.2.0/arm/arm-none-eabi/include/c++/10.3.1/bits/stl_algobase.h **** 	return __b;
 237:/Library/DaisyToolchain/0.2.0/arm/arm-none-eabi/include/c++/10.3.1/bits/stl_algobase.h ****       return __a;
 238:/Library/DaisyToolchain/0.2.0/arm/arm-none-eabi/include/c++/10.3.1/bits/stl_algobase.h ****     }
 239:/Library/DaisyToolchain/0.2.0/arm/arm-none-eabi/include/c++/10.3.1/bits/stl_algobase.h **** 
 240:/Library/DaisyToolchain/0.2.0/arm/arm-none-eabi/include/c++/10.3.1/bits/stl_algobase.h ****   /**
 241:/Library/DaisyToolchain/0.2.0/arm/arm-none-eabi/include/c++/10.3.1/bits/stl_algobase.h ****    *  @brief This does what you think it does.
 242:/Library/DaisyToolchain/0.2.0/arm/arm-none-eabi/include/c++/10.3.1/bits/stl_algobase.h ****    *  @ingroup sorting_algorithms
 243:/Library/DaisyToolchain/0.2.0/arm/arm-none-eabi/include/c++/10.3.1/bits/stl_algobase.h ****    *  @param  __a  A thing of arbitrary type.
 244:/Library/DaisyToolchain/0.2.0/arm/arm-none-eabi/include/c++/10.3.1/bits/stl_algobase.h ****    *  @param  __b  Another thing of arbitrary type.
 245:/Library/DaisyToolchain/0.2.0/arm/arm-none-eabi/include/c++/10.3.1/bits/stl_algobase.h ****    *  @return   The greater of the parameters.
 246:/Library/DaisyToolchain/0.2.0/arm/arm-none-eabi/include/c++/10.3.1/bits/stl_algobase.h ****    *
 247:/Library/DaisyToolchain/0.2.0/arm/arm-none-eabi/include/c++/10.3.1/bits/stl_algobase.h ****    *  This is the simple classic generic implementation.  It will work on
 248:/Library/DaisyToolchain/0.2.0/arm/arm-none-eabi/include/c++/10.3.1/bits/stl_algobase.h ****    *  temporary expressions, since they are only evaluated once, unlike a
 249:/Library/DaisyToolchain/0.2.0/arm/arm-none-eabi/include/c++/10.3.1/bits/stl_algobase.h ****    *  preprocessor macro.
 250:/Library/DaisyToolchain/0.2.0/arm/arm-none-eabi/include/c++/10.3.1/bits/stl_algobase.h ****   */
 251:/Library/DaisyToolchain/0.2.0/arm/arm-none-eabi/include/c++/10.3.1/bits/stl_algobase.h ****   template<typename _Tp>
 252:/Library/DaisyToolchain/0.2.0/arm/arm-none-eabi/include/c++/10.3.1/bits/stl_algobase.h ****     _GLIBCXX14_CONSTEXPR
 253:/Library/DaisyToolchain/0.2.0/arm/arm-none-eabi/include/c++/10.3.1/bits/stl_algobase.h ****     inline const _Tp&
 254:/Library/DaisyToolchain/0.2.0/arm/arm-none-eabi/include/c++/10.3.1/bits/stl_algobase.h ****     max(const _Tp& __a, const _Tp& __b)
 255:/Library/DaisyToolchain/0.2.0/arm/arm-none-eabi/include/c++/10.3.1/bits/stl_algobase.h ****     {
 256:/Library/DaisyToolchain/0.2.0/arm/arm-none-eabi/include/c++/10.3.1/bits/stl_algobase.h ****       // concept requirements
 257:/Library/DaisyToolchain/0.2.0/arm/arm-none-eabi/include/c++/10.3.1/bits/stl_algobase.h ****       __glibcxx_function_requires(_LessThanComparableConcept<_Tp>)
 258:/Library/DaisyToolchain/0.2.0/arm/arm-none-eabi/include/c++/10.3.1/bits/stl_algobase.h ****       //return  __a < __b ? __b : __a;
 259:/Library/DaisyToolchain/0.2.0/arm/arm-none-eabi/include/c++/10.3.1/bits/stl_algobase.h ****       if (__a < __b)
 260:/Library/DaisyToolchain/0.2.0/arm/arm-none-eabi/include/c++/10.3.1/bits/stl_algobase.h **** 	return __b;
 261:/Library/DaisyToolchain/0.2.0/arm/arm-none-eabi/include/c++/10.3.1/bits/stl_algobase.h ****       return __a;
 262:/Library/DaisyToolchain/0.2.0/arm/arm-none-eabi/include/c++/10.3.1/bits/stl_algobase.h ****     }
ARM GAS  /var/folders/9s/8rp0_f2s1n31qbztm3b5_fdh0000gn/T//ccR6g0UC.s 			page 15


 263:/Library/DaisyToolchain/0.2.0/arm/arm-none-eabi/include/c++/10.3.1/bits/stl_algobase.h **** 
 264:/Library/DaisyToolchain/0.2.0/arm/arm-none-eabi/include/c++/10.3.1/bits/stl_algobase.h ****   /**
 265:/Library/DaisyToolchain/0.2.0/arm/arm-none-eabi/include/c++/10.3.1/bits/stl_algobase.h ****    *  @brief This does what you think it does.
 266:/Library/DaisyToolchain/0.2.0/arm/arm-none-eabi/include/c++/10.3.1/bits/stl_algobase.h ****    *  @ingroup sorting_algorithms
 267:/Library/DaisyToolchain/0.2.0/arm/arm-none-eabi/include/c++/10.3.1/bits/stl_algobase.h ****    *  @param  __a  A thing of arbitrary type.
 268:/Library/DaisyToolchain/0.2.0/arm/arm-none-eabi/include/c++/10.3.1/bits/stl_algobase.h ****    *  @param  __b  Another thing of arbitrary type.
 269:/Library/DaisyToolchain/0.2.0/arm/arm-none-eabi/include/c++/10.3.1/bits/stl_algobase.h ****    *  @param  __comp  A @link comparison_functors comparison functor@endlink.
 270:/Library/DaisyToolchain/0.2.0/arm/arm-none-eabi/include/c++/10.3.1/bits/stl_algobase.h ****    *  @return   The lesser of the parameters.
 271:/Library/DaisyToolchain/0.2.0/arm/arm-none-eabi/include/c++/10.3.1/bits/stl_algobase.h ****    *
 272:/Library/DaisyToolchain/0.2.0/arm/arm-none-eabi/include/c++/10.3.1/bits/stl_algobase.h ****    *  This will work on temporary expressions, since they are only evaluated
 273:/Library/DaisyToolchain/0.2.0/arm/arm-none-eabi/include/c++/10.3.1/bits/stl_algobase.h ****    *  once, unlike a preprocessor macro.
 274:/Library/DaisyToolchain/0.2.0/arm/arm-none-eabi/include/c++/10.3.1/bits/stl_algobase.h ****   */
 275:/Library/DaisyToolchain/0.2.0/arm/arm-none-eabi/include/c++/10.3.1/bits/stl_algobase.h ****   template<typename _Tp, typename _Compare>
 276:/Library/DaisyToolchain/0.2.0/arm/arm-none-eabi/include/c++/10.3.1/bits/stl_algobase.h ****     _GLIBCXX14_CONSTEXPR
 277:/Library/DaisyToolchain/0.2.0/arm/arm-none-eabi/include/c++/10.3.1/bits/stl_algobase.h ****     inline const _Tp&
 278:/Library/DaisyToolchain/0.2.0/arm/arm-none-eabi/include/c++/10.3.1/bits/stl_algobase.h ****     min(const _Tp& __a, const _Tp& __b, _Compare __comp)
 279:/Library/DaisyToolchain/0.2.0/arm/arm-none-eabi/include/c++/10.3.1/bits/stl_algobase.h ****     {
 280:/Library/DaisyToolchain/0.2.0/arm/arm-none-eabi/include/c++/10.3.1/bits/stl_algobase.h ****       //return __comp(__b, __a) ? __b : __a;
 281:/Library/DaisyToolchain/0.2.0/arm/arm-none-eabi/include/c++/10.3.1/bits/stl_algobase.h ****       if (__comp(__b, __a))
 282:/Library/DaisyToolchain/0.2.0/arm/arm-none-eabi/include/c++/10.3.1/bits/stl_algobase.h **** 	return __b;
 283:/Library/DaisyToolchain/0.2.0/arm/arm-none-eabi/include/c++/10.3.1/bits/stl_algobase.h ****       return __a;
 284:/Library/DaisyToolchain/0.2.0/arm/arm-none-eabi/include/c++/10.3.1/bits/stl_algobase.h ****     }
 285:/Library/DaisyToolchain/0.2.0/arm/arm-none-eabi/include/c++/10.3.1/bits/stl_algobase.h **** 
 286:/Library/DaisyToolchain/0.2.0/arm/arm-none-eabi/include/c++/10.3.1/bits/stl_algobase.h ****   /**
 287:/Library/DaisyToolchain/0.2.0/arm/arm-none-eabi/include/c++/10.3.1/bits/stl_algobase.h ****    *  @brief This does what you think it does.
 288:/Library/DaisyToolchain/0.2.0/arm/arm-none-eabi/include/c++/10.3.1/bits/stl_algobase.h ****    *  @ingroup sorting_algorithms
 289:/Library/DaisyToolchain/0.2.0/arm/arm-none-eabi/include/c++/10.3.1/bits/stl_algobase.h ****    *  @param  __a  A thing of arbitrary type.
 290:/Library/DaisyToolchain/0.2.0/arm/arm-none-eabi/include/c++/10.3.1/bits/stl_algobase.h ****    *  @param  __b  Another thing of arbitrary type.
 291:/Library/DaisyToolchain/0.2.0/arm/arm-none-eabi/include/c++/10.3.1/bits/stl_algobase.h ****    *  @param  __comp  A @link comparison_functors comparison functor@endlink.
 292:/Library/DaisyToolchain/0.2.0/arm/arm-none-eabi/include/c++/10.3.1/bits/stl_algobase.h ****    *  @return   The greater of the parameters.
 293:/Library/DaisyToolchain/0.2.0/arm/arm-none-eabi/include/c++/10.3.1/bits/stl_algobase.h ****    *
 294:/Library/DaisyToolchain/0.2.0/arm/arm-none-eabi/include/c++/10.3.1/bits/stl_algobase.h ****    *  This will work on temporary expressions, since they are only evaluated
 295:/Library/DaisyToolchain/0.2.0/arm/arm-none-eabi/include/c++/10.3.1/bits/stl_algobase.h ****    *  once, unlike a preprocessor macro.
 296:/Library/DaisyToolchain/0.2.0/arm/arm-none-eabi/include/c++/10.3.1/bits/stl_algobase.h ****   */
 297:/Library/DaisyToolchain/0.2.0/arm/arm-none-eabi/include/c++/10.3.1/bits/stl_algobase.h ****   template<typename _Tp, typename _Compare>
 298:/Library/DaisyToolchain/0.2.0/arm/arm-none-eabi/include/c++/10.3.1/bits/stl_algobase.h ****     _GLIBCXX14_CONSTEXPR
 299:/Library/DaisyToolchain/0.2.0/arm/arm-none-eabi/include/c++/10.3.1/bits/stl_algobase.h ****     inline const _Tp&
 300:/Library/DaisyToolchain/0.2.0/arm/arm-none-eabi/include/c++/10.3.1/bits/stl_algobase.h ****     max(const _Tp& __a, const _Tp& __b, _Compare __comp)
 301:/Library/DaisyToolchain/0.2.0/arm/arm-none-eabi/include/c++/10.3.1/bits/stl_algobase.h ****     {
 302:/Library/DaisyToolchain/0.2.0/arm/arm-none-eabi/include/c++/10.3.1/bits/stl_algobase.h ****       //return __comp(__a, __b) ? __b : __a;
 303:/Library/DaisyToolchain/0.2.0/arm/arm-none-eabi/include/c++/10.3.1/bits/stl_algobase.h ****       if (__comp(__a, __b))
 304:/Library/DaisyToolchain/0.2.0/arm/arm-none-eabi/include/c++/10.3.1/bits/stl_algobase.h **** 	return __b;
 305:/Library/DaisyToolchain/0.2.0/arm/arm-none-eabi/include/c++/10.3.1/bits/stl_algobase.h ****       return __a;
 306:/Library/DaisyToolchain/0.2.0/arm/arm-none-eabi/include/c++/10.3.1/bits/stl_algobase.h ****     }
 307:/Library/DaisyToolchain/0.2.0/arm/arm-none-eabi/include/c++/10.3.1/bits/stl_algobase.h **** 
 308:/Library/DaisyToolchain/0.2.0/arm/arm-none-eabi/include/c++/10.3.1/bits/stl_algobase.h ****   // Fallback implementation of the function in bits/stl_iterator.h used to
 309:/Library/DaisyToolchain/0.2.0/arm/arm-none-eabi/include/c++/10.3.1/bits/stl_algobase.h ****   // remove the __normal_iterator wrapper. See copy, fill, ...
 310:/Library/DaisyToolchain/0.2.0/arm/arm-none-eabi/include/c++/10.3.1/bits/stl_algobase.h ****   template<typename _Iterator>
 311:/Library/DaisyToolchain/0.2.0/arm/arm-none-eabi/include/c++/10.3.1/bits/stl_algobase.h ****     _GLIBCXX20_CONSTEXPR
 312:/Library/DaisyToolchain/0.2.0/arm/arm-none-eabi/include/c++/10.3.1/bits/stl_algobase.h ****     inline _Iterator
 313:/Library/DaisyToolchain/0.2.0/arm/arm-none-eabi/include/c++/10.3.1/bits/stl_algobase.h ****     __niter_base(_Iterator __it)
 314:/Library/DaisyToolchain/0.2.0/arm/arm-none-eabi/include/c++/10.3.1/bits/stl_algobase.h ****     _GLIBCXX_NOEXCEPT_IF(std::is_nothrow_copy_constructible<_Iterator>::value)
 315:/Library/DaisyToolchain/0.2.0/arm/arm-none-eabi/include/c++/10.3.1/bits/stl_algobase.h ****     { return __it; }
 316:/Library/DaisyToolchain/0.2.0/arm/arm-none-eabi/include/c++/10.3.1/bits/stl_algobase.h **** 
 317:/Library/DaisyToolchain/0.2.0/arm/arm-none-eabi/include/c++/10.3.1/bits/stl_algobase.h ****   // Reverse the __niter_base transformation to get a
 318:/Library/DaisyToolchain/0.2.0/arm/arm-none-eabi/include/c++/10.3.1/bits/stl_algobase.h ****   // __normal_iterator back again (this assumes that __normal_iterator
 319:/Library/DaisyToolchain/0.2.0/arm/arm-none-eabi/include/c++/10.3.1/bits/stl_algobase.h ****   // is only used to wrap random access iterators, like pointers).
ARM GAS  /var/folders/9s/8rp0_f2s1n31qbztm3b5_fdh0000gn/T//ccR6g0UC.s 			page 16


 320:/Library/DaisyToolchain/0.2.0/arm/arm-none-eabi/include/c++/10.3.1/bits/stl_algobase.h ****   template<typename _From, typename _To>
 321:/Library/DaisyToolchain/0.2.0/arm/arm-none-eabi/include/c++/10.3.1/bits/stl_algobase.h ****     _GLIBCXX20_CONSTEXPR
 322:/Library/DaisyToolchain/0.2.0/arm/arm-none-eabi/include/c++/10.3.1/bits/stl_algobase.h ****     inline _From
 323:/Library/DaisyToolchain/0.2.0/arm/arm-none-eabi/include/c++/10.3.1/bits/stl_algobase.h ****     __niter_wrap(_From __from, _To __res)
 324:/Library/DaisyToolchain/0.2.0/arm/arm-none-eabi/include/c++/10.3.1/bits/stl_algobase.h ****     { return __from + (__res - std::__niter_base(__from)); }
 325:/Library/DaisyToolchain/0.2.0/arm/arm-none-eabi/include/c++/10.3.1/bits/stl_algobase.h **** 
 326:/Library/DaisyToolchain/0.2.0/arm/arm-none-eabi/include/c++/10.3.1/bits/stl_algobase.h ****   // No need to wrap, iterator already has the right type.
 327:/Library/DaisyToolchain/0.2.0/arm/arm-none-eabi/include/c++/10.3.1/bits/stl_algobase.h ****   template<typename _Iterator>
 328:/Library/DaisyToolchain/0.2.0/arm/arm-none-eabi/include/c++/10.3.1/bits/stl_algobase.h ****     _GLIBCXX20_CONSTEXPR
 329:/Library/DaisyToolchain/0.2.0/arm/arm-none-eabi/include/c++/10.3.1/bits/stl_algobase.h ****     inline _Iterator
 330:/Library/DaisyToolchain/0.2.0/arm/arm-none-eabi/include/c++/10.3.1/bits/stl_algobase.h ****     __niter_wrap(const _Iterator&, _Iterator __res)
 331:/Library/DaisyToolchain/0.2.0/arm/arm-none-eabi/include/c++/10.3.1/bits/stl_algobase.h ****     { return __res; }
 332:/Library/DaisyToolchain/0.2.0/arm/arm-none-eabi/include/c++/10.3.1/bits/stl_algobase.h **** 
 333:/Library/DaisyToolchain/0.2.0/arm/arm-none-eabi/include/c++/10.3.1/bits/stl_algobase.h ****   // All of these auxiliary structs serve two purposes.  (1) Replace
 334:/Library/DaisyToolchain/0.2.0/arm/arm-none-eabi/include/c++/10.3.1/bits/stl_algobase.h ****   // calls to copy with memmove whenever possible.  (Memmove, not memcpy,
 335:/Library/DaisyToolchain/0.2.0/arm/arm-none-eabi/include/c++/10.3.1/bits/stl_algobase.h ****   // because the input and output ranges are permitted to overlap.)
 336:/Library/DaisyToolchain/0.2.0/arm/arm-none-eabi/include/c++/10.3.1/bits/stl_algobase.h ****   // (2) If we're using random access iterators, then write the loop as
 337:/Library/DaisyToolchain/0.2.0/arm/arm-none-eabi/include/c++/10.3.1/bits/stl_algobase.h ****   // a for loop with an explicit count.
 338:/Library/DaisyToolchain/0.2.0/arm/arm-none-eabi/include/c++/10.3.1/bits/stl_algobase.h **** 
 339:/Library/DaisyToolchain/0.2.0/arm/arm-none-eabi/include/c++/10.3.1/bits/stl_algobase.h ****   template<bool _IsMove, bool _IsSimple, typename _Category>
 340:/Library/DaisyToolchain/0.2.0/arm/arm-none-eabi/include/c++/10.3.1/bits/stl_algobase.h ****     struct __copy_move
 341:/Library/DaisyToolchain/0.2.0/arm/arm-none-eabi/include/c++/10.3.1/bits/stl_algobase.h ****     {
 342:/Library/DaisyToolchain/0.2.0/arm/arm-none-eabi/include/c++/10.3.1/bits/stl_algobase.h ****       template<typename _II, typename _OI>
 343:/Library/DaisyToolchain/0.2.0/arm/arm-none-eabi/include/c++/10.3.1/bits/stl_algobase.h **** 	_GLIBCXX20_CONSTEXPR
 344:/Library/DaisyToolchain/0.2.0/arm/arm-none-eabi/include/c++/10.3.1/bits/stl_algobase.h **** 	static _OI
 345:/Library/DaisyToolchain/0.2.0/arm/arm-none-eabi/include/c++/10.3.1/bits/stl_algobase.h **** 	__copy_m(_II __first, _II __last, _OI __result)
 346:/Library/DaisyToolchain/0.2.0/arm/arm-none-eabi/include/c++/10.3.1/bits/stl_algobase.h **** 	{
 347:/Library/DaisyToolchain/0.2.0/arm/arm-none-eabi/include/c++/10.3.1/bits/stl_algobase.h **** 	  for (; __first != __last; ++__result, (void)++__first)
 348:/Library/DaisyToolchain/0.2.0/arm/arm-none-eabi/include/c++/10.3.1/bits/stl_algobase.h **** 	    *__result = *__first;
 349:/Library/DaisyToolchain/0.2.0/arm/arm-none-eabi/include/c++/10.3.1/bits/stl_algobase.h **** 	  return __result;
 350:/Library/DaisyToolchain/0.2.0/arm/arm-none-eabi/include/c++/10.3.1/bits/stl_algobase.h **** 	}
 351:/Library/DaisyToolchain/0.2.0/arm/arm-none-eabi/include/c++/10.3.1/bits/stl_algobase.h ****     };
 352:/Library/DaisyToolchain/0.2.0/arm/arm-none-eabi/include/c++/10.3.1/bits/stl_algobase.h **** 
 353:/Library/DaisyToolchain/0.2.0/arm/arm-none-eabi/include/c++/10.3.1/bits/stl_algobase.h **** #if __cplusplus >= 201103L
 354:/Library/DaisyToolchain/0.2.0/arm/arm-none-eabi/include/c++/10.3.1/bits/stl_algobase.h ****   template<typename _Category>
 355:/Library/DaisyToolchain/0.2.0/arm/arm-none-eabi/include/c++/10.3.1/bits/stl_algobase.h ****     struct __copy_move<true, false, _Category>
 356:/Library/DaisyToolchain/0.2.0/arm/arm-none-eabi/include/c++/10.3.1/bits/stl_algobase.h ****     {
 357:/Library/DaisyToolchain/0.2.0/arm/arm-none-eabi/include/c++/10.3.1/bits/stl_algobase.h ****       template<typename _II, typename _OI>
 358:/Library/DaisyToolchain/0.2.0/arm/arm-none-eabi/include/c++/10.3.1/bits/stl_algobase.h **** 	_GLIBCXX20_CONSTEXPR
 359:/Library/DaisyToolchain/0.2.0/arm/arm-none-eabi/include/c++/10.3.1/bits/stl_algobase.h **** 	static _OI
 360:/Library/DaisyToolchain/0.2.0/arm/arm-none-eabi/include/c++/10.3.1/bits/stl_algobase.h **** 	__copy_m(_II __first, _II __last, _OI __result)
 361:/Library/DaisyToolchain/0.2.0/arm/arm-none-eabi/include/c++/10.3.1/bits/stl_algobase.h **** 	{
 362:/Library/DaisyToolchain/0.2.0/arm/arm-none-eabi/include/c++/10.3.1/bits/stl_algobase.h **** 	  for (; __first != __last; ++__result, (void)++__first)
 363:/Library/DaisyToolchain/0.2.0/arm/arm-none-eabi/include/c++/10.3.1/bits/stl_algobase.h **** 	    *__result = std::move(*__first);
 364:/Library/DaisyToolchain/0.2.0/arm/arm-none-eabi/include/c++/10.3.1/bits/stl_algobase.h **** 	  return __result;
 365:/Library/DaisyToolchain/0.2.0/arm/arm-none-eabi/include/c++/10.3.1/bits/stl_algobase.h **** 	}
 366:/Library/DaisyToolchain/0.2.0/arm/arm-none-eabi/include/c++/10.3.1/bits/stl_algobase.h ****     };
 367:/Library/DaisyToolchain/0.2.0/arm/arm-none-eabi/include/c++/10.3.1/bits/stl_algobase.h **** #endif
 368:/Library/DaisyToolchain/0.2.0/arm/arm-none-eabi/include/c++/10.3.1/bits/stl_algobase.h **** 
 369:/Library/DaisyToolchain/0.2.0/arm/arm-none-eabi/include/c++/10.3.1/bits/stl_algobase.h ****   template<>
 370:/Library/DaisyToolchain/0.2.0/arm/arm-none-eabi/include/c++/10.3.1/bits/stl_algobase.h ****     struct __copy_move<false, false, random_access_iterator_tag>
 371:/Library/DaisyToolchain/0.2.0/arm/arm-none-eabi/include/c++/10.3.1/bits/stl_algobase.h ****     {
 372:/Library/DaisyToolchain/0.2.0/arm/arm-none-eabi/include/c++/10.3.1/bits/stl_algobase.h ****       template<typename _II, typename _OI>
 373:/Library/DaisyToolchain/0.2.0/arm/arm-none-eabi/include/c++/10.3.1/bits/stl_algobase.h **** 	_GLIBCXX20_CONSTEXPR
 374:/Library/DaisyToolchain/0.2.0/arm/arm-none-eabi/include/c++/10.3.1/bits/stl_algobase.h **** 	static _OI
 375:/Library/DaisyToolchain/0.2.0/arm/arm-none-eabi/include/c++/10.3.1/bits/stl_algobase.h **** 	__copy_m(_II __first, _II __last, _OI __result)
 376:/Library/DaisyToolchain/0.2.0/arm/arm-none-eabi/include/c++/10.3.1/bits/stl_algobase.h **** 	{
ARM GAS  /var/folders/9s/8rp0_f2s1n31qbztm3b5_fdh0000gn/T//ccR6g0UC.s 			page 17


 377:/Library/DaisyToolchain/0.2.0/arm/arm-none-eabi/include/c++/10.3.1/bits/stl_algobase.h **** 	  typedef typename iterator_traits<_II>::difference_type _Distance;
 378:/Library/DaisyToolchain/0.2.0/arm/arm-none-eabi/include/c++/10.3.1/bits/stl_algobase.h **** 	  for(_Distance __n = __last - __first; __n > 0; --__n)
 379:/Library/DaisyToolchain/0.2.0/arm/arm-none-eabi/include/c++/10.3.1/bits/stl_algobase.h **** 	    {
 380:/Library/DaisyToolchain/0.2.0/arm/arm-none-eabi/include/c++/10.3.1/bits/stl_algobase.h **** 	      *__result = *__first;
 381:/Library/DaisyToolchain/0.2.0/arm/arm-none-eabi/include/c++/10.3.1/bits/stl_algobase.h **** 	      ++__first;
 382:/Library/DaisyToolchain/0.2.0/arm/arm-none-eabi/include/c++/10.3.1/bits/stl_algobase.h **** 	      ++__result;
 383:/Library/DaisyToolchain/0.2.0/arm/arm-none-eabi/include/c++/10.3.1/bits/stl_algobase.h **** 	    }
 384:/Library/DaisyToolchain/0.2.0/arm/arm-none-eabi/include/c++/10.3.1/bits/stl_algobase.h **** 	  return __result;
 385:/Library/DaisyToolchain/0.2.0/arm/arm-none-eabi/include/c++/10.3.1/bits/stl_algobase.h **** 	}
 386:/Library/DaisyToolchain/0.2.0/arm/arm-none-eabi/include/c++/10.3.1/bits/stl_algobase.h ****     };
 387:/Library/DaisyToolchain/0.2.0/arm/arm-none-eabi/include/c++/10.3.1/bits/stl_algobase.h **** 
 388:/Library/DaisyToolchain/0.2.0/arm/arm-none-eabi/include/c++/10.3.1/bits/stl_algobase.h **** #if __cplusplus >= 201103L
 389:/Library/DaisyToolchain/0.2.0/arm/arm-none-eabi/include/c++/10.3.1/bits/stl_algobase.h ****   template<>
 390:/Library/DaisyToolchain/0.2.0/arm/arm-none-eabi/include/c++/10.3.1/bits/stl_algobase.h ****     struct __copy_move<true, false, random_access_iterator_tag>
 391:/Library/DaisyToolchain/0.2.0/arm/arm-none-eabi/include/c++/10.3.1/bits/stl_algobase.h ****     {
 392:/Library/DaisyToolchain/0.2.0/arm/arm-none-eabi/include/c++/10.3.1/bits/stl_algobase.h ****       template<typename _II, typename _OI>
 393:/Library/DaisyToolchain/0.2.0/arm/arm-none-eabi/include/c++/10.3.1/bits/stl_algobase.h **** 	_GLIBCXX20_CONSTEXPR
 394:/Library/DaisyToolchain/0.2.0/arm/arm-none-eabi/include/c++/10.3.1/bits/stl_algobase.h **** 	static _OI
 395:/Library/DaisyToolchain/0.2.0/arm/arm-none-eabi/include/c++/10.3.1/bits/stl_algobase.h **** 	__copy_m(_II __first, _II __last, _OI __result)
 396:/Library/DaisyToolchain/0.2.0/arm/arm-none-eabi/include/c++/10.3.1/bits/stl_algobase.h **** 	{
 397:/Library/DaisyToolchain/0.2.0/arm/arm-none-eabi/include/c++/10.3.1/bits/stl_algobase.h **** 	  typedef typename iterator_traits<_II>::difference_type _Distance;
 398:/Library/DaisyToolchain/0.2.0/arm/arm-none-eabi/include/c++/10.3.1/bits/stl_algobase.h **** 	  for(_Distance __n = __last - __first; __n > 0; --__n)
 399:/Library/DaisyToolchain/0.2.0/arm/arm-none-eabi/include/c++/10.3.1/bits/stl_algobase.h **** 	    {
 400:/Library/DaisyToolchain/0.2.0/arm/arm-none-eabi/include/c++/10.3.1/bits/stl_algobase.h **** 	      *__result = std::move(*__first);
 401:/Library/DaisyToolchain/0.2.0/arm/arm-none-eabi/include/c++/10.3.1/bits/stl_algobase.h **** 	      ++__first;
 402:/Library/DaisyToolchain/0.2.0/arm/arm-none-eabi/include/c++/10.3.1/bits/stl_algobase.h **** 	      ++__result;
 403:/Library/DaisyToolchain/0.2.0/arm/arm-none-eabi/include/c++/10.3.1/bits/stl_algobase.h **** 	    }
 404:/Library/DaisyToolchain/0.2.0/arm/arm-none-eabi/include/c++/10.3.1/bits/stl_algobase.h **** 	  return __result;
 405:/Library/DaisyToolchain/0.2.0/arm/arm-none-eabi/include/c++/10.3.1/bits/stl_algobase.h **** 	}
 406:/Library/DaisyToolchain/0.2.0/arm/arm-none-eabi/include/c++/10.3.1/bits/stl_algobase.h ****     };
 407:/Library/DaisyToolchain/0.2.0/arm/arm-none-eabi/include/c++/10.3.1/bits/stl_algobase.h **** #endif
 408:/Library/DaisyToolchain/0.2.0/arm/arm-none-eabi/include/c++/10.3.1/bits/stl_algobase.h **** 
 409:/Library/DaisyToolchain/0.2.0/arm/arm-none-eabi/include/c++/10.3.1/bits/stl_algobase.h ****   template<bool _IsMove>
 410:/Library/DaisyToolchain/0.2.0/arm/arm-none-eabi/include/c++/10.3.1/bits/stl_algobase.h ****     struct __copy_move<_IsMove, true, random_access_iterator_tag>
 411:/Library/DaisyToolchain/0.2.0/arm/arm-none-eabi/include/c++/10.3.1/bits/stl_algobase.h ****     {
 412:/Library/DaisyToolchain/0.2.0/arm/arm-none-eabi/include/c++/10.3.1/bits/stl_algobase.h ****       template<typename _Tp>
 413:/Library/DaisyToolchain/0.2.0/arm/arm-none-eabi/include/c++/10.3.1/bits/stl_algobase.h **** 	_GLIBCXX20_CONSTEXPR
 414:/Library/DaisyToolchain/0.2.0/arm/arm-none-eabi/include/c++/10.3.1/bits/stl_algobase.h **** 	static _Tp*
 415:/Library/DaisyToolchain/0.2.0/arm/arm-none-eabi/include/c++/10.3.1/bits/stl_algobase.h **** 	__copy_m(const _Tp* __first, const _Tp* __last, _Tp* __result)
 416:/Library/DaisyToolchain/0.2.0/arm/arm-none-eabi/include/c++/10.3.1/bits/stl_algobase.h **** 	{
 417:/Library/DaisyToolchain/0.2.0/arm/arm-none-eabi/include/c++/10.3.1/bits/stl_algobase.h **** #if __cplusplus >= 201103L
 418:/Library/DaisyToolchain/0.2.0/arm/arm-none-eabi/include/c++/10.3.1/bits/stl_algobase.h **** 	  using __assignable = conditional<_IsMove,
 419:/Library/DaisyToolchain/0.2.0/arm/arm-none-eabi/include/c++/10.3.1/bits/stl_algobase.h **** 					   is_move_assignable<_Tp>,
 420:/Library/DaisyToolchain/0.2.0/arm/arm-none-eabi/include/c++/10.3.1/bits/stl_algobase.h **** 					   is_copy_assignable<_Tp>>;
 421:/Library/DaisyToolchain/0.2.0/arm/arm-none-eabi/include/c++/10.3.1/bits/stl_algobase.h **** 	  // trivial types can have deleted assignment
 422:/Library/DaisyToolchain/0.2.0/arm/arm-none-eabi/include/c++/10.3.1/bits/stl_algobase.h **** 	  static_assert( __assignable::type::value, "type is not assignable" );
 423:/Library/DaisyToolchain/0.2.0/arm/arm-none-eabi/include/c++/10.3.1/bits/stl_algobase.h **** #endif
 424:/Library/DaisyToolchain/0.2.0/arm/arm-none-eabi/include/c++/10.3.1/bits/stl_algobase.h **** 	  const ptrdiff_t _Num = __last - __first;
 425:/Library/DaisyToolchain/0.2.0/arm/arm-none-eabi/include/c++/10.3.1/bits/stl_algobase.h **** 	  if (_Num)
 426:/Library/DaisyToolchain/0.2.0/arm/arm-none-eabi/include/c++/10.3.1/bits/stl_algobase.h **** 	    __builtin_memmove(__result, __first, sizeof(_Tp) * _Num);
 427:/Library/DaisyToolchain/0.2.0/arm/arm-none-eabi/include/c++/10.3.1/bits/stl_algobase.h **** 	  return __result + _Num;
 428:/Library/DaisyToolchain/0.2.0/arm/arm-none-eabi/include/c++/10.3.1/bits/stl_algobase.h **** 	}
 429:/Library/DaisyToolchain/0.2.0/arm/arm-none-eabi/include/c++/10.3.1/bits/stl_algobase.h ****     };
 430:/Library/DaisyToolchain/0.2.0/arm/arm-none-eabi/include/c++/10.3.1/bits/stl_algobase.h **** 
 431:/Library/DaisyToolchain/0.2.0/arm/arm-none-eabi/include/c++/10.3.1/bits/stl_algobase.h ****   // Helpers for streambuf iterators (either istream or ostream).
 432:/Library/DaisyToolchain/0.2.0/arm/arm-none-eabi/include/c++/10.3.1/bits/stl_algobase.h ****   // NB: avoid including <iosfwd>, relatively large.
 433:/Library/DaisyToolchain/0.2.0/arm/arm-none-eabi/include/c++/10.3.1/bits/stl_algobase.h ****   template<typename _CharT>
ARM GAS  /var/folders/9s/8rp0_f2s1n31qbztm3b5_fdh0000gn/T//ccR6g0UC.s 			page 18


 434:/Library/DaisyToolchain/0.2.0/arm/arm-none-eabi/include/c++/10.3.1/bits/stl_algobase.h ****     struct char_traits;
 435:/Library/DaisyToolchain/0.2.0/arm/arm-none-eabi/include/c++/10.3.1/bits/stl_algobase.h **** 
 436:/Library/DaisyToolchain/0.2.0/arm/arm-none-eabi/include/c++/10.3.1/bits/stl_algobase.h ****   template<typename _CharT, typename _Traits>
 437:/Library/DaisyToolchain/0.2.0/arm/arm-none-eabi/include/c++/10.3.1/bits/stl_algobase.h ****     class istreambuf_iterator;
 438:/Library/DaisyToolchain/0.2.0/arm/arm-none-eabi/include/c++/10.3.1/bits/stl_algobase.h **** 
 439:/Library/DaisyToolchain/0.2.0/arm/arm-none-eabi/include/c++/10.3.1/bits/stl_algobase.h ****   template<typename _CharT, typename _Traits>
 440:/Library/DaisyToolchain/0.2.0/arm/arm-none-eabi/include/c++/10.3.1/bits/stl_algobase.h ****     class ostreambuf_iterator;
 441:/Library/DaisyToolchain/0.2.0/arm/arm-none-eabi/include/c++/10.3.1/bits/stl_algobase.h **** 
 442:/Library/DaisyToolchain/0.2.0/arm/arm-none-eabi/include/c++/10.3.1/bits/stl_algobase.h ****   template<bool _IsMove, typename _CharT>
 443:/Library/DaisyToolchain/0.2.0/arm/arm-none-eabi/include/c++/10.3.1/bits/stl_algobase.h ****     typename __gnu_cxx::__enable_if<__is_char<_CharT>::__value,
 444:/Library/DaisyToolchain/0.2.0/arm/arm-none-eabi/include/c++/10.3.1/bits/stl_algobase.h **** 	     ostreambuf_iterator<_CharT, char_traits<_CharT> > >::__type
 445:/Library/DaisyToolchain/0.2.0/arm/arm-none-eabi/include/c++/10.3.1/bits/stl_algobase.h ****     __copy_move_a2(_CharT*, _CharT*,
 446:/Library/DaisyToolchain/0.2.0/arm/arm-none-eabi/include/c++/10.3.1/bits/stl_algobase.h **** 		   ostreambuf_iterator<_CharT, char_traits<_CharT> >);
 447:/Library/DaisyToolchain/0.2.0/arm/arm-none-eabi/include/c++/10.3.1/bits/stl_algobase.h **** 
 448:/Library/DaisyToolchain/0.2.0/arm/arm-none-eabi/include/c++/10.3.1/bits/stl_algobase.h ****   template<bool _IsMove, typename _CharT>
 449:/Library/DaisyToolchain/0.2.0/arm/arm-none-eabi/include/c++/10.3.1/bits/stl_algobase.h ****     typename __gnu_cxx::__enable_if<__is_char<_CharT>::__value,
 450:/Library/DaisyToolchain/0.2.0/arm/arm-none-eabi/include/c++/10.3.1/bits/stl_algobase.h **** 	     ostreambuf_iterator<_CharT, char_traits<_CharT> > >::__type
 451:/Library/DaisyToolchain/0.2.0/arm/arm-none-eabi/include/c++/10.3.1/bits/stl_algobase.h ****     __copy_move_a2(const _CharT*, const _CharT*,
 452:/Library/DaisyToolchain/0.2.0/arm/arm-none-eabi/include/c++/10.3.1/bits/stl_algobase.h **** 		   ostreambuf_iterator<_CharT, char_traits<_CharT> >);
 453:/Library/DaisyToolchain/0.2.0/arm/arm-none-eabi/include/c++/10.3.1/bits/stl_algobase.h **** 
 454:/Library/DaisyToolchain/0.2.0/arm/arm-none-eabi/include/c++/10.3.1/bits/stl_algobase.h ****   template<bool _IsMove, typename _CharT>
 455:/Library/DaisyToolchain/0.2.0/arm/arm-none-eabi/include/c++/10.3.1/bits/stl_algobase.h ****     typename __gnu_cxx::__enable_if<__is_char<_CharT>::__value,
 456:/Library/DaisyToolchain/0.2.0/arm/arm-none-eabi/include/c++/10.3.1/bits/stl_algobase.h **** 				    _CharT*>::__type
 457:/Library/DaisyToolchain/0.2.0/arm/arm-none-eabi/include/c++/10.3.1/bits/stl_algobase.h ****     __copy_move_a2(istreambuf_iterator<_CharT, char_traits<_CharT> >,
 458:/Library/DaisyToolchain/0.2.0/arm/arm-none-eabi/include/c++/10.3.1/bits/stl_algobase.h **** 		   istreambuf_iterator<_CharT, char_traits<_CharT> >, _CharT*);
 459:/Library/DaisyToolchain/0.2.0/arm/arm-none-eabi/include/c++/10.3.1/bits/stl_algobase.h **** 
 460:/Library/DaisyToolchain/0.2.0/arm/arm-none-eabi/include/c++/10.3.1/bits/stl_algobase.h ****   template<bool _IsMove, typename _II, typename _OI>
 461:/Library/DaisyToolchain/0.2.0/arm/arm-none-eabi/include/c++/10.3.1/bits/stl_algobase.h ****     _GLIBCXX20_CONSTEXPR
 462:/Library/DaisyToolchain/0.2.0/arm/arm-none-eabi/include/c++/10.3.1/bits/stl_algobase.h ****     inline _OI
 463:/Library/DaisyToolchain/0.2.0/arm/arm-none-eabi/include/c++/10.3.1/bits/stl_algobase.h ****     __copy_move_a2(_II __first, _II __last, _OI __result)
 464:/Library/DaisyToolchain/0.2.0/arm/arm-none-eabi/include/c++/10.3.1/bits/stl_algobase.h ****     {
 465:/Library/DaisyToolchain/0.2.0/arm/arm-none-eabi/include/c++/10.3.1/bits/stl_algobase.h ****       typedef typename iterator_traits<_II>::iterator_category _Category;
 466:/Library/DaisyToolchain/0.2.0/arm/arm-none-eabi/include/c++/10.3.1/bits/stl_algobase.h **** #ifdef __cpp_lib_is_constant_evaluated
 467:/Library/DaisyToolchain/0.2.0/arm/arm-none-eabi/include/c++/10.3.1/bits/stl_algobase.h ****       if (std::is_constant_evaluated())
 468:/Library/DaisyToolchain/0.2.0/arm/arm-none-eabi/include/c++/10.3.1/bits/stl_algobase.h **** 	return std::__copy_move<_IsMove, false, _Category>::
 469:/Library/DaisyToolchain/0.2.0/arm/arm-none-eabi/include/c++/10.3.1/bits/stl_algobase.h **** 	  __copy_m(__first, __last, __result);
 470:/Library/DaisyToolchain/0.2.0/arm/arm-none-eabi/include/c++/10.3.1/bits/stl_algobase.h **** #endif
 471:/Library/DaisyToolchain/0.2.0/arm/arm-none-eabi/include/c++/10.3.1/bits/stl_algobase.h ****       return std::__copy_move<_IsMove, __memcpyable<_OI, _II>::__value,
 472:/Library/DaisyToolchain/0.2.0/arm/arm-none-eabi/include/c++/10.3.1/bits/stl_algobase.h **** 			      _Category>::__copy_m(__first, __last, __result);
 473:/Library/DaisyToolchain/0.2.0/arm/arm-none-eabi/include/c++/10.3.1/bits/stl_algobase.h ****     }
 474:/Library/DaisyToolchain/0.2.0/arm/arm-none-eabi/include/c++/10.3.1/bits/stl_algobase.h **** 
 475:/Library/DaisyToolchain/0.2.0/arm/arm-none-eabi/include/c++/10.3.1/bits/stl_algobase.h **** _GLIBCXX_BEGIN_NAMESPACE_CONTAINER
 476:/Library/DaisyToolchain/0.2.0/arm/arm-none-eabi/include/c++/10.3.1/bits/stl_algobase.h **** 
 477:/Library/DaisyToolchain/0.2.0/arm/arm-none-eabi/include/c++/10.3.1/bits/stl_algobase.h ****   template<typename _Tp, typename _Ref, typename _Ptr>
 478:/Library/DaisyToolchain/0.2.0/arm/arm-none-eabi/include/c++/10.3.1/bits/stl_algobase.h ****     struct _Deque_iterator;
 479:/Library/DaisyToolchain/0.2.0/arm/arm-none-eabi/include/c++/10.3.1/bits/stl_algobase.h **** 
 480:/Library/DaisyToolchain/0.2.0/arm/arm-none-eabi/include/c++/10.3.1/bits/stl_algobase.h **** _GLIBCXX_END_NAMESPACE_CONTAINER
 481:/Library/DaisyToolchain/0.2.0/arm/arm-none-eabi/include/c++/10.3.1/bits/stl_algobase.h **** 
 482:/Library/DaisyToolchain/0.2.0/arm/arm-none-eabi/include/c++/10.3.1/bits/stl_algobase.h ****   template<bool _IsMove,
 483:/Library/DaisyToolchain/0.2.0/arm/arm-none-eabi/include/c++/10.3.1/bits/stl_algobase.h **** 	   typename _Tp, typename _Ref, typename _Ptr, typename _OI>
 484:/Library/DaisyToolchain/0.2.0/arm/arm-none-eabi/include/c++/10.3.1/bits/stl_algobase.h ****     _OI
 485:/Library/DaisyToolchain/0.2.0/arm/arm-none-eabi/include/c++/10.3.1/bits/stl_algobase.h ****     __copy_move_a1(_GLIBCXX_STD_C::_Deque_iterator<_Tp, _Ref, _Ptr>,
 486:/Library/DaisyToolchain/0.2.0/arm/arm-none-eabi/include/c++/10.3.1/bits/stl_algobase.h **** 		   _GLIBCXX_STD_C::_Deque_iterator<_Tp, _Ref, _Ptr>,
 487:/Library/DaisyToolchain/0.2.0/arm/arm-none-eabi/include/c++/10.3.1/bits/stl_algobase.h **** 		   _OI);
 488:/Library/DaisyToolchain/0.2.0/arm/arm-none-eabi/include/c++/10.3.1/bits/stl_algobase.h **** 
 489:/Library/DaisyToolchain/0.2.0/arm/arm-none-eabi/include/c++/10.3.1/bits/stl_algobase.h ****   template<bool _IsMove,
 490:/Library/DaisyToolchain/0.2.0/arm/arm-none-eabi/include/c++/10.3.1/bits/stl_algobase.h **** 	   typename _ITp, typename _IRef, typename _IPtr, typename _OTp>
ARM GAS  /var/folders/9s/8rp0_f2s1n31qbztm3b5_fdh0000gn/T//ccR6g0UC.s 			page 19


 491:/Library/DaisyToolchain/0.2.0/arm/arm-none-eabi/include/c++/10.3.1/bits/stl_algobase.h ****     _GLIBCXX_STD_C::_Deque_iterator<_OTp, _OTp&, _OTp*>
 492:/Library/DaisyToolchain/0.2.0/arm/arm-none-eabi/include/c++/10.3.1/bits/stl_algobase.h ****     __copy_move_a1(_GLIBCXX_STD_C::_Deque_iterator<_ITp, _IRef, _IPtr>,
 493:/Library/DaisyToolchain/0.2.0/arm/arm-none-eabi/include/c++/10.3.1/bits/stl_algobase.h **** 		   _GLIBCXX_STD_C::_Deque_iterator<_ITp, _IRef, _IPtr>,
 494:/Library/DaisyToolchain/0.2.0/arm/arm-none-eabi/include/c++/10.3.1/bits/stl_algobase.h **** 		   _GLIBCXX_STD_C::_Deque_iterator<_OTp, _OTp&, _OTp*>);
 495:/Library/DaisyToolchain/0.2.0/arm/arm-none-eabi/include/c++/10.3.1/bits/stl_algobase.h **** 
 496:/Library/DaisyToolchain/0.2.0/arm/arm-none-eabi/include/c++/10.3.1/bits/stl_algobase.h ****   template<bool _IsMove, typename _II, typename _Tp>
 497:/Library/DaisyToolchain/0.2.0/arm/arm-none-eabi/include/c++/10.3.1/bits/stl_algobase.h ****     typename __gnu_cxx::__enable_if<
 498:/Library/DaisyToolchain/0.2.0/arm/arm-none-eabi/include/c++/10.3.1/bits/stl_algobase.h ****       __is_random_access_iter<_II>::__value,
 499:/Library/DaisyToolchain/0.2.0/arm/arm-none-eabi/include/c++/10.3.1/bits/stl_algobase.h ****       _GLIBCXX_STD_C::_Deque_iterator<_Tp, _Tp&, _Tp*> >::__type
 500:/Library/DaisyToolchain/0.2.0/arm/arm-none-eabi/include/c++/10.3.1/bits/stl_algobase.h ****     __copy_move_a1(_II, _II, _GLIBCXX_STD_C::_Deque_iterator<_Tp, _Tp&, _Tp*>);
 501:/Library/DaisyToolchain/0.2.0/arm/arm-none-eabi/include/c++/10.3.1/bits/stl_algobase.h **** 
 502:/Library/DaisyToolchain/0.2.0/arm/arm-none-eabi/include/c++/10.3.1/bits/stl_algobase.h ****   template<bool _IsMove, typename _II, typename _OI>
 503:/Library/DaisyToolchain/0.2.0/arm/arm-none-eabi/include/c++/10.3.1/bits/stl_algobase.h ****     _GLIBCXX20_CONSTEXPR
 504:/Library/DaisyToolchain/0.2.0/arm/arm-none-eabi/include/c++/10.3.1/bits/stl_algobase.h ****     inline _OI
 505:/Library/DaisyToolchain/0.2.0/arm/arm-none-eabi/include/c++/10.3.1/bits/stl_algobase.h ****     __copy_move_a1(_II __first, _II __last, _OI __result)
 506:/Library/DaisyToolchain/0.2.0/arm/arm-none-eabi/include/c++/10.3.1/bits/stl_algobase.h ****     { return std::__copy_move_a2<_IsMove>(__first, __last, __result); }
 507:/Library/DaisyToolchain/0.2.0/arm/arm-none-eabi/include/c++/10.3.1/bits/stl_algobase.h **** 
 508:/Library/DaisyToolchain/0.2.0/arm/arm-none-eabi/include/c++/10.3.1/bits/stl_algobase.h ****   template<bool _IsMove, typename _II, typename _OI>
 509:/Library/DaisyToolchain/0.2.0/arm/arm-none-eabi/include/c++/10.3.1/bits/stl_algobase.h ****     _GLIBCXX20_CONSTEXPR
 510:/Library/DaisyToolchain/0.2.0/arm/arm-none-eabi/include/c++/10.3.1/bits/stl_algobase.h ****     inline _OI
 511:/Library/DaisyToolchain/0.2.0/arm/arm-none-eabi/include/c++/10.3.1/bits/stl_algobase.h ****     __copy_move_a(_II __first, _II __last, _OI __result)
 512:/Library/DaisyToolchain/0.2.0/arm/arm-none-eabi/include/c++/10.3.1/bits/stl_algobase.h ****     {
 513:/Library/DaisyToolchain/0.2.0/arm/arm-none-eabi/include/c++/10.3.1/bits/stl_algobase.h ****       return std::__niter_wrap(__result,
 514:/Library/DaisyToolchain/0.2.0/arm/arm-none-eabi/include/c++/10.3.1/bits/stl_algobase.h **** 		std::__copy_move_a1<_IsMove>(std::__niter_base(__first),
 515:/Library/DaisyToolchain/0.2.0/arm/arm-none-eabi/include/c++/10.3.1/bits/stl_algobase.h **** 					     std::__niter_base(__last),
 516:/Library/DaisyToolchain/0.2.0/arm/arm-none-eabi/include/c++/10.3.1/bits/stl_algobase.h **** 					     std::__niter_base(__result)));
 517:/Library/DaisyToolchain/0.2.0/arm/arm-none-eabi/include/c++/10.3.1/bits/stl_algobase.h ****     }
 518:/Library/DaisyToolchain/0.2.0/arm/arm-none-eabi/include/c++/10.3.1/bits/stl_algobase.h **** 
 519:/Library/DaisyToolchain/0.2.0/arm/arm-none-eabi/include/c++/10.3.1/bits/stl_algobase.h ****   template<bool _IsMove,
 520:/Library/DaisyToolchain/0.2.0/arm/arm-none-eabi/include/c++/10.3.1/bits/stl_algobase.h **** 	   typename _Ite, typename _Seq, typename _Cat, typename _OI>
 521:/Library/DaisyToolchain/0.2.0/arm/arm-none-eabi/include/c++/10.3.1/bits/stl_algobase.h ****     _OI
 522:/Library/DaisyToolchain/0.2.0/arm/arm-none-eabi/include/c++/10.3.1/bits/stl_algobase.h ****     __copy_move_a(const ::__gnu_debug::_Safe_iterator<_Ite, _Seq, _Cat>&,
 523:/Library/DaisyToolchain/0.2.0/arm/arm-none-eabi/include/c++/10.3.1/bits/stl_algobase.h **** 		  const ::__gnu_debug::_Safe_iterator<_Ite, _Seq, _Cat>&,
 524:/Library/DaisyToolchain/0.2.0/arm/arm-none-eabi/include/c++/10.3.1/bits/stl_algobase.h **** 		  _OI);
 525:/Library/DaisyToolchain/0.2.0/arm/arm-none-eabi/include/c++/10.3.1/bits/stl_algobase.h **** 
 526:/Library/DaisyToolchain/0.2.0/arm/arm-none-eabi/include/c++/10.3.1/bits/stl_algobase.h ****   template<bool _IsMove,
 527:/Library/DaisyToolchain/0.2.0/arm/arm-none-eabi/include/c++/10.3.1/bits/stl_algobase.h **** 	   typename _II, typename _Ite, typename _Seq, typename _Cat>
 528:/Library/DaisyToolchain/0.2.0/arm/arm-none-eabi/include/c++/10.3.1/bits/stl_algobase.h ****     __gnu_debug::_Safe_iterator<_Ite, _Seq, _Cat>
 529:/Library/DaisyToolchain/0.2.0/arm/arm-none-eabi/include/c++/10.3.1/bits/stl_algobase.h ****     __copy_move_a(_II, _II,
 530:/Library/DaisyToolchain/0.2.0/arm/arm-none-eabi/include/c++/10.3.1/bits/stl_algobase.h **** 		  const ::__gnu_debug::_Safe_iterator<_Ite, _Seq, _Cat>&);
 531:/Library/DaisyToolchain/0.2.0/arm/arm-none-eabi/include/c++/10.3.1/bits/stl_algobase.h **** 
 532:/Library/DaisyToolchain/0.2.0/arm/arm-none-eabi/include/c++/10.3.1/bits/stl_algobase.h ****   template<bool _IsMove,
 533:/Library/DaisyToolchain/0.2.0/arm/arm-none-eabi/include/c++/10.3.1/bits/stl_algobase.h **** 	   typename _IIte, typename _ISeq, typename _ICat,
 534:/Library/DaisyToolchain/0.2.0/arm/arm-none-eabi/include/c++/10.3.1/bits/stl_algobase.h **** 	   typename _OIte, typename _OSeq, typename _OCat>
 535:/Library/DaisyToolchain/0.2.0/arm/arm-none-eabi/include/c++/10.3.1/bits/stl_algobase.h ****     ::__gnu_debug::_Safe_iterator<_OIte, _OSeq, _OCat>
 536:/Library/DaisyToolchain/0.2.0/arm/arm-none-eabi/include/c++/10.3.1/bits/stl_algobase.h ****     __copy_move_a(const ::__gnu_debug::_Safe_iterator<_IIte, _ISeq, _ICat>&,
 537:/Library/DaisyToolchain/0.2.0/arm/arm-none-eabi/include/c++/10.3.1/bits/stl_algobase.h **** 		  const ::__gnu_debug::_Safe_iterator<_IIte, _ISeq, _ICat>&,
 538:/Library/DaisyToolchain/0.2.0/arm/arm-none-eabi/include/c++/10.3.1/bits/stl_algobase.h **** 		  const ::__gnu_debug::_Safe_iterator<_OIte, _OSeq, _OCat>&);
 539:/Library/DaisyToolchain/0.2.0/arm/arm-none-eabi/include/c++/10.3.1/bits/stl_algobase.h **** 
 540:/Library/DaisyToolchain/0.2.0/arm/arm-none-eabi/include/c++/10.3.1/bits/stl_algobase.h ****   /**
 541:/Library/DaisyToolchain/0.2.0/arm/arm-none-eabi/include/c++/10.3.1/bits/stl_algobase.h ****    *  @brief Copies the range [first,last) into result.
 542:/Library/DaisyToolchain/0.2.0/arm/arm-none-eabi/include/c++/10.3.1/bits/stl_algobase.h ****    *  @ingroup mutating_algorithms
 543:/Library/DaisyToolchain/0.2.0/arm/arm-none-eabi/include/c++/10.3.1/bits/stl_algobase.h ****    *  @param  __first  An input iterator.
 544:/Library/DaisyToolchain/0.2.0/arm/arm-none-eabi/include/c++/10.3.1/bits/stl_algobase.h ****    *  @param  __last   An input iterator.
 545:/Library/DaisyToolchain/0.2.0/arm/arm-none-eabi/include/c++/10.3.1/bits/stl_algobase.h ****    *  @param  __result An output iterator.
 546:/Library/DaisyToolchain/0.2.0/arm/arm-none-eabi/include/c++/10.3.1/bits/stl_algobase.h ****    *  @return   result + (last - first)
 547:/Library/DaisyToolchain/0.2.0/arm/arm-none-eabi/include/c++/10.3.1/bits/stl_algobase.h ****    *
ARM GAS  /var/folders/9s/8rp0_f2s1n31qbztm3b5_fdh0000gn/T//ccR6g0UC.s 			page 20


 548:/Library/DaisyToolchain/0.2.0/arm/arm-none-eabi/include/c++/10.3.1/bits/stl_algobase.h ****    *  This inline function will boil down to a call to @c memmove whenever
 549:/Library/DaisyToolchain/0.2.0/arm/arm-none-eabi/include/c++/10.3.1/bits/stl_algobase.h ****    *  possible.  Failing that, if random access iterators are passed, then the
 550:/Library/DaisyToolchain/0.2.0/arm/arm-none-eabi/include/c++/10.3.1/bits/stl_algobase.h ****    *  loop count will be known (and therefore a candidate for compiler
 551:/Library/DaisyToolchain/0.2.0/arm/arm-none-eabi/include/c++/10.3.1/bits/stl_algobase.h ****    *  optimizations such as unrolling).  Result may not be contained within
 552:/Library/DaisyToolchain/0.2.0/arm/arm-none-eabi/include/c++/10.3.1/bits/stl_algobase.h ****    *  [first,last); the copy_backward function should be used instead.
 553:/Library/DaisyToolchain/0.2.0/arm/arm-none-eabi/include/c++/10.3.1/bits/stl_algobase.h ****    *
 554:/Library/DaisyToolchain/0.2.0/arm/arm-none-eabi/include/c++/10.3.1/bits/stl_algobase.h ****    *  Note that the end of the output range is permitted to be contained
 555:/Library/DaisyToolchain/0.2.0/arm/arm-none-eabi/include/c++/10.3.1/bits/stl_algobase.h ****    *  within [first,last).
 556:/Library/DaisyToolchain/0.2.0/arm/arm-none-eabi/include/c++/10.3.1/bits/stl_algobase.h ****   */
 557:/Library/DaisyToolchain/0.2.0/arm/arm-none-eabi/include/c++/10.3.1/bits/stl_algobase.h ****   template<typename _II, typename _OI>
 558:/Library/DaisyToolchain/0.2.0/arm/arm-none-eabi/include/c++/10.3.1/bits/stl_algobase.h ****     _GLIBCXX20_CONSTEXPR
 559:/Library/DaisyToolchain/0.2.0/arm/arm-none-eabi/include/c++/10.3.1/bits/stl_algobase.h ****     inline _OI
 560:/Library/DaisyToolchain/0.2.0/arm/arm-none-eabi/include/c++/10.3.1/bits/stl_algobase.h ****     copy(_II __first, _II __last, _OI __result)
 561:/Library/DaisyToolchain/0.2.0/arm/arm-none-eabi/include/c++/10.3.1/bits/stl_algobase.h ****     {
 562:/Library/DaisyToolchain/0.2.0/arm/arm-none-eabi/include/c++/10.3.1/bits/stl_algobase.h ****       // concept requirements
 563:/Library/DaisyToolchain/0.2.0/arm/arm-none-eabi/include/c++/10.3.1/bits/stl_algobase.h ****       __glibcxx_function_requires(_InputIteratorConcept<_II>)
 564:/Library/DaisyToolchain/0.2.0/arm/arm-none-eabi/include/c++/10.3.1/bits/stl_algobase.h ****       __glibcxx_function_requires(_OutputIteratorConcept<_OI,
 565:/Library/DaisyToolchain/0.2.0/arm/arm-none-eabi/include/c++/10.3.1/bits/stl_algobase.h **** 	    typename iterator_traits<_II>::value_type>)
 566:/Library/DaisyToolchain/0.2.0/arm/arm-none-eabi/include/c++/10.3.1/bits/stl_algobase.h ****       __glibcxx_requires_can_increment_range(__first, __last, __result);
 567:/Library/DaisyToolchain/0.2.0/arm/arm-none-eabi/include/c++/10.3.1/bits/stl_algobase.h **** 
 568:/Library/DaisyToolchain/0.2.0/arm/arm-none-eabi/include/c++/10.3.1/bits/stl_algobase.h ****       return std::__copy_move_a<__is_move_iterator<_II>::__value>
 569:/Library/DaisyToolchain/0.2.0/arm/arm-none-eabi/include/c++/10.3.1/bits/stl_algobase.h **** 	     (std::__miter_base(__first), std::__miter_base(__last), __result);
 570:/Library/DaisyToolchain/0.2.0/arm/arm-none-eabi/include/c++/10.3.1/bits/stl_algobase.h ****     }
 571:/Library/DaisyToolchain/0.2.0/arm/arm-none-eabi/include/c++/10.3.1/bits/stl_algobase.h **** 
 572:/Library/DaisyToolchain/0.2.0/arm/arm-none-eabi/include/c++/10.3.1/bits/stl_algobase.h **** #if __cplusplus >= 201103L
 573:/Library/DaisyToolchain/0.2.0/arm/arm-none-eabi/include/c++/10.3.1/bits/stl_algobase.h ****   /**
 574:/Library/DaisyToolchain/0.2.0/arm/arm-none-eabi/include/c++/10.3.1/bits/stl_algobase.h ****    *  @brief Moves the range [first,last) into result.
 575:/Library/DaisyToolchain/0.2.0/arm/arm-none-eabi/include/c++/10.3.1/bits/stl_algobase.h ****    *  @ingroup mutating_algorithms
 576:/Library/DaisyToolchain/0.2.0/arm/arm-none-eabi/include/c++/10.3.1/bits/stl_algobase.h ****    *  @param  __first  An input iterator.
 577:/Library/DaisyToolchain/0.2.0/arm/arm-none-eabi/include/c++/10.3.1/bits/stl_algobase.h ****    *  @param  __last   An input iterator.
 578:/Library/DaisyToolchain/0.2.0/arm/arm-none-eabi/include/c++/10.3.1/bits/stl_algobase.h ****    *  @param  __result An output iterator.
 579:/Library/DaisyToolchain/0.2.0/arm/arm-none-eabi/include/c++/10.3.1/bits/stl_algobase.h ****    *  @return   result + (last - first)
 580:/Library/DaisyToolchain/0.2.0/arm/arm-none-eabi/include/c++/10.3.1/bits/stl_algobase.h ****    *
 581:/Library/DaisyToolchain/0.2.0/arm/arm-none-eabi/include/c++/10.3.1/bits/stl_algobase.h ****    *  This inline function will boil down to a call to @c memmove whenever
 582:/Library/DaisyToolchain/0.2.0/arm/arm-none-eabi/include/c++/10.3.1/bits/stl_algobase.h ****    *  possible.  Failing that, if random access iterators are passed, then the
 583:/Library/DaisyToolchain/0.2.0/arm/arm-none-eabi/include/c++/10.3.1/bits/stl_algobase.h ****    *  loop count will be known (and therefore a candidate for compiler
 584:/Library/DaisyToolchain/0.2.0/arm/arm-none-eabi/include/c++/10.3.1/bits/stl_algobase.h ****    *  optimizations such as unrolling).  Result may not be contained within
 585:/Library/DaisyToolchain/0.2.0/arm/arm-none-eabi/include/c++/10.3.1/bits/stl_algobase.h ****    *  [first,last); the move_backward function should be used instead.
 586:/Library/DaisyToolchain/0.2.0/arm/arm-none-eabi/include/c++/10.3.1/bits/stl_algobase.h ****    *
 587:/Library/DaisyToolchain/0.2.0/arm/arm-none-eabi/include/c++/10.3.1/bits/stl_algobase.h ****    *  Note that the end of the output range is permitted to be contained
 588:/Library/DaisyToolchain/0.2.0/arm/arm-none-eabi/include/c++/10.3.1/bits/stl_algobase.h ****    *  within [first,last).
 589:/Library/DaisyToolchain/0.2.0/arm/arm-none-eabi/include/c++/10.3.1/bits/stl_algobase.h ****   */
 590:/Library/DaisyToolchain/0.2.0/arm/arm-none-eabi/include/c++/10.3.1/bits/stl_algobase.h ****   template<typename _II, typename _OI>
 591:/Library/DaisyToolchain/0.2.0/arm/arm-none-eabi/include/c++/10.3.1/bits/stl_algobase.h ****     _GLIBCXX20_CONSTEXPR
 592:/Library/DaisyToolchain/0.2.0/arm/arm-none-eabi/include/c++/10.3.1/bits/stl_algobase.h ****     inline _OI
 593:/Library/DaisyToolchain/0.2.0/arm/arm-none-eabi/include/c++/10.3.1/bits/stl_algobase.h ****     move(_II __first, _II __last, _OI __result)
 594:/Library/DaisyToolchain/0.2.0/arm/arm-none-eabi/include/c++/10.3.1/bits/stl_algobase.h ****     {
 595:/Library/DaisyToolchain/0.2.0/arm/arm-none-eabi/include/c++/10.3.1/bits/stl_algobase.h ****       // concept requirements
 596:/Library/DaisyToolchain/0.2.0/arm/arm-none-eabi/include/c++/10.3.1/bits/stl_algobase.h ****       __glibcxx_function_requires(_InputIteratorConcept<_II>)
 597:/Library/DaisyToolchain/0.2.0/arm/arm-none-eabi/include/c++/10.3.1/bits/stl_algobase.h ****       __glibcxx_function_requires(_OutputIteratorConcept<_OI,
 598:/Library/DaisyToolchain/0.2.0/arm/arm-none-eabi/include/c++/10.3.1/bits/stl_algobase.h **** 	    typename iterator_traits<_II>::value_type>)
 599:/Library/DaisyToolchain/0.2.0/arm/arm-none-eabi/include/c++/10.3.1/bits/stl_algobase.h ****       __glibcxx_requires_can_increment_range(__first, __last, __result);
 600:/Library/DaisyToolchain/0.2.0/arm/arm-none-eabi/include/c++/10.3.1/bits/stl_algobase.h **** 
 601:/Library/DaisyToolchain/0.2.0/arm/arm-none-eabi/include/c++/10.3.1/bits/stl_algobase.h ****       return std::__copy_move_a<true>(std::__miter_base(__first),
 602:/Library/DaisyToolchain/0.2.0/arm/arm-none-eabi/include/c++/10.3.1/bits/stl_algobase.h **** 				      std::__miter_base(__last), __result);
 603:/Library/DaisyToolchain/0.2.0/arm/arm-none-eabi/include/c++/10.3.1/bits/stl_algobase.h ****     }
 604:/Library/DaisyToolchain/0.2.0/arm/arm-none-eabi/include/c++/10.3.1/bits/stl_algobase.h **** 
ARM GAS  /var/folders/9s/8rp0_f2s1n31qbztm3b5_fdh0000gn/T//ccR6g0UC.s 			page 21


 605:/Library/DaisyToolchain/0.2.0/arm/arm-none-eabi/include/c++/10.3.1/bits/stl_algobase.h **** #define _GLIBCXX_MOVE3(_Tp, _Up, _Vp) std::move(_Tp, _Up, _Vp)
 606:/Library/DaisyToolchain/0.2.0/arm/arm-none-eabi/include/c++/10.3.1/bits/stl_algobase.h **** #else
 607:/Library/DaisyToolchain/0.2.0/arm/arm-none-eabi/include/c++/10.3.1/bits/stl_algobase.h **** #define _GLIBCXX_MOVE3(_Tp, _Up, _Vp) std::copy(_Tp, _Up, _Vp)
 608:/Library/DaisyToolchain/0.2.0/arm/arm-none-eabi/include/c++/10.3.1/bits/stl_algobase.h **** #endif
 609:/Library/DaisyToolchain/0.2.0/arm/arm-none-eabi/include/c++/10.3.1/bits/stl_algobase.h **** 
 610:/Library/DaisyToolchain/0.2.0/arm/arm-none-eabi/include/c++/10.3.1/bits/stl_algobase.h ****   template<bool _IsMove, bool _IsSimple, typename _Category>
 611:/Library/DaisyToolchain/0.2.0/arm/arm-none-eabi/include/c++/10.3.1/bits/stl_algobase.h ****     struct __copy_move_backward
 612:/Library/DaisyToolchain/0.2.0/arm/arm-none-eabi/include/c++/10.3.1/bits/stl_algobase.h ****     {
 613:/Library/DaisyToolchain/0.2.0/arm/arm-none-eabi/include/c++/10.3.1/bits/stl_algobase.h ****       template<typename _BI1, typename _BI2>
 614:/Library/DaisyToolchain/0.2.0/arm/arm-none-eabi/include/c++/10.3.1/bits/stl_algobase.h **** 	_GLIBCXX20_CONSTEXPR
 615:/Library/DaisyToolchain/0.2.0/arm/arm-none-eabi/include/c++/10.3.1/bits/stl_algobase.h **** 	static _BI2
 616:/Library/DaisyToolchain/0.2.0/arm/arm-none-eabi/include/c++/10.3.1/bits/stl_algobase.h **** 	__copy_move_b(_BI1 __first, _BI1 __last, _BI2 __result)
 617:/Library/DaisyToolchain/0.2.0/arm/arm-none-eabi/include/c++/10.3.1/bits/stl_algobase.h **** 	{
 618:/Library/DaisyToolchain/0.2.0/arm/arm-none-eabi/include/c++/10.3.1/bits/stl_algobase.h **** 	  while (__first != __last)
 619:/Library/DaisyToolchain/0.2.0/arm/arm-none-eabi/include/c++/10.3.1/bits/stl_algobase.h **** 	    *--__result = *--__last;
 620:/Library/DaisyToolchain/0.2.0/arm/arm-none-eabi/include/c++/10.3.1/bits/stl_algobase.h **** 	  return __result;
 621:/Library/DaisyToolchain/0.2.0/arm/arm-none-eabi/include/c++/10.3.1/bits/stl_algobase.h **** 	}
 622:/Library/DaisyToolchain/0.2.0/arm/arm-none-eabi/include/c++/10.3.1/bits/stl_algobase.h ****     };
 623:/Library/DaisyToolchain/0.2.0/arm/arm-none-eabi/include/c++/10.3.1/bits/stl_algobase.h **** 
 624:/Library/DaisyToolchain/0.2.0/arm/arm-none-eabi/include/c++/10.3.1/bits/stl_algobase.h **** #if __cplusplus >= 201103L
 625:/Library/DaisyToolchain/0.2.0/arm/arm-none-eabi/include/c++/10.3.1/bits/stl_algobase.h ****   template<typename _Category>
 626:/Library/DaisyToolchain/0.2.0/arm/arm-none-eabi/include/c++/10.3.1/bits/stl_algobase.h ****     struct __copy_move_backward<true, false, _Category>
 627:/Library/DaisyToolchain/0.2.0/arm/arm-none-eabi/include/c++/10.3.1/bits/stl_algobase.h ****     {
 628:/Library/DaisyToolchain/0.2.0/arm/arm-none-eabi/include/c++/10.3.1/bits/stl_algobase.h ****       template<typename _BI1, typename _BI2>
 629:/Library/DaisyToolchain/0.2.0/arm/arm-none-eabi/include/c++/10.3.1/bits/stl_algobase.h **** 	_GLIBCXX20_CONSTEXPR
 630:/Library/DaisyToolchain/0.2.0/arm/arm-none-eabi/include/c++/10.3.1/bits/stl_algobase.h **** 	static _BI2
 631:/Library/DaisyToolchain/0.2.0/arm/arm-none-eabi/include/c++/10.3.1/bits/stl_algobase.h **** 	__copy_move_b(_BI1 __first, _BI1 __last, _BI2 __result)
 632:/Library/DaisyToolchain/0.2.0/arm/arm-none-eabi/include/c++/10.3.1/bits/stl_algobase.h **** 	{
 633:/Library/DaisyToolchain/0.2.0/arm/arm-none-eabi/include/c++/10.3.1/bits/stl_algobase.h **** 	  while (__first != __last)
 634:/Library/DaisyToolchain/0.2.0/arm/arm-none-eabi/include/c++/10.3.1/bits/stl_algobase.h **** 	    *--__result = std::move(*--__last);
 635:/Library/DaisyToolchain/0.2.0/arm/arm-none-eabi/include/c++/10.3.1/bits/stl_algobase.h **** 	  return __result;
 636:/Library/DaisyToolchain/0.2.0/arm/arm-none-eabi/include/c++/10.3.1/bits/stl_algobase.h **** 	}
 637:/Library/DaisyToolchain/0.2.0/arm/arm-none-eabi/include/c++/10.3.1/bits/stl_algobase.h ****     };
 638:/Library/DaisyToolchain/0.2.0/arm/arm-none-eabi/include/c++/10.3.1/bits/stl_algobase.h **** #endif
 639:/Library/DaisyToolchain/0.2.0/arm/arm-none-eabi/include/c++/10.3.1/bits/stl_algobase.h **** 
 640:/Library/DaisyToolchain/0.2.0/arm/arm-none-eabi/include/c++/10.3.1/bits/stl_algobase.h ****   template<>
 641:/Library/DaisyToolchain/0.2.0/arm/arm-none-eabi/include/c++/10.3.1/bits/stl_algobase.h ****     struct __copy_move_backward<false, false, random_access_iterator_tag>
 642:/Library/DaisyToolchain/0.2.0/arm/arm-none-eabi/include/c++/10.3.1/bits/stl_algobase.h ****     {
 643:/Library/DaisyToolchain/0.2.0/arm/arm-none-eabi/include/c++/10.3.1/bits/stl_algobase.h ****       template<typename _BI1, typename _BI2>
 644:/Library/DaisyToolchain/0.2.0/arm/arm-none-eabi/include/c++/10.3.1/bits/stl_algobase.h **** 	_GLIBCXX20_CONSTEXPR
 645:/Library/DaisyToolchain/0.2.0/arm/arm-none-eabi/include/c++/10.3.1/bits/stl_algobase.h **** 	static _BI2
 646:/Library/DaisyToolchain/0.2.0/arm/arm-none-eabi/include/c++/10.3.1/bits/stl_algobase.h **** 	__copy_move_b(_BI1 __first, _BI1 __last, _BI2 __result)
 647:/Library/DaisyToolchain/0.2.0/arm/arm-none-eabi/include/c++/10.3.1/bits/stl_algobase.h **** 	{
 648:/Library/DaisyToolchain/0.2.0/arm/arm-none-eabi/include/c++/10.3.1/bits/stl_algobase.h **** 	  typename iterator_traits<_BI1>::difference_type
 649:/Library/DaisyToolchain/0.2.0/arm/arm-none-eabi/include/c++/10.3.1/bits/stl_algobase.h **** 	    __n = __last - __first;
 650:/Library/DaisyToolchain/0.2.0/arm/arm-none-eabi/include/c++/10.3.1/bits/stl_algobase.h **** 	  for (; __n > 0; --__n)
 651:/Library/DaisyToolchain/0.2.0/arm/arm-none-eabi/include/c++/10.3.1/bits/stl_algobase.h **** 	    *--__result = *--__last;
 652:/Library/DaisyToolchain/0.2.0/arm/arm-none-eabi/include/c++/10.3.1/bits/stl_algobase.h **** 	  return __result;
 653:/Library/DaisyToolchain/0.2.0/arm/arm-none-eabi/include/c++/10.3.1/bits/stl_algobase.h **** 	}
 654:/Library/DaisyToolchain/0.2.0/arm/arm-none-eabi/include/c++/10.3.1/bits/stl_algobase.h ****     };
 655:/Library/DaisyToolchain/0.2.0/arm/arm-none-eabi/include/c++/10.3.1/bits/stl_algobase.h **** 
 656:/Library/DaisyToolchain/0.2.0/arm/arm-none-eabi/include/c++/10.3.1/bits/stl_algobase.h **** #if __cplusplus >= 201103L
 657:/Library/DaisyToolchain/0.2.0/arm/arm-none-eabi/include/c++/10.3.1/bits/stl_algobase.h ****   template<>
 658:/Library/DaisyToolchain/0.2.0/arm/arm-none-eabi/include/c++/10.3.1/bits/stl_algobase.h ****     struct __copy_move_backward<true, false, random_access_iterator_tag>
 659:/Library/DaisyToolchain/0.2.0/arm/arm-none-eabi/include/c++/10.3.1/bits/stl_algobase.h ****     {
 660:/Library/DaisyToolchain/0.2.0/arm/arm-none-eabi/include/c++/10.3.1/bits/stl_algobase.h ****       template<typename _BI1, typename _BI2>
 661:/Library/DaisyToolchain/0.2.0/arm/arm-none-eabi/include/c++/10.3.1/bits/stl_algobase.h **** 	_GLIBCXX20_CONSTEXPR
ARM GAS  /var/folders/9s/8rp0_f2s1n31qbztm3b5_fdh0000gn/T//ccR6g0UC.s 			page 22


 662:/Library/DaisyToolchain/0.2.0/arm/arm-none-eabi/include/c++/10.3.1/bits/stl_algobase.h **** 	static _BI2
 663:/Library/DaisyToolchain/0.2.0/arm/arm-none-eabi/include/c++/10.3.1/bits/stl_algobase.h **** 	__copy_move_b(_BI1 __first, _BI1 __last, _BI2 __result)
 664:/Library/DaisyToolchain/0.2.0/arm/arm-none-eabi/include/c++/10.3.1/bits/stl_algobase.h **** 	{
 665:/Library/DaisyToolchain/0.2.0/arm/arm-none-eabi/include/c++/10.3.1/bits/stl_algobase.h **** 	  typename iterator_traits<_BI1>::difference_type
 666:/Library/DaisyToolchain/0.2.0/arm/arm-none-eabi/include/c++/10.3.1/bits/stl_algobase.h **** 	    __n = __last - __first;
 667:/Library/DaisyToolchain/0.2.0/arm/arm-none-eabi/include/c++/10.3.1/bits/stl_algobase.h **** 	  for (; __n > 0; --__n)
 668:/Library/DaisyToolchain/0.2.0/arm/arm-none-eabi/include/c++/10.3.1/bits/stl_algobase.h **** 	    *--__result = std::move(*--__last);
 669:/Library/DaisyToolchain/0.2.0/arm/arm-none-eabi/include/c++/10.3.1/bits/stl_algobase.h **** 	  return __result;
 670:/Library/DaisyToolchain/0.2.0/arm/arm-none-eabi/include/c++/10.3.1/bits/stl_algobase.h **** 	}
 671:/Library/DaisyToolchain/0.2.0/arm/arm-none-eabi/include/c++/10.3.1/bits/stl_algobase.h ****     };
 672:/Library/DaisyToolchain/0.2.0/arm/arm-none-eabi/include/c++/10.3.1/bits/stl_algobase.h **** #endif
 673:/Library/DaisyToolchain/0.2.0/arm/arm-none-eabi/include/c++/10.3.1/bits/stl_algobase.h **** 
 674:/Library/DaisyToolchain/0.2.0/arm/arm-none-eabi/include/c++/10.3.1/bits/stl_algobase.h ****   template<bool _IsMove>
 675:/Library/DaisyToolchain/0.2.0/arm/arm-none-eabi/include/c++/10.3.1/bits/stl_algobase.h ****     struct __copy_move_backward<_IsMove, true, random_access_iterator_tag>
 676:/Library/DaisyToolchain/0.2.0/arm/arm-none-eabi/include/c++/10.3.1/bits/stl_algobase.h ****     {
 677:/Library/DaisyToolchain/0.2.0/arm/arm-none-eabi/include/c++/10.3.1/bits/stl_algobase.h ****       template<typename _Tp>
 678:/Library/DaisyToolchain/0.2.0/arm/arm-none-eabi/include/c++/10.3.1/bits/stl_algobase.h **** 	_GLIBCXX20_CONSTEXPR
 679:/Library/DaisyToolchain/0.2.0/arm/arm-none-eabi/include/c++/10.3.1/bits/stl_algobase.h **** 	static _Tp*
 680:/Library/DaisyToolchain/0.2.0/arm/arm-none-eabi/include/c++/10.3.1/bits/stl_algobase.h **** 	__copy_move_b(const _Tp* __first, const _Tp* __last, _Tp* __result)
 681:/Library/DaisyToolchain/0.2.0/arm/arm-none-eabi/include/c++/10.3.1/bits/stl_algobase.h **** 	{
 682:/Library/DaisyToolchain/0.2.0/arm/arm-none-eabi/include/c++/10.3.1/bits/stl_algobase.h **** #if __cplusplus >= 201103L
 683:/Library/DaisyToolchain/0.2.0/arm/arm-none-eabi/include/c++/10.3.1/bits/stl_algobase.h **** 	  using __assignable = conditional<_IsMove,
 684:/Library/DaisyToolchain/0.2.0/arm/arm-none-eabi/include/c++/10.3.1/bits/stl_algobase.h **** 					   is_move_assignable<_Tp>,
 685:/Library/DaisyToolchain/0.2.0/arm/arm-none-eabi/include/c++/10.3.1/bits/stl_algobase.h **** 					   is_copy_assignable<_Tp>>;
 686:/Library/DaisyToolchain/0.2.0/arm/arm-none-eabi/include/c++/10.3.1/bits/stl_algobase.h **** 	  // trivial types can have deleted assignment
 687:/Library/DaisyToolchain/0.2.0/arm/arm-none-eabi/include/c++/10.3.1/bits/stl_algobase.h **** 	  static_assert( __assignable::type::value, "type is not assignable" );
 688:/Library/DaisyToolchain/0.2.0/arm/arm-none-eabi/include/c++/10.3.1/bits/stl_algobase.h **** #endif
 689:/Library/DaisyToolchain/0.2.0/arm/arm-none-eabi/include/c++/10.3.1/bits/stl_algobase.h **** 	  const ptrdiff_t _Num = __last - __first;
 690:/Library/DaisyToolchain/0.2.0/arm/arm-none-eabi/include/c++/10.3.1/bits/stl_algobase.h **** 	  if (_Num)
 691:/Library/DaisyToolchain/0.2.0/arm/arm-none-eabi/include/c++/10.3.1/bits/stl_algobase.h **** 	    __builtin_memmove(__result - _Num, __first, sizeof(_Tp) * _Num);
 692:/Library/DaisyToolchain/0.2.0/arm/arm-none-eabi/include/c++/10.3.1/bits/stl_algobase.h **** 	  return __result - _Num;
 693:/Library/DaisyToolchain/0.2.0/arm/arm-none-eabi/include/c++/10.3.1/bits/stl_algobase.h **** 	}
 694:/Library/DaisyToolchain/0.2.0/arm/arm-none-eabi/include/c++/10.3.1/bits/stl_algobase.h ****     };
 695:/Library/DaisyToolchain/0.2.0/arm/arm-none-eabi/include/c++/10.3.1/bits/stl_algobase.h **** 
 696:/Library/DaisyToolchain/0.2.0/arm/arm-none-eabi/include/c++/10.3.1/bits/stl_algobase.h ****   template<bool _IsMove, typename _BI1, typename _BI2>
 697:/Library/DaisyToolchain/0.2.0/arm/arm-none-eabi/include/c++/10.3.1/bits/stl_algobase.h ****     _GLIBCXX20_CONSTEXPR
 698:/Library/DaisyToolchain/0.2.0/arm/arm-none-eabi/include/c++/10.3.1/bits/stl_algobase.h ****     inline _BI2
 699:/Library/DaisyToolchain/0.2.0/arm/arm-none-eabi/include/c++/10.3.1/bits/stl_algobase.h ****     __copy_move_backward_a2(_BI1 __first, _BI1 __last, _BI2 __result)
 700:/Library/DaisyToolchain/0.2.0/arm/arm-none-eabi/include/c++/10.3.1/bits/stl_algobase.h ****     {
 701:/Library/DaisyToolchain/0.2.0/arm/arm-none-eabi/include/c++/10.3.1/bits/stl_algobase.h ****       typedef typename iterator_traits<_BI1>::iterator_category _Category;
 702:/Library/DaisyToolchain/0.2.0/arm/arm-none-eabi/include/c++/10.3.1/bits/stl_algobase.h **** #ifdef __cpp_lib_is_constant_evaluated
 703:/Library/DaisyToolchain/0.2.0/arm/arm-none-eabi/include/c++/10.3.1/bits/stl_algobase.h ****       if (std::is_constant_evaluated())
 704:/Library/DaisyToolchain/0.2.0/arm/arm-none-eabi/include/c++/10.3.1/bits/stl_algobase.h **** 	return std::__copy_move_backward<_IsMove, false, _Category>::
 705:/Library/DaisyToolchain/0.2.0/arm/arm-none-eabi/include/c++/10.3.1/bits/stl_algobase.h **** 	  __copy_move_b(__first, __last, __result);
 706:/Library/DaisyToolchain/0.2.0/arm/arm-none-eabi/include/c++/10.3.1/bits/stl_algobase.h **** #endif
 707:/Library/DaisyToolchain/0.2.0/arm/arm-none-eabi/include/c++/10.3.1/bits/stl_algobase.h ****       return std::__copy_move_backward<_IsMove,
 708:/Library/DaisyToolchain/0.2.0/arm/arm-none-eabi/include/c++/10.3.1/bits/stl_algobase.h **** 				       __memcpyable<_BI2, _BI1>::__value,
 709:/Library/DaisyToolchain/0.2.0/arm/arm-none-eabi/include/c++/10.3.1/bits/stl_algobase.h **** 				       _Category>::__copy_move_b(__first,
 710:/Library/DaisyToolchain/0.2.0/arm/arm-none-eabi/include/c++/10.3.1/bits/stl_algobase.h **** 								 __last,
 711:/Library/DaisyToolchain/0.2.0/arm/arm-none-eabi/include/c++/10.3.1/bits/stl_algobase.h **** 								 __result);
 712:/Library/DaisyToolchain/0.2.0/arm/arm-none-eabi/include/c++/10.3.1/bits/stl_algobase.h ****     }
 713:/Library/DaisyToolchain/0.2.0/arm/arm-none-eabi/include/c++/10.3.1/bits/stl_algobase.h **** 
 714:/Library/DaisyToolchain/0.2.0/arm/arm-none-eabi/include/c++/10.3.1/bits/stl_algobase.h ****   template<bool _IsMove, typename _BI1, typename _BI2>
 715:/Library/DaisyToolchain/0.2.0/arm/arm-none-eabi/include/c++/10.3.1/bits/stl_algobase.h ****     _GLIBCXX20_CONSTEXPR
 716:/Library/DaisyToolchain/0.2.0/arm/arm-none-eabi/include/c++/10.3.1/bits/stl_algobase.h ****     inline _BI2
 717:/Library/DaisyToolchain/0.2.0/arm/arm-none-eabi/include/c++/10.3.1/bits/stl_algobase.h ****     __copy_move_backward_a1(_BI1 __first, _BI1 __last, _BI2 __result)
 718:/Library/DaisyToolchain/0.2.0/arm/arm-none-eabi/include/c++/10.3.1/bits/stl_algobase.h ****     { return std::__copy_move_backward_a2<_IsMove>(__first, __last, __result); }
ARM GAS  /var/folders/9s/8rp0_f2s1n31qbztm3b5_fdh0000gn/T//ccR6g0UC.s 			page 23


 719:/Library/DaisyToolchain/0.2.0/arm/arm-none-eabi/include/c++/10.3.1/bits/stl_algobase.h **** 
 720:/Library/DaisyToolchain/0.2.0/arm/arm-none-eabi/include/c++/10.3.1/bits/stl_algobase.h ****   template<bool _IsMove,
 721:/Library/DaisyToolchain/0.2.0/arm/arm-none-eabi/include/c++/10.3.1/bits/stl_algobase.h **** 	   typename _Tp, typename _Ref, typename _Ptr, typename _OI>
 722:/Library/DaisyToolchain/0.2.0/arm/arm-none-eabi/include/c++/10.3.1/bits/stl_algobase.h ****     _OI
 723:/Library/DaisyToolchain/0.2.0/arm/arm-none-eabi/include/c++/10.3.1/bits/stl_algobase.h ****     __copy_move_backward_a1(_GLIBCXX_STD_C::_Deque_iterator<_Tp, _Ref, _Ptr>,
 724:/Library/DaisyToolchain/0.2.0/arm/arm-none-eabi/include/c++/10.3.1/bits/stl_algobase.h **** 			    _GLIBCXX_STD_C::_Deque_iterator<_Tp, _Ref, _Ptr>,
 725:/Library/DaisyToolchain/0.2.0/arm/arm-none-eabi/include/c++/10.3.1/bits/stl_algobase.h **** 			    _OI);
 726:/Library/DaisyToolchain/0.2.0/arm/arm-none-eabi/include/c++/10.3.1/bits/stl_algobase.h **** 
 727:/Library/DaisyToolchain/0.2.0/arm/arm-none-eabi/include/c++/10.3.1/bits/stl_algobase.h ****   template<bool _IsMove,
 728:/Library/DaisyToolchain/0.2.0/arm/arm-none-eabi/include/c++/10.3.1/bits/stl_algobase.h **** 	   typename _ITp, typename _IRef, typename _IPtr, typename _OTp>
 729:/Library/DaisyToolchain/0.2.0/arm/arm-none-eabi/include/c++/10.3.1/bits/stl_algobase.h ****     _GLIBCXX_STD_C::_Deque_iterator<_OTp, _OTp&, _OTp*>
 730:/Library/DaisyToolchain/0.2.0/arm/arm-none-eabi/include/c++/10.3.1/bits/stl_algobase.h ****     __copy_move_backward_a1(
 731:/Library/DaisyToolchain/0.2.0/arm/arm-none-eabi/include/c++/10.3.1/bits/stl_algobase.h **** 			_GLIBCXX_STD_C::_Deque_iterator<_ITp, _IRef, _IPtr>,
 732:/Library/DaisyToolchain/0.2.0/arm/arm-none-eabi/include/c++/10.3.1/bits/stl_algobase.h **** 			_GLIBCXX_STD_C::_Deque_iterator<_ITp, _IRef, _IPtr>,
 733:/Library/DaisyToolchain/0.2.0/arm/arm-none-eabi/include/c++/10.3.1/bits/stl_algobase.h **** 			_GLIBCXX_STD_C::_Deque_iterator<_OTp, _OTp&, _OTp*>);
 734:/Library/DaisyToolchain/0.2.0/arm/arm-none-eabi/include/c++/10.3.1/bits/stl_algobase.h **** 
 735:/Library/DaisyToolchain/0.2.0/arm/arm-none-eabi/include/c++/10.3.1/bits/stl_algobase.h ****   template<bool _IsMove, typename _II, typename _Tp>
 736:/Library/DaisyToolchain/0.2.0/arm/arm-none-eabi/include/c++/10.3.1/bits/stl_algobase.h ****     typename __gnu_cxx::__enable_if<
 737:/Library/DaisyToolchain/0.2.0/arm/arm-none-eabi/include/c++/10.3.1/bits/stl_algobase.h ****       __is_random_access_iter<_II>::__value,
 738:/Library/DaisyToolchain/0.2.0/arm/arm-none-eabi/include/c++/10.3.1/bits/stl_algobase.h ****       _GLIBCXX_STD_C::_Deque_iterator<_Tp, _Tp&, _Tp*> >::__type
 739:/Library/DaisyToolchain/0.2.0/arm/arm-none-eabi/include/c++/10.3.1/bits/stl_algobase.h ****     __copy_move_backward_a1(_II, _II,
 740:/Library/DaisyToolchain/0.2.0/arm/arm-none-eabi/include/c++/10.3.1/bits/stl_algobase.h **** 			    _GLIBCXX_STD_C::_Deque_iterator<_Tp, _Tp&, _Tp*>);
 741:/Library/DaisyToolchain/0.2.0/arm/arm-none-eabi/include/c++/10.3.1/bits/stl_algobase.h **** 
 742:/Library/DaisyToolchain/0.2.0/arm/arm-none-eabi/include/c++/10.3.1/bits/stl_algobase.h ****   template<bool _IsMove, typename _II, typename _OI>
 743:/Library/DaisyToolchain/0.2.0/arm/arm-none-eabi/include/c++/10.3.1/bits/stl_algobase.h ****     _GLIBCXX20_CONSTEXPR
 744:/Library/DaisyToolchain/0.2.0/arm/arm-none-eabi/include/c++/10.3.1/bits/stl_algobase.h ****     inline _OI
 745:/Library/DaisyToolchain/0.2.0/arm/arm-none-eabi/include/c++/10.3.1/bits/stl_algobase.h ****     __copy_move_backward_a(_II __first, _II __last, _OI __result)
 746:/Library/DaisyToolchain/0.2.0/arm/arm-none-eabi/include/c++/10.3.1/bits/stl_algobase.h ****     {
 747:/Library/DaisyToolchain/0.2.0/arm/arm-none-eabi/include/c++/10.3.1/bits/stl_algobase.h ****       return std::__niter_wrap(__result,
 748:/Library/DaisyToolchain/0.2.0/arm/arm-none-eabi/include/c++/10.3.1/bits/stl_algobase.h **** 		std::__copy_move_backward_a1<_IsMove>
 749:/Library/DaisyToolchain/0.2.0/arm/arm-none-eabi/include/c++/10.3.1/bits/stl_algobase.h **** 		  (std::__niter_base(__first), std::__niter_base(__last),
 750:/Library/DaisyToolchain/0.2.0/arm/arm-none-eabi/include/c++/10.3.1/bits/stl_algobase.h **** 		   std::__niter_base(__result)));
 751:/Library/DaisyToolchain/0.2.0/arm/arm-none-eabi/include/c++/10.3.1/bits/stl_algobase.h ****     }
 752:/Library/DaisyToolchain/0.2.0/arm/arm-none-eabi/include/c++/10.3.1/bits/stl_algobase.h **** 
 753:/Library/DaisyToolchain/0.2.0/arm/arm-none-eabi/include/c++/10.3.1/bits/stl_algobase.h ****   template<bool _IsMove,
 754:/Library/DaisyToolchain/0.2.0/arm/arm-none-eabi/include/c++/10.3.1/bits/stl_algobase.h **** 	   typename _Ite, typename _Seq, typename _Cat, typename _OI>
 755:/Library/DaisyToolchain/0.2.0/arm/arm-none-eabi/include/c++/10.3.1/bits/stl_algobase.h ****     _OI
 756:/Library/DaisyToolchain/0.2.0/arm/arm-none-eabi/include/c++/10.3.1/bits/stl_algobase.h ****     __copy_move_backward_a(
 757:/Library/DaisyToolchain/0.2.0/arm/arm-none-eabi/include/c++/10.3.1/bits/stl_algobase.h **** 		const ::__gnu_debug::_Safe_iterator<_Ite, _Seq, _Cat>&,
 758:/Library/DaisyToolchain/0.2.0/arm/arm-none-eabi/include/c++/10.3.1/bits/stl_algobase.h **** 		const ::__gnu_debug::_Safe_iterator<_Ite, _Seq, _Cat>&,
 759:/Library/DaisyToolchain/0.2.0/arm/arm-none-eabi/include/c++/10.3.1/bits/stl_algobase.h **** 		_OI);
 760:/Library/DaisyToolchain/0.2.0/arm/arm-none-eabi/include/c++/10.3.1/bits/stl_algobase.h **** 
 761:/Library/DaisyToolchain/0.2.0/arm/arm-none-eabi/include/c++/10.3.1/bits/stl_algobase.h ****   template<bool _IsMove,
 762:/Library/DaisyToolchain/0.2.0/arm/arm-none-eabi/include/c++/10.3.1/bits/stl_algobase.h **** 	   typename _II, typename _Ite, typename _Seq, typename _Cat>
 763:/Library/DaisyToolchain/0.2.0/arm/arm-none-eabi/include/c++/10.3.1/bits/stl_algobase.h ****     __gnu_debug::_Safe_iterator<_Ite, _Seq, _Cat>
 764:/Library/DaisyToolchain/0.2.0/arm/arm-none-eabi/include/c++/10.3.1/bits/stl_algobase.h ****     __copy_move_backward_a(_II, _II,
 765:/Library/DaisyToolchain/0.2.0/arm/arm-none-eabi/include/c++/10.3.1/bits/stl_algobase.h **** 		const ::__gnu_debug::_Safe_iterator<_Ite, _Seq, _Cat>&);
 766:/Library/DaisyToolchain/0.2.0/arm/arm-none-eabi/include/c++/10.3.1/bits/stl_algobase.h **** 
 767:/Library/DaisyToolchain/0.2.0/arm/arm-none-eabi/include/c++/10.3.1/bits/stl_algobase.h ****   template<bool _IsMove,
 768:/Library/DaisyToolchain/0.2.0/arm/arm-none-eabi/include/c++/10.3.1/bits/stl_algobase.h **** 	   typename _IIte, typename _ISeq, typename _ICat,
 769:/Library/DaisyToolchain/0.2.0/arm/arm-none-eabi/include/c++/10.3.1/bits/stl_algobase.h **** 	   typename _OIte, typename _OSeq, typename _OCat>
 770:/Library/DaisyToolchain/0.2.0/arm/arm-none-eabi/include/c++/10.3.1/bits/stl_algobase.h ****     ::__gnu_debug::_Safe_iterator<_OIte, _OSeq, _OCat>
 771:/Library/DaisyToolchain/0.2.0/arm/arm-none-eabi/include/c++/10.3.1/bits/stl_algobase.h ****     __copy_move_backward_a(
 772:/Library/DaisyToolchain/0.2.0/arm/arm-none-eabi/include/c++/10.3.1/bits/stl_algobase.h **** 		const ::__gnu_debug::_Safe_iterator<_IIte, _ISeq, _ICat>&,
 773:/Library/DaisyToolchain/0.2.0/arm/arm-none-eabi/include/c++/10.3.1/bits/stl_algobase.h **** 		const ::__gnu_debug::_Safe_iterator<_IIte, _ISeq, _ICat>&,
 774:/Library/DaisyToolchain/0.2.0/arm/arm-none-eabi/include/c++/10.3.1/bits/stl_algobase.h **** 		const ::__gnu_debug::_Safe_iterator<_OIte, _OSeq, _OCat>&);
 775:/Library/DaisyToolchain/0.2.0/arm/arm-none-eabi/include/c++/10.3.1/bits/stl_algobase.h **** 
ARM GAS  /var/folders/9s/8rp0_f2s1n31qbztm3b5_fdh0000gn/T//ccR6g0UC.s 			page 24


 776:/Library/DaisyToolchain/0.2.0/arm/arm-none-eabi/include/c++/10.3.1/bits/stl_algobase.h ****   /**
 777:/Library/DaisyToolchain/0.2.0/arm/arm-none-eabi/include/c++/10.3.1/bits/stl_algobase.h ****    *  @brief Copies the range [first,last) into result.
 778:/Library/DaisyToolchain/0.2.0/arm/arm-none-eabi/include/c++/10.3.1/bits/stl_algobase.h ****    *  @ingroup mutating_algorithms
 779:/Library/DaisyToolchain/0.2.0/arm/arm-none-eabi/include/c++/10.3.1/bits/stl_algobase.h ****    *  @param  __first  A bidirectional iterator.
 780:/Library/DaisyToolchain/0.2.0/arm/arm-none-eabi/include/c++/10.3.1/bits/stl_algobase.h ****    *  @param  __last   A bidirectional iterator.
 781:/Library/DaisyToolchain/0.2.0/arm/arm-none-eabi/include/c++/10.3.1/bits/stl_algobase.h ****    *  @param  __result A bidirectional iterator.
 782:/Library/DaisyToolchain/0.2.0/arm/arm-none-eabi/include/c++/10.3.1/bits/stl_algobase.h ****    *  @return   result - (last - first)
 783:/Library/DaisyToolchain/0.2.0/arm/arm-none-eabi/include/c++/10.3.1/bits/stl_algobase.h ****    *
 784:/Library/DaisyToolchain/0.2.0/arm/arm-none-eabi/include/c++/10.3.1/bits/stl_algobase.h ****    *  The function has the same effect as copy, but starts at the end of the
 785:/Library/DaisyToolchain/0.2.0/arm/arm-none-eabi/include/c++/10.3.1/bits/stl_algobase.h ****    *  range and works its way to the start, returning the start of the result.
 786:/Library/DaisyToolchain/0.2.0/arm/arm-none-eabi/include/c++/10.3.1/bits/stl_algobase.h ****    *  This inline function will boil down to a call to @c memmove whenever
 787:/Library/DaisyToolchain/0.2.0/arm/arm-none-eabi/include/c++/10.3.1/bits/stl_algobase.h ****    *  possible.  Failing that, if random access iterators are passed, then the
 788:/Library/DaisyToolchain/0.2.0/arm/arm-none-eabi/include/c++/10.3.1/bits/stl_algobase.h ****    *  loop count will be known (and therefore a candidate for compiler
 789:/Library/DaisyToolchain/0.2.0/arm/arm-none-eabi/include/c++/10.3.1/bits/stl_algobase.h ****    *  optimizations such as unrolling).
 790:/Library/DaisyToolchain/0.2.0/arm/arm-none-eabi/include/c++/10.3.1/bits/stl_algobase.h ****    *
 791:/Library/DaisyToolchain/0.2.0/arm/arm-none-eabi/include/c++/10.3.1/bits/stl_algobase.h ****    *  Result may not be in the range (first,last].  Use copy instead.  Note
 792:/Library/DaisyToolchain/0.2.0/arm/arm-none-eabi/include/c++/10.3.1/bits/stl_algobase.h ****    *  that the start of the output range may overlap [first,last).
 793:/Library/DaisyToolchain/0.2.0/arm/arm-none-eabi/include/c++/10.3.1/bits/stl_algobase.h ****   */
 794:/Library/DaisyToolchain/0.2.0/arm/arm-none-eabi/include/c++/10.3.1/bits/stl_algobase.h ****   template<typename _BI1, typename _BI2>
 795:/Library/DaisyToolchain/0.2.0/arm/arm-none-eabi/include/c++/10.3.1/bits/stl_algobase.h ****     _GLIBCXX20_CONSTEXPR
 796:/Library/DaisyToolchain/0.2.0/arm/arm-none-eabi/include/c++/10.3.1/bits/stl_algobase.h ****     inline _BI2
 797:/Library/DaisyToolchain/0.2.0/arm/arm-none-eabi/include/c++/10.3.1/bits/stl_algobase.h ****     copy_backward(_BI1 __first, _BI1 __last, _BI2 __result)
 798:/Library/DaisyToolchain/0.2.0/arm/arm-none-eabi/include/c++/10.3.1/bits/stl_algobase.h ****     {
 799:/Library/DaisyToolchain/0.2.0/arm/arm-none-eabi/include/c++/10.3.1/bits/stl_algobase.h ****       // concept requirements
 800:/Library/DaisyToolchain/0.2.0/arm/arm-none-eabi/include/c++/10.3.1/bits/stl_algobase.h ****       __glibcxx_function_requires(_BidirectionalIteratorConcept<_BI1>)
 801:/Library/DaisyToolchain/0.2.0/arm/arm-none-eabi/include/c++/10.3.1/bits/stl_algobase.h ****       __glibcxx_function_requires(_Mutable_BidirectionalIteratorConcept<_BI2>)
 802:/Library/DaisyToolchain/0.2.0/arm/arm-none-eabi/include/c++/10.3.1/bits/stl_algobase.h ****       __glibcxx_function_requires(_ConvertibleConcept<
 803:/Library/DaisyToolchain/0.2.0/arm/arm-none-eabi/include/c++/10.3.1/bits/stl_algobase.h **** 	    typename iterator_traits<_BI1>::value_type,
 804:/Library/DaisyToolchain/0.2.0/arm/arm-none-eabi/include/c++/10.3.1/bits/stl_algobase.h **** 	    typename iterator_traits<_BI2>::value_type>)
 805:/Library/DaisyToolchain/0.2.0/arm/arm-none-eabi/include/c++/10.3.1/bits/stl_algobase.h ****       __glibcxx_requires_can_decrement_range(__first, __last, __result);
 806:/Library/DaisyToolchain/0.2.0/arm/arm-none-eabi/include/c++/10.3.1/bits/stl_algobase.h **** 
 807:/Library/DaisyToolchain/0.2.0/arm/arm-none-eabi/include/c++/10.3.1/bits/stl_algobase.h ****       return std::__copy_move_backward_a<__is_move_iterator<_BI1>::__value>
 808:/Library/DaisyToolchain/0.2.0/arm/arm-none-eabi/include/c++/10.3.1/bits/stl_algobase.h **** 	     (std::__miter_base(__first), std::__miter_base(__last), __result);
 809:/Library/DaisyToolchain/0.2.0/arm/arm-none-eabi/include/c++/10.3.1/bits/stl_algobase.h ****     }
 810:/Library/DaisyToolchain/0.2.0/arm/arm-none-eabi/include/c++/10.3.1/bits/stl_algobase.h **** 
 811:/Library/DaisyToolchain/0.2.0/arm/arm-none-eabi/include/c++/10.3.1/bits/stl_algobase.h **** #if __cplusplus >= 201103L
 812:/Library/DaisyToolchain/0.2.0/arm/arm-none-eabi/include/c++/10.3.1/bits/stl_algobase.h ****   /**
 813:/Library/DaisyToolchain/0.2.0/arm/arm-none-eabi/include/c++/10.3.1/bits/stl_algobase.h ****    *  @brief Moves the range [first,last) into result.
 814:/Library/DaisyToolchain/0.2.0/arm/arm-none-eabi/include/c++/10.3.1/bits/stl_algobase.h ****    *  @ingroup mutating_algorithms
 815:/Library/DaisyToolchain/0.2.0/arm/arm-none-eabi/include/c++/10.3.1/bits/stl_algobase.h ****    *  @param  __first  A bidirectional iterator.
 816:/Library/DaisyToolchain/0.2.0/arm/arm-none-eabi/include/c++/10.3.1/bits/stl_algobase.h ****    *  @param  __last   A bidirectional iterator.
 817:/Library/DaisyToolchain/0.2.0/arm/arm-none-eabi/include/c++/10.3.1/bits/stl_algobase.h ****    *  @param  __result A bidirectional iterator.
 818:/Library/DaisyToolchain/0.2.0/arm/arm-none-eabi/include/c++/10.3.1/bits/stl_algobase.h ****    *  @return   result - (last - first)
 819:/Library/DaisyToolchain/0.2.0/arm/arm-none-eabi/include/c++/10.3.1/bits/stl_algobase.h ****    *
 820:/Library/DaisyToolchain/0.2.0/arm/arm-none-eabi/include/c++/10.3.1/bits/stl_algobase.h ****    *  The function has the same effect as move, but starts at the end of the
 821:/Library/DaisyToolchain/0.2.0/arm/arm-none-eabi/include/c++/10.3.1/bits/stl_algobase.h ****    *  range and works its way to the start, returning the start of the result.
 822:/Library/DaisyToolchain/0.2.0/arm/arm-none-eabi/include/c++/10.3.1/bits/stl_algobase.h ****    *  This inline function will boil down to a call to @c memmove whenever
 823:/Library/DaisyToolchain/0.2.0/arm/arm-none-eabi/include/c++/10.3.1/bits/stl_algobase.h ****    *  possible.  Failing that, if random access iterators are passed, then the
 824:/Library/DaisyToolchain/0.2.0/arm/arm-none-eabi/include/c++/10.3.1/bits/stl_algobase.h ****    *  loop count will be known (and therefore a candidate for compiler
 825:/Library/DaisyToolchain/0.2.0/arm/arm-none-eabi/include/c++/10.3.1/bits/stl_algobase.h ****    *  optimizations such as unrolling).
 826:/Library/DaisyToolchain/0.2.0/arm/arm-none-eabi/include/c++/10.3.1/bits/stl_algobase.h ****    *
 827:/Library/DaisyToolchain/0.2.0/arm/arm-none-eabi/include/c++/10.3.1/bits/stl_algobase.h ****    *  Result may not be in the range (first,last].  Use move instead.  Note
 828:/Library/DaisyToolchain/0.2.0/arm/arm-none-eabi/include/c++/10.3.1/bits/stl_algobase.h ****    *  that the start of the output range may overlap [first,last).
 829:/Library/DaisyToolchain/0.2.0/arm/arm-none-eabi/include/c++/10.3.1/bits/stl_algobase.h ****   */
 830:/Library/DaisyToolchain/0.2.0/arm/arm-none-eabi/include/c++/10.3.1/bits/stl_algobase.h ****   template<typename _BI1, typename _BI2>
 831:/Library/DaisyToolchain/0.2.0/arm/arm-none-eabi/include/c++/10.3.1/bits/stl_algobase.h ****     _GLIBCXX20_CONSTEXPR
 832:/Library/DaisyToolchain/0.2.0/arm/arm-none-eabi/include/c++/10.3.1/bits/stl_algobase.h ****     inline _BI2
ARM GAS  /var/folders/9s/8rp0_f2s1n31qbztm3b5_fdh0000gn/T//ccR6g0UC.s 			page 25


 833:/Library/DaisyToolchain/0.2.0/arm/arm-none-eabi/include/c++/10.3.1/bits/stl_algobase.h ****     move_backward(_BI1 __first, _BI1 __last, _BI2 __result)
 834:/Library/DaisyToolchain/0.2.0/arm/arm-none-eabi/include/c++/10.3.1/bits/stl_algobase.h ****     {
 835:/Library/DaisyToolchain/0.2.0/arm/arm-none-eabi/include/c++/10.3.1/bits/stl_algobase.h ****       // concept requirements
 836:/Library/DaisyToolchain/0.2.0/arm/arm-none-eabi/include/c++/10.3.1/bits/stl_algobase.h ****       __glibcxx_function_requires(_BidirectionalIteratorConcept<_BI1>)
 837:/Library/DaisyToolchain/0.2.0/arm/arm-none-eabi/include/c++/10.3.1/bits/stl_algobase.h ****       __glibcxx_function_requires(_Mutable_BidirectionalIteratorConcept<_BI2>)
 838:/Library/DaisyToolchain/0.2.0/arm/arm-none-eabi/include/c++/10.3.1/bits/stl_algobase.h ****       __glibcxx_function_requires(_ConvertibleConcept<
 839:/Library/DaisyToolchain/0.2.0/arm/arm-none-eabi/include/c++/10.3.1/bits/stl_algobase.h **** 	    typename iterator_traits<_BI1>::value_type,
 840:/Library/DaisyToolchain/0.2.0/arm/arm-none-eabi/include/c++/10.3.1/bits/stl_algobase.h **** 	    typename iterator_traits<_BI2>::value_type>)
 841:/Library/DaisyToolchain/0.2.0/arm/arm-none-eabi/include/c++/10.3.1/bits/stl_algobase.h ****       __glibcxx_requires_can_decrement_range(__first, __last, __result);
 842:/Library/DaisyToolchain/0.2.0/arm/arm-none-eabi/include/c++/10.3.1/bits/stl_algobase.h **** 
 843:/Library/DaisyToolchain/0.2.0/arm/arm-none-eabi/include/c++/10.3.1/bits/stl_algobase.h ****       return std::__copy_move_backward_a<true>(std::__miter_base(__first),
 844:/Library/DaisyToolchain/0.2.0/arm/arm-none-eabi/include/c++/10.3.1/bits/stl_algobase.h **** 					       std::__miter_base(__last),
 845:/Library/DaisyToolchain/0.2.0/arm/arm-none-eabi/include/c++/10.3.1/bits/stl_algobase.h **** 					       __result);
 846:/Library/DaisyToolchain/0.2.0/arm/arm-none-eabi/include/c++/10.3.1/bits/stl_algobase.h ****     }
 847:/Library/DaisyToolchain/0.2.0/arm/arm-none-eabi/include/c++/10.3.1/bits/stl_algobase.h **** 
 848:/Library/DaisyToolchain/0.2.0/arm/arm-none-eabi/include/c++/10.3.1/bits/stl_algobase.h **** #define _GLIBCXX_MOVE_BACKWARD3(_Tp, _Up, _Vp) std::move_backward(_Tp, _Up, _Vp)
 849:/Library/DaisyToolchain/0.2.0/arm/arm-none-eabi/include/c++/10.3.1/bits/stl_algobase.h **** #else
 850:/Library/DaisyToolchain/0.2.0/arm/arm-none-eabi/include/c++/10.3.1/bits/stl_algobase.h **** #define _GLIBCXX_MOVE_BACKWARD3(_Tp, _Up, _Vp) std::copy_backward(_Tp, _Up, _Vp)
 851:/Library/DaisyToolchain/0.2.0/arm/arm-none-eabi/include/c++/10.3.1/bits/stl_algobase.h **** #endif
 852:/Library/DaisyToolchain/0.2.0/arm/arm-none-eabi/include/c++/10.3.1/bits/stl_algobase.h **** 
 853:/Library/DaisyToolchain/0.2.0/arm/arm-none-eabi/include/c++/10.3.1/bits/stl_algobase.h ****   template<typename _ForwardIterator, typename _Tp>
 854:/Library/DaisyToolchain/0.2.0/arm/arm-none-eabi/include/c++/10.3.1/bits/stl_algobase.h ****     _GLIBCXX20_CONSTEXPR
 855:/Library/DaisyToolchain/0.2.0/arm/arm-none-eabi/include/c++/10.3.1/bits/stl_algobase.h ****     inline typename
 856:/Library/DaisyToolchain/0.2.0/arm/arm-none-eabi/include/c++/10.3.1/bits/stl_algobase.h ****     __gnu_cxx::__enable_if<!__is_scalar<_Tp>::__value, void>::__type
 857:/Library/DaisyToolchain/0.2.0/arm/arm-none-eabi/include/c++/10.3.1/bits/stl_algobase.h ****     __fill_a1(_ForwardIterator __first, _ForwardIterator __last,
 858:/Library/DaisyToolchain/0.2.0/arm/arm-none-eabi/include/c++/10.3.1/bits/stl_algobase.h **** 	      const _Tp& __value)
 859:/Library/DaisyToolchain/0.2.0/arm/arm-none-eabi/include/c++/10.3.1/bits/stl_algobase.h ****     {
 860:/Library/DaisyToolchain/0.2.0/arm/arm-none-eabi/include/c++/10.3.1/bits/stl_algobase.h ****       for (; __first != __last; ++__first)
 861:/Library/DaisyToolchain/0.2.0/arm/arm-none-eabi/include/c++/10.3.1/bits/stl_algobase.h **** 	*__first = __value;
 862:/Library/DaisyToolchain/0.2.0/arm/arm-none-eabi/include/c++/10.3.1/bits/stl_algobase.h ****     }
 863:/Library/DaisyToolchain/0.2.0/arm/arm-none-eabi/include/c++/10.3.1/bits/stl_algobase.h **** 
 864:/Library/DaisyToolchain/0.2.0/arm/arm-none-eabi/include/c++/10.3.1/bits/stl_algobase.h ****   template<typename _ForwardIterator, typename _Tp>
 865:/Library/DaisyToolchain/0.2.0/arm/arm-none-eabi/include/c++/10.3.1/bits/stl_algobase.h ****     _GLIBCXX20_CONSTEXPR
 866:/Library/DaisyToolchain/0.2.0/arm/arm-none-eabi/include/c++/10.3.1/bits/stl_algobase.h ****     inline typename
 867:/Library/DaisyToolchain/0.2.0/arm/arm-none-eabi/include/c++/10.3.1/bits/stl_algobase.h ****     __gnu_cxx::__enable_if<__is_scalar<_Tp>::__value, void>::__type
 868:/Library/DaisyToolchain/0.2.0/arm/arm-none-eabi/include/c++/10.3.1/bits/stl_algobase.h ****     __fill_a1(_ForwardIterator __first, _ForwardIterator __last,
 869:/Library/DaisyToolchain/0.2.0/arm/arm-none-eabi/include/c++/10.3.1/bits/stl_algobase.h **** 	      const _Tp& __value)
 870:/Library/DaisyToolchain/0.2.0/arm/arm-none-eabi/include/c++/10.3.1/bits/stl_algobase.h ****     {
 871:/Library/DaisyToolchain/0.2.0/arm/arm-none-eabi/include/c++/10.3.1/bits/stl_algobase.h ****       const _Tp __tmp = __value;
 872:/Library/DaisyToolchain/0.2.0/arm/arm-none-eabi/include/c++/10.3.1/bits/stl_algobase.h ****       for (; __first != __last; ++__first)
 873:/Library/DaisyToolchain/0.2.0/arm/arm-none-eabi/include/c++/10.3.1/bits/stl_algobase.h **** 	*__first = __tmp;
 276              		.loc 5 873 11 view .LVU67
 277 00ec 0021     		movs	r1, #0
 278              	.LBE78:
 279              	.LBE77:
 280              	.LBE76:
 281              	.LBE75:
  72:eurorack/plaits/dsp/engine/string_engine.cc ****   fill(&aux[0], &aux[size], 0.0f);
 282              		.loc 1 72 26 view .LVU68
 283 00ee 9A00     		lsls	r2, r3, #2
 284              	.LBB82:
 285              	.LBB67:
  56:eurorack/plaits/dsp/physical_modelling/delay_line.h ****   }
 286              		.loc 2 56 16 view .LVU69
 287 00f0 C4F83C01 		str	r0, [r4, #316]
 288              	.LVL18:
  56:eurorack/plaits/dsp/physical_modelling/delay_line.h ****   }
ARM GAS  /var/folders/9s/8rp0_f2s1n31qbztm3b5_fdh0000gn/T//ccR6g0UC.s 			page 26


 289              		.loc 2 56 16 view .LVU70
 290              	.LBE67:
 291              	.LBE82:
  72:eurorack/plaits/dsp/engine/string_engine.cc ****   fill(&aux[0], &aux[size], 0.0f);
 292              		.loc 1 72 3 is_stmt 1 view .LVU71
 293              	.LBB83:
 294              	.LBI75:
 874:/Library/DaisyToolchain/0.2.0/arm/arm-none-eabi/include/c++/10.3.1/bits/stl_algobase.h ****     }
 875:/Library/DaisyToolchain/0.2.0/arm/arm-none-eabi/include/c++/10.3.1/bits/stl_algobase.h **** 
 876:/Library/DaisyToolchain/0.2.0/arm/arm-none-eabi/include/c++/10.3.1/bits/stl_algobase.h ****   // Specialization: for char types we can use memset.
 877:/Library/DaisyToolchain/0.2.0/arm/arm-none-eabi/include/c++/10.3.1/bits/stl_algobase.h ****   template<typename _Tp>
 878:/Library/DaisyToolchain/0.2.0/arm/arm-none-eabi/include/c++/10.3.1/bits/stl_algobase.h ****     _GLIBCXX20_CONSTEXPR
 879:/Library/DaisyToolchain/0.2.0/arm/arm-none-eabi/include/c++/10.3.1/bits/stl_algobase.h ****     inline typename
 880:/Library/DaisyToolchain/0.2.0/arm/arm-none-eabi/include/c++/10.3.1/bits/stl_algobase.h ****     __gnu_cxx::__enable_if<__is_byte<_Tp>::__value, void>::__type
 881:/Library/DaisyToolchain/0.2.0/arm/arm-none-eabi/include/c++/10.3.1/bits/stl_algobase.h ****     __fill_a1(_Tp* __first, _Tp* __last, const _Tp& __c)
 882:/Library/DaisyToolchain/0.2.0/arm/arm-none-eabi/include/c++/10.3.1/bits/stl_algobase.h ****     {
 883:/Library/DaisyToolchain/0.2.0/arm/arm-none-eabi/include/c++/10.3.1/bits/stl_algobase.h ****       const _Tp __tmp = __c;
 884:/Library/DaisyToolchain/0.2.0/arm/arm-none-eabi/include/c++/10.3.1/bits/stl_algobase.h **** #if __cpp_lib_is_constant_evaluated
 885:/Library/DaisyToolchain/0.2.0/arm/arm-none-eabi/include/c++/10.3.1/bits/stl_algobase.h ****       if (std::is_constant_evaluated())
 886:/Library/DaisyToolchain/0.2.0/arm/arm-none-eabi/include/c++/10.3.1/bits/stl_algobase.h **** 	{
 887:/Library/DaisyToolchain/0.2.0/arm/arm-none-eabi/include/c++/10.3.1/bits/stl_algobase.h **** 	  for (; __first != __last; ++__first)
 888:/Library/DaisyToolchain/0.2.0/arm/arm-none-eabi/include/c++/10.3.1/bits/stl_algobase.h **** 	    *__first = __tmp;
 889:/Library/DaisyToolchain/0.2.0/arm/arm-none-eabi/include/c++/10.3.1/bits/stl_algobase.h **** 	  return;
 890:/Library/DaisyToolchain/0.2.0/arm/arm-none-eabi/include/c++/10.3.1/bits/stl_algobase.h **** 	}
 891:/Library/DaisyToolchain/0.2.0/arm/arm-none-eabi/include/c++/10.3.1/bits/stl_algobase.h **** #endif
 892:/Library/DaisyToolchain/0.2.0/arm/arm-none-eabi/include/c++/10.3.1/bits/stl_algobase.h ****       if (const size_t __len = __last - __first)
 893:/Library/DaisyToolchain/0.2.0/arm/arm-none-eabi/include/c++/10.3.1/bits/stl_algobase.h **** 	__builtin_memset(__first, static_cast<unsigned char>(__tmp), __len);
 894:/Library/DaisyToolchain/0.2.0/arm/arm-none-eabi/include/c++/10.3.1/bits/stl_algobase.h ****     }
 895:/Library/DaisyToolchain/0.2.0/arm/arm-none-eabi/include/c++/10.3.1/bits/stl_algobase.h **** 
 896:/Library/DaisyToolchain/0.2.0/arm/arm-none-eabi/include/c++/10.3.1/bits/stl_algobase.h ****   template<typename _Ite, typename _Cont, typename _Tp>
 897:/Library/DaisyToolchain/0.2.0/arm/arm-none-eabi/include/c++/10.3.1/bits/stl_algobase.h ****     _GLIBCXX20_CONSTEXPR
 898:/Library/DaisyToolchain/0.2.0/arm/arm-none-eabi/include/c++/10.3.1/bits/stl_algobase.h ****     inline void
 899:/Library/DaisyToolchain/0.2.0/arm/arm-none-eabi/include/c++/10.3.1/bits/stl_algobase.h ****     __fill_a1(::__gnu_cxx::__normal_iterator<_Ite, _Cont> __first,
 900:/Library/DaisyToolchain/0.2.0/arm/arm-none-eabi/include/c++/10.3.1/bits/stl_algobase.h **** 	      ::__gnu_cxx::__normal_iterator<_Ite, _Cont> __last,
 901:/Library/DaisyToolchain/0.2.0/arm/arm-none-eabi/include/c++/10.3.1/bits/stl_algobase.h **** 	      const _Tp& __value)
 902:/Library/DaisyToolchain/0.2.0/arm/arm-none-eabi/include/c++/10.3.1/bits/stl_algobase.h ****     { std::__fill_a1(__first.base(), __last.base(), __value); }
 903:/Library/DaisyToolchain/0.2.0/arm/arm-none-eabi/include/c++/10.3.1/bits/stl_algobase.h **** 
 904:/Library/DaisyToolchain/0.2.0/arm/arm-none-eabi/include/c++/10.3.1/bits/stl_algobase.h ****   template<typename _Tp, typename _VTp>
 905:/Library/DaisyToolchain/0.2.0/arm/arm-none-eabi/include/c++/10.3.1/bits/stl_algobase.h ****     void
 906:/Library/DaisyToolchain/0.2.0/arm/arm-none-eabi/include/c++/10.3.1/bits/stl_algobase.h ****     __fill_a1(const _GLIBCXX_STD_C::_Deque_iterator<_Tp, _Tp&, _Tp*>&,
 907:/Library/DaisyToolchain/0.2.0/arm/arm-none-eabi/include/c++/10.3.1/bits/stl_algobase.h **** 	      const _GLIBCXX_STD_C::_Deque_iterator<_Tp, _Tp&, _Tp*>&,
 908:/Library/DaisyToolchain/0.2.0/arm/arm-none-eabi/include/c++/10.3.1/bits/stl_algobase.h **** 	      const _VTp&);
 909:/Library/DaisyToolchain/0.2.0/arm/arm-none-eabi/include/c++/10.3.1/bits/stl_algobase.h **** 
 910:/Library/DaisyToolchain/0.2.0/arm/arm-none-eabi/include/c++/10.3.1/bits/stl_algobase.h ****   template<typename _FIte, typename _Tp>
 911:/Library/DaisyToolchain/0.2.0/arm/arm-none-eabi/include/c++/10.3.1/bits/stl_algobase.h ****     _GLIBCXX20_CONSTEXPR
 912:/Library/DaisyToolchain/0.2.0/arm/arm-none-eabi/include/c++/10.3.1/bits/stl_algobase.h ****     inline void
 913:/Library/DaisyToolchain/0.2.0/arm/arm-none-eabi/include/c++/10.3.1/bits/stl_algobase.h ****     __fill_a(_FIte __first, _FIte __last, const _Tp& __value)
 914:/Library/DaisyToolchain/0.2.0/arm/arm-none-eabi/include/c++/10.3.1/bits/stl_algobase.h ****     { std::__fill_a1(__first, __last, __value); }
 915:/Library/DaisyToolchain/0.2.0/arm/arm-none-eabi/include/c++/10.3.1/bits/stl_algobase.h **** 
 916:/Library/DaisyToolchain/0.2.0/arm/arm-none-eabi/include/c++/10.3.1/bits/stl_algobase.h ****   template<typename _Ite, typename _Seq, typename _Cat, typename _Tp>
 917:/Library/DaisyToolchain/0.2.0/arm/arm-none-eabi/include/c++/10.3.1/bits/stl_algobase.h ****     void
 918:/Library/DaisyToolchain/0.2.0/arm/arm-none-eabi/include/c++/10.3.1/bits/stl_algobase.h ****     __fill_a(const ::__gnu_debug::_Safe_iterator<_Ite, _Seq, _Cat>&,
 919:/Library/DaisyToolchain/0.2.0/arm/arm-none-eabi/include/c++/10.3.1/bits/stl_algobase.h **** 	     const ::__gnu_debug::_Safe_iterator<_Ite, _Seq, _Cat>&,
 920:/Library/DaisyToolchain/0.2.0/arm/arm-none-eabi/include/c++/10.3.1/bits/stl_algobase.h **** 	     const _Tp&);
 921:/Library/DaisyToolchain/0.2.0/arm/arm-none-eabi/include/c++/10.3.1/bits/stl_algobase.h **** 
 922:/Library/DaisyToolchain/0.2.0/arm/arm-none-eabi/include/c++/10.3.1/bits/stl_algobase.h ****   /**
 923:/Library/DaisyToolchain/0.2.0/arm/arm-none-eabi/include/c++/10.3.1/bits/stl_algobase.h ****    *  @brief Fills the range [first,last) with copies of value.
ARM GAS  /var/folders/9s/8rp0_f2s1n31qbztm3b5_fdh0000gn/T//ccR6g0UC.s 			page 27


 924:/Library/DaisyToolchain/0.2.0/arm/arm-none-eabi/include/c++/10.3.1/bits/stl_algobase.h ****    *  @ingroup mutating_algorithms
 925:/Library/DaisyToolchain/0.2.0/arm/arm-none-eabi/include/c++/10.3.1/bits/stl_algobase.h ****    *  @param  __first  A forward iterator.
 926:/Library/DaisyToolchain/0.2.0/arm/arm-none-eabi/include/c++/10.3.1/bits/stl_algobase.h ****    *  @param  __last   A forward iterator.
 927:/Library/DaisyToolchain/0.2.0/arm/arm-none-eabi/include/c++/10.3.1/bits/stl_algobase.h ****    *  @param  __value  A reference-to-const of arbitrary type.
 928:/Library/DaisyToolchain/0.2.0/arm/arm-none-eabi/include/c++/10.3.1/bits/stl_algobase.h ****    *  @return   Nothing.
 929:/Library/DaisyToolchain/0.2.0/arm/arm-none-eabi/include/c++/10.3.1/bits/stl_algobase.h ****    *
 930:/Library/DaisyToolchain/0.2.0/arm/arm-none-eabi/include/c++/10.3.1/bits/stl_algobase.h ****    *  This function fills a range with copies of the same value.  For char
 931:/Library/DaisyToolchain/0.2.0/arm/arm-none-eabi/include/c++/10.3.1/bits/stl_algobase.h ****    *  types filling contiguous areas of memory, this becomes an inline call
 932:/Library/DaisyToolchain/0.2.0/arm/arm-none-eabi/include/c++/10.3.1/bits/stl_algobase.h ****    *  to @c memset or @c wmemset.
 933:/Library/DaisyToolchain/0.2.0/arm/arm-none-eabi/include/c++/10.3.1/bits/stl_algobase.h ****   */
 934:/Library/DaisyToolchain/0.2.0/arm/arm-none-eabi/include/c++/10.3.1/bits/stl_algobase.h ****   template<typename _ForwardIterator, typename _Tp>
 935:/Library/DaisyToolchain/0.2.0/arm/arm-none-eabi/include/c++/10.3.1/bits/stl_algobase.h ****     _GLIBCXX20_CONSTEXPR
 936:/Library/DaisyToolchain/0.2.0/arm/arm-none-eabi/include/c++/10.3.1/bits/stl_algobase.h ****     inline void
 937:/Library/DaisyToolchain/0.2.0/arm/arm-none-eabi/include/c++/10.3.1/bits/stl_algobase.h ****     fill(_ForwardIterator __first, _ForwardIterator __last, const _Tp& __value)
 295              		.loc 5 937 5 view .LVU72
 296              	.LBB81:
 297              	.LBI76:
 913:/Library/DaisyToolchain/0.2.0/arm/arm-none-eabi/include/c++/10.3.1/bits/stl_algobase.h ****     { std::__fill_a1(__first, __last, __value); }
 298              		.loc 5 913 5 view .LVU73
 299              	.LBB80:
 300              	.LBI77:
 868:/Library/DaisyToolchain/0.2.0/arm/arm-none-eabi/include/c++/10.3.1/bits/stl_algobase.h **** 	      const _Tp& __value)
 301              		.loc 5 868 5 view .LVU74
 302              	.LBB79:
 873:/Library/DaisyToolchain/0.2.0/arm/arm-none-eabi/include/c++/10.3.1/bits/stl_algobase.h ****     }
 303              		.loc 5 873 11 is_stmt 0 view .LVU75
 304 00f4 4046     		mov	r0, r8
 305 00f6 0592     		str	r2, [sp, #20]
 306 00f8 FFF7FEFF 		bl	memset
 307              	.LVL19:
 873:/Library/DaisyToolchain/0.2.0/arm/arm-none-eabi/include/c++/10.3.1/bits/stl_algobase.h ****     }
 308              		.loc 5 873 11 view .LVU76
 309              	.LBE79:
 310              	.LBE80:
 311              	.LBE81:
 312              	.LBE83:
  73:eurorack/plaits/dsp/engine/string_engine.cc ****   
 313              		.loc 1 73 3 is_stmt 1 view .LVU77
 314              	.LBB84:
 315              	.LBI84:
 316              		.loc 5 937 5 view .LVU78
 317              	.LBB85:
 318              	.LBI85:
 913:/Library/DaisyToolchain/0.2.0/arm/arm-none-eabi/include/c++/10.3.1/bits/stl_algobase.h ****     { std::__fill_a1(__first, __last, __value); }
 319              		.loc 5 913 5 view .LVU79
 320              	.LBB86:
 321              	.LBI86:
 868:/Library/DaisyToolchain/0.2.0/arm/arm-none-eabi/include/c++/10.3.1/bits/stl_algobase.h **** 	      const _Tp& __value)
 322              		.loc 5 868 5 view .LVU80
 323              	.LBB87:
 873:/Library/DaisyToolchain/0.2.0/arm/arm-none-eabi/include/c++/10.3.1/bits/stl_algobase.h ****     }
 324              		.loc 5 873 11 is_stmt 0 view .LVU81
 325 00fc 059A     		ldr	r2, [sp, #20]
 326 00fe 0021     		movs	r1, #0
 327 0100 4846     		mov	r0, r9
 328 0102 FFF7FEFF 		bl	memset
 329              	.LVL20:
ARM GAS  /var/folders/9s/8rp0_f2s1n31qbztm3b5_fdh0000gn/T//ccR6g0UC.s 			page 28


 330              	.L7:
 873:/Library/DaisyToolchain/0.2.0/arm/arm-none-eabi/include/c++/10.3.1/bits/stl_algobase.h ****     }
 331              		.loc 5 873 11 view .LVU82
 332              	.LBE87:
 333              	.LBE86:
 334              	.LBE85:
 335              	.LBE84:
 336              	.LBB88:
  76:eurorack/plaits/dsp/engine/string_engine.cc ****     voice_[i].Render(
 337              		.loc 1 76 5 is_stmt 1 view .LVU83
  77:eurorack/plaits/dsp/engine/string_engine.cc ****         parameters.trigger & TRIGGER_UNPATCHED && i == active_string_,
 338              		.loc 1 77 20 is_stmt 0 view .LVU84
 339 0106 3578     		ldrb	r5, [r6]	@ zero_extendqisi2
  76:eurorack/plaits/dsp/engine/string_engine.cc ****     voice_[i].Render(
 340              		.loc 1 76 21 view .LVU85
 341 0108 15F00201 		ands	r1, r5, #2
 342 010c 04D0     		beq	.L5
  76:eurorack/plaits/dsp/engine/string_engine.cc ****     voice_[i].Render(
 343              		.loc 1 76 21 discriminator 1 view .LVU86
 344 010e D4F84411 		ldr	r1, [r4, #324]
 345 0112 CA1B     		subs	r2, r1, r7
 346 0114 5142     		rsbs	r1, r2, #0
 347 0116 5141     		adcs	r1, r1, r2
 348              	.L5:
  76:eurorack/plaits/dsp/engine/string_engine.cc ****     voice_[i].Render(
 349              		.loc 1 76 21 discriminator 6 view .LVU87
 350 0118 15F00102 		ands	r2, r5, #1
 351 011c 04D0     		beq	.L6
  76:eurorack/plaits/dsp/engine/string_engine.cc ****     voice_[i].Render(
 352              		.loc 1 76 21 discriminator 7 view .LVU88
 353 011e D4F84421 		ldr	r2, [r4, #324]
 354 0122 D31B     		subs	r3, r2, r7
 355 0124 5A42     		rsbs	r2, r3, #0
 356 0126 5A41     		adcs	r2, r2, r3
 357              	.L6:
  76:eurorack/plaits/dsp/engine/string_engine.cc ****     voice_[i].Render(
 358              		.loc 1 76 21 discriminator 2 view .LVU89
 359 0128 109B     		ldr	r3, [sp, #64]
  75:eurorack/plaits/dsp/engine/string_engine.cc ****     voice_[i].Render(
 360              		.loc 1 75 3 discriminator 2 view .LVU90
 361 012a 0137     		adds	r7, r7, #1
 362              	.LVL21:
  78:eurorack/plaits/dsp/engine/string_engine.cc ****         parameters.trigger & TRIGGER_RISING_EDGE && i == active_string_,
  79:eurorack/plaits/dsp/engine/string_engine.cc ****         parameters.accent,
  80:eurorack/plaits/dsp/engine/string_engine.cc ****         f0_[i],
  81:eurorack/plaits/dsp/engine/string_engine.cc ****         parameters.harmonics,
  82:eurorack/plaits/dsp/engine/string_engine.cc ****         parameters.timbre * parameters.timbre,
 363              		.loc 1 82 20 discriminator 2 view .LVU91
 364 012c D6ED021A 		vldr.32	s3, [r6, #8]
  76:eurorack/plaits/dsp/engine/string_engine.cc ****         parameters.trigger & TRIGGER_UNPATCHED && i == active_string_,
 365              		.loc 1 76 21 discriminator 2 view .LVU92
 366 0130 5046     		mov	r0, r10
 367 0132 CDF80080 		str	r8, [sp]
  75:eurorack/plaits/dsp/engine/string_engine.cc ****     voice_[i].Render(
 368              		.loc 1 75 21 discriminator 2 view .LVU93
 369 0136 0AF1600A 		add	r10, r10, #96
  76:eurorack/plaits/dsp/engine/string_engine.cc ****         parameters.trigger & TRIGGER_UNPATCHED && i == active_string_,
ARM GAS  /var/folders/9s/8rp0_f2s1n31qbztm3b5_fdh0000gn/T//ccR6g0UC.s 			page 29


 370              		.loc 1 76 21 discriminator 2 view .LVU94
 371 013a 61EEA11A 		vmul.f32	s3, s3, s3
 372 013e 96ED032A 		vldr.32	s4, [r6, #12]
 373 0142 96ED041A 		vldr.32	s2, [r6, #16]
 374 0146 96ED050A 		vldr.32	s0, [r6, #20]
 375 014a CDE90193 		strd	r9, r3, [sp, #4]
 376 014e D4F84831 		ldr	r3, [r4, #328]
 377 0152 FBEC010A 		vldmia.32	fp!, {s1}
 378 0156 FFF7FEFF 		bl	_ZN6plaits11StringVoice6RenderEbbfffffPfS1_S1_j
 379              	.LVL22:
  75:eurorack/plaits/dsp/engine/string_engine.cc ****     voice_[i].Render(
 380              		.loc 1 75 3 is_stmt 1 discriminator 2 view .LVU95
  75:eurorack/plaits/dsp/engine/string_engine.cc ****     voice_[i].Render(
 381              		.loc 1 75 21 discriminator 2 view .LVU96
 382 015a 032F     		cmp	r7, #3
 383 015c D3D1     		bne	.L7
 384              	.LBE88:
  83:eurorack/plaits/dsp/engine/string_engine.cc ****         parameters.morph,
  84:eurorack/plaits/dsp/engine/string_engine.cc ****         temp_buffer_,
  85:eurorack/plaits/dsp/engine/string_engine.cc ****         out,
  86:eurorack/plaits/dsp/engine/string_engine.cc ****         aux,
  87:eurorack/plaits/dsp/engine/string_engine.cc ****         size);
  88:eurorack/plaits/dsp/engine/string_engine.cc ****   }
  89:eurorack/plaits/dsp/engine/string_engine.cc **** }
 385              		.loc 1 89 1 is_stmt 0 view .LVU97
 386 015e 07B0     		add	sp, sp, #28
 387              		.cfi_remember_state
 388              		.cfi_def_cfa_offset 36
 389              		@ sp needed
 390 0160 BDE8F08F 		pop	{r4, r5, r6, r7, r8, r9, r10, fp, pc}
 391              	.LVL23:
 392              	.L8:
 393              		.cfi_restore_state
 394              	.LBB89:
 395              	.LBB63:
  41:eurorack/plaits/dsp/engine/engine.h ****   return a0 * 0.25f * stmlib::SemitonesToRatio(midi_note);
 396              		.loc 3 41 3 view .LVU98
 397 0164 F0EE477A 		vmov.f32	s15, s14
 398              	.LVL24:
  41:eurorack/plaits/dsp/engine/engine.h ****   return a0 * 0.25f * stmlib::SemitonesToRatio(midi_note);
 399              		.loc 3 41 3 view .LVU99
 400 0168 90E7     		b	.L3
 401              	.L17:
 402 016a 00BF     		.align	2
 403              	.L16:
 404 016c 00000000 		.word	0
 405 0170 000000C3 		.word	-1023410176
 406 0174 0000FE42 		.word	1123942400
 407 0178 00000043 		.word	1124073472
 408 017c 00000000 		.word	_ZN6stmlib19lut_pitch_ratio_lowE
 409 0180 00000000 		.word	_ZN6stmlib20lut_pitch_ratio_highE
 410 0184 51969639 		.word	966170193
 411              	.LBE63:
 412              	.LBE89:
 413              		.cfi_endproc
 414              	.LFE1535:
 416              		.section	.text._ZN6plaits9DelayLineIfLj16EE5ResetEv,"axG",%progbits,_ZN6plaits9DelayLineIfLj16EE5R
ARM GAS  /var/folders/9s/8rp0_f2s1n31qbztm3b5_fdh0000gn/T//ccR6g0UC.s 			page 30


 417              		.align	1
 418              		.weak	_ZN6plaits9DelayLineIfLj16EE5ResetEv
 419              		.syntax unified
 420              		.thumb
 421              		.thumb_func
 423              	_ZN6plaits9DelayLineIfLj16EE5ResetEv:
 424              	.LVL25:
 425              	.LFB1559:
  49:eurorack/plaits/dsp/physical_modelling/delay_line.h ****     std::fill(&line_[0], &line_[max_delay], T(0));
 426              		.loc 2 49 8 is_stmt 1 view -0
 427              		.cfi_startproc
 428              		@ args = 0, pretend = 0, frame = 0
 429              		@ frame_needed = 0, uses_anonymous_args = 0
 430              	.LBB95:
 431              	.LBI95:
 432              		.loc 5 937 5 view .LVU101
 433              	.LBB96:
 434              	.LBI96:
 913:/Library/DaisyToolchain/0.2.0/arm/arm-none-eabi/include/c++/10.3.1/bits/stl_algobase.h ****     { std::__fill_a1(__first, __last, __value); }
 435              		.loc 5 913 5 view .LVU102
 436              	.LBB97:
 437              	.LBI97:
 868:/Library/DaisyToolchain/0.2.0/arm/arm-none-eabi/include/c++/10.3.1/bits/stl_algobase.h **** 	      const _Tp& __value)
 438              		.loc 5 868 5 view .LVU103
 868:/Library/DaisyToolchain/0.2.0/arm/arm-none-eabi/include/c++/10.3.1/bits/stl_algobase.h **** 	      const _Tp& __value)
 439              		.loc 5 868 5 is_stmt 0 view .LVU104
 440              	.LBE97:
 441              	.LBE96:
 442              	.LBE95:
  49:eurorack/plaits/dsp/physical_modelling/delay_line.h ****     std::fill(&line_[0], &line_[max_delay], T(0));
 443              		.loc 2 49 8 view .LVU105
 444 0000 10B5     		push	{r4, lr}
 445              		.cfi_def_cfa_offset 8
 446              		.cfi_offset 4, -8
 447              		.cfi_offset 14, -4
 448              	.LBB104:
 449              	.LBB102:
 450              	.LBB100:
 451              	.LBB98:
 873:/Library/DaisyToolchain/0.2.0/arm/arm-none-eabi/include/c++/10.3.1/bits/stl_algobase.h ****     }
 452              		.loc 5 873 11 view .LVU106
 453 0002 4022     		movs	r2, #64
 454              	.LBE98:
 455              	.LBE100:
 456              	.LBE102:
 457              	.LBE104:
  49:eurorack/plaits/dsp/physical_modelling/delay_line.h ****     std::fill(&line_[0], &line_[max_delay], T(0));
 458              		.loc 2 49 8 view .LVU107
 459 0004 0446     		mov	r4, r0
 460              	.LBB105:
 461              	.LBB103:
 462              	.LBB101:
 463              	.LBB99:
 873:/Library/DaisyToolchain/0.2.0/arm/arm-none-eabi/include/c++/10.3.1/bits/stl_algobase.h ****     }
 464              		.loc 5 873 11 view .LVU108
 465 0006 0021     		movs	r1, #0
 466 0008 4068     		ldr	r0, [r0, #4]
ARM GAS  /var/folders/9s/8rp0_f2s1n31qbztm3b5_fdh0000gn/T//ccR6g0UC.s 			page 31


 467              	.LVL26:
 873:/Library/DaisyToolchain/0.2.0/arm/arm-none-eabi/include/c++/10.3.1/bits/stl_algobase.h ****     }
 468              		.loc 5 873 11 view .LVU109
 469 000a FFF7FEFF 		bl	memset
 470              	.LVL27:
 873:/Library/DaisyToolchain/0.2.0/arm/arm-none-eabi/include/c++/10.3.1/bits/stl_algobase.h ****     }
 471              		.loc 5 873 11 view .LVU110
 472              	.LBE99:
 473              	.LBE101:
 474              	.LBE103:
 475              	.LBE105:
  51:eurorack/plaits/dsp/physical_modelling/delay_line.h ****   }
 476              		.loc 2 51 16 view .LVU111
 477 000e 0023     		movs	r3, #0
 478 0010 2360     		str	r3, [r4]
  52:eurorack/plaits/dsp/physical_modelling/delay_line.h ****   
 479              		.loc 2 52 3 view .LVU112
 480 0012 10BD     		pop	{r4, pc}
  52:eurorack/plaits/dsp/physical_modelling/delay_line.h ****   
 481              		.loc 2 52 3 view .LVU113
 482              		.cfi_endproc
 483              	.LFE1559:
 485              		.section	.text._ZN6plaits12StringEngine4InitEPN6stmlib15BufferAllocatorE,"ax",%progbits
 486              		.align	1
 487              		.global	_ZN6plaits12StringEngine4InitEPN6stmlib15BufferAllocatorE
 488              		.syntax unified
 489              		.thumb
 490              		.thumb_func
 492              	_ZN6plaits12StringEngine4InitEPN6stmlib15BufferAllocatorE:
 493              	.LVL28:
 494              	.LFB1533:
  38:eurorack/plaits/dsp/engine/string_engine.cc ****   temp_buffer_ = allocator->Allocate<float>(kMaxBlockSize);
 495              		.loc 1 38 53 is_stmt 1 view -0
 496              		.cfi_startproc
 497              		@ args = 0, pretend = 0, frame = 0
 498              		@ frame_needed = 0, uses_anonymous_args = 0
  39:eurorack/plaits/dsp/engine/string_engine.cc ****   for (int i = 0; i < kNumStrings; ++i) {
 499              		.loc 1 39 3 view .LVU115
 500              	.LBB117:
 501              	.LBI117:
 502              		.file 6 "eurorack/stmlib/utils/buffer_allocator.h"
   1:eurorack/stmlib/utils/buffer_allocator.h **** // Copyright 2014 Emilie Gillet.
   2:eurorack/stmlib/utils/buffer_allocator.h **** //
   3:eurorack/stmlib/utils/buffer_allocator.h **** // Author: Emilie Gillet (emilie.o.gillet@gmail.com)
   4:eurorack/stmlib/utils/buffer_allocator.h **** //
   5:eurorack/stmlib/utils/buffer_allocator.h **** // Permission is hereby granted, free of charge, to any person obtaining a copy
   6:eurorack/stmlib/utils/buffer_allocator.h **** // of this software and associated documentation files (the "Software"), to deal
   7:eurorack/stmlib/utils/buffer_allocator.h **** // in the Software without restriction, including without limitation the rights
   8:eurorack/stmlib/utils/buffer_allocator.h **** // to use, copy, modify, merge, publish, distribute, sublicense, and/or sell
   9:eurorack/stmlib/utils/buffer_allocator.h **** // copies of the Software, and to permit persons to whom the Software is
  10:eurorack/stmlib/utils/buffer_allocator.h **** // furnished to do so, subject to the following conditions:
  11:eurorack/stmlib/utils/buffer_allocator.h **** // 
  12:eurorack/stmlib/utils/buffer_allocator.h **** // The above copyright notice and this permission notice shall be included in
  13:eurorack/stmlib/utils/buffer_allocator.h **** // all copies or substantial portions of the Software.
  14:eurorack/stmlib/utils/buffer_allocator.h **** // 
  15:eurorack/stmlib/utils/buffer_allocator.h **** // THE SOFTWARE IS PROVIDED "AS IS", WITHOUT WARRANTY OF ANY KIND, EXPRESS OR
  16:eurorack/stmlib/utils/buffer_allocator.h **** // IMPLIED, INCLUDING BUT NOT LIMITED TO THE WARRANTIES OF MERCHANTABILITY,
ARM GAS  /var/folders/9s/8rp0_f2s1n31qbztm3b5_fdh0000gn/T//ccR6g0UC.s 			page 32


  17:eurorack/stmlib/utils/buffer_allocator.h **** // FITNESS FOR A PARTICULAR PURPOSE AND NONINFRINGEMENT. IN NO EVENT SHALL THE
  18:eurorack/stmlib/utils/buffer_allocator.h **** // AUTHORS OR COPYRIGHT HOLDERS BE LIABLE FOR ANY CLAIM, DAMAGES OR OTHER
  19:eurorack/stmlib/utils/buffer_allocator.h **** // LIABILITY, WHETHER IN AN ACTION OF CONTRACT, TORT OR OTHERWISE, ARISING FROM,
  20:eurorack/stmlib/utils/buffer_allocator.h **** // OUT OF OR IN CONNECTION WITH THE SOFTWARE OR THE USE OR OTHER DEALINGS IN
  21:eurorack/stmlib/utils/buffer_allocator.h **** // THE SOFTWARE.
  22:eurorack/stmlib/utils/buffer_allocator.h **** // 
  23:eurorack/stmlib/utils/buffer_allocator.h **** // See http://creativecommons.org/licenses/MIT/ for more information.
  24:eurorack/stmlib/utils/buffer_allocator.h **** //
  25:eurorack/stmlib/utils/buffer_allocator.h **** // -----------------------------------------------------------------------------
  26:eurorack/stmlib/utils/buffer_allocator.h **** //
  27:eurorack/stmlib/utils/buffer_allocator.h **** // Stream buffer for serialization.
  28:eurorack/stmlib/utils/buffer_allocator.h **** 
  29:eurorack/stmlib/utils/buffer_allocator.h **** #ifndef STMLIB_UTILS_BUFFER_ALLOCATOR_H_
  30:eurorack/stmlib/utils/buffer_allocator.h **** #define STMLIB_UTILS_BUFFER_ALLOCATOR_H_
  31:eurorack/stmlib/utils/buffer_allocator.h **** 
  32:eurorack/stmlib/utils/buffer_allocator.h **** #include "stmlib/stmlib.h"
  33:eurorack/stmlib/utils/buffer_allocator.h **** 
  34:eurorack/stmlib/utils/buffer_allocator.h **** namespace stmlib {
  35:eurorack/stmlib/utils/buffer_allocator.h **** 
  36:eurorack/stmlib/utils/buffer_allocator.h **** class BufferAllocator {
  37:eurorack/stmlib/utils/buffer_allocator.h ****  public:
  38:eurorack/stmlib/utils/buffer_allocator.h ****   BufferAllocator() { }
  39:eurorack/stmlib/utils/buffer_allocator.h ****   ~BufferAllocator() { }
  40:eurorack/stmlib/utils/buffer_allocator.h ****   
  41:eurorack/stmlib/utils/buffer_allocator.h ****   BufferAllocator(void* buffer, size_t size) {
  42:eurorack/stmlib/utils/buffer_allocator.h ****     Init(buffer, size);
  43:eurorack/stmlib/utils/buffer_allocator.h ****   }
  44:eurorack/stmlib/utils/buffer_allocator.h ****   
  45:eurorack/stmlib/utils/buffer_allocator.h ****   inline void Init(void* buffer, size_t size) {
  46:eurorack/stmlib/utils/buffer_allocator.h ****     buffer_ = static_cast<uint8_t*>(buffer);
  47:eurorack/stmlib/utils/buffer_allocator.h ****     size_ = size;
  48:eurorack/stmlib/utils/buffer_allocator.h ****     Free();
  49:eurorack/stmlib/utils/buffer_allocator.h ****   }
  50:eurorack/stmlib/utils/buffer_allocator.h **** 
  51:eurorack/stmlib/utils/buffer_allocator.h ****   template<typename T>
  52:eurorack/stmlib/utils/buffer_allocator.h ****   inline T* Allocate() {
  53:eurorack/stmlib/utils/buffer_allocator.h ****     return Allocate<T>(1);
  54:eurorack/stmlib/utils/buffer_allocator.h ****   }
  55:eurorack/stmlib/utils/buffer_allocator.h ****   
  56:eurorack/stmlib/utils/buffer_allocator.h ****   template<typename T>
  57:eurorack/stmlib/utils/buffer_allocator.h ****   inline T* Allocate(size_t size) {
 503              		.loc 6 57 13 view .LVU116
 504              	.LBB118:
 505              	.LBB119:
  58:eurorack/stmlib/utils/buffer_allocator.h ****     size_t size_bytes = sizeof(T) * size;
  59:eurorack/stmlib/utils/buffer_allocator.h ****     if (size_bytes <= free_) {
 506              		.loc 6 59 23 is_stmt 0 view .LVU117
 507 0000 8B68     		ldr	r3, [r1, #8]
 508              		.loc 6 59 5 view .LVU118
 509 0002 5F2B     		cmp	r3, #95
 510              	.LBB120:
  60:eurorack/stmlib/utils/buffer_allocator.h ****       T* start = static_cast<T*>(static_cast<void*>(next_));
 511              		.loc 6 60 10 view .LVU119
 512 0004 8ABF     		itet	hi
 513 0006 0A68     		ldrhi	r2, [r1]
 514              	.LVL29:
 515              		.loc 6 60 10 view .LVU120
ARM GAS  /var/folders/9s/8rp0_f2s1n31qbztm3b5_fdh0000gn/T//ccR6g0UC.s 			page 33


 516              	.LBE120:
  61:eurorack/stmlib/utils/buffer_allocator.h ****       next_ += size_bytes;
  62:eurorack/stmlib/utils/buffer_allocator.h ****       free_ -= size_bytes;
  63:eurorack/stmlib/utils/buffer_allocator.h ****       return start;
  64:eurorack/stmlib/utils/buffer_allocator.h ****     } else {
  65:eurorack/stmlib/utils/buffer_allocator.h ****       return NULL;
 517              		.loc 6 65 14 view .LVU121
 518 0008 0022     		movls	r2, #0
 519              	.LVL30:
 520              	.LBB121:
  62:eurorack/stmlib/utils/buffer_allocator.h ****       return start;
 521              		.loc 6 62 13 view .LVU122
 522 000a 603B     		subhi	r3, r3, #96
 523              	.LBE121:
 524              	.LBE119:
 525              	.LBE118:
 526              	.LBE117:
  38:eurorack/plaits/dsp/engine/string_engine.cc ****   temp_buffer_ = allocator->Allocate<float>(kMaxBlockSize);
 527              		.loc 1 38 53 view .LVU123
 528 000c 70B5     		push	{r4, r5, r6, lr}
 529              		.cfi_def_cfa_offset 16
 530              		.cfi_offset 4, -16
 531              		.cfi_offset 5, -12
 532              		.cfi_offset 6, -8
 533              		.cfi_offset 14, -4
  38:eurorack/plaits/dsp/engine/string_engine.cc ****   temp_buffer_ = allocator->Allocate<float>(kMaxBlockSize);
 534              		.loc 1 38 53 view .LVU124
 535 000e 0C46     		mov	r4, r1
 536              	.LBB131:
 537              	.LBB128:
 538              	.LBB125:
 539              	.LBB122:
  61:eurorack/stmlib/utils/buffer_allocator.h ****       next_ += size_bytes;
 540              		.loc 6 61 13 view .LVU125
 541 0010 88BF     		it	hi
 542 0012 02F16001 		addhi	r1, r2, #96
 543              	.LVL31:
  61:eurorack/stmlib/utils/buffer_allocator.h ****       next_ += size_bytes;
 544              		.loc 6 61 13 view .LVU126
 545              	.LBE122:
 546              	.LBE125:
 547              	.LBE128:
 548              	.LBE131:
  38:eurorack/plaits/dsp/engine/string_engine.cc ****   temp_buffer_ = allocator->Allocate<float>(kMaxBlockSize);
 549              		.loc 1 38 53 view .LVU127
 550 0016 0546     		mov	r5, r0
 551              	.LBB132:
  42:eurorack/plaits/dsp/engine/string_engine.cc ****   }
 552              		.loc 1 42 12 view .LVU128
 553 0018 184E     		ldr	r6, .L24
 554              	.LBE132:
 555              	.LBB133:
 556              	.LBB129:
 557              	.LBB126:
 558              	.LBB123:
  61:eurorack/stmlib/utils/buffer_allocator.h ****       free_ -= size_bytes;
 559              		.loc 6 61 13 view .LVU129
ARM GAS  /var/folders/9s/8rp0_f2s1n31qbztm3b5_fdh0000gn/T//ccR6g0UC.s 			page 34


 560 001a 88BF     		it	hi
 561 001c 2160     		strhi	r1, [r4]
 562              	.LBE123:
 563              	.LBE126:
 564              	.LBE129:
 565              	.LBE133:
 566              	.LBB134:
  41:eurorack/plaits/dsp/engine/string_engine.cc ****     f0_[i] = 0.01f;
 567              		.loc 1 41 19 view .LVU130
 568 001e 00F11000 		add	r0, r0, #16
 569              	.LVL32:
  41:eurorack/plaits/dsp/engine/string_engine.cc ****     f0_[i] = 0.01f;
 570              		.loc 1 41 19 view .LVU131
 571              	.LBE134:
 572              	.LBB135:
 573              	.LBB130:
 574              	.LBB127:
 575              	.LBB124:
  62:eurorack/stmlib/utils/buffer_allocator.h ****       return start;
 576              		.loc 6 62 13 view .LVU132
 577 0022 88BF     		it	hi
 578 0024 A360     		strhi	r3, [r4, #8]
 579              	.LBE124:
 580              	.LBE127:
 581              	.LBE130:
 582              	.LBE135:
 583              	.LBB136:
  41:eurorack/plaits/dsp/engine/string_engine.cc ****     f0_[i] = 0.01f;
 584              		.loc 1 41 19 view .LVU133
 585 0026 2146     		mov	r1, r4
 586              	.LBE136:
  39:eurorack/plaits/dsp/engine/string_engine.cc ****   for (int i = 0; i < kNumStrings; ++i) {
 587              		.loc 1 39 16 view .LVU134
 588 0028 C0F83821 		str	r2, [r0, #312]
  40:eurorack/plaits/dsp/engine/string_engine.cc ****     voice_[i].Init(allocator);
 589              		.loc 1 40 3 is_stmt 1 view .LVU135
 590              	.LVL33:
 591              	.LBB137:
  40:eurorack/plaits/dsp/engine/string_engine.cc ****     voice_[i].Init(allocator);
 592              		.loc 1 40 21 view .LVU136
  41:eurorack/plaits/dsp/engine/string_engine.cc ****     f0_[i] = 0.01f;
 593              		.loc 1 41 5 view .LVU137
  41:eurorack/plaits/dsp/engine/string_engine.cc ****     f0_[i] = 0.01f;
 594              		.loc 1 41 19 is_stmt 0 view .LVU138
 595 002c FFF7FEFF 		bl	_ZN6plaits11StringVoice4InitEPN6stmlib15BufferAllocatorE
 596              	.LVL34:
  42:eurorack/plaits/dsp/engine/string_engine.cc ****   }
 597              		.loc 1 42 5 is_stmt 1 view .LVU139
  41:eurorack/plaits/dsp/engine/string_engine.cc ****     f0_[i] = 0.01f;
 598              		.loc 1 41 19 is_stmt 0 view .LVU140
 599 0030 2146     		mov	r1, r4
 600 0032 05F17000 		add	r0, r5, #112
  42:eurorack/plaits/dsp/engine/string_engine.cc ****   }
 601              		.loc 1 42 12 view .LVU141
 602 0036 C5F83061 		str	r6, [r5, #304]	@ float
  40:eurorack/plaits/dsp/engine/string_engine.cc ****     voice_[i].Init(allocator);
 603              		.loc 1 40 3 is_stmt 1 view .LVU142
ARM GAS  /var/folders/9s/8rp0_f2s1n31qbztm3b5_fdh0000gn/T//ccR6g0UC.s 			page 35


 604              	.LVL35:
  40:eurorack/plaits/dsp/engine/string_engine.cc ****     voice_[i].Init(allocator);
 605              		.loc 1 40 21 view .LVU143
  41:eurorack/plaits/dsp/engine/string_engine.cc ****     f0_[i] = 0.01f;
 606              		.loc 1 41 5 view .LVU144
  41:eurorack/plaits/dsp/engine/string_engine.cc ****     f0_[i] = 0.01f;
 607              		.loc 1 41 19 is_stmt 0 view .LVU145
 608 003a FFF7FEFF 		bl	_ZN6plaits11StringVoice4InitEPN6stmlib15BufferAllocatorE
 609              	.LVL36:
  42:eurorack/plaits/dsp/engine/string_engine.cc ****   }
 610              		.loc 1 42 5 is_stmt 1 view .LVU146
  41:eurorack/plaits/dsp/engine/string_engine.cc ****     f0_[i] = 0.01f;
 611              		.loc 1 41 19 is_stmt 0 view .LVU147
 612 003e 2146     		mov	r1, r4
 613 0040 05F1D000 		add	r0, r5, #208
  42:eurorack/plaits/dsp/engine/string_engine.cc ****   }
 614              		.loc 1 42 12 view .LVU148
 615 0044 C5F83461 		str	r6, [r5, #308]	@ float
  40:eurorack/plaits/dsp/engine/string_engine.cc ****     voice_[i].Init(allocator);
 616              		.loc 1 40 3 is_stmt 1 view .LVU149
 617              	.LVL37:
  40:eurorack/plaits/dsp/engine/string_engine.cc ****     voice_[i].Init(allocator);
 618              		.loc 1 40 21 view .LVU150
  41:eurorack/plaits/dsp/engine/string_engine.cc ****     f0_[i] = 0.01f;
 619              		.loc 1 41 5 view .LVU151
  41:eurorack/plaits/dsp/engine/string_engine.cc ****     f0_[i] = 0.01f;
 620              		.loc 1 41 19 is_stmt 0 view .LVU152
 621 0048 FFF7FEFF 		bl	_ZN6plaits11StringVoice4InitEPN6stmlib15BufferAllocatorE
 622              	.LVL38:
  42:eurorack/plaits/dsp/engine/string_engine.cc ****   }
 623              		.loc 1 42 5 is_stmt 1 view .LVU153
 624              	.LBE137:
  44:eurorack/plaits/dsp/engine/string_engine.cc ****   f0_delay_.Init(allocator->Allocate<float>(16));
 625              		.loc 1 44 18 is_stmt 0 view .LVU154
 626 004c 0223     		movs	r3, #2
 627              	.LBB138:
  42:eurorack/plaits/dsp/engine/string_engine.cc ****   }
 628              		.loc 1 42 12 view .LVU155
 629 004e C5F83861 		str	r6, [r5, #312]	@ float
  40:eurorack/plaits/dsp/engine/string_engine.cc ****     voice_[i].Init(allocator);
 630              		.loc 1 40 3 is_stmt 1 view .LVU156
 631              	.LVL39:
  40:eurorack/plaits/dsp/engine/string_engine.cc ****     voice_[i].Init(allocator);
 632              		.loc 1 40 21 view .LVU157
 633              	.LBE138:
  44:eurorack/plaits/dsp/engine/string_engine.cc ****   f0_delay_.Init(allocator->Allocate<float>(16));
 634              		.loc 1 44 3 view .LVU158
  45:eurorack/plaits/dsp/engine/string_engine.cc **** }
 635              		.loc 1 45 17 is_stmt 0 view .LVU159
 636 0052 05F59E70 		add	r0, r5, #316
  44:eurorack/plaits/dsp/engine/string_engine.cc ****   f0_delay_.Init(allocator->Allocate<float>(16));
 637              		.loc 1 44 18 view .LVU160
 638 0056 C5F84431 		str	r3, [r5, #324]
  45:eurorack/plaits/dsp/engine/string_engine.cc **** }
 639              		.loc 1 45 3 is_stmt 1 view .LVU161
 640              	.LVL40:
 641              	.LBB139:
ARM GAS  /var/folders/9s/8rp0_f2s1n31qbztm3b5_fdh0000gn/T//ccR6g0UC.s 			page 36


 642              	.LBI139:
  57:eurorack/stmlib/utils/buffer_allocator.h ****     size_t size_bytes = sizeof(T) * size;
 643              		.loc 6 57 13 view .LVU162
 644              	.LBB140:
 645              	.LBB141:
  59:eurorack/stmlib/utils/buffer_allocator.h ****       T* start = static_cast<T*>(static_cast<void*>(next_));
 646              		.loc 6 59 23 is_stmt 0 view .LVU163
 647 005a A368     		ldr	r3, [r4, #8]
  59:eurorack/stmlib/utils/buffer_allocator.h ****       T* start = static_cast<T*>(static_cast<void*>(next_));
 648              		.loc 6 59 5 view .LVU164
 649 005c 3F2B     		cmp	r3, #63
 650              	.LBB142:
  60:eurorack/stmlib/utils/buffer_allocator.h ****       next_ += size_bytes;
 651              		.loc 6 60 10 view .LVU165
 652 005e 85BF     		ittet	hi
 653 0060 2268     		ldrhi	r2, [r4]
 654              	.LVL41:
  62:eurorack/stmlib/utils/buffer_allocator.h ****       return start;
 655              		.loc 6 62 13 view .LVU166
 656 0062 403B     		subhi	r3, r3, #64
 657              	.LBE142:
 658              		.loc 6 65 14 view .LVU167
 659 0064 0022     		movls	r2, #0
 660              	.LVL42:
 661              		.loc 6 65 14 view .LVU168
 662              	.LBE141:
 663              	.LBE140:
 664              	.LBE139:
 665              	.LBB146:
 666              	.LBI146:
  44:eurorack/plaits/dsp/physical_modelling/delay_line.h ****     line_ = buffer;
 667              		.loc 2 44 8 is_stmt 1 view .LVU169
 668              	.LBE146:
 669              	.LBB148:
 670              	.LBB145:
 671              	.LBB144:
 672              	.LBB143:
  61:eurorack/stmlib/utils/buffer_allocator.h ****       free_ -= size_bytes;
 673              		.loc 6 61 13 is_stmt 0 view .LVU170
 674 0066 02F14001 		addhi	r1, r2, #64
  62:eurorack/stmlib/utils/buffer_allocator.h ****       return start;
 675              		.loc 6 62 13 view .LVU171
 676 006a 84BF     		itt	hi
 677 006c A360     		strhi	r3, [r4, #8]
  61:eurorack/stmlib/utils/buffer_allocator.h ****       free_ -= size_bytes;
 678              		.loc 6 61 13 view .LVU172
 679 006e 2160     		strhi	r1, [r4]
 680              	.LBE143:
 681              	.LBE144:
 682              	.LBE145:
 683              	.LBE148:
 684              	.LBB149:
 685              	.LBB147:
  45:eurorack/plaits/dsp/physical_modelling/delay_line.h ****     Reset();
 686              		.loc 2 45 11 view .LVU173
 687 0070 C5F84021 		str	r2, [r5, #320]
  46:eurorack/plaits/dsp/physical_modelling/delay_line.h ****   }
ARM GAS  /var/folders/9s/8rp0_f2s1n31qbztm3b5_fdh0000gn/T//ccR6g0UC.s 			page 37


 688              		.loc 2 46 10 view .LVU174
 689 0074 FFF7FEFF 		bl	_ZN6plaits9DelayLineIfLj16EE5ResetEv
 690              	.LVL43:
  46:eurorack/plaits/dsp/physical_modelling/delay_line.h ****   }
 691              		.loc 2 46 10 view .LVU175
 692              	.LBE147:
 693              	.LBE149:
  46:eurorack/plaits/dsp/engine/string_engine.cc **** 
 694              		.loc 1 46 1 view .LVU176
 695 0078 70BD     		pop	{r4, r5, r6, pc}
 696              	.LVL44:
 697              	.L25:
  46:eurorack/plaits/dsp/engine/string_engine.cc **** 
 698              		.loc 1 46 1 view .LVU177
 699 007a 00BF     		.align	2
 700              	.L24:
 701 007c 0AD7233C 		.word	1008981770
 702              		.cfi_endproc
 703              	.LFE1533:
 705              		.section	.text._ZN6plaits12StringEngine5ResetEv,"ax",%progbits
 706              		.align	1
 707              		.global	_ZN6plaits12StringEngine5ResetEv
 708              		.syntax unified
 709              		.thumb
 710              		.thumb_func
 712              	_ZN6plaits12StringEngine5ResetEv:
 713              	.LVL45:
 714              	.LFB1534:
  48:eurorack/plaits/dsp/engine/string_engine.cc ****   f0_delay_.Reset();
 715              		.loc 1 48 28 is_stmt 1 view -0
 716              		.cfi_startproc
 717              		@ args = 0, pretend = 0, frame = 0
 718              		@ frame_needed = 0, uses_anonymous_args = 0
  49:eurorack/plaits/dsp/engine/string_engine.cc ****   for (int i = 0; i < kNumStrings; ++i) {
 719              		.loc 1 49 3 view .LVU179
  48:eurorack/plaits/dsp/engine/string_engine.cc ****   f0_delay_.Reset();
 720              		.loc 1 48 28 is_stmt 0 view .LVU180
 721 0000 10B5     		push	{r4, lr}
 722              		.cfi_def_cfa_offset 8
 723              		.cfi_offset 4, -8
 724              		.cfi_offset 14, -4
  48:eurorack/plaits/dsp/engine/string_engine.cc ****   f0_delay_.Reset();
 725              		.loc 1 48 28 view .LVU181
 726 0002 0446     		mov	r4, r0
  49:eurorack/plaits/dsp/engine/string_engine.cc ****   for (int i = 0; i < kNumStrings; ++i) {
 727              		.loc 1 49 18 view .LVU182
 728 0004 00F59E70 		add	r0, r0, #316
 729              	.LVL46:
  49:eurorack/plaits/dsp/engine/string_engine.cc ****   for (int i = 0; i < kNumStrings; ++i) {
 730              		.loc 1 49 18 view .LVU183
 731 0008 FFF7FEFF 		bl	_ZN6plaits9DelayLineIfLj16EE5ResetEv
 732              	.LVL47:
  50:eurorack/plaits/dsp/engine/string_engine.cc ****     voice_[i].Reset();
 733              		.loc 1 50 3 is_stmt 1 view .LVU184
 734              	.LBB150:
  50:eurorack/plaits/dsp/engine/string_engine.cc ****     voice_[i].Reset();
 735              		.loc 1 50 21 view .LVU185
ARM GAS  /var/folders/9s/8rp0_f2s1n31qbztm3b5_fdh0000gn/T//ccR6g0UC.s 			page 38


  51:eurorack/plaits/dsp/engine/string_engine.cc ****   }
 736              		.loc 1 51 5 view .LVU186
  51:eurorack/plaits/dsp/engine/string_engine.cc ****   }
 737              		.loc 1 51 20 is_stmt 0 view .LVU187
 738 000c 04F11000 		add	r0, r4, #16
 739 0010 FFF7FEFF 		bl	_ZN6plaits11StringVoice5ResetEv
 740              	.LVL48:
  50:eurorack/plaits/dsp/engine/string_engine.cc ****     voice_[i].Reset();
 741              		.loc 1 50 3 is_stmt 1 view .LVU188
  50:eurorack/plaits/dsp/engine/string_engine.cc ****     voice_[i].Reset();
 742              		.loc 1 50 21 view .LVU189
  51:eurorack/plaits/dsp/engine/string_engine.cc ****   }
 743              		.loc 1 51 5 view .LVU190
  51:eurorack/plaits/dsp/engine/string_engine.cc ****   }
 744              		.loc 1 51 20 is_stmt 0 view .LVU191
 745 0014 04F17000 		add	r0, r4, #112
 746 0018 FFF7FEFF 		bl	_ZN6plaits11StringVoice5ResetEv
 747              	.LVL49:
  50:eurorack/plaits/dsp/engine/string_engine.cc ****     voice_[i].Reset();
 748              		.loc 1 50 3 is_stmt 1 view .LVU192
  50:eurorack/plaits/dsp/engine/string_engine.cc ****     voice_[i].Reset();
 749              		.loc 1 50 21 view .LVU193
  51:eurorack/plaits/dsp/engine/string_engine.cc ****   }
 750              		.loc 1 51 5 view .LVU194
  51:eurorack/plaits/dsp/engine/string_engine.cc ****   }
 751              		.loc 1 51 20 is_stmt 0 view .LVU195
 752 001c 04F1D000 		add	r0, r4, #208
 753              	.LBE150:
  53:eurorack/plaits/dsp/engine/string_engine.cc **** 
 754              		.loc 1 53 1 view .LVU196
 755 0020 BDE81040 		pop	{r4, lr}
 756              		.cfi_restore 14
 757              		.cfi_restore 4
 758              		.cfi_def_cfa_offset 0
 759              	.LVL50:
 760              	.LBB151:
  51:eurorack/plaits/dsp/engine/string_engine.cc ****   }
 761              		.loc 1 51 20 view .LVU197
 762 0024 FFF7FEBF 		b	_ZN6plaits11StringVoice5ResetEv
 763              	.LVL51:
  51:eurorack/plaits/dsp/engine/string_engine.cc ****   }
 764              		.loc 1 51 20 view .LVU198
 765              	.LBE151:
 766              		.cfi_endproc
 767              	.LFE1534:
 769              		.weak	_ZTSN6plaits6EngineE
 770              		.section	.rodata._ZTSN6plaits6EngineE,"aG",%progbits,_ZTSN6plaits6EngineE,comdat
 773              	_ZTSN6plaits6EngineE:
 774 0000 4E36706C 		.ascii	"N6plaits6EngineE\000"
 774      61697473 
 774      36456E67 
 774      696E6545 
 774      00
 775              		.weak	_ZTIN6plaits6EngineE
 776              		.section	.rodata._ZTIN6plaits6EngineE,"aG",%progbits,_ZTIN6plaits6EngineE,comdat
 777              		.align	2
 780              	_ZTIN6plaits6EngineE:
ARM GAS  /var/folders/9s/8rp0_f2s1n31qbztm3b5_fdh0000gn/T//ccR6g0UC.s 			page 39


 781 0000 08000000 		.word	_ZTVN10__cxxabiv117__class_type_infoE+8
 782 0004 00000000 		.word	_ZTSN6plaits6EngineE
 783              		.global	_ZTSN6plaits12StringEngineE
 784              		.global	_ZTIN6plaits12StringEngineE
 785              		.global	_ZTVN6plaits12StringEngineE
 786              		.section	.rodata._ZTIN6plaits12StringEngineE,"a"
 787              		.align	2
 790              	_ZTIN6plaits12StringEngineE:
 791 0000 08000000 		.word	_ZTVN10__cxxabiv120__si_class_type_infoE+8
 792 0004 00000000 		.word	_ZTSN6plaits12StringEngineE
 793 0008 00000000 		.word	_ZTIN6plaits6EngineE
 794              		.section	.rodata._ZTSN6plaits12StringEngineE,"a"
 797              	_ZTSN6plaits12StringEngineE:
 798 0000 4E36706C 		.ascii	"N6plaits12StringEngineE\000"
 798      61697473 
 798      31325374 
 798      72696E67 
 798      456E6769 
 799              		.section	.rodata._ZTVN6plaits12StringEngineE,"a"
 800              		.align	2
 803              	_ZTVN6plaits12StringEngineE:
 804 0000 00000000 		.word	0
 805 0004 00000000 		.word	_ZTIN6plaits12StringEngineE
 806 0008 00000000 		.word	_ZN6plaits12StringEngine4InitEPN6stmlib15BufferAllocatorE
 807 000c 00000000 		.word	_ZN6plaits12StringEngine5ResetEv
 808 0010 00000000 		.word	_ZN6plaits12StringEngine6RenderERKNS_16EngineParametersEPfS4_jPb
 809              		.text
 810              	.Letext0:
 811              		.file 7 "/Library/DaisyToolchain/0.2.0/arm/arm-none-eabi/include/machine/_default_types.h"
 812              		.file 8 "/Library/DaisyToolchain/0.2.0/arm/arm-none-eabi/include/sys/_stdint.h"
 813              		.file 9 "/Library/DaisyToolchain/0.2.0/arm/lib/gcc/arm-none-eabi/10.3.1/include/stddef.h"
 814              		.file 10 "/Library/DaisyToolchain/0.2.0/arm/arm-none-eabi/include/c++/10.3.1/bits/cpp_type_traits.
 815              		.file 11 "/Library/DaisyToolchain/0.2.0/arm/arm-none-eabi/include/c++/10.3.1/cmath"
 816              		.file 12 "/Library/DaisyToolchain/0.2.0/arm/arm-none-eabi/include/c++/10.3.1/bits/std_abs.h"
 817              		.file 13 "/Library/DaisyToolchain/0.2.0/arm/arm-none-eabi/include/c++/10.3.1/type_traits"
 818              		.file 14 "/Library/DaisyToolchain/0.2.0/arm/arm-none-eabi/include/c++/10.3.1/bits/stl_pair.h"
 819              		.file 15 "/Library/DaisyToolchain/0.2.0/arm/arm-none-eabi/include/c++/10.3.1/debug/debug.h"
 820              		.file 16 "/Library/DaisyToolchain/0.2.0/arm/arm-none-eabi/include/c++/10.3.1/cstdlib"
 821              		.file 17 "/Library/DaisyToolchain/0.2.0/arm/arm-none-eabi/include/c++/10.3.1/arm-none-eabi/thumb/v
 822              		.file 18 "/Library/DaisyToolchain/0.2.0/arm/arm-none-eabi/include/c++/10.3.1/bits/algorithmfwd.h"
 823              		.file 19 "/Library/DaisyToolchain/0.2.0/arm/arm-none-eabi/include/c++/10.3.1/bits/exception_ptr.h"
 824              		.file 20 "/Library/DaisyToolchain/0.2.0/arm/arm-none-eabi/include/c++/10.3.1/bits/predefined_ops.h
 825              		.file 21 "/Library/DaisyToolchain/0.2.0/arm/arm-none-eabi/include/math.h"
 826              		.file 22 "/Library/DaisyToolchain/0.2.0/arm/arm-none-eabi/include/stdlib.h"
 827              		.file 23 "/Library/DaisyToolchain/0.2.0/arm/arm-none-eabi/include/c++/10.3.1/math.h"
 828              		.file 24 "eurorack/stmlib/stmlib.h"
 829              		.file 25 "eurorack/stmlib/dsp/filter.h"
 830              		.file 26 "eurorack/plaits/dsp/dsp.h"
 831              		.file 27 "eurorack/plaits/dsp/physical_modelling/string.h"
 832              		.file 28 "eurorack/plaits/dsp/physical_modelling/string_voice.h"
 833              		.file 29 "eurorack/plaits/dsp/engine/string_engine.h"
 834              		.file 30 "<built-in>"
ARM GAS  /var/folders/9s/8rp0_f2s1n31qbztm3b5_fdh0000gn/T//ccR6g0UC.s 			page 40

