ARM GAS  /var/folders/9s/8rp0_f2s1n31qbztm3b5_fdh0000gn/T//ccF2jpeh.s 			page 1


   1              		.cpu cortex-m7
   2              		.arch armv7e-m
   3              		.fpu fpv5-d16
   4              		.eabi_attribute 28, 1
   5              		.eabi_attribute 20, 1
   6              		.eabi_attribute 21, 1
   7              		.eabi_attribute 23, 3
   8              		.eabi_attribute 24, 1
   9              		.eabi_attribute 25, 1
  10              		.eabi_attribute 26, 1
  11              		.eabi_attribute 30, 4
  12              		.eabi_attribute 34, 1
  13              		.eabi_attribute 18, 4
  14              		.file	"swarm_engine.cc"
  15              		.text
  16              	.Ltext0:
  17              		.cfi_sections	.debug_frame
  18              		.section	.text._ZN6plaits11SwarmEngine4InitEPN6stmlib15BufferAllocatorE,"ax",%progbits
  19              		.align	1
  20              		.global	_ZN6plaits11SwarmEngine4InitEPN6stmlib15BufferAllocatorE
  21              		.syntax unified
  22              		.thumb
  23              		.thumb_func
  25              	_ZN6plaits11SwarmEngine4InitEPN6stmlib15BufferAllocatorE:
  26              	.LVL0:
  27              	.LFB1525:
  28              		.file 1 "eurorack/plaits/dsp/engine/swarm_engine.cc"
   1:eurorack/plaits/dsp/engine/swarm_engine.cc **** // Copyright 2016 Emilie Gillet.
   2:eurorack/plaits/dsp/engine/swarm_engine.cc **** //
   3:eurorack/plaits/dsp/engine/swarm_engine.cc **** // Author: Emilie Gillet (emilie.o.gillet@gmail.com)
   4:eurorack/plaits/dsp/engine/swarm_engine.cc **** //
   5:eurorack/plaits/dsp/engine/swarm_engine.cc **** // Permission is hereby granted, free of charge, to any person obtaining a copy
   6:eurorack/plaits/dsp/engine/swarm_engine.cc **** // of this software and associated documentation files (the "Software"), to deal
   7:eurorack/plaits/dsp/engine/swarm_engine.cc **** // in the Software without restriction, including without limitation the rights
   8:eurorack/plaits/dsp/engine/swarm_engine.cc **** // to use, copy, modify, merge, publish, distribute, sublicense, and/or sell
   9:eurorack/plaits/dsp/engine/swarm_engine.cc **** // copies of the Software, and to permit persons to whom the Software is
  10:eurorack/plaits/dsp/engine/swarm_engine.cc **** // furnished to do so, subject to the following conditions:
  11:eurorack/plaits/dsp/engine/swarm_engine.cc **** // 
  12:eurorack/plaits/dsp/engine/swarm_engine.cc **** // The above copyright notice and this permission notice shall be included in
  13:eurorack/plaits/dsp/engine/swarm_engine.cc **** // all copies or substantial portions of the Software.
  14:eurorack/plaits/dsp/engine/swarm_engine.cc **** // 
  15:eurorack/plaits/dsp/engine/swarm_engine.cc **** // THE SOFTWARE IS PROVIDED "AS IS", WITHOUT WARRANTY OF ANY KIND, EXPRESS OR
  16:eurorack/plaits/dsp/engine/swarm_engine.cc **** // IMPLIED, INCLUDING BUT NOT LIMITED TO THE WARRANTIES OF MERCHANTABILITY,
  17:eurorack/plaits/dsp/engine/swarm_engine.cc **** // FITNESS FOR A PARTICULAR PURPOSE AND NONINFRINGEMENT. IN NO EVENT SHALL THE
  18:eurorack/plaits/dsp/engine/swarm_engine.cc **** // AUTHORS OR COPYRIGHT HOLDERS BE LIABLE FOR ANY CLAIM, DAMAGES OR OTHER
  19:eurorack/plaits/dsp/engine/swarm_engine.cc **** // LIABILITY, WHETHER IN AN ACTION OF CONTRACT, TORT OR OTHERWISE, ARISING FROM,
  20:eurorack/plaits/dsp/engine/swarm_engine.cc **** // OUT OF OR IN CONNECTION WITH THE SOFTWARE OR THE USE OR OTHER DEALINGS IN
  21:eurorack/plaits/dsp/engine/swarm_engine.cc **** // THE SOFTWARE.
  22:eurorack/plaits/dsp/engine/swarm_engine.cc **** // 
  23:eurorack/plaits/dsp/engine/swarm_engine.cc **** // See http://creativecommons.org/licenses/MIT/ for more information.
  24:eurorack/plaits/dsp/engine/swarm_engine.cc **** //
  25:eurorack/plaits/dsp/engine/swarm_engine.cc **** // -----------------------------------------------------------------------------
  26:eurorack/plaits/dsp/engine/swarm_engine.cc **** //
  27:eurorack/plaits/dsp/engine/swarm_engine.cc **** // Swarm of sawtooths and sines.
  28:eurorack/plaits/dsp/engine/swarm_engine.cc **** 
  29:eurorack/plaits/dsp/engine/swarm_engine.cc **** #include "plaits/dsp/engine/swarm_engine.h"
  30:eurorack/plaits/dsp/engine/swarm_engine.cc **** 
ARM GAS  /var/folders/9s/8rp0_f2s1n31qbztm3b5_fdh0000gn/T//ccF2jpeh.s 			page 2


  31:eurorack/plaits/dsp/engine/swarm_engine.cc **** #include <algorithm>
  32:eurorack/plaits/dsp/engine/swarm_engine.cc **** 
  33:eurorack/plaits/dsp/engine/swarm_engine.cc **** namespace plaits {
  34:eurorack/plaits/dsp/engine/swarm_engine.cc **** 
  35:eurorack/plaits/dsp/engine/swarm_engine.cc **** using namespace std;
  36:eurorack/plaits/dsp/engine/swarm_engine.cc **** using namespace stmlib;
  37:eurorack/plaits/dsp/engine/swarm_engine.cc **** 
  38:eurorack/plaits/dsp/engine/swarm_engine.cc **** void SwarmEngine::Init(BufferAllocator* allocator) {
  29              		.loc 1 38 52 view -0
  30              		.cfi_startproc
  31              		@ args = 0, pretend = 0, frame = 0
  32              		@ frame_needed = 0, uses_anonymous_args = 0
  39:eurorack/plaits/dsp/engine/swarm_engine.cc ****   const float n = (kNumSwarmVoices - 1) / 2;
  33              		.loc 1 39 3 view .LVU1
  40:eurorack/plaits/dsp/engine/swarm_engine.cc ****   for (int i = 0; i < kNumSwarmVoices; ++i) {
  34              		.loc 1 40 3 view .LVU2
  35              	.LBB77:
  36              		.loc 1 40 21 view .LVU3
  37              		.loc 1 40 12 is_stmt 0 view .LVU4
  38 0000 0022     		movs	r2, #0
  39              	.LBE77:
  38:eurorack/plaits/dsp/engine/swarm_engine.cc ****   const float n = (kNumSwarmVoices - 1) / 2;
  40              		.loc 1 38 52 view .LVU5
  41 0002 10B5     		push	{r4, lr}
  42              		.cfi_def_cfa_offset 8
  43              		.cfi_offset 4, -8
  44              		.cfi_offset 14, -4
  45              	.LVL1:
  46              	.L2:
  47              	.LBB118:
  48              	.LBB78:
  41:eurorack/plaits/dsp/engine/swarm_engine.cc ****     float rank = (static_cast<float>(i) - n) / n;
  49              		.loc 1 41 5 is_stmt 1 discriminator 2 view .LVU6
  42:eurorack/plaits/dsp/engine/swarm_engine.cc ****     swarm_voice_[i].Init(rank);
  50              		.loc 1 42 5 discriminator 2 view .LVU7
  51              	.LBB79:
  52              	.LBI79:
  53              		.file 2 "eurorack/plaits/dsp/engine/swarm_engine.h"
   1:eurorack/plaits/dsp/engine/swarm_engine.h **** // Copyright 2016 Emilie Gillet.
   2:eurorack/plaits/dsp/engine/swarm_engine.h **** //
   3:eurorack/plaits/dsp/engine/swarm_engine.h **** // Author: Emilie Gillet (emilie.o.gillet@gmail.com)
   4:eurorack/plaits/dsp/engine/swarm_engine.h **** //
   5:eurorack/plaits/dsp/engine/swarm_engine.h **** // Permission is hereby granted, free of charge, to any person obtaining a copy
   6:eurorack/plaits/dsp/engine/swarm_engine.h **** // of this software and associated documentation files (the "Software"), to deal
   7:eurorack/plaits/dsp/engine/swarm_engine.h **** // in the Software without restriction, including without limitation the rights
   8:eurorack/plaits/dsp/engine/swarm_engine.h **** // to use, copy, modify, merge, publish, distribute, sublicense, and/or sell
   9:eurorack/plaits/dsp/engine/swarm_engine.h **** // copies of the Software, and to permit persons to whom the Software is
  10:eurorack/plaits/dsp/engine/swarm_engine.h **** // furnished to do so, subject to the following conditions:
  11:eurorack/plaits/dsp/engine/swarm_engine.h **** // 
  12:eurorack/plaits/dsp/engine/swarm_engine.h **** // The above copyright notice and this permission notice shall be included in
  13:eurorack/plaits/dsp/engine/swarm_engine.h **** // all copies or substantial portions of the Software.
  14:eurorack/plaits/dsp/engine/swarm_engine.h **** // 
  15:eurorack/plaits/dsp/engine/swarm_engine.h **** // THE SOFTWARE IS PROVIDED "AS IS", WITHOUT WARRANTY OF ANY KIND, EXPRESS OR
  16:eurorack/plaits/dsp/engine/swarm_engine.h **** // IMPLIED, INCLUDING BUT NOT LIMITED TO THE WARRANTIES OF MERCHANTABILITY,
  17:eurorack/plaits/dsp/engine/swarm_engine.h **** // FITNESS FOR A PARTICULAR PURPOSE AND NONINFRINGEMENT. IN NO EVENT SHALL THE
  18:eurorack/plaits/dsp/engine/swarm_engine.h **** // AUTHORS OR COPYRIGHT HOLDERS BE LIABLE FOR ANY CLAIM, DAMAGES OR OTHER
  19:eurorack/plaits/dsp/engine/swarm_engine.h **** // LIABILITY, WHETHER IN AN ACTION OF CONTRACT, TORT OR OTHERWISE, ARISING FROM,
ARM GAS  /var/folders/9s/8rp0_f2s1n31qbztm3b5_fdh0000gn/T//ccF2jpeh.s 			page 3


  20:eurorack/plaits/dsp/engine/swarm_engine.h **** // OUT OF OR IN CONNECTION WITH THE SOFTWARE OR THE USE OR OTHER DEALINGS IN
  21:eurorack/plaits/dsp/engine/swarm_engine.h **** // THE SOFTWARE.
  22:eurorack/plaits/dsp/engine/swarm_engine.h **** // 
  23:eurorack/plaits/dsp/engine/swarm_engine.h **** // See http://creativecommons.org/licenses/MIT/ for more information.
  24:eurorack/plaits/dsp/engine/swarm_engine.h **** //
  25:eurorack/plaits/dsp/engine/swarm_engine.h **** // -----------------------------------------------------------------------------
  26:eurorack/plaits/dsp/engine/swarm_engine.h **** //
  27:eurorack/plaits/dsp/engine/swarm_engine.h **** // Swarm of sawtooths and sines.
  28:eurorack/plaits/dsp/engine/swarm_engine.h **** 
  29:eurorack/plaits/dsp/engine/swarm_engine.h **** #ifndef PLAITS_DSP_ENGINE_SWARM_ENGINE_H_
  30:eurorack/plaits/dsp/engine/swarm_engine.h **** #define PLAITS_DSP_ENGINE_SWARM_ENGINE_H_
  31:eurorack/plaits/dsp/engine/swarm_engine.h **** 
  32:eurorack/plaits/dsp/engine/swarm_engine.h **** #include "stmlib/dsp/polyblep.h"
  33:eurorack/plaits/dsp/engine/swarm_engine.h **** #include "stmlib/dsp/units.h"
  34:eurorack/plaits/dsp/engine/swarm_engine.h **** #include "stmlib/utils/random.h"
  35:eurorack/plaits/dsp/engine/swarm_engine.h **** 
  36:eurorack/plaits/dsp/engine/swarm_engine.h **** #include "plaits/dsp/engine/engine.h"
  37:eurorack/plaits/dsp/engine/swarm_engine.h **** #include "plaits/dsp/oscillator/oscillator.h"
  38:eurorack/plaits/dsp/engine/swarm_engine.h **** #include "plaits/dsp/oscillator/string_synth_oscillator.h"
  39:eurorack/plaits/dsp/engine/swarm_engine.h **** #include "plaits/dsp/oscillator/sine_oscillator.h"
  40:eurorack/plaits/dsp/engine/swarm_engine.h **** #include "plaits/resources.h"
  41:eurorack/plaits/dsp/engine/swarm_engine.h **** 
  42:eurorack/plaits/dsp/engine/swarm_engine.h **** namespace plaits {
  43:eurorack/plaits/dsp/engine/swarm_engine.h **** 
  44:eurorack/plaits/dsp/engine/swarm_engine.h **** const int kNumSwarmVoices = 8;
  45:eurorack/plaits/dsp/engine/swarm_engine.h **** 
  46:eurorack/plaits/dsp/engine/swarm_engine.h **** class GrainEnvelope {
  47:eurorack/plaits/dsp/engine/swarm_engine.h ****  public:
  48:eurorack/plaits/dsp/engine/swarm_engine.h ****   GrainEnvelope() { }
  49:eurorack/plaits/dsp/engine/swarm_engine.h ****   ~GrainEnvelope() { }
  50:eurorack/plaits/dsp/engine/swarm_engine.h ****   
  51:eurorack/plaits/dsp/engine/swarm_engine.h ****   void Init() {
  52:eurorack/plaits/dsp/engine/swarm_engine.h ****     from_ = 0.0f;
  53:eurorack/plaits/dsp/engine/swarm_engine.h ****     interval_ = 1.0f;
  54:eurorack/plaits/dsp/engine/swarm_engine.h ****     phase_ = 1.0f;
  55:eurorack/plaits/dsp/engine/swarm_engine.h ****     fm_ = 0.0f;
  56:eurorack/plaits/dsp/engine/swarm_engine.h ****     amplitude_ = 0.5f;
  57:eurorack/plaits/dsp/engine/swarm_engine.h ****     previous_size_ratio_ = 0.0f;
  58:eurorack/plaits/dsp/engine/swarm_engine.h ****   }
  59:eurorack/plaits/dsp/engine/swarm_engine.h ****   
  60:eurorack/plaits/dsp/engine/swarm_engine.h ****   inline void Step(float rate, bool burst_mode, bool start_burst) {
  61:eurorack/plaits/dsp/engine/swarm_engine.h ****     bool randomize = false;
  62:eurorack/plaits/dsp/engine/swarm_engine.h ****     if (start_burst) {
  63:eurorack/plaits/dsp/engine/swarm_engine.h ****       phase_ = 0.5f;
  64:eurorack/plaits/dsp/engine/swarm_engine.h ****       fm_ = 16.0f;
  65:eurorack/plaits/dsp/engine/swarm_engine.h ****       randomize = true;
  66:eurorack/plaits/dsp/engine/swarm_engine.h ****     } else {
  67:eurorack/plaits/dsp/engine/swarm_engine.h ****       phase_ += rate * fm_;
  68:eurorack/plaits/dsp/engine/swarm_engine.h ****       if (phase_ >= 1.0f) {
  69:eurorack/plaits/dsp/engine/swarm_engine.h ****         phase_ -= static_cast<float>(static_cast<int>(phase_));
  70:eurorack/plaits/dsp/engine/swarm_engine.h ****         randomize = true;
  71:eurorack/plaits/dsp/engine/swarm_engine.h ****       }
  72:eurorack/plaits/dsp/engine/swarm_engine.h ****     }
  73:eurorack/plaits/dsp/engine/swarm_engine.h ****     
  74:eurorack/plaits/dsp/engine/swarm_engine.h ****     if (randomize) {
  75:eurorack/plaits/dsp/engine/swarm_engine.h ****       from_ += interval_;
  76:eurorack/plaits/dsp/engine/swarm_engine.h ****       interval_ = stmlib::Random::GetFloat() - from_;
ARM GAS  /var/folders/9s/8rp0_f2s1n31qbztm3b5_fdh0000gn/T//ccF2jpeh.s 			page 4


  77:eurorack/plaits/dsp/engine/swarm_engine.h ****       // Randomize the duration of the grain.
  78:eurorack/plaits/dsp/engine/swarm_engine.h ****       if (burst_mode) {
  79:eurorack/plaits/dsp/engine/swarm_engine.h ****         fm_ *= 0.8f + 0.2f * stmlib::Random::GetFloat();
  80:eurorack/plaits/dsp/engine/swarm_engine.h ****       } else {
  81:eurorack/plaits/dsp/engine/swarm_engine.h ****         fm_ = 0.5f + 1.5f * stmlib::Random::GetFloat();
  82:eurorack/plaits/dsp/engine/swarm_engine.h ****       }
  83:eurorack/plaits/dsp/engine/swarm_engine.h ****     }
  84:eurorack/plaits/dsp/engine/swarm_engine.h ****   }
  85:eurorack/plaits/dsp/engine/swarm_engine.h ****   
  86:eurorack/plaits/dsp/engine/swarm_engine.h ****   inline float frequency(float size_ratio) const {
  87:eurorack/plaits/dsp/engine/swarm_engine.h ****     // We approximate two overlapping grains of frequencies f1 and f2
  88:eurorack/plaits/dsp/engine/swarm_engine.h ****     // By a continuous tone ramping from f1 to f2. This allows a continuous
  89:eurorack/plaits/dsp/engine/swarm_engine.h ****     // transition between the "grain cloud" and "swarm of glissandi" textures.
  90:eurorack/plaits/dsp/engine/swarm_engine.h ****     if (size_ratio < 1.0f) {
  91:eurorack/plaits/dsp/engine/swarm_engine.h ****       return 2.0f * (from_ + interval_ * phase_) - 1.0f;
  92:eurorack/plaits/dsp/engine/swarm_engine.h ****     } else {
  93:eurorack/plaits/dsp/engine/swarm_engine.h ****       return from_;
  94:eurorack/plaits/dsp/engine/swarm_engine.h ****     }
  95:eurorack/plaits/dsp/engine/swarm_engine.h ****   }
  96:eurorack/plaits/dsp/engine/swarm_engine.h ****   
  97:eurorack/plaits/dsp/engine/swarm_engine.h ****   inline float amplitude(float size_ratio) {
  98:eurorack/plaits/dsp/engine/swarm_engine.h ****     float target_amplitude = 1.0f;
  99:eurorack/plaits/dsp/engine/swarm_engine.h ****     if (size_ratio >= 1.0f) {
 100:eurorack/plaits/dsp/engine/swarm_engine.h ****       float phase = (phase_ - 0.5f) * size_ratio;
 101:eurorack/plaits/dsp/engine/swarm_engine.h ****       CONSTRAIN(phase, -1.0f, 1.0f);
 102:eurorack/plaits/dsp/engine/swarm_engine.h ****       float e = stmlib::InterpolateWrap(
 103:eurorack/plaits/dsp/engine/swarm_engine.h ****           lut_sine, 0.5f * phase + 1.25f, 1024.0f);
 104:eurorack/plaits/dsp/engine/swarm_engine.h ****       target_amplitude = 0.5f * (e + 1.0f);
 105:eurorack/plaits/dsp/engine/swarm_engine.h ****     }
 106:eurorack/plaits/dsp/engine/swarm_engine.h ****     
 107:eurorack/plaits/dsp/engine/swarm_engine.h ****     if ((size_ratio >= 1.0f) ^ (previous_size_ratio_ >= 1.0f)) {
 108:eurorack/plaits/dsp/engine/swarm_engine.h ****       filter_coefficient_ = 0.5f;
 109:eurorack/plaits/dsp/engine/swarm_engine.h ****     }
 110:eurorack/plaits/dsp/engine/swarm_engine.h ****     filter_coefficient_ *= 0.95f;
 111:eurorack/plaits/dsp/engine/swarm_engine.h ****     
 112:eurorack/plaits/dsp/engine/swarm_engine.h ****     previous_size_ratio_ = size_ratio;
 113:eurorack/plaits/dsp/engine/swarm_engine.h ****     ONE_POLE(amplitude_, target_amplitude, 0.5f - filter_coefficient_);
 114:eurorack/plaits/dsp/engine/swarm_engine.h ****     return amplitude_;
 115:eurorack/plaits/dsp/engine/swarm_engine.h ****   }
 116:eurorack/plaits/dsp/engine/swarm_engine.h ****   
 117:eurorack/plaits/dsp/engine/swarm_engine.h ****  private:
 118:eurorack/plaits/dsp/engine/swarm_engine.h ****   float from_;
 119:eurorack/plaits/dsp/engine/swarm_engine.h ****   float interval_;
 120:eurorack/plaits/dsp/engine/swarm_engine.h ****   float phase_;
 121:eurorack/plaits/dsp/engine/swarm_engine.h ****   float fm_;
 122:eurorack/plaits/dsp/engine/swarm_engine.h ****   float amplitude_;
 123:eurorack/plaits/dsp/engine/swarm_engine.h ****   float previous_size_ratio_;
 124:eurorack/plaits/dsp/engine/swarm_engine.h ****   float filter_coefficient_;
 125:eurorack/plaits/dsp/engine/swarm_engine.h ****   
 126:eurorack/plaits/dsp/engine/swarm_engine.h ****   DISALLOW_COPY_AND_ASSIGN(GrainEnvelope);
 127:eurorack/plaits/dsp/engine/swarm_engine.h **** };
 128:eurorack/plaits/dsp/engine/swarm_engine.h **** 
 129:eurorack/plaits/dsp/engine/swarm_engine.h **** class AdditiveSawOscillator {
 130:eurorack/plaits/dsp/engine/swarm_engine.h ****  public:
 131:eurorack/plaits/dsp/engine/swarm_engine.h ****   AdditiveSawOscillator() { }
 132:eurorack/plaits/dsp/engine/swarm_engine.h ****   ~AdditiveSawOscillator() { }
 133:eurorack/plaits/dsp/engine/swarm_engine.h **** 
ARM GAS  /var/folders/9s/8rp0_f2s1n31qbztm3b5_fdh0000gn/T//ccF2jpeh.s 			page 5


 134:eurorack/plaits/dsp/engine/swarm_engine.h ****   inline void Init() {
 135:eurorack/plaits/dsp/engine/swarm_engine.h ****     phase_ = 0.0f;
 136:eurorack/plaits/dsp/engine/swarm_engine.h ****     next_sample_ = 0.0f;
 137:eurorack/plaits/dsp/engine/swarm_engine.h ****     frequency_ = 0.01f;
 138:eurorack/plaits/dsp/engine/swarm_engine.h ****     gain_ = 0.0f;
 139:eurorack/plaits/dsp/engine/swarm_engine.h ****   }
 140:eurorack/plaits/dsp/engine/swarm_engine.h **** 
 141:eurorack/plaits/dsp/engine/swarm_engine.h ****   inline void Render(
 142:eurorack/plaits/dsp/engine/swarm_engine.h ****       float frequency,
 143:eurorack/plaits/dsp/engine/swarm_engine.h ****       float level,
 144:eurorack/plaits/dsp/engine/swarm_engine.h ****       float* out,
 145:eurorack/plaits/dsp/engine/swarm_engine.h ****       size_t size) {
 146:eurorack/plaits/dsp/engine/swarm_engine.h ****     if (frequency >= kMaxFrequency) {
 147:eurorack/plaits/dsp/engine/swarm_engine.h ****       frequency = kMaxFrequency;
 148:eurorack/plaits/dsp/engine/swarm_engine.h ****     }
 149:eurorack/plaits/dsp/engine/swarm_engine.h ****     stmlib::ParameterInterpolator fm(&frequency_, frequency, size);
 150:eurorack/plaits/dsp/engine/swarm_engine.h ****     stmlib::ParameterInterpolator gain(&gain_, level, size);
 151:eurorack/plaits/dsp/engine/swarm_engine.h **** 
 152:eurorack/plaits/dsp/engine/swarm_engine.h ****     float next_sample = next_sample_;
 153:eurorack/plaits/dsp/engine/swarm_engine.h ****     float phase = phase_;
 154:eurorack/plaits/dsp/engine/swarm_engine.h **** 
 155:eurorack/plaits/dsp/engine/swarm_engine.h ****     while (size--) {
 156:eurorack/plaits/dsp/engine/swarm_engine.h ****       float this_sample = next_sample;
 157:eurorack/plaits/dsp/engine/swarm_engine.h ****       next_sample = 0.0f;
 158:eurorack/plaits/dsp/engine/swarm_engine.h **** 
 159:eurorack/plaits/dsp/engine/swarm_engine.h ****       const float frequency = fm.Next();
 160:eurorack/plaits/dsp/engine/swarm_engine.h **** 
 161:eurorack/plaits/dsp/engine/swarm_engine.h ****       phase += frequency;
 162:eurorack/plaits/dsp/engine/swarm_engine.h ****   
 163:eurorack/plaits/dsp/engine/swarm_engine.h ****       if (phase >= 1.0f) {
 164:eurorack/plaits/dsp/engine/swarm_engine.h ****         phase -= 1.0f;
 165:eurorack/plaits/dsp/engine/swarm_engine.h ****         float t = phase / frequency;
 166:eurorack/plaits/dsp/engine/swarm_engine.h ****         this_sample -= stmlib::ThisBlepSample(t);
 167:eurorack/plaits/dsp/engine/swarm_engine.h ****         next_sample -= stmlib::NextBlepSample(t);
 168:eurorack/plaits/dsp/engine/swarm_engine.h ****       }
 169:eurorack/plaits/dsp/engine/swarm_engine.h **** 
 170:eurorack/plaits/dsp/engine/swarm_engine.h ****       next_sample += phase;
 171:eurorack/plaits/dsp/engine/swarm_engine.h ****       *out++ += (2.0f * this_sample - 1.0f) * gain.Next();
 172:eurorack/plaits/dsp/engine/swarm_engine.h ****     }
 173:eurorack/plaits/dsp/engine/swarm_engine.h ****     phase_ = phase;
 174:eurorack/plaits/dsp/engine/swarm_engine.h ****     next_sample_ = next_sample;
 175:eurorack/plaits/dsp/engine/swarm_engine.h ****   }
 176:eurorack/plaits/dsp/engine/swarm_engine.h **** 
 177:eurorack/plaits/dsp/engine/swarm_engine.h ****  private:
 178:eurorack/plaits/dsp/engine/swarm_engine.h ****   // Oscillator state.
 179:eurorack/plaits/dsp/engine/swarm_engine.h ****   float phase_;
 180:eurorack/plaits/dsp/engine/swarm_engine.h ****   float next_sample_;
 181:eurorack/plaits/dsp/engine/swarm_engine.h **** 
 182:eurorack/plaits/dsp/engine/swarm_engine.h ****   // For interpolation of parameters.
 183:eurorack/plaits/dsp/engine/swarm_engine.h ****   float frequency_;
 184:eurorack/plaits/dsp/engine/swarm_engine.h ****   float gain_;
 185:eurorack/plaits/dsp/engine/swarm_engine.h **** 
 186:eurorack/plaits/dsp/engine/swarm_engine.h ****   DISALLOW_COPY_AND_ASSIGN(AdditiveSawOscillator);
 187:eurorack/plaits/dsp/engine/swarm_engine.h **** };
 188:eurorack/plaits/dsp/engine/swarm_engine.h **** 
 189:eurorack/plaits/dsp/engine/swarm_engine.h **** class SwarmVoice {
 190:eurorack/plaits/dsp/engine/swarm_engine.h ****  public:
ARM GAS  /var/folders/9s/8rp0_f2s1n31qbztm3b5_fdh0000gn/T//ccF2jpeh.s 			page 6


 191:eurorack/plaits/dsp/engine/swarm_engine.h ****   SwarmVoice() { }
 192:eurorack/plaits/dsp/engine/swarm_engine.h ****   ~SwarmVoice() { }
 193:eurorack/plaits/dsp/engine/swarm_engine.h ****   
 194:eurorack/plaits/dsp/engine/swarm_engine.h ****   void Init(float rank) {
  54              		.loc 2 194 8 discriminator 2 view .LVU8
  55              	.LBB80:
 195:eurorack/plaits/dsp/engine/swarm_engine.h ****     rank_ = rank;
  56              		.loc 2 195 5 discriminator 2 view .LVU9
  57              	.LBE80:
  58              	.LBE79:
  41:eurorack/plaits/dsp/engine/swarm_engine.cc ****     swarm_voice_[i].Init(rank);
  59              		.loc 1 41 19 is_stmt 0 discriminator 2 view .LVU10
  60 0004 07EE902A 		vmov	s15, r2	@ int
  41:eurorack/plaits/dsp/engine/swarm_engine.cc ****     swarm_voice_[i].Init(rank);
  61              		.loc 1 41 41 discriminator 2 view .LVU11
  62 0008 B0EE087A 		vmov.f32	s14, #3.0e+0
  63              	.LBB109:
  64              	.LBB103:
  65              	.LBB81:
  66              	.LBB82:
  56:eurorack/plaits/dsp/engine/swarm_engine.h ****     previous_size_ratio_ = 0.0f;
  67              		.loc 2 56 16 discriminator 2 view .LVU12
  68 000c 4FF07C54 		mov	r4, #1056964608
  69              	.LBE82:
  70              	.LBE81:
  71              	.LBE103:
  72              	.LBE109:
  73              	.LBE78:
  40:eurorack/plaits/dsp/engine/swarm_engine.cc ****     float rank = (static_cast<float>(i) - n) / n;
  74              		.loc 1 40 3 discriminator 2 view .LVU13
  75 0010 0132     		adds	r2, r2, #1
  76              	.LVL2:
  77              	.LBB115:
  41:eurorack/plaits/dsp/engine/swarm_engine.cc ****     swarm_voice_[i].Init(rank);
  78              		.loc 1 41 19 discriminator 2 view .LVU14
  79 0012 F8EEE77A 		vcvt.f32.s32	s15, s15
  80              	.LVL3:
  81              	.LBB110:
  82              	.LBB104:
  83              	.LBB88:
  84              	.LBB83:
  52:eurorack/plaits/dsp/engine/swarm_engine.h ****     interval_ = 1.0f;
  85              		.loc 2 52 11 discriminator 2 view .LVU15
  86 0016 0023     		movs	r3, #0
  53:eurorack/plaits/dsp/engine/swarm_engine.h ****     phase_ = 1.0f;
  87              		.loc 2 53 15 discriminator 2 view .LVU16
  88 0018 4FF07E51 		mov	r1, #1065353216
  56:eurorack/plaits/dsp/engine/swarm_engine.h ****     previous_size_ratio_ = 0.0f;
  89              		.loc 2 56 16 discriminator 2 view .LVU17
  90 001c 4462     		str	r4, [r0, #36]	@ float
  91              	.LBE83:
  92              	.LBE88:
  93              	.LBE104:
  94              	.LBE110:
  95              	.LBE115:
  40:eurorack/plaits/dsp/engine/swarm_engine.cc ****     float rank = (static_cast<float>(i) - n) / n;
  96              		.loc 1 40 21 discriminator 2 view .LVU18
ARM GAS  /var/folders/9s/8rp0_f2s1n31qbztm3b5_fdh0000gn/T//ccF2jpeh.s 			page 7


  97 001e 082A     		cmp	r2, #8
  98              	.LBB116:
  99              	.LBB111:
 100              	.LBB105:
 101              	.LBB89:
 102              	.LBB90:
 137:eurorack/plaits/dsp/engine/swarm_engine.h ****     gain_ = 0.0f;
 103              		.loc 2 137 16 discriminator 2 view .LVU19
 104 0020 0F4C     		ldr	r4, .L4
 105              	.LBE90:
 106              	.LBE89:
 107              	.LBE105:
 108              	.LBE111:
  41:eurorack/plaits/dsp/engine/swarm_engine.cc ****     swarm_voice_[i].Init(rank);
 109              		.loc 1 41 41 discriminator 2 view .LVU20
 110 0022 77EEC77A 		vsub.f32	s15, s15, s14
 111              	.LBB112:
 112              	.LBB106:
 113              	.LBB93:
 114              	.LBB84:
  52:eurorack/plaits/dsp/engine/swarm_engine.h ****     interval_ = 1.0f;
 115              		.loc 2 52 11 discriminator 2 view .LVU21
 116 0026 4361     		str	r3, [r0, #20]	@ float
  53:eurorack/plaits/dsp/engine/swarm_engine.h ****     phase_ = 1.0f;
 117              		.loc 2 53 15 discriminator 2 view .LVU22
 118 0028 8161     		str	r1, [r0, #24]	@ float
 119              	.LBE84:
 120              	.LBE93:
 121              	.LBE106:
 122              	.LBE112:
 123              	.LBE116:
  40:eurorack/plaits/dsp/engine/swarm_engine.cc ****     float rank = (static_cast<float>(i) - n) / n;
 124              		.loc 1 40 21 discriminator 2 view .LVU23
 125 002a 00F14000 		add	r0, r0, #64
 126              	.LVL4:
 127              	.LBB117:
 128              	.LBB113:
 129              	.LBB107:
 130              	.LBB94:
 131              	.LBB85:
  54:eurorack/plaits/dsp/engine/swarm_engine.h ****     fm_ = 0.0f;
 132              		.loc 2 54 12 discriminator 2 view .LVU24
 133 002e 40F8241C 		str	r1, [r0, #-36]	@ float
 134              	.LBE85:
 135              	.LBE94:
 136              	.LBE107:
 137              	.LBE113:
  41:eurorack/plaits/dsp/engine/swarm_engine.cc ****     swarm_voice_[i].Init(rank);
 138              		.loc 1 41 11 discriminator 2 view .LVU25
 139 0032 C7EE876A 		vdiv.f32	s13, s15, s14
 140              	.LVL5:
 141              	.LBB114:
 142              	.LBB108:
 143              	.LBB95:
 144              	.LBB86:
  55:eurorack/plaits/dsp/engine/swarm_engine.h ****     amplitude_ = 0.5f;
 145              		.loc 2 55 9 discriminator 2 view .LVU26
ARM GAS  /var/folders/9s/8rp0_f2s1n31qbztm3b5_fdh0000gn/T//ccF2jpeh.s 			page 8


 146 0036 40F8203C 		str	r3, [r0, #-32]	@ float
  57:eurorack/plaits/dsp/engine/swarm_engine.h ****   }
 147              		.loc 2 57 26 discriminator 2 view .LVU27
 148 003a 40F8183C 		str	r3, [r0, #-24]	@ float
 149              	.LBE86:
 150              	.LBE95:
 151              	.LBB96:
 152              	.LBB91:
 135:eurorack/plaits/dsp/engine/swarm_engine.h ****     next_sample_ = 0.0f;
 153              		.loc 2 135 12 discriminator 2 view .LVU28
 154 003e 40F8103C 		str	r3, [r0, #-16]	@ float
 136:eurorack/plaits/dsp/engine/swarm_engine.h ****     frequency_ = 0.01f;
 155              		.loc 2 136 18 discriminator 2 view .LVU29
 156 0042 40F80C3C 		str	r3, [r0, #-12]	@ float
 137:eurorack/plaits/dsp/engine/swarm_engine.h ****     gain_ = 0.0f;
 157              		.loc 2 137 16 discriminator 2 view .LVU30
 158 0046 40F8084C 		str	r4, [r0, #-8]	@ float
 138:eurorack/plaits/dsp/engine/swarm_engine.h ****   }
 159              		.loc 2 138 11 discriminator 2 view .LVU31
 160 004a 40F8043C 		str	r3, [r0, #-4]	@ float
 161              	.LBE91:
 162              	.LBE96:
 163              	.LBB97:
 164              	.LBB98:
 165              		.file 3 "eurorack/plaits/dsp/oscillator/sine_oscillator.h"
   1:eurorack/plaits/dsp/oscillator/sine_oscillator.h **** // Copyright 2016 Emilie Gillet.
   2:eurorack/plaits/dsp/oscillator/sine_oscillator.h **** //
   3:eurorack/plaits/dsp/oscillator/sine_oscillator.h **** // Author: Emilie Gillet (emilie.o.gillet@gmail.com)
   4:eurorack/plaits/dsp/oscillator/sine_oscillator.h **** //
   5:eurorack/plaits/dsp/oscillator/sine_oscillator.h **** // Permission is hereby granted, free of charge, to any person obtaining a copy
   6:eurorack/plaits/dsp/oscillator/sine_oscillator.h **** // of this software and associated documentation files (the "Software"), to deal
   7:eurorack/plaits/dsp/oscillator/sine_oscillator.h **** // in the Software without restriction, including without limitation the rights
   8:eurorack/plaits/dsp/oscillator/sine_oscillator.h **** // to use, copy, modify, merge, publish, distribute, sublicense, and/or sell
   9:eurorack/plaits/dsp/oscillator/sine_oscillator.h **** // copies of the Software, and to permit persons to whom the Software is
  10:eurorack/plaits/dsp/oscillator/sine_oscillator.h **** // furnished to do so, subject to the following conditions:
  11:eurorack/plaits/dsp/oscillator/sine_oscillator.h **** // 
  12:eurorack/plaits/dsp/oscillator/sine_oscillator.h **** // The above copyright notice and this permission notice shall be included in
  13:eurorack/plaits/dsp/oscillator/sine_oscillator.h **** // all copies or substantial portions of the Software.
  14:eurorack/plaits/dsp/oscillator/sine_oscillator.h **** // 
  15:eurorack/plaits/dsp/oscillator/sine_oscillator.h **** // THE SOFTWARE IS PROVIDED "AS IS", WITHOUT WARRANTY OF ANY KIND, EXPRESS OR
  16:eurorack/plaits/dsp/oscillator/sine_oscillator.h **** // IMPLIED, INCLUDING BUT NOT LIMITED TO THE WARRANTIES OF MERCHANTABILITY,
  17:eurorack/plaits/dsp/oscillator/sine_oscillator.h **** // FITNESS FOR A PARTICULAR PURPOSE AND NONINFRINGEMENT. IN NO EVENT SHALL THE
  18:eurorack/plaits/dsp/oscillator/sine_oscillator.h **** // AUTHORS OR COPYRIGHT HOLDERS BE LIABLE FOR ANY CLAIM, DAMAGES OR OTHER
  19:eurorack/plaits/dsp/oscillator/sine_oscillator.h **** // LIABILITY, WHETHER IN AN ACTION OF CONTRACT, TORT OR OTHERWISE, ARISING FROM,
  20:eurorack/plaits/dsp/oscillator/sine_oscillator.h **** // OUT OF OR IN CONNECTION WITH THE SOFTWARE OR THE USE OR OTHER DEALINGS IN
  21:eurorack/plaits/dsp/oscillator/sine_oscillator.h **** // THE SOFTWARE.
  22:eurorack/plaits/dsp/oscillator/sine_oscillator.h **** // 
  23:eurorack/plaits/dsp/oscillator/sine_oscillator.h **** // See http://creativecommons.org/licenses/MIT/ for more information.
  24:eurorack/plaits/dsp/oscillator/sine_oscillator.h **** //
  25:eurorack/plaits/dsp/oscillator/sine_oscillator.h **** // -----------------------------------------------------------------------------
  26:eurorack/plaits/dsp/oscillator/sine_oscillator.h **** //
  27:eurorack/plaits/dsp/oscillator/sine_oscillator.h **** // Simple sine oscillator (wavetable) + fast sine oscillator (magic circle).
  28:eurorack/plaits/dsp/oscillator/sine_oscillator.h **** //
  29:eurorack/plaits/dsp/oscillator/sine_oscillator.h **** // The fast implementation might glitch a bit under heavy modulations of the
  30:eurorack/plaits/dsp/oscillator/sine_oscillator.h **** // frequency.
  31:eurorack/plaits/dsp/oscillator/sine_oscillator.h **** 
  32:eurorack/plaits/dsp/oscillator/sine_oscillator.h **** #ifndef PLAITS_DSP_OSCILLATOR_SINE_OSCILLATOR_H_
ARM GAS  /var/folders/9s/8rp0_f2s1n31qbztm3b5_fdh0000gn/T//ccF2jpeh.s 			page 9


  33:eurorack/plaits/dsp/oscillator/sine_oscillator.h **** #define PLAITS_DSP_OSCILLATOR_SINE_OSCILLATOR_H_
  34:eurorack/plaits/dsp/oscillator/sine_oscillator.h **** 
  35:eurorack/plaits/dsp/oscillator/sine_oscillator.h **** #include "stmlib/dsp/dsp.h"
  36:eurorack/plaits/dsp/oscillator/sine_oscillator.h **** #include "stmlib/dsp/parameter_interpolator.h"
  37:eurorack/plaits/dsp/oscillator/sine_oscillator.h **** #include "stmlib/dsp/rsqrt.h"
  38:eurorack/plaits/dsp/oscillator/sine_oscillator.h **** 
  39:eurorack/plaits/dsp/oscillator/sine_oscillator.h **** #include "plaits/resources.h"
  40:eurorack/plaits/dsp/oscillator/sine_oscillator.h **** 
  41:eurorack/plaits/dsp/oscillator/sine_oscillator.h **** namespace plaits {
  42:eurorack/plaits/dsp/oscillator/sine_oscillator.h **** 
  43:eurorack/plaits/dsp/oscillator/sine_oscillator.h **** class SineOscillator {
  44:eurorack/plaits/dsp/oscillator/sine_oscillator.h ****  public:
  45:eurorack/plaits/dsp/oscillator/sine_oscillator.h ****   SineOscillator() { }
  46:eurorack/plaits/dsp/oscillator/sine_oscillator.h ****   ~SineOscillator() { }
  47:eurorack/plaits/dsp/oscillator/sine_oscillator.h **** 
  48:eurorack/plaits/dsp/oscillator/sine_oscillator.h ****   void Init() {
  49:eurorack/plaits/dsp/oscillator/sine_oscillator.h ****     phase_ = 0.0f;
  50:eurorack/plaits/dsp/oscillator/sine_oscillator.h ****     frequency_ = 0.0f;
  51:eurorack/plaits/dsp/oscillator/sine_oscillator.h ****     amplitude_ = 0.0f;
  52:eurorack/plaits/dsp/oscillator/sine_oscillator.h ****   }
  53:eurorack/plaits/dsp/oscillator/sine_oscillator.h ****   
  54:eurorack/plaits/dsp/oscillator/sine_oscillator.h ****   inline float Next(float frequency) {
  55:eurorack/plaits/dsp/oscillator/sine_oscillator.h ****     if (frequency >= 0.5f) {
  56:eurorack/plaits/dsp/oscillator/sine_oscillator.h ****       frequency = 0.5f;
  57:eurorack/plaits/dsp/oscillator/sine_oscillator.h ****     }
  58:eurorack/plaits/dsp/oscillator/sine_oscillator.h ****     
  59:eurorack/plaits/dsp/oscillator/sine_oscillator.h ****     phase_ += frequency;
  60:eurorack/plaits/dsp/oscillator/sine_oscillator.h ****     if (phase_ >= 1.0f) {
  61:eurorack/plaits/dsp/oscillator/sine_oscillator.h ****       phase_ -= 1.0f;
  62:eurorack/plaits/dsp/oscillator/sine_oscillator.h ****     }
  63:eurorack/plaits/dsp/oscillator/sine_oscillator.h ****     
  64:eurorack/plaits/dsp/oscillator/sine_oscillator.h ****     return stmlib::Interpolate(lut_sine, phase_, 1024.0f);
  65:eurorack/plaits/dsp/oscillator/sine_oscillator.h ****   }
  66:eurorack/plaits/dsp/oscillator/sine_oscillator.h ****   
  67:eurorack/plaits/dsp/oscillator/sine_oscillator.h ****   inline void Next(float frequency, float amplitude, float* sin, float* cos) {
  68:eurorack/plaits/dsp/oscillator/sine_oscillator.h ****     if (frequency >= 0.5f) {
  69:eurorack/plaits/dsp/oscillator/sine_oscillator.h ****       frequency = 0.5f;
  70:eurorack/plaits/dsp/oscillator/sine_oscillator.h ****     }
  71:eurorack/plaits/dsp/oscillator/sine_oscillator.h ****     
  72:eurorack/plaits/dsp/oscillator/sine_oscillator.h ****     phase_ += frequency;
  73:eurorack/plaits/dsp/oscillator/sine_oscillator.h ****     if (phase_ >= 1.0f) {
  74:eurorack/plaits/dsp/oscillator/sine_oscillator.h ****       phase_ -= 1.0f;
  75:eurorack/plaits/dsp/oscillator/sine_oscillator.h ****     }
  76:eurorack/plaits/dsp/oscillator/sine_oscillator.h ****     
  77:eurorack/plaits/dsp/oscillator/sine_oscillator.h ****     *sin = amplitude * stmlib::Interpolate(lut_sine, phase_, 1024.0f);
  78:eurorack/plaits/dsp/oscillator/sine_oscillator.h ****     *cos = amplitude * stmlib::Interpolate(lut_sine + 256, phase_, 1024.0f);
  79:eurorack/plaits/dsp/oscillator/sine_oscillator.h ****   }
  80:eurorack/plaits/dsp/oscillator/sine_oscillator.h ****   
  81:eurorack/plaits/dsp/oscillator/sine_oscillator.h ****   void Render(float frequency, float amplitude, float* out, size_t size) {
  82:eurorack/plaits/dsp/oscillator/sine_oscillator.h ****     RenderInternal<true>(frequency, amplitude, out, size);
  83:eurorack/plaits/dsp/oscillator/sine_oscillator.h ****   }
  84:eurorack/plaits/dsp/oscillator/sine_oscillator.h ****   
  85:eurorack/plaits/dsp/oscillator/sine_oscillator.h ****   void Render(float frequency, float* out, size_t size) {
  86:eurorack/plaits/dsp/oscillator/sine_oscillator.h ****     RenderInternal<false>(frequency, 1.0f, out, size);
  87:eurorack/plaits/dsp/oscillator/sine_oscillator.h ****   }
  88:eurorack/plaits/dsp/oscillator/sine_oscillator.h **** 
  89:eurorack/plaits/dsp/oscillator/sine_oscillator.h ****  private:
ARM GAS  /var/folders/9s/8rp0_f2s1n31qbztm3b5_fdh0000gn/T//ccF2jpeh.s 			page 10


  90:eurorack/plaits/dsp/oscillator/sine_oscillator.h ****   template<bool additive>
  91:eurorack/plaits/dsp/oscillator/sine_oscillator.h ****   void RenderInternal(
  92:eurorack/plaits/dsp/oscillator/sine_oscillator.h ****       float frequency, float amplitude, float* out, size_t size) {
  93:eurorack/plaits/dsp/oscillator/sine_oscillator.h ****     if (frequency >= 0.5f) {
  94:eurorack/plaits/dsp/oscillator/sine_oscillator.h ****       frequency = 0.5f;
  95:eurorack/plaits/dsp/oscillator/sine_oscillator.h ****     }
  96:eurorack/plaits/dsp/oscillator/sine_oscillator.h ****     stmlib::ParameterInterpolator fm(&frequency_, frequency, size);
  97:eurorack/plaits/dsp/oscillator/sine_oscillator.h ****     stmlib::ParameterInterpolator am(&amplitude_, amplitude, size);
  98:eurorack/plaits/dsp/oscillator/sine_oscillator.h **** 
  99:eurorack/plaits/dsp/oscillator/sine_oscillator.h ****     while (size--) {
 100:eurorack/plaits/dsp/oscillator/sine_oscillator.h ****       phase_ += fm.Next();
 101:eurorack/plaits/dsp/oscillator/sine_oscillator.h ****       if (phase_ >= 1.0f) {
 102:eurorack/plaits/dsp/oscillator/sine_oscillator.h ****         phase_ -= 1.0f;
 103:eurorack/plaits/dsp/oscillator/sine_oscillator.h ****       }
 104:eurorack/plaits/dsp/oscillator/sine_oscillator.h ****       float s = stmlib::Interpolate(lut_sine, phase_, 1024.0f);
 105:eurorack/plaits/dsp/oscillator/sine_oscillator.h ****       if (additive) {
 106:eurorack/plaits/dsp/oscillator/sine_oscillator.h ****         *out++ += am.Next() * s;
 107:eurorack/plaits/dsp/oscillator/sine_oscillator.h ****       } else {
 108:eurorack/plaits/dsp/oscillator/sine_oscillator.h ****         *out++ = s;
 109:eurorack/plaits/dsp/oscillator/sine_oscillator.h ****       }
 110:eurorack/plaits/dsp/oscillator/sine_oscillator.h ****     }
 111:eurorack/plaits/dsp/oscillator/sine_oscillator.h ****   }
 112:eurorack/plaits/dsp/oscillator/sine_oscillator.h ****   
 113:eurorack/plaits/dsp/oscillator/sine_oscillator.h ****   // Oscillator state.
 114:eurorack/plaits/dsp/oscillator/sine_oscillator.h ****   float phase_;
 115:eurorack/plaits/dsp/oscillator/sine_oscillator.h **** 
 116:eurorack/plaits/dsp/oscillator/sine_oscillator.h ****   // For interpolation of parameters.
 117:eurorack/plaits/dsp/oscillator/sine_oscillator.h ****   float frequency_;
 118:eurorack/plaits/dsp/oscillator/sine_oscillator.h ****   float amplitude_;
 119:eurorack/plaits/dsp/oscillator/sine_oscillator.h ****   
 120:eurorack/plaits/dsp/oscillator/sine_oscillator.h ****   DISALLOW_COPY_AND_ASSIGN(SineOscillator);
 121:eurorack/plaits/dsp/oscillator/sine_oscillator.h **** };
 122:eurorack/plaits/dsp/oscillator/sine_oscillator.h **** 
 123:eurorack/plaits/dsp/oscillator/sine_oscillator.h **** class FastSineOscillator {
 124:eurorack/plaits/dsp/oscillator/sine_oscillator.h ****  public:
 125:eurorack/plaits/dsp/oscillator/sine_oscillator.h ****   FastSineOscillator() { }
 126:eurorack/plaits/dsp/oscillator/sine_oscillator.h ****   ~FastSineOscillator() { }
 127:eurorack/plaits/dsp/oscillator/sine_oscillator.h **** 
 128:eurorack/plaits/dsp/oscillator/sine_oscillator.h ****   void Init() {
 129:eurorack/plaits/dsp/oscillator/sine_oscillator.h ****     x_ = 1.0f;
 166              		.loc 3 129 8 discriminator 2 view .LVU32
 167 004e 0160     		str	r1, [r0]	@ float
 130:eurorack/plaits/dsp/oscillator/sine_oscillator.h ****     y_ = 0.0f;
 168              		.loc 3 130 8 discriminator 2 view .LVU33
 169 0050 4360     		str	r3, [r0, #4]	@ float
 131:eurorack/plaits/dsp/oscillator/sine_oscillator.h ****     epsilon_ = 0.0f;
 170              		.loc 3 131 14 discriminator 2 view .LVU34
 171 0052 8360     		str	r3, [r0, #8]	@ float
 132:eurorack/plaits/dsp/oscillator/sine_oscillator.h ****     amplitude_ = 0.0f;
 172              		.loc 3 132 16 discriminator 2 view .LVU35
 173 0054 C360     		str	r3, [r0, #12]	@ float
 174              	.LBE98:
 175              	.LBE97:
 176              		.loc 2 195 11 discriminator 2 view .LVU36
 177 0056 40ED0C6A 		vstr.32	s13, [r0, #-48]
 196:eurorack/plaits/dsp/engine/swarm_engine.h ****     envelope_.Init();
 178              		.loc 2 196 5 is_stmt 1 discriminator 2 view .LVU37
ARM GAS  /var/folders/9s/8rp0_f2s1n31qbztm3b5_fdh0000gn/T//ccF2jpeh.s 			page 11


 179              	.LVL6:
 180              	.LBB100:
 181              	.LBI81:
  51:eurorack/plaits/dsp/engine/swarm_engine.h ****     from_ = 0.0f;
 182              		.loc 2 51 8 discriminator 2 view .LVU38
 183              	.LBB87:
  52:eurorack/plaits/dsp/engine/swarm_engine.h ****     interval_ = 1.0f;
 184              		.loc 2 52 5 discriminator 2 view .LVU39
  53:eurorack/plaits/dsp/engine/swarm_engine.h ****     phase_ = 1.0f;
 185              		.loc 2 53 5 discriminator 2 view .LVU40
  54:eurorack/plaits/dsp/engine/swarm_engine.h ****     fm_ = 0.0f;
 186              		.loc 2 54 5 discriminator 2 view .LVU41
  55:eurorack/plaits/dsp/engine/swarm_engine.h ****     amplitude_ = 0.5f;
 187              		.loc 2 55 5 discriminator 2 view .LVU42
  56:eurorack/plaits/dsp/engine/swarm_engine.h ****     previous_size_ratio_ = 0.0f;
 188              		.loc 2 56 5 discriminator 2 view .LVU43
  57:eurorack/plaits/dsp/engine/swarm_engine.h ****   }
 189              		.loc 2 57 5 discriminator 2 view .LVU44
  57:eurorack/plaits/dsp/engine/swarm_engine.h ****   }
 190              		.loc 2 57 5 is_stmt 0 discriminator 2 view .LVU45
 191              	.LBE87:
 192              	.LBE100:
 197:eurorack/plaits/dsp/engine/swarm_engine.h ****     saw_.Init();
 193              		.loc 2 197 5 is_stmt 1 discriminator 2 view .LVU46
 194              	.LBB101:
 195              	.LBI89:
 134:eurorack/plaits/dsp/engine/swarm_engine.h ****     phase_ = 0.0f;
 196              		.loc 2 134 15 discriminator 2 view .LVU47
 197              	.LBB92:
 135:eurorack/plaits/dsp/engine/swarm_engine.h ****     next_sample_ = 0.0f;
 198              		.loc 2 135 5 discriminator 2 view .LVU48
 136:eurorack/plaits/dsp/engine/swarm_engine.h ****     frequency_ = 0.01f;
 199              		.loc 2 136 5 discriminator 2 view .LVU49
 137:eurorack/plaits/dsp/engine/swarm_engine.h ****     gain_ = 0.0f;
 200              		.loc 2 137 5 discriminator 2 view .LVU50
 138:eurorack/plaits/dsp/engine/swarm_engine.h ****   }
 201              		.loc 2 138 5 discriminator 2 view .LVU51
 138:eurorack/plaits/dsp/engine/swarm_engine.h ****   }
 202              		.loc 2 138 5 is_stmt 0 discriminator 2 view .LVU52
 203              	.LBE92:
 204              	.LBE101:
 198:eurorack/plaits/dsp/engine/swarm_engine.h ****     sine_.Init();
 205              		.loc 2 198 5 is_stmt 1 discriminator 2 view .LVU53
 206              	.LBB102:
 207              	.LBI97:
 128:eurorack/plaits/dsp/oscillator/sine_oscillator.h ****     x_ = 1.0f;
 208              		.loc 3 128 8 discriminator 2 view .LVU54
 209              	.LBB99:
 129:eurorack/plaits/dsp/oscillator/sine_oscillator.h ****     y_ = 0.0f;
 210              		.loc 3 129 5 discriminator 2 view .LVU55
 130:eurorack/plaits/dsp/oscillator/sine_oscillator.h ****     epsilon_ = 0.0f;
 211              		.loc 3 130 5 discriminator 2 view .LVU56
 131:eurorack/plaits/dsp/oscillator/sine_oscillator.h ****     amplitude_ = 0.0f;
 212              		.loc 3 131 5 discriminator 2 view .LVU57
 213              		.loc 3 132 5 discriminator 2 view .LVU58
 214              		.loc 3 132 5 is_stmt 0 discriminator 2 view .LVU59
 215              	.LBE99:
ARM GAS  /var/folders/9s/8rp0_f2s1n31qbztm3b5_fdh0000gn/T//ccF2jpeh.s 			page 12


 216              	.LBE102:
 217              	.LBE108:
 218              	.LBE114:
 219              	.LBE117:
  40:eurorack/plaits/dsp/engine/swarm_engine.cc ****     float rank = (static_cast<float>(i) - n) / n;
 220              		.loc 1 40 3 is_stmt 1 discriminator 2 view .LVU60
  40:eurorack/plaits/dsp/engine/swarm_engine.cc ****     float rank = (static_cast<float>(i) - n) / n;
 221              		.loc 1 40 21 discriminator 2 view .LVU61
 222 005a D3D1     		bne	.L2
 223              	.LBE118:
  43:eurorack/plaits/dsp/engine/swarm_engine.cc ****   }
  44:eurorack/plaits/dsp/engine/swarm_engine.cc **** }
 224              		.loc 1 44 1 is_stmt 0 view .LVU62
 225 005c 10BD     		pop	{r4, pc}
 226              	.L5:
 227 005e 00BF     		.align	2
 228              	.L4:
 229 0060 0AD7233C 		.word	1008981770
 230              		.cfi_endproc
 231              	.LFE1525:
 233              		.section	.text._ZN6plaits11SwarmEngine5ResetEv,"ax",%progbits
 234              		.align	1
 235              		.global	_ZN6plaits11SwarmEngine5ResetEv
 236              		.syntax unified
 237              		.thumb
 238              		.thumb_func
 240              	_ZN6plaits11SwarmEngine5ResetEv:
 241              	.LVL7:
 242              	.LFB1526:
  45:eurorack/plaits/dsp/engine/swarm_engine.cc **** 
  46:eurorack/plaits/dsp/engine/swarm_engine.cc **** void SwarmEngine::Reset() { }
 243              		.loc 1 46 27 is_stmt 1 view -0
 244              		.cfi_startproc
 245              		@ args = 0, pretend = 0, frame = 0
 246              		@ frame_needed = 0, uses_anonymous_args = 0
 247              		@ link register save eliminated.
 248              		.loc 1 46 29 is_stmt 0 view .LVU64
 249 0000 7047     		bx	lr
 250              		.cfi_endproc
 251              	.LFE1526:
 253              		.section	.text._ZN6stmlib16SemitonesToRatioEf,"axG",%progbits,_ZN6stmlib16SemitonesToRatioEf,comda
 254              		.align	1
 255              		.weak	_ZN6stmlib16SemitonesToRatioEf
 256              		.syntax unified
 257              		.thumb
 258              		.thumb_func
 260              	_ZN6stmlib16SemitonesToRatioEf:
 261              	.LVL8:
 262              	.LFB560:
 263              		.file 4 "eurorack/stmlib/dsp/units.h"
   1:eurorack/stmlib/dsp/units.h **** // Copyright 2014 Emilie Gillet.
   2:eurorack/stmlib/dsp/units.h **** //
   3:eurorack/stmlib/dsp/units.h **** // Author: Emilie Gillet (emilie.o.gillet@gmail.com)
   4:eurorack/stmlib/dsp/units.h **** //
   5:eurorack/stmlib/dsp/units.h **** // Permission is hereby granted, free of charge, to any person obtaining a copy
   6:eurorack/stmlib/dsp/units.h **** // of this software and associated documentation files (the "Software"), to deal
   7:eurorack/stmlib/dsp/units.h **** // in the Software without restriction, including without limitation the rights
ARM GAS  /var/folders/9s/8rp0_f2s1n31qbztm3b5_fdh0000gn/T//ccF2jpeh.s 			page 13


   8:eurorack/stmlib/dsp/units.h **** // to use, copy, modify, merge, publish, distribute, sublicense, and/or sell
   9:eurorack/stmlib/dsp/units.h **** // copies of the Software, and to permit persons to whom the Software is
  10:eurorack/stmlib/dsp/units.h **** // furnished to do so, subject to the following conditions:
  11:eurorack/stmlib/dsp/units.h **** // 
  12:eurorack/stmlib/dsp/units.h **** // The above copyright notice and this permission notice shall be included in
  13:eurorack/stmlib/dsp/units.h **** // all copies or substantial portions of the Software.
  14:eurorack/stmlib/dsp/units.h **** // 
  15:eurorack/stmlib/dsp/units.h **** // THE SOFTWARE IS PROVIDED "AS IS", WITHOUT WARRANTY OF ANY KIND, EXPRESS OR
  16:eurorack/stmlib/dsp/units.h **** // IMPLIED, INCLUDING BUT NOT LIMITED TO THE WARRANTIES OF MERCHANTABILITY,
  17:eurorack/stmlib/dsp/units.h **** // FITNESS FOR A PARTICULAR PURPOSE AND NONINFRINGEMENT. IN NO EVENT SHALL THE
  18:eurorack/stmlib/dsp/units.h **** // AUTHORS OR COPYRIGHT HOLDERS BE LIABLE FOR ANY CLAIM, DAMAGES OR OTHER
  19:eurorack/stmlib/dsp/units.h **** // LIABILITY, WHETHER IN AN ACTION OF CONTRACT, TORT OR OTHERWISE, ARISING FROM,
  20:eurorack/stmlib/dsp/units.h **** // OUT OF OR IN CONNECTION WITH THE SOFTWARE OR THE USE OR OTHER DEALINGS IN
  21:eurorack/stmlib/dsp/units.h **** // THE SOFTWARE.
  22:eurorack/stmlib/dsp/units.h **** // 
  23:eurorack/stmlib/dsp/units.h **** // See http://creativecommons.org/licenses/MIT/ for more information.
  24:eurorack/stmlib/dsp/units.h **** //
  25:eurorack/stmlib/dsp/units.h **** // -----------------------------------------------------------------------------
  26:eurorack/stmlib/dsp/units.h **** //
  27:eurorack/stmlib/dsp/units.h **** // Conversion from semitones to frequency ratio.
  28:eurorack/stmlib/dsp/units.h **** 
  29:eurorack/stmlib/dsp/units.h **** #ifndef STMLIB_DSP_UNITS_H_
  30:eurorack/stmlib/dsp/units.h **** #define STMLIB_DSP_UNITS_H_
  31:eurorack/stmlib/dsp/units.h **** 
  32:eurorack/stmlib/dsp/units.h **** #include "stmlib/stmlib.h"
  33:eurorack/stmlib/dsp/units.h **** #include "stmlib/dsp/dsp.h"
  34:eurorack/stmlib/dsp/units.h **** 
  35:eurorack/stmlib/dsp/units.h **** namespace stmlib {
  36:eurorack/stmlib/dsp/units.h **** 
  37:eurorack/stmlib/dsp/units.h **** extern const float lut_pitch_ratio_high[257];
  38:eurorack/stmlib/dsp/units.h **** extern const float lut_pitch_ratio_low[257];
  39:eurorack/stmlib/dsp/units.h **** 
  40:eurorack/stmlib/dsp/units.h **** inline float SemitonesToRatio(float semitones) {
 264              		.loc 4 40 48 is_stmt 1 view -0
 265              		.cfi_startproc
 266              		@ args = 0, pretend = 0, frame = 0
 267              		@ frame_needed = 0, uses_anonymous_args = 0
 268              		@ link register save eliminated.
  41:eurorack/stmlib/dsp/units.h ****   float pitch = semitones + 128.0f;
 269              		.loc 4 41 3 view .LVU66
 270              		.loc 4 41 9 is_stmt 0 view .LVU67
 271 0000 DFED0E7A 		vldr.32	s15, .L8
  42:eurorack/stmlib/dsp/units.h ****   MAKE_INTEGRAL_FRACTIONAL(pitch)
  43:eurorack/stmlib/dsp/units.h **** 
  44:eurorack/stmlib/dsp/units.h ****   return lut_pitch_ratio_high[pitch_integral] * \
  45:eurorack/stmlib/dsp/units.h ****       lut_pitch_ratio_low[static_cast<int32_t>(pitch_fractional * 256.0f)];
 272              		.loc 4 45 74 view .LVU68
 273 0004 0E4A     		ldr	r2, .L8+4
  41:eurorack/stmlib/dsp/units.h ****   float pitch = semitones + 128.0f;
 274              		.loc 4 41 9 view .LVU69
 275 0006 30EE270A 		vadd.f32	s0, s0, s15
 276              	.LVL9:
  42:eurorack/stmlib/dsp/units.h ****   MAKE_INTEGRAL_FRACTIONAL(pitch)
 277              		.loc 4 42 3 is_stmt 1 view .LVU70
 278 000a FDEEC07A 		vcvt.s32.f32	s15, s0
 279              	.LVL10:
  42:eurorack/stmlib/dsp/units.h ****   MAKE_INTEGRAL_FRACTIONAL(pitch)
ARM GAS  /var/folders/9s/8rp0_f2s1n31qbztm3b5_fdh0000gn/T//ccF2jpeh.s 			page 14


 280              		.loc 4 42 3 view .LVU71
  44:eurorack/stmlib/dsp/units.h ****       lut_pitch_ratio_low[static_cast<int32_t>(pitch_fractional * 256.0f)];
 281              		.loc 4 44 3 view .LVU72
  42:eurorack/stmlib/dsp/units.h ****   MAKE_INTEGRAL_FRACTIONAL(pitch)
 282              		.loc 4 42 3 is_stmt 0 view .LVU73
 283 000e B8EEE77A 		vcvt.f32.s32	s14, s15
  44:eurorack/stmlib/dsp/units.h ****       lut_pitch_ratio_low[static_cast<int32_t>(pitch_fractional * 256.0f)];
 284              		.loc 4 44 45 view .LVU74
 285 0012 17EE901A 		vmov	r1, s15	@ int
  42:eurorack/stmlib/dsp/units.h ****   MAKE_INTEGRAL_FRACTIONAL(pitch)
 286              		.loc 4 42 3 view .LVU75
 287 0016 30EE470A 		vsub.f32	s0, s0, s14
 288              	.LVL11:
 289              		.loc 4 45 27 view .LVU76
 290 001a BEEECC0A 		vcvt.s32.f32	s0, s0, #8
 291              	.LVL12:
 292              		.loc 4 45 74 view .LVU77
 293 001e 10EE103A 		vmov	r3, s0	@ int
 294 0022 02EB8302 		add	r2, r2, r3, lsl #2
  44:eurorack/stmlib/dsp/units.h ****       lut_pitch_ratio_low[static_cast<int32_t>(pitch_fractional * 256.0f)];
 295              		.loc 4 44 45 view .LVU78
 296 0026 074B     		ldr	r3, .L8+8
 297 0028 03EB8103 		add	r3, r3, r1, lsl #2
 298              		.loc 4 45 74 view .LVU79
 299 002c 92ED000A 		vldr.32	s0, [r2]
 300 0030 D3ED007A 		vldr.32	s15, [r3]
 301              	.LVL13:
  46:eurorack/stmlib/dsp/units.h **** }
 302              		.loc 4 46 1 view .LVU80
 303 0034 20EE270A 		vmul.f32	s0, s0, s15
 304 0038 7047     		bx	lr
 305              	.L9:
 306 003a 00BF     		.align	2
 307              	.L8:
 308 003c 00000043 		.word	1124073472
 309 0040 00000000 		.word	_ZN6stmlib19lut_pitch_ratio_lowE
 310 0044 00000000 		.word	_ZN6stmlib20lut_pitch_ratio_highE
 311              		.cfi_endproc
 312              	.LFE560:
 314              		.section	.text._ZN6stmlib6Random8GetFloatEv,"axG",%progbits,_ZN6stmlib6Random8GetFloatEv,comdat
 315              		.align	1
 316              		.weak	_ZN6stmlib6Random8GetFloatEv
 317              		.syntax unified
 318              		.thumb
 319              		.thumb_func
 321              	_ZN6stmlib6Random8GetFloatEv:
 322              	.LFB567:
 323              		.file 5 "eurorack/stmlib/utils/random.h"
   1:eurorack/stmlib/utils/random.h **** // Copyright 2012 Emilie Gillet.
   2:eurorack/stmlib/utils/random.h **** //
   3:eurorack/stmlib/utils/random.h **** // Author: Emilie Gillet (emilie.o.gillet@gmail.com)
   4:eurorack/stmlib/utils/random.h **** //
   5:eurorack/stmlib/utils/random.h **** // Permission is hereby granted, free of charge, to any person obtaining a copy
   6:eurorack/stmlib/utils/random.h **** // of this software and associated documentation files (the "Software"), to deal
   7:eurorack/stmlib/utils/random.h **** // in the Software without restriction, including without limitation the rights
   8:eurorack/stmlib/utils/random.h **** // to use, copy, modify, merge, publish, distribute, sublicense, and/or sell
   9:eurorack/stmlib/utils/random.h **** // copies of the Software, and to permit persons to whom the Software is
ARM GAS  /var/folders/9s/8rp0_f2s1n31qbztm3b5_fdh0000gn/T//ccF2jpeh.s 			page 15


  10:eurorack/stmlib/utils/random.h **** // furnished to do so, subject to the following conditions:
  11:eurorack/stmlib/utils/random.h **** // 
  12:eurorack/stmlib/utils/random.h **** // The above copyright notice and this permission notice shall be included in
  13:eurorack/stmlib/utils/random.h **** // all copies or substantial portions of the Software.
  14:eurorack/stmlib/utils/random.h **** // 
  15:eurorack/stmlib/utils/random.h **** // THE SOFTWARE IS PROVIDED "AS IS", WITHOUT WARRANTY OF ANY KIND, EXPRESS OR
  16:eurorack/stmlib/utils/random.h **** // IMPLIED, INCLUDING BUT NOT LIMITED TO THE WARRANTIES OF MERCHANTABILITY,
  17:eurorack/stmlib/utils/random.h **** // FITNESS FOR A PARTICULAR PURPOSE AND NONINFRINGEMENT. IN NO EVENT SHALL THE
  18:eurorack/stmlib/utils/random.h **** // AUTHORS OR COPYRIGHT HOLDERS BE LIABLE FOR ANY CLAIM, DAMAGES OR OTHER
  19:eurorack/stmlib/utils/random.h **** // LIABILITY, WHETHER IN AN ACTION OF CONTRACT, TORT OR OTHERWISE, ARISING FROM,
  20:eurorack/stmlib/utils/random.h **** // OUT OF OR IN CONNECTION WITH THE SOFTWARE OR THE USE OR OTHER DEALINGS IN
  21:eurorack/stmlib/utils/random.h **** // THE SOFTWARE.
  22:eurorack/stmlib/utils/random.h **** // 
  23:eurorack/stmlib/utils/random.h **** // See http://creativecommons.org/licenses/MIT/ for more information.
  24:eurorack/stmlib/utils/random.h **** //
  25:eurorack/stmlib/utils/random.h **** // -----------------------------------------------------------------------------
  26:eurorack/stmlib/utils/random.h **** //
  27:eurorack/stmlib/utils/random.h **** // Fast 16-bit pseudo random number generator.
  28:eurorack/stmlib/utils/random.h **** 
  29:eurorack/stmlib/utils/random.h **** #ifndef STMLIB_UTILS_RANDOM_H_
  30:eurorack/stmlib/utils/random.h **** #define STMLIB_UTILS_RANDOM_H_
  31:eurorack/stmlib/utils/random.h **** 
  32:eurorack/stmlib/utils/random.h **** #include "stmlib/stmlib.h"
  33:eurorack/stmlib/utils/random.h **** 
  34:eurorack/stmlib/utils/random.h **** namespace stmlib {
  35:eurorack/stmlib/utils/random.h **** 
  36:eurorack/stmlib/utils/random.h **** class Random {
  37:eurorack/stmlib/utils/random.h ****  public:
  38:eurorack/stmlib/utils/random.h ****   static inline uint32_t state() { return rng_state_; }
  39:eurorack/stmlib/utils/random.h **** 
  40:eurorack/stmlib/utils/random.h ****   static inline void Seed(uint32_t seed) {
  41:eurorack/stmlib/utils/random.h ****     rng_state_ = seed;
  42:eurorack/stmlib/utils/random.h ****   }
  43:eurorack/stmlib/utils/random.h **** 
  44:eurorack/stmlib/utils/random.h ****   static inline uint32_t GetWord() {
  45:eurorack/stmlib/utils/random.h ****     rng_state_ = rng_state_ * 1664525L + 1013904223L;
  46:eurorack/stmlib/utils/random.h ****     return state();
  47:eurorack/stmlib/utils/random.h ****   }
  48:eurorack/stmlib/utils/random.h ****   
  49:eurorack/stmlib/utils/random.h ****   static inline int16_t GetSample() {
  50:eurorack/stmlib/utils/random.h ****     return static_cast<int16_t>(GetWord() >> 16);
  51:eurorack/stmlib/utils/random.h ****   }
  52:eurorack/stmlib/utils/random.h **** 
  53:eurorack/stmlib/utils/random.h ****   static inline float GetFloat() {
 324              		.loc 5 53 23 is_stmt 1 view -0
 325              		.cfi_startproc
 326              		@ args = 0, pretend = 0, frame = 0
 327              		@ frame_needed = 0, uses_anonymous_args = 0
 328              		@ link register save eliminated.
  54:eurorack/stmlib/utils/random.h ****     return static_cast<float>(GetWord()) / 4294967296.0f;
 329              		.loc 5 54 5 view .LVU82
 330              	.LBB121:
 331              	.LBI121:
  44:eurorack/stmlib/utils/random.h ****     rng_state_ = rng_state_ * 1664525L + 1013904223L;
 332              		.loc 5 44 26 view .LVU83
 333              	.LBB122:
  45:eurorack/stmlib/utils/random.h ****     return state();
ARM GAS  /var/folders/9s/8rp0_f2s1n31qbztm3b5_fdh0000gn/T//ccF2jpeh.s 			page 16


 334              		.loc 5 45 5 view .LVU84
  45:eurorack/stmlib/utils/random.h ****     return state();
 335              		.loc 5 45 29 is_stmt 0 view .LVU85
 336 0000 074A     		ldr	r2, .L11
  45:eurorack/stmlib/utils/random.h ****     return state();
 337              		.loc 5 45 40 view .LVU86
 338 0002 0848     		ldr	r0, .L11+4
  45:eurorack/stmlib/utils/random.h ****     return state();
 339              		.loc 5 45 29 view .LVU87
 340 0004 1168     		ldr	r1, [r2]
  45:eurorack/stmlib/utils/random.h ****     return state();
 341              		.loc 5 45 40 view .LVU88
 342 0006 084B     		ldr	r3, .L11+8
 343 0008 00FB0133 		mla	r3, r0, r1, r3
 344              	.LBE122:
 345              	.LBE121:
 346              		.loc 5 54 12 view .LVU89
 347 000c 07EE903A 		vmov	s15, r3	@ int
 348              	.LBB124:
 349              	.LBB123:
  45:eurorack/stmlib/utils/random.h ****     return state();
 350              		.loc 5 45 16 view .LVU90
 351 0010 1360     		str	r3, [r2]
  46:eurorack/stmlib/utils/random.h ****   }
 352              		.loc 5 46 5 is_stmt 1 view .LVU91
 353              	.LBE123:
 354              	.LBE124:
  38:eurorack/stmlib/utils/random.h **** 
 355              		.loc 5 38 36 view .LVU92
 356              		.loc 5 54 12 is_stmt 0 view .LVU93
 357 0012 B8EE670A 		vcvt.f32.u32	s0, s15
  55:eurorack/stmlib/utils/random.h ****   }
 358              		.loc 5 55 3 view .LVU94
 359 0016 DFED057A 		vldr.32	s15, .L11+12
 360 001a 20EE270A 		vmul.f32	s0, s0, s15
 361 001e 7047     		bx	lr
 362              	.L12:
 363              		.align	2
 364              	.L11:
 365 0020 00000000 		.word	_ZN6stmlib6Random10rng_state_E
 366 0024 0D661900 		.word	1664525
 367 0028 5FF36E3C 		.word	1013904223
 368 002c 0000802F 		.word	796917760
 369              		.cfi_endproc
 370              	.LFE567:
 372              		.section	.text._ZN6plaits15NoteToFrequencyEf,"axG",%progbits,_ZN6plaits15NoteToFrequencyEf,comdat
 373              		.align	1
 374              		.weak	_ZN6plaits15NoteToFrequencyEf
 375              		.syntax unified
 376              		.thumb
 377              		.thumb_func
 379              	_ZN6plaits15NoteToFrequencyEf:
 380              	.LVL14:
 381              	.LFB582:
 382              		.file 6 "eurorack/plaits/dsp/engine/engine.h"
   1:eurorack/plaits/dsp/engine/engine.h **** // Copyright 2016 Emilie Gillet.
   2:eurorack/plaits/dsp/engine/engine.h **** //
ARM GAS  /var/folders/9s/8rp0_f2s1n31qbztm3b5_fdh0000gn/T//ccF2jpeh.s 			page 17


   3:eurorack/plaits/dsp/engine/engine.h **** // Author: Emilie Gillet (emilie.o.gillet@gmail.com)
   4:eurorack/plaits/dsp/engine/engine.h **** //
   5:eurorack/plaits/dsp/engine/engine.h **** // Permission is hereby granted, free of charge, to any person obtaining a copy
   6:eurorack/plaits/dsp/engine/engine.h **** // of this software and associated documentation files (the "Software"), to deal
   7:eurorack/plaits/dsp/engine/engine.h **** // in the Software without restriction, including without limitation the rights
   8:eurorack/plaits/dsp/engine/engine.h **** // to use, copy, modify, merge, publish, distribute, sublicense, and/or sell
   9:eurorack/plaits/dsp/engine/engine.h **** // copies of the Software, and to permit persons to whom the Software is
  10:eurorack/plaits/dsp/engine/engine.h **** // furnished to do so, subject to the following conditions:
  11:eurorack/plaits/dsp/engine/engine.h **** // 
  12:eurorack/plaits/dsp/engine/engine.h **** // The above copyright notice and this permission notice shall be included in
  13:eurorack/plaits/dsp/engine/engine.h **** // all copies or substantial portions of the Software.
  14:eurorack/plaits/dsp/engine/engine.h **** // 
  15:eurorack/plaits/dsp/engine/engine.h **** // THE SOFTWARE IS PROVIDED "AS IS", WITHOUT WARRANTY OF ANY KIND, EXPRESS OR
  16:eurorack/plaits/dsp/engine/engine.h **** // IMPLIED, INCLUDING BUT NOT LIMITED TO THE WARRANTIES OF MERCHANTABILITY,
  17:eurorack/plaits/dsp/engine/engine.h **** // FITNESS FOR A PARTICULAR PURPOSE AND NONINFRINGEMENT. IN NO EVENT SHALL THE
  18:eurorack/plaits/dsp/engine/engine.h **** // AUTHORS OR COPYRIGHT HOLDERS BE LIABLE FOR ANY CLAIM, DAMAGES OR OTHER
  19:eurorack/plaits/dsp/engine/engine.h **** // LIABILITY, WHETHER IN AN ACTION OF CONTRACT, TORT OR OTHERWISE, ARISING FROM,
  20:eurorack/plaits/dsp/engine/engine.h **** // OUT OF OR IN CONNECTION WITH THE SOFTWARE OR THE USE OR OTHER DEALINGS IN
  21:eurorack/plaits/dsp/engine/engine.h **** // THE SOFTWARE.
  22:eurorack/plaits/dsp/engine/engine.h **** // 
  23:eurorack/plaits/dsp/engine/engine.h **** // See http://creativecommons.org/licenses/MIT/ for more information.
  24:eurorack/plaits/dsp/engine/engine.h **** //
  25:eurorack/plaits/dsp/engine/engine.h **** // -----------------------------------------------------------------------------
  26:eurorack/plaits/dsp/engine/engine.h **** //
  27:eurorack/plaits/dsp/engine/engine.h **** // Base class for all engines.
  28:eurorack/plaits/dsp/engine/engine.h **** 
  29:eurorack/plaits/dsp/engine/engine.h **** #ifndef PLAITS_DSP_ENGINE_ENGINE_H_
  30:eurorack/plaits/dsp/engine/engine.h **** #define PLAITS_DSP_ENGINE_ENGINE_H_
  31:eurorack/plaits/dsp/engine/engine.h **** 
  32:eurorack/plaits/dsp/engine/engine.h **** #include "plaits/dsp/dsp.h"
  33:eurorack/plaits/dsp/engine/engine.h **** 
  34:eurorack/plaits/dsp/engine/engine.h **** #include "stmlib/dsp/units.h"
  35:eurorack/plaits/dsp/engine/engine.h **** #include "stmlib/utils/buffer_allocator.h"
  36:eurorack/plaits/dsp/engine/engine.h **** 
  37:eurorack/plaits/dsp/engine/engine.h **** namespace plaits {
  38:eurorack/plaits/dsp/engine/engine.h **** 
  39:eurorack/plaits/dsp/engine/engine.h **** inline float NoteToFrequency(float midi_note) {
 383              		.loc 6 39 47 is_stmt 1 view -0
 384              		.cfi_startproc
 385              		@ args = 0, pretend = 0, frame = 0
 386              		@ frame_needed = 0, uses_anonymous_args = 0
  40:eurorack/plaits/dsp/engine/engine.h ****   midi_note -= 9.0f;
 387              		.loc 6 40 3 view .LVU96
 388              		.loc 6 40 13 is_stmt 0 view .LVU97
 389 0000 F2EE027A 		vmov.f32	s15, #9.0e+0
  39:eurorack/plaits/dsp/engine/engine.h ****   midi_note -= 9.0f;
 390              		.loc 6 39 47 view .LVU98
 391 0004 08B5     		push	{r3, lr}
 392              		.cfi_def_cfa_offset 8
 393              		.cfi_offset 3, -8
 394              		.cfi_offset 14, -4
 395              		.loc 6 40 13 view .LVU99
 396 0006 30EE670A 		vsub.f32	s0, s0, s15
 397              	.LVL15:
  41:eurorack/plaits/dsp/engine/engine.h ****   CONSTRAIN(midi_note, -128.0f, 127.0f);
 398              		.loc 6 41 3 is_stmt 1 view .LVU100
 399 000a DFED0C7A 		vldr.32	s15, .L18
ARM GAS  /var/folders/9s/8rp0_f2s1n31qbztm3b5_fdh0000gn/T//ccF2jpeh.s 			page 18


 400 000e B4EEE70A 		vcmpe.f32	s0, s15
 401 0012 F1EE10FA 		vmrs	APSR_nzcv, FPSCR
 402 0016 0ED4     		bmi	.L16
 403              		.loc 6 41 3 discriminator 2 view .LVU101
 404 0018 DFED097A 		vldr.32	s15, .L18+4
 405 001c B4EE670A 		vcmp.f32	s0, s15
 406 0020 F1EE10FA 		vmrs	APSR_nzcv, FPSCR
 407 0024 37FE800A 		vselgt.f32	s0, s15, s0
 408              	.LVL16:
 409              	.L14:
 410              		.loc 6 41 40 discriminator 6 view .LVU102
  42:eurorack/plaits/dsp/engine/engine.h ****   return a0 * 0.25f * stmlib::SemitonesToRatio(midi_note);
 411              		.loc 6 42 3 discriminator 6 view .LVU103
 412              		.loc 6 42 47 is_stmt 0 discriminator 6 view .LVU104
 413 0028 FFF7FEFF 		bl	_ZN6stmlib16SemitonesToRatioEf
 414              	.LVL17:
  43:eurorack/plaits/dsp/engine/engine.h **** }
 415              		.loc 6 43 1 discriminator 6 view .LVU105
 416 002c DFED057A 		vldr.32	s15, .L18+8
 417 0030 20EE270A 		vmul.f32	s0, s0, s15
 418 0034 08BD     		pop	{r3, pc}
 419              	.LVL18:
 420              	.L16:
  41:eurorack/plaits/dsp/engine/engine.h ****   CONSTRAIN(midi_note, -128.0f, 127.0f);
 421              		.loc 6 41 3 view .LVU106
 422 0036 B0EE670A 		vmov.f32	s0, s15
 423              	.LVL19:
  41:eurorack/plaits/dsp/engine/engine.h ****   CONSTRAIN(midi_note, -128.0f, 127.0f);
 424              		.loc 6 41 3 view .LVU107
 425 003a F5E7     		b	.L14
 426              	.L19:
 427              		.align	2
 428              	.L18:
 429 003c 000000C3 		.word	-1023410176
 430 0040 0000FE42 		.word	1123942400
 431 0044 51969639 		.word	966170193
 432              		.cfi_endproc
 433              	.LFE582:
 435              		.section	.text._ZN6plaits18FastSineOscillator14RenderInternalILb1EEEvffPfj,"axG",%progbits,_ZN6pla
 436              		.align	1
 437              		.weak	_ZN6plaits18FastSineOscillator14RenderInternalILb1EEEvffPfj
 438              		.syntax unified
 439              		.thumb
 440              		.thumb_func
 442              	_ZN6plaits18FastSineOscillator14RenderInternalILb1EEEvffPfj:
 443              	.LVL20:
 444              	.LFB1535:
 133:eurorack/plaits/dsp/oscillator/sine_oscillator.h ****   }
 134:eurorack/plaits/dsp/oscillator/sine_oscillator.h ****   
 135:eurorack/plaits/dsp/oscillator/sine_oscillator.h ****   static inline float Fast2Sin(float f) {
 136:eurorack/plaits/dsp/oscillator/sine_oscillator.h ****     // In theory, epsilon = 2 sin(pi f)
 137:eurorack/plaits/dsp/oscillator/sine_oscillator.h ****     // Here, to avoid the call to sinf, we use a 3rd order polynomial
 138:eurorack/plaits/dsp/oscillator/sine_oscillator.h ****     // approximation, which looks like a Taylor expansion, but with a
 139:eurorack/plaits/dsp/oscillator/sine_oscillator.h ****     // correction term to give a good trade-off between average error
 140:eurorack/plaits/dsp/oscillator/sine_oscillator.h ****     // (1.13 cents) and maximum error (7.33 cents) when generating sinewaves
 141:eurorack/plaits/dsp/oscillator/sine_oscillator.h ****     // in the 16 Hz to 16kHz range (with sr = 48kHz).
 142:eurorack/plaits/dsp/oscillator/sine_oscillator.h ****     const float f_pi = f * float(M_PI);
ARM GAS  /var/folders/9s/8rp0_f2s1n31qbztm3b5_fdh0000gn/T//ccF2jpeh.s 			page 19


 143:eurorack/plaits/dsp/oscillator/sine_oscillator.h ****     return f_pi * (2.0f - (2.0f * 0.96f / 6.0f) * f_pi * f_pi);
 144:eurorack/plaits/dsp/oscillator/sine_oscillator.h ****   }
 145:eurorack/plaits/dsp/oscillator/sine_oscillator.h ****   
 146:eurorack/plaits/dsp/oscillator/sine_oscillator.h ****   void Render(float frequency, float* out, size_t size) {
 147:eurorack/plaits/dsp/oscillator/sine_oscillator.h ****     RenderInternal<false>(frequency, 1.0f, out, size);
 148:eurorack/plaits/dsp/oscillator/sine_oscillator.h ****   }
 149:eurorack/plaits/dsp/oscillator/sine_oscillator.h ****   
 150:eurorack/plaits/dsp/oscillator/sine_oscillator.h ****   void Render(float frequency, float amplitude, float* out, size_t size) {
 151:eurorack/plaits/dsp/oscillator/sine_oscillator.h ****     RenderInternal<true>(frequency, amplitude, out, size);
 152:eurorack/plaits/dsp/oscillator/sine_oscillator.h ****   }
 153:eurorack/plaits/dsp/oscillator/sine_oscillator.h ****   
 154:eurorack/plaits/dsp/oscillator/sine_oscillator.h ****  private:
 155:eurorack/plaits/dsp/oscillator/sine_oscillator.h ****   template<bool additive>
 156:eurorack/plaits/dsp/oscillator/sine_oscillator.h ****   void RenderInternal(
 445              		.loc 3 156 8 is_stmt 1 view -0
 446              		.cfi_startproc
 447              		@ args = 0, pretend = 0, frame = 0
 448              		@ frame_needed = 0, uses_anonymous_args = 0
 449              		@ link register save eliminated.
 157:eurorack/plaits/dsp/oscillator/sine_oscillator.h ****       float frequency, float amplitude, float* out, size_t size) {
 158:eurorack/plaits/dsp/oscillator/sine_oscillator.h ****     if (frequency >= 0.25f) {
 450              		.loc 3 158 5 is_stmt 0 view .LVU109
 451 0000 F5EE007A 		vmov.f32	s15, #2.5e-1
 452              	.LBB154:
 453              	.LBB155:
 454              	.LBB156:
 455              		.file 7 "eurorack/stmlib/dsp/parameter_interpolator.h"
   1:eurorack/stmlib/dsp/parameter_interpolator.h **** // Copyright 2015 Emilie Gillet.
   2:eurorack/stmlib/dsp/parameter_interpolator.h **** //
   3:eurorack/stmlib/dsp/parameter_interpolator.h **** // Author: Emilie Gillet (emilie.o.gillet@gmail.com)
   4:eurorack/stmlib/dsp/parameter_interpolator.h **** //
   5:eurorack/stmlib/dsp/parameter_interpolator.h **** // Permission is hereby granted, free of charge, to any person obtaining a copy
   6:eurorack/stmlib/dsp/parameter_interpolator.h **** // of this software and associated documentation files (the "Software"), to deal
   7:eurorack/stmlib/dsp/parameter_interpolator.h **** // in the Software without restriction, including without limitation the rights
   8:eurorack/stmlib/dsp/parameter_interpolator.h **** // to use, copy, modify, merge, publish, distribute, sublicense, and/or sell
   9:eurorack/stmlib/dsp/parameter_interpolator.h **** // copies of the Software, and to permit persons to whom the Software is
  10:eurorack/stmlib/dsp/parameter_interpolator.h **** // furnished to do so, subject to the following conditions:
  11:eurorack/stmlib/dsp/parameter_interpolator.h **** // 
  12:eurorack/stmlib/dsp/parameter_interpolator.h **** // The above copyright notice and this permission notice shall be included in
  13:eurorack/stmlib/dsp/parameter_interpolator.h **** // all copies or substantial portions of the Software.
  14:eurorack/stmlib/dsp/parameter_interpolator.h **** // 
  15:eurorack/stmlib/dsp/parameter_interpolator.h **** // THE SOFTWARE IS PROVIDED "AS IS", WITHOUT WARRANTY OF ANY KIND, EXPRESS OR
  16:eurorack/stmlib/dsp/parameter_interpolator.h **** // IMPLIED, INCLUDING BUT NOT LIMITED TO THE WARRANTIES OF MERCHANTABILITY,
  17:eurorack/stmlib/dsp/parameter_interpolator.h **** // FITNESS FOR A PARTICULAR PURPOSE AND NONINFRINGEMENT. IN NO EVENT SHALL THE
  18:eurorack/stmlib/dsp/parameter_interpolator.h **** // AUTHORS OR COPYRIGHT HOLDERS BE LIABLE FOR ANY CLAIM, DAMAGES OR OTHER
  19:eurorack/stmlib/dsp/parameter_interpolator.h **** // LIABILITY, WHETHER IN AN ACTION OF CONTRACT, TORT OR OTHERWISE, ARISING FROM,
  20:eurorack/stmlib/dsp/parameter_interpolator.h **** // OUT OF OR IN CONNECTION WITH THE SOFTWARE OR THE USE OR OTHER DEALINGS IN
  21:eurorack/stmlib/dsp/parameter_interpolator.h **** // THE SOFTWARE.
  22:eurorack/stmlib/dsp/parameter_interpolator.h **** // 
  23:eurorack/stmlib/dsp/parameter_interpolator.h **** // See http://creativecommons.org/licenses/MIT/ for more information.
  24:eurorack/stmlib/dsp/parameter_interpolator.h **** //
  25:eurorack/stmlib/dsp/parameter_interpolator.h **** // -----------------------------------------------------------------------------
  26:eurorack/stmlib/dsp/parameter_interpolator.h **** //
  27:eurorack/stmlib/dsp/parameter_interpolator.h **** // Linear interpolation of parameters in rendering loops.
  28:eurorack/stmlib/dsp/parameter_interpolator.h **** 
  29:eurorack/stmlib/dsp/parameter_interpolator.h **** #ifndef STMLIB_DSP_PARAMETER_INTERPOLATOR_H_
  30:eurorack/stmlib/dsp/parameter_interpolator.h **** #define STMLIB_DSP_PARAMETER_INTERPOLATOR_H_
ARM GAS  /var/folders/9s/8rp0_f2s1n31qbztm3b5_fdh0000gn/T//ccF2jpeh.s 			page 20


  31:eurorack/stmlib/dsp/parameter_interpolator.h **** 
  32:eurorack/stmlib/dsp/parameter_interpolator.h **** #include "stmlib/stmlib.h"
  33:eurorack/stmlib/dsp/parameter_interpolator.h **** 
  34:eurorack/stmlib/dsp/parameter_interpolator.h **** namespace stmlib {
  35:eurorack/stmlib/dsp/parameter_interpolator.h **** 
  36:eurorack/stmlib/dsp/parameter_interpolator.h **** class ParameterInterpolator {
  37:eurorack/stmlib/dsp/parameter_interpolator.h ****  public:
  38:eurorack/stmlib/dsp/parameter_interpolator.h ****   ParameterInterpolator() { }
  39:eurorack/stmlib/dsp/parameter_interpolator.h ****   ParameterInterpolator(float* state, float new_value, size_t size) {
  40:eurorack/stmlib/dsp/parameter_interpolator.h ****     Init(state, new_value, size);
  41:eurorack/stmlib/dsp/parameter_interpolator.h ****   }
  42:eurorack/stmlib/dsp/parameter_interpolator.h **** 
  43:eurorack/stmlib/dsp/parameter_interpolator.h ****   ParameterInterpolator(float* state, float new_value, float step) {
  44:eurorack/stmlib/dsp/parameter_interpolator.h ****     state_ = state;
  45:eurorack/stmlib/dsp/parameter_interpolator.h ****     value_ = *state;
  46:eurorack/stmlib/dsp/parameter_interpolator.h ****     increment_ = (new_value - *state) * step;
  47:eurorack/stmlib/dsp/parameter_interpolator.h ****   }
  48:eurorack/stmlib/dsp/parameter_interpolator.h **** 
  49:eurorack/stmlib/dsp/parameter_interpolator.h ****   ~ParameterInterpolator() {
  50:eurorack/stmlib/dsp/parameter_interpolator.h ****     *state_ = value_;
  51:eurorack/stmlib/dsp/parameter_interpolator.h ****   }
  52:eurorack/stmlib/dsp/parameter_interpolator.h ****   
  53:eurorack/stmlib/dsp/parameter_interpolator.h ****   inline void Init(float* state, float new_value, size_t size) {
  54:eurorack/stmlib/dsp/parameter_interpolator.h ****     state_ = state;
  55:eurorack/stmlib/dsp/parameter_interpolator.h ****     value_ = *state;
 456              		.loc 7 55 14 view .LVU110
 457 0004 D0ED025A 		vldr.32	s11, [r0, #8]
 458              	.LBE156:
 459              	.LBE155:
 460              	.LBE154:
 461              	.LBB165:
 462              	.LBB166:
 143:eurorack/plaits/dsp/oscillator/sine_oscillator.h ****   }
 463              		.loc 3 143 25 view .LVU111
 464 0008 B0EE006A 		vmov.f32	s12, #2.0e+0
 465              	.LBE166:
 466              	.LBE165:
 467              	.LBB170:
 468              	.LBB171:
 469              	.LBB172:
 470              		.loc 7 55 14 view .LVU112
 471 000c 90ED035A 		vldr.32	s10, [r0, #12]
 472              	.LBE172:
 473              	.LBE171:
 474              	.LBE170:
 475              	.LBB179:
 159:eurorack/plaits/dsp/oscillator/sine_oscillator.h ****       frequency = 0.25f;
 160:eurorack/plaits/dsp/oscillator/sine_oscillator.h ****       amplitude = 0.0f;
 161:eurorack/plaits/dsp/oscillator/sine_oscillator.h ****     } else {
 162:eurorack/plaits/dsp/oscillator/sine_oscillator.h ****       amplitude *= 1.0f - frequency * 4.0f;
 163:eurorack/plaits/dsp/oscillator/sine_oscillator.h ****     }
 164:eurorack/plaits/dsp/oscillator/sine_oscillator.h ****     
 165:eurorack/plaits/dsp/oscillator/sine_oscillator.h ****     stmlib::ParameterInterpolator epsilon(&epsilon_, Fast2Sin(frequency), size);
 166:eurorack/plaits/dsp/oscillator/sine_oscillator.h ****     stmlib::ParameterInterpolator am(&amplitude_, amplitude, size);
 167:eurorack/plaits/dsp/oscillator/sine_oscillator.h ****     float x = x_;
 168:eurorack/plaits/dsp/oscillator/sine_oscillator.h ****     float y = y_;
 169:eurorack/plaits/dsp/oscillator/sine_oscillator.h ****     
ARM GAS  /var/folders/9s/8rp0_f2s1n31qbztm3b5_fdh0000gn/T//ccF2jpeh.s 			page 21


 170:eurorack/plaits/dsp/oscillator/sine_oscillator.h ****     const float norm = x * x + y * y;
 171:eurorack/plaits/dsp/oscillator/sine_oscillator.h ****     if (norm <= 0.5f || norm >= 2.0f) {
 476              		.loc 3 171 5 view .LVU113
 477 0010 F6EE004A 		vmov.f32	s9, #5.0e-1
 478              	.LBE179:
 158:eurorack/plaits/dsp/oscillator/sine_oscillator.h ****       frequency = 0.25f;
 479              		.loc 3 158 5 view .LVU114
 480 0014 B4EEE70A 		vcmpe.f32	s0, s15
 481              	.LBB190:
 482              	.LBB167:
 143:eurorack/plaits/dsp/oscillator/sine_oscillator.h ****   }
 483              		.loc 3 143 25 view .LVU115
 484 0018 F0EE466A 		vmov.f32	s13, s12
 485              	.LBE167:
 486              	.LBE190:
 158:eurorack/plaits/dsp/oscillator/sine_oscillator.h ****       frequency = 0.25f;
 487              		.loc 3 158 5 view .LVU116
 488 001c F1EE10FA 		vmrs	APSR_nzcv, FPSCR
 162:eurorack/plaits/dsp/oscillator/sine_oscillator.h ****     }
 489              		.loc 3 162 25 view .LVU117
 490 0020 B5BF     		itete	lt
 491 0022 F7EE007A 		vmovlt.f32	s15, #1.0e+0
 160:eurorack/plaits/dsp/oscillator/sine_oscillator.h ****     } else {
 492              		.loc 3 160 17 view .LVU118
 493 0026 DFED320A 		vldrge.32	s1, .L29
 494              	.LVL21:
 162:eurorack/plaits/dsp/oscillator/sine_oscillator.h ****     }
 495              		.loc 3 162 25 view .LVU119
 496 002a B1EE007A 		vmovlt.f32	s14, #4.0e+0
 159:eurorack/plaits/dsp/oscillator/sine_oscillator.h ****       amplitude = 0.0f;
 497              		.loc 3 159 17 view .LVU120
 498 002e B0EE670A 		vmovge.f32	s0, s15
 499              	.LVL22:
 162:eurorack/plaits/dsp/oscillator/sine_oscillator.h ****     }
 500              		.loc 3 162 25 view .LVU121
 501 0032 B8BF     		it	lt
 502 0034 E0EE477A 		vfmslt.f32	s15, s0, s14
 503              	.LBB191:
 504              	.LBB161:
 505              	.LBB157:
  56:eurorack/stmlib/dsp/parameter_interpolator.h ****     increment_ = (new_value - *state) / static_cast<float>(size);
 506              		.loc 7 56 29 view .LVU122
 507 0038 B0EE657A 		vmov.f32	s14, s11
 508              	.LBE157:
 509              	.LBE161:
 510              	.LBE191:
 162:eurorack/plaits/dsp/oscillator/sine_oscillator.h ****     }
 511              		.loc 3 162 17 view .LVU123
 512 003c B8BF     		it	lt
 513 003e 67EEA00A 		vmullt.f32	s1, s15, s1
 514              	.LVL23:
 515              	.LBB192:
 516              	.LBI165:
 135:eurorack/plaits/dsp/oscillator/sine_oscillator.h ****     // In theory, epsilon = 2 sin(pi f)
 517              		.loc 3 135 23 is_stmt 1 view .LVU124
 518              	.LBB168:
 142:eurorack/plaits/dsp/oscillator/sine_oscillator.h ****     return f_pi * (2.0f - (2.0f * 0.96f / 6.0f) * f_pi * f_pi);
ARM GAS  /var/folders/9s/8rp0_f2s1n31qbztm3b5_fdh0000gn/T//ccF2jpeh.s 			page 22


 519              		.loc 3 142 5 view .LVU125
 142:eurorack/plaits/dsp/oscillator/sine_oscillator.h ****     return f_pi * (2.0f - (2.0f * 0.96f / 6.0f) * f_pi * f_pi);
 520              		.loc 3 142 17 is_stmt 0 view .LVU126
 521 0042 DFED2C7A 		vldr.32	s15, .L29+4
 522 0046 20EE270A 		vmul.f32	s0, s0, s15
 523              	.LVL24:
 143:eurorack/plaits/dsp/oscillator/sine_oscillator.h ****   }
 524              		.loc 3 143 5 is_stmt 1 view .LVU127
 143:eurorack/plaits/dsp/oscillator/sine_oscillator.h ****   }
 525              		.loc 3 143 49 is_stmt 0 view .LVU128
 526 004a DFED2B7A 		vldr.32	s15, .L29+8
 527              	.LBE168:
 528              	.LBE192:
 529              	.LBB193:
 530              	.LBB176:
 531              	.LBB173:
 532              		.loc 7 56 29 view .LVU129
 533 004e 70EEC50A 		vsub.f32	s1, s1, s10
 534              	.LVL25:
 535              		.loc 7 56 29 view .LVU130
 536              	.LBE173:
 537              	.LBE176:
 538              	.LBE193:
 539              	.LBB194:
 540              	.LBB169:
 143:eurorack/plaits/dsp/oscillator/sine_oscillator.h ****   }
 541              		.loc 3 143 49 view .LVU131
 542 0052 60EE277A 		vmul.f32	s15, s0, s15
 143:eurorack/plaits/dsp/oscillator/sine_oscillator.h ****   }
 543              		.loc 3 143 25 view .LVU132
 544 0056 E0EE676A 		vfms.f32	s13, s0, s15
 545              	.LVL26:
 143:eurorack/plaits/dsp/oscillator/sine_oscillator.h ****   }
 546              		.loc 3 143 25 view .LVU133
 547              	.LBE169:
 548              	.LBE194:
 549              	.LBB195:
 550              	.LBI154:
  39:eurorack/stmlib/dsp/parameter_interpolator.h ****     Init(state, new_value, size);
 551              		.loc 7 39 3 is_stmt 1 view .LVU134
 552              	.LBE195:
  40:eurorack/stmlib/dsp/parameter_interpolator.h ****   }
 553              		.loc 7 40 5 view .LVU135
 554              	.LBB196:
 555              	.LBB162:
 556              	.LBI155:
  53:eurorack/stmlib/dsp/parameter_interpolator.h ****     state_ = state;
 557              		.loc 7 53 15 view .LVU136
 558              	.LBB158:
  54:eurorack/stmlib/dsp/parameter_interpolator.h ****     value_ = *state;
 559              		.loc 7 54 5 view .LVU137
  55:eurorack/stmlib/dsp/parameter_interpolator.h ****     increment_ = (new_value - *state) / static_cast<float>(size);
 560              		.loc 7 55 5 view .LVU138
 561              		.loc 7 56 5 view .LVU139
 562              		.loc 7 56 41 is_stmt 0 view .LVU140
 563 005a 07EE902A 		vmov	s15, r2	@ int
 564 005e F8EE677A 		vcvt.f32.u32	s15, s15
ARM GAS  /var/folders/9s/8rp0_f2s1n31qbztm3b5_fdh0000gn/T//ccF2jpeh.s 			page 23


 565              	.LBE158:
 566              	.LBE162:
 567              	.LBE196:
 568              	.LBB197:
 569              	.LBB177:
 570              	.LBB174:
 571              		.loc 7 56 39 view .LVU141
 572 0062 80EEA74A 		vdiv.f32	s8, s1, s15
 573              	.LBE174:
 574              	.LBE177:
 575              	.LBE197:
 576              	.LBB198:
 577              	.LBB163:
 578              	.LBB159:
 579              		.loc 7 56 29 view .LVU142
 580 0066 90EE267A 		vfnms.f32	s14, s0, s13
 581              	.LBE159:
 582              	.LBE163:
 583              	.LBE198:
 168:eurorack/plaits/dsp/oscillator/sine_oscillator.h ****     
 584              		.loc 3 168 11 view .LVU143
 585 006a D0ED016A 		vldr.32	s13, [r0, #4]
 586              	.LVL27:
 587              	.LBB199:
 588              	.LBB164:
 589              	.LBB160:
 590              		.loc 7 56 39 view .LVU144
 591 006e C7EE273A 		vdiv.f32	s7, s14, s15
 592              	.LVL28:
 593              		.loc 7 56 39 view .LVU145
 594              	.LBE160:
 595              	.LBE164:
 596              	.LBE199:
 597              	.LBB200:
 598              	.LBI170:
  39:eurorack/stmlib/dsp/parameter_interpolator.h ****     Init(state, new_value, size);
 599              		.loc 7 39 3 is_stmt 1 view .LVU146
 600              	.LBE200:
  40:eurorack/stmlib/dsp/parameter_interpolator.h ****   }
 601              		.loc 7 40 5 view .LVU147
 602              	.LBB201:
 603              	.LBB178:
 604              	.LBI171:
  53:eurorack/stmlib/dsp/parameter_interpolator.h ****     state_ = state;
 605              		.loc 7 53 15 view .LVU148
 606              	.LBB175:
  54:eurorack/stmlib/dsp/parameter_interpolator.h ****     value_ = *state;
 607              		.loc 7 54 5 view .LVU149
  55:eurorack/stmlib/dsp/parameter_interpolator.h ****     increment_ = (new_value - *state) / static_cast<float>(size);
 608              		.loc 7 55 5 view .LVU150
 609              		.loc 7 56 5 view .LVU151
 610              		.loc 7 56 5 is_stmt 0 view .LVU152
 611              	.LBE175:
 612              	.LBE178:
 613              	.LBE201:
 167:eurorack/plaits/dsp/oscillator/sine_oscillator.h ****     float y = y_;
 614              		.loc 3 167 11 view .LVU153
ARM GAS  /var/folders/9s/8rp0_f2s1n31qbztm3b5_fdh0000gn/T//ccF2jpeh.s 			page 24


 615 0072 90ED007A 		vldr.32	s14, [r0]
 616              	.LVL29:
 170:eurorack/plaits/dsp/oscillator/sine_oscillator.h ****     if (norm <= 0.5f || norm >= 2.0f) {
 617              		.loc 3 170 34 view .LVU154
 618 0076 66EEA67A 		vmul.f32	s15, s13, s13
 170:eurorack/plaits/dsp/oscillator/sine_oscillator.h ****     if (norm <= 0.5f || norm >= 2.0f) {
 619              		.loc 3 170 17 view .LVU155
 620 007a E7EE077A 		vfma.f32	s15, s14, s14
 621              	.LVL30:
 622              	.LBB202:
 623              		.loc 3 171 5 view .LVU156
 624 007e F4EEE47A 		vcmpe.f32	s15, s9
 625 0082 F1EE10FA 		vmrs	APSR_nzcv, FPSCR
 626              	.LVL31:
 627              		.loc 3 171 5 view .LVU157
 628 0086 04D9     		bls	.L22
 629              		.loc 3 171 22 discriminator 1 view .LVU158
 630 0088 F4EEC67A 		vcmpe.f32	s15, s12
 631 008c F1EE10FA 		vmrs	APSR_nzcv, FPSCR
 632 0090 14DB     		blt	.L26
 633              	.L22:
 634              	.LVL32:
 635              	.LBB180:
 636              	.LBB181:
 637              	.LBI181:
 638              		.file 8 "eurorack/stmlib/dsp/rsqrt.h"
   1:eurorack/stmlib/dsp/rsqrt.h **** // Copyright 2014 Emilie Gillet.
   2:eurorack/stmlib/dsp/rsqrt.h **** //
   3:eurorack/stmlib/dsp/rsqrt.h **** // Author: Emilie Gillet (emilie.o.gillet@gmail.com)
   4:eurorack/stmlib/dsp/rsqrt.h **** //
   5:eurorack/stmlib/dsp/rsqrt.h **** // Permission is hereby granted, free of charge, to any person obtaining a copy
   6:eurorack/stmlib/dsp/rsqrt.h **** // of this software and associated documentation files (the "Software"), to deal
   7:eurorack/stmlib/dsp/rsqrt.h **** // in the Software without restriction, including without limitation the rights
   8:eurorack/stmlib/dsp/rsqrt.h **** // to use, copy, modify, merge, publish, distribute, sublicense, and/or sell
   9:eurorack/stmlib/dsp/rsqrt.h **** // copies of the Software, and to permit persons to whom the Software is
  10:eurorack/stmlib/dsp/rsqrt.h **** // furnished to do so, subject to the following conditions:
  11:eurorack/stmlib/dsp/rsqrt.h **** // 
  12:eurorack/stmlib/dsp/rsqrt.h **** // The above copyright notice and this permission notice shall be included in
  13:eurorack/stmlib/dsp/rsqrt.h **** // all copies or substantial portions of the Software.
  14:eurorack/stmlib/dsp/rsqrt.h **** // 
  15:eurorack/stmlib/dsp/rsqrt.h **** // THE SOFTWARE IS PROVIDED "AS IS", WITHOUT WARRANTY OF ANY KIND, EXPRESS OR
  16:eurorack/stmlib/dsp/rsqrt.h **** // IMPLIED, INCLUDING BUT NOT LIMITED TO THE WARRANTIES OF MERCHANTABILITY,
  17:eurorack/stmlib/dsp/rsqrt.h **** // FITNESS FOR A PARTICULAR PURPOSE AND NONINFRINGEMENT. IN NO EVENT SHALL THE
  18:eurorack/stmlib/dsp/rsqrt.h **** // AUTHORS OR COPYRIGHT HOLDERS BE LIABLE FOR ANY CLAIM, DAMAGES OR OTHER
  19:eurorack/stmlib/dsp/rsqrt.h **** // LIABILITY, WHETHER IN AN ACTION OF CONTRACT, TORT OR OTHERWISE, ARISING FROM,
  20:eurorack/stmlib/dsp/rsqrt.h **** // OUT OF OR IN CONNECTION WITH THE SOFTWARE OR THE USE OR OTHER DEALINGS IN
  21:eurorack/stmlib/dsp/rsqrt.h **** // THE SOFTWARE.
  22:eurorack/stmlib/dsp/rsqrt.h **** // 
  23:eurorack/stmlib/dsp/rsqrt.h **** // See http://creativecommons.org/licenses/MIT/ for more information.
  24:eurorack/stmlib/dsp/rsqrt.h **** //
  25:eurorack/stmlib/dsp/rsqrt.h **** // -----------------------------------------------------------------------------
  26:eurorack/stmlib/dsp/rsqrt.h **** //
  27:eurorack/stmlib/dsp/rsqrt.h **** // Fast reciprocal of square-root routines.
  28:eurorack/stmlib/dsp/rsqrt.h **** 
  29:eurorack/stmlib/dsp/rsqrt.h **** #ifndef STMLIB_DSP_RSQRT_H_
  30:eurorack/stmlib/dsp/rsqrt.h **** #define STMLIB_DSP_RSQRT_H_
  31:eurorack/stmlib/dsp/rsqrt.h **** 
ARM GAS  /var/folders/9s/8rp0_f2s1n31qbztm3b5_fdh0000gn/T//ccF2jpeh.s 			page 25


  32:eurorack/stmlib/dsp/rsqrt.h **** #include "stmlib/stmlib.h"
  33:eurorack/stmlib/dsp/rsqrt.h **** 
  34:eurorack/stmlib/dsp/rsqrt.h **** namespace stmlib {
  35:eurorack/stmlib/dsp/rsqrt.h **** 
  36:eurorack/stmlib/dsp/rsqrt.h **** template<typename To, typename From>
  37:eurorack/stmlib/dsp/rsqrt.h **** struct unsafe_bit_cast_t {
  38:eurorack/stmlib/dsp/rsqrt.h ****   union {
  39:eurorack/stmlib/dsp/rsqrt.h ****     From from;
  40:eurorack/stmlib/dsp/rsqrt.h ****     To to;
  41:eurorack/stmlib/dsp/rsqrt.h ****   };
  42:eurorack/stmlib/dsp/rsqrt.h **** };
  43:eurorack/stmlib/dsp/rsqrt.h **** 
  44:eurorack/stmlib/dsp/rsqrt.h **** template<typename To, typename From>
  45:eurorack/stmlib/dsp/rsqrt.h **** To unsafe_bit_cast(From from) {
  46:eurorack/stmlib/dsp/rsqrt.h ****     unsafe_bit_cast_t<To, From> u;
  47:eurorack/stmlib/dsp/rsqrt.h ****     u.from = from;
  48:eurorack/stmlib/dsp/rsqrt.h ****     return u.to;
  49:eurorack/stmlib/dsp/rsqrt.h **** }
  50:eurorack/stmlib/dsp/rsqrt.h **** 
  51:eurorack/stmlib/dsp/rsqrt.h **** 
  52:eurorack/stmlib/dsp/rsqrt.h **** static inline float fast_rsqrt_carmack(float x) {
 639              		.loc 8 52 21 is_stmt 1 view .LVU159
 640              	.LBB182:
  53:eurorack/stmlib/dsp/rsqrt.h ****   uint32_t i;
 641              		.loc 8 53 3 view .LVU160
  54:eurorack/stmlib/dsp/rsqrt.h ****   float x2, y;
 642              		.loc 8 54 3 view .LVU161
  55:eurorack/stmlib/dsp/rsqrt.h ****   const float threehalfs = 1.5f;
 643              		.loc 8 55 3 view .LVU162
  56:eurorack/stmlib/dsp/rsqrt.h ****   y = x;
 644              		.loc 8 56 3 view .LVU163
  57:eurorack/stmlib/dsp/rsqrt.h ****   i = unsafe_bit_cast<uint32_t, float>(y);
 645              		.loc 8 57 3 view .LVU164
 646              	.LBB183:
 647              	.LBI183:
  45:eurorack/stmlib/dsp/rsqrt.h ****     unsafe_bit_cast_t<To, From> u;
 648              		.loc 8 45 4 view .LVU165
  45:eurorack/stmlib/dsp/rsqrt.h ****     unsafe_bit_cast_t<To, From> u;
 649              		.loc 8 45 4 is_stmt 0 view .LVU166
 650              	.LBE183:
  58:eurorack/stmlib/dsp/rsqrt.h ****   i = 0x5f3759df - (i >> 1);
 651              		.loc 8 58 3 is_stmt 1 view .LVU167
  59:eurorack/stmlib/dsp/rsqrt.h ****   y = unsafe_bit_cast<float, uint32_t>(i);
 652              		.loc 8 59 3 view .LVU168
 653              	.LBB184:
 654              	.LBI184:
  45:eurorack/stmlib/dsp/rsqrt.h ****     unsafe_bit_cast_t<To, From> u;
 655              		.loc 8 45 4 view .LVU169
 656              	.LBB185:
  48:eurorack/stmlib/dsp/rsqrt.h **** }
 657              		.loc 8 48 14 is_stmt 0 view .LVU170
 658 0092 17EE90CA 		vmov	ip, s15	@ int
 659 0096 194B     		ldr	r3, .L29+12
 660              	.LBE185:
 661              	.LBE184:
  60:eurorack/stmlib/dsp/rsqrt.h ****   x2 = x * 0.5f;
 662              		.loc 8 60 6 view .LVU171
ARM GAS  /var/folders/9s/8rp0_f2s1n31qbztm3b5_fdh0000gn/T//ccF2jpeh.s 			page 26


 663 0098 67EEA47A 		vmul.f32	s15, s15, s9
 664              	.LVL33:
 665              	.LBB188:
 666              	.LBB186:
  48:eurorack/stmlib/dsp/rsqrt.h **** }
 667              		.loc 8 48 14 view .LVU172
 668 009c A3EB5C03 		sub	r3, r3, ip, lsr #1
 669              	.LVL34:
  48:eurorack/stmlib/dsp/rsqrt.h **** }
 670              		.loc 8 48 14 view .LVU173
 671              	.LBE186:
 672              	.LBE188:
  61:eurorack/stmlib/dsp/rsqrt.h ****   y = y * (threehalfs - (x2 * y * y));
 673              		.loc 8 61 23 view .LVU174
 674 00a0 F7EE084A 		vmov.f32	s9, #1.5e+0
 675              	.LBB189:
 676              	.LBB187:
  48:eurorack/stmlib/dsp/rsqrt.h **** }
 677              		.loc 8 48 14 view .LVU175
 678 00a4 06EE103A 		vmov	s12, r3	@ int
 679              	.LVL35:
  48:eurorack/stmlib/dsp/rsqrt.h **** }
 680              		.loc 8 48 14 view .LVU176
 681              	.LBE187:
 682              	.LBE189:
  60:eurorack/stmlib/dsp/rsqrt.h ****   x2 = x * 0.5f;
 683              		.loc 8 60 3 is_stmt 1 view .LVU177
 684              		.loc 8 61 3 view .LVU178
 685              		.loc 8 61 29 is_stmt 0 view .LVU179
 686 00a8 67EE867A 		vmul.f32	s15, s15, s12
 687              		.loc 8 61 23 view .LVU180
 688 00ac E6EE674A 		vfms.f32	s9, s12, s15
 689              		.loc 8 61 5 view .LVU181
 690 00b0 26EE246A 		vmul.f32	s12, s12, s9
 691              	.LVL36:
  62:eurorack/stmlib/dsp/rsqrt.h **** 	return y;
 692              		.loc 8 62 2 is_stmt 1 view .LVU182
 693              		.loc 8 62 2 is_stmt 0 view .LVU183
 694              	.LBE182:
 695              	.LBE181:
 172:eurorack/plaits/dsp/oscillator/sine_oscillator.h ****       const float scale = stmlib::fast_rsqrt_carmack(norm);
 173:eurorack/plaits/dsp/oscillator/sine_oscillator.h ****       x *= scale;
 696              		.loc 3 173 9 view .LVU184
 697 00b4 27EE067A 		vmul.f32	s14, s14, s12
 698              	.LVL37:
 174:eurorack/plaits/dsp/oscillator/sine_oscillator.h ****       y *= scale;
 699              		.loc 3 174 9 view .LVU185
 700 00b8 66EE866A 		vmul.f32	s13, s13, s12
 701              	.LVL38:
 702              	.L26:
 703              		.loc 3 174 9 view .LVU186
 704              	.LBE180:
 705              	.LBE202:
 175:eurorack/plaits/dsp/oscillator/sine_oscillator.h ****     }
 176:eurorack/plaits/dsp/oscillator/sine_oscillator.h ****     
 177:eurorack/plaits/dsp/oscillator/sine_oscillator.h ****     while (size--) {
 706              		.loc 3 177 5 is_stmt 1 view .LVU187
ARM GAS  /var/folders/9s/8rp0_f2s1n31qbztm3b5_fdh0000gn/T//ccF2jpeh.s 			page 27


 707 00bc 013A     		subs	r2, r2, #1
 708              	.LVL39:
 709              		.loc 3 177 5 is_stmt 0 view .LVU188
 710 00be 0ED3     		bcc	.L25
 711              	.LVL40:
 712              	.LBB203:
 713              	.LBB204:
 714              	.LBI204:
  57:eurorack/stmlib/dsp/parameter_interpolator.h ****   }
  58:eurorack/stmlib/dsp/parameter_interpolator.h **** 
  59:eurorack/stmlib/dsp/parameter_interpolator.h ****   inline float Next() {
 715              		.loc 7 59 16 is_stmt 1 view .LVU189
 716              	.LBB205:
  60:eurorack/stmlib/dsp/parameter_interpolator.h ****     value_ += increment_;
 717              		.loc 7 60 5 view .LVU190
 718              		.loc 7 60 12 is_stmt 0 view .LVU191
 719 00c0 75EEA35A 		vadd.f32	s11, s11, s7
 720              	.LVL41:
  61:eurorack/stmlib/dsp/parameter_interpolator.h ****     return value_;
 721              		.loc 7 61 5 is_stmt 1 view .LVU192
 722              		.loc 7 61 5 is_stmt 0 view .LVU193
 723              	.LBE205:
 724              	.LBE204:
 178:eurorack/plaits/dsp/oscillator/sine_oscillator.h ****       const float e = epsilon.Next();
 179:eurorack/plaits/dsp/oscillator/sine_oscillator.h ****       x += e * y;
 180:eurorack/plaits/dsp/oscillator/sine_oscillator.h ****       y -= e * x;
 181:eurorack/plaits/dsp/oscillator/sine_oscillator.h ****       if (additive) {
 182:eurorack/plaits/dsp/oscillator/sine_oscillator.h ****         *out++ += am.Next() * x;
 725              		.loc 3 182 16 view .LVU194
 726 00c4 F1EC017A 		vldmia.32	r1!, {s15}
 727              	.LVL42:
 728              	.LBB206:
 729              	.LBB207:
  60:eurorack/stmlib/dsp/parameter_interpolator.h ****     return value_;
 730              		.loc 7 60 12 view .LVU195
 731 00c8 35EE045A 		vadd.f32	s10, s10, s8
 732              	.LVL43:
  60:eurorack/stmlib/dsp/parameter_interpolator.h ****     return value_;
 733              		.loc 7 60 12 view .LVU196
 734              	.LBE207:
 735              	.LBE206:
 179:eurorack/plaits/dsp/oscillator/sine_oscillator.h ****       y -= e * x;
 736              		.loc 3 179 9 view .LVU197
 737 00cc A6EEA57A 		vfma.f32	s14, s13, s11
 738              	.LVL44:
 739              		.loc 3 182 16 view .LVU198
 740 00d0 E7EE057A 		vfma.f32	s15, s14, s10
 180:eurorack/plaits/dsp/oscillator/sine_oscillator.h ****       if (additive) {
 741              		.loc 3 180 9 view .LVU199
 742 00d4 E7EE656A 		vfms.f32	s13, s14, s11
 743              	.LVL45:
 744              	.LBB209:
 745              	.LBI206:
  59:eurorack/stmlib/dsp/parameter_interpolator.h ****     value_ += increment_;
 746              		.loc 7 59 16 is_stmt 1 view .LVU200
 747              	.LBB208:
  60:eurorack/stmlib/dsp/parameter_interpolator.h ****     return value_;
ARM GAS  /var/folders/9s/8rp0_f2s1n31qbztm3b5_fdh0000gn/T//ccF2jpeh.s 			page 28


 748              		.loc 7 60 5 view .LVU201
 749              		.loc 7 61 5 view .LVU202
 750              		.loc 7 61 5 is_stmt 0 view .LVU203
 751              	.LBE208:
 752              	.LBE209:
 753              		.loc 3 182 16 view .LVU204
 754 00d8 41ED017A 		vstr.32	s15, [r1, #-4]
 755 00dc EEE7     		b	.L26
 756              	.LVL46:
 757              	.L25:
 758              		.loc 3 182 16 view .LVU205
 759              	.LBE203:
 183:eurorack/plaits/dsp/oscillator/sine_oscillator.h ****       } else {
 184:eurorack/plaits/dsp/oscillator/sine_oscillator.h ****         *out++ = x;
 185:eurorack/plaits/dsp/oscillator/sine_oscillator.h ****       }
 186:eurorack/plaits/dsp/oscillator/sine_oscillator.h ****     }
 187:eurorack/plaits/dsp/oscillator/sine_oscillator.h ****     x_ = x;
 760              		.loc 3 187 8 view .LVU206
 761 00de 80ED007A 		vstr.32	s14, [r0]
 188:eurorack/plaits/dsp/oscillator/sine_oscillator.h ****     y_ = y;
 762              		.loc 3 188 8 view .LVU207
 763 00e2 C0ED016A 		vstr.32	s13, [r0, #4]
 764              	.LVL47:
 765              	.LBB210:
 766              	.LBI210:
  49:eurorack/stmlib/dsp/parameter_interpolator.h ****     *state_ = value_;
 767              		.loc 7 49 3 is_stmt 1 view .LVU208
 768              	.LBB211:
  50:eurorack/stmlib/dsp/parameter_interpolator.h ****   }
 769              		.loc 7 50 5 view .LVU209
  50:eurorack/stmlib/dsp/parameter_interpolator.h ****   }
 770              		.loc 7 50 13 is_stmt 0 view .LVU210
 771 00e6 80ED035A 		vstr.32	s10, [r0, #12]
 772              	.LVL48:
  50:eurorack/stmlib/dsp/parameter_interpolator.h ****   }
 773              		.loc 7 50 13 view .LVU211
 774              	.LBE211:
 775              	.LBE210:
 776              	.LBB212:
 777              	.LBI212:
  49:eurorack/stmlib/dsp/parameter_interpolator.h ****     *state_ = value_;
 778              		.loc 7 49 3 is_stmt 1 view .LVU212
 779              	.LBB213:
  50:eurorack/stmlib/dsp/parameter_interpolator.h ****   }
 780              		.loc 7 50 5 view .LVU213
  50:eurorack/stmlib/dsp/parameter_interpolator.h ****   }
 781              		.loc 7 50 13 is_stmt 0 view .LVU214
 782 00ea C0ED025A 		vstr.32	s11, [r0, #8]
 783              	.LVL49:
  50:eurorack/stmlib/dsp/parameter_interpolator.h ****   }
 784              		.loc 7 50 13 view .LVU215
 785              	.LBE213:
 786              	.LBE212:
 189:eurorack/plaits/dsp/oscillator/sine_oscillator.h ****   }
 787              		.loc 3 189 3 view .LVU216
 788 00ee 7047     		bx	lr
 789              	.L30:
ARM GAS  /var/folders/9s/8rp0_f2s1n31qbztm3b5_fdh0000gn/T//ccF2jpeh.s 			page 29


 790              		.align	2
 791              	.L29:
 792 00f0 00000000 		.word	0
 793 00f4 DB0F4940 		.word	1078530011
 794 00f8 0AD7A33E 		.word	1050924810
 795 00fc DF59375F 		.word	1597463007
 796              		.cfi_endproc
 797              	.LFE1535:
 799              		.section	.text._ZN6plaits11SwarmEngine6RenderERKNS_16EngineParametersEPfS4_jPb,"ax",%progbits
 800              		.align	1
 801              		.global	_ZN6plaits11SwarmEngine6RenderERKNS_16EngineParametersEPfS4_jPb
 802              		.syntax unified
 803              		.thumb
 804              		.thumb_func
 806              	_ZN6plaits11SwarmEngine6RenderERKNS_16EngineParametersEPfS4_jPb:
 807              	.LVL50:
 808              	.LFB1527:
  47:eurorack/plaits/dsp/engine/swarm_engine.cc **** 
  48:eurorack/plaits/dsp/engine/swarm_engine.cc **** void SwarmEngine::Render(
  49:eurorack/plaits/dsp/engine/swarm_engine.cc ****     const EngineParameters& parameters,
  50:eurorack/plaits/dsp/engine/swarm_engine.cc ****     float* out,
  51:eurorack/plaits/dsp/engine/swarm_engine.cc ****     float* aux,
  52:eurorack/plaits/dsp/engine/swarm_engine.cc ****     size_t size,
  53:eurorack/plaits/dsp/engine/swarm_engine.cc ****     bool* already_enveloped) {
 809              		.loc 1 53 30 is_stmt 1 view -0
 810              		.cfi_startproc
 811              		@ args = 8, pretend = 0, frame = 8
 812              		@ frame_needed = 0, uses_anonymous_args = 0
  54:eurorack/plaits/dsp/engine/swarm_engine.cc ****   const float f0 = NoteToFrequency(parameters.note);
 813              		.loc 1 54 3 view .LVU218
  53:eurorack/plaits/dsp/engine/swarm_engine.cc ****   const float f0 = NoteToFrequency(parameters.note);
 814              		.loc 1 53 30 is_stmt 0 view .LVU219
 815 0000 2DE9F047 		push	{r4, r5, r6, r7, r8, r9, r10, lr}
 816              		.cfi_def_cfa_offset 32
 817              		.cfi_offset 4, -32
 818              		.cfi_offset 5, -28
 819              		.cfi_offset 6, -24
 820              		.cfi_offset 7, -20
 821              		.cfi_offset 8, -16
 822              		.cfi_offset 9, -12
 823              		.cfi_offset 10, -8
 824              		.cfi_offset 14, -4
 825 0004 2DED0A8B 		vpush.64	{d8, d9, d10, d11, d12}
 826              		.cfi_def_cfa_offset 72
 827              		.cfi_offset 80, -72
 828              		.cfi_offset 81, -68
 829              		.cfi_offset 82, -64
 830              		.cfi_offset 83, -60
 831              		.cfi_offset 84, -56
 832              		.cfi_offset 85, -52
 833              		.cfi_offset 86, -48
 834              		.cfi_offset 87, -44
 835              		.cfi_offset 88, -40
 836              		.cfi_offset 89, -36
 837 0008 82B0     		sub	sp, sp, #8
 838              		.cfi_def_cfa_offset 80
 839              		.loc 1 54 35 view .LVU220
ARM GAS  /var/folders/9s/8rp0_f2s1n31qbztm3b5_fdh0000gn/T//ccF2jpeh.s 			page 30


 840 000a 91ED010A 		vldr.32	s0, [r1, #4]
  53:eurorack/plaits/dsp/engine/swarm_engine.cc ****   const float f0 = NoteToFrequency(parameters.note);
 841              		.loc 1 53 30 view .LVU221
 842 000e 0C46     		mov	r4, r1
 843 0010 0546     		mov	r5, r0
 844 0012 149F     		ldr	r7, [sp, #80]
 845 0014 1E46     		mov	r6, r3
 846 0016 9146     		mov	r9, r2
 847              		.loc 1 54 35 view .LVU222
 848 0018 FFF7FEFF 		bl	_ZN6plaits15NoteToFrequencyEf
 849              	.LVL51:
  55:eurorack/plaits/dsp/engine/swarm_engine.cc ****   const float control_rate = static_cast<float>(size);
 850              		.loc 1 55 15 view .LVU223
 851 001c 07EE907A 		vmov	s15, r7	@ int
  54:eurorack/plaits/dsp/engine/swarm_engine.cc ****   const float f0 = NoteToFrequency(parameters.note);
 852              		.loc 1 54 35 view .LVU224
 853 0020 B0EE40AA 		vmov.f32	s20, s0
 854              	.LVL52:
 855              		.loc 1 55 3 is_stmt 1 view .LVU225
  56:eurorack/plaits/dsp/engine/swarm_engine.cc ****   const float density = NoteToFrequency(parameters.timbre * 120.0f) * \
 856              		.loc 1 56 40 is_stmt 0 view .LVU226
 857 0024 94ED020A 		vldr.32	s0, [r4, #8]
 858              	.LVL53:
  57:eurorack/plaits/dsp/engine/swarm_engine.cc ****       0.025f * control_rate;
  58:eurorack/plaits/dsp/engine/swarm_engine.cc ****   const float spread = parameters.harmonics * parameters.harmonics * \
  59:eurorack/plaits/dsp/engine/swarm_engine.cc ****       parameters.harmonics;
  60:eurorack/plaits/dsp/engine/swarm_engine.cc ****   float size_ratio = 0.25f * SemitonesToRatio(
  61:eurorack/plaits/dsp/engine/swarm_engine.cc ****       (1.0f - parameters.morph) * 84.0f);
 859              		.loc 1 61 13 view .LVU227
 860 0028 B7EE008A 		vmov.f32	s16, #1.0e+0
  55:eurorack/plaits/dsp/engine/swarm_engine.cc ****   const float density = NoteToFrequency(parameters.timbre * 120.0f) * \
 861              		.loc 1 55 15 view .LVU228
 862 002c F8EE67AA 		vcvt.f32.u32	s21, s15
 863              	.LVL54:
  56:eurorack/plaits/dsp/engine/swarm_engine.cc ****   const float density = NoteToFrequency(parameters.timbre * 120.0f) * \
 864              		.loc 1 56 3 is_stmt 1 view .LVU229
  56:eurorack/plaits/dsp/engine/swarm_engine.cc ****   const float density = NoteToFrequency(parameters.timbre * 120.0f) * \
 865              		.loc 1 56 40 is_stmt 0 view .LVU230
 866 0030 DFEDC77A 		vldr.32	s15, .L67
  56:eurorack/plaits/dsp/engine/swarm_engine.cc ****   const float density = NoteToFrequency(parameters.timbre * 120.0f) * \
 867              		.loc 1 56 69 view .LVU231
 868 0034 9FEDC79A 		vldr.32	s18, .L67+4
 869              		.loc 1 61 40 view .LVU232
 870 0038 B5EE00BA 		vmov.f32	s22, #2.5e-1
  56:eurorack/plaits/dsp/engine/swarm_engine.cc ****   const float density = NoteToFrequency(parameters.timbre * 120.0f) * \
 871              		.loc 1 56 40 view .LVU233
 872 003c 20EE270A 		vmul.f32	s0, s0, s15
 873 0040 FFF7FEFF 		bl	_ZN6plaits15NoteToFrequencyEf
 874              	.LVL55:
  58:eurorack/plaits/dsp/engine/swarm_engine.cc ****       parameters.harmonics;
 875              		.loc 1 58 35 view .LVU234
 876 0044 D4ED047A 		vldr.32	s15, [r4, #16]
  56:eurorack/plaits/dsp/engine/swarm_engine.cc ****       0.025f * control_rate;
 877              		.loc 1 56 69 view .LVU235
 878 0048 20EE090A 		vmul.f32	s0, s0, s18
  58:eurorack/plaits/dsp/engine/swarm_engine.cc ****       parameters.harmonics;
 879              		.loc 1 58 45 view .LVU236
ARM GAS  /var/folders/9s/8rp0_f2s1n31qbztm3b5_fdh0000gn/T//ccF2jpeh.s 			page 31


 880 004c 67EEA79A 		vmul.f32	s19, s15, s15
  57:eurorack/plaits/dsp/engine/swarm_engine.cc ****   const float spread = parameters.harmonics * parameters.harmonics * \
 881              		.loc 1 57 16 view .LVU237
 882 0050 20EE2A9A 		vmul.f32	s18, s0, s21
 883              	.LVL56:
  58:eurorack/plaits/dsp/engine/swarm_engine.cc ****       parameters.harmonics;
 884              		.loc 1 58 3 is_stmt 1 view .LVU238
  60:eurorack/plaits/dsp/engine/swarm_engine.cc ****       (1.0f - parameters.morph) * 84.0f);
 885              		.loc 1 60 46 is_stmt 0 view .LVU239
 886 0054 9FEDC00A 		vldr.32	s0, .L67+8
  58:eurorack/plaits/dsp/engine/swarm_engine.cc ****       parameters.harmonics;
 887              		.loc 1 58 15 view .LVU240
 888 0058 69EEA79A 		vmul.f32	s19, s19, s15
 889              	.LVL57:
  60:eurorack/plaits/dsp/engine/swarm_engine.cc ****       (1.0f - parameters.morph) * 84.0f);
 890              		.loc 1 60 3 is_stmt 1 view .LVU241
 891              		.loc 1 61 13 is_stmt 0 view .LVU242
 892 005c D4ED037A 		vldr.32	s15, [r4, #12]
 893 0060 78EE677A 		vsub.f32	s15, s16, s15
  60:eurorack/plaits/dsp/engine/swarm_engine.cc ****       (1.0f - parameters.morph) * 84.0f);
 894              		.loc 1 60 46 view .LVU243
 895 0064 27EE800A 		vmul.f32	s0, s15, s0
 896 0068 FFF7FEFF 		bl	_ZN6stmlib16SemitonesToRatioEf
 897              	.LVL58:
  62:eurorack/plaits/dsp/engine/swarm_engine.cc ****   
  63:eurorack/plaits/dsp/engine/swarm_engine.cc ****   const bool burst_mode = !(parameters.trigger & TRIGGER_UNPATCHED);
 898              		.loc 1 63 40 view .LVU244
 899 006c 94F80080 		ldrb	r8, [r4]	@ zero_extendqisi2
  64:eurorack/plaits/dsp/engine/swarm_engine.cc ****   const bool start_burst = parameters.trigger & TRIGGER_RISING_EDGE;
  65:eurorack/plaits/dsp/engine/swarm_engine.cc **** 
  66:eurorack/plaits/dsp/engine/swarm_engine.cc ****   fill(&out[0], &out[size], 0.0f);
 900              		.loc 1 66 26 view .LVU245
 901 0070 BA00     		lsls	r2, r7, #2
 902              	.LBB270:
 903              	.LBB271:
 904              	.LBB272:
 905              	.LBB273:
 906              		.file 9 "/Library/DaisyToolchain/0.2.0/arm/arm-none-eabi/include/c++/10.3.1/bits/stl_algobase.h"
   1:/Library/DaisyToolchain/0.2.0/arm/arm-none-eabi/include/c++/10.3.1/bits/stl_algobase.h **** // Core algorithmic facilities -*- C++ -*-
   2:/Library/DaisyToolchain/0.2.0/arm/arm-none-eabi/include/c++/10.3.1/bits/stl_algobase.h **** 
   3:/Library/DaisyToolchain/0.2.0/arm/arm-none-eabi/include/c++/10.3.1/bits/stl_algobase.h **** // Copyright (C) 2001-2020 Free Software Foundation, Inc.
   4:/Library/DaisyToolchain/0.2.0/arm/arm-none-eabi/include/c++/10.3.1/bits/stl_algobase.h **** //
   5:/Library/DaisyToolchain/0.2.0/arm/arm-none-eabi/include/c++/10.3.1/bits/stl_algobase.h **** // This file is part of the GNU ISO C++ Library.  This library is free
   6:/Library/DaisyToolchain/0.2.0/arm/arm-none-eabi/include/c++/10.3.1/bits/stl_algobase.h **** // software; you can redistribute it and/or modify it under the
   7:/Library/DaisyToolchain/0.2.0/arm/arm-none-eabi/include/c++/10.3.1/bits/stl_algobase.h **** // terms of the GNU General Public License as published by the
   8:/Library/DaisyToolchain/0.2.0/arm/arm-none-eabi/include/c++/10.3.1/bits/stl_algobase.h **** // Free Software Foundation; either version 3, or (at your option)
   9:/Library/DaisyToolchain/0.2.0/arm/arm-none-eabi/include/c++/10.3.1/bits/stl_algobase.h **** // any later version.
  10:/Library/DaisyToolchain/0.2.0/arm/arm-none-eabi/include/c++/10.3.1/bits/stl_algobase.h **** 
  11:/Library/DaisyToolchain/0.2.0/arm/arm-none-eabi/include/c++/10.3.1/bits/stl_algobase.h **** // This library is distributed in the hope that it will be useful,
  12:/Library/DaisyToolchain/0.2.0/arm/arm-none-eabi/include/c++/10.3.1/bits/stl_algobase.h **** // but WITHOUT ANY WARRANTY; without even the implied warranty of
  13:/Library/DaisyToolchain/0.2.0/arm/arm-none-eabi/include/c++/10.3.1/bits/stl_algobase.h **** // MERCHANTABILITY or FITNESS FOR A PARTICULAR PURPOSE.  See the
  14:/Library/DaisyToolchain/0.2.0/arm/arm-none-eabi/include/c++/10.3.1/bits/stl_algobase.h **** // GNU General Public License for more details.
  15:/Library/DaisyToolchain/0.2.0/arm/arm-none-eabi/include/c++/10.3.1/bits/stl_algobase.h **** 
  16:/Library/DaisyToolchain/0.2.0/arm/arm-none-eabi/include/c++/10.3.1/bits/stl_algobase.h **** // Under Section 7 of GPL version 3, you are granted additional
  17:/Library/DaisyToolchain/0.2.0/arm/arm-none-eabi/include/c++/10.3.1/bits/stl_algobase.h **** // permissions described in the GCC Runtime Library Exception, version
  18:/Library/DaisyToolchain/0.2.0/arm/arm-none-eabi/include/c++/10.3.1/bits/stl_algobase.h **** // 3.1, as published by the Free Software Foundation.
  19:/Library/DaisyToolchain/0.2.0/arm/arm-none-eabi/include/c++/10.3.1/bits/stl_algobase.h **** 
ARM GAS  /var/folders/9s/8rp0_f2s1n31qbztm3b5_fdh0000gn/T//ccF2jpeh.s 			page 32


  20:/Library/DaisyToolchain/0.2.0/arm/arm-none-eabi/include/c++/10.3.1/bits/stl_algobase.h **** // You should have received a copy of the GNU General Public License and
  21:/Library/DaisyToolchain/0.2.0/arm/arm-none-eabi/include/c++/10.3.1/bits/stl_algobase.h **** // a copy of the GCC Runtime Library Exception along with this program;
  22:/Library/DaisyToolchain/0.2.0/arm/arm-none-eabi/include/c++/10.3.1/bits/stl_algobase.h **** // see the files COPYING3 and COPYING.RUNTIME respectively.  If not, see
  23:/Library/DaisyToolchain/0.2.0/arm/arm-none-eabi/include/c++/10.3.1/bits/stl_algobase.h **** // <http://www.gnu.org/licenses/>.
  24:/Library/DaisyToolchain/0.2.0/arm/arm-none-eabi/include/c++/10.3.1/bits/stl_algobase.h **** 
  25:/Library/DaisyToolchain/0.2.0/arm/arm-none-eabi/include/c++/10.3.1/bits/stl_algobase.h **** /*
  26:/Library/DaisyToolchain/0.2.0/arm/arm-none-eabi/include/c++/10.3.1/bits/stl_algobase.h ****  *
  27:/Library/DaisyToolchain/0.2.0/arm/arm-none-eabi/include/c++/10.3.1/bits/stl_algobase.h ****  * Copyright (c) 1994
  28:/Library/DaisyToolchain/0.2.0/arm/arm-none-eabi/include/c++/10.3.1/bits/stl_algobase.h ****  * Hewlett-Packard Company
  29:/Library/DaisyToolchain/0.2.0/arm/arm-none-eabi/include/c++/10.3.1/bits/stl_algobase.h ****  *
  30:/Library/DaisyToolchain/0.2.0/arm/arm-none-eabi/include/c++/10.3.1/bits/stl_algobase.h ****  * Permission to use, copy, modify, distribute and sell this software
  31:/Library/DaisyToolchain/0.2.0/arm/arm-none-eabi/include/c++/10.3.1/bits/stl_algobase.h ****  * and its documentation for any purpose is hereby granted without fee,
  32:/Library/DaisyToolchain/0.2.0/arm/arm-none-eabi/include/c++/10.3.1/bits/stl_algobase.h ****  * provided that the above copyright notice appear in all copies and
  33:/Library/DaisyToolchain/0.2.0/arm/arm-none-eabi/include/c++/10.3.1/bits/stl_algobase.h ****  * that both that copyright notice and this permission notice appear
  34:/Library/DaisyToolchain/0.2.0/arm/arm-none-eabi/include/c++/10.3.1/bits/stl_algobase.h ****  * in supporting documentation.  Hewlett-Packard Company makes no
  35:/Library/DaisyToolchain/0.2.0/arm/arm-none-eabi/include/c++/10.3.1/bits/stl_algobase.h ****  * representations about the suitability of this software for any
  36:/Library/DaisyToolchain/0.2.0/arm/arm-none-eabi/include/c++/10.3.1/bits/stl_algobase.h ****  * purpose.  It is provided "as is" without express or implied warranty.
  37:/Library/DaisyToolchain/0.2.0/arm/arm-none-eabi/include/c++/10.3.1/bits/stl_algobase.h ****  *
  38:/Library/DaisyToolchain/0.2.0/arm/arm-none-eabi/include/c++/10.3.1/bits/stl_algobase.h ****  *
  39:/Library/DaisyToolchain/0.2.0/arm/arm-none-eabi/include/c++/10.3.1/bits/stl_algobase.h ****  * Copyright (c) 1996-1998
  40:/Library/DaisyToolchain/0.2.0/arm/arm-none-eabi/include/c++/10.3.1/bits/stl_algobase.h ****  * Silicon Graphics Computer Systems, Inc.
  41:/Library/DaisyToolchain/0.2.0/arm/arm-none-eabi/include/c++/10.3.1/bits/stl_algobase.h ****  *
  42:/Library/DaisyToolchain/0.2.0/arm/arm-none-eabi/include/c++/10.3.1/bits/stl_algobase.h ****  * Permission to use, copy, modify, distribute and sell this software
  43:/Library/DaisyToolchain/0.2.0/arm/arm-none-eabi/include/c++/10.3.1/bits/stl_algobase.h ****  * and its documentation for any purpose is hereby granted without fee,
  44:/Library/DaisyToolchain/0.2.0/arm/arm-none-eabi/include/c++/10.3.1/bits/stl_algobase.h ****  * provided that the above copyright notice appear in all copies and
  45:/Library/DaisyToolchain/0.2.0/arm/arm-none-eabi/include/c++/10.3.1/bits/stl_algobase.h ****  * that both that copyright notice and this permission notice appear
  46:/Library/DaisyToolchain/0.2.0/arm/arm-none-eabi/include/c++/10.3.1/bits/stl_algobase.h ****  * in supporting documentation.  Silicon Graphics makes no
  47:/Library/DaisyToolchain/0.2.0/arm/arm-none-eabi/include/c++/10.3.1/bits/stl_algobase.h ****  * representations about the suitability of this software for any
  48:/Library/DaisyToolchain/0.2.0/arm/arm-none-eabi/include/c++/10.3.1/bits/stl_algobase.h ****  * purpose.  It is provided "as is" without express or implied warranty.
  49:/Library/DaisyToolchain/0.2.0/arm/arm-none-eabi/include/c++/10.3.1/bits/stl_algobase.h ****  */
  50:/Library/DaisyToolchain/0.2.0/arm/arm-none-eabi/include/c++/10.3.1/bits/stl_algobase.h **** 
  51:/Library/DaisyToolchain/0.2.0/arm/arm-none-eabi/include/c++/10.3.1/bits/stl_algobase.h **** /** @file bits/stl_algobase.h
  52:/Library/DaisyToolchain/0.2.0/arm/arm-none-eabi/include/c++/10.3.1/bits/stl_algobase.h ****  *  This is an internal header file, included by other library headers.
  53:/Library/DaisyToolchain/0.2.0/arm/arm-none-eabi/include/c++/10.3.1/bits/stl_algobase.h ****  *  Do not attempt to use it directly. @headername{algorithm}
  54:/Library/DaisyToolchain/0.2.0/arm/arm-none-eabi/include/c++/10.3.1/bits/stl_algobase.h ****  */
  55:/Library/DaisyToolchain/0.2.0/arm/arm-none-eabi/include/c++/10.3.1/bits/stl_algobase.h **** 
  56:/Library/DaisyToolchain/0.2.0/arm/arm-none-eabi/include/c++/10.3.1/bits/stl_algobase.h **** #ifndef _STL_ALGOBASE_H
  57:/Library/DaisyToolchain/0.2.0/arm/arm-none-eabi/include/c++/10.3.1/bits/stl_algobase.h **** #define _STL_ALGOBASE_H 1
  58:/Library/DaisyToolchain/0.2.0/arm/arm-none-eabi/include/c++/10.3.1/bits/stl_algobase.h **** 
  59:/Library/DaisyToolchain/0.2.0/arm/arm-none-eabi/include/c++/10.3.1/bits/stl_algobase.h **** #include <bits/c++config.h>
  60:/Library/DaisyToolchain/0.2.0/arm/arm-none-eabi/include/c++/10.3.1/bits/stl_algobase.h **** #include <bits/functexcept.h>
  61:/Library/DaisyToolchain/0.2.0/arm/arm-none-eabi/include/c++/10.3.1/bits/stl_algobase.h **** #include <bits/cpp_type_traits.h>
  62:/Library/DaisyToolchain/0.2.0/arm/arm-none-eabi/include/c++/10.3.1/bits/stl_algobase.h **** #include <ext/type_traits.h>
  63:/Library/DaisyToolchain/0.2.0/arm/arm-none-eabi/include/c++/10.3.1/bits/stl_algobase.h **** #include <ext/numeric_traits.h>
  64:/Library/DaisyToolchain/0.2.0/arm/arm-none-eabi/include/c++/10.3.1/bits/stl_algobase.h **** #include <bits/stl_pair.h>
  65:/Library/DaisyToolchain/0.2.0/arm/arm-none-eabi/include/c++/10.3.1/bits/stl_algobase.h **** #include <bits/stl_iterator_base_types.h>
  66:/Library/DaisyToolchain/0.2.0/arm/arm-none-eabi/include/c++/10.3.1/bits/stl_algobase.h **** #include <bits/stl_iterator_base_funcs.h>
  67:/Library/DaisyToolchain/0.2.0/arm/arm-none-eabi/include/c++/10.3.1/bits/stl_algobase.h **** #include <bits/stl_iterator.h>
  68:/Library/DaisyToolchain/0.2.0/arm/arm-none-eabi/include/c++/10.3.1/bits/stl_algobase.h **** #include <bits/concept_check.h>
  69:/Library/DaisyToolchain/0.2.0/arm/arm-none-eabi/include/c++/10.3.1/bits/stl_algobase.h **** #include <debug/debug.h>
  70:/Library/DaisyToolchain/0.2.0/arm/arm-none-eabi/include/c++/10.3.1/bits/stl_algobase.h **** #include <bits/move.h> // For std::swap
  71:/Library/DaisyToolchain/0.2.0/arm/arm-none-eabi/include/c++/10.3.1/bits/stl_algobase.h **** #include <bits/predefined_ops.h>
  72:/Library/DaisyToolchain/0.2.0/arm/arm-none-eabi/include/c++/10.3.1/bits/stl_algobase.h **** #if __cplusplus >= 201103L
  73:/Library/DaisyToolchain/0.2.0/arm/arm-none-eabi/include/c++/10.3.1/bits/stl_algobase.h **** # include <type_traits>
  74:/Library/DaisyToolchain/0.2.0/arm/arm-none-eabi/include/c++/10.3.1/bits/stl_algobase.h **** #endif
  75:/Library/DaisyToolchain/0.2.0/arm/arm-none-eabi/include/c++/10.3.1/bits/stl_algobase.h **** #if __cplusplus > 201703L
  76:/Library/DaisyToolchain/0.2.0/arm/arm-none-eabi/include/c++/10.3.1/bits/stl_algobase.h **** # include <compare>
ARM GAS  /var/folders/9s/8rp0_f2s1n31qbztm3b5_fdh0000gn/T//ccF2jpeh.s 			page 33


  77:/Library/DaisyToolchain/0.2.0/arm/arm-none-eabi/include/c++/10.3.1/bits/stl_algobase.h **** #endif
  78:/Library/DaisyToolchain/0.2.0/arm/arm-none-eabi/include/c++/10.3.1/bits/stl_algobase.h **** 
  79:/Library/DaisyToolchain/0.2.0/arm/arm-none-eabi/include/c++/10.3.1/bits/stl_algobase.h **** namespace std _GLIBCXX_VISIBILITY(default)
  80:/Library/DaisyToolchain/0.2.0/arm/arm-none-eabi/include/c++/10.3.1/bits/stl_algobase.h **** {
  81:/Library/DaisyToolchain/0.2.0/arm/arm-none-eabi/include/c++/10.3.1/bits/stl_algobase.h **** _GLIBCXX_BEGIN_NAMESPACE_VERSION
  82:/Library/DaisyToolchain/0.2.0/arm/arm-none-eabi/include/c++/10.3.1/bits/stl_algobase.h **** 
  83:/Library/DaisyToolchain/0.2.0/arm/arm-none-eabi/include/c++/10.3.1/bits/stl_algobase.h ****   /*
  84:/Library/DaisyToolchain/0.2.0/arm/arm-none-eabi/include/c++/10.3.1/bits/stl_algobase.h ****    * A constexpr wrapper for __builtin_memcmp.
  85:/Library/DaisyToolchain/0.2.0/arm/arm-none-eabi/include/c++/10.3.1/bits/stl_algobase.h ****    * @param __num The number of elements of type _Tp (not bytes).
  86:/Library/DaisyToolchain/0.2.0/arm/arm-none-eabi/include/c++/10.3.1/bits/stl_algobase.h ****    */
  87:/Library/DaisyToolchain/0.2.0/arm/arm-none-eabi/include/c++/10.3.1/bits/stl_algobase.h ****   template<typename _Tp, typename _Up>
  88:/Library/DaisyToolchain/0.2.0/arm/arm-none-eabi/include/c++/10.3.1/bits/stl_algobase.h ****     _GLIBCXX14_CONSTEXPR
  89:/Library/DaisyToolchain/0.2.0/arm/arm-none-eabi/include/c++/10.3.1/bits/stl_algobase.h ****     inline int
  90:/Library/DaisyToolchain/0.2.0/arm/arm-none-eabi/include/c++/10.3.1/bits/stl_algobase.h ****     __memcmp(const _Tp* __first1, const _Up* __first2, size_t __num)
  91:/Library/DaisyToolchain/0.2.0/arm/arm-none-eabi/include/c++/10.3.1/bits/stl_algobase.h ****     {
  92:/Library/DaisyToolchain/0.2.0/arm/arm-none-eabi/include/c++/10.3.1/bits/stl_algobase.h **** #if __cplusplus >= 201103L
  93:/Library/DaisyToolchain/0.2.0/arm/arm-none-eabi/include/c++/10.3.1/bits/stl_algobase.h ****       static_assert(sizeof(_Tp) == sizeof(_Up), "can be compared with memcmp");
  94:/Library/DaisyToolchain/0.2.0/arm/arm-none-eabi/include/c++/10.3.1/bits/stl_algobase.h **** #endif
  95:/Library/DaisyToolchain/0.2.0/arm/arm-none-eabi/include/c++/10.3.1/bits/stl_algobase.h **** #ifdef __cpp_lib_is_constant_evaluated
  96:/Library/DaisyToolchain/0.2.0/arm/arm-none-eabi/include/c++/10.3.1/bits/stl_algobase.h ****       if (std::is_constant_evaluated())
  97:/Library/DaisyToolchain/0.2.0/arm/arm-none-eabi/include/c++/10.3.1/bits/stl_algobase.h **** 	{
  98:/Library/DaisyToolchain/0.2.0/arm/arm-none-eabi/include/c++/10.3.1/bits/stl_algobase.h **** 	  for(; __num > 0; ++__first1, ++__first2, --__num)
  99:/Library/DaisyToolchain/0.2.0/arm/arm-none-eabi/include/c++/10.3.1/bits/stl_algobase.h **** 	    if (*__first1 != *__first2)
 100:/Library/DaisyToolchain/0.2.0/arm/arm-none-eabi/include/c++/10.3.1/bits/stl_algobase.h **** 	      return *__first1 < *__first2 ? -1 : 1;
 101:/Library/DaisyToolchain/0.2.0/arm/arm-none-eabi/include/c++/10.3.1/bits/stl_algobase.h **** 	  return 0;
 102:/Library/DaisyToolchain/0.2.0/arm/arm-none-eabi/include/c++/10.3.1/bits/stl_algobase.h **** 	}
 103:/Library/DaisyToolchain/0.2.0/arm/arm-none-eabi/include/c++/10.3.1/bits/stl_algobase.h ****       else
 104:/Library/DaisyToolchain/0.2.0/arm/arm-none-eabi/include/c++/10.3.1/bits/stl_algobase.h **** #endif
 105:/Library/DaisyToolchain/0.2.0/arm/arm-none-eabi/include/c++/10.3.1/bits/stl_algobase.h **** 	return __builtin_memcmp(__first1, __first2, sizeof(_Tp) * __num);
 106:/Library/DaisyToolchain/0.2.0/arm/arm-none-eabi/include/c++/10.3.1/bits/stl_algobase.h ****     }
 107:/Library/DaisyToolchain/0.2.0/arm/arm-none-eabi/include/c++/10.3.1/bits/stl_algobase.h **** 
 108:/Library/DaisyToolchain/0.2.0/arm/arm-none-eabi/include/c++/10.3.1/bits/stl_algobase.h **** #if __cplusplus < 201103L
 109:/Library/DaisyToolchain/0.2.0/arm/arm-none-eabi/include/c++/10.3.1/bits/stl_algobase.h ****   // See http://gcc.gnu.org/ml/libstdc++/2004-08/msg00167.html: in a
 110:/Library/DaisyToolchain/0.2.0/arm/arm-none-eabi/include/c++/10.3.1/bits/stl_algobase.h ****   // nutshell, we are partially implementing the resolution of DR 187,
 111:/Library/DaisyToolchain/0.2.0/arm/arm-none-eabi/include/c++/10.3.1/bits/stl_algobase.h ****   // when it's safe, i.e., the value_types are equal.
 112:/Library/DaisyToolchain/0.2.0/arm/arm-none-eabi/include/c++/10.3.1/bits/stl_algobase.h ****   template<bool _BoolType>
 113:/Library/DaisyToolchain/0.2.0/arm/arm-none-eabi/include/c++/10.3.1/bits/stl_algobase.h ****     struct __iter_swap
 114:/Library/DaisyToolchain/0.2.0/arm/arm-none-eabi/include/c++/10.3.1/bits/stl_algobase.h ****     {
 115:/Library/DaisyToolchain/0.2.0/arm/arm-none-eabi/include/c++/10.3.1/bits/stl_algobase.h ****       template<typename _ForwardIterator1, typename _ForwardIterator2>
 116:/Library/DaisyToolchain/0.2.0/arm/arm-none-eabi/include/c++/10.3.1/bits/stl_algobase.h **** 	static void
 117:/Library/DaisyToolchain/0.2.0/arm/arm-none-eabi/include/c++/10.3.1/bits/stl_algobase.h **** 	iter_swap(_ForwardIterator1 __a, _ForwardIterator2 __b)
 118:/Library/DaisyToolchain/0.2.0/arm/arm-none-eabi/include/c++/10.3.1/bits/stl_algobase.h **** 	{
 119:/Library/DaisyToolchain/0.2.0/arm/arm-none-eabi/include/c++/10.3.1/bits/stl_algobase.h **** 	  typedef typename iterator_traits<_ForwardIterator1>::value_type
 120:/Library/DaisyToolchain/0.2.0/arm/arm-none-eabi/include/c++/10.3.1/bits/stl_algobase.h **** 	    _ValueType1;
 121:/Library/DaisyToolchain/0.2.0/arm/arm-none-eabi/include/c++/10.3.1/bits/stl_algobase.h **** 	  _ValueType1 __tmp = *__a;
 122:/Library/DaisyToolchain/0.2.0/arm/arm-none-eabi/include/c++/10.3.1/bits/stl_algobase.h **** 	  *__a = *__b;
 123:/Library/DaisyToolchain/0.2.0/arm/arm-none-eabi/include/c++/10.3.1/bits/stl_algobase.h **** 	  *__b = __tmp;
 124:/Library/DaisyToolchain/0.2.0/arm/arm-none-eabi/include/c++/10.3.1/bits/stl_algobase.h **** 	}
 125:/Library/DaisyToolchain/0.2.0/arm/arm-none-eabi/include/c++/10.3.1/bits/stl_algobase.h ****     };
 126:/Library/DaisyToolchain/0.2.0/arm/arm-none-eabi/include/c++/10.3.1/bits/stl_algobase.h **** 
 127:/Library/DaisyToolchain/0.2.0/arm/arm-none-eabi/include/c++/10.3.1/bits/stl_algobase.h ****   template<>
 128:/Library/DaisyToolchain/0.2.0/arm/arm-none-eabi/include/c++/10.3.1/bits/stl_algobase.h ****     struct __iter_swap<true>
 129:/Library/DaisyToolchain/0.2.0/arm/arm-none-eabi/include/c++/10.3.1/bits/stl_algobase.h ****     {
 130:/Library/DaisyToolchain/0.2.0/arm/arm-none-eabi/include/c++/10.3.1/bits/stl_algobase.h ****       template<typename _ForwardIterator1, typename _ForwardIterator2>
 131:/Library/DaisyToolchain/0.2.0/arm/arm-none-eabi/include/c++/10.3.1/bits/stl_algobase.h **** 	static void
 132:/Library/DaisyToolchain/0.2.0/arm/arm-none-eabi/include/c++/10.3.1/bits/stl_algobase.h **** 	iter_swap(_ForwardIterator1 __a, _ForwardIterator2 __b)
 133:/Library/DaisyToolchain/0.2.0/arm/arm-none-eabi/include/c++/10.3.1/bits/stl_algobase.h **** 	{
ARM GAS  /var/folders/9s/8rp0_f2s1n31qbztm3b5_fdh0000gn/T//ccF2jpeh.s 			page 34


 134:/Library/DaisyToolchain/0.2.0/arm/arm-none-eabi/include/c++/10.3.1/bits/stl_algobase.h **** 	  swap(*__a, *__b);
 135:/Library/DaisyToolchain/0.2.0/arm/arm-none-eabi/include/c++/10.3.1/bits/stl_algobase.h **** 	}
 136:/Library/DaisyToolchain/0.2.0/arm/arm-none-eabi/include/c++/10.3.1/bits/stl_algobase.h ****     };
 137:/Library/DaisyToolchain/0.2.0/arm/arm-none-eabi/include/c++/10.3.1/bits/stl_algobase.h **** #endif // C++03
 138:/Library/DaisyToolchain/0.2.0/arm/arm-none-eabi/include/c++/10.3.1/bits/stl_algobase.h **** 
 139:/Library/DaisyToolchain/0.2.0/arm/arm-none-eabi/include/c++/10.3.1/bits/stl_algobase.h ****   /**
 140:/Library/DaisyToolchain/0.2.0/arm/arm-none-eabi/include/c++/10.3.1/bits/stl_algobase.h ****    *  @brief Swaps the contents of two iterators.
 141:/Library/DaisyToolchain/0.2.0/arm/arm-none-eabi/include/c++/10.3.1/bits/stl_algobase.h ****    *  @ingroup mutating_algorithms
 142:/Library/DaisyToolchain/0.2.0/arm/arm-none-eabi/include/c++/10.3.1/bits/stl_algobase.h ****    *  @param  __a  An iterator.
 143:/Library/DaisyToolchain/0.2.0/arm/arm-none-eabi/include/c++/10.3.1/bits/stl_algobase.h ****    *  @param  __b  Another iterator.
 144:/Library/DaisyToolchain/0.2.0/arm/arm-none-eabi/include/c++/10.3.1/bits/stl_algobase.h ****    *  @return   Nothing.
 145:/Library/DaisyToolchain/0.2.0/arm/arm-none-eabi/include/c++/10.3.1/bits/stl_algobase.h ****    *
 146:/Library/DaisyToolchain/0.2.0/arm/arm-none-eabi/include/c++/10.3.1/bits/stl_algobase.h ****    *  This function swaps the values pointed to by two iterators, not the
 147:/Library/DaisyToolchain/0.2.0/arm/arm-none-eabi/include/c++/10.3.1/bits/stl_algobase.h ****    *  iterators themselves.
 148:/Library/DaisyToolchain/0.2.0/arm/arm-none-eabi/include/c++/10.3.1/bits/stl_algobase.h ****   */
 149:/Library/DaisyToolchain/0.2.0/arm/arm-none-eabi/include/c++/10.3.1/bits/stl_algobase.h ****   template<typename _ForwardIterator1, typename _ForwardIterator2>
 150:/Library/DaisyToolchain/0.2.0/arm/arm-none-eabi/include/c++/10.3.1/bits/stl_algobase.h ****     _GLIBCXX20_CONSTEXPR
 151:/Library/DaisyToolchain/0.2.0/arm/arm-none-eabi/include/c++/10.3.1/bits/stl_algobase.h ****     inline void
 152:/Library/DaisyToolchain/0.2.0/arm/arm-none-eabi/include/c++/10.3.1/bits/stl_algobase.h ****     iter_swap(_ForwardIterator1 __a, _ForwardIterator2 __b)
 153:/Library/DaisyToolchain/0.2.0/arm/arm-none-eabi/include/c++/10.3.1/bits/stl_algobase.h ****     {
 154:/Library/DaisyToolchain/0.2.0/arm/arm-none-eabi/include/c++/10.3.1/bits/stl_algobase.h ****       // concept requirements
 155:/Library/DaisyToolchain/0.2.0/arm/arm-none-eabi/include/c++/10.3.1/bits/stl_algobase.h ****       __glibcxx_function_requires(_Mutable_ForwardIteratorConcept<
 156:/Library/DaisyToolchain/0.2.0/arm/arm-none-eabi/include/c++/10.3.1/bits/stl_algobase.h **** 				  _ForwardIterator1>)
 157:/Library/DaisyToolchain/0.2.0/arm/arm-none-eabi/include/c++/10.3.1/bits/stl_algobase.h ****       __glibcxx_function_requires(_Mutable_ForwardIteratorConcept<
 158:/Library/DaisyToolchain/0.2.0/arm/arm-none-eabi/include/c++/10.3.1/bits/stl_algobase.h **** 				  _ForwardIterator2>)
 159:/Library/DaisyToolchain/0.2.0/arm/arm-none-eabi/include/c++/10.3.1/bits/stl_algobase.h **** 
 160:/Library/DaisyToolchain/0.2.0/arm/arm-none-eabi/include/c++/10.3.1/bits/stl_algobase.h **** #if __cplusplus < 201103L
 161:/Library/DaisyToolchain/0.2.0/arm/arm-none-eabi/include/c++/10.3.1/bits/stl_algobase.h ****       typedef typename iterator_traits<_ForwardIterator1>::value_type
 162:/Library/DaisyToolchain/0.2.0/arm/arm-none-eabi/include/c++/10.3.1/bits/stl_algobase.h **** 	_ValueType1;
 163:/Library/DaisyToolchain/0.2.0/arm/arm-none-eabi/include/c++/10.3.1/bits/stl_algobase.h ****       typedef typename iterator_traits<_ForwardIterator2>::value_type
 164:/Library/DaisyToolchain/0.2.0/arm/arm-none-eabi/include/c++/10.3.1/bits/stl_algobase.h **** 	_ValueType2;
 165:/Library/DaisyToolchain/0.2.0/arm/arm-none-eabi/include/c++/10.3.1/bits/stl_algobase.h **** 
 166:/Library/DaisyToolchain/0.2.0/arm/arm-none-eabi/include/c++/10.3.1/bits/stl_algobase.h ****       __glibcxx_function_requires(_ConvertibleConcept<_ValueType1,
 167:/Library/DaisyToolchain/0.2.0/arm/arm-none-eabi/include/c++/10.3.1/bits/stl_algobase.h **** 				  _ValueType2>)
 168:/Library/DaisyToolchain/0.2.0/arm/arm-none-eabi/include/c++/10.3.1/bits/stl_algobase.h ****       __glibcxx_function_requires(_ConvertibleConcept<_ValueType2,
 169:/Library/DaisyToolchain/0.2.0/arm/arm-none-eabi/include/c++/10.3.1/bits/stl_algobase.h **** 				  _ValueType1>)
 170:/Library/DaisyToolchain/0.2.0/arm/arm-none-eabi/include/c++/10.3.1/bits/stl_algobase.h **** 
 171:/Library/DaisyToolchain/0.2.0/arm/arm-none-eabi/include/c++/10.3.1/bits/stl_algobase.h ****       typedef typename iterator_traits<_ForwardIterator1>::reference
 172:/Library/DaisyToolchain/0.2.0/arm/arm-none-eabi/include/c++/10.3.1/bits/stl_algobase.h **** 	_ReferenceType1;
 173:/Library/DaisyToolchain/0.2.0/arm/arm-none-eabi/include/c++/10.3.1/bits/stl_algobase.h ****       typedef typename iterator_traits<_ForwardIterator2>::reference
 174:/Library/DaisyToolchain/0.2.0/arm/arm-none-eabi/include/c++/10.3.1/bits/stl_algobase.h **** 	_ReferenceType2;
 175:/Library/DaisyToolchain/0.2.0/arm/arm-none-eabi/include/c++/10.3.1/bits/stl_algobase.h ****       std::__iter_swap<__are_same<_ValueType1, _ValueType2>::__value
 176:/Library/DaisyToolchain/0.2.0/arm/arm-none-eabi/include/c++/10.3.1/bits/stl_algobase.h **** 	&& __are_same<_ValueType1&, _ReferenceType1>::__value
 177:/Library/DaisyToolchain/0.2.0/arm/arm-none-eabi/include/c++/10.3.1/bits/stl_algobase.h **** 	&& __are_same<_ValueType2&, _ReferenceType2>::__value>::
 178:/Library/DaisyToolchain/0.2.0/arm/arm-none-eabi/include/c++/10.3.1/bits/stl_algobase.h **** 	iter_swap(__a, __b);
 179:/Library/DaisyToolchain/0.2.0/arm/arm-none-eabi/include/c++/10.3.1/bits/stl_algobase.h **** #else
 180:/Library/DaisyToolchain/0.2.0/arm/arm-none-eabi/include/c++/10.3.1/bits/stl_algobase.h ****       // _GLIBCXX_RESOLVE_LIB_DEFECTS
 181:/Library/DaisyToolchain/0.2.0/arm/arm-none-eabi/include/c++/10.3.1/bits/stl_algobase.h ****       // 187. iter_swap underspecified
 182:/Library/DaisyToolchain/0.2.0/arm/arm-none-eabi/include/c++/10.3.1/bits/stl_algobase.h ****       swap(*__a, *__b);
 183:/Library/DaisyToolchain/0.2.0/arm/arm-none-eabi/include/c++/10.3.1/bits/stl_algobase.h **** #endif
 184:/Library/DaisyToolchain/0.2.0/arm/arm-none-eabi/include/c++/10.3.1/bits/stl_algobase.h ****     }
 185:/Library/DaisyToolchain/0.2.0/arm/arm-none-eabi/include/c++/10.3.1/bits/stl_algobase.h **** 
 186:/Library/DaisyToolchain/0.2.0/arm/arm-none-eabi/include/c++/10.3.1/bits/stl_algobase.h ****   /**
 187:/Library/DaisyToolchain/0.2.0/arm/arm-none-eabi/include/c++/10.3.1/bits/stl_algobase.h ****    *  @brief Swap the elements of two sequences.
 188:/Library/DaisyToolchain/0.2.0/arm/arm-none-eabi/include/c++/10.3.1/bits/stl_algobase.h ****    *  @ingroup mutating_algorithms
 189:/Library/DaisyToolchain/0.2.0/arm/arm-none-eabi/include/c++/10.3.1/bits/stl_algobase.h ****    *  @param  __first1  A forward iterator.
 190:/Library/DaisyToolchain/0.2.0/arm/arm-none-eabi/include/c++/10.3.1/bits/stl_algobase.h ****    *  @param  __last1   A forward iterator.
ARM GAS  /var/folders/9s/8rp0_f2s1n31qbztm3b5_fdh0000gn/T//ccF2jpeh.s 			page 35


 191:/Library/DaisyToolchain/0.2.0/arm/arm-none-eabi/include/c++/10.3.1/bits/stl_algobase.h ****    *  @param  __first2  A forward iterator.
 192:/Library/DaisyToolchain/0.2.0/arm/arm-none-eabi/include/c++/10.3.1/bits/stl_algobase.h ****    *  @return   An iterator equal to @p first2+(last1-first1).
 193:/Library/DaisyToolchain/0.2.0/arm/arm-none-eabi/include/c++/10.3.1/bits/stl_algobase.h ****    *
 194:/Library/DaisyToolchain/0.2.0/arm/arm-none-eabi/include/c++/10.3.1/bits/stl_algobase.h ****    *  Swaps each element in the range @p [first1,last1) with the
 195:/Library/DaisyToolchain/0.2.0/arm/arm-none-eabi/include/c++/10.3.1/bits/stl_algobase.h ****    *  corresponding element in the range @p [first2,(last1-first1)).
 196:/Library/DaisyToolchain/0.2.0/arm/arm-none-eabi/include/c++/10.3.1/bits/stl_algobase.h ****    *  The ranges must not overlap.
 197:/Library/DaisyToolchain/0.2.0/arm/arm-none-eabi/include/c++/10.3.1/bits/stl_algobase.h ****   */
 198:/Library/DaisyToolchain/0.2.0/arm/arm-none-eabi/include/c++/10.3.1/bits/stl_algobase.h ****   template<typename _ForwardIterator1, typename _ForwardIterator2>
 199:/Library/DaisyToolchain/0.2.0/arm/arm-none-eabi/include/c++/10.3.1/bits/stl_algobase.h ****     _GLIBCXX20_CONSTEXPR
 200:/Library/DaisyToolchain/0.2.0/arm/arm-none-eabi/include/c++/10.3.1/bits/stl_algobase.h ****     _ForwardIterator2
 201:/Library/DaisyToolchain/0.2.0/arm/arm-none-eabi/include/c++/10.3.1/bits/stl_algobase.h ****     swap_ranges(_ForwardIterator1 __first1, _ForwardIterator1 __last1,
 202:/Library/DaisyToolchain/0.2.0/arm/arm-none-eabi/include/c++/10.3.1/bits/stl_algobase.h **** 		_ForwardIterator2 __first2)
 203:/Library/DaisyToolchain/0.2.0/arm/arm-none-eabi/include/c++/10.3.1/bits/stl_algobase.h ****     {
 204:/Library/DaisyToolchain/0.2.0/arm/arm-none-eabi/include/c++/10.3.1/bits/stl_algobase.h ****       // concept requirements
 205:/Library/DaisyToolchain/0.2.0/arm/arm-none-eabi/include/c++/10.3.1/bits/stl_algobase.h ****       __glibcxx_function_requires(_Mutable_ForwardIteratorConcept<
 206:/Library/DaisyToolchain/0.2.0/arm/arm-none-eabi/include/c++/10.3.1/bits/stl_algobase.h **** 				  _ForwardIterator1>)
 207:/Library/DaisyToolchain/0.2.0/arm/arm-none-eabi/include/c++/10.3.1/bits/stl_algobase.h ****       __glibcxx_function_requires(_Mutable_ForwardIteratorConcept<
 208:/Library/DaisyToolchain/0.2.0/arm/arm-none-eabi/include/c++/10.3.1/bits/stl_algobase.h **** 				  _ForwardIterator2>)
 209:/Library/DaisyToolchain/0.2.0/arm/arm-none-eabi/include/c++/10.3.1/bits/stl_algobase.h ****       __glibcxx_requires_valid_range(__first1, __last1);
 210:/Library/DaisyToolchain/0.2.0/arm/arm-none-eabi/include/c++/10.3.1/bits/stl_algobase.h **** 
 211:/Library/DaisyToolchain/0.2.0/arm/arm-none-eabi/include/c++/10.3.1/bits/stl_algobase.h ****       for (; __first1 != __last1; ++__first1, (void)++__first2)
 212:/Library/DaisyToolchain/0.2.0/arm/arm-none-eabi/include/c++/10.3.1/bits/stl_algobase.h **** 	std::iter_swap(__first1, __first2);
 213:/Library/DaisyToolchain/0.2.0/arm/arm-none-eabi/include/c++/10.3.1/bits/stl_algobase.h ****       return __first2;
 214:/Library/DaisyToolchain/0.2.0/arm/arm-none-eabi/include/c++/10.3.1/bits/stl_algobase.h ****     }
 215:/Library/DaisyToolchain/0.2.0/arm/arm-none-eabi/include/c++/10.3.1/bits/stl_algobase.h **** 
 216:/Library/DaisyToolchain/0.2.0/arm/arm-none-eabi/include/c++/10.3.1/bits/stl_algobase.h ****   /**
 217:/Library/DaisyToolchain/0.2.0/arm/arm-none-eabi/include/c++/10.3.1/bits/stl_algobase.h ****    *  @brief This does what you think it does.
 218:/Library/DaisyToolchain/0.2.0/arm/arm-none-eabi/include/c++/10.3.1/bits/stl_algobase.h ****    *  @ingroup sorting_algorithms
 219:/Library/DaisyToolchain/0.2.0/arm/arm-none-eabi/include/c++/10.3.1/bits/stl_algobase.h ****    *  @param  __a  A thing of arbitrary type.
 220:/Library/DaisyToolchain/0.2.0/arm/arm-none-eabi/include/c++/10.3.1/bits/stl_algobase.h ****    *  @param  __b  Another thing of arbitrary type.
 221:/Library/DaisyToolchain/0.2.0/arm/arm-none-eabi/include/c++/10.3.1/bits/stl_algobase.h ****    *  @return   The lesser of the parameters.
 222:/Library/DaisyToolchain/0.2.0/arm/arm-none-eabi/include/c++/10.3.1/bits/stl_algobase.h ****    *
 223:/Library/DaisyToolchain/0.2.0/arm/arm-none-eabi/include/c++/10.3.1/bits/stl_algobase.h ****    *  This is the simple classic generic implementation.  It will work on
 224:/Library/DaisyToolchain/0.2.0/arm/arm-none-eabi/include/c++/10.3.1/bits/stl_algobase.h ****    *  temporary expressions, since they are only evaluated once, unlike a
 225:/Library/DaisyToolchain/0.2.0/arm/arm-none-eabi/include/c++/10.3.1/bits/stl_algobase.h ****    *  preprocessor macro.
 226:/Library/DaisyToolchain/0.2.0/arm/arm-none-eabi/include/c++/10.3.1/bits/stl_algobase.h ****   */
 227:/Library/DaisyToolchain/0.2.0/arm/arm-none-eabi/include/c++/10.3.1/bits/stl_algobase.h ****   template<typename _Tp>
 228:/Library/DaisyToolchain/0.2.0/arm/arm-none-eabi/include/c++/10.3.1/bits/stl_algobase.h ****     _GLIBCXX14_CONSTEXPR
 229:/Library/DaisyToolchain/0.2.0/arm/arm-none-eabi/include/c++/10.3.1/bits/stl_algobase.h ****     inline const _Tp&
 230:/Library/DaisyToolchain/0.2.0/arm/arm-none-eabi/include/c++/10.3.1/bits/stl_algobase.h ****     min(const _Tp& __a, const _Tp& __b)
 231:/Library/DaisyToolchain/0.2.0/arm/arm-none-eabi/include/c++/10.3.1/bits/stl_algobase.h ****     {
 232:/Library/DaisyToolchain/0.2.0/arm/arm-none-eabi/include/c++/10.3.1/bits/stl_algobase.h ****       // concept requirements
 233:/Library/DaisyToolchain/0.2.0/arm/arm-none-eabi/include/c++/10.3.1/bits/stl_algobase.h ****       __glibcxx_function_requires(_LessThanComparableConcept<_Tp>)
 234:/Library/DaisyToolchain/0.2.0/arm/arm-none-eabi/include/c++/10.3.1/bits/stl_algobase.h ****       //return __b < __a ? __b : __a;
 235:/Library/DaisyToolchain/0.2.0/arm/arm-none-eabi/include/c++/10.3.1/bits/stl_algobase.h ****       if (__b < __a)
 236:/Library/DaisyToolchain/0.2.0/arm/arm-none-eabi/include/c++/10.3.1/bits/stl_algobase.h **** 	return __b;
 237:/Library/DaisyToolchain/0.2.0/arm/arm-none-eabi/include/c++/10.3.1/bits/stl_algobase.h ****       return __a;
 238:/Library/DaisyToolchain/0.2.0/arm/arm-none-eabi/include/c++/10.3.1/bits/stl_algobase.h ****     }
 239:/Library/DaisyToolchain/0.2.0/arm/arm-none-eabi/include/c++/10.3.1/bits/stl_algobase.h **** 
 240:/Library/DaisyToolchain/0.2.0/arm/arm-none-eabi/include/c++/10.3.1/bits/stl_algobase.h ****   /**
 241:/Library/DaisyToolchain/0.2.0/arm/arm-none-eabi/include/c++/10.3.1/bits/stl_algobase.h ****    *  @brief This does what you think it does.
 242:/Library/DaisyToolchain/0.2.0/arm/arm-none-eabi/include/c++/10.3.1/bits/stl_algobase.h ****    *  @ingroup sorting_algorithms
 243:/Library/DaisyToolchain/0.2.0/arm/arm-none-eabi/include/c++/10.3.1/bits/stl_algobase.h ****    *  @param  __a  A thing of arbitrary type.
 244:/Library/DaisyToolchain/0.2.0/arm/arm-none-eabi/include/c++/10.3.1/bits/stl_algobase.h ****    *  @param  __b  Another thing of arbitrary type.
 245:/Library/DaisyToolchain/0.2.0/arm/arm-none-eabi/include/c++/10.3.1/bits/stl_algobase.h ****    *  @return   The greater of the parameters.
 246:/Library/DaisyToolchain/0.2.0/arm/arm-none-eabi/include/c++/10.3.1/bits/stl_algobase.h ****    *
 247:/Library/DaisyToolchain/0.2.0/arm/arm-none-eabi/include/c++/10.3.1/bits/stl_algobase.h ****    *  This is the simple classic generic implementation.  It will work on
ARM GAS  /var/folders/9s/8rp0_f2s1n31qbztm3b5_fdh0000gn/T//ccF2jpeh.s 			page 36


 248:/Library/DaisyToolchain/0.2.0/arm/arm-none-eabi/include/c++/10.3.1/bits/stl_algobase.h ****    *  temporary expressions, since they are only evaluated once, unlike a
 249:/Library/DaisyToolchain/0.2.0/arm/arm-none-eabi/include/c++/10.3.1/bits/stl_algobase.h ****    *  preprocessor macro.
 250:/Library/DaisyToolchain/0.2.0/arm/arm-none-eabi/include/c++/10.3.1/bits/stl_algobase.h ****   */
 251:/Library/DaisyToolchain/0.2.0/arm/arm-none-eabi/include/c++/10.3.1/bits/stl_algobase.h ****   template<typename _Tp>
 252:/Library/DaisyToolchain/0.2.0/arm/arm-none-eabi/include/c++/10.3.1/bits/stl_algobase.h ****     _GLIBCXX14_CONSTEXPR
 253:/Library/DaisyToolchain/0.2.0/arm/arm-none-eabi/include/c++/10.3.1/bits/stl_algobase.h ****     inline const _Tp&
 254:/Library/DaisyToolchain/0.2.0/arm/arm-none-eabi/include/c++/10.3.1/bits/stl_algobase.h ****     max(const _Tp& __a, const _Tp& __b)
 255:/Library/DaisyToolchain/0.2.0/arm/arm-none-eabi/include/c++/10.3.1/bits/stl_algobase.h ****     {
 256:/Library/DaisyToolchain/0.2.0/arm/arm-none-eabi/include/c++/10.3.1/bits/stl_algobase.h ****       // concept requirements
 257:/Library/DaisyToolchain/0.2.0/arm/arm-none-eabi/include/c++/10.3.1/bits/stl_algobase.h ****       __glibcxx_function_requires(_LessThanComparableConcept<_Tp>)
 258:/Library/DaisyToolchain/0.2.0/arm/arm-none-eabi/include/c++/10.3.1/bits/stl_algobase.h ****       //return  __a < __b ? __b : __a;
 259:/Library/DaisyToolchain/0.2.0/arm/arm-none-eabi/include/c++/10.3.1/bits/stl_algobase.h ****       if (__a < __b)
 260:/Library/DaisyToolchain/0.2.0/arm/arm-none-eabi/include/c++/10.3.1/bits/stl_algobase.h **** 	return __b;
 261:/Library/DaisyToolchain/0.2.0/arm/arm-none-eabi/include/c++/10.3.1/bits/stl_algobase.h ****       return __a;
 262:/Library/DaisyToolchain/0.2.0/arm/arm-none-eabi/include/c++/10.3.1/bits/stl_algobase.h ****     }
 263:/Library/DaisyToolchain/0.2.0/arm/arm-none-eabi/include/c++/10.3.1/bits/stl_algobase.h **** 
 264:/Library/DaisyToolchain/0.2.0/arm/arm-none-eabi/include/c++/10.3.1/bits/stl_algobase.h ****   /**
 265:/Library/DaisyToolchain/0.2.0/arm/arm-none-eabi/include/c++/10.3.1/bits/stl_algobase.h ****    *  @brief This does what you think it does.
 266:/Library/DaisyToolchain/0.2.0/arm/arm-none-eabi/include/c++/10.3.1/bits/stl_algobase.h ****    *  @ingroup sorting_algorithms
 267:/Library/DaisyToolchain/0.2.0/arm/arm-none-eabi/include/c++/10.3.1/bits/stl_algobase.h ****    *  @param  __a  A thing of arbitrary type.
 268:/Library/DaisyToolchain/0.2.0/arm/arm-none-eabi/include/c++/10.3.1/bits/stl_algobase.h ****    *  @param  __b  Another thing of arbitrary type.
 269:/Library/DaisyToolchain/0.2.0/arm/arm-none-eabi/include/c++/10.3.1/bits/stl_algobase.h ****    *  @param  __comp  A @link comparison_functors comparison functor@endlink.
 270:/Library/DaisyToolchain/0.2.0/arm/arm-none-eabi/include/c++/10.3.1/bits/stl_algobase.h ****    *  @return   The lesser of the parameters.
 271:/Library/DaisyToolchain/0.2.0/arm/arm-none-eabi/include/c++/10.3.1/bits/stl_algobase.h ****    *
 272:/Library/DaisyToolchain/0.2.0/arm/arm-none-eabi/include/c++/10.3.1/bits/stl_algobase.h ****    *  This will work on temporary expressions, since they are only evaluated
 273:/Library/DaisyToolchain/0.2.0/arm/arm-none-eabi/include/c++/10.3.1/bits/stl_algobase.h ****    *  once, unlike a preprocessor macro.
 274:/Library/DaisyToolchain/0.2.0/arm/arm-none-eabi/include/c++/10.3.1/bits/stl_algobase.h ****   */
 275:/Library/DaisyToolchain/0.2.0/arm/arm-none-eabi/include/c++/10.3.1/bits/stl_algobase.h ****   template<typename _Tp, typename _Compare>
 276:/Library/DaisyToolchain/0.2.0/arm/arm-none-eabi/include/c++/10.3.1/bits/stl_algobase.h ****     _GLIBCXX14_CONSTEXPR
 277:/Library/DaisyToolchain/0.2.0/arm/arm-none-eabi/include/c++/10.3.1/bits/stl_algobase.h ****     inline const _Tp&
 278:/Library/DaisyToolchain/0.2.0/arm/arm-none-eabi/include/c++/10.3.1/bits/stl_algobase.h ****     min(const _Tp& __a, const _Tp& __b, _Compare __comp)
 279:/Library/DaisyToolchain/0.2.0/arm/arm-none-eabi/include/c++/10.3.1/bits/stl_algobase.h ****     {
 280:/Library/DaisyToolchain/0.2.0/arm/arm-none-eabi/include/c++/10.3.1/bits/stl_algobase.h ****       //return __comp(__b, __a) ? __b : __a;
 281:/Library/DaisyToolchain/0.2.0/arm/arm-none-eabi/include/c++/10.3.1/bits/stl_algobase.h ****       if (__comp(__b, __a))
 282:/Library/DaisyToolchain/0.2.0/arm/arm-none-eabi/include/c++/10.3.1/bits/stl_algobase.h **** 	return __b;
 283:/Library/DaisyToolchain/0.2.0/arm/arm-none-eabi/include/c++/10.3.1/bits/stl_algobase.h ****       return __a;
 284:/Library/DaisyToolchain/0.2.0/arm/arm-none-eabi/include/c++/10.3.1/bits/stl_algobase.h ****     }
 285:/Library/DaisyToolchain/0.2.0/arm/arm-none-eabi/include/c++/10.3.1/bits/stl_algobase.h **** 
 286:/Library/DaisyToolchain/0.2.0/arm/arm-none-eabi/include/c++/10.3.1/bits/stl_algobase.h ****   /**
 287:/Library/DaisyToolchain/0.2.0/arm/arm-none-eabi/include/c++/10.3.1/bits/stl_algobase.h ****    *  @brief This does what you think it does.
 288:/Library/DaisyToolchain/0.2.0/arm/arm-none-eabi/include/c++/10.3.1/bits/stl_algobase.h ****    *  @ingroup sorting_algorithms
 289:/Library/DaisyToolchain/0.2.0/arm/arm-none-eabi/include/c++/10.3.1/bits/stl_algobase.h ****    *  @param  __a  A thing of arbitrary type.
 290:/Library/DaisyToolchain/0.2.0/arm/arm-none-eabi/include/c++/10.3.1/bits/stl_algobase.h ****    *  @param  __b  Another thing of arbitrary type.
 291:/Library/DaisyToolchain/0.2.0/arm/arm-none-eabi/include/c++/10.3.1/bits/stl_algobase.h ****    *  @param  __comp  A @link comparison_functors comparison functor@endlink.
 292:/Library/DaisyToolchain/0.2.0/arm/arm-none-eabi/include/c++/10.3.1/bits/stl_algobase.h ****    *  @return   The greater of the parameters.
 293:/Library/DaisyToolchain/0.2.0/arm/arm-none-eabi/include/c++/10.3.1/bits/stl_algobase.h ****    *
 294:/Library/DaisyToolchain/0.2.0/arm/arm-none-eabi/include/c++/10.3.1/bits/stl_algobase.h ****    *  This will work on temporary expressions, since they are only evaluated
 295:/Library/DaisyToolchain/0.2.0/arm/arm-none-eabi/include/c++/10.3.1/bits/stl_algobase.h ****    *  once, unlike a preprocessor macro.
 296:/Library/DaisyToolchain/0.2.0/arm/arm-none-eabi/include/c++/10.3.1/bits/stl_algobase.h ****   */
 297:/Library/DaisyToolchain/0.2.0/arm/arm-none-eabi/include/c++/10.3.1/bits/stl_algobase.h ****   template<typename _Tp, typename _Compare>
 298:/Library/DaisyToolchain/0.2.0/arm/arm-none-eabi/include/c++/10.3.1/bits/stl_algobase.h ****     _GLIBCXX14_CONSTEXPR
 299:/Library/DaisyToolchain/0.2.0/arm/arm-none-eabi/include/c++/10.3.1/bits/stl_algobase.h ****     inline const _Tp&
 300:/Library/DaisyToolchain/0.2.0/arm/arm-none-eabi/include/c++/10.3.1/bits/stl_algobase.h ****     max(const _Tp& __a, const _Tp& __b, _Compare __comp)
 301:/Library/DaisyToolchain/0.2.0/arm/arm-none-eabi/include/c++/10.3.1/bits/stl_algobase.h ****     {
 302:/Library/DaisyToolchain/0.2.0/arm/arm-none-eabi/include/c++/10.3.1/bits/stl_algobase.h ****       //return __comp(__a, __b) ? __b : __a;
 303:/Library/DaisyToolchain/0.2.0/arm/arm-none-eabi/include/c++/10.3.1/bits/stl_algobase.h ****       if (__comp(__a, __b))
 304:/Library/DaisyToolchain/0.2.0/arm/arm-none-eabi/include/c++/10.3.1/bits/stl_algobase.h **** 	return __b;
ARM GAS  /var/folders/9s/8rp0_f2s1n31qbztm3b5_fdh0000gn/T//ccF2jpeh.s 			page 37


 305:/Library/DaisyToolchain/0.2.0/arm/arm-none-eabi/include/c++/10.3.1/bits/stl_algobase.h ****       return __a;
 306:/Library/DaisyToolchain/0.2.0/arm/arm-none-eabi/include/c++/10.3.1/bits/stl_algobase.h ****     }
 307:/Library/DaisyToolchain/0.2.0/arm/arm-none-eabi/include/c++/10.3.1/bits/stl_algobase.h **** 
 308:/Library/DaisyToolchain/0.2.0/arm/arm-none-eabi/include/c++/10.3.1/bits/stl_algobase.h ****   // Fallback implementation of the function in bits/stl_iterator.h used to
 309:/Library/DaisyToolchain/0.2.0/arm/arm-none-eabi/include/c++/10.3.1/bits/stl_algobase.h ****   // remove the __normal_iterator wrapper. See copy, fill, ...
 310:/Library/DaisyToolchain/0.2.0/arm/arm-none-eabi/include/c++/10.3.1/bits/stl_algobase.h ****   template<typename _Iterator>
 311:/Library/DaisyToolchain/0.2.0/arm/arm-none-eabi/include/c++/10.3.1/bits/stl_algobase.h ****     _GLIBCXX20_CONSTEXPR
 312:/Library/DaisyToolchain/0.2.0/arm/arm-none-eabi/include/c++/10.3.1/bits/stl_algobase.h ****     inline _Iterator
 313:/Library/DaisyToolchain/0.2.0/arm/arm-none-eabi/include/c++/10.3.1/bits/stl_algobase.h ****     __niter_base(_Iterator __it)
 314:/Library/DaisyToolchain/0.2.0/arm/arm-none-eabi/include/c++/10.3.1/bits/stl_algobase.h ****     _GLIBCXX_NOEXCEPT_IF(std::is_nothrow_copy_constructible<_Iterator>::value)
 315:/Library/DaisyToolchain/0.2.0/arm/arm-none-eabi/include/c++/10.3.1/bits/stl_algobase.h ****     { return __it; }
 316:/Library/DaisyToolchain/0.2.0/arm/arm-none-eabi/include/c++/10.3.1/bits/stl_algobase.h **** 
 317:/Library/DaisyToolchain/0.2.0/arm/arm-none-eabi/include/c++/10.3.1/bits/stl_algobase.h ****   // Reverse the __niter_base transformation to get a
 318:/Library/DaisyToolchain/0.2.0/arm/arm-none-eabi/include/c++/10.3.1/bits/stl_algobase.h ****   // __normal_iterator back again (this assumes that __normal_iterator
 319:/Library/DaisyToolchain/0.2.0/arm/arm-none-eabi/include/c++/10.3.1/bits/stl_algobase.h ****   // is only used to wrap random access iterators, like pointers).
 320:/Library/DaisyToolchain/0.2.0/arm/arm-none-eabi/include/c++/10.3.1/bits/stl_algobase.h ****   template<typename _From, typename _To>
 321:/Library/DaisyToolchain/0.2.0/arm/arm-none-eabi/include/c++/10.3.1/bits/stl_algobase.h ****     _GLIBCXX20_CONSTEXPR
 322:/Library/DaisyToolchain/0.2.0/arm/arm-none-eabi/include/c++/10.3.1/bits/stl_algobase.h ****     inline _From
 323:/Library/DaisyToolchain/0.2.0/arm/arm-none-eabi/include/c++/10.3.1/bits/stl_algobase.h ****     __niter_wrap(_From __from, _To __res)
 324:/Library/DaisyToolchain/0.2.0/arm/arm-none-eabi/include/c++/10.3.1/bits/stl_algobase.h ****     { return __from + (__res - std::__niter_base(__from)); }
 325:/Library/DaisyToolchain/0.2.0/arm/arm-none-eabi/include/c++/10.3.1/bits/stl_algobase.h **** 
 326:/Library/DaisyToolchain/0.2.0/arm/arm-none-eabi/include/c++/10.3.1/bits/stl_algobase.h ****   // No need to wrap, iterator already has the right type.
 327:/Library/DaisyToolchain/0.2.0/arm/arm-none-eabi/include/c++/10.3.1/bits/stl_algobase.h ****   template<typename _Iterator>
 328:/Library/DaisyToolchain/0.2.0/arm/arm-none-eabi/include/c++/10.3.1/bits/stl_algobase.h ****     _GLIBCXX20_CONSTEXPR
 329:/Library/DaisyToolchain/0.2.0/arm/arm-none-eabi/include/c++/10.3.1/bits/stl_algobase.h ****     inline _Iterator
 330:/Library/DaisyToolchain/0.2.0/arm/arm-none-eabi/include/c++/10.3.1/bits/stl_algobase.h ****     __niter_wrap(const _Iterator&, _Iterator __res)
 331:/Library/DaisyToolchain/0.2.0/arm/arm-none-eabi/include/c++/10.3.1/bits/stl_algobase.h ****     { return __res; }
 332:/Library/DaisyToolchain/0.2.0/arm/arm-none-eabi/include/c++/10.3.1/bits/stl_algobase.h **** 
 333:/Library/DaisyToolchain/0.2.0/arm/arm-none-eabi/include/c++/10.3.1/bits/stl_algobase.h ****   // All of these auxiliary structs serve two purposes.  (1) Replace
 334:/Library/DaisyToolchain/0.2.0/arm/arm-none-eabi/include/c++/10.3.1/bits/stl_algobase.h ****   // calls to copy with memmove whenever possible.  (Memmove, not memcpy,
 335:/Library/DaisyToolchain/0.2.0/arm/arm-none-eabi/include/c++/10.3.1/bits/stl_algobase.h ****   // because the input and output ranges are permitted to overlap.)
 336:/Library/DaisyToolchain/0.2.0/arm/arm-none-eabi/include/c++/10.3.1/bits/stl_algobase.h ****   // (2) If we're using random access iterators, then write the loop as
 337:/Library/DaisyToolchain/0.2.0/arm/arm-none-eabi/include/c++/10.3.1/bits/stl_algobase.h ****   // a for loop with an explicit count.
 338:/Library/DaisyToolchain/0.2.0/arm/arm-none-eabi/include/c++/10.3.1/bits/stl_algobase.h **** 
 339:/Library/DaisyToolchain/0.2.0/arm/arm-none-eabi/include/c++/10.3.1/bits/stl_algobase.h ****   template<bool _IsMove, bool _IsSimple, typename _Category>
 340:/Library/DaisyToolchain/0.2.0/arm/arm-none-eabi/include/c++/10.3.1/bits/stl_algobase.h ****     struct __copy_move
 341:/Library/DaisyToolchain/0.2.0/arm/arm-none-eabi/include/c++/10.3.1/bits/stl_algobase.h ****     {
 342:/Library/DaisyToolchain/0.2.0/arm/arm-none-eabi/include/c++/10.3.1/bits/stl_algobase.h ****       template<typename _II, typename _OI>
 343:/Library/DaisyToolchain/0.2.0/arm/arm-none-eabi/include/c++/10.3.1/bits/stl_algobase.h **** 	_GLIBCXX20_CONSTEXPR
 344:/Library/DaisyToolchain/0.2.0/arm/arm-none-eabi/include/c++/10.3.1/bits/stl_algobase.h **** 	static _OI
 345:/Library/DaisyToolchain/0.2.0/arm/arm-none-eabi/include/c++/10.3.1/bits/stl_algobase.h **** 	__copy_m(_II __first, _II __last, _OI __result)
 346:/Library/DaisyToolchain/0.2.0/arm/arm-none-eabi/include/c++/10.3.1/bits/stl_algobase.h **** 	{
 347:/Library/DaisyToolchain/0.2.0/arm/arm-none-eabi/include/c++/10.3.1/bits/stl_algobase.h **** 	  for (; __first != __last; ++__result, (void)++__first)
 348:/Library/DaisyToolchain/0.2.0/arm/arm-none-eabi/include/c++/10.3.1/bits/stl_algobase.h **** 	    *__result = *__first;
 349:/Library/DaisyToolchain/0.2.0/arm/arm-none-eabi/include/c++/10.3.1/bits/stl_algobase.h **** 	  return __result;
 350:/Library/DaisyToolchain/0.2.0/arm/arm-none-eabi/include/c++/10.3.1/bits/stl_algobase.h **** 	}
 351:/Library/DaisyToolchain/0.2.0/arm/arm-none-eabi/include/c++/10.3.1/bits/stl_algobase.h ****     };
 352:/Library/DaisyToolchain/0.2.0/arm/arm-none-eabi/include/c++/10.3.1/bits/stl_algobase.h **** 
 353:/Library/DaisyToolchain/0.2.0/arm/arm-none-eabi/include/c++/10.3.1/bits/stl_algobase.h **** #if __cplusplus >= 201103L
 354:/Library/DaisyToolchain/0.2.0/arm/arm-none-eabi/include/c++/10.3.1/bits/stl_algobase.h ****   template<typename _Category>
 355:/Library/DaisyToolchain/0.2.0/arm/arm-none-eabi/include/c++/10.3.1/bits/stl_algobase.h ****     struct __copy_move<true, false, _Category>
 356:/Library/DaisyToolchain/0.2.0/arm/arm-none-eabi/include/c++/10.3.1/bits/stl_algobase.h ****     {
 357:/Library/DaisyToolchain/0.2.0/arm/arm-none-eabi/include/c++/10.3.1/bits/stl_algobase.h ****       template<typename _II, typename _OI>
 358:/Library/DaisyToolchain/0.2.0/arm/arm-none-eabi/include/c++/10.3.1/bits/stl_algobase.h **** 	_GLIBCXX20_CONSTEXPR
 359:/Library/DaisyToolchain/0.2.0/arm/arm-none-eabi/include/c++/10.3.1/bits/stl_algobase.h **** 	static _OI
 360:/Library/DaisyToolchain/0.2.0/arm/arm-none-eabi/include/c++/10.3.1/bits/stl_algobase.h **** 	__copy_m(_II __first, _II __last, _OI __result)
 361:/Library/DaisyToolchain/0.2.0/arm/arm-none-eabi/include/c++/10.3.1/bits/stl_algobase.h **** 	{
ARM GAS  /var/folders/9s/8rp0_f2s1n31qbztm3b5_fdh0000gn/T//ccF2jpeh.s 			page 38


 362:/Library/DaisyToolchain/0.2.0/arm/arm-none-eabi/include/c++/10.3.1/bits/stl_algobase.h **** 	  for (; __first != __last; ++__result, (void)++__first)
 363:/Library/DaisyToolchain/0.2.0/arm/arm-none-eabi/include/c++/10.3.1/bits/stl_algobase.h **** 	    *__result = std::move(*__first);
 364:/Library/DaisyToolchain/0.2.0/arm/arm-none-eabi/include/c++/10.3.1/bits/stl_algobase.h **** 	  return __result;
 365:/Library/DaisyToolchain/0.2.0/arm/arm-none-eabi/include/c++/10.3.1/bits/stl_algobase.h **** 	}
 366:/Library/DaisyToolchain/0.2.0/arm/arm-none-eabi/include/c++/10.3.1/bits/stl_algobase.h ****     };
 367:/Library/DaisyToolchain/0.2.0/arm/arm-none-eabi/include/c++/10.3.1/bits/stl_algobase.h **** #endif
 368:/Library/DaisyToolchain/0.2.0/arm/arm-none-eabi/include/c++/10.3.1/bits/stl_algobase.h **** 
 369:/Library/DaisyToolchain/0.2.0/arm/arm-none-eabi/include/c++/10.3.1/bits/stl_algobase.h ****   template<>
 370:/Library/DaisyToolchain/0.2.0/arm/arm-none-eabi/include/c++/10.3.1/bits/stl_algobase.h ****     struct __copy_move<false, false, random_access_iterator_tag>
 371:/Library/DaisyToolchain/0.2.0/arm/arm-none-eabi/include/c++/10.3.1/bits/stl_algobase.h ****     {
 372:/Library/DaisyToolchain/0.2.0/arm/arm-none-eabi/include/c++/10.3.1/bits/stl_algobase.h ****       template<typename _II, typename _OI>
 373:/Library/DaisyToolchain/0.2.0/arm/arm-none-eabi/include/c++/10.3.1/bits/stl_algobase.h **** 	_GLIBCXX20_CONSTEXPR
 374:/Library/DaisyToolchain/0.2.0/arm/arm-none-eabi/include/c++/10.3.1/bits/stl_algobase.h **** 	static _OI
 375:/Library/DaisyToolchain/0.2.0/arm/arm-none-eabi/include/c++/10.3.1/bits/stl_algobase.h **** 	__copy_m(_II __first, _II __last, _OI __result)
 376:/Library/DaisyToolchain/0.2.0/arm/arm-none-eabi/include/c++/10.3.1/bits/stl_algobase.h **** 	{
 377:/Library/DaisyToolchain/0.2.0/arm/arm-none-eabi/include/c++/10.3.1/bits/stl_algobase.h **** 	  typedef typename iterator_traits<_II>::difference_type _Distance;
 378:/Library/DaisyToolchain/0.2.0/arm/arm-none-eabi/include/c++/10.3.1/bits/stl_algobase.h **** 	  for(_Distance __n = __last - __first; __n > 0; --__n)
 379:/Library/DaisyToolchain/0.2.0/arm/arm-none-eabi/include/c++/10.3.1/bits/stl_algobase.h **** 	    {
 380:/Library/DaisyToolchain/0.2.0/arm/arm-none-eabi/include/c++/10.3.1/bits/stl_algobase.h **** 	      *__result = *__first;
 381:/Library/DaisyToolchain/0.2.0/arm/arm-none-eabi/include/c++/10.3.1/bits/stl_algobase.h **** 	      ++__first;
 382:/Library/DaisyToolchain/0.2.0/arm/arm-none-eabi/include/c++/10.3.1/bits/stl_algobase.h **** 	      ++__result;
 383:/Library/DaisyToolchain/0.2.0/arm/arm-none-eabi/include/c++/10.3.1/bits/stl_algobase.h **** 	    }
 384:/Library/DaisyToolchain/0.2.0/arm/arm-none-eabi/include/c++/10.3.1/bits/stl_algobase.h **** 	  return __result;
 385:/Library/DaisyToolchain/0.2.0/arm/arm-none-eabi/include/c++/10.3.1/bits/stl_algobase.h **** 	}
 386:/Library/DaisyToolchain/0.2.0/arm/arm-none-eabi/include/c++/10.3.1/bits/stl_algobase.h ****     };
 387:/Library/DaisyToolchain/0.2.0/arm/arm-none-eabi/include/c++/10.3.1/bits/stl_algobase.h **** 
 388:/Library/DaisyToolchain/0.2.0/arm/arm-none-eabi/include/c++/10.3.1/bits/stl_algobase.h **** #if __cplusplus >= 201103L
 389:/Library/DaisyToolchain/0.2.0/arm/arm-none-eabi/include/c++/10.3.1/bits/stl_algobase.h ****   template<>
 390:/Library/DaisyToolchain/0.2.0/arm/arm-none-eabi/include/c++/10.3.1/bits/stl_algobase.h ****     struct __copy_move<true, false, random_access_iterator_tag>
 391:/Library/DaisyToolchain/0.2.0/arm/arm-none-eabi/include/c++/10.3.1/bits/stl_algobase.h ****     {
 392:/Library/DaisyToolchain/0.2.0/arm/arm-none-eabi/include/c++/10.3.1/bits/stl_algobase.h ****       template<typename _II, typename _OI>
 393:/Library/DaisyToolchain/0.2.0/arm/arm-none-eabi/include/c++/10.3.1/bits/stl_algobase.h **** 	_GLIBCXX20_CONSTEXPR
 394:/Library/DaisyToolchain/0.2.0/arm/arm-none-eabi/include/c++/10.3.1/bits/stl_algobase.h **** 	static _OI
 395:/Library/DaisyToolchain/0.2.0/arm/arm-none-eabi/include/c++/10.3.1/bits/stl_algobase.h **** 	__copy_m(_II __first, _II __last, _OI __result)
 396:/Library/DaisyToolchain/0.2.0/arm/arm-none-eabi/include/c++/10.3.1/bits/stl_algobase.h **** 	{
 397:/Library/DaisyToolchain/0.2.0/arm/arm-none-eabi/include/c++/10.3.1/bits/stl_algobase.h **** 	  typedef typename iterator_traits<_II>::difference_type _Distance;
 398:/Library/DaisyToolchain/0.2.0/arm/arm-none-eabi/include/c++/10.3.1/bits/stl_algobase.h **** 	  for(_Distance __n = __last - __first; __n > 0; --__n)
 399:/Library/DaisyToolchain/0.2.0/arm/arm-none-eabi/include/c++/10.3.1/bits/stl_algobase.h **** 	    {
 400:/Library/DaisyToolchain/0.2.0/arm/arm-none-eabi/include/c++/10.3.1/bits/stl_algobase.h **** 	      *__result = std::move(*__first);
 401:/Library/DaisyToolchain/0.2.0/arm/arm-none-eabi/include/c++/10.3.1/bits/stl_algobase.h **** 	      ++__first;
 402:/Library/DaisyToolchain/0.2.0/arm/arm-none-eabi/include/c++/10.3.1/bits/stl_algobase.h **** 	      ++__result;
 403:/Library/DaisyToolchain/0.2.0/arm/arm-none-eabi/include/c++/10.3.1/bits/stl_algobase.h **** 	    }
 404:/Library/DaisyToolchain/0.2.0/arm/arm-none-eabi/include/c++/10.3.1/bits/stl_algobase.h **** 	  return __result;
 405:/Library/DaisyToolchain/0.2.0/arm/arm-none-eabi/include/c++/10.3.1/bits/stl_algobase.h **** 	}
 406:/Library/DaisyToolchain/0.2.0/arm/arm-none-eabi/include/c++/10.3.1/bits/stl_algobase.h ****     };
 407:/Library/DaisyToolchain/0.2.0/arm/arm-none-eabi/include/c++/10.3.1/bits/stl_algobase.h **** #endif
 408:/Library/DaisyToolchain/0.2.0/arm/arm-none-eabi/include/c++/10.3.1/bits/stl_algobase.h **** 
 409:/Library/DaisyToolchain/0.2.0/arm/arm-none-eabi/include/c++/10.3.1/bits/stl_algobase.h ****   template<bool _IsMove>
 410:/Library/DaisyToolchain/0.2.0/arm/arm-none-eabi/include/c++/10.3.1/bits/stl_algobase.h ****     struct __copy_move<_IsMove, true, random_access_iterator_tag>
 411:/Library/DaisyToolchain/0.2.0/arm/arm-none-eabi/include/c++/10.3.1/bits/stl_algobase.h ****     {
 412:/Library/DaisyToolchain/0.2.0/arm/arm-none-eabi/include/c++/10.3.1/bits/stl_algobase.h ****       template<typename _Tp>
 413:/Library/DaisyToolchain/0.2.0/arm/arm-none-eabi/include/c++/10.3.1/bits/stl_algobase.h **** 	_GLIBCXX20_CONSTEXPR
 414:/Library/DaisyToolchain/0.2.0/arm/arm-none-eabi/include/c++/10.3.1/bits/stl_algobase.h **** 	static _Tp*
 415:/Library/DaisyToolchain/0.2.0/arm/arm-none-eabi/include/c++/10.3.1/bits/stl_algobase.h **** 	__copy_m(const _Tp* __first, const _Tp* __last, _Tp* __result)
 416:/Library/DaisyToolchain/0.2.0/arm/arm-none-eabi/include/c++/10.3.1/bits/stl_algobase.h **** 	{
 417:/Library/DaisyToolchain/0.2.0/arm/arm-none-eabi/include/c++/10.3.1/bits/stl_algobase.h **** #if __cplusplus >= 201103L
 418:/Library/DaisyToolchain/0.2.0/arm/arm-none-eabi/include/c++/10.3.1/bits/stl_algobase.h **** 	  using __assignable = conditional<_IsMove,
ARM GAS  /var/folders/9s/8rp0_f2s1n31qbztm3b5_fdh0000gn/T//ccF2jpeh.s 			page 39


 419:/Library/DaisyToolchain/0.2.0/arm/arm-none-eabi/include/c++/10.3.1/bits/stl_algobase.h **** 					   is_move_assignable<_Tp>,
 420:/Library/DaisyToolchain/0.2.0/arm/arm-none-eabi/include/c++/10.3.1/bits/stl_algobase.h **** 					   is_copy_assignable<_Tp>>;
 421:/Library/DaisyToolchain/0.2.0/arm/arm-none-eabi/include/c++/10.3.1/bits/stl_algobase.h **** 	  // trivial types can have deleted assignment
 422:/Library/DaisyToolchain/0.2.0/arm/arm-none-eabi/include/c++/10.3.1/bits/stl_algobase.h **** 	  static_assert( __assignable::type::value, "type is not assignable" );
 423:/Library/DaisyToolchain/0.2.0/arm/arm-none-eabi/include/c++/10.3.1/bits/stl_algobase.h **** #endif
 424:/Library/DaisyToolchain/0.2.0/arm/arm-none-eabi/include/c++/10.3.1/bits/stl_algobase.h **** 	  const ptrdiff_t _Num = __last - __first;
 425:/Library/DaisyToolchain/0.2.0/arm/arm-none-eabi/include/c++/10.3.1/bits/stl_algobase.h **** 	  if (_Num)
 426:/Library/DaisyToolchain/0.2.0/arm/arm-none-eabi/include/c++/10.3.1/bits/stl_algobase.h **** 	    __builtin_memmove(__result, __first, sizeof(_Tp) * _Num);
 427:/Library/DaisyToolchain/0.2.0/arm/arm-none-eabi/include/c++/10.3.1/bits/stl_algobase.h **** 	  return __result + _Num;
 428:/Library/DaisyToolchain/0.2.0/arm/arm-none-eabi/include/c++/10.3.1/bits/stl_algobase.h **** 	}
 429:/Library/DaisyToolchain/0.2.0/arm/arm-none-eabi/include/c++/10.3.1/bits/stl_algobase.h ****     };
 430:/Library/DaisyToolchain/0.2.0/arm/arm-none-eabi/include/c++/10.3.1/bits/stl_algobase.h **** 
 431:/Library/DaisyToolchain/0.2.0/arm/arm-none-eabi/include/c++/10.3.1/bits/stl_algobase.h ****   // Helpers for streambuf iterators (either istream or ostream).
 432:/Library/DaisyToolchain/0.2.0/arm/arm-none-eabi/include/c++/10.3.1/bits/stl_algobase.h ****   // NB: avoid including <iosfwd>, relatively large.
 433:/Library/DaisyToolchain/0.2.0/arm/arm-none-eabi/include/c++/10.3.1/bits/stl_algobase.h ****   template<typename _CharT>
 434:/Library/DaisyToolchain/0.2.0/arm/arm-none-eabi/include/c++/10.3.1/bits/stl_algobase.h ****     struct char_traits;
 435:/Library/DaisyToolchain/0.2.0/arm/arm-none-eabi/include/c++/10.3.1/bits/stl_algobase.h **** 
 436:/Library/DaisyToolchain/0.2.0/arm/arm-none-eabi/include/c++/10.3.1/bits/stl_algobase.h ****   template<typename _CharT, typename _Traits>
 437:/Library/DaisyToolchain/0.2.0/arm/arm-none-eabi/include/c++/10.3.1/bits/stl_algobase.h ****     class istreambuf_iterator;
 438:/Library/DaisyToolchain/0.2.0/arm/arm-none-eabi/include/c++/10.3.1/bits/stl_algobase.h **** 
 439:/Library/DaisyToolchain/0.2.0/arm/arm-none-eabi/include/c++/10.3.1/bits/stl_algobase.h ****   template<typename _CharT, typename _Traits>
 440:/Library/DaisyToolchain/0.2.0/arm/arm-none-eabi/include/c++/10.3.1/bits/stl_algobase.h ****     class ostreambuf_iterator;
 441:/Library/DaisyToolchain/0.2.0/arm/arm-none-eabi/include/c++/10.3.1/bits/stl_algobase.h **** 
 442:/Library/DaisyToolchain/0.2.0/arm/arm-none-eabi/include/c++/10.3.1/bits/stl_algobase.h ****   template<bool _IsMove, typename _CharT>
 443:/Library/DaisyToolchain/0.2.0/arm/arm-none-eabi/include/c++/10.3.1/bits/stl_algobase.h ****     typename __gnu_cxx::__enable_if<__is_char<_CharT>::__value,
 444:/Library/DaisyToolchain/0.2.0/arm/arm-none-eabi/include/c++/10.3.1/bits/stl_algobase.h **** 	     ostreambuf_iterator<_CharT, char_traits<_CharT> > >::__type
 445:/Library/DaisyToolchain/0.2.0/arm/arm-none-eabi/include/c++/10.3.1/bits/stl_algobase.h ****     __copy_move_a2(_CharT*, _CharT*,
 446:/Library/DaisyToolchain/0.2.0/arm/arm-none-eabi/include/c++/10.3.1/bits/stl_algobase.h **** 		   ostreambuf_iterator<_CharT, char_traits<_CharT> >);
 447:/Library/DaisyToolchain/0.2.0/arm/arm-none-eabi/include/c++/10.3.1/bits/stl_algobase.h **** 
 448:/Library/DaisyToolchain/0.2.0/arm/arm-none-eabi/include/c++/10.3.1/bits/stl_algobase.h ****   template<bool _IsMove, typename _CharT>
 449:/Library/DaisyToolchain/0.2.0/arm/arm-none-eabi/include/c++/10.3.1/bits/stl_algobase.h ****     typename __gnu_cxx::__enable_if<__is_char<_CharT>::__value,
 450:/Library/DaisyToolchain/0.2.0/arm/arm-none-eabi/include/c++/10.3.1/bits/stl_algobase.h **** 	     ostreambuf_iterator<_CharT, char_traits<_CharT> > >::__type
 451:/Library/DaisyToolchain/0.2.0/arm/arm-none-eabi/include/c++/10.3.1/bits/stl_algobase.h ****     __copy_move_a2(const _CharT*, const _CharT*,
 452:/Library/DaisyToolchain/0.2.0/arm/arm-none-eabi/include/c++/10.3.1/bits/stl_algobase.h **** 		   ostreambuf_iterator<_CharT, char_traits<_CharT> >);
 453:/Library/DaisyToolchain/0.2.0/arm/arm-none-eabi/include/c++/10.3.1/bits/stl_algobase.h **** 
 454:/Library/DaisyToolchain/0.2.0/arm/arm-none-eabi/include/c++/10.3.1/bits/stl_algobase.h ****   template<bool _IsMove, typename _CharT>
 455:/Library/DaisyToolchain/0.2.0/arm/arm-none-eabi/include/c++/10.3.1/bits/stl_algobase.h ****     typename __gnu_cxx::__enable_if<__is_char<_CharT>::__value,
 456:/Library/DaisyToolchain/0.2.0/arm/arm-none-eabi/include/c++/10.3.1/bits/stl_algobase.h **** 				    _CharT*>::__type
 457:/Library/DaisyToolchain/0.2.0/arm/arm-none-eabi/include/c++/10.3.1/bits/stl_algobase.h ****     __copy_move_a2(istreambuf_iterator<_CharT, char_traits<_CharT> >,
 458:/Library/DaisyToolchain/0.2.0/arm/arm-none-eabi/include/c++/10.3.1/bits/stl_algobase.h **** 		   istreambuf_iterator<_CharT, char_traits<_CharT> >, _CharT*);
 459:/Library/DaisyToolchain/0.2.0/arm/arm-none-eabi/include/c++/10.3.1/bits/stl_algobase.h **** 
 460:/Library/DaisyToolchain/0.2.0/arm/arm-none-eabi/include/c++/10.3.1/bits/stl_algobase.h ****   template<bool _IsMove, typename _II, typename _OI>
 461:/Library/DaisyToolchain/0.2.0/arm/arm-none-eabi/include/c++/10.3.1/bits/stl_algobase.h ****     _GLIBCXX20_CONSTEXPR
 462:/Library/DaisyToolchain/0.2.0/arm/arm-none-eabi/include/c++/10.3.1/bits/stl_algobase.h ****     inline _OI
 463:/Library/DaisyToolchain/0.2.0/arm/arm-none-eabi/include/c++/10.3.1/bits/stl_algobase.h ****     __copy_move_a2(_II __first, _II __last, _OI __result)
 464:/Library/DaisyToolchain/0.2.0/arm/arm-none-eabi/include/c++/10.3.1/bits/stl_algobase.h ****     {
 465:/Library/DaisyToolchain/0.2.0/arm/arm-none-eabi/include/c++/10.3.1/bits/stl_algobase.h ****       typedef typename iterator_traits<_II>::iterator_category _Category;
 466:/Library/DaisyToolchain/0.2.0/arm/arm-none-eabi/include/c++/10.3.1/bits/stl_algobase.h **** #ifdef __cpp_lib_is_constant_evaluated
 467:/Library/DaisyToolchain/0.2.0/arm/arm-none-eabi/include/c++/10.3.1/bits/stl_algobase.h ****       if (std::is_constant_evaluated())
 468:/Library/DaisyToolchain/0.2.0/arm/arm-none-eabi/include/c++/10.3.1/bits/stl_algobase.h **** 	return std::__copy_move<_IsMove, false, _Category>::
 469:/Library/DaisyToolchain/0.2.0/arm/arm-none-eabi/include/c++/10.3.1/bits/stl_algobase.h **** 	  __copy_m(__first, __last, __result);
 470:/Library/DaisyToolchain/0.2.0/arm/arm-none-eabi/include/c++/10.3.1/bits/stl_algobase.h **** #endif
 471:/Library/DaisyToolchain/0.2.0/arm/arm-none-eabi/include/c++/10.3.1/bits/stl_algobase.h ****       return std::__copy_move<_IsMove, __memcpyable<_OI, _II>::__value,
 472:/Library/DaisyToolchain/0.2.0/arm/arm-none-eabi/include/c++/10.3.1/bits/stl_algobase.h **** 			      _Category>::__copy_m(__first, __last, __result);
 473:/Library/DaisyToolchain/0.2.0/arm/arm-none-eabi/include/c++/10.3.1/bits/stl_algobase.h ****     }
 474:/Library/DaisyToolchain/0.2.0/arm/arm-none-eabi/include/c++/10.3.1/bits/stl_algobase.h **** 
 475:/Library/DaisyToolchain/0.2.0/arm/arm-none-eabi/include/c++/10.3.1/bits/stl_algobase.h **** _GLIBCXX_BEGIN_NAMESPACE_CONTAINER
ARM GAS  /var/folders/9s/8rp0_f2s1n31qbztm3b5_fdh0000gn/T//ccF2jpeh.s 			page 40


 476:/Library/DaisyToolchain/0.2.0/arm/arm-none-eabi/include/c++/10.3.1/bits/stl_algobase.h **** 
 477:/Library/DaisyToolchain/0.2.0/arm/arm-none-eabi/include/c++/10.3.1/bits/stl_algobase.h ****   template<typename _Tp, typename _Ref, typename _Ptr>
 478:/Library/DaisyToolchain/0.2.0/arm/arm-none-eabi/include/c++/10.3.1/bits/stl_algobase.h ****     struct _Deque_iterator;
 479:/Library/DaisyToolchain/0.2.0/arm/arm-none-eabi/include/c++/10.3.1/bits/stl_algobase.h **** 
 480:/Library/DaisyToolchain/0.2.0/arm/arm-none-eabi/include/c++/10.3.1/bits/stl_algobase.h **** _GLIBCXX_END_NAMESPACE_CONTAINER
 481:/Library/DaisyToolchain/0.2.0/arm/arm-none-eabi/include/c++/10.3.1/bits/stl_algobase.h **** 
 482:/Library/DaisyToolchain/0.2.0/arm/arm-none-eabi/include/c++/10.3.1/bits/stl_algobase.h ****   template<bool _IsMove,
 483:/Library/DaisyToolchain/0.2.0/arm/arm-none-eabi/include/c++/10.3.1/bits/stl_algobase.h **** 	   typename _Tp, typename _Ref, typename _Ptr, typename _OI>
 484:/Library/DaisyToolchain/0.2.0/arm/arm-none-eabi/include/c++/10.3.1/bits/stl_algobase.h ****     _OI
 485:/Library/DaisyToolchain/0.2.0/arm/arm-none-eabi/include/c++/10.3.1/bits/stl_algobase.h ****     __copy_move_a1(_GLIBCXX_STD_C::_Deque_iterator<_Tp, _Ref, _Ptr>,
 486:/Library/DaisyToolchain/0.2.0/arm/arm-none-eabi/include/c++/10.3.1/bits/stl_algobase.h **** 		   _GLIBCXX_STD_C::_Deque_iterator<_Tp, _Ref, _Ptr>,
 487:/Library/DaisyToolchain/0.2.0/arm/arm-none-eabi/include/c++/10.3.1/bits/stl_algobase.h **** 		   _OI);
 488:/Library/DaisyToolchain/0.2.0/arm/arm-none-eabi/include/c++/10.3.1/bits/stl_algobase.h **** 
 489:/Library/DaisyToolchain/0.2.0/arm/arm-none-eabi/include/c++/10.3.1/bits/stl_algobase.h ****   template<bool _IsMove,
 490:/Library/DaisyToolchain/0.2.0/arm/arm-none-eabi/include/c++/10.3.1/bits/stl_algobase.h **** 	   typename _ITp, typename _IRef, typename _IPtr, typename _OTp>
 491:/Library/DaisyToolchain/0.2.0/arm/arm-none-eabi/include/c++/10.3.1/bits/stl_algobase.h ****     _GLIBCXX_STD_C::_Deque_iterator<_OTp, _OTp&, _OTp*>
 492:/Library/DaisyToolchain/0.2.0/arm/arm-none-eabi/include/c++/10.3.1/bits/stl_algobase.h ****     __copy_move_a1(_GLIBCXX_STD_C::_Deque_iterator<_ITp, _IRef, _IPtr>,
 493:/Library/DaisyToolchain/0.2.0/arm/arm-none-eabi/include/c++/10.3.1/bits/stl_algobase.h **** 		   _GLIBCXX_STD_C::_Deque_iterator<_ITp, _IRef, _IPtr>,
 494:/Library/DaisyToolchain/0.2.0/arm/arm-none-eabi/include/c++/10.3.1/bits/stl_algobase.h **** 		   _GLIBCXX_STD_C::_Deque_iterator<_OTp, _OTp&, _OTp*>);
 495:/Library/DaisyToolchain/0.2.0/arm/arm-none-eabi/include/c++/10.3.1/bits/stl_algobase.h **** 
 496:/Library/DaisyToolchain/0.2.0/arm/arm-none-eabi/include/c++/10.3.1/bits/stl_algobase.h ****   template<bool _IsMove, typename _II, typename _Tp>
 497:/Library/DaisyToolchain/0.2.0/arm/arm-none-eabi/include/c++/10.3.1/bits/stl_algobase.h ****     typename __gnu_cxx::__enable_if<
 498:/Library/DaisyToolchain/0.2.0/arm/arm-none-eabi/include/c++/10.3.1/bits/stl_algobase.h ****       __is_random_access_iter<_II>::__value,
 499:/Library/DaisyToolchain/0.2.0/arm/arm-none-eabi/include/c++/10.3.1/bits/stl_algobase.h ****       _GLIBCXX_STD_C::_Deque_iterator<_Tp, _Tp&, _Tp*> >::__type
 500:/Library/DaisyToolchain/0.2.0/arm/arm-none-eabi/include/c++/10.3.1/bits/stl_algobase.h ****     __copy_move_a1(_II, _II, _GLIBCXX_STD_C::_Deque_iterator<_Tp, _Tp&, _Tp*>);
 501:/Library/DaisyToolchain/0.2.0/arm/arm-none-eabi/include/c++/10.3.1/bits/stl_algobase.h **** 
 502:/Library/DaisyToolchain/0.2.0/arm/arm-none-eabi/include/c++/10.3.1/bits/stl_algobase.h ****   template<bool _IsMove, typename _II, typename _OI>
 503:/Library/DaisyToolchain/0.2.0/arm/arm-none-eabi/include/c++/10.3.1/bits/stl_algobase.h ****     _GLIBCXX20_CONSTEXPR
 504:/Library/DaisyToolchain/0.2.0/arm/arm-none-eabi/include/c++/10.3.1/bits/stl_algobase.h ****     inline _OI
 505:/Library/DaisyToolchain/0.2.0/arm/arm-none-eabi/include/c++/10.3.1/bits/stl_algobase.h ****     __copy_move_a1(_II __first, _II __last, _OI __result)
 506:/Library/DaisyToolchain/0.2.0/arm/arm-none-eabi/include/c++/10.3.1/bits/stl_algobase.h ****     { return std::__copy_move_a2<_IsMove>(__first, __last, __result); }
 507:/Library/DaisyToolchain/0.2.0/arm/arm-none-eabi/include/c++/10.3.1/bits/stl_algobase.h **** 
 508:/Library/DaisyToolchain/0.2.0/arm/arm-none-eabi/include/c++/10.3.1/bits/stl_algobase.h ****   template<bool _IsMove, typename _II, typename _OI>
 509:/Library/DaisyToolchain/0.2.0/arm/arm-none-eabi/include/c++/10.3.1/bits/stl_algobase.h ****     _GLIBCXX20_CONSTEXPR
 510:/Library/DaisyToolchain/0.2.0/arm/arm-none-eabi/include/c++/10.3.1/bits/stl_algobase.h ****     inline _OI
 511:/Library/DaisyToolchain/0.2.0/arm/arm-none-eabi/include/c++/10.3.1/bits/stl_algobase.h ****     __copy_move_a(_II __first, _II __last, _OI __result)
 512:/Library/DaisyToolchain/0.2.0/arm/arm-none-eabi/include/c++/10.3.1/bits/stl_algobase.h ****     {
 513:/Library/DaisyToolchain/0.2.0/arm/arm-none-eabi/include/c++/10.3.1/bits/stl_algobase.h ****       return std::__niter_wrap(__result,
 514:/Library/DaisyToolchain/0.2.0/arm/arm-none-eabi/include/c++/10.3.1/bits/stl_algobase.h **** 		std::__copy_move_a1<_IsMove>(std::__niter_base(__first),
 515:/Library/DaisyToolchain/0.2.0/arm/arm-none-eabi/include/c++/10.3.1/bits/stl_algobase.h **** 					     std::__niter_base(__last),
 516:/Library/DaisyToolchain/0.2.0/arm/arm-none-eabi/include/c++/10.3.1/bits/stl_algobase.h **** 					     std::__niter_base(__result)));
 517:/Library/DaisyToolchain/0.2.0/arm/arm-none-eabi/include/c++/10.3.1/bits/stl_algobase.h ****     }
 518:/Library/DaisyToolchain/0.2.0/arm/arm-none-eabi/include/c++/10.3.1/bits/stl_algobase.h **** 
 519:/Library/DaisyToolchain/0.2.0/arm/arm-none-eabi/include/c++/10.3.1/bits/stl_algobase.h ****   template<bool _IsMove,
 520:/Library/DaisyToolchain/0.2.0/arm/arm-none-eabi/include/c++/10.3.1/bits/stl_algobase.h **** 	   typename _Ite, typename _Seq, typename _Cat, typename _OI>
 521:/Library/DaisyToolchain/0.2.0/arm/arm-none-eabi/include/c++/10.3.1/bits/stl_algobase.h ****     _OI
 522:/Library/DaisyToolchain/0.2.0/arm/arm-none-eabi/include/c++/10.3.1/bits/stl_algobase.h ****     __copy_move_a(const ::__gnu_debug::_Safe_iterator<_Ite, _Seq, _Cat>&,
 523:/Library/DaisyToolchain/0.2.0/arm/arm-none-eabi/include/c++/10.3.1/bits/stl_algobase.h **** 		  const ::__gnu_debug::_Safe_iterator<_Ite, _Seq, _Cat>&,
 524:/Library/DaisyToolchain/0.2.0/arm/arm-none-eabi/include/c++/10.3.1/bits/stl_algobase.h **** 		  _OI);
 525:/Library/DaisyToolchain/0.2.0/arm/arm-none-eabi/include/c++/10.3.1/bits/stl_algobase.h **** 
 526:/Library/DaisyToolchain/0.2.0/arm/arm-none-eabi/include/c++/10.3.1/bits/stl_algobase.h ****   template<bool _IsMove,
 527:/Library/DaisyToolchain/0.2.0/arm/arm-none-eabi/include/c++/10.3.1/bits/stl_algobase.h **** 	   typename _II, typename _Ite, typename _Seq, typename _Cat>
 528:/Library/DaisyToolchain/0.2.0/arm/arm-none-eabi/include/c++/10.3.1/bits/stl_algobase.h ****     __gnu_debug::_Safe_iterator<_Ite, _Seq, _Cat>
 529:/Library/DaisyToolchain/0.2.0/arm/arm-none-eabi/include/c++/10.3.1/bits/stl_algobase.h ****     __copy_move_a(_II, _II,
 530:/Library/DaisyToolchain/0.2.0/arm/arm-none-eabi/include/c++/10.3.1/bits/stl_algobase.h **** 		  const ::__gnu_debug::_Safe_iterator<_Ite, _Seq, _Cat>&);
 531:/Library/DaisyToolchain/0.2.0/arm/arm-none-eabi/include/c++/10.3.1/bits/stl_algobase.h **** 
 532:/Library/DaisyToolchain/0.2.0/arm/arm-none-eabi/include/c++/10.3.1/bits/stl_algobase.h ****   template<bool _IsMove,
ARM GAS  /var/folders/9s/8rp0_f2s1n31qbztm3b5_fdh0000gn/T//ccF2jpeh.s 			page 41


 533:/Library/DaisyToolchain/0.2.0/arm/arm-none-eabi/include/c++/10.3.1/bits/stl_algobase.h **** 	   typename _IIte, typename _ISeq, typename _ICat,
 534:/Library/DaisyToolchain/0.2.0/arm/arm-none-eabi/include/c++/10.3.1/bits/stl_algobase.h **** 	   typename _OIte, typename _OSeq, typename _OCat>
 535:/Library/DaisyToolchain/0.2.0/arm/arm-none-eabi/include/c++/10.3.1/bits/stl_algobase.h ****     ::__gnu_debug::_Safe_iterator<_OIte, _OSeq, _OCat>
 536:/Library/DaisyToolchain/0.2.0/arm/arm-none-eabi/include/c++/10.3.1/bits/stl_algobase.h ****     __copy_move_a(const ::__gnu_debug::_Safe_iterator<_IIte, _ISeq, _ICat>&,
 537:/Library/DaisyToolchain/0.2.0/arm/arm-none-eabi/include/c++/10.3.1/bits/stl_algobase.h **** 		  const ::__gnu_debug::_Safe_iterator<_IIte, _ISeq, _ICat>&,
 538:/Library/DaisyToolchain/0.2.0/arm/arm-none-eabi/include/c++/10.3.1/bits/stl_algobase.h **** 		  const ::__gnu_debug::_Safe_iterator<_OIte, _OSeq, _OCat>&);
 539:/Library/DaisyToolchain/0.2.0/arm/arm-none-eabi/include/c++/10.3.1/bits/stl_algobase.h **** 
 540:/Library/DaisyToolchain/0.2.0/arm/arm-none-eabi/include/c++/10.3.1/bits/stl_algobase.h ****   /**
 541:/Library/DaisyToolchain/0.2.0/arm/arm-none-eabi/include/c++/10.3.1/bits/stl_algobase.h ****    *  @brief Copies the range [first,last) into result.
 542:/Library/DaisyToolchain/0.2.0/arm/arm-none-eabi/include/c++/10.3.1/bits/stl_algobase.h ****    *  @ingroup mutating_algorithms
 543:/Library/DaisyToolchain/0.2.0/arm/arm-none-eabi/include/c++/10.3.1/bits/stl_algobase.h ****    *  @param  __first  An input iterator.
 544:/Library/DaisyToolchain/0.2.0/arm/arm-none-eabi/include/c++/10.3.1/bits/stl_algobase.h ****    *  @param  __last   An input iterator.
 545:/Library/DaisyToolchain/0.2.0/arm/arm-none-eabi/include/c++/10.3.1/bits/stl_algobase.h ****    *  @param  __result An output iterator.
 546:/Library/DaisyToolchain/0.2.0/arm/arm-none-eabi/include/c++/10.3.1/bits/stl_algobase.h ****    *  @return   result + (last - first)
 547:/Library/DaisyToolchain/0.2.0/arm/arm-none-eabi/include/c++/10.3.1/bits/stl_algobase.h ****    *
 548:/Library/DaisyToolchain/0.2.0/arm/arm-none-eabi/include/c++/10.3.1/bits/stl_algobase.h ****    *  This inline function will boil down to a call to @c memmove whenever
 549:/Library/DaisyToolchain/0.2.0/arm/arm-none-eabi/include/c++/10.3.1/bits/stl_algobase.h ****    *  possible.  Failing that, if random access iterators are passed, then the
 550:/Library/DaisyToolchain/0.2.0/arm/arm-none-eabi/include/c++/10.3.1/bits/stl_algobase.h ****    *  loop count will be known (and therefore a candidate for compiler
 551:/Library/DaisyToolchain/0.2.0/arm/arm-none-eabi/include/c++/10.3.1/bits/stl_algobase.h ****    *  optimizations such as unrolling).  Result may not be contained within
 552:/Library/DaisyToolchain/0.2.0/arm/arm-none-eabi/include/c++/10.3.1/bits/stl_algobase.h ****    *  [first,last); the copy_backward function should be used instead.
 553:/Library/DaisyToolchain/0.2.0/arm/arm-none-eabi/include/c++/10.3.1/bits/stl_algobase.h ****    *
 554:/Library/DaisyToolchain/0.2.0/arm/arm-none-eabi/include/c++/10.3.1/bits/stl_algobase.h ****    *  Note that the end of the output range is permitted to be contained
 555:/Library/DaisyToolchain/0.2.0/arm/arm-none-eabi/include/c++/10.3.1/bits/stl_algobase.h ****    *  within [first,last).
 556:/Library/DaisyToolchain/0.2.0/arm/arm-none-eabi/include/c++/10.3.1/bits/stl_algobase.h ****   */
 557:/Library/DaisyToolchain/0.2.0/arm/arm-none-eabi/include/c++/10.3.1/bits/stl_algobase.h ****   template<typename _II, typename _OI>
 558:/Library/DaisyToolchain/0.2.0/arm/arm-none-eabi/include/c++/10.3.1/bits/stl_algobase.h ****     _GLIBCXX20_CONSTEXPR
 559:/Library/DaisyToolchain/0.2.0/arm/arm-none-eabi/include/c++/10.3.1/bits/stl_algobase.h ****     inline _OI
 560:/Library/DaisyToolchain/0.2.0/arm/arm-none-eabi/include/c++/10.3.1/bits/stl_algobase.h ****     copy(_II __first, _II __last, _OI __result)
 561:/Library/DaisyToolchain/0.2.0/arm/arm-none-eabi/include/c++/10.3.1/bits/stl_algobase.h ****     {
 562:/Library/DaisyToolchain/0.2.0/arm/arm-none-eabi/include/c++/10.3.1/bits/stl_algobase.h ****       // concept requirements
 563:/Library/DaisyToolchain/0.2.0/arm/arm-none-eabi/include/c++/10.3.1/bits/stl_algobase.h ****       __glibcxx_function_requires(_InputIteratorConcept<_II>)
 564:/Library/DaisyToolchain/0.2.0/arm/arm-none-eabi/include/c++/10.3.1/bits/stl_algobase.h ****       __glibcxx_function_requires(_OutputIteratorConcept<_OI,
 565:/Library/DaisyToolchain/0.2.0/arm/arm-none-eabi/include/c++/10.3.1/bits/stl_algobase.h **** 	    typename iterator_traits<_II>::value_type>)
 566:/Library/DaisyToolchain/0.2.0/arm/arm-none-eabi/include/c++/10.3.1/bits/stl_algobase.h ****       __glibcxx_requires_can_increment_range(__first, __last, __result);
 567:/Library/DaisyToolchain/0.2.0/arm/arm-none-eabi/include/c++/10.3.1/bits/stl_algobase.h **** 
 568:/Library/DaisyToolchain/0.2.0/arm/arm-none-eabi/include/c++/10.3.1/bits/stl_algobase.h ****       return std::__copy_move_a<__is_move_iterator<_II>::__value>
 569:/Library/DaisyToolchain/0.2.0/arm/arm-none-eabi/include/c++/10.3.1/bits/stl_algobase.h **** 	     (std::__miter_base(__first), std::__miter_base(__last), __result);
 570:/Library/DaisyToolchain/0.2.0/arm/arm-none-eabi/include/c++/10.3.1/bits/stl_algobase.h ****     }
 571:/Library/DaisyToolchain/0.2.0/arm/arm-none-eabi/include/c++/10.3.1/bits/stl_algobase.h **** 
 572:/Library/DaisyToolchain/0.2.0/arm/arm-none-eabi/include/c++/10.3.1/bits/stl_algobase.h **** #if __cplusplus >= 201103L
 573:/Library/DaisyToolchain/0.2.0/arm/arm-none-eabi/include/c++/10.3.1/bits/stl_algobase.h ****   /**
 574:/Library/DaisyToolchain/0.2.0/arm/arm-none-eabi/include/c++/10.3.1/bits/stl_algobase.h ****    *  @brief Moves the range [first,last) into result.
 575:/Library/DaisyToolchain/0.2.0/arm/arm-none-eabi/include/c++/10.3.1/bits/stl_algobase.h ****    *  @ingroup mutating_algorithms
 576:/Library/DaisyToolchain/0.2.0/arm/arm-none-eabi/include/c++/10.3.1/bits/stl_algobase.h ****    *  @param  __first  An input iterator.
 577:/Library/DaisyToolchain/0.2.0/arm/arm-none-eabi/include/c++/10.3.1/bits/stl_algobase.h ****    *  @param  __last   An input iterator.
 578:/Library/DaisyToolchain/0.2.0/arm/arm-none-eabi/include/c++/10.3.1/bits/stl_algobase.h ****    *  @param  __result An output iterator.
 579:/Library/DaisyToolchain/0.2.0/arm/arm-none-eabi/include/c++/10.3.1/bits/stl_algobase.h ****    *  @return   result + (last - first)
 580:/Library/DaisyToolchain/0.2.0/arm/arm-none-eabi/include/c++/10.3.1/bits/stl_algobase.h ****    *
 581:/Library/DaisyToolchain/0.2.0/arm/arm-none-eabi/include/c++/10.3.1/bits/stl_algobase.h ****    *  This inline function will boil down to a call to @c memmove whenever
 582:/Library/DaisyToolchain/0.2.0/arm/arm-none-eabi/include/c++/10.3.1/bits/stl_algobase.h ****    *  possible.  Failing that, if random access iterators are passed, then the
 583:/Library/DaisyToolchain/0.2.0/arm/arm-none-eabi/include/c++/10.3.1/bits/stl_algobase.h ****    *  loop count will be known (and therefore a candidate for compiler
 584:/Library/DaisyToolchain/0.2.0/arm/arm-none-eabi/include/c++/10.3.1/bits/stl_algobase.h ****    *  optimizations such as unrolling).  Result may not be contained within
 585:/Library/DaisyToolchain/0.2.0/arm/arm-none-eabi/include/c++/10.3.1/bits/stl_algobase.h ****    *  [first,last); the move_backward function should be used instead.
 586:/Library/DaisyToolchain/0.2.0/arm/arm-none-eabi/include/c++/10.3.1/bits/stl_algobase.h ****    *
 587:/Library/DaisyToolchain/0.2.0/arm/arm-none-eabi/include/c++/10.3.1/bits/stl_algobase.h ****    *  Note that the end of the output range is permitted to be contained
 588:/Library/DaisyToolchain/0.2.0/arm/arm-none-eabi/include/c++/10.3.1/bits/stl_algobase.h ****    *  within [first,last).
 589:/Library/DaisyToolchain/0.2.0/arm/arm-none-eabi/include/c++/10.3.1/bits/stl_algobase.h ****   */
ARM GAS  /var/folders/9s/8rp0_f2s1n31qbztm3b5_fdh0000gn/T//ccF2jpeh.s 			page 42


 590:/Library/DaisyToolchain/0.2.0/arm/arm-none-eabi/include/c++/10.3.1/bits/stl_algobase.h ****   template<typename _II, typename _OI>
 591:/Library/DaisyToolchain/0.2.0/arm/arm-none-eabi/include/c++/10.3.1/bits/stl_algobase.h ****     _GLIBCXX20_CONSTEXPR
 592:/Library/DaisyToolchain/0.2.0/arm/arm-none-eabi/include/c++/10.3.1/bits/stl_algobase.h ****     inline _OI
 593:/Library/DaisyToolchain/0.2.0/arm/arm-none-eabi/include/c++/10.3.1/bits/stl_algobase.h ****     move(_II __first, _II __last, _OI __result)
 594:/Library/DaisyToolchain/0.2.0/arm/arm-none-eabi/include/c++/10.3.1/bits/stl_algobase.h ****     {
 595:/Library/DaisyToolchain/0.2.0/arm/arm-none-eabi/include/c++/10.3.1/bits/stl_algobase.h ****       // concept requirements
 596:/Library/DaisyToolchain/0.2.0/arm/arm-none-eabi/include/c++/10.3.1/bits/stl_algobase.h ****       __glibcxx_function_requires(_InputIteratorConcept<_II>)
 597:/Library/DaisyToolchain/0.2.0/arm/arm-none-eabi/include/c++/10.3.1/bits/stl_algobase.h ****       __glibcxx_function_requires(_OutputIteratorConcept<_OI,
 598:/Library/DaisyToolchain/0.2.0/arm/arm-none-eabi/include/c++/10.3.1/bits/stl_algobase.h **** 	    typename iterator_traits<_II>::value_type>)
 599:/Library/DaisyToolchain/0.2.0/arm/arm-none-eabi/include/c++/10.3.1/bits/stl_algobase.h ****       __glibcxx_requires_can_increment_range(__first, __last, __result);
 600:/Library/DaisyToolchain/0.2.0/arm/arm-none-eabi/include/c++/10.3.1/bits/stl_algobase.h **** 
 601:/Library/DaisyToolchain/0.2.0/arm/arm-none-eabi/include/c++/10.3.1/bits/stl_algobase.h ****       return std::__copy_move_a<true>(std::__miter_base(__first),
 602:/Library/DaisyToolchain/0.2.0/arm/arm-none-eabi/include/c++/10.3.1/bits/stl_algobase.h **** 				      std::__miter_base(__last), __result);
 603:/Library/DaisyToolchain/0.2.0/arm/arm-none-eabi/include/c++/10.3.1/bits/stl_algobase.h ****     }
 604:/Library/DaisyToolchain/0.2.0/arm/arm-none-eabi/include/c++/10.3.1/bits/stl_algobase.h **** 
 605:/Library/DaisyToolchain/0.2.0/arm/arm-none-eabi/include/c++/10.3.1/bits/stl_algobase.h **** #define _GLIBCXX_MOVE3(_Tp, _Up, _Vp) std::move(_Tp, _Up, _Vp)
 606:/Library/DaisyToolchain/0.2.0/arm/arm-none-eabi/include/c++/10.3.1/bits/stl_algobase.h **** #else
 607:/Library/DaisyToolchain/0.2.0/arm/arm-none-eabi/include/c++/10.3.1/bits/stl_algobase.h **** #define _GLIBCXX_MOVE3(_Tp, _Up, _Vp) std::copy(_Tp, _Up, _Vp)
 608:/Library/DaisyToolchain/0.2.0/arm/arm-none-eabi/include/c++/10.3.1/bits/stl_algobase.h **** #endif
 609:/Library/DaisyToolchain/0.2.0/arm/arm-none-eabi/include/c++/10.3.1/bits/stl_algobase.h **** 
 610:/Library/DaisyToolchain/0.2.0/arm/arm-none-eabi/include/c++/10.3.1/bits/stl_algobase.h ****   template<bool _IsMove, bool _IsSimple, typename _Category>
 611:/Library/DaisyToolchain/0.2.0/arm/arm-none-eabi/include/c++/10.3.1/bits/stl_algobase.h ****     struct __copy_move_backward
 612:/Library/DaisyToolchain/0.2.0/arm/arm-none-eabi/include/c++/10.3.1/bits/stl_algobase.h ****     {
 613:/Library/DaisyToolchain/0.2.0/arm/arm-none-eabi/include/c++/10.3.1/bits/stl_algobase.h ****       template<typename _BI1, typename _BI2>
 614:/Library/DaisyToolchain/0.2.0/arm/arm-none-eabi/include/c++/10.3.1/bits/stl_algobase.h **** 	_GLIBCXX20_CONSTEXPR
 615:/Library/DaisyToolchain/0.2.0/arm/arm-none-eabi/include/c++/10.3.1/bits/stl_algobase.h **** 	static _BI2
 616:/Library/DaisyToolchain/0.2.0/arm/arm-none-eabi/include/c++/10.3.1/bits/stl_algobase.h **** 	__copy_move_b(_BI1 __first, _BI1 __last, _BI2 __result)
 617:/Library/DaisyToolchain/0.2.0/arm/arm-none-eabi/include/c++/10.3.1/bits/stl_algobase.h **** 	{
 618:/Library/DaisyToolchain/0.2.0/arm/arm-none-eabi/include/c++/10.3.1/bits/stl_algobase.h **** 	  while (__first != __last)
 619:/Library/DaisyToolchain/0.2.0/arm/arm-none-eabi/include/c++/10.3.1/bits/stl_algobase.h **** 	    *--__result = *--__last;
 620:/Library/DaisyToolchain/0.2.0/arm/arm-none-eabi/include/c++/10.3.1/bits/stl_algobase.h **** 	  return __result;
 621:/Library/DaisyToolchain/0.2.0/arm/arm-none-eabi/include/c++/10.3.1/bits/stl_algobase.h **** 	}
 622:/Library/DaisyToolchain/0.2.0/arm/arm-none-eabi/include/c++/10.3.1/bits/stl_algobase.h ****     };
 623:/Library/DaisyToolchain/0.2.0/arm/arm-none-eabi/include/c++/10.3.1/bits/stl_algobase.h **** 
 624:/Library/DaisyToolchain/0.2.0/arm/arm-none-eabi/include/c++/10.3.1/bits/stl_algobase.h **** #if __cplusplus >= 201103L
 625:/Library/DaisyToolchain/0.2.0/arm/arm-none-eabi/include/c++/10.3.1/bits/stl_algobase.h ****   template<typename _Category>
 626:/Library/DaisyToolchain/0.2.0/arm/arm-none-eabi/include/c++/10.3.1/bits/stl_algobase.h ****     struct __copy_move_backward<true, false, _Category>
 627:/Library/DaisyToolchain/0.2.0/arm/arm-none-eabi/include/c++/10.3.1/bits/stl_algobase.h ****     {
 628:/Library/DaisyToolchain/0.2.0/arm/arm-none-eabi/include/c++/10.3.1/bits/stl_algobase.h ****       template<typename _BI1, typename _BI2>
 629:/Library/DaisyToolchain/0.2.0/arm/arm-none-eabi/include/c++/10.3.1/bits/stl_algobase.h **** 	_GLIBCXX20_CONSTEXPR
 630:/Library/DaisyToolchain/0.2.0/arm/arm-none-eabi/include/c++/10.3.1/bits/stl_algobase.h **** 	static _BI2
 631:/Library/DaisyToolchain/0.2.0/arm/arm-none-eabi/include/c++/10.3.1/bits/stl_algobase.h **** 	__copy_move_b(_BI1 __first, _BI1 __last, _BI2 __result)
 632:/Library/DaisyToolchain/0.2.0/arm/arm-none-eabi/include/c++/10.3.1/bits/stl_algobase.h **** 	{
 633:/Library/DaisyToolchain/0.2.0/arm/arm-none-eabi/include/c++/10.3.1/bits/stl_algobase.h **** 	  while (__first != __last)
 634:/Library/DaisyToolchain/0.2.0/arm/arm-none-eabi/include/c++/10.3.1/bits/stl_algobase.h **** 	    *--__result = std::move(*--__last);
 635:/Library/DaisyToolchain/0.2.0/arm/arm-none-eabi/include/c++/10.3.1/bits/stl_algobase.h **** 	  return __result;
 636:/Library/DaisyToolchain/0.2.0/arm/arm-none-eabi/include/c++/10.3.1/bits/stl_algobase.h **** 	}
 637:/Library/DaisyToolchain/0.2.0/arm/arm-none-eabi/include/c++/10.3.1/bits/stl_algobase.h ****     };
 638:/Library/DaisyToolchain/0.2.0/arm/arm-none-eabi/include/c++/10.3.1/bits/stl_algobase.h **** #endif
 639:/Library/DaisyToolchain/0.2.0/arm/arm-none-eabi/include/c++/10.3.1/bits/stl_algobase.h **** 
 640:/Library/DaisyToolchain/0.2.0/arm/arm-none-eabi/include/c++/10.3.1/bits/stl_algobase.h ****   template<>
 641:/Library/DaisyToolchain/0.2.0/arm/arm-none-eabi/include/c++/10.3.1/bits/stl_algobase.h ****     struct __copy_move_backward<false, false, random_access_iterator_tag>
 642:/Library/DaisyToolchain/0.2.0/arm/arm-none-eabi/include/c++/10.3.1/bits/stl_algobase.h ****     {
 643:/Library/DaisyToolchain/0.2.0/arm/arm-none-eabi/include/c++/10.3.1/bits/stl_algobase.h ****       template<typename _BI1, typename _BI2>
 644:/Library/DaisyToolchain/0.2.0/arm/arm-none-eabi/include/c++/10.3.1/bits/stl_algobase.h **** 	_GLIBCXX20_CONSTEXPR
 645:/Library/DaisyToolchain/0.2.0/arm/arm-none-eabi/include/c++/10.3.1/bits/stl_algobase.h **** 	static _BI2
 646:/Library/DaisyToolchain/0.2.0/arm/arm-none-eabi/include/c++/10.3.1/bits/stl_algobase.h **** 	__copy_move_b(_BI1 __first, _BI1 __last, _BI2 __result)
ARM GAS  /var/folders/9s/8rp0_f2s1n31qbztm3b5_fdh0000gn/T//ccF2jpeh.s 			page 43


 647:/Library/DaisyToolchain/0.2.0/arm/arm-none-eabi/include/c++/10.3.1/bits/stl_algobase.h **** 	{
 648:/Library/DaisyToolchain/0.2.0/arm/arm-none-eabi/include/c++/10.3.1/bits/stl_algobase.h **** 	  typename iterator_traits<_BI1>::difference_type
 649:/Library/DaisyToolchain/0.2.0/arm/arm-none-eabi/include/c++/10.3.1/bits/stl_algobase.h **** 	    __n = __last - __first;
 650:/Library/DaisyToolchain/0.2.0/arm/arm-none-eabi/include/c++/10.3.1/bits/stl_algobase.h **** 	  for (; __n > 0; --__n)
 651:/Library/DaisyToolchain/0.2.0/arm/arm-none-eabi/include/c++/10.3.1/bits/stl_algobase.h **** 	    *--__result = *--__last;
 652:/Library/DaisyToolchain/0.2.0/arm/arm-none-eabi/include/c++/10.3.1/bits/stl_algobase.h **** 	  return __result;
 653:/Library/DaisyToolchain/0.2.0/arm/arm-none-eabi/include/c++/10.3.1/bits/stl_algobase.h **** 	}
 654:/Library/DaisyToolchain/0.2.0/arm/arm-none-eabi/include/c++/10.3.1/bits/stl_algobase.h ****     };
 655:/Library/DaisyToolchain/0.2.0/arm/arm-none-eabi/include/c++/10.3.1/bits/stl_algobase.h **** 
 656:/Library/DaisyToolchain/0.2.0/arm/arm-none-eabi/include/c++/10.3.1/bits/stl_algobase.h **** #if __cplusplus >= 201103L
 657:/Library/DaisyToolchain/0.2.0/arm/arm-none-eabi/include/c++/10.3.1/bits/stl_algobase.h ****   template<>
 658:/Library/DaisyToolchain/0.2.0/arm/arm-none-eabi/include/c++/10.3.1/bits/stl_algobase.h ****     struct __copy_move_backward<true, false, random_access_iterator_tag>
 659:/Library/DaisyToolchain/0.2.0/arm/arm-none-eabi/include/c++/10.3.1/bits/stl_algobase.h ****     {
 660:/Library/DaisyToolchain/0.2.0/arm/arm-none-eabi/include/c++/10.3.1/bits/stl_algobase.h ****       template<typename _BI1, typename _BI2>
 661:/Library/DaisyToolchain/0.2.0/arm/arm-none-eabi/include/c++/10.3.1/bits/stl_algobase.h **** 	_GLIBCXX20_CONSTEXPR
 662:/Library/DaisyToolchain/0.2.0/arm/arm-none-eabi/include/c++/10.3.1/bits/stl_algobase.h **** 	static _BI2
 663:/Library/DaisyToolchain/0.2.0/arm/arm-none-eabi/include/c++/10.3.1/bits/stl_algobase.h **** 	__copy_move_b(_BI1 __first, _BI1 __last, _BI2 __result)
 664:/Library/DaisyToolchain/0.2.0/arm/arm-none-eabi/include/c++/10.3.1/bits/stl_algobase.h **** 	{
 665:/Library/DaisyToolchain/0.2.0/arm/arm-none-eabi/include/c++/10.3.1/bits/stl_algobase.h **** 	  typename iterator_traits<_BI1>::difference_type
 666:/Library/DaisyToolchain/0.2.0/arm/arm-none-eabi/include/c++/10.3.1/bits/stl_algobase.h **** 	    __n = __last - __first;
 667:/Library/DaisyToolchain/0.2.0/arm/arm-none-eabi/include/c++/10.3.1/bits/stl_algobase.h **** 	  for (; __n > 0; --__n)
 668:/Library/DaisyToolchain/0.2.0/arm/arm-none-eabi/include/c++/10.3.1/bits/stl_algobase.h **** 	    *--__result = std::move(*--__last);
 669:/Library/DaisyToolchain/0.2.0/arm/arm-none-eabi/include/c++/10.3.1/bits/stl_algobase.h **** 	  return __result;
 670:/Library/DaisyToolchain/0.2.0/arm/arm-none-eabi/include/c++/10.3.1/bits/stl_algobase.h **** 	}
 671:/Library/DaisyToolchain/0.2.0/arm/arm-none-eabi/include/c++/10.3.1/bits/stl_algobase.h ****     };
 672:/Library/DaisyToolchain/0.2.0/arm/arm-none-eabi/include/c++/10.3.1/bits/stl_algobase.h **** #endif
 673:/Library/DaisyToolchain/0.2.0/arm/arm-none-eabi/include/c++/10.3.1/bits/stl_algobase.h **** 
 674:/Library/DaisyToolchain/0.2.0/arm/arm-none-eabi/include/c++/10.3.1/bits/stl_algobase.h ****   template<bool _IsMove>
 675:/Library/DaisyToolchain/0.2.0/arm/arm-none-eabi/include/c++/10.3.1/bits/stl_algobase.h ****     struct __copy_move_backward<_IsMove, true, random_access_iterator_tag>
 676:/Library/DaisyToolchain/0.2.0/arm/arm-none-eabi/include/c++/10.3.1/bits/stl_algobase.h ****     {
 677:/Library/DaisyToolchain/0.2.0/arm/arm-none-eabi/include/c++/10.3.1/bits/stl_algobase.h ****       template<typename _Tp>
 678:/Library/DaisyToolchain/0.2.0/arm/arm-none-eabi/include/c++/10.3.1/bits/stl_algobase.h **** 	_GLIBCXX20_CONSTEXPR
 679:/Library/DaisyToolchain/0.2.0/arm/arm-none-eabi/include/c++/10.3.1/bits/stl_algobase.h **** 	static _Tp*
 680:/Library/DaisyToolchain/0.2.0/arm/arm-none-eabi/include/c++/10.3.1/bits/stl_algobase.h **** 	__copy_move_b(const _Tp* __first, const _Tp* __last, _Tp* __result)
 681:/Library/DaisyToolchain/0.2.0/arm/arm-none-eabi/include/c++/10.3.1/bits/stl_algobase.h **** 	{
 682:/Library/DaisyToolchain/0.2.0/arm/arm-none-eabi/include/c++/10.3.1/bits/stl_algobase.h **** #if __cplusplus >= 201103L
 683:/Library/DaisyToolchain/0.2.0/arm/arm-none-eabi/include/c++/10.3.1/bits/stl_algobase.h **** 	  using __assignable = conditional<_IsMove,
 684:/Library/DaisyToolchain/0.2.0/arm/arm-none-eabi/include/c++/10.3.1/bits/stl_algobase.h **** 					   is_move_assignable<_Tp>,
 685:/Library/DaisyToolchain/0.2.0/arm/arm-none-eabi/include/c++/10.3.1/bits/stl_algobase.h **** 					   is_copy_assignable<_Tp>>;
 686:/Library/DaisyToolchain/0.2.0/arm/arm-none-eabi/include/c++/10.3.1/bits/stl_algobase.h **** 	  // trivial types can have deleted assignment
 687:/Library/DaisyToolchain/0.2.0/arm/arm-none-eabi/include/c++/10.3.1/bits/stl_algobase.h **** 	  static_assert( __assignable::type::value, "type is not assignable" );
 688:/Library/DaisyToolchain/0.2.0/arm/arm-none-eabi/include/c++/10.3.1/bits/stl_algobase.h **** #endif
 689:/Library/DaisyToolchain/0.2.0/arm/arm-none-eabi/include/c++/10.3.1/bits/stl_algobase.h **** 	  const ptrdiff_t _Num = __last - __first;
 690:/Library/DaisyToolchain/0.2.0/arm/arm-none-eabi/include/c++/10.3.1/bits/stl_algobase.h **** 	  if (_Num)
 691:/Library/DaisyToolchain/0.2.0/arm/arm-none-eabi/include/c++/10.3.1/bits/stl_algobase.h **** 	    __builtin_memmove(__result - _Num, __first, sizeof(_Tp) * _Num);
 692:/Library/DaisyToolchain/0.2.0/arm/arm-none-eabi/include/c++/10.3.1/bits/stl_algobase.h **** 	  return __result - _Num;
 693:/Library/DaisyToolchain/0.2.0/arm/arm-none-eabi/include/c++/10.3.1/bits/stl_algobase.h **** 	}
 694:/Library/DaisyToolchain/0.2.0/arm/arm-none-eabi/include/c++/10.3.1/bits/stl_algobase.h ****     };
 695:/Library/DaisyToolchain/0.2.0/arm/arm-none-eabi/include/c++/10.3.1/bits/stl_algobase.h **** 
 696:/Library/DaisyToolchain/0.2.0/arm/arm-none-eabi/include/c++/10.3.1/bits/stl_algobase.h ****   template<bool _IsMove, typename _BI1, typename _BI2>
 697:/Library/DaisyToolchain/0.2.0/arm/arm-none-eabi/include/c++/10.3.1/bits/stl_algobase.h ****     _GLIBCXX20_CONSTEXPR
 698:/Library/DaisyToolchain/0.2.0/arm/arm-none-eabi/include/c++/10.3.1/bits/stl_algobase.h ****     inline _BI2
 699:/Library/DaisyToolchain/0.2.0/arm/arm-none-eabi/include/c++/10.3.1/bits/stl_algobase.h ****     __copy_move_backward_a2(_BI1 __first, _BI1 __last, _BI2 __result)
 700:/Library/DaisyToolchain/0.2.0/arm/arm-none-eabi/include/c++/10.3.1/bits/stl_algobase.h ****     {
 701:/Library/DaisyToolchain/0.2.0/arm/arm-none-eabi/include/c++/10.3.1/bits/stl_algobase.h ****       typedef typename iterator_traits<_BI1>::iterator_category _Category;
 702:/Library/DaisyToolchain/0.2.0/arm/arm-none-eabi/include/c++/10.3.1/bits/stl_algobase.h **** #ifdef __cpp_lib_is_constant_evaluated
 703:/Library/DaisyToolchain/0.2.0/arm/arm-none-eabi/include/c++/10.3.1/bits/stl_algobase.h ****       if (std::is_constant_evaluated())
ARM GAS  /var/folders/9s/8rp0_f2s1n31qbztm3b5_fdh0000gn/T//ccF2jpeh.s 			page 44


 704:/Library/DaisyToolchain/0.2.0/arm/arm-none-eabi/include/c++/10.3.1/bits/stl_algobase.h **** 	return std::__copy_move_backward<_IsMove, false, _Category>::
 705:/Library/DaisyToolchain/0.2.0/arm/arm-none-eabi/include/c++/10.3.1/bits/stl_algobase.h **** 	  __copy_move_b(__first, __last, __result);
 706:/Library/DaisyToolchain/0.2.0/arm/arm-none-eabi/include/c++/10.3.1/bits/stl_algobase.h **** #endif
 707:/Library/DaisyToolchain/0.2.0/arm/arm-none-eabi/include/c++/10.3.1/bits/stl_algobase.h ****       return std::__copy_move_backward<_IsMove,
 708:/Library/DaisyToolchain/0.2.0/arm/arm-none-eabi/include/c++/10.3.1/bits/stl_algobase.h **** 				       __memcpyable<_BI2, _BI1>::__value,
 709:/Library/DaisyToolchain/0.2.0/arm/arm-none-eabi/include/c++/10.3.1/bits/stl_algobase.h **** 				       _Category>::__copy_move_b(__first,
 710:/Library/DaisyToolchain/0.2.0/arm/arm-none-eabi/include/c++/10.3.1/bits/stl_algobase.h **** 								 __last,
 711:/Library/DaisyToolchain/0.2.0/arm/arm-none-eabi/include/c++/10.3.1/bits/stl_algobase.h **** 								 __result);
 712:/Library/DaisyToolchain/0.2.0/arm/arm-none-eabi/include/c++/10.3.1/bits/stl_algobase.h ****     }
 713:/Library/DaisyToolchain/0.2.0/arm/arm-none-eabi/include/c++/10.3.1/bits/stl_algobase.h **** 
 714:/Library/DaisyToolchain/0.2.0/arm/arm-none-eabi/include/c++/10.3.1/bits/stl_algobase.h ****   template<bool _IsMove, typename _BI1, typename _BI2>
 715:/Library/DaisyToolchain/0.2.0/arm/arm-none-eabi/include/c++/10.3.1/bits/stl_algobase.h ****     _GLIBCXX20_CONSTEXPR
 716:/Library/DaisyToolchain/0.2.0/arm/arm-none-eabi/include/c++/10.3.1/bits/stl_algobase.h ****     inline _BI2
 717:/Library/DaisyToolchain/0.2.0/arm/arm-none-eabi/include/c++/10.3.1/bits/stl_algobase.h ****     __copy_move_backward_a1(_BI1 __first, _BI1 __last, _BI2 __result)
 718:/Library/DaisyToolchain/0.2.0/arm/arm-none-eabi/include/c++/10.3.1/bits/stl_algobase.h ****     { return std::__copy_move_backward_a2<_IsMove>(__first, __last, __result); }
 719:/Library/DaisyToolchain/0.2.0/arm/arm-none-eabi/include/c++/10.3.1/bits/stl_algobase.h **** 
 720:/Library/DaisyToolchain/0.2.0/arm/arm-none-eabi/include/c++/10.3.1/bits/stl_algobase.h ****   template<bool _IsMove,
 721:/Library/DaisyToolchain/0.2.0/arm/arm-none-eabi/include/c++/10.3.1/bits/stl_algobase.h **** 	   typename _Tp, typename _Ref, typename _Ptr, typename _OI>
 722:/Library/DaisyToolchain/0.2.0/arm/arm-none-eabi/include/c++/10.3.1/bits/stl_algobase.h ****     _OI
 723:/Library/DaisyToolchain/0.2.0/arm/arm-none-eabi/include/c++/10.3.1/bits/stl_algobase.h ****     __copy_move_backward_a1(_GLIBCXX_STD_C::_Deque_iterator<_Tp, _Ref, _Ptr>,
 724:/Library/DaisyToolchain/0.2.0/arm/arm-none-eabi/include/c++/10.3.1/bits/stl_algobase.h **** 			    _GLIBCXX_STD_C::_Deque_iterator<_Tp, _Ref, _Ptr>,
 725:/Library/DaisyToolchain/0.2.0/arm/arm-none-eabi/include/c++/10.3.1/bits/stl_algobase.h **** 			    _OI);
 726:/Library/DaisyToolchain/0.2.0/arm/arm-none-eabi/include/c++/10.3.1/bits/stl_algobase.h **** 
 727:/Library/DaisyToolchain/0.2.0/arm/arm-none-eabi/include/c++/10.3.1/bits/stl_algobase.h ****   template<bool _IsMove,
 728:/Library/DaisyToolchain/0.2.0/arm/arm-none-eabi/include/c++/10.3.1/bits/stl_algobase.h **** 	   typename _ITp, typename _IRef, typename _IPtr, typename _OTp>
 729:/Library/DaisyToolchain/0.2.0/arm/arm-none-eabi/include/c++/10.3.1/bits/stl_algobase.h ****     _GLIBCXX_STD_C::_Deque_iterator<_OTp, _OTp&, _OTp*>
 730:/Library/DaisyToolchain/0.2.0/arm/arm-none-eabi/include/c++/10.3.1/bits/stl_algobase.h ****     __copy_move_backward_a1(
 731:/Library/DaisyToolchain/0.2.0/arm/arm-none-eabi/include/c++/10.3.1/bits/stl_algobase.h **** 			_GLIBCXX_STD_C::_Deque_iterator<_ITp, _IRef, _IPtr>,
 732:/Library/DaisyToolchain/0.2.0/arm/arm-none-eabi/include/c++/10.3.1/bits/stl_algobase.h **** 			_GLIBCXX_STD_C::_Deque_iterator<_ITp, _IRef, _IPtr>,
 733:/Library/DaisyToolchain/0.2.0/arm/arm-none-eabi/include/c++/10.3.1/bits/stl_algobase.h **** 			_GLIBCXX_STD_C::_Deque_iterator<_OTp, _OTp&, _OTp*>);
 734:/Library/DaisyToolchain/0.2.0/arm/arm-none-eabi/include/c++/10.3.1/bits/stl_algobase.h **** 
 735:/Library/DaisyToolchain/0.2.0/arm/arm-none-eabi/include/c++/10.3.1/bits/stl_algobase.h ****   template<bool _IsMove, typename _II, typename _Tp>
 736:/Library/DaisyToolchain/0.2.0/arm/arm-none-eabi/include/c++/10.3.1/bits/stl_algobase.h ****     typename __gnu_cxx::__enable_if<
 737:/Library/DaisyToolchain/0.2.0/arm/arm-none-eabi/include/c++/10.3.1/bits/stl_algobase.h ****       __is_random_access_iter<_II>::__value,
 738:/Library/DaisyToolchain/0.2.0/arm/arm-none-eabi/include/c++/10.3.1/bits/stl_algobase.h ****       _GLIBCXX_STD_C::_Deque_iterator<_Tp, _Tp&, _Tp*> >::__type
 739:/Library/DaisyToolchain/0.2.0/arm/arm-none-eabi/include/c++/10.3.1/bits/stl_algobase.h ****     __copy_move_backward_a1(_II, _II,
 740:/Library/DaisyToolchain/0.2.0/arm/arm-none-eabi/include/c++/10.3.1/bits/stl_algobase.h **** 			    _GLIBCXX_STD_C::_Deque_iterator<_Tp, _Tp&, _Tp*>);
 741:/Library/DaisyToolchain/0.2.0/arm/arm-none-eabi/include/c++/10.3.1/bits/stl_algobase.h **** 
 742:/Library/DaisyToolchain/0.2.0/arm/arm-none-eabi/include/c++/10.3.1/bits/stl_algobase.h ****   template<bool _IsMove, typename _II, typename _OI>
 743:/Library/DaisyToolchain/0.2.0/arm/arm-none-eabi/include/c++/10.3.1/bits/stl_algobase.h ****     _GLIBCXX20_CONSTEXPR
 744:/Library/DaisyToolchain/0.2.0/arm/arm-none-eabi/include/c++/10.3.1/bits/stl_algobase.h ****     inline _OI
 745:/Library/DaisyToolchain/0.2.0/arm/arm-none-eabi/include/c++/10.3.1/bits/stl_algobase.h ****     __copy_move_backward_a(_II __first, _II __last, _OI __result)
 746:/Library/DaisyToolchain/0.2.0/arm/arm-none-eabi/include/c++/10.3.1/bits/stl_algobase.h ****     {
 747:/Library/DaisyToolchain/0.2.0/arm/arm-none-eabi/include/c++/10.3.1/bits/stl_algobase.h ****       return std::__niter_wrap(__result,
 748:/Library/DaisyToolchain/0.2.0/arm/arm-none-eabi/include/c++/10.3.1/bits/stl_algobase.h **** 		std::__copy_move_backward_a1<_IsMove>
 749:/Library/DaisyToolchain/0.2.0/arm/arm-none-eabi/include/c++/10.3.1/bits/stl_algobase.h **** 		  (std::__niter_base(__first), std::__niter_base(__last),
 750:/Library/DaisyToolchain/0.2.0/arm/arm-none-eabi/include/c++/10.3.1/bits/stl_algobase.h **** 		   std::__niter_base(__result)));
 751:/Library/DaisyToolchain/0.2.0/arm/arm-none-eabi/include/c++/10.3.1/bits/stl_algobase.h ****     }
 752:/Library/DaisyToolchain/0.2.0/arm/arm-none-eabi/include/c++/10.3.1/bits/stl_algobase.h **** 
 753:/Library/DaisyToolchain/0.2.0/arm/arm-none-eabi/include/c++/10.3.1/bits/stl_algobase.h ****   template<bool _IsMove,
 754:/Library/DaisyToolchain/0.2.0/arm/arm-none-eabi/include/c++/10.3.1/bits/stl_algobase.h **** 	   typename _Ite, typename _Seq, typename _Cat, typename _OI>
 755:/Library/DaisyToolchain/0.2.0/arm/arm-none-eabi/include/c++/10.3.1/bits/stl_algobase.h ****     _OI
 756:/Library/DaisyToolchain/0.2.0/arm/arm-none-eabi/include/c++/10.3.1/bits/stl_algobase.h ****     __copy_move_backward_a(
 757:/Library/DaisyToolchain/0.2.0/arm/arm-none-eabi/include/c++/10.3.1/bits/stl_algobase.h **** 		const ::__gnu_debug::_Safe_iterator<_Ite, _Seq, _Cat>&,
 758:/Library/DaisyToolchain/0.2.0/arm/arm-none-eabi/include/c++/10.3.1/bits/stl_algobase.h **** 		const ::__gnu_debug::_Safe_iterator<_Ite, _Seq, _Cat>&,
 759:/Library/DaisyToolchain/0.2.0/arm/arm-none-eabi/include/c++/10.3.1/bits/stl_algobase.h **** 		_OI);
 760:/Library/DaisyToolchain/0.2.0/arm/arm-none-eabi/include/c++/10.3.1/bits/stl_algobase.h **** 
ARM GAS  /var/folders/9s/8rp0_f2s1n31qbztm3b5_fdh0000gn/T//ccF2jpeh.s 			page 45


 761:/Library/DaisyToolchain/0.2.0/arm/arm-none-eabi/include/c++/10.3.1/bits/stl_algobase.h ****   template<bool _IsMove,
 762:/Library/DaisyToolchain/0.2.0/arm/arm-none-eabi/include/c++/10.3.1/bits/stl_algobase.h **** 	   typename _II, typename _Ite, typename _Seq, typename _Cat>
 763:/Library/DaisyToolchain/0.2.0/arm/arm-none-eabi/include/c++/10.3.1/bits/stl_algobase.h ****     __gnu_debug::_Safe_iterator<_Ite, _Seq, _Cat>
 764:/Library/DaisyToolchain/0.2.0/arm/arm-none-eabi/include/c++/10.3.1/bits/stl_algobase.h ****     __copy_move_backward_a(_II, _II,
 765:/Library/DaisyToolchain/0.2.0/arm/arm-none-eabi/include/c++/10.3.1/bits/stl_algobase.h **** 		const ::__gnu_debug::_Safe_iterator<_Ite, _Seq, _Cat>&);
 766:/Library/DaisyToolchain/0.2.0/arm/arm-none-eabi/include/c++/10.3.1/bits/stl_algobase.h **** 
 767:/Library/DaisyToolchain/0.2.0/arm/arm-none-eabi/include/c++/10.3.1/bits/stl_algobase.h ****   template<bool _IsMove,
 768:/Library/DaisyToolchain/0.2.0/arm/arm-none-eabi/include/c++/10.3.1/bits/stl_algobase.h **** 	   typename _IIte, typename _ISeq, typename _ICat,
 769:/Library/DaisyToolchain/0.2.0/arm/arm-none-eabi/include/c++/10.3.1/bits/stl_algobase.h **** 	   typename _OIte, typename _OSeq, typename _OCat>
 770:/Library/DaisyToolchain/0.2.0/arm/arm-none-eabi/include/c++/10.3.1/bits/stl_algobase.h ****     ::__gnu_debug::_Safe_iterator<_OIte, _OSeq, _OCat>
 771:/Library/DaisyToolchain/0.2.0/arm/arm-none-eabi/include/c++/10.3.1/bits/stl_algobase.h ****     __copy_move_backward_a(
 772:/Library/DaisyToolchain/0.2.0/arm/arm-none-eabi/include/c++/10.3.1/bits/stl_algobase.h **** 		const ::__gnu_debug::_Safe_iterator<_IIte, _ISeq, _ICat>&,
 773:/Library/DaisyToolchain/0.2.0/arm/arm-none-eabi/include/c++/10.3.1/bits/stl_algobase.h **** 		const ::__gnu_debug::_Safe_iterator<_IIte, _ISeq, _ICat>&,
 774:/Library/DaisyToolchain/0.2.0/arm/arm-none-eabi/include/c++/10.3.1/bits/stl_algobase.h **** 		const ::__gnu_debug::_Safe_iterator<_OIte, _OSeq, _OCat>&);
 775:/Library/DaisyToolchain/0.2.0/arm/arm-none-eabi/include/c++/10.3.1/bits/stl_algobase.h **** 
 776:/Library/DaisyToolchain/0.2.0/arm/arm-none-eabi/include/c++/10.3.1/bits/stl_algobase.h ****   /**
 777:/Library/DaisyToolchain/0.2.0/arm/arm-none-eabi/include/c++/10.3.1/bits/stl_algobase.h ****    *  @brief Copies the range [first,last) into result.
 778:/Library/DaisyToolchain/0.2.0/arm/arm-none-eabi/include/c++/10.3.1/bits/stl_algobase.h ****    *  @ingroup mutating_algorithms
 779:/Library/DaisyToolchain/0.2.0/arm/arm-none-eabi/include/c++/10.3.1/bits/stl_algobase.h ****    *  @param  __first  A bidirectional iterator.
 780:/Library/DaisyToolchain/0.2.0/arm/arm-none-eabi/include/c++/10.3.1/bits/stl_algobase.h ****    *  @param  __last   A bidirectional iterator.
 781:/Library/DaisyToolchain/0.2.0/arm/arm-none-eabi/include/c++/10.3.1/bits/stl_algobase.h ****    *  @param  __result A bidirectional iterator.
 782:/Library/DaisyToolchain/0.2.0/arm/arm-none-eabi/include/c++/10.3.1/bits/stl_algobase.h ****    *  @return   result - (last - first)
 783:/Library/DaisyToolchain/0.2.0/arm/arm-none-eabi/include/c++/10.3.1/bits/stl_algobase.h ****    *
 784:/Library/DaisyToolchain/0.2.0/arm/arm-none-eabi/include/c++/10.3.1/bits/stl_algobase.h ****    *  The function has the same effect as copy, but starts at the end of the
 785:/Library/DaisyToolchain/0.2.0/arm/arm-none-eabi/include/c++/10.3.1/bits/stl_algobase.h ****    *  range and works its way to the start, returning the start of the result.
 786:/Library/DaisyToolchain/0.2.0/arm/arm-none-eabi/include/c++/10.3.1/bits/stl_algobase.h ****    *  This inline function will boil down to a call to @c memmove whenever
 787:/Library/DaisyToolchain/0.2.0/arm/arm-none-eabi/include/c++/10.3.1/bits/stl_algobase.h ****    *  possible.  Failing that, if random access iterators are passed, then the
 788:/Library/DaisyToolchain/0.2.0/arm/arm-none-eabi/include/c++/10.3.1/bits/stl_algobase.h ****    *  loop count will be known (and therefore a candidate for compiler
 789:/Library/DaisyToolchain/0.2.0/arm/arm-none-eabi/include/c++/10.3.1/bits/stl_algobase.h ****    *  optimizations such as unrolling).
 790:/Library/DaisyToolchain/0.2.0/arm/arm-none-eabi/include/c++/10.3.1/bits/stl_algobase.h ****    *
 791:/Library/DaisyToolchain/0.2.0/arm/arm-none-eabi/include/c++/10.3.1/bits/stl_algobase.h ****    *  Result may not be in the range (first,last].  Use copy instead.  Note
 792:/Library/DaisyToolchain/0.2.0/arm/arm-none-eabi/include/c++/10.3.1/bits/stl_algobase.h ****    *  that the start of the output range may overlap [first,last).
 793:/Library/DaisyToolchain/0.2.0/arm/arm-none-eabi/include/c++/10.3.1/bits/stl_algobase.h ****   */
 794:/Library/DaisyToolchain/0.2.0/arm/arm-none-eabi/include/c++/10.3.1/bits/stl_algobase.h ****   template<typename _BI1, typename _BI2>
 795:/Library/DaisyToolchain/0.2.0/arm/arm-none-eabi/include/c++/10.3.1/bits/stl_algobase.h ****     _GLIBCXX20_CONSTEXPR
 796:/Library/DaisyToolchain/0.2.0/arm/arm-none-eabi/include/c++/10.3.1/bits/stl_algobase.h ****     inline _BI2
 797:/Library/DaisyToolchain/0.2.0/arm/arm-none-eabi/include/c++/10.3.1/bits/stl_algobase.h ****     copy_backward(_BI1 __first, _BI1 __last, _BI2 __result)
 798:/Library/DaisyToolchain/0.2.0/arm/arm-none-eabi/include/c++/10.3.1/bits/stl_algobase.h ****     {
 799:/Library/DaisyToolchain/0.2.0/arm/arm-none-eabi/include/c++/10.3.1/bits/stl_algobase.h ****       // concept requirements
 800:/Library/DaisyToolchain/0.2.0/arm/arm-none-eabi/include/c++/10.3.1/bits/stl_algobase.h ****       __glibcxx_function_requires(_BidirectionalIteratorConcept<_BI1>)
 801:/Library/DaisyToolchain/0.2.0/arm/arm-none-eabi/include/c++/10.3.1/bits/stl_algobase.h ****       __glibcxx_function_requires(_Mutable_BidirectionalIteratorConcept<_BI2>)
 802:/Library/DaisyToolchain/0.2.0/arm/arm-none-eabi/include/c++/10.3.1/bits/stl_algobase.h ****       __glibcxx_function_requires(_ConvertibleConcept<
 803:/Library/DaisyToolchain/0.2.0/arm/arm-none-eabi/include/c++/10.3.1/bits/stl_algobase.h **** 	    typename iterator_traits<_BI1>::value_type,
 804:/Library/DaisyToolchain/0.2.0/arm/arm-none-eabi/include/c++/10.3.1/bits/stl_algobase.h **** 	    typename iterator_traits<_BI2>::value_type>)
 805:/Library/DaisyToolchain/0.2.0/arm/arm-none-eabi/include/c++/10.3.1/bits/stl_algobase.h ****       __glibcxx_requires_can_decrement_range(__first, __last, __result);
 806:/Library/DaisyToolchain/0.2.0/arm/arm-none-eabi/include/c++/10.3.1/bits/stl_algobase.h **** 
 807:/Library/DaisyToolchain/0.2.0/arm/arm-none-eabi/include/c++/10.3.1/bits/stl_algobase.h ****       return std::__copy_move_backward_a<__is_move_iterator<_BI1>::__value>
 808:/Library/DaisyToolchain/0.2.0/arm/arm-none-eabi/include/c++/10.3.1/bits/stl_algobase.h **** 	     (std::__miter_base(__first), std::__miter_base(__last), __result);
 809:/Library/DaisyToolchain/0.2.0/arm/arm-none-eabi/include/c++/10.3.1/bits/stl_algobase.h ****     }
 810:/Library/DaisyToolchain/0.2.0/arm/arm-none-eabi/include/c++/10.3.1/bits/stl_algobase.h **** 
 811:/Library/DaisyToolchain/0.2.0/arm/arm-none-eabi/include/c++/10.3.1/bits/stl_algobase.h **** #if __cplusplus >= 201103L
 812:/Library/DaisyToolchain/0.2.0/arm/arm-none-eabi/include/c++/10.3.1/bits/stl_algobase.h ****   /**
 813:/Library/DaisyToolchain/0.2.0/arm/arm-none-eabi/include/c++/10.3.1/bits/stl_algobase.h ****    *  @brief Moves the range [first,last) into result.
 814:/Library/DaisyToolchain/0.2.0/arm/arm-none-eabi/include/c++/10.3.1/bits/stl_algobase.h ****    *  @ingroup mutating_algorithms
 815:/Library/DaisyToolchain/0.2.0/arm/arm-none-eabi/include/c++/10.3.1/bits/stl_algobase.h ****    *  @param  __first  A bidirectional iterator.
 816:/Library/DaisyToolchain/0.2.0/arm/arm-none-eabi/include/c++/10.3.1/bits/stl_algobase.h ****    *  @param  __last   A bidirectional iterator.
 817:/Library/DaisyToolchain/0.2.0/arm/arm-none-eabi/include/c++/10.3.1/bits/stl_algobase.h ****    *  @param  __result A bidirectional iterator.
ARM GAS  /var/folders/9s/8rp0_f2s1n31qbztm3b5_fdh0000gn/T//ccF2jpeh.s 			page 46


 818:/Library/DaisyToolchain/0.2.0/arm/arm-none-eabi/include/c++/10.3.1/bits/stl_algobase.h ****    *  @return   result - (last - first)
 819:/Library/DaisyToolchain/0.2.0/arm/arm-none-eabi/include/c++/10.3.1/bits/stl_algobase.h ****    *
 820:/Library/DaisyToolchain/0.2.0/arm/arm-none-eabi/include/c++/10.3.1/bits/stl_algobase.h ****    *  The function has the same effect as move, but starts at the end of the
 821:/Library/DaisyToolchain/0.2.0/arm/arm-none-eabi/include/c++/10.3.1/bits/stl_algobase.h ****    *  range and works its way to the start, returning the start of the result.
 822:/Library/DaisyToolchain/0.2.0/arm/arm-none-eabi/include/c++/10.3.1/bits/stl_algobase.h ****    *  This inline function will boil down to a call to @c memmove whenever
 823:/Library/DaisyToolchain/0.2.0/arm/arm-none-eabi/include/c++/10.3.1/bits/stl_algobase.h ****    *  possible.  Failing that, if random access iterators are passed, then the
 824:/Library/DaisyToolchain/0.2.0/arm/arm-none-eabi/include/c++/10.3.1/bits/stl_algobase.h ****    *  loop count will be known (and therefore a candidate for compiler
 825:/Library/DaisyToolchain/0.2.0/arm/arm-none-eabi/include/c++/10.3.1/bits/stl_algobase.h ****    *  optimizations such as unrolling).
 826:/Library/DaisyToolchain/0.2.0/arm/arm-none-eabi/include/c++/10.3.1/bits/stl_algobase.h ****    *
 827:/Library/DaisyToolchain/0.2.0/arm/arm-none-eabi/include/c++/10.3.1/bits/stl_algobase.h ****    *  Result may not be in the range (first,last].  Use move instead.  Note
 828:/Library/DaisyToolchain/0.2.0/arm/arm-none-eabi/include/c++/10.3.1/bits/stl_algobase.h ****    *  that the start of the output range may overlap [first,last).
 829:/Library/DaisyToolchain/0.2.0/arm/arm-none-eabi/include/c++/10.3.1/bits/stl_algobase.h ****   */
 830:/Library/DaisyToolchain/0.2.0/arm/arm-none-eabi/include/c++/10.3.1/bits/stl_algobase.h ****   template<typename _BI1, typename _BI2>
 831:/Library/DaisyToolchain/0.2.0/arm/arm-none-eabi/include/c++/10.3.1/bits/stl_algobase.h ****     _GLIBCXX20_CONSTEXPR
 832:/Library/DaisyToolchain/0.2.0/arm/arm-none-eabi/include/c++/10.3.1/bits/stl_algobase.h ****     inline _BI2
 833:/Library/DaisyToolchain/0.2.0/arm/arm-none-eabi/include/c++/10.3.1/bits/stl_algobase.h ****     move_backward(_BI1 __first, _BI1 __last, _BI2 __result)
 834:/Library/DaisyToolchain/0.2.0/arm/arm-none-eabi/include/c++/10.3.1/bits/stl_algobase.h ****     {
 835:/Library/DaisyToolchain/0.2.0/arm/arm-none-eabi/include/c++/10.3.1/bits/stl_algobase.h ****       // concept requirements
 836:/Library/DaisyToolchain/0.2.0/arm/arm-none-eabi/include/c++/10.3.1/bits/stl_algobase.h ****       __glibcxx_function_requires(_BidirectionalIteratorConcept<_BI1>)
 837:/Library/DaisyToolchain/0.2.0/arm/arm-none-eabi/include/c++/10.3.1/bits/stl_algobase.h ****       __glibcxx_function_requires(_Mutable_BidirectionalIteratorConcept<_BI2>)
 838:/Library/DaisyToolchain/0.2.0/arm/arm-none-eabi/include/c++/10.3.1/bits/stl_algobase.h ****       __glibcxx_function_requires(_ConvertibleConcept<
 839:/Library/DaisyToolchain/0.2.0/arm/arm-none-eabi/include/c++/10.3.1/bits/stl_algobase.h **** 	    typename iterator_traits<_BI1>::value_type,
 840:/Library/DaisyToolchain/0.2.0/arm/arm-none-eabi/include/c++/10.3.1/bits/stl_algobase.h **** 	    typename iterator_traits<_BI2>::value_type>)
 841:/Library/DaisyToolchain/0.2.0/arm/arm-none-eabi/include/c++/10.3.1/bits/stl_algobase.h ****       __glibcxx_requires_can_decrement_range(__first, __last, __result);
 842:/Library/DaisyToolchain/0.2.0/arm/arm-none-eabi/include/c++/10.3.1/bits/stl_algobase.h **** 
 843:/Library/DaisyToolchain/0.2.0/arm/arm-none-eabi/include/c++/10.3.1/bits/stl_algobase.h ****       return std::__copy_move_backward_a<true>(std::__miter_base(__first),
 844:/Library/DaisyToolchain/0.2.0/arm/arm-none-eabi/include/c++/10.3.1/bits/stl_algobase.h **** 					       std::__miter_base(__last),
 845:/Library/DaisyToolchain/0.2.0/arm/arm-none-eabi/include/c++/10.3.1/bits/stl_algobase.h **** 					       __result);
 846:/Library/DaisyToolchain/0.2.0/arm/arm-none-eabi/include/c++/10.3.1/bits/stl_algobase.h ****     }
 847:/Library/DaisyToolchain/0.2.0/arm/arm-none-eabi/include/c++/10.3.1/bits/stl_algobase.h **** 
 848:/Library/DaisyToolchain/0.2.0/arm/arm-none-eabi/include/c++/10.3.1/bits/stl_algobase.h **** #define _GLIBCXX_MOVE_BACKWARD3(_Tp, _Up, _Vp) std::move_backward(_Tp, _Up, _Vp)
 849:/Library/DaisyToolchain/0.2.0/arm/arm-none-eabi/include/c++/10.3.1/bits/stl_algobase.h **** #else
 850:/Library/DaisyToolchain/0.2.0/arm/arm-none-eabi/include/c++/10.3.1/bits/stl_algobase.h **** #define _GLIBCXX_MOVE_BACKWARD3(_Tp, _Up, _Vp) std::copy_backward(_Tp, _Up, _Vp)
 851:/Library/DaisyToolchain/0.2.0/arm/arm-none-eabi/include/c++/10.3.1/bits/stl_algobase.h **** #endif
 852:/Library/DaisyToolchain/0.2.0/arm/arm-none-eabi/include/c++/10.3.1/bits/stl_algobase.h **** 
 853:/Library/DaisyToolchain/0.2.0/arm/arm-none-eabi/include/c++/10.3.1/bits/stl_algobase.h ****   template<typename _ForwardIterator, typename _Tp>
 854:/Library/DaisyToolchain/0.2.0/arm/arm-none-eabi/include/c++/10.3.1/bits/stl_algobase.h ****     _GLIBCXX20_CONSTEXPR
 855:/Library/DaisyToolchain/0.2.0/arm/arm-none-eabi/include/c++/10.3.1/bits/stl_algobase.h ****     inline typename
 856:/Library/DaisyToolchain/0.2.0/arm/arm-none-eabi/include/c++/10.3.1/bits/stl_algobase.h ****     __gnu_cxx::__enable_if<!__is_scalar<_Tp>::__value, void>::__type
 857:/Library/DaisyToolchain/0.2.0/arm/arm-none-eabi/include/c++/10.3.1/bits/stl_algobase.h ****     __fill_a1(_ForwardIterator __first, _ForwardIterator __last,
 858:/Library/DaisyToolchain/0.2.0/arm/arm-none-eabi/include/c++/10.3.1/bits/stl_algobase.h **** 	      const _Tp& __value)
 859:/Library/DaisyToolchain/0.2.0/arm/arm-none-eabi/include/c++/10.3.1/bits/stl_algobase.h ****     {
 860:/Library/DaisyToolchain/0.2.0/arm/arm-none-eabi/include/c++/10.3.1/bits/stl_algobase.h ****       for (; __first != __last; ++__first)
 861:/Library/DaisyToolchain/0.2.0/arm/arm-none-eabi/include/c++/10.3.1/bits/stl_algobase.h **** 	*__first = __value;
 862:/Library/DaisyToolchain/0.2.0/arm/arm-none-eabi/include/c++/10.3.1/bits/stl_algobase.h ****     }
 863:/Library/DaisyToolchain/0.2.0/arm/arm-none-eabi/include/c++/10.3.1/bits/stl_algobase.h **** 
 864:/Library/DaisyToolchain/0.2.0/arm/arm-none-eabi/include/c++/10.3.1/bits/stl_algobase.h ****   template<typename _ForwardIterator, typename _Tp>
 865:/Library/DaisyToolchain/0.2.0/arm/arm-none-eabi/include/c++/10.3.1/bits/stl_algobase.h ****     _GLIBCXX20_CONSTEXPR
 866:/Library/DaisyToolchain/0.2.0/arm/arm-none-eabi/include/c++/10.3.1/bits/stl_algobase.h ****     inline typename
 867:/Library/DaisyToolchain/0.2.0/arm/arm-none-eabi/include/c++/10.3.1/bits/stl_algobase.h ****     __gnu_cxx::__enable_if<__is_scalar<_Tp>::__value, void>::__type
 868:/Library/DaisyToolchain/0.2.0/arm/arm-none-eabi/include/c++/10.3.1/bits/stl_algobase.h ****     __fill_a1(_ForwardIterator __first, _ForwardIterator __last,
 869:/Library/DaisyToolchain/0.2.0/arm/arm-none-eabi/include/c++/10.3.1/bits/stl_algobase.h **** 	      const _Tp& __value)
 870:/Library/DaisyToolchain/0.2.0/arm/arm-none-eabi/include/c++/10.3.1/bits/stl_algobase.h ****     {
 871:/Library/DaisyToolchain/0.2.0/arm/arm-none-eabi/include/c++/10.3.1/bits/stl_algobase.h ****       const _Tp __tmp = __value;
 872:/Library/DaisyToolchain/0.2.0/arm/arm-none-eabi/include/c++/10.3.1/bits/stl_algobase.h ****       for (; __first != __last; ++__first)
 873:/Library/DaisyToolchain/0.2.0/arm/arm-none-eabi/include/c++/10.3.1/bits/stl_algobase.h **** 	*__first = __tmp;
 907              		.loc 9 873 11 view .LVU246
ARM GAS  /var/folders/9s/8rp0_f2s1n31qbztm3b5_fdh0000gn/T//ccF2jpeh.s 			page 47


 908 0072 0021     		movs	r1, #0
 909 0074 08F0020A 		and	r10, r8, #2
 910 0078 4846     		mov	r0, r9
 911 007a 05F14004 		add	r4, r5, #64
 912              	.LVL59:
 913              		.loc 9 873 11 view .LVU247
 914              	.LBE273:
 915              	.LBE272:
 916              	.LBE271:
 917              	.LBE270:
  64:eurorack/plaits/dsp/engine/swarm_engine.cc ****   const bool start_burst = parameters.trigger & TRIGGER_RISING_EDGE;
 918              		.loc 1 64 14 view .LVU248
 919 007e 08F00108 		and	r8, r8, #1
 920 0082 05F51075 		add	r5, r5, #576
 921              	.LVL60:
  61:eurorack/plaits/dsp/engine/swarm_engine.cc ****   
 922              		.loc 1 61 40 view .LVU249
 923 0086 60EE0B8A 		vmul.f32	s17, s0, s22
 924              	.LVL61:
  63:eurorack/plaits/dsp/engine/swarm_engine.cc ****   const bool start_burst = parameters.trigger & TRIGGER_RISING_EDGE;
 925              		.loc 1 63 3 is_stmt 1 view .LVU250
  64:eurorack/plaits/dsp/engine/swarm_engine.cc **** 
 926              		.loc 1 64 3 view .LVU251
 927              		.loc 1 66 3 view .LVU252
 928              	.LBB277:
 929              	.LBI270:
 874:/Library/DaisyToolchain/0.2.0/arm/arm-none-eabi/include/c++/10.3.1/bits/stl_algobase.h ****     }
 875:/Library/DaisyToolchain/0.2.0/arm/arm-none-eabi/include/c++/10.3.1/bits/stl_algobase.h **** 
 876:/Library/DaisyToolchain/0.2.0/arm/arm-none-eabi/include/c++/10.3.1/bits/stl_algobase.h ****   // Specialization: for char types we can use memset.
 877:/Library/DaisyToolchain/0.2.0/arm/arm-none-eabi/include/c++/10.3.1/bits/stl_algobase.h ****   template<typename _Tp>
 878:/Library/DaisyToolchain/0.2.0/arm/arm-none-eabi/include/c++/10.3.1/bits/stl_algobase.h ****     _GLIBCXX20_CONSTEXPR
 879:/Library/DaisyToolchain/0.2.0/arm/arm-none-eabi/include/c++/10.3.1/bits/stl_algobase.h ****     inline typename
 880:/Library/DaisyToolchain/0.2.0/arm/arm-none-eabi/include/c++/10.3.1/bits/stl_algobase.h ****     __gnu_cxx::__enable_if<__is_byte<_Tp>::__value, void>::__type
 881:/Library/DaisyToolchain/0.2.0/arm/arm-none-eabi/include/c++/10.3.1/bits/stl_algobase.h ****     __fill_a1(_Tp* __first, _Tp* __last, const _Tp& __c)
 882:/Library/DaisyToolchain/0.2.0/arm/arm-none-eabi/include/c++/10.3.1/bits/stl_algobase.h ****     {
 883:/Library/DaisyToolchain/0.2.0/arm/arm-none-eabi/include/c++/10.3.1/bits/stl_algobase.h ****       const _Tp __tmp = __c;
 884:/Library/DaisyToolchain/0.2.0/arm/arm-none-eabi/include/c++/10.3.1/bits/stl_algobase.h **** #if __cpp_lib_is_constant_evaluated
 885:/Library/DaisyToolchain/0.2.0/arm/arm-none-eabi/include/c++/10.3.1/bits/stl_algobase.h ****       if (std::is_constant_evaluated())
 886:/Library/DaisyToolchain/0.2.0/arm/arm-none-eabi/include/c++/10.3.1/bits/stl_algobase.h **** 	{
 887:/Library/DaisyToolchain/0.2.0/arm/arm-none-eabi/include/c++/10.3.1/bits/stl_algobase.h **** 	  for (; __first != __last; ++__first)
 888:/Library/DaisyToolchain/0.2.0/arm/arm-none-eabi/include/c++/10.3.1/bits/stl_algobase.h **** 	    *__first = __tmp;
 889:/Library/DaisyToolchain/0.2.0/arm/arm-none-eabi/include/c++/10.3.1/bits/stl_algobase.h **** 	  return;
 890:/Library/DaisyToolchain/0.2.0/arm/arm-none-eabi/include/c++/10.3.1/bits/stl_algobase.h **** 	}
 891:/Library/DaisyToolchain/0.2.0/arm/arm-none-eabi/include/c++/10.3.1/bits/stl_algobase.h **** #endif
 892:/Library/DaisyToolchain/0.2.0/arm/arm-none-eabi/include/c++/10.3.1/bits/stl_algobase.h ****       if (const size_t __len = __last - __first)
 893:/Library/DaisyToolchain/0.2.0/arm/arm-none-eabi/include/c++/10.3.1/bits/stl_algobase.h **** 	__builtin_memset(__first, static_cast<unsigned char>(__tmp), __len);
 894:/Library/DaisyToolchain/0.2.0/arm/arm-none-eabi/include/c++/10.3.1/bits/stl_algobase.h ****     }
 895:/Library/DaisyToolchain/0.2.0/arm/arm-none-eabi/include/c++/10.3.1/bits/stl_algobase.h **** 
 896:/Library/DaisyToolchain/0.2.0/arm/arm-none-eabi/include/c++/10.3.1/bits/stl_algobase.h ****   template<typename _Ite, typename _Cont, typename _Tp>
 897:/Library/DaisyToolchain/0.2.0/arm/arm-none-eabi/include/c++/10.3.1/bits/stl_algobase.h ****     _GLIBCXX20_CONSTEXPR
 898:/Library/DaisyToolchain/0.2.0/arm/arm-none-eabi/include/c++/10.3.1/bits/stl_algobase.h ****     inline void
 899:/Library/DaisyToolchain/0.2.0/arm/arm-none-eabi/include/c++/10.3.1/bits/stl_algobase.h ****     __fill_a1(::__gnu_cxx::__normal_iterator<_Ite, _Cont> __first,
 900:/Library/DaisyToolchain/0.2.0/arm/arm-none-eabi/include/c++/10.3.1/bits/stl_algobase.h **** 	      ::__gnu_cxx::__normal_iterator<_Ite, _Cont> __last,
 901:/Library/DaisyToolchain/0.2.0/arm/arm-none-eabi/include/c++/10.3.1/bits/stl_algobase.h **** 	      const _Tp& __value)
 902:/Library/DaisyToolchain/0.2.0/arm/arm-none-eabi/include/c++/10.3.1/bits/stl_algobase.h ****     { std::__fill_a1(__first.base(), __last.base(), __value); }
 903:/Library/DaisyToolchain/0.2.0/arm/arm-none-eabi/include/c++/10.3.1/bits/stl_algobase.h **** 
 904:/Library/DaisyToolchain/0.2.0/arm/arm-none-eabi/include/c++/10.3.1/bits/stl_algobase.h ****   template<typename _Tp, typename _VTp>
ARM GAS  /var/folders/9s/8rp0_f2s1n31qbztm3b5_fdh0000gn/T//ccF2jpeh.s 			page 48


 905:/Library/DaisyToolchain/0.2.0/arm/arm-none-eabi/include/c++/10.3.1/bits/stl_algobase.h ****     void
 906:/Library/DaisyToolchain/0.2.0/arm/arm-none-eabi/include/c++/10.3.1/bits/stl_algobase.h ****     __fill_a1(const _GLIBCXX_STD_C::_Deque_iterator<_Tp, _Tp&, _Tp*>&,
 907:/Library/DaisyToolchain/0.2.0/arm/arm-none-eabi/include/c++/10.3.1/bits/stl_algobase.h **** 	      const _GLIBCXX_STD_C::_Deque_iterator<_Tp, _Tp&, _Tp*>&,
 908:/Library/DaisyToolchain/0.2.0/arm/arm-none-eabi/include/c++/10.3.1/bits/stl_algobase.h **** 	      const _VTp&);
 909:/Library/DaisyToolchain/0.2.0/arm/arm-none-eabi/include/c++/10.3.1/bits/stl_algobase.h **** 
 910:/Library/DaisyToolchain/0.2.0/arm/arm-none-eabi/include/c++/10.3.1/bits/stl_algobase.h ****   template<typename _FIte, typename _Tp>
 911:/Library/DaisyToolchain/0.2.0/arm/arm-none-eabi/include/c++/10.3.1/bits/stl_algobase.h ****     _GLIBCXX20_CONSTEXPR
 912:/Library/DaisyToolchain/0.2.0/arm/arm-none-eabi/include/c++/10.3.1/bits/stl_algobase.h ****     inline void
 913:/Library/DaisyToolchain/0.2.0/arm/arm-none-eabi/include/c++/10.3.1/bits/stl_algobase.h ****     __fill_a(_FIte __first, _FIte __last, const _Tp& __value)
 914:/Library/DaisyToolchain/0.2.0/arm/arm-none-eabi/include/c++/10.3.1/bits/stl_algobase.h ****     { std::__fill_a1(__first, __last, __value); }
 915:/Library/DaisyToolchain/0.2.0/arm/arm-none-eabi/include/c++/10.3.1/bits/stl_algobase.h **** 
 916:/Library/DaisyToolchain/0.2.0/arm/arm-none-eabi/include/c++/10.3.1/bits/stl_algobase.h ****   template<typename _Ite, typename _Seq, typename _Cat, typename _Tp>
 917:/Library/DaisyToolchain/0.2.0/arm/arm-none-eabi/include/c++/10.3.1/bits/stl_algobase.h ****     void
 918:/Library/DaisyToolchain/0.2.0/arm/arm-none-eabi/include/c++/10.3.1/bits/stl_algobase.h ****     __fill_a(const ::__gnu_debug::_Safe_iterator<_Ite, _Seq, _Cat>&,
 919:/Library/DaisyToolchain/0.2.0/arm/arm-none-eabi/include/c++/10.3.1/bits/stl_algobase.h **** 	     const ::__gnu_debug::_Safe_iterator<_Ite, _Seq, _Cat>&,
 920:/Library/DaisyToolchain/0.2.0/arm/arm-none-eabi/include/c++/10.3.1/bits/stl_algobase.h **** 	     const _Tp&);
 921:/Library/DaisyToolchain/0.2.0/arm/arm-none-eabi/include/c++/10.3.1/bits/stl_algobase.h **** 
 922:/Library/DaisyToolchain/0.2.0/arm/arm-none-eabi/include/c++/10.3.1/bits/stl_algobase.h ****   /**
 923:/Library/DaisyToolchain/0.2.0/arm/arm-none-eabi/include/c++/10.3.1/bits/stl_algobase.h ****    *  @brief Fills the range [first,last) with copies of value.
 924:/Library/DaisyToolchain/0.2.0/arm/arm-none-eabi/include/c++/10.3.1/bits/stl_algobase.h ****    *  @ingroup mutating_algorithms
 925:/Library/DaisyToolchain/0.2.0/arm/arm-none-eabi/include/c++/10.3.1/bits/stl_algobase.h ****    *  @param  __first  A forward iterator.
 926:/Library/DaisyToolchain/0.2.0/arm/arm-none-eabi/include/c++/10.3.1/bits/stl_algobase.h ****    *  @param  __last   A forward iterator.
 927:/Library/DaisyToolchain/0.2.0/arm/arm-none-eabi/include/c++/10.3.1/bits/stl_algobase.h ****    *  @param  __value  A reference-to-const of arbitrary type.
 928:/Library/DaisyToolchain/0.2.0/arm/arm-none-eabi/include/c++/10.3.1/bits/stl_algobase.h ****    *  @return   Nothing.
 929:/Library/DaisyToolchain/0.2.0/arm/arm-none-eabi/include/c++/10.3.1/bits/stl_algobase.h ****    *
 930:/Library/DaisyToolchain/0.2.0/arm/arm-none-eabi/include/c++/10.3.1/bits/stl_algobase.h ****    *  This function fills a range with copies of the same value.  For char
 931:/Library/DaisyToolchain/0.2.0/arm/arm-none-eabi/include/c++/10.3.1/bits/stl_algobase.h ****    *  types filling contiguous areas of memory, this becomes an inline call
 932:/Library/DaisyToolchain/0.2.0/arm/arm-none-eabi/include/c++/10.3.1/bits/stl_algobase.h ****    *  to @c memset or @c wmemset.
 933:/Library/DaisyToolchain/0.2.0/arm/arm-none-eabi/include/c++/10.3.1/bits/stl_algobase.h ****   */
 934:/Library/DaisyToolchain/0.2.0/arm/arm-none-eabi/include/c++/10.3.1/bits/stl_algobase.h ****   template<typename _ForwardIterator, typename _Tp>
 935:/Library/DaisyToolchain/0.2.0/arm/arm-none-eabi/include/c++/10.3.1/bits/stl_algobase.h ****     _GLIBCXX20_CONSTEXPR
 936:/Library/DaisyToolchain/0.2.0/arm/arm-none-eabi/include/c++/10.3.1/bits/stl_algobase.h ****     inline void
 937:/Library/DaisyToolchain/0.2.0/arm/arm-none-eabi/include/c++/10.3.1/bits/stl_algobase.h ****     fill(_ForwardIterator __first, _ForwardIterator __last, const _Tp& __value)
 930              		.loc 9 937 5 view .LVU253
 931              	.LBB276:
 932              	.LBI271:
 913:/Library/DaisyToolchain/0.2.0/arm/arm-none-eabi/include/c++/10.3.1/bits/stl_algobase.h ****     { std::__fill_a1(__first, __last, __value); }
 933              		.loc 9 913 5 view .LVU254
 934              	.LBB275:
 935              	.LBI272:
 868:/Library/DaisyToolchain/0.2.0/arm/arm-none-eabi/include/c++/10.3.1/bits/stl_algobase.h **** 	      const _Tp& __value)
 936              		.loc 9 868 5 view .LVU255
 937              	.LBB274:
 873:/Library/DaisyToolchain/0.2.0/arm/arm-none-eabi/include/c++/10.3.1/bits/stl_algobase.h ****     }
 938              		.loc 9 873 11 is_stmt 0 view .LVU256
 939 008a 0192     		str	r2, [sp, #4]
 940 008c FFF7FEFF 		bl	memset
 941              	.LVL62:
 873:/Library/DaisyToolchain/0.2.0/arm/arm-none-eabi/include/c++/10.3.1/bits/stl_algobase.h ****     }
 942              		.loc 9 873 11 view .LVU257
 943              	.LBE274:
 944              	.LBE275:
 945              	.LBE276:
 946              	.LBE277:
  67:eurorack/plaits/dsp/engine/swarm_engine.cc ****   fill(&aux[0], &aux[size], 0.0f);
 947              		.loc 1 67 3 is_stmt 1 view .LVU258
 948              	.LBB278:
ARM GAS  /var/folders/9s/8rp0_f2s1n31qbztm3b5_fdh0000gn/T//ccF2jpeh.s 			page 49


 949              	.LBI278:
 950              		.loc 9 937 5 view .LVU259
 951              	.LBB279:
 952              	.LBI279:
 913:/Library/DaisyToolchain/0.2.0/arm/arm-none-eabi/include/c++/10.3.1/bits/stl_algobase.h ****     { std::__fill_a1(__first, __last, __value); }
 953              		.loc 9 913 5 view .LVU260
 954              	.LBB280:
 955              	.LBI280:
 868:/Library/DaisyToolchain/0.2.0/arm/arm-none-eabi/include/c++/10.3.1/bits/stl_algobase.h **** 	      const _Tp& __value)
 956              		.loc 9 868 5 view .LVU261
 957              	.LBB281:
 873:/Library/DaisyToolchain/0.2.0/arm/arm-none-eabi/include/c++/10.3.1/bits/stl_algobase.h ****     }
 958              		.loc 9 873 11 is_stmt 0 view .LVU262
 959 0090 019A     		ldr	r2, [sp, #4]
 960 0092 0021     		movs	r1, #0
 961 0094 3046     		mov	r0, r6
 962 0096 FFF7FEFF 		bl	memset
 963              	.LVL63:
 964              	.L51:
 873:/Library/DaisyToolchain/0.2.0/arm/arm-none-eabi/include/c++/10.3.1/bits/stl_algobase.h ****     }
 965              		.loc 9 873 11 view .LVU263
 966              	.LBE281:
 967              	.LBE280:
 968              	.LBE279:
 969              	.LBE278:
 970              	.LBB282:
  68:eurorack/plaits/dsp/engine/swarm_engine.cc ****   
  69:eurorack/plaits/dsp/engine/swarm_engine.cc ****   for (int i = 0; i < kNumSwarmVoices; ++i) {
  70:eurorack/plaits/dsp/engine/swarm_engine.cc ****     swarm_voice_[i].Render(
 971              		.loc 1 70 5 is_stmt 1 discriminator 2 view .LVU264
 972              	.LBB283:
 973              	.LBI283:
 199:eurorack/plaits/dsp/engine/swarm_engine.h ****   }
 200:eurorack/plaits/dsp/engine/swarm_engine.h ****   
 201:eurorack/plaits/dsp/engine/swarm_engine.h ****   void Render(
 974              		.loc 2 201 8 discriminator 2 view .LVU265
 975              	.LBB284:
 202:eurorack/plaits/dsp/engine/swarm_engine.h ****       float f0,
 203:eurorack/plaits/dsp/engine/swarm_engine.h ****       float density,
 204:eurorack/plaits/dsp/engine/swarm_engine.h ****       bool burst_mode,
 205:eurorack/plaits/dsp/engine/swarm_engine.h ****       bool start_burst,
 206:eurorack/plaits/dsp/engine/swarm_engine.h ****       float spread,
 207:eurorack/plaits/dsp/engine/swarm_engine.h ****       float size_ratio,
 208:eurorack/plaits/dsp/engine/swarm_engine.h ****       float* saw,
 209:eurorack/plaits/dsp/engine/swarm_engine.h ****       float* sine,
 210:eurorack/plaits/dsp/engine/swarm_engine.h ****       size_t size) {
 211:eurorack/plaits/dsp/engine/swarm_engine.h ****     envelope_.Step(density, burst_mode, start_burst);
 976              		.loc 2 211 5 discriminator 2 view .LVU266
 977              	.LBB285:
 978              	.LBI285:
  60:eurorack/plaits/dsp/engine/swarm_engine.h ****     bool randomize = false;
 979              		.loc 2 60 15 discriminator 2 view .LVU267
 980              	.LBB286:
  61:eurorack/plaits/dsp/engine/swarm_engine.h ****     if (start_burst) {
 981              		.loc 2 61 5 discriminator 2 view .LVU268
  62:eurorack/plaits/dsp/engine/swarm_engine.h ****       phase_ = 0.5f;
 982              		.loc 2 62 5 discriminator 2 view .LVU269
ARM GAS  /var/folders/9s/8rp0_f2s1n31qbztm3b5_fdh0000gn/T//ccF2jpeh.s 			page 50


 983 009a B6EE00CA 		vmov.f32	s24, #5.0e-1
 984 009e B8F1000F 		cmp	r8, #0
 985 00a2 2AD0     		beq	.L32
  63:eurorack/plaits/dsp/engine/swarm_engine.h ****       fm_ = 16.0f;
 986              		.loc 2 63 7 view .LVU270
  64:eurorack/plaits/dsp/engine/swarm_engine.h ****       randomize = true;
 987              		.loc 2 64 11 is_stmt 0 view .LVU271
 988 00a4 4FF08343 		mov	r3, #1098907648
  63:eurorack/plaits/dsp/engine/swarm_engine.h ****       fm_ = 16.0f;
 989              		.loc 2 63 14 view .LVU272
 990 00a8 04ED09CA 		vstr.32	s24, [r4, #-36]
  64:eurorack/plaits/dsp/engine/swarm_engine.h ****       randomize = true;
 991              		.loc 2 64 7 is_stmt 1 view .LVU273
  64:eurorack/plaits/dsp/engine/swarm_engine.h ****       randomize = true;
 992              		.loc 2 64 11 is_stmt 0 view .LVU274
 993 00ac 44F8203C 		str	r3, [r4, #-32]	@ float
  65:eurorack/plaits/dsp/engine/swarm_engine.h ****     } else {
 994              		.loc 2 65 7 is_stmt 1 view .LVU275
 995              	.LVL64:
  74:eurorack/plaits/dsp/engine/swarm_engine.h ****       from_ += interval_;
 996              		.loc 2 74 5 view .LVU276
 997              	.L33:
  75:eurorack/plaits/dsp/engine/swarm_engine.h ****       interval_ = stmlib::Random::GetFloat() - from_;
 998              		.loc 2 75 7 view .LVU277
  75:eurorack/plaits/dsp/engine/swarm_engine.h ****       interval_ = stmlib::Random::GetFloat() - from_;
 999              		.loc 2 75 13 is_stmt 0 view .LVU278
 1000 00b0 54ED0B7A 		vldr.32	s15, [r4, #-44]
 1001 00b4 14ED0A7A 		vldr.32	s14, [r4, #-40]
 1002 00b8 77EE877A 		vadd.f32	s15, s15, s14
 1003 00bc 44ED0B7A 		vstr.32	s15, [r4, #-44]
  76:eurorack/plaits/dsp/engine/swarm_engine.h ****       // Randomize the duration of the grain.
 1004              		.loc 2 76 7 is_stmt 1 view .LVU279
  76:eurorack/plaits/dsp/engine/swarm_engine.h ****       // Randomize the duration of the grain.
 1005              		.loc 2 76 43 is_stmt 0 view .LVU280
 1006 00c0 FFF7FEFF 		bl	_ZN6stmlib6Random8GetFloatEv
 1007              	.LVL65:
  76:eurorack/plaits/dsp/engine/swarm_engine.h ****       // Randomize the duration of the grain.
 1008              		.loc 2 76 46 view .LVU281
 1009 00c4 54ED0B7A 		vldr.32	s15, [r4, #-44]
 1010 00c8 30EE670A 		vsub.f32	s0, s0, s15
  76:eurorack/plaits/dsp/engine/swarm_engine.h ****       // Randomize the duration of the grain.
 1011              		.loc 2 76 17 view .LVU282
 1012 00cc 04ED0A0A 		vstr.32	s0, [r4, #-40]
  78:eurorack/plaits/dsp/engine/swarm_engine.h ****         fm_ *= 0.8f + 0.2f * stmlib::Random::GetFloat();
 1013              		.loc 2 78 7 is_stmt 1 view .LVU283
 1014 00d0 BAF1000F 		cmp	r10, #0
 1015 00d4 40F01181 		bne	.L36
 1016              	.LVL66:
 1017              	.LBB287:
 1018              	.LBI287:
  60:eurorack/plaits/dsp/engine/swarm_engine.h ****     bool randomize = false;
 1019              		.loc 2 60 15 view .LVU284
 1020              	.LBB288:
  79:eurorack/plaits/dsp/engine/swarm_engine.h ****       } else {
 1021              		.loc 2 79 9 view .LVU285
  79:eurorack/plaits/dsp/engine/swarm_engine.h ****       } else {
 1022              		.loc 2 79 54 is_stmt 0 view .LVU286
ARM GAS  /var/folders/9s/8rp0_f2s1n31qbztm3b5_fdh0000gn/T//ccF2jpeh.s 			page 51


 1023 00d8 FFF7FEFF 		bl	_ZN6stmlib6Random8GetFloatEv
 1024              	.LVL67:
  79:eurorack/plaits/dsp/engine/swarm_engine.h ****       } else {
 1025              		.loc 2 79 21 view .LVU287
 1026 00dc DFED9F6A 		vldr.32	s13, .L67+12
 1027 00e0 DFED9F7A 		vldr.32	s15, .L67+16
 1028 00e4 E0EE267A 		vfma.f32	s15, s0, s13
 1029 00e8 B0EE677A 		vmov.f32	s14, s15
  79:eurorack/plaits/dsp/engine/swarm_engine.h ****       } else {
 1030              		.loc 2 79 13 view .LVU288
 1031 00ec 54ED087A 		vldr.32	s15, [r4, #-32]
 1032 00f0 67EE877A 		vmul.f32	s15, s15, s14
 1033              	.LVL68:
 1034              	.L66:
  79:eurorack/plaits/dsp/engine/swarm_engine.h ****       } else {
 1035              		.loc 2 79 13 view .LVU289
 1036              	.LBE288:
 1037              	.LBE287:
  81:eurorack/plaits/dsp/engine/swarm_engine.h ****       }
 1038              		.loc 2 81 13 view .LVU290
 1039 00f4 44ED087A 		vstr.32	s15, [r4, #-32]
 1040 00f8 0DE0     		b	.L35
 1041              	.LVL69:
 1042              	.L32:
  67:eurorack/plaits/dsp/engine/swarm_engine.h ****       if (phase_ >= 1.0f) {
 1043              		.loc 2 67 7 is_stmt 1 view .LVU291
  67:eurorack/plaits/dsp/engine/swarm_engine.h ****       if (phase_ >= 1.0f) {
 1044              		.loc 2 67 14 is_stmt 0 view .LVU292
 1045 00fa 14ED087A 		vldr.32	s14, [r4, #-32]
 1046 00fe 54ED097A 		vldr.32	s15, [r4, #-36]
 1047 0102 E9EE077A 		vfma.f32	s15, s18, s14
  68:eurorack/plaits/dsp/engine/swarm_engine.h ****         phase_ -= static_cast<float>(static_cast<int>(phase_));
 1048              		.loc 2 68 7 is_stmt 1 view .LVU293
 1049 0106 F4EEC87A 		vcmpe.f32	s15, s16
 1050 010a F1EE10FA 		vmrs	APSR_nzcv, FPSCR
 1051 010e 80F2EB80 		bge	.L34
  67:eurorack/plaits/dsp/engine/swarm_engine.h ****       if (phase_ >= 1.0f) {
 1052              		.loc 2 67 14 is_stmt 0 view .LVU294
 1053 0112 44ED097A 		vstr.32	s15, [r4, #-36]
 1054              	.LVL70:
 1055              	.L35:
  67:eurorack/plaits/dsp/engine/swarm_engine.h ****       if (phase_ >= 1.0f) {
 1056              		.loc 2 67 14 view .LVU295
 1057              	.LBE286:
 1058              	.LBE285:
 212:eurorack/plaits/dsp/engine/swarm_engine.h ****     
 213:eurorack/plaits/dsp/engine/swarm_engine.h ****     const float scale = 1.0f / kNumSwarmVoices;
 1059              		.loc 2 213 5 is_stmt 1 view .LVU296
 214:eurorack/plaits/dsp/engine/swarm_engine.h ****     const float amplitude = envelope_.amplitude(size_ratio) * scale;
 1060              		.loc 2 214 5 view .LVU297
 1061              	.LBB290:
 1062              	.LBI290:
  97:eurorack/plaits/dsp/engine/swarm_engine.h ****     float target_amplitude = 1.0f;
 1063              		.loc 2 97 16 view .LVU298
 1064              	.LBB291:
  98:eurorack/plaits/dsp/engine/swarm_engine.h ****     if (size_ratio >= 1.0f) {
 1065              		.loc 2 98 5 view .LVU299
ARM GAS  /var/folders/9s/8rp0_f2s1n31qbztm3b5_fdh0000gn/T//ccF2jpeh.s 			page 52


  99:eurorack/plaits/dsp/engine/swarm_engine.h ****       float phase = (phase_ - 0.5f) * size_ratio;
 1066              		.loc 2 99 5 view .LVU300
 1067              	.LBB292:
 1068 0116 F4EEC88A 		vcmpe.f32	s17, s16
 1069 011a F1EE10FA 		vmrs	APSR_nzcv, FPSCR
 1070 011e C0F2F880 		blt	.L63
 1071              	.LBB293:
 100:eurorack/plaits/dsp/engine/swarm_engine.h ****       CONSTRAIN(phase, -1.0f, 1.0f);
 1072              		.loc 2 100 7 view .LVU301
 100:eurorack/plaits/dsp/engine/swarm_engine.h ****       CONSTRAIN(phase, -1.0f, 1.0f);
 1073              		.loc 2 100 29 is_stmt 0 view .LVU302
 1074 0122 54ED097A 		vldr.32	s15, [r4, #-36]
 101:eurorack/plaits/dsp/engine/swarm_engine.h ****       float e = stmlib::InterpolateWrap(
 1075              		.loc 2 101 7 view .LVU303
 1076 0126 BFEE007A 		vmov.f32	s14, #-1.0e+0
 100:eurorack/plaits/dsp/engine/swarm_engine.h ****       CONSTRAIN(phase, -1.0f, 1.0f);
 1077              		.loc 2 100 29 view .LVU304
 1078 012a 77EECC7A 		vsub.f32	s15, s15, s24
 100:eurorack/plaits/dsp/engine/swarm_engine.h ****       CONSTRAIN(phase, -1.0f, 1.0f);
 1079              		.loc 2 100 13 view .LVU305
 1080 012e 67EEA87A 		vmul.f32	s15, s15, s17
 1081              	.LVL71:
 101:eurorack/plaits/dsp/engine/swarm_engine.h ****       float e = stmlib::InterpolateWrap(
 1082              		.loc 2 101 7 is_stmt 1 view .LVU306
 1083 0132 F4EEC77A 		vcmpe.f32	s15, s14
 1084 0136 F1EE10FA 		vmrs	APSR_nzcv, FPSCR
 1085 013a 00F1E780 		bmi	.L53
 101:eurorack/plaits/dsp/engine/swarm_engine.h ****       float e = stmlib::InterpolateWrap(
 1086              		.loc 2 101 7 view .LVU307
 1087 013e F4EE487A 		vcmp.f32	s15, s16
 1088 0142 B7EE007A 		vmov.f32	s14, #1.0e+0
 1089 0146 F1EE10FA 		vmrs	APSR_nzcv, FPSCR
 1090 014a 77FE277A 		vselgt.f32	s15, s14, s15
 1091              	.LVL72:
 1092              	.L39:
 101:eurorack/plaits/dsp/engine/swarm_engine.h ****       float e = stmlib::InterpolateWrap(
 1093              		.loc 2 101 36 view .LVU308
 102:eurorack/plaits/dsp/engine/swarm_engine.h ****           lut_sine, 0.5f * phase + 1.25f, 1024.0f);
 1094              		.loc 2 102 7 view .LVU309
 102:eurorack/plaits/dsp/engine/swarm_engine.h ****           lut_sine, 0.5f * phase + 1.25f, 1024.0f);
 1095              		.loc 2 102 40 is_stmt 0 view .LVU310
 1096 014e B7EE047A 		vmov.f32	s14, #1.25e+0
 1097              	.LBB294:
 1098              	.LBB295:
 1099              		.file 10 "eurorack/stmlib/dsp/dsp.h"
   1:eurorack/stmlib/dsp/dsp.h **** // Copyright 2012 Emilie Gillet.
   2:eurorack/stmlib/dsp/dsp.h **** //
   3:eurorack/stmlib/dsp/dsp.h **** // Author: Emilie Gillet (emilie.o.gillet@gmail.com)
   4:eurorack/stmlib/dsp/dsp.h **** //
   5:eurorack/stmlib/dsp/dsp.h **** // Permission is hereby granted, free of charge, to any person obtaining a copy
   6:eurorack/stmlib/dsp/dsp.h **** // of this software and associated documentation files (the "Software"), to deal
   7:eurorack/stmlib/dsp/dsp.h **** // in the Software without restriction, including without limitation the rights
   8:eurorack/stmlib/dsp/dsp.h **** // to use, copy, modify, merge, publish, distribute, sublicense, and/or sell
   9:eurorack/stmlib/dsp/dsp.h **** // copies of the Software, and to permit persons to whom the Software is
  10:eurorack/stmlib/dsp/dsp.h **** // furnished to do so, subject to the following conditions:
  11:eurorack/stmlib/dsp/dsp.h **** // 
  12:eurorack/stmlib/dsp/dsp.h **** // The above copyright notice and this permission notice shall be included in
ARM GAS  /var/folders/9s/8rp0_f2s1n31qbztm3b5_fdh0000gn/T//ccF2jpeh.s 			page 53


  13:eurorack/stmlib/dsp/dsp.h **** // all copies or substantial portions of the Software.
  14:eurorack/stmlib/dsp/dsp.h **** // 
  15:eurorack/stmlib/dsp/dsp.h **** // THE SOFTWARE IS PROVIDED "AS IS", WITHOUT WARRANTY OF ANY KIND, EXPRESS OR
  16:eurorack/stmlib/dsp/dsp.h **** // IMPLIED, INCLUDING BUT NOT LIMITED TO THE WARRANTIES OF MERCHANTABILITY,
  17:eurorack/stmlib/dsp/dsp.h **** // FITNESS FOR A PARTICULAR PURPOSE AND NONINFRINGEMENT. IN NO EVENT SHALL THE
  18:eurorack/stmlib/dsp/dsp.h **** // AUTHORS OR COPYRIGHT HOLDERS BE LIABLE FOR ANY CLAIM, DAMAGES OR OTHER
  19:eurorack/stmlib/dsp/dsp.h **** // LIABILITY, WHETHER IN AN ACTION OF CONTRACT, TORT OR OTHERWISE, ARISING FROM,
  20:eurorack/stmlib/dsp/dsp.h **** // OUT OF OR IN CONNECTION WITH THE SOFTWARE OR THE USE OR OTHER DEALINGS IN
  21:eurorack/stmlib/dsp/dsp.h **** // THE SOFTWARE.
  22:eurorack/stmlib/dsp/dsp.h **** // 
  23:eurorack/stmlib/dsp/dsp.h **** // See http://creativecommons.org/licenses/MIT/ for more information.
  24:eurorack/stmlib/dsp/dsp.h **** //
  25:eurorack/stmlib/dsp/dsp.h **** // -----------------------------------------------------------------------------
  26:eurorack/stmlib/dsp/dsp.h **** //
  27:eurorack/stmlib/dsp/dsp.h **** // DSP utility routines.
  28:eurorack/stmlib/dsp/dsp.h **** 
  29:eurorack/stmlib/dsp/dsp.h **** #ifndef STMLIB_UTILS_DSP_DSP_H_
