ARM GAS  /var/folders/9s/8rp0_f2s1n31qbztm3b5_fdh0000gn/T//ccerGSgr.s 			page 1


   1              		.cpu cortex-m7
   2              		.arch armv7e-m
   3              		.fpu fpv5-d16
   4              		.eabi_attribute 28, 1
   5              		.eabi_attribute 20, 1
   6              		.eabi_attribute 21, 1
   7              		.eabi_attribute 23, 3
   8              		.eabi_attribute 24, 1
   9              		.eabi_attribute 25, 1
  10              		.eabi_attribute 26, 1
  11              		.eabi_attribute 30, 4
  12              		.eabi_attribute 34, 1
  13              		.eabi_attribute 18, 4
  14              		.file	"SynthStateStorage.cpp"
  15              		.text
  16              	.Ltext0:
  17              		.cfi_sections	.debug_frame
  18              		.section	.text._ZN12_GLOBAL__N_17GetQSPIEv,"ax",%progbits
  19              		.align	1
  20              		.syntax unified
  21              		.thumb
  22              		.thumb_func
  24              	_ZN12_GLOBAL__N_17GetQSPIEv:
  25              	.LFB2152:
  26              		.file 1 "SynthStateStorage.cpp"
   1:SynthStateStorage.cpp **** #include "SynthStateStorage.h"
   2:SynthStateStorage.cpp **** #include "daisy_seed.h"
   3:SynthStateStorage.cpp **** 
   4:SynthStateStorage.cpp **** using namespace daisy;
   5:SynthStateStorage.cpp **** 
   6:SynthStateStorage.cpp **** #define QSPIFUNC DSY_QSPI_TEXT
   7:SynthStateStorage.cpp **** 
   8:SynthStateStorage.cpp **** namespace {
   9:SynthStateStorage.cpp **** constexpr uint32_t kFlashBase   = 0x90000000; // QSPI memory-mapped base
  10:SynthStateStorage.cpp **** constexpr uint32_t kSectorSize  = 4096;
  11:SynthStateStorage.cpp **** constexpr uint32_t kMagic       = 0x54485359; // 'THSY'
  12:SynthStateStorage.cpp **** 
  13:SynthStateStorage.cpp **** inline uint32_t CalcCrc(uint32_t magic, int32_t engine) { return magic ^ static_cast<uint32_t>(engi
  14:SynthStateStorage.cpp **** 
  15:SynthStateStorage.cpp **** QSPIHandle& GetQSPI() {
  27              		.loc 1 15 23 view -0
  28              		.cfi_startproc
  29              		@ args = 0, pretend = 0, frame = 0
  30              		@ frame_needed = 0, uses_anonymous_args = 0
  16:SynthStateStorage.cpp ****     static QSPIHandle* qspi_ptr = nullptr;
  31              		.loc 1 16 5 view .LVU1
  17:SynthStateStorage.cpp ****     if(!qspi_ptr) {
  32              		.loc 1 17 5 view .LVU2
  15:SynthStateStorage.cpp ****     static QSPIHandle* qspi_ptr = nullptr;
  33              		.loc 1 15 23 is_stmt 0 view .LVU3
  34 0000 38B5     		push	{r3, r4, r5, lr}
  35              		.cfi_def_cfa_offset 16
  36              		.cfi_offset 3, -16
  37              		.cfi_offset 4, -12
  38              		.cfi_offset 5, -8
  39              		.cfi_offset 14, -4
  40              		.loc 1 17 8 view .LVU4
ARM GAS  /var/folders/9s/8rp0_f2s1n31qbztm3b5_fdh0000gn/T//ccerGSgr.s 			page 2


  41 0002 054C     		ldr	r4, .L3
  42              		.loc 1 17 5 view .LVU5
  43 0004 2568     		ldr	r5, [r4]
  44 0006 25B9     		cbnz	r5, .L2
  18:SynthStateStorage.cpp ****         qspi_ptr = new QSPIHandle();
  45              		.loc 1 18 9 is_stmt 1 view .LVU6
  46              		.loc 1 18 35 is_stmt 0 view .LVU7
  47 0008 0420     		movs	r0, #4
  48 000a FFF7FEFF 		bl	_Znwj
  49              	.LVL0:
  50              	.LBB21:
  51              	.LBI21:
  52              		.file 2 "lib/libdaisy/src/per/qspi.h"
   1:lib/libdaisy/src/per/qspi.h **** #ifndef DSY_QSPI
   2:lib/libdaisy/src/per/qspi.h **** #define DSY_QSPI /**< Macro */
   3:lib/libdaisy/src/per/qspi.h **** 
   4:lib/libdaisy/src/per/qspi.h **** #ifndef UNIT_TEST // for unit tests, a dummy implementation
   5:lib/libdaisy/src/per/qspi.h **** 
   6:lib/libdaisy/src/per/qspi.h **** #include <cstdint>
   7:lib/libdaisy/src/per/qspi.h **** #include "daisy_core.h" // Added for dsy_gpio_pin typedef
   8:lib/libdaisy/src/per/qspi.h **** 
   9:lib/libdaisy/src/per/qspi.h **** #define DSY_QSPI_TEXT       \
  10:lib/libdaisy/src/per/qspi.h ****     __attribute__((section( \
  11:lib/libdaisy/src/per/qspi.h ****         ".qspiflash_text"))) /**< used for reading memory in memory_mapped mode. */
  12:lib/libdaisy/src/per/qspi.h **** #define DSY_QSPI_DATA       \
  13:lib/libdaisy/src/per/qspi.h ****     __attribute__((section( \
  14:lib/libdaisy/src/per/qspi.h ****         ".qspiflash_data"))) /**< used for reading memory in memory_mapped mode. */
  15:lib/libdaisy/src/per/qspi.h **** #define DSY_QSPI_BSS        \
  16:lib/libdaisy/src/per/qspi.h ****     __attribute__((section( \
  17:lib/libdaisy/src/per/qspi.h ****         ".qspiflash_bss"))) /**< used for reading memory in memory_mapped mode. */
  18:lib/libdaisy/src/per/qspi.h **** 
  19:lib/libdaisy/src/per/qspi.h **** namespace daisy
  20:lib/libdaisy/src/per/qspi.h **** {
  21:lib/libdaisy/src/per/qspi.h **** /** @addtogroup serial
  22:lib/libdaisy/src/per/qspi.h **** @{
  23:lib/libdaisy/src/per/qspi.h **** */
  24:lib/libdaisy/src/per/qspi.h **** 
  25:lib/libdaisy/src/per/qspi.h **** /** 
  26:lib/libdaisy/src/per/qspi.h ****  Driver for QSPI peripheral to interface with external flash memory. \n 
  27:lib/libdaisy/src/per/qspi.h ****     Currently supported QSPI Devices: \n 
  28:lib/libdaisy/src/per/qspi.h ****     * IS25LP080D
  29:lib/libdaisy/src/per/qspi.h **** */
  30:lib/libdaisy/src/per/qspi.h **** class QSPIHandle
  31:lib/libdaisy/src/per/qspi.h **** {
  32:lib/libdaisy/src/per/qspi.h ****   public:
  33:lib/libdaisy/src/per/qspi.h ****     enum Result
  34:lib/libdaisy/src/per/qspi.h ****     {
  35:lib/libdaisy/src/per/qspi.h ****         OK = 0,
  36:lib/libdaisy/src/per/qspi.h ****         ERR
  37:lib/libdaisy/src/per/qspi.h ****     };
  38:lib/libdaisy/src/per/qspi.h **** 
  39:lib/libdaisy/src/per/qspi.h ****     /** Indicates the current status of the module. 
  40:lib/libdaisy/src/per/qspi.h ****          *  Warnings are indicated by a leading W.
  41:lib/libdaisy/src/per/qspi.h ****          *  Errors are indicated by a leading E and cause an immediate exit.
  42:lib/libdaisy/src/per/qspi.h ****          * 
  43:lib/libdaisy/src/per/qspi.h ****          *  \param GOOD - No errors have been reported.
  44:lib/libdaisy/src/per/qspi.h ****          *  \param E_HAL_ERROR - HAL code did not return HAL_OK.
ARM GAS  /var/folders/9s/8rp0_f2s1n31qbztm3b5_fdh0000gn/T//ccerGSgr.s 			page 3


  45:lib/libdaisy/src/per/qspi.h ****          *  \param E_SWITCHING_MODES - An error was encountered while switching QSPI peripheral mod
  46:lib/libdaisy/src/per/qspi.h ****          *  \param E_INVALID_MODE - QSPI should not be written to while the program is executing fr
  47:lib/libdaisy/src/per/qspi.h ****          */
  48:lib/libdaisy/src/per/qspi.h ****     enum Status
  49:lib/libdaisy/src/per/qspi.h ****     {
  50:lib/libdaisy/src/per/qspi.h ****         GOOD = 0,
  51:lib/libdaisy/src/per/qspi.h ****         E_HAL_ERROR,
  52:lib/libdaisy/src/per/qspi.h ****         E_SWITCHING_MODES,
  53:lib/libdaisy/src/per/qspi.h ****         E_INVALID_MODE,
  54:lib/libdaisy/src/per/qspi.h ****     };
  55:lib/libdaisy/src/per/qspi.h **** 
  56:lib/libdaisy/src/per/qspi.h ****     /** Configuration structure for interfacing with QSPI Driver */
  57:lib/libdaisy/src/per/qspi.h ****     struct Config
  58:lib/libdaisy/src/per/qspi.h ****     {
  59:lib/libdaisy/src/per/qspi.h ****         /** Flash Devices supported. (Both of these are more-or-less the same, just different sizes
  60:lib/libdaisy/src/per/qspi.h ****         enum Device
  61:lib/libdaisy/src/per/qspi.h ****         {
  62:lib/libdaisy/src/per/qspi.h ****             IS25LP080D,  /**< & */
  63:lib/libdaisy/src/per/qspi.h ****             IS25LP064A,  /**< & */
  64:lib/libdaisy/src/per/qspi.h ****             DEVICE_LAST, /**< & */
  65:lib/libdaisy/src/per/qspi.h ****         };
  66:lib/libdaisy/src/per/qspi.h **** 
  67:lib/libdaisy/src/per/qspi.h ****         /** 
  68:lib/libdaisy/src/per/qspi.h ****         Modes of operation.
  69:lib/libdaisy/src/per/qspi.h ****         Memory Mapped mode: QSPI configured so that the QSPI can be
  70:lib/libdaisy/src/per/qspi.h ****         read from starting address 0x90000000. Writing is not
  71:lib/libdaisy/src/per/qspi.h ****         possible in this mode. \n 
  72:lib/libdaisy/src/per/qspi.h ****         Indirect Polling mode: Device driver enabled. 
  73:lib/libdaisy/src/per/qspi.h ****         */
  74:lib/libdaisy/src/per/qspi.h ****         enum Mode
  75:lib/libdaisy/src/per/qspi.h ****         {
  76:lib/libdaisy/src/per/qspi.h ****             MEMORY_MAPPED,    /**< & */
  77:lib/libdaisy/src/per/qspi.h ****             INDIRECT_POLLING, /**< & */
  78:lib/libdaisy/src/per/qspi.h ****             MODE_LAST,
  79:lib/libdaisy/src/per/qspi.h ****         };
  80:lib/libdaisy/src/per/qspi.h **** 
  81:lib/libdaisy/src/per/qspi.h ****         //SCK,  CE# (active low)
  82:lib/libdaisy/src/per/qspi.h ****         struct
  83:lib/libdaisy/src/per/qspi.h ****         {
  84:lib/libdaisy/src/per/qspi.h ****             dsy_gpio_pin io0; /**< & */
  85:lib/libdaisy/src/per/qspi.h ****             dsy_gpio_pin io1; /**< & */
  86:lib/libdaisy/src/per/qspi.h ****             dsy_gpio_pin io2; /**< & */
  87:lib/libdaisy/src/per/qspi.h ****             dsy_gpio_pin io3; /**< & */
  88:lib/libdaisy/src/per/qspi.h ****             dsy_gpio_pin clk; /**< & */
  89:lib/libdaisy/src/per/qspi.h ****             dsy_gpio_pin ncs; /**< & */
  90:lib/libdaisy/src/per/qspi.h ****         } pin_config;
  91:lib/libdaisy/src/per/qspi.h **** 
  92:lib/libdaisy/src/per/qspi.h ****         Device device;
  93:lib/libdaisy/src/per/qspi.h ****         Mode   mode;
  94:lib/libdaisy/src/per/qspi.h ****     };
  95:lib/libdaisy/src/per/qspi.h **** 
  96:lib/libdaisy/src/per/qspi.h ****     /** 
  97:lib/libdaisy/src/per/qspi.h ****         Initializes QSPI peripheral, and Resets, and prepares memory for access.
  98:lib/libdaisy/src/per/qspi.h ****         \param config should be populated with the mode, device and pin_config before calling this 
  99:lib/libdaisy/src/per/qspi.h ****         \return Result::OK or Result::ERR
 100:lib/libdaisy/src/per/qspi.h ****         */
 101:lib/libdaisy/src/per/qspi.h ****     Result Init(const Config& config);
ARM GAS  /var/folders/9s/8rp0_f2s1n31qbztm3b5_fdh0000gn/T//ccerGSgr.s 			page 4


 102:lib/libdaisy/src/per/qspi.h **** 
 103:lib/libdaisy/src/per/qspi.h ****     /** Returns the current config. */
 104:lib/libdaisy/src/per/qspi.h ****     const Config& GetConfig() const;
 105:lib/libdaisy/src/per/qspi.h **** 
 106:lib/libdaisy/src/per/qspi.h ****     // Couldn't this just be called before anything else in init? That
 107:lib/libdaisy/src/per/qspi.h ****     // would make manually calling it unnecessary.
 108:lib/libdaisy/src/per/qspi.h ****     /** 
 109:lib/libdaisy/src/per/qspi.h ****         Deinitializes the peripheral
 110:lib/libdaisy/src/per/qspi.h ****         This should be called before reinitializing QSPI in a different mode.
 111:lib/libdaisy/src/per/qspi.h ****         \return Result::OK or Result::ERR
 112:lib/libdaisy/src/per/qspi.h ****         */
 113:lib/libdaisy/src/per/qspi.h ****     Result DeInit();
 114:lib/libdaisy/src/per/qspi.h **** 
 115:lib/libdaisy/src/per/qspi.h ****     /** 
 116:lib/libdaisy/src/per/qspi.h ****         Writes a single page to to the specified address on the QSPI chip.
 117:lib/libdaisy/src/per/qspi.h ****         For IS25LP*, page size is 256 bytes.
 118:lib/libdaisy/src/per/qspi.h ****         \param address Address to write to
 119:lib/libdaisy/src/per/qspi.h ****         \param size Buffer size
 120:lib/libdaisy/src/per/qspi.h ****         \param buffer Buffer to write
 121:lib/libdaisy/src/per/qspi.h ****         \return Result::OK or Result::ERR
 122:lib/libdaisy/src/per/qspi.h ****         */
 123:lib/libdaisy/src/per/qspi.h ****     Result WritePage(uint32_t address, uint32_t size, uint8_t* buffer);
 124:lib/libdaisy/src/per/qspi.h **** 
 125:lib/libdaisy/src/per/qspi.h ****     /** 
 126:lib/libdaisy/src/per/qspi.h ****         Writes data in buffer to to the QSPI. Starting at address to address+size 
 127:lib/libdaisy/src/per/qspi.h ****         \param address Address to write to
 128:lib/libdaisy/src/per/qspi.h ****         \param size Buffer size
 129:lib/libdaisy/src/per/qspi.h ****         \param buffer Buffer to write
 130:lib/libdaisy/src/per/qspi.h ****         \return Result::OK or Result::ERR
 131:lib/libdaisy/src/per/qspi.h ****         */
 132:lib/libdaisy/src/per/qspi.h ****     Result Write(uint32_t address, uint32_t size, uint8_t* buffer);
 133:lib/libdaisy/src/per/qspi.h **** 
 134:lib/libdaisy/src/per/qspi.h ****     /** 
 135:lib/libdaisy/src/per/qspi.h ****         Erases the area specified on the chip.
 136:lib/libdaisy/src/per/qspi.h ****         Erasures will happen by 4K, 32K or 64K increments.
 137:lib/libdaisy/src/per/qspi.h ****         Smallest erase possible is 4kB at a time. (on IS25LP*)
 138:lib/libdaisy/src/per/qspi.h ****         \param start_addr Address to begin erasing from
 139:lib/libdaisy/src/per/qspi.h ****         \param end_addr  Address to stop erasing at
 140:lib/libdaisy/src/per/qspi.h ****         \return Result::OK or Result::ERR
 141:lib/libdaisy/src/per/qspi.h ****         */
 142:lib/libdaisy/src/per/qspi.h ****     Result Erase(uint32_t start_addr, uint32_t end_addr);
 143:lib/libdaisy/src/per/qspi.h **** 
 144:lib/libdaisy/src/per/qspi.h ****     /**  
 145:lib/libdaisy/src/per/qspi.h ****          Erases a single sector of the chip.  
 146:lib/libdaisy/src/per/qspi.h ****         TODO: Document the size of this function. 
 147:lib/libdaisy/src/per/qspi.h ****         \param addr Address of sector to erase
 148:lib/libdaisy/src/per/qspi.h ****         \return Result::OK or Result::ERR
 149:lib/libdaisy/src/per/qspi.h ****         */
 150:lib/libdaisy/src/per/qspi.h ****     Result EraseSector(uint32_t address);
 151:lib/libdaisy/src/per/qspi.h **** 
 152:lib/libdaisy/src/per/qspi.h ****     /** Returns the current class status. Useful for debugging.
 153:lib/libdaisy/src/per/qspi.h ****      *  \returns Status
 154:lib/libdaisy/src/per/qspi.h ****      */
 155:lib/libdaisy/src/per/qspi.h ****     Status GetStatus();
 156:lib/libdaisy/src/per/qspi.h **** 
 157:lib/libdaisy/src/per/qspi.h ****     /** Returns a pointer to the actual memory used 
 158:lib/libdaisy/src/per/qspi.h ****      *  The memory at this address is read-only
ARM GAS  /var/folders/9s/8rp0_f2s1n31qbztm3b5_fdh0000gn/T//ccerGSgr.s 			page 5


 159:lib/libdaisy/src/per/qspi.h ****      *  to write to it use the Write function.
 160:lib/libdaisy/src/per/qspi.h ****      * 
 161:lib/libdaisy/src/per/qspi.h ****      *  \param offset returns the pointer starting this 
 162:lib/libdaisy/src/per/qspi.h ****      *                many bytes into the memory
 163:lib/libdaisy/src/per/qspi.h ****     */
 164:lib/libdaisy/src/per/qspi.h ****     void* GetData(uint32_t offset = 0);
 165:lib/libdaisy/src/per/qspi.h **** 
 166:lib/libdaisy/src/per/qspi.h ****     QSPIHandle() : pimpl_(nullptr) {}
  53              		.loc 2 166 5 is_stmt 1 view .LVU8
  54              	.LBB22:
  55              		.loc 2 166 34 is_stmt 0 view .LVU9
  56 000e 0560     		str	r5, [r0]
  57              	.LVL1:
  58              		.loc 2 166 34 view .LVU10
  59              	.LBE22:
  60              	.LBE21:
  61              		.loc 1 18 18 view .LVU11
  62 0010 2060     		str	r0, [r4]
  63              	.L2:
  19:SynthStateStorage.cpp ****     }
  20:SynthStateStorage.cpp ****     return *qspi_ptr;
  64              		.loc 1 20 5 is_stmt 1 view .LVU12
  21:SynthStateStorage.cpp **** }
  65              		.loc 1 21 1 is_stmt 0 view .LVU13
  66 0012 2068     		ldr	r0, [r4]
  67 0014 38BD     		pop	{r3, r4, r5, pc}
  68              	.L4:
  69 0016 00BF     		.align	2
  70              	.L3:
  71 0018 00000000 		.word	.LANCHOR0
  72              		.cfi_endproc
  73              	.LFE2152:
  75              		.section	.qspiflash_text,"ax",%progbits
  76              		.align	1
  77              		.syntax unified
  78              		.thumb
  79              		.thumb_func
  81              	_ZN12_GLOBAL__N_113ConfigureQSPIEN5daisy10QSPIHandle6Config4ModeE:
  82              	.LVL2:
  83              	.LFB2153:
  22:SynthStateStorage.cpp **** 
  23:SynthStateStorage.cpp **** QSPIFUNC void ConfigureQSPI(QSPIHandle::Config::Mode mode) {
  84              		.loc 1 23 60 is_stmt 1 view -0
  85              		.cfi_startproc
  86              		@ args = 0, pretend = 0, frame = 16
  87              		@ frame_needed = 0, uses_anonymous_args = 0
  24:SynthStateStorage.cpp ****     QSPIHandle::Config cfg;
  88              		.loc 1 24 5 view .LVU15
  25:SynthStateStorage.cpp ****     cfg.device = QSPIHandle::Config::Device::IS25LP064A;
  89              		.loc 1 25 5 view .LVU16
  23:SynthStateStorage.cpp ****     QSPIHandle::Config cfg;
  90              		.loc 1 23 60 is_stmt 0 view .LVU17
  91 0000 1FB5     		push	{r0, r1, r2, r3, r4, lr}
  92              		.cfi_def_cfa_offset 24
  93              		.cfi_offset 4, -8
  94              		.cfi_offset 14, -4
  26:SynthStateStorage.cpp ****     cfg.mode   = mode;
ARM GAS  /var/folders/9s/8rp0_f2s1n31qbztm3b5_fdh0000gn/T//ccerGSgr.s 			page 6


  27:SynthStateStorage.cpp ****     cfg.pin_config.io0 = dsy_pin(DSY_GPIOF, 8);
  95              		.loc 1 27 46 view .LVU18
  96 0002 0822     		movs	r2, #8
  25:SynthStateStorage.cpp ****     cfg.mode   = mode;
  97              		.loc 1 25 16 view .LVU19
  98 0004 0123     		movs	r3, #1
  26:SynthStateStorage.cpp ****     cfg.mode   = mode;
  99              		.loc 1 26 16 view .LVU20
 100 0006 8DF80D00 		strb	r0, [sp, #13]
 101              		.loc 1 27 46 view .LVU21
 102 000a 8DF80120 		strb	r2, [sp, #1]
  28:SynthStateStorage.cpp ****     cfg.pin_config.io1 = dsy_pin(DSY_GPIOF, 9);
 103              		.loc 1 28 46 view .LVU22
 104 000e 0922     		movs	r2, #9
  25:SynthStateStorage.cpp ****     cfg.mode   = mode;
 105              		.loc 1 25 16 view .LVU23
 106 0010 8DF80C30 		strb	r3, [sp, #12]
  26:SynthStateStorage.cpp ****     cfg.mode   = mode;
 107              		.loc 1 26 5 is_stmt 1 view .LVU24
  27:SynthStateStorage.cpp ****     cfg.pin_config.io1 = dsy_pin(DSY_GPIOF, 9);
 108              		.loc 1 27 5 view .LVU25
 109              	.LVL3:
 110              		.file 3 "lib/libdaisy/src/daisy_core.h"
   1:lib/libdaisy/src/daisy_core.h **** #pragma once
   2:lib/libdaisy/src/daisy_core.h **** #ifndef DSY_CORE_HW_H
   3:lib/libdaisy/src/daisy_core.h **** #define DSY_CORE_HW_H /**< & */
   4:lib/libdaisy/src/daisy_core.h **** #include <stdint.h>
   5:lib/libdaisy/src/daisy_core.h **** #include <stdlib.h>
   6:lib/libdaisy/src/daisy_core.h **** 
   7:lib/libdaisy/src/daisy_core.h **** #if defined(_MSC_VER)
   8:lib/libdaisy/src/daisy_core.h **** #define FORCE_INLINE __forceinline /**< & */
   9:lib/libdaisy/src/daisy_core.h **** #elif defined(__clang__)
  10:lib/libdaisy/src/daisy_core.h **** #define FORCE_INLINE inline __attribute__((always_inline)) /**< & */
  11:lib/libdaisy/src/daisy_core.h **** #pragma clang diagnostic ignored "-Wduplicate-decl-specifier"
  12:lib/libdaisy/src/daisy_core.h **** #elif defined(__GNUC__)
  13:lib/libdaisy/src/daisy_core.h **** #define FORCE_INLINE inline __attribute__((always_inline)) /**< & */
  14:lib/libdaisy/src/daisy_core.h **** #else
  15:lib/libdaisy/src/daisy_core.h **** #error unknown compiler
  16:lib/libdaisy/src/daisy_core.h **** #endif
  17:lib/libdaisy/src/daisy_core.h **** 
  18:lib/libdaisy/src/daisy_core.h **** /** @addtogroup utility
  19:lib/libdaisy/src/daisy_core.h ****     @{
  20:lib/libdaisy/src/daisy_core.h **** */
  21:lib/libdaisy/src/daisy_core.h **** 
  22:lib/libdaisy/src/daisy_core.h **** /** Macro for area of memory that is configured as cacheless
  23:lib/libdaisy/src/daisy_core.h **** This should be used primarily for DMA buffers, and the like.
  24:lib/libdaisy/src/daisy_core.h **** */
  25:lib/libdaisy/src/daisy_core.h **** #define DMA_BUFFER_MEM_SECTION __attribute__((section(".sram1_bss")))
  26:lib/libdaisy/src/daisy_core.h **** /** 
  27:lib/libdaisy/src/daisy_core.h **** THE DTCM RAM section is also non-cached. However, is not suitable 
  28:lib/libdaisy/src/daisy_core.h **** for DMA transfers. Performance is on par with internal SRAM w/ 
  29:lib/libdaisy/src/daisy_core.h **** cache enabled.
  30:lib/libdaisy/src/daisy_core.h **** */
  31:lib/libdaisy/src/daisy_core.h **** #define DTCM_MEM_SECTION __attribute__((section(".dtcmram_bss")))
  32:lib/libdaisy/src/daisy_core.h **** 
  33:lib/libdaisy/src/daisy_core.h **** #define FBIPMAX 0.999985f             /**< close to 1.0f-LSB at 16 bit */
  34:lib/libdaisy/src/daisy_core.h **** #define FBIPMIN (-FBIPMAX)            /**< - (1 - LSB) */
ARM GAS  /var/folders/9s/8rp0_f2s1n31qbztm3b5_fdh0000gn/T//ccerGSgr.s 			page 7


  35:lib/libdaisy/src/daisy_core.h **** #define U82F_SCALE 0.0078740f         /**< 1 / 127 */
  36:lib/libdaisy/src/daisy_core.h **** #define F2U8_SCALE 127.0f             /**< 128 - 1 */
  37:lib/libdaisy/src/daisy_core.h **** #define S82F_SCALE 0.0078125f         /**< 1 / (2**7) */
  38:lib/libdaisy/src/daisy_core.h **** #define F2S8_SCALE 127.0f             /**< (2 ** 7) - 1 */
  39:lib/libdaisy/src/daisy_core.h **** #define S162F_SCALE 3.0517578125e-05f /**< 1 / (2** 15) */
  40:lib/libdaisy/src/daisy_core.h **** #define F2S16_SCALE 32767.0f          /**< (2 ** 15) - 1 */
  41:lib/libdaisy/src/daisy_core.h **** #define F2S24_SCALE 8388608.0f        /**< 2 ** 23 */
  42:lib/libdaisy/src/daisy_core.h **** #define S242F_SCALE 1.192092896e-07f  /**< 1 / (2 ** 23) */
  43:lib/libdaisy/src/daisy_core.h **** #define S24SIGN 0x800000              /**< 2 ** 23 */
  44:lib/libdaisy/src/daisy_core.h **** #define S322F_SCALE 4.6566129e-10f    /**< 1 / (2** 31) */
  45:lib/libdaisy/src/daisy_core.h **** #define F2S32_SCALE 2147483647.f      /**< (2 ** 31) - 1 */
  46:lib/libdaisy/src/daisy_core.h **** 
  47:lib/libdaisy/src/daisy_core.h **** 
  48:lib/libdaisy/src/daisy_core.h **** /** shorthand macro for simplifying the reading of the left 
  49:lib/libdaisy/src/daisy_core.h ****  *  channel of a non-interleaved output buffer named out */
  50:lib/libdaisy/src/daisy_core.h **** #define OUT_L out[0]
  51:lib/libdaisy/src/daisy_core.h **** 
  52:lib/libdaisy/src/daisy_core.h **** /** shorthand macro for simplifying the reading of the right 
  53:lib/libdaisy/src/daisy_core.h ****  *  channel of a non-interleaved output buffer named out */
  54:lib/libdaisy/src/daisy_core.h **** #define OUT_R out[1]
  55:lib/libdaisy/src/daisy_core.h **** 
  56:lib/libdaisy/src/daisy_core.h **** /** shorthand macro for simplifying the reading of the left 
  57:lib/libdaisy/src/daisy_core.h ****  *  channel of a non-interleaved input buffer named in */
  58:lib/libdaisy/src/daisy_core.h **** #define IN_L in[0]
  59:lib/libdaisy/src/daisy_core.h **** 
  60:lib/libdaisy/src/daisy_core.h **** /** shorthand macro for simplifying the reading of the right 
  61:lib/libdaisy/src/daisy_core.h ****  *  channel of a non-interleaved input buffer named in */
  62:lib/libdaisy/src/daisy_core.h **** #define IN_R in[1]
  63:lib/libdaisy/src/daisy_core.h **** 
  64:lib/libdaisy/src/daisy_core.h **** /** 
  65:lib/libdaisy/src/daisy_core.h ****     Computes cube.
  66:lib/libdaisy/src/daisy_core.h ****     \param x Number to be cubed
  67:lib/libdaisy/src/daisy_core.h ****     \return x ^ 3
  68:lib/libdaisy/src/daisy_core.h **** */
  69:lib/libdaisy/src/daisy_core.h **** FORCE_INLINE float cube(float x)
  70:lib/libdaisy/src/daisy_core.h **** {
  71:lib/libdaisy/src/daisy_core.h ****     return (x * x) * x;
  72:lib/libdaisy/src/daisy_core.h **** }
  73:lib/libdaisy/src/daisy_core.h **** 
  74:lib/libdaisy/src/daisy_core.h **** /** 
  75:lib/libdaisy/src/daisy_core.h ****     Converts unsigned 8-bit to float
  76:lib/libdaisy/src/daisy_core.h ****     \param x Number to be scaled.
  77:lib/libdaisy/src/daisy_core.h ****     \return Scaled number.
  78:lib/libdaisy/src/daisy_core.h **** */
  79:lib/libdaisy/src/daisy_core.h **** FORCE_INLINE float u82f(uint8_t x)
  80:lib/libdaisy/src/daisy_core.h **** {
  81:lib/libdaisy/src/daisy_core.h ****     return ((float)x - 127.f) * U82F_SCALE;
  82:lib/libdaisy/src/daisy_core.h **** }
  83:lib/libdaisy/src/daisy_core.h **** 
  84:lib/libdaisy/src/daisy_core.h **** /**
  85:lib/libdaisy/src/daisy_core.h ****     Converts float to unsigned 8-bit
  86:lib/libdaisy/src/daisy_core.h **** */
  87:lib/libdaisy/src/daisy_core.h **** FORCE_INLINE uint8_t f2u8(float x)
  88:lib/libdaisy/src/daisy_core.h **** {
  89:lib/libdaisy/src/daisy_core.h ****     x = x <= FBIPMIN ? FBIPMIN : x;
  90:lib/libdaisy/src/daisy_core.h ****     x = x >= FBIPMAX ? FBIPMAX : x;
  91:lib/libdaisy/src/daisy_core.h ****     return (uint8_t)((x * F2U8_SCALE) + F2U8_SCALE);
ARM GAS  /var/folders/9s/8rp0_f2s1n31qbztm3b5_fdh0000gn/T//ccerGSgr.s 			page 8


  92:lib/libdaisy/src/daisy_core.h **** }
  93:lib/libdaisy/src/daisy_core.h **** 
  94:lib/libdaisy/src/daisy_core.h **** 
  95:lib/libdaisy/src/daisy_core.h **** /** 
  96:lib/libdaisy/src/daisy_core.h ****     Converts Signed 8-bit to float
  97:lib/libdaisy/src/daisy_core.h ****     \param x Number to be scaled.
  98:lib/libdaisy/src/daisy_core.h ****     \return Scaled number.
  99:lib/libdaisy/src/daisy_core.h **** */
 100:lib/libdaisy/src/daisy_core.h **** FORCE_INLINE float s82f(int8_t x)
 101:lib/libdaisy/src/daisy_core.h **** {
 102:lib/libdaisy/src/daisy_core.h ****     return (float)x * S82F_SCALE;
 103:lib/libdaisy/src/daisy_core.h **** }
 104:lib/libdaisy/src/daisy_core.h **** 
 105:lib/libdaisy/src/daisy_core.h **** /**
 106:lib/libdaisy/src/daisy_core.h ****     Converts float to Signed 8-bit
 107:lib/libdaisy/src/daisy_core.h **** */
 108:lib/libdaisy/src/daisy_core.h **** FORCE_INLINE int8_t f2s8(float x)
 109:lib/libdaisy/src/daisy_core.h **** {
 110:lib/libdaisy/src/daisy_core.h ****     x = x <= FBIPMIN ? FBIPMIN : x;
 111:lib/libdaisy/src/daisy_core.h ****     x = x >= FBIPMAX ? FBIPMAX : x;
 112:lib/libdaisy/src/daisy_core.h ****     return (int32_t)(x * F2S8_SCALE);
 113:lib/libdaisy/src/daisy_core.h **** }
 114:lib/libdaisy/src/daisy_core.h **** 
 115:lib/libdaisy/src/daisy_core.h **** /** 
 116:lib/libdaisy/src/daisy_core.h ****     Converts Signed 16-bit to float
 117:lib/libdaisy/src/daisy_core.h ****     \param x Number to be scaled.
 118:lib/libdaisy/src/daisy_core.h ****     \return Scaled number.
 119:lib/libdaisy/src/daisy_core.h **** */
 120:lib/libdaisy/src/daisy_core.h **** FORCE_INLINE float s162f(int16_t x)
 121:lib/libdaisy/src/daisy_core.h **** {
 122:lib/libdaisy/src/daisy_core.h ****     return (float)x * S162F_SCALE;
 123:lib/libdaisy/src/daisy_core.h **** }
 124:lib/libdaisy/src/daisy_core.h **** 
 125:lib/libdaisy/src/daisy_core.h **** /**
 126:lib/libdaisy/src/daisy_core.h ****     Converts float to Signed 16-bit
 127:lib/libdaisy/src/daisy_core.h **** */
 128:lib/libdaisy/src/daisy_core.h **** FORCE_INLINE int16_t f2s16(float x)
 129:lib/libdaisy/src/daisy_core.h **** {
 130:lib/libdaisy/src/daisy_core.h ****     x = x <= FBIPMIN ? FBIPMIN : x;
 131:lib/libdaisy/src/daisy_core.h ****     x = x >= FBIPMAX ? FBIPMAX : x;
 132:lib/libdaisy/src/daisy_core.h ****     return (int32_t)(x * F2S16_SCALE);
 133:lib/libdaisy/src/daisy_core.h **** }
 134:lib/libdaisy/src/daisy_core.h **** 
 135:lib/libdaisy/src/daisy_core.h **** /**
 136:lib/libdaisy/src/daisy_core.h ****     Converts Signed 24-bit to float
 137:lib/libdaisy/src/daisy_core.h ****  */
 138:lib/libdaisy/src/daisy_core.h **** FORCE_INLINE float s242f(int32_t x)
 139:lib/libdaisy/src/daisy_core.h **** {
 140:lib/libdaisy/src/daisy_core.h ****     x = (x ^ S24SIGN) - S24SIGN; //sign extend aka ((x<<8)>>8)
 141:lib/libdaisy/src/daisy_core.h ****     return (float)x * S242F_SCALE;
 142:lib/libdaisy/src/daisy_core.h **** }
 143:lib/libdaisy/src/daisy_core.h **** /**
 144:lib/libdaisy/src/daisy_core.h ****     Converts float to Signed 24-bit
 145:lib/libdaisy/src/daisy_core.h ****  */
 146:lib/libdaisy/src/daisy_core.h **** FORCE_INLINE int32_t f2s24(float x)
 147:lib/libdaisy/src/daisy_core.h **** {
 148:lib/libdaisy/src/daisy_core.h ****     x = x <= FBIPMIN ? FBIPMIN : x;
ARM GAS  /var/folders/9s/8rp0_f2s1n31qbztm3b5_fdh0000gn/T//ccerGSgr.s 			page 9


 149:lib/libdaisy/src/daisy_core.h ****     x = x >= FBIPMAX ? FBIPMAX : x;
 150:lib/libdaisy/src/daisy_core.h ****     return (int32_t)(x * F2S24_SCALE);
 151:lib/libdaisy/src/daisy_core.h **** }
 152:lib/libdaisy/src/daisy_core.h **** 
 153:lib/libdaisy/src/daisy_core.h **** /**
 154:lib/libdaisy/src/daisy_core.h ****     Converts Signed 32-bit to float
 155:lib/libdaisy/src/daisy_core.h ****  */
 156:lib/libdaisy/src/daisy_core.h **** FORCE_INLINE float s322f(int32_t x)
 157:lib/libdaisy/src/daisy_core.h **** {
 158:lib/libdaisy/src/daisy_core.h ****     return (float)x * S322F_SCALE;
 159:lib/libdaisy/src/daisy_core.h **** }
 160:lib/libdaisy/src/daisy_core.h **** /**
 161:lib/libdaisy/src/daisy_core.h ****     Converts float to Signed 24-bit
 162:lib/libdaisy/src/daisy_core.h ****  */
 163:lib/libdaisy/src/daisy_core.h **** FORCE_INLINE int32_t f2s32(float x)
 164:lib/libdaisy/src/daisy_core.h **** {
 165:lib/libdaisy/src/daisy_core.h ****     x = x <= FBIPMIN ? FBIPMIN : x;
 166:lib/libdaisy/src/daisy_core.h ****     x = x >= FBIPMAX ? FBIPMAX : x;
 167:lib/libdaisy/src/daisy_core.h ****     return (int32_t)(x * F2S32_SCALE);
 168:lib/libdaisy/src/daisy_core.h **** }
 169:lib/libdaisy/src/daisy_core.h **** 
 170:lib/libdaisy/src/daisy_core.h **** 
 171:lib/libdaisy/src/daisy_core.h **** /** Enums and a simple struct for defining a hardware pin on the MCU
 172:lib/libdaisy/src/daisy_core.h ****  *  These correlate with the stm32 datasheet, and are used to configure
 173:lib/libdaisy/src/daisy_core.h ****  *  the hardware.
 174:lib/libdaisy/src/daisy_core.h ****  * 
 175:lib/libdaisy/src/daisy_core.h ****  *  This along with the dsy_gpio_pin class should no longer be used.
 176:lib/libdaisy/src/daisy_core.h ****  *  They are available for backwards compatability. 
 177:lib/libdaisy/src/daisy_core.h ****  * 
 178:lib/libdaisy/src/daisy_core.h ****  *  Please use GPIOPort enum and the Pin struct instead.
 179:lib/libdaisy/src/daisy_core.h ****  */
 180:lib/libdaisy/src/daisy_core.h **** typedef enum
 181:lib/libdaisy/src/daisy_core.h **** {
 182:lib/libdaisy/src/daisy_core.h ****     DSY_GPIOA, /**< & */
 183:lib/libdaisy/src/daisy_core.h ****     DSY_GPIOB, /**< & */
 184:lib/libdaisy/src/daisy_core.h ****     DSY_GPIOC, /**< & */
 185:lib/libdaisy/src/daisy_core.h ****     DSY_GPIOD, /**< & */
 186:lib/libdaisy/src/daisy_core.h ****     DSY_GPIOE, /**< & */
 187:lib/libdaisy/src/daisy_core.h ****     DSY_GPIOF, /**< & */
 188:lib/libdaisy/src/daisy_core.h ****     DSY_GPIOG, /**< & */
 189:lib/libdaisy/src/daisy_core.h ****     DSY_GPIOH, /**< & */
 190:lib/libdaisy/src/daisy_core.h ****     DSY_GPIOI, /**< & */
 191:lib/libdaisy/src/daisy_core.h ****     DSY_GPIOJ, /**< & */
 192:lib/libdaisy/src/daisy_core.h ****     DSY_GPIOK, /**< & */
 193:lib/libdaisy/src/daisy_core.h ****     DSY_GPIOX, /** This is a non-existant port for unsupported bits of hardware. */
 194:lib/libdaisy/src/daisy_core.h ****     DSY_GPIO_LAST, /** Final enum member */
 195:lib/libdaisy/src/daisy_core.h **** } dsy_gpio_port;
 196:lib/libdaisy/src/daisy_core.h **** 
 197:lib/libdaisy/src/daisy_core.h **** /** Hardware define pins 
 198:lib/libdaisy/src/daisy_core.h ****  *  
 199:lib/libdaisy/src/daisy_core.h ****  *  The dsy_gpio_pin struct should no longer be used, and is only available for
 200:lib/libdaisy/src/daisy_core.h ****  *  backwards compatability.
 201:lib/libdaisy/src/daisy_core.h ****  * 
 202:lib/libdaisy/src/daisy_core.h ****  *  Please use Pin struct instead.
 203:lib/libdaisy/src/daisy_core.h ****  */
 204:lib/libdaisy/src/daisy_core.h **** typedef struct
 205:lib/libdaisy/src/daisy_core.h **** {
ARM GAS  /var/folders/9s/8rp0_f2s1n31qbztm3b5_fdh0000gn/T//ccerGSgr.s 			page 10


 206:lib/libdaisy/src/daisy_core.h ****     dsy_gpio_port port; /**< & */
 207:lib/libdaisy/src/daisy_core.h ****     uint8_t       pin;  /**< number 0-15 */
 208:lib/libdaisy/src/daisy_core.h **** } dsy_gpio_pin;
 209:lib/libdaisy/src/daisy_core.h **** 
 210:lib/libdaisy/src/daisy_core.h **** /** Helper for creating pins from port/pin combos easily
 211:lib/libdaisy/src/daisy_core.h ****  * 
 212:lib/libdaisy/src/daisy_core.h ****  *  The dsy_gpio_pin struct should no longer be used, and is only available for
 213:lib/libdaisy/src/daisy_core.h ****  *  backwards compatability.
 214:lib/libdaisy/src/daisy_core.h ****  * 
 215:lib/libdaisy/src/daisy_core.h ****  *  Please use Pin struct instead.
 216:lib/libdaisy/src/daisy_core.h **** */
 217:lib/libdaisy/src/daisy_core.h **** FORCE_INLINE dsy_gpio_pin dsy_pin(dsy_gpio_port port, uint8_t pin)
 218:lib/libdaisy/src/daisy_core.h **** {
 219:lib/libdaisy/src/daisy_core.h ****     dsy_gpio_pin p;
 111              		.loc 3 219 5 view .LVU26
 220:lib/libdaisy/src/daisy_core.h ****     p.port = port;
 112              		.loc 3 220 5 view .LVU27
 221:lib/libdaisy/src/daisy_core.h ****     p.pin  = pin;
 113              		.loc 3 221 5 view .LVU28
 222:lib/libdaisy/src/daisy_core.h ****     return p;
 114              		.loc 3 222 5 view .LVU29
 115              		.loc 1 28 5 view .LVU30
 219:lib/libdaisy/src/daisy_core.h ****     p.port = port;
 116              		.loc 3 219 5 view .LVU31
 220:lib/libdaisy/src/daisy_core.h ****     p.pin  = pin;
 117              		.loc 3 220 5 view .LVU32
 221:lib/libdaisy/src/daisy_core.h ****     return p;
 118              		.loc 3 221 5 view .LVU33
 119              		.loc 3 222 5 view .LVU34
  27:SynthStateStorage.cpp ****     cfg.pin_config.io1 = dsy_pin(DSY_GPIOF, 9);
 120              		.loc 1 27 46 is_stmt 0 view .LVU35
 121 0014 0523     		movs	r3, #5
 122              		.loc 1 28 46 view .LVU36
 123 0016 8DF80320 		strb	r2, [sp, #3]
  29:SynthStateStorage.cpp ****     cfg.pin_config.io2 = dsy_pin(DSY_GPIOF, 7);
 124              		.loc 1 29 5 is_stmt 1 view .LVU37
 125              	.LVL4:
 219:lib/libdaisy/src/daisy_core.h ****     p.port = port;
 126              		.loc 3 219 5 view .LVU38
 220:lib/libdaisy/src/daisy_core.h ****     p.pin  = pin;
 127              		.loc 3 220 5 view .LVU39
 221:lib/libdaisy/src/daisy_core.h ****     return p;
 128              		.loc 3 221 5 view .LVU40
 129              		.loc 3 222 5 view .LVU41
 130              		.loc 1 29 46 is_stmt 0 view .LVU42
 131 001a 0722     		movs	r2, #7
  27:SynthStateStorage.cpp ****     cfg.pin_config.io1 = dsy_pin(DSY_GPIOF, 9);
 132              		.loc 1 27 46 view .LVU43
 133 001c 8DF80030 		strb	r3, [sp]
  28:SynthStateStorage.cpp ****     cfg.pin_config.io2 = dsy_pin(DSY_GPIOF, 7);
 134              		.loc 1 28 46 view .LVU44
 135 0020 8DF80230 		strb	r3, [sp, #2]
 136              		.loc 1 29 46 view .LVU45
 137 0024 8DF80430 		strb	r3, [sp, #4]
 138 0028 8DF80520 		strb	r2, [sp, #5]
  30:SynthStateStorage.cpp ****     cfg.pin_config.io3 = dsy_pin(DSY_GPIOF, 6);
 139              		.loc 1 30 5 is_stmt 1 view .LVU46
ARM GAS  /var/folders/9s/8rp0_f2s1n31qbztm3b5_fdh0000gn/T//ccerGSgr.s 			page 11


 140              	.LVL5:
 219:lib/libdaisy/src/daisy_core.h ****     p.port = port;
 141              		.loc 3 219 5 view .LVU47
 220:lib/libdaisy/src/daisy_core.h ****     p.pin  = pin;
 142              		.loc 3 220 5 view .LVU48
 221:lib/libdaisy/src/daisy_core.h ****     return p;
 143              		.loc 3 221 5 view .LVU49
 144              		.loc 3 222 5 view .LVU50
 145              		.loc 1 30 46 is_stmt 0 view .LVU51
 146 002c 0622     		movs	r2, #6
 147 002e 8DF80630 		strb	r3, [sp, #6]
  31:SynthStateStorage.cpp ****     cfg.pin_config.clk = dsy_pin(DSY_GPIOF,10);
 148              		.loc 1 31 46 view .LVU52
 149 0032 8DF80830 		strb	r3, [sp, #8]
 150 0036 0A23     		movs	r3, #10
  30:SynthStateStorage.cpp ****     cfg.pin_config.clk = dsy_pin(DSY_GPIOF,10);
 151              		.loc 1 30 46 view .LVU53
 152 0038 8DF80720 		strb	r2, [sp, #7]
 153              		.loc 1 31 5 is_stmt 1 view .LVU54
 154              	.LVL6:
 219:lib/libdaisy/src/daisy_core.h ****     p.port = port;
 155              		.loc 3 219 5 view .LVU55
 220:lib/libdaisy/src/daisy_core.h ****     p.pin  = pin;
 156              		.loc 3 220 5 view .LVU56
 221:lib/libdaisy/src/daisy_core.h ****     return p;
 157              		.loc 3 221 5 view .LVU57
 158              		.loc 3 222 5 view .LVU58
 159              		.loc 1 31 46 is_stmt 0 view .LVU59
 160 003c 8DF80930 		strb	r3, [sp, #9]
  32:SynthStateStorage.cpp ****     cfg.pin_config.ncs = dsy_pin(DSY_GPIOG, 6);
 161              		.loc 1 32 5 is_stmt 1 view .LVU60
 162              	.LVL7:
 219:lib/libdaisy/src/daisy_core.h ****     p.port = port;
 163              		.loc 3 219 5 view .LVU61
 220:lib/libdaisy/src/daisy_core.h ****     p.pin  = pin;
 164              		.loc 3 220 5 view .LVU62
 221:lib/libdaisy/src/daisy_core.h ****     return p;
 165              		.loc 3 221 5 view .LVU63
 166              		.loc 3 222 5 view .LVU64
 167              		.loc 1 32 46 is_stmt 0 view .LVU65
 168 0040 8DF80A20 		strb	r2, [sp, #10]
 169 0044 8DF80B20 		strb	r2, [sp, #11]
  33:SynthStateStorage.cpp ****     auto &qspi = GetQSPI();
 170              		.loc 1 33 5 is_stmt 1 view .LVU66
 171              		.loc 1 33 26 is_stmt 0 view .LVU67
 172 0048 FFF7FEFF 		bl	_ZN12_GLOBAL__N_17GetQSPIEv
 173              	.LVL8:
 174              		.loc 1 33 26 view .LVU68
 175 004c 0446     		mov	r4, r0
 176              	.LVL9:
  34:SynthStateStorage.cpp ****     qspi.DeInit();
 177              		.loc 1 34 5 is_stmt 1 view .LVU69
 178              		.loc 1 34 16 is_stmt 0 view .LVU70
 179 004e FFF7FEFF 		bl	_ZN5daisy10QSPIHandle6DeInitEv
 180              	.LVL10:
  35:SynthStateStorage.cpp ****     qspi.Init(cfg);
 181              		.loc 1 35 5 is_stmt 1 view .LVU71
ARM GAS  /var/folders/9s/8rp0_f2s1n31qbztm3b5_fdh0000gn/T//ccerGSgr.s 			page 12


 182              		.loc 1 35 14 is_stmt 0 view .LVU72
 183 0052 6946     		mov	r1, sp
 184 0054 2046     		mov	r0, r4
 185 0056 FFF7FEFF 		bl	_ZN5daisy10QSPIHandle4InitERKNS0_6ConfigE
 186              	.LVL11:
  36:SynthStateStorage.cpp **** }
 187              		.loc 1 36 1 view .LVU73
 188 005a 04B0     		add	sp, sp, #16
 189              		.cfi_def_cfa_offset 8
 190              		@ sp needed
 191 005c 10BD     		pop	{r4, pc}
 192              		.loc 1 36 1 view .LVU74
 193              		.cfi_endproc
 194              	.LFE2153:
 196              		.align	1
 197              		.global	_ZN17SynthStateStorage4LoadERi
 198              		.syntax unified
 199              		.thumb
 200              		.thumb_func
 202              	_ZN17SynthStateStorage4LoadERi:
 203              	.LVL12:
 204              	.LFB2154:
  37:SynthStateStorage.cpp **** }
  38:SynthStateStorage.cpp **** 
  39:SynthStateStorage.cpp **** namespace SynthStateStorage {
  40:SynthStateStorage.cpp **** 
  41:SynthStateStorage.cpp **** QSPIFUNC bool Load(int &engine_index) {
 205              		.loc 1 41 39 is_stmt 1 view -0
 206              		.cfi_startproc
 207              		@ args = 0, pretend = 0, frame = 0
 208              		@ frame_needed = 0, uses_anonymous_args = 0
 209              		@ link register save eliminated.
  42:SynthStateStorage.cpp ****     const SynthState *state = reinterpret_cast<const SynthState *>(kFlashBase);
 210              		.loc 1 42 5 view .LVU76
  43:SynthStateStorage.cpp ****     if(state->magic != kMagic) { return false; }
 211              		.loc 1 43 5 view .LVU77
 212              		.loc 1 43 15 is_stmt 0 view .LVU78
 213 005e 4FF01042 		mov	r2, #-1879048192
 214              		.loc 1 43 5 view .LVU79
 215 0062 0749     		ldr	r1, .L10
 216 0064 1368     		ldr	r3, [r2]
 217 0066 8B42     		cmp	r3, r1
 218 0068 07D1     		bne	.L9
  44:SynthStateStorage.cpp ****     if(state->crc != CalcCrc(state->magic, state->engine_index)) { return false; }
 219              		.loc 1 44 5 is_stmt 1 view .LVU80
 220              		.loc 1 44 51 is_stmt 0 view .LVU81
 221 006a 5168     		ldr	r1, [r2, #4]
 222              	.LVL13:
 223              	.LBB23:
 224              	.LBI23:
  13:SynthStateStorage.cpp **** 
 225              		.loc 1 13 17 is_stmt 1 view .LVU82
 226              	.LBB24:
  13:SynthStateStorage.cpp **** 
 227              		.loc 1 13 59 view .LVU83
  13:SynthStateStorage.cpp **** 
 228              		.loc 1 13 59 is_stmt 0 view .LVU84
ARM GAS  /var/folders/9s/8rp0_f2s1n31qbztm3b5_fdh0000gn/T//ccerGSgr.s 			page 13


 229              	.LBE24:
 230              	.LBE23:
 231              		.loc 1 44 5 view .LVU85
 232 006c 9268     		ldr	r2, [r2, #8]
 233              	.LBB26:
 234              	.LBB25:
  13:SynthStateStorage.cpp **** 
 235              		.loc 1 13 102 view .LVU86
 236 006e 4B40     		eors	r3, r3, r1
 237              	.LBE25:
 238              	.LBE26:
 239              		.loc 1 44 5 view .LVU87
 240 0070 9A42     		cmp	r2, r3
 241 0072 02D1     		bne	.L9
  45:SynthStateStorage.cpp ****     engine_index = state->engine_index;
 242              		.loc 1 45 5 is_stmt 1 view .LVU88
 243              		.loc 1 45 18 is_stmt 0 view .LVU89
 244 0074 0160     		str	r1, [r0]
  46:SynthStateStorage.cpp ****     return true;
 245              		.loc 1 46 5 is_stmt 1 view .LVU90
 246              		.loc 1 46 12 is_stmt 0 view .LVU91
 247 0076 0120     		movs	r0, #1
 248              	.LVL14:
 249              		.loc 1 46 12 view .LVU92
 250 0078 7047     		bx	lr
 251              	.LVL15:
 252              	.L9:
  43:SynthStateStorage.cpp ****     if(state->crc != CalcCrc(state->magic, state->engine_index)) { return false; }
 253              		.loc 1 43 41 view .LVU93
 254 007a 0020     		movs	r0, #0
 255              	.LVL16:
  47:SynthStateStorage.cpp **** }
 256              		.loc 1 47 1 view .LVU94
 257 007c 7047     		bx	lr
 258              	.L11:
 259 007e 00BF     		.align	2
 260              	.L10:
 261 0080 59534854 		.word	1414026073
 262              		.cfi_endproc
 263              	.LFE2154:
 265              		.align	1
 266              		.global	_ZN17SynthStateStorage4SaveEi
 267              		.syntax unified
 268              		.thumb
 269              		.thumb_func
 271              	_ZN17SynthStateStorage4SaveEi:
 272              	.LVL17:
 273              	.LFB2155:
  48:SynthStateStorage.cpp **** 
  49:SynthStateStorage.cpp **** QSPIFUNC void Save(int engine_index) {
 274              		.loc 1 49 38 is_stmt 1 view -0
 275              		.cfi_startproc
 276              		@ args = 0, pretend = 0, frame = 16
 277              		@ frame_needed = 0, uses_anonymous_args = 0
  50:SynthStateStorage.cpp ****     SynthState state{};
 278              		.loc 1 50 5 view .LVU96
  51:SynthStateStorage.cpp ****     state.magic = kMagic;
ARM GAS  /var/folders/9s/8rp0_f2s1n31qbztm3b5_fdh0000gn/T//ccerGSgr.s 			page 14


 279              		.loc 1 51 5 view .LVU97
  49:SynthStateStorage.cpp ****     SynthState state{};
 280              		.loc 1 49 38 is_stmt 0 view .LVU98
 281 0084 1FB5     		push	{r0, r1, r2, r3, r4, lr}
 282              		.cfi_def_cfa_offset 24
 283              		.cfi_offset 4, -8
 284              		.cfi_offset 14, -4
 285              		.loc 1 51 17 view .LVU99
 286 0086 0C4B     		ldr	r3, .L13
  52:SynthStateStorage.cpp ****     state.engine_index = engine_index;
 287              		.loc 1 52 24 view .LVU100
 288 0088 CDE90130 		strd	r3, r0, [sp, #4]
  53:SynthStateStorage.cpp ****     state.crc = CalcCrc(state.magic, state.engine_index);
 289              		.loc 1 53 5 is_stmt 1 view .LVU101
 290              	.LVL18:
 291              	.LBB27:
 292              	.LBI27:
  13:SynthStateStorage.cpp **** 
 293              		.loc 1 13 17 view .LVU102
 294              	.LBB28:
  13:SynthStateStorage.cpp **** 
 295              		.loc 1 13 59 view .LVU103
  13:SynthStateStorage.cpp **** 
 296              		.loc 1 13 102 is_stmt 0 view .LVU104
 297 008c 5840     		eors	r0, r0, r3
 298              	.LVL19:
  13:SynthStateStorage.cpp **** 
 299              		.loc 1 13 102 view .LVU105
 300              	.LBE28:
 301              	.LBE27:
 302              		.loc 1 53 15 view .LVU106
 303 008e 0390     		str	r0, [sp, #12]
  54:SynthStateStorage.cpp **** 
  55:SynthStateStorage.cpp ****     ConfigureQSPI(QSPIHandle::Config::Mode::INDIRECT_POLLING);
 304              		.loc 1 55 5 is_stmt 1 view .LVU107
 305              		.loc 1 55 18 is_stmt 0 view .LVU108
 306 0090 0120     		movs	r0, #1
 307 0092 FFF7B5FF 		bl	_ZN12_GLOBAL__N_113ConfigureQSPIEN5daisy10QSPIHandle6Config4ModeE
 308              	.LVL20:
  56:SynthStateStorage.cpp ****     auto &qspi = GetQSPI();
 309              		.loc 1 56 5 is_stmt 1 view .LVU109
 310              		.loc 1 56 26 is_stmt 0 view .LVU110
 311 0096 FFF7FEFF 		bl	_ZN12_GLOBAL__N_17GetQSPIEv
 312              	.LVL21:
 313 009a 0446     		mov	r4, r0
 314              	.LVL22:
  57:SynthStateStorage.cpp ****     qspi.EraseSector(0);
 315              		.loc 1 57 5 is_stmt 1 view .LVU111
 316              		.loc 1 57 21 is_stmt 0 view .LVU112
 317 009c 0021     		movs	r1, #0
 318 009e FFF7FEFF 		bl	_ZN5daisy10QSPIHandle11EraseSectorEm
 319              	.LVL23:
  58:SynthStateStorage.cpp ****     qspi.Write(0, sizeof(state), reinterpret_cast<uint8_t *>(&state));
 320              		.loc 1 58 5 is_stmt 1 view .LVU113
 321              		.loc 1 58 15 is_stmt 0 view .LVU114
 322 00a2 01AB     		add	r3, sp, #4
 323 00a4 0C22     		movs	r2, #12
ARM GAS  /var/folders/9s/8rp0_f2s1n31qbztm3b5_fdh0000gn/T//ccerGSgr.s 			page 15


 324 00a6 0021     		movs	r1, #0
 325 00a8 2046     		mov	r0, r4
 326 00aa FFF7FEFF 		bl	_ZN5daisy10QSPIHandle5WriteEmmPh
 327              	.LVL24:
  59:SynthStateStorage.cpp ****     ConfigureQSPI(QSPIHandle::Config::Mode::MEMORY_MAPPED);
 328              		.loc 1 59 5 is_stmt 1 view .LVU115
 329              		.loc 1 59 18 is_stmt 0 view .LVU116
 330 00ae 0020     		movs	r0, #0
 331 00b0 FFF7A6FF 		bl	_ZN12_GLOBAL__N_113ConfigureQSPIEN5daisy10QSPIHandle6Config4ModeE
 332              	.LVL25:
  60:SynthStateStorage.cpp **** }
 333              		.loc 1 60 1 view .LVU117
 334 00b4 04B0     		add	sp, sp, #16
 335              		.cfi_def_cfa_offset 8
 336              		@ sp needed
 337 00b6 10BD     		pop	{r4, pc}
 338              	.LVL26:
 339              	.L14:
 340              		.loc 1 60 1 view .LVU118
 341              		.align	2
 342              	.L13:
 343 00b8 59534854 		.word	1414026073
 344              		.cfi_endproc
 345              	.LFE2155:
 347              		.align	1
 348              		.global	_ZN17SynthStateStorage16InitMemoryMappedEv
 349              		.syntax unified
 350              		.thumb
 351              		.thumb_func
 353              	_ZN17SynthStateStorage16InitMemoryMappedEv:
 354              	.LFB2156:
  61:SynthStateStorage.cpp **** 
  62:SynthStateStorage.cpp **** QSPIFUNC void InitMemoryMapped() {
 355              		.loc 1 62 34 is_stmt 1 view -0
 356              		.cfi_startproc
 357              		@ args = 0, pretend = 0, frame = 0
 358              		@ frame_needed = 0, uses_anonymous_args = 0
 359              		@ link register save eliminated.
  63:SynthStateStorage.cpp ****     ConfigureQSPI(QSPIHandle::Config::Mode::MEMORY_MAPPED);
 360              		.loc 1 63 5 view .LVU120
 361              		.loc 1 63 18 is_stmt 0 view .LVU121
 362 00bc 0020     		movs	r0, #0
 363 00be 9FE7     		b	_ZN12_GLOBAL__N_113ConfigureQSPIEN5daisy10QSPIHandle6Config4ModeE
 364              	.LVL27:
 365              		.cfi_endproc
 366              	.LFE2156:
 368              		.section	.bss._ZZN12_GLOBAL__N_17GetQSPIEvE8qspi_ptr,"aw",%nobits
 369              		.align	2
 370              		.set	.LANCHOR0,. + 0
 373              	_ZZN12_GLOBAL__N_17GetQSPIEvE8qspi_ptr:
 374 0000 00000000 		.space	4
 375              		.text
 376              	.Letext0:
 377              		.file 4 "/Library/DaisyToolchain/0.2.0/arm/arm-none-eabi/include/machine/_default_types.h"
 378              		.file 5 "/Library/DaisyToolchain/0.2.0/arm/arm-none-eabi/include/sys/_stdint.h"
 379              		.file 6 "/Library/DaisyToolchain/0.2.0/arm/arm-none-eabi/include/stdint.h"
 380              		.file 7 "/Library/DaisyToolchain/0.2.0/arm/lib/gcc/arm-none-eabi/10.3.1/include/stddef.h"
ARM GAS  /var/folders/9s/8rp0_f2s1n31qbztm3b5_fdh0000gn/T//ccerGSgr.s 			page 16


 381              		.file 8 "/Library/DaisyToolchain/0.2.0/arm/arm-none-eabi/include/c++/10.3.1/cmath"
 382              		.file 9 "/Library/DaisyToolchain/0.2.0/arm/arm-none-eabi/include/c++/10.3.1/bits/std_abs.h"
 383              		.file 10 "/Library/DaisyToolchain/0.2.0/arm/arm-none-eabi/include/c++/10.3.1/cstdlib"
 384              		.file 11 "/Library/DaisyToolchain/0.2.0/arm/arm-none-eabi/include/c++/10.3.1/cstdint"
 385              		.file 12 "/Library/DaisyToolchain/0.2.0/arm/arm-none-eabi/include/c++/10.3.1/type_traits"
 386              		.file 13 "/Library/DaisyToolchain/0.2.0/arm/arm-none-eabi/include/c++/10.3.1/debug/debug.h"
 387              		.file 14 "/Library/DaisyToolchain/0.2.0/arm/arm-none-eabi/include/c++/10.3.1/arm-none-eabi/thumb/v
 388              		.file 15 "/Library/DaisyToolchain/0.2.0/arm/arm-none-eabi/include/c++/10.3.1/bits/algorithmfwd.h"
 389              		.file 16 "/Library/DaisyToolchain/0.2.0/arm/arm-none-eabi/include/c++/10.3.1/bits/stl_pair.h"
 390              		.file 17 "/Library/DaisyToolchain/0.2.0/arm/arm-none-eabi/include/c++/10.3.1/bits/exception_ptr.h"
 391              		.file 18 "/Library/DaisyToolchain/0.2.0/arm/arm-none-eabi/include/c++/10.3.1/cstdarg"
 392              		.file 19 "/Library/DaisyToolchain/0.2.0/arm/arm-none-eabi/include/c++/10.3.1/cstdio"
 393              		.file 20 "/Library/DaisyToolchain/0.2.0/arm/arm-none-eabi/include/c++/10.3.1/cstring"
 394              		.file 21 "/Library/DaisyToolchain/0.2.0/arm/arm-none-eabi/include/c++/10.3.1/bits/predefined_ops.h
 395              		.file 22 "/Library/DaisyToolchain/0.2.0/arm/arm-none-eabi/include/sys/_types.h"
 396              		.file 23 "/Library/DaisyToolchain/0.2.0/arm/arm-none-eabi/include/sys/reent.h"
 397              		.file 24 "/Library/DaisyToolchain/0.2.0/arm/arm-none-eabi/include/sys/lock.h"
 398              		.file 25 "/Library/DaisyToolchain/0.2.0/arm/arm-none-eabi/include/math.h"
 399              		.file 26 "/Library/DaisyToolchain/0.2.0/arm/arm-none-eabi/include/stdlib.h"
 400              		.file 27 "/Library/DaisyToolchain/0.2.0/arm/arm-none-eabi/include/c++/10.3.1/math.h"
 401              		.file 28 "/Library/DaisyToolchain/0.2.0/arm/arm-none-eabi/include/c++/10.3.1/stdlib.h"
 402              		.file 29 "lib/libdaisy/src/util/wav_format.h"
 403              		.file 30 "lib/libdaisy/src/daisy_seed.h"
 404              		.file 31 "/Library/DaisyToolchain/0.2.0/arm/lib/gcc/arm-none-eabi/10.3.1/include/stdarg.h"
 405              		.file 32 "/Library/DaisyToolchain/0.2.0/arm/arm-none-eabi/include/stdio.h"
 406              		.file 33 "/Library/DaisyToolchain/0.2.0/arm/arm-none-eabi/include/string.h"
 407              		.file 34 "SynthStateStorage.h"
 408              		.file 35 "lib/libdaisy/src/dev/sr_595.h"
 409              		.file 36 "<built-in>"
 410              		.file 37 "/Library/DaisyToolchain/0.2.0/arm/arm-none-eabi/include/c++/10.3.1/new"
ARM GAS  /var/folders/9s/8rp0_f2s1n31qbztm3b5_fdh0000gn/T//ccerGSgr.s 			page 17

