ARM GAS  /var/folders/9s/8rp0_f2s1n31qbztm3b5_fdh0000gn/T//ccdm6TqO.s 			page 1


   1              		.cpu cortex-m7
   2              		.arch armv7e-m
   3              		.fpu fpv5-d16
   4              		.eabi_attribute 28, 1
   5              		.eabi_attribute 20, 1
   6              		.eabi_attribute 21, 1
   7              		.eabi_attribute 23, 3
   8              		.eabi_attribute 24, 1
   9              		.eabi_attribute 25, 1
  10              		.eabi_attribute 26, 1
  11              		.eabi_attribute 30, 4
  12              		.eabi_attribute 34, 1
  13              		.eabi_attribute 18, 4
  14              		.file	"Thaumazein.cpp"
  15              		.text
  16              	.Ltext0:
  17              		.cfi_sections	.debug_frame
  18              		.section	.rodata._Z13UpdateDisplayv.part.0.str1.1,"aMS",%progbits,1
  19              	.LC0:
  20 0000 506F6C79 		.ascii	"Poly-4\000"
  20      2D3400
  21              	.LC1:
  22 0007 4D6F6E6F 		.ascii	"Mono\000"
  22      00
  23              	.LC2:
  24 000c 4350553A 		.ascii	"CPU: %d\012\000"
  24      2025640A 
  24      00
  25              	.LC3:
  26 0015 456E6769 		.ascii	"Engine: %d (%s)\012\000"
  26      6E653A20 
  26      25642028 
  26      2573290A 
  26      00
  27              	.LC4:
  28 0026 41444320 		.ascii	"ADC Values (8-11):\012\000"
  28      56616C75 
  28      65732028 
  28      382D3131 
  28      293A0A00 
  29              	.LC5:
  30 003a 5B25645D 		.ascii	"[%d]: %d\012\000"
  30      3A202564 
  30      0A00
  31              	.LC6:
  32 0044 2D2D2D2D 		.ascii	"--------\000"
  32      2D2D2D2D 
  32      00
  33              	.LC7:
  34 004d 257300   		.ascii	"%s\000"
  35              		.section	.text._Z13UpdateDisplayv.part.0,"ax",%progbits
  36              		.align	1
  37              		.syntax unified
  38              		.thumb
  39              		.thumb_func
  41              	_Z13UpdateDisplayv.part.0:
  42              	.LFB6570:
ARM GAS  /var/folders/9s/8rp0_f2s1n31qbztm3b5_fdh0000gn/T//ccdm6TqO.s 			page 2


  43              		.file 1 "Thaumazein.cpp"
   1:Thaumazein.cpp **** #include "Thaumazein.h"
   2:Thaumazein.cpp **** 
   3:Thaumazein.cpp **** // Define shared volatile variables
   4:Thaumazein.cpp **** volatile uint16_t current_touch_state = 0;
   5:Thaumazein.cpp **** volatile float touch_cv_value = 0.0f;
   6:Thaumazein.cpp **** 
   7:Thaumazein.cpp **** void UpdateDisplay() {
  44              		.loc 1 7 6 view -0
  45              		.cfi_startproc
  46              		@ args = 0, pretend = 0, frame = 512
  47              		@ frame_needed = 0, uses_anonymous_args = 0
  48              	.LBB69:
   8:Thaumazein.cpp ****     if (update_display) {
   9:Thaumazein.cpp ****         // Build stats message in a smaller buffer
  10:Thaumazein.cpp ****         char msg[512];
  49              		.loc 1 10 9 view .LVU1
  11:Thaumazein.cpp ****         int pos = 0;
  50              		.loc 1 11 9 view .LVU2
  51              	.LVL0:
  12:Thaumazein.cpp **** 
  13:Thaumazein.cpp ****         // CPU Load
  14:Thaumazein.cpp ****         float avg_cpu_load = cpu_meter.GetAvgCpuLoad();
  52              		.loc 1 14 9 view .LVU3
  53              	.LBB70:
  54              	.LBI70:
  55              		.file 2 "lib/libdaisy/src/util/CpuLoadMeter.h"
   1:lib/libdaisy/src/util/CpuLoadMeter.h **** #pragma once
   2:lib/libdaisy/src/util/CpuLoadMeter.h **** 
   3:lib/libdaisy/src/util/CpuLoadMeter.h **** #include "sys/system.h"
   4:lib/libdaisy/src/util/CpuLoadMeter.h **** #include <cmath>
   5:lib/libdaisy/src/util/CpuLoadMeter.h **** 
   6:lib/libdaisy/src/util/CpuLoadMeter.h **** namespace daisy
   7:lib/libdaisy/src/util/CpuLoadMeter.h **** {
   8:lib/libdaisy/src/util/CpuLoadMeter.h **** /** @brief CPU load metering
   9:lib/libdaisy/src/util/CpuLoadMeter.h ****  *  @author jelliesen
  10:lib/libdaisy/src/util/CpuLoadMeter.h ****  *  @addtogroup utility
  11:lib/libdaisy/src/util/CpuLoadMeter.h ****  * 
  12:lib/libdaisy/src/util/CpuLoadMeter.h ****  *  To measure the CPU load of your audio processing, create a CpuLoadMeter
  13:lib/libdaisy/src/util/CpuLoadMeter.h ****  *  and initialize it with your block size and sample rate.
  14:lib/libdaisy/src/util/CpuLoadMeter.h ****  *  Then at the beginning of the audio callback, call `OnBlockStart()`, 
  15:lib/libdaisy/src/util/CpuLoadMeter.h ****  *  and at the end of the audio callback, call `OnBlockEnd()`.
  16:lib/libdaisy/src/util/CpuLoadMeter.h ****  *  You can then read out the minimum, maximum and average CPU load.
  17:lib/libdaisy/src/util/CpuLoadMeter.h ****  */
  18:lib/libdaisy/src/util/CpuLoadMeter.h **** class CpuLoadMeter
  19:lib/libdaisy/src/util/CpuLoadMeter.h **** {
  20:lib/libdaisy/src/util/CpuLoadMeter.h ****   public:
  21:lib/libdaisy/src/util/CpuLoadMeter.h ****     CpuLoadMeter(){};
  22:lib/libdaisy/src/util/CpuLoadMeter.h **** 
  23:lib/libdaisy/src/util/CpuLoadMeter.h ****     /** Initializes the CpuLoadMeter for a particular sample rate and block size.
  24:lib/libdaisy/src/util/CpuLoadMeter.h ****      *  @param sampleRateInHz           The sample rate in Hz
  25:lib/libdaisy/src/util/CpuLoadMeter.h ****      *  @param blockSizeInSamples       The block size in samples
  26:lib/libdaisy/src/util/CpuLoadMeter.h ****      *  @param smoothingFilterCutoffHz  The cutoff frequency of the smoothing filter that's used to
  27:lib/libdaisy/src/util/CpuLoadMeter.h ****      *                                  create the average CPU load reading.
  28:lib/libdaisy/src/util/CpuLoadMeter.h ****      */
  29:lib/libdaisy/src/util/CpuLoadMeter.h ****     void Init(float sampleRateInHz,
  30:lib/libdaisy/src/util/CpuLoadMeter.h ****               int   blockSizeInSamples,
ARM GAS  /var/folders/9s/8rp0_f2s1n31qbztm3b5_fdh0000gn/T//ccdm6TqO.s 			page 3


  31:lib/libdaisy/src/util/CpuLoadMeter.h ****               float smoothingFilterCutoffHz = 1.0f)
  32:lib/libdaisy/src/util/CpuLoadMeter.h ****     {
  33:lib/libdaisy/src/util/CpuLoadMeter.h ****         const auto secPerBlock = float(blockSizeInSamples) / sampleRateInHz;
  34:lib/libdaisy/src/util/CpuLoadMeter.h ****         const auto ticksPerS   = float(System::GetTickFreq());
  35:lib/libdaisy/src/util/CpuLoadMeter.h ****         ticksPerBlockInv_      = 1.0f / (ticksPerS * secPerBlock);
  36:lib/libdaisy/src/util/CpuLoadMeter.h **** 
  37:lib/libdaisy/src/util/CpuLoadMeter.h ****         // update filter coefficient for smoothing filter (1pole lowpass)
  38:lib/libdaisy/src/util/CpuLoadMeter.h ****         const auto blockRateInHz = sampleRateInHz / float(blockSizeInSamples);
  39:lib/libdaisy/src/util/CpuLoadMeter.h ****         const auto cutoffNormalized
  40:lib/libdaisy/src/util/CpuLoadMeter.h ****             = smoothingFilterCutoffHz * 2.0f * 3.141592653f / blockRateInHz;
  41:lib/libdaisy/src/util/CpuLoadMeter.h ****         // according to
  42:lib/libdaisy/src/util/CpuLoadMeter.h ****         // https://en.wikipedia.org/wiki/Low-pass_filter#Simple_infinite_impulse_response_filter
  43:lib/libdaisy/src/util/CpuLoadMeter.h ****         smoothingConstant_ = cutoffNormalized / (cutoffNormalized + 1.0f);
  44:lib/libdaisy/src/util/CpuLoadMeter.h **** 
  45:lib/libdaisy/src/util/CpuLoadMeter.h ****         Reset();
  46:lib/libdaisy/src/util/CpuLoadMeter.h ****     }
  47:lib/libdaisy/src/util/CpuLoadMeter.h **** 
  48:lib/libdaisy/src/util/CpuLoadMeter.h ****     /** Call this at the beginning of your audio callback */
  49:lib/libdaisy/src/util/CpuLoadMeter.h ****     void OnBlockStart() { currentBlockStartTicks_ = System::GetTick(); }
  50:lib/libdaisy/src/util/CpuLoadMeter.h **** 
  51:lib/libdaisy/src/util/CpuLoadMeter.h ****     /** Call this at the end of your audio callback */
  52:lib/libdaisy/src/util/CpuLoadMeter.h ****     void OnBlockEnd()
  53:lib/libdaisy/src/util/CpuLoadMeter.h ****     {
  54:lib/libdaisy/src/util/CpuLoadMeter.h ****         const auto end         = System::GetTick();
  55:lib/libdaisy/src/util/CpuLoadMeter.h ****         const auto ticksPassed = end - currentBlockStartTicks_;
  56:lib/libdaisy/src/util/CpuLoadMeter.h ****         const auto currentBlockLoad
  57:lib/libdaisy/src/util/CpuLoadMeter.h ****             = float(ticksPassed) * ticksPerBlockInv_; // usPassed / usPerBlock
  58:lib/libdaisy/src/util/CpuLoadMeter.h **** 
  59:lib/libdaisy/src/util/CpuLoadMeter.h ****         if(firstCycle_)
  60:lib/libdaisy/src/util/CpuLoadMeter.h ****         {
  61:lib/libdaisy/src/util/CpuLoadMeter.h ****             max_ = min_ = avg_ = currentBlockLoad;
  62:lib/libdaisy/src/util/CpuLoadMeter.h ****             firstCycle_        = false;
  63:lib/libdaisy/src/util/CpuLoadMeter.h ****         }
  64:lib/libdaisy/src/util/CpuLoadMeter.h ****         else
  65:lib/libdaisy/src/util/CpuLoadMeter.h ****         {
  66:lib/libdaisy/src/util/CpuLoadMeter.h ****             if(currentBlockLoad > max_)
  67:lib/libdaisy/src/util/CpuLoadMeter.h ****                 max_ = currentBlockLoad;
  68:lib/libdaisy/src/util/CpuLoadMeter.h ****             if(currentBlockLoad < min_)
  69:lib/libdaisy/src/util/CpuLoadMeter.h ****                 min_ = currentBlockLoad;
  70:lib/libdaisy/src/util/CpuLoadMeter.h **** 
  71:lib/libdaisy/src/util/CpuLoadMeter.h ****             avg_ = smoothingConstant_ * currentBlockLoad
  72:lib/libdaisy/src/util/CpuLoadMeter.h ****                    + (1.0f - smoothingConstant_) * avg_;
  73:lib/libdaisy/src/util/CpuLoadMeter.h ****         }
  74:lib/libdaisy/src/util/CpuLoadMeter.h ****     }
  75:lib/libdaisy/src/util/CpuLoadMeter.h **** 
  76:lib/libdaisy/src/util/CpuLoadMeter.h ****     /** Returns the smoothed average CPU load in the range 0..1 */
  77:lib/libdaisy/src/util/CpuLoadMeter.h ****     float GetAvgCpuLoad() const { return avg_; }
  56              		.loc 2 77 11 view .LVU4
  57              	.LBB71:
  58              		.loc 2 77 35 view .LVU5
  59              		.loc 2 77 35 is_stmt 0 view .LVU6
  60              	.LBE71:
  61              	.LBE70:
  15:Thaumazein.cpp ****         int cpu_percent_int = static_cast<int>(avg_cpu_load * 100.0f);
  62              		.loc 1 15 9 is_stmt 1 view .LVU7
  16:Thaumazein.cpp ****         cpu_percent_int = cpu_percent_int < 0 ? 0 : (cpu_percent_int > 100 ? 100 : cpu_percent_int)
  63              		.loc 1 16 9 view .LVU8
ARM GAS  /var/folders/9s/8rp0_f2s1n31qbztm3b5_fdh0000gn/T//ccdm6TqO.s 			page 4


  17:Thaumazein.cpp ****         pos += snprintf(msg + pos, sizeof(msg) - pos, "CPU: %d\n", cpu_percent_int);
  64              		.loc 1 17 9 view .LVU9
  65              	.LBB73:
  66              	.LBB72:
  67              		.loc 2 77 42 is_stmt 0 view .LVU10
  68 0000 2F4B     		ldr	r3, .L7
  69              	.LBE72:
  70              	.LBE73:
  71              		.loc 1 17 24 view .LVU11
  72 0002 4FF40071 		mov	r1, #512
  15:Thaumazein.cpp ****         int cpu_percent_int = static_cast<int>(avg_cpu_load * 100.0f);
  73              		.loc 1 15 61 view .LVU12
  74 0006 9FED2F7A 		vldr.32	s14, .L7+4
  75 000a D3ED057A 		vldr.32	s15, [r3, #20]
  76              		.loc 1 17 24 view .LVU13
  77 000e 2E4A     		ldr	r2, .L7+8
  15:Thaumazein.cpp ****         int cpu_percent_int = static_cast<int>(avg_cpu_load * 100.0f);
  78              		.loc 1 15 61 view .LVU14
  79 0010 67EE877A 		vmul.f32	s15, s15, s14
  80              	.LBE69:
   7:Thaumazein.cpp ****     if (update_display) {
  81              		.loc 1 7 6 view .LVU15
  82 0014 30B5     		push	{r4, r5, lr}
  83              		.cfi_def_cfa_offset 12
  84              		.cfi_offset 4, -12
  85              		.cfi_offset 5, -8
  86              		.cfi_offset 14, -4
  87              	.LBB78:
  15:Thaumazein.cpp ****         cpu_percent_int = cpu_percent_int < 0 ? 0 : (cpu_percent_int > 100 ? 100 : cpu_percent_int)
  88              		.loc 1 15 13 view .LVU16
  89 0016 FDEEE77A 		vcvt.s32.f32	s15, s15
  90              	.LBE78:
   7:Thaumazein.cpp ****     if (update_display) {
  91              		.loc 1 7 6 view .LVU17
  92 001a ADF5037D 		sub	sp, sp, #524
  93              		.cfi_def_cfa_offset 536
  94              	.LBB79:
  95              	.LBB74:
  18:Thaumazein.cpp **** 
  19:Thaumazein.cpp ****         // Engine Info
  20:Thaumazein.cpp ****         int current_engine_idx = current_engine_index;
  21:Thaumazein.cpp ****         pos += snprintf(msg + pos, sizeof(msg) - pos, "Engine: %d (%s)\n", current_engine_idx, (cur
  22:Thaumazein.cpp **** 
  23:Thaumazein.cpp ****         // Only show ADC values 8-11
  24:Thaumazein.cpp ****         pos += snprintf(msg + pos, sizeof(msg) - pos, "ADC Values (8-11):\n");
  25:Thaumazein.cpp ****         for (int i = 8; i < 12; ++i) {
  96              		.loc 1 25 18 view .LVU18
  97 001e 0825     		movs	r5, #8
  98              	.LBE74:
  17:Thaumazein.cpp **** 
  99              		.loc 1 17 24 view .LVU19
 100 0020 02A8     		add	r0, sp, #8
  15:Thaumazein.cpp ****         cpu_percent_int = cpu_percent_int < 0 ? 0 : (cpu_percent_int > 100 ? 100 : cpu_percent_int)
 101              		.loc 1 15 13 view .LVU20
 102 0022 17EE903A 		vmov	r3, s15	@ int
  16:Thaumazein.cpp ****         pos += snprintf(msg + pos, sizeof(msg) - pos, "CPU: %d\n", cpu_percent_int);
 103              		.loc 1 16 47 view .LVU21
ARM GAS  /var/folders/9s/8rp0_f2s1n31qbztm3b5_fdh0000gn/T//ccdm6TqO.s 			page 5


 104 0026 642B     		cmp	r3, #100
 105 0028 A8BF     		it	ge
 106 002a 6423     		movge	r3, #100
  17:Thaumazein.cpp **** 
 107              		.loc 1 17 24 view .LVU22
 108 002c 23EAE373 		bic	r3, r3, r3, asr #31
 109 0030 FFF7FEFF 		bl	snprintf
 110              	.LVL1:
  20:Thaumazein.cpp ****         pos += snprintf(msg + pos, sizeof(msg) - pos, "Engine: %d (%s)\n", current_engine_idx, (cur
 111              		.loc 1 20 34 view .LVU23
 112 0034 254B     		ldr	r3, .L7+12
  21:Thaumazein.cpp **** 
 113              		.loc 1 21 24 view .LVU24
 114 0036 2649     		ldr	r1, .L7+16
  17:Thaumazein.cpp **** 
 115              		.loc 1 17 24 view .LVU25
 116 0038 0446     		mov	r4, r0
 117              	.LVL2:
  20:Thaumazein.cpp ****         pos += snprintf(msg + pos, sizeof(msg) - pos, "Engine: %d (%s)\n", current_engine_idx, (cur
 118              		.loc 1 20 9 is_stmt 1 view .LVU26
  20:Thaumazein.cpp ****         pos += snprintf(msg + pos, sizeof(msg) - pos, "Engine: %d (%s)\n", current_engine_idx, (cur
 119              		.loc 1 20 34 is_stmt 0 view .LVU27
 120 003a 1B68     		ldr	r3, [r3]
 121              	.LVL3:
  21:Thaumazein.cpp **** 
 122              		.loc 1 21 9 is_stmt 1 view .LVU28
  21:Thaumazein.cpp **** 
 123              		.loc 1 21 24 is_stmt 0 view .LVU29
 124 003c 254A     		ldr	r2, .L7+20
 125 003e 032B     		cmp	r3, #3
 126 0040 C8BF     		it	gt
 127 0042 0A46     		movgt	r2, r1
 128 0044 C0F50071 		rsb	r1, r0, #512
 129 0048 02A8     		add	r0, sp, #8
 130              	.LVL4:
  21:Thaumazein.cpp **** 
 131              		.loc 1 21 24 view .LVU30
 132 004a 0092     		str	r2, [sp]
 133 004c 2044     		add	r0, r0, r4
 134 004e 224A     		ldr	r2, .L7+24
 135 0050 FFF7FEFF 		bl	snprintf
 136              	.LVL5:
  24:Thaumazein.cpp ****         for (int i = 8; i < 12; ++i) {
 137              		.loc 1 24 24 view .LVU31
 138 0054 02AB     		add	r3, sp, #8
  21:Thaumazein.cpp **** 
 139              		.loc 1 21 13 view .LVU32
 140 0056 0444     		add	r4, r4, r0
 141              	.LVL6:
  24:Thaumazein.cpp ****         for (int i = 8; i < 12; ++i) {
 142              		.loc 1 24 9 is_stmt 1 view .LVU33
  24:Thaumazein.cpp ****         for (int i = 8; i < 12; ++i) {
 143              		.loc 1 24 24 is_stmt 0 view .LVU34
 144 0058 204A     		ldr	r2, .L7+28
 145 005a C4F50071 		rsb	r1, r4, #512
 146 005e 1819     		adds	r0, r3, r4
 147 0060 FFF7FEFF 		bl	snprintf
ARM GAS  /var/folders/9s/8rp0_f2s1n31qbztm3b5_fdh0000gn/T//ccdm6TqO.s 			page 6


 148              	.LVL7:
  24:Thaumazein.cpp ****         for (int i = 8; i < 12; ++i) {
 149              		.loc 1 24 13 view .LVU35
 150 0064 0444     		add	r4, r4, r0
 151              	.LVL8:
 152              		.loc 1 25 9 is_stmt 1 view .LVU36
 153              	.LBB75:
 154              		.loc 1 25 27 view .LVU37
 155              	.L4:
  26:Thaumazein.cpp ****             pos += snprintf(msg + pos, sizeof(msg) - pos, "[%d]: %d\n", i, static_cast<int>(adc_raw
 156              		.loc 1 26 13 view .LVU38
 157              		.loc 1 26 109 is_stmt 0 view .LVU39
 158 0066 1E4B     		ldr	r3, .L7+32
 159              		.loc 1 26 28 view .LVU40
 160 0068 02A8     		add	r0, sp, #8
 161              		.loc 1 26 111 view .LVU41
 162 006a 9FED1E7A 		vldr.32	s14, .L7+36
 163              		.loc 1 26 28 view .LVU42
 164 006e C4F50071 		rsb	r1, r4, #512
 165              		.loc 1 26 109 view .LVU43
 166 0072 03EB8503 		add	r3, r3, r5, lsl #2
 167              		.loc 1 26 28 view .LVU44
 168 0076 2044     		add	r0, r0, r4
 169 0078 1B4A     		ldr	r2, .L7+40
 170              		.loc 1 26 109 view .LVU45
 171 007a D3ED007A 		vldr.32	s15, [r3]
 172              		.loc 1 26 28 view .LVU46
 173 007e 2B46     		mov	r3, r5
 174              		.loc 1 26 111 view .LVU47
 175 0080 67EE877A 		vmul.f32	s15, s15, s14
 176              		.loc 1 26 28 view .LVU48
 177 0084 FDEEE77A 		vcvt.s32.f32	s15, s15
 178 0088 CDED007A 		vstr.32	s15, [sp]	@ int
 179 008c FFF7FEFF 		bl	snprintf
 180              	.LVL9:
 181              		.loc 1 26 17 view .LVU49
 182 0090 0444     		add	r4, r4, r0
 183              	.LVL10:
  27:Thaumazein.cpp ****             if(pos >= (int)sizeof(msg) - 20) break; // safety margin
 184              		.loc 1 27 13 is_stmt 1 view .LVU50
 185 0092 B4F5F67F 		cmp	r4, #492
 186 0096 02DA     		bge	.L3
  25:Thaumazein.cpp ****             pos += snprintf(msg + pos, sizeof(msg) - pos, "[%d]: %d\n", i, static_cast<int>(adc_raw
 187              		.loc 1 25 9 view .LVU51
 188 0098 0135     		adds	r5, r5, #1
 189              	.LVL11:
  25:Thaumazein.cpp ****             pos += snprintf(msg + pos, sizeof(msg) - pos, "[%d]: %d\n", i, static_cast<int>(adc_raw
 190              		.loc 1 25 27 view .LVU52
 191 009a 0C2D     		cmp	r5, #12
 192 009c E3D1     		bne	.L4
 193              	.L3:
  25:Thaumazein.cpp ****             pos += snprintf(msg + pos, sizeof(msg) - pos, "[%d]: %d\n", i, static_cast<int>(adc_raw
 194              		.loc 1 25 27 is_stmt 0 view .LVU53
 195              	.LBE75:
  28:Thaumazein.cpp ****         }
  29:Thaumazein.cpp **** 
  30:Thaumazein.cpp ****         // Separator
ARM GAS  /var/folders/9s/8rp0_f2s1n31qbztm3b5_fdh0000gn/T//ccdm6TqO.s 			page 7


  31:Thaumazein.cpp ****         pos += snprintf(msg + pos, sizeof(msg) - pos, "--------");
 196              		.loc 1 31 9 is_stmt 1 view .LVU54
 197              		.loc 1 31 24 is_stmt 0 view .LVU55
 198 009e 02AB     		add	r3, sp, #8
 199 00a0 124A     		ldr	r2, .L7+44
 200 00a2 C4F50071 		rsb	r1, r4, #512
 201 00a6 1819     		adds	r0, r3, r4
 202 00a8 FFF7FEFF 		bl	snprintf
 203              	.LVL12:
  32:Thaumazein.cpp **** 
  33:Thaumazein.cpp ****         // Print once with a single call to avoid throttling
  34:Thaumazein.cpp ****         hw.PrintLine("%s", msg);
 204              		.loc 1 34 9 is_stmt 1 view .LVU56
 205              	.LBB76:
 206              	.LBI76:
 207              		.file 3 "lib/libdaisy/src/daisy_seed.h"
   1:lib/libdaisy/src/daisy_seed.h **** #pragma once
   2:lib/libdaisy/src/daisy_seed.h **** #ifndef DSY_SEED_H
   3:lib/libdaisy/src/daisy_seed.h **** #define DSY_SEED_H
   4:lib/libdaisy/src/daisy_seed.h **** 
   5:lib/libdaisy/src/daisy_seed.h **** #include "daisy.h"
   6:lib/libdaisy/src/daisy_seed.h **** 
   7:lib/libdaisy/src/daisy_seed.h **** //Uncomment this out if you're still using the rev2 hardware
   8:lib/libdaisy/src/daisy_seed.h **** //#define SEED_REV2
   9:lib/libdaisy/src/daisy_seed.h **** 
  10:lib/libdaisy/src/daisy_seed.h **** namespace daisy
  11:lib/libdaisy/src/daisy_seed.h **** {
  12:lib/libdaisy/src/daisy_seed.h **** /**
  13:lib/libdaisy/src/daisy_seed.h ****    @brief This is the higher-level interface for the Daisy board. \n 
  14:lib/libdaisy/src/daisy_seed.h ****     All basic peripheral configuration/initialization is setup here. \n
  15:lib/libdaisy/src/daisy_seed.h **** 
  16:lib/libdaisy/src/daisy_seed.h ****    @ingroup boards
  17:lib/libdaisy/src/daisy_seed.h **** */
  18:lib/libdaisy/src/daisy_seed.h **** class DaisySeed
  19:lib/libdaisy/src/daisy_seed.h **** {
  20:lib/libdaisy/src/daisy_seed.h ****   public:
  21:lib/libdaisy/src/daisy_seed.h ****     DaisySeed() {}
  22:lib/libdaisy/src/daisy_seed.h ****     ~DaisySeed() {}
  23:lib/libdaisy/src/daisy_seed.h **** 
  24:lib/libdaisy/src/daisy_seed.h ****     /** This function used to provide a pre-initialization configuraiton 
  25:lib/libdaisy/src/daisy_seed.h ****      *  it has since been deprecated, and does nothing.
  26:lib/libdaisy/src/daisy_seed.h ****      */
  27:lib/libdaisy/src/daisy_seed.h ****     void Configure();
  28:lib/libdaisy/src/daisy_seed.h **** 
  29:lib/libdaisy/src/daisy_seed.h ****     /** 
  30:lib/libdaisy/src/daisy_seed.h ****     Initializes the Daisy Seed and the following peripherals:
  31:lib/libdaisy/src/daisy_seed.h ****     SDRAM, QSPI, 24-bit 48kHz Audio via AK4556, Internal USB,
  32:lib/libdaisy/src/daisy_seed.h ****     as well as the built-in LED and Testpoint.
  33:lib/libdaisy/src/daisy_seed.h **** 
  34:lib/libdaisy/src/daisy_seed.h ****     ADCs, DACs, and other special peripherals (such as I2C, SPI, etc.)
  35:lib/libdaisy/src/daisy_seed.h ****     can be initialized using their specific initializers within libdaisy
  36:lib/libdaisy/src/daisy_seed.h ****     for a specific application.
  37:lib/libdaisy/src/daisy_seed.h ****     */
  38:lib/libdaisy/src/daisy_seed.h ****     void Init(bool boost = false);
  39:lib/libdaisy/src/daisy_seed.h **** 
  40:lib/libdaisy/src/daisy_seed.h ****     /** 
  41:lib/libdaisy/src/daisy_seed.h ****     Deinitializes all peripherals automatically handled by `Init`.
ARM GAS  /var/folders/9s/8rp0_f2s1n31qbztm3b5_fdh0000gn/T//ccdm6TqO.s 			page 8


  42:lib/libdaisy/src/daisy_seed.h ****     */
  43:lib/libdaisy/src/daisy_seed.h ****     void DeInit();
  44:lib/libdaisy/src/daisy_seed.h **** 
  45:lib/libdaisy/src/daisy_seed.h ****     /** 
  46:lib/libdaisy/src/daisy_seed.h ****     Wait some ms before going on.
  47:lib/libdaisy/src/daisy_seed.h ****     \param del Delay time in ms.
  48:lib/libdaisy/src/daisy_seed.h ****     */
  49:lib/libdaisy/src/daisy_seed.h ****     void DelayMs(size_t del);
  50:lib/libdaisy/src/daisy_seed.h **** 
  51:lib/libdaisy/src/daisy_seed.h ****     /** 
  52:lib/libdaisy/src/daisy_seed.h ****     Returns the gpio_pin corresponding to the index 0-31.
  53:lib/libdaisy/src/daisy_seed.h ****     For the given GPIO on the Daisy Seed (labeled 1-32 in docs).
  54:lib/libdaisy/src/daisy_seed.h ****     */
  55:lib/libdaisy/src/daisy_seed.h ****     static Pin GetPin(uint8_t pin_idx);
  56:lib/libdaisy/src/daisy_seed.h **** 
  57:lib/libdaisy/src/daisy_seed.h ****     /** Begins the audio for the seeds builtin audio.
  58:lib/libdaisy/src/daisy_seed.h ****     the specified callback will get called whenever
  59:lib/libdaisy/src/daisy_seed.h ****     new data is ready to be prepared.
  60:lib/libdaisy/src/daisy_seed.h ****     */
  61:lib/libdaisy/src/daisy_seed.h ****     void StartAudio(AudioHandle::InterleavingAudioCallback cb);
  62:lib/libdaisy/src/daisy_seed.h **** 
  63:lib/libdaisy/src/daisy_seed.h ****     /** Begins the audio for the seeds builtin audio.
  64:lib/libdaisy/src/daisy_seed.h ****     the specified callback will get called whenever
  65:lib/libdaisy/src/daisy_seed.h ****     new data is ready to be prepared.
  66:lib/libdaisy/src/daisy_seed.h ****     This will use the newer non-interleaved callback.
  67:lib/libdaisy/src/daisy_seed.h ****     */
  68:lib/libdaisy/src/daisy_seed.h ****     void StartAudio(AudioHandle::AudioCallback cb);
  69:lib/libdaisy/src/daisy_seed.h **** 
  70:lib/libdaisy/src/daisy_seed.h ****     /** Changes to a new interleaved callback
  71:lib/libdaisy/src/daisy_seed.h ****      */
  72:lib/libdaisy/src/daisy_seed.h ****     void ChangeAudioCallback(AudioHandle::InterleavingAudioCallback cb);
  73:lib/libdaisy/src/daisy_seed.h **** 
  74:lib/libdaisy/src/daisy_seed.h ****     /** Changes to a new multichannel callback
  75:lib/libdaisy/src/daisy_seed.h ****      */
  76:lib/libdaisy/src/daisy_seed.h ****     void ChangeAudioCallback(AudioHandle::AudioCallback cb);
  77:lib/libdaisy/src/daisy_seed.h **** 
  78:lib/libdaisy/src/daisy_seed.h ****     /** Stops the audio if it is running. */
  79:lib/libdaisy/src/daisy_seed.h ****     void StopAudio();
  80:lib/libdaisy/src/daisy_seed.h **** 
  81:lib/libdaisy/src/daisy_seed.h ****     /** Updates the Audio Sample Rate, and reinitializes.
  82:lib/libdaisy/src/daisy_seed.h ****      ** Audio must be stopped for this to work.
  83:lib/libdaisy/src/daisy_seed.h ****      */
  84:lib/libdaisy/src/daisy_seed.h ****     void SetAudioSampleRate(SaiHandle::Config::SampleRate samplerate);
  85:lib/libdaisy/src/daisy_seed.h **** 
  86:lib/libdaisy/src/daisy_seed.h ****     /** Returns the audio sample rate in Hz as a floating point number.
  87:lib/libdaisy/src/daisy_seed.h ****      */
  88:lib/libdaisy/src/daisy_seed.h ****     float AudioSampleRate();
  89:lib/libdaisy/src/daisy_seed.h **** 
  90:lib/libdaisy/src/daisy_seed.h ****     /** Sets the number of samples processed per channel by the audio callback.
  91:lib/libdaisy/src/daisy_seed.h ****      */
  92:lib/libdaisy/src/daisy_seed.h ****     void SetAudioBlockSize(size_t blocksize);
  93:lib/libdaisy/src/daisy_seed.h **** 
  94:lib/libdaisy/src/daisy_seed.h ****     /** Returns the number of samples per channel in a block of audio. */
  95:lib/libdaisy/src/daisy_seed.h ****     size_t AudioBlockSize();
  96:lib/libdaisy/src/daisy_seed.h **** 
  97:lib/libdaisy/src/daisy_seed.h ****     /** Returns the rate in Hz that the Audio callback is called */
  98:lib/libdaisy/src/daisy_seed.h ****     float AudioCallbackRate() const;
ARM GAS  /var/folders/9s/8rp0_f2s1n31qbztm3b5_fdh0000gn/T//ccdm6TqO.s 			page 9


  99:lib/libdaisy/src/daisy_seed.h **** 
 100:lib/libdaisy/src/daisy_seed.h ****     /** Returns the SAI Handle for the Daisy Seed 
 101:lib/libdaisy/src/daisy_seed.h ****      *  This can be useful when adding a secondary codec,
 102:lib/libdaisy/src/daisy_seed.h ****      *  the result of this function can be passed to the audio reinit 
 103:lib/libdaisy/src/daisy_seed.h ****      *  with an SAI2 configuration
 104:lib/libdaisy/src/daisy_seed.h ****      */
 105:lib/libdaisy/src/daisy_seed.h ****     const SaiHandle& AudioSaiHandle() const;
 106:lib/libdaisy/src/daisy_seed.h **** 
 107:lib/libdaisy/src/daisy_seed.h ****     /** Sets the state of the built in LED
 108:lib/libdaisy/src/daisy_seed.h ****      */
 109:lib/libdaisy/src/daisy_seed.h ****     void SetLed(bool state);
 110:lib/libdaisy/src/daisy_seed.h **** 
 111:lib/libdaisy/src/daisy_seed.h ****     /** Sets the state of the test point near pin 10
 112:lib/libdaisy/src/daisy_seed.h ****      */
 113:lib/libdaisy/src/daisy_seed.h ****     void SetTestPoint(bool state);
 114:lib/libdaisy/src/daisy_seed.h **** 
 115:lib/libdaisy/src/daisy_seed.h ****     /** Print formatted debug log message
 116:lib/libdaisy/src/daisy_seed.h ****      */
 117:lib/libdaisy/src/daisy_seed.h ****     template <typename... VA>
 118:lib/libdaisy/src/daisy_seed.h ****     static void Print(const char* format, VA... va)
 119:lib/libdaisy/src/daisy_seed.h ****     {
 120:lib/libdaisy/src/daisy_seed.h ****         Log::Print(format, va...);
 121:lib/libdaisy/src/daisy_seed.h ****     }
 122:lib/libdaisy/src/daisy_seed.h **** 
 123:lib/libdaisy/src/daisy_seed.h ****     /** Print formatted debug log message with automatic line termination
 124:lib/libdaisy/src/daisy_seed.h ****     */
 125:lib/libdaisy/src/daisy_seed.h ****     template <typename... VA>
 126:lib/libdaisy/src/daisy_seed.h ****     static void PrintLine(const char* format, VA... va)
 208              		.loc 3 126 17 view .LVU57
 209              	.LBB77:
 127:lib/libdaisy/src/daisy_seed.h ****     {
 128:lib/libdaisy/src/daisy_seed.h ****         Log::PrintLine(format, va...);
 210              		.loc 3 128 23 is_stmt 0 view .LVU58
 211 00ac 02A9     		add	r1, sp, #8
 212              	.LVL13:
 213              		.loc 3 128 23 view .LVU59
 214 00ae 1048     		ldr	r0, .L7+48
 215 00b0 FFF7FEFF 		bl	_ZN5daisy6LoggerILNS_17LoggerDestinationE1EE9PrintLineEPKcz
 216              	.LVL14:
 217              		.loc 3 128 23 view .LVU60
 218              	.LBE77:
 219              	.LBE76:
  35:Thaumazein.cpp **** 
  36:Thaumazein.cpp ****         update_display = false; 
 220              		.loc 1 36 9 is_stmt 1 view .LVU61
 221              		.loc 1 36 24 is_stmt 0 view .LVU62
 222 00b4 0F4B     		ldr	r3, .L7+52
 223 00b6 0022     		movs	r2, #0
 224 00b8 1A70     		strb	r2, [r3]
 225              	.LBE79:
  37:Thaumazein.cpp ****     }
  38:Thaumazein.cpp **** }
 226              		.loc 1 38 1 view .LVU63
 227 00ba 0DF5037D 		add	sp, sp, #524
 228              		.cfi_def_cfa_offset 12
 229              		@ sp needed
 230 00be 30BD     		pop	{r4, r5, pc}
ARM GAS  /var/folders/9s/8rp0_f2s1n31qbztm3b5_fdh0000gn/T//ccdm6TqO.s 			page 10


 231              	.LVL15:
 232              	.L8:
 233              		.loc 1 38 1 view .LVU64
 234              		.align	2
 235              	.L7:
 236 00c0 00000000 		.word	cpu_meter
 237 00c4 0000C842 		.word	1120403456
 238 00c8 0C000000 		.word	.LC2
 239 00cc 00000000 		.word	current_engine_index
 240 00d0 07000000 		.word	.LC1
 241 00d4 00000000 		.word	.LC0
 242 00d8 15000000 		.word	.LC3
 243 00dc 26000000 		.word	.LC4
 244 00e0 00000000 		.word	adc_raw_values
 245 00e4 00007A44 		.word	1148846080
 246 00e8 3A000000 		.word	.LC5
 247 00ec 44000000 		.word	.LC6
 248 00f0 4D000000 		.word	.LC7
 249 00f4 00000000 		.word	update_display
 250              		.cfi_endproc
 251              	.LFE6570:
 253              		.section	.text._Z13UpdateDisplayv,"ax",%progbits
 254              		.align	1
 255              		.global	_Z13UpdateDisplayv
 256              		.syntax unified
 257              		.thumb
 258              		.thumb_func
 260              	_Z13UpdateDisplayv:
 261              	.LFB5842:
   7:Thaumazein.cpp ****     if (update_display) {
 262              		.loc 1 7 22 is_stmt 1 view -0
 263              		.cfi_startproc
 264              		@ args = 0, pretend = 0, frame = 0
 265              		@ frame_needed = 0, uses_anonymous_args = 0
 266              		@ link register save eliminated.
   8:Thaumazein.cpp ****         // Build stats message in a smaller buffer
 267              		.loc 1 8 5 view .LVU66
 268              	.LBB80:
   8:Thaumazein.cpp ****         // Build stats message in a smaller buffer
 269              		.loc 1 8 9 is_stmt 0 view .LVU67
 270 0000 024B     		ldr	r3, .L11
 271 0002 1B78     		ldrb	r3, [r3]	@ zero_extendqisi2
   8:Thaumazein.cpp ****         // Build stats message in a smaller buffer
 272              		.loc 1 8 5 view .LVU68
 273 0004 0BB1     		cbz	r3, .L9
 274              	.LBE80:
 275 0006 FFF7FEBF 		b	_Z13UpdateDisplayv.part.0
 276              	.LVL16:
 277              	.L9:
 278              		.loc 1 38 1 view .LVU69
 279 000a 7047     		bx	lr
 280              	.L12:
 281              		.align	2
 282              	.L11:
 283 000c 00000000 		.word	update_display
 284              		.cfi_endproc
 285              	.LFE5842:
ARM GAS  /var/folders/9s/8rp0_f2s1n31qbztm3b5_fdh0000gn/T//ccdm6TqO.s 			page 11


 287              		.section	.text._Z15PollTouchSensorv,"ax",%progbits
 288              		.align	1
 289              		.global	_Z15PollTouchSensorv
 290              		.syntax unified
 291              		.thumb
 292              		.thumb_func
 294              	_Z15PollTouchSensorv:
 295              	.LFB5843:
  39:Thaumazein.cpp **** 
  40:Thaumazein.cpp **** // Poll the touch sensor and update shared variables
  41:Thaumazein.cpp **** void PollTouchSensor() {
 296              		.loc 1 41 24 is_stmt 1 view -0
 297              		.cfi_startproc
 298              		@ args = 0, pretend = 0, frame = 24
 299              		@ frame_needed = 0, uses_anonymous_args = 0
  42:Thaumazein.cpp ****     if(!touch_sensor_present) {
 300              		.loc 1 42 5 view .LVU71
 301              		.loc 1 42 8 is_stmt 0 view .LVU72
 302 0000 534B     		ldr	r3, .L36
  41:Thaumazein.cpp ****     if(!touch_sensor_present) {
 303              		.loc 1 41 24 view .LVU73
 304 0002 2DE9F041 		push	{r4, r5, r6, r7, r8, lr}
 305              		.cfi_def_cfa_offset 24
 306              		.cfi_offset 4, -24
 307              		.cfi_offset 5, -20
 308              		.cfi_offset 6, -16
 309              		.cfi_offset 7, -12
 310              		.cfi_offset 8, -8
 311              		.cfi_offset 14, -4
 312              		.loc 1 42 8 view .LVU74
 313 0006 93F80080 		ldrb	r8, [r3]	@ zero_extendqisi2
  41:Thaumazein.cpp ****     if(!touch_sensor_present) {
 314              		.loc 1 41 24 view .LVU75
 315 000a 2DED028B 		vpush.64	{d8}
 316              		.cfi_def_cfa_offset 32
 317              		.cfi_offset 80, -32
 318              		.cfi_offset 81, -28
 319 000e 86B0     		sub	sp, sp, #24
 320              		.cfi_def_cfa_offset 56
 321              		.loc 1 42 5 view .LVU76
 322 0010 B8F1000F 		cmp	r8, #0
 323 0014 4FD0     		beq	.L13
 324              	.LBB114:
 325              	.LBI114:
  41:Thaumazein.cpp ****     if(!touch_sensor_present) {
 326              		.loc 1 41 6 is_stmt 1 view .LVU77
 327              	.LBB115:
  43:Thaumazein.cpp ****         // Touch sensor unavailable – nothing to poll
  44:Thaumazein.cpp ****         return;
  45:Thaumazein.cpp ****     }
  46:Thaumazein.cpp ****     // Recover from any I2C errors on the touch sensor
  47:Thaumazein.cpp ****     if(touch_sensor.HasError()) {
 328              		.loc 1 47 5 view .LVU78
 329              	.LBB116:
 330              		.loc 1 47 29 is_stmt 0 view .LVU79
 331 0016 4F48     		ldr	r0, .L36+4
 332 0018 FFF7FEFF 		bl	_ZNK14thaumazein_hal6Mpr1218HasErrorEv
ARM GAS  /var/folders/9s/8rp0_f2s1n31qbztm3b5_fdh0000gn/T//ccdm6TqO.s 			page 12


 333              	.LVL17:
 334              		.loc 1 47 5 view .LVU80
 335 001c C0B1     		cbz	r0, .L15
 336              	.LBB117:
  48:Thaumazein.cpp ****         touch_sensor.ClearError();
 337              		.loc 1 48 9 is_stmt 1 view .LVU81
 338              		.loc 1 48 32 is_stmt 0 view .LVU82
 339 001e 4D48     		ldr	r0, .L36+4
 340 0020 FFF7FEFF 		bl	_ZN14thaumazein_hal6Mpr12110ClearErrorEv
 341              	.LVL18:
  49:Thaumazein.cpp ****         thaumazein_hal::Mpr121::Config cfg;
 342              		.loc 1 49 9 is_stmt 1 view .LVU83
 343              	.LBB118:
 344              	.LBI118:
 345              		.file 4 "mpr121_daisy.h"
   1:mpr121_daisy.h **** #pragma once
   2:mpr121_daisy.h **** #ifndef MPR121_DAISY_H
   3:mpr121_daisy.h **** #define MPR121_DAISY_H
   4:mpr121_daisy.h **** 
   5:mpr121_daisy.h **** #include "daisy_seed.h"
   6:mpr121_daisy.h **** #include "per/i2c.h"
   7:mpr121_daisy.h **** 
   8:mpr121_daisy.h **** // Add a namespace to avoid collision with daisy::Mpr121
   9:mpr121_daisy.h **** namespace thaumazein_hal {
  10:mpr121_daisy.h **** 
  11:mpr121_daisy.h **** using namespace daisy; // Keep daisy namespace accessible within thaumazein_hal for convenience
  12:mpr121_daisy.h **** 
  13:mpr121_daisy.h **** /// mp
  14:mpr121_daisy.h **** 
  15:mpr121_daisy.h **** // Register map
  16:mpr121_daisy.h **** #define MPR121_TOUCHSTATUS_L 0x00
  17:mpr121_daisy.h **** #define MPR121_TOUCHSTATUS_H 0x01
  18:mpr121_daisy.h **** #define MPR121_FILTDATA_0L 0x04
  19:mpr121_daisy.h **** #define MPR121_FILTDATA_0H 0x05
  20:mpr121_daisy.h **** #define MPR121_BASELINE_0 0x1E
  21:mpr121_daisy.h **** #define MPR121_MHDR 0x2B
  22:mpr121_daisy.h **** #define MPR121_NHDR 0x2C
  23:mpr121_daisy.h **** #define MPR121_NCLR 0x2D
  24:mpr121_daisy.h **** #define MPR121_FDLR 0x2E
  25:mpr121_daisy.h **** #define MPR121_MHDF 0x2F
  26:mpr121_daisy.h **** #define MPR121_NHDF 0x30
  27:mpr121_daisy.h **** #define MPR121_NCLF 0x31
  28:mpr121_daisy.h **** #define MPR121_FDLF 0x32
  29:mpr121_daisy.h **** #define MPR121_NHDT 0x33
  30:mpr121_daisy.h **** #define MPR121_NCLT 0x34
  31:mpr121_daisy.h **** #define MPR121_FDLT 0x35
  32:mpr121_daisy.h **** 
  33:mpr121_daisy.h **** #define MPR121_TOUCHTH_0 0x41
  34:mpr121_daisy.h **** #define MPR121_RELEASETH_0 0x42
  35:mpr121_daisy.h **** #define MPR121_DEBOUNCE 0x5B
  36:mpr121_daisy.h **** #define MPR121_CONFIG1 0x5C
  37:mpr121_daisy.h **** #define MPR121_CONFIG2 0x5D
  38:mpr121_daisy.h **** #define MPR121_CHARGECURR_0 0x5F
  39:mpr121_daisy.h **** #define MPR121_CHARGETIME_1 0x6C
  40:mpr121_daisy.h **** #define MPR121_ECR 0x5E
  41:mpr121_daisy.h **** #define MPR121_AUTOCONFIG0 0x7B
  42:mpr121_daisy.h **** #define MPR121_AUTOCONFIG1 0x7C
ARM GAS  /var/folders/9s/8rp0_f2s1n31qbztm3b5_fdh0000gn/T//ccdm6TqO.s 			page 13


  43:mpr121_daisy.h **** #define MPR121_UPLIMIT 0x7D
  44:mpr121_daisy.h **** #define MPR121_LOWLIMIT 0x7E
  45:mpr121_daisy.h **** #define MPR121_TARGETLIMIT 0x7F
  46:mpr121_daisy.h **** 
  47:mpr121_daisy.h **** #define MPR121_GPIODIR 0x76
  48:mpr121_daisy.h **** #define MPR121_GPIOEN 0x77
  49:mpr121_daisy.h **** #define MPR121_GPIOSET 0x78
  50:mpr121_daisy.h **** #define MPR121_GPIOCLR 0x79
  51:mpr121_daisy.h **** #define MPR121_GPIOTOGGLE 0x7A
  52:mpr121_daisy.h **** 
  53:mpr121_daisy.h **** #define MPR121_SOFTRESET 0x80
  54:mpr121_daisy.h **** #define MPR121_I2CADDR_DEFAULT 0x5A
  55:mpr121_daisy.h **** 
  56:mpr121_daisy.h **** class Mpr121
  57:mpr121_daisy.h **** {
  58:mpr121_daisy.h ****   public:
  59:mpr121_daisy.h ****     Mpr121() {}
  60:mpr121_daisy.h ****     ~Mpr121() {}
  61:mpr121_daisy.h **** 
  62:mpr121_daisy.h ****     struct Config
 346              		.loc 4 62 12 view .LVU84
 347              	.LBB119:
 348              	.LBI119:
 349              		.file 5 "lib/libdaisy/src/per/i2c.h"
   1:lib/libdaisy/src/per/i2c.h **** #pragma once
   2:lib/libdaisy/src/per/i2c.h **** #include "util/hal_map.h"
   3:lib/libdaisy/src/per/i2c.h **** #include "daisy_core.h"
   4:lib/libdaisy/src/per/i2c.h **** 
   5:lib/libdaisy/src/per/i2c.h **** namespace daisy
   6:lib/libdaisy/src/per/i2c.h **** {
   7:lib/libdaisy/src/per/i2c.h **** /** A handle for interacting with an I2C peripheral. This is a dumb
   8:lib/libdaisy/src/per/i2c.h ****  *  gateway that internally points to one of the four I2C peripherals
   9:lib/libdaisy/src/per/i2c.h ****  *  after it was initialised. It can then be copied and passed around.
  10:lib/libdaisy/src/per/i2c.h ****  *  Use an I2CHandle like this:
  11:lib/libdaisy/src/per/i2c.h ****  *  
  12:lib/libdaisy/src/per/i2c.h ****  *      // setup the configuration
  13:lib/libdaisy/src/per/i2c.h ****  *      I2CHandle::Config i2c_conf;
  14:lib/libdaisy/src/per/i2c.h ****  *      i2c_conf.periph = I2CHandle::Config::Peripheral::I2C_1;
  15:lib/libdaisy/src/per/i2c.h ****  *      i2c_conf.speed  = I2CHandle::Config::Speed::I2C_400KHZ;
  16:lib/libdaisy/src/per/i2c.h ****  *      i2c_conf.mode   = I2CHandle::Config::Mode::Master;
  17:lib/libdaisy/src/per/i2c.h ****  *      i2c_conf.pin_config.scl  = {DSY_GPIOB, 8};
  18:lib/libdaisy/src/per/i2c.h ****  *      i2c_conf.pin_config.sda  = {DSY_GPIOB, 9};
  19:lib/libdaisy/src/per/i2c.h ****  *      // initialise the peripheral
  20:lib/libdaisy/src/per/i2c.h ****  *      I2CHandle i2c;
  21:lib/libdaisy/src/per/i2c.h ****  *      i2c.Init(i2c_conf);
  22:lib/libdaisy/src/per/i2c.h ****  *      // now i2c points to the corresponding peripheral and can be used.
  23:lib/libdaisy/src/per/i2c.h ****  *      i2c.TransmitBlocking( ... );
  24:lib/libdaisy/src/per/i2c.h ****  */
  25:lib/libdaisy/src/per/i2c.h **** class I2CHandle
  26:lib/libdaisy/src/per/i2c.h **** {
  27:lib/libdaisy/src/per/i2c.h ****   public:
  28:lib/libdaisy/src/per/i2c.h ****     /** Contains settings for initialising an I2C interface. */
  29:lib/libdaisy/src/per/i2c.h ****     struct Config
 350              		.loc 5 29 12 view .LVU85
 351              	.LBB120:
 352              	.LBB121:
 353              	.LBI121:
ARM GAS  /var/folders/9s/8rp0_f2s1n31qbztm3b5_fdh0000gn/T//ccdm6TqO.s 			page 14


  30:lib/libdaisy/src/per/i2c.h ****     {
  31:lib/libdaisy/src/per/i2c.h ****         /** Specifies whether the interface will operate in master or slave mode. */
  32:lib/libdaisy/src/per/i2c.h ****         enum class Mode
  33:lib/libdaisy/src/per/i2c.h ****         {
  34:lib/libdaisy/src/per/i2c.h ****             I2C_MASTER,
  35:lib/libdaisy/src/per/i2c.h ****             I2C_SLAVE,
  36:lib/libdaisy/src/per/i2c.h ****         };
  37:lib/libdaisy/src/per/i2c.h **** 
  38:lib/libdaisy/src/per/i2c.h ****         /** Specifices the internal peripheral to use (these are mapped to different pins on the ha
  39:lib/libdaisy/src/per/i2c.h ****         enum class Peripheral
  40:lib/libdaisy/src/per/i2c.h ****         {
  41:lib/libdaisy/src/per/i2c.h ****             I2C_1 = 0, /**< & */
  42:lib/libdaisy/src/per/i2c.h ****             I2C_2,     /**< & */
  43:lib/libdaisy/src/per/i2c.h ****             I2C_3,     /**< & */
  44:lib/libdaisy/src/per/i2c.h ****             I2C_4,     /**< & */
  45:lib/libdaisy/src/per/i2c.h ****         };
  46:lib/libdaisy/src/per/i2c.h **** 
  47:lib/libdaisy/src/per/i2c.h ****         /** Rate at which the clock/data will be sent/received. The device being used will have max
  48:lib/libdaisy/src/per/i2c.h ****          *  1MHZ Mode is currently 886kHz
  49:lib/libdaisy/src/per/i2c.h ****          */
  50:lib/libdaisy/src/per/i2c.h ****         enum class Speed
  51:lib/libdaisy/src/per/i2c.h ****         {
  52:lib/libdaisy/src/per/i2c.h ****             I2C_100KHZ, /**< & */
  53:lib/libdaisy/src/per/i2c.h ****             I2C_400KHZ, /**< & */
  54:lib/libdaisy/src/per/i2c.h ****             I2C_1MHZ,   /**< & */
  55:lib/libdaisy/src/per/i2c.h ****         };
  56:lib/libdaisy/src/per/i2c.h **** 
  57:lib/libdaisy/src/per/i2c.h ****         Peripheral periph; /**< & */
  58:lib/libdaisy/src/per/i2c.h ****         struct
  59:lib/libdaisy/src/per/i2c.h ****         {
 354              		.loc 5 59 9 view .LVU86
 355              	.LBB122:
 356              	.LBI122:
 357              		.file 6 "lib/libdaisy/src/daisy_core.h"
   1:lib/libdaisy/src/daisy_core.h **** #pragma once
   2:lib/libdaisy/src/daisy_core.h **** #ifndef DSY_CORE_HW_H
   3:lib/libdaisy/src/daisy_core.h **** #define DSY_CORE_HW_H /**< & */
   4:lib/libdaisy/src/daisy_core.h **** #include <stdint.h>
   5:lib/libdaisy/src/daisy_core.h **** #include <stdlib.h>
   6:lib/libdaisy/src/daisy_core.h **** 
   7:lib/libdaisy/src/daisy_core.h **** #if defined(_MSC_VER)
   8:lib/libdaisy/src/daisy_core.h **** #define FORCE_INLINE __forceinline /**< & */
   9:lib/libdaisy/src/daisy_core.h **** #elif defined(__clang__)
  10:lib/libdaisy/src/daisy_core.h **** #define FORCE_INLINE inline __attribute__((always_inline)) /**< & */
  11:lib/libdaisy/src/daisy_core.h **** #pragma clang diagnostic ignored "-Wduplicate-decl-specifier"
  12:lib/libdaisy/src/daisy_core.h **** #elif defined(__GNUC__)
  13:lib/libdaisy/src/daisy_core.h **** #define FORCE_INLINE inline __attribute__((always_inline)) /**< & */
  14:lib/libdaisy/src/daisy_core.h **** #else
  15:lib/libdaisy/src/daisy_core.h **** #error unknown compiler
  16:lib/libdaisy/src/daisy_core.h **** #endif
  17:lib/libdaisy/src/daisy_core.h **** 
  18:lib/libdaisy/src/daisy_core.h **** /** @addtogroup utility
  19:lib/libdaisy/src/daisy_core.h ****     @{
  20:lib/libdaisy/src/daisy_core.h **** */
  21:lib/libdaisy/src/daisy_core.h **** 
  22:lib/libdaisy/src/daisy_core.h **** /** Macro for area of memory that is configured as cacheless
  23:lib/libdaisy/src/daisy_core.h **** This should be used primarily for DMA buffers, and the like.
ARM GAS  /var/folders/9s/8rp0_f2s1n31qbztm3b5_fdh0000gn/T//ccdm6TqO.s 			page 15


  24:lib/libdaisy/src/daisy_core.h **** */
  25:lib/libdaisy/src/daisy_core.h **** #define DMA_BUFFER_MEM_SECTION __attribute__((section(".sram1_bss")))
  26:lib/libdaisy/src/daisy_core.h **** /** 
  27:lib/libdaisy/src/daisy_core.h **** THE DTCM RAM section is also non-cached. However, is not suitable 
  28:lib/libdaisy/src/daisy_core.h **** for DMA transfers. Performance is on par with internal SRAM w/ 
  29:lib/libdaisy/src/daisy_core.h **** cache enabled.
  30:lib/libdaisy/src/daisy_core.h **** */
  31:lib/libdaisy/src/daisy_core.h **** #define DTCM_MEM_SECTION __attribute__((section(".dtcmram_bss")))
  32:lib/libdaisy/src/daisy_core.h **** 
  33:lib/libdaisy/src/daisy_core.h **** #define FBIPMAX 0.999985f             /**< close to 1.0f-LSB at 16 bit */
  34:lib/libdaisy/src/daisy_core.h **** #define FBIPMIN (-FBIPMAX)            /**< - (1 - LSB) */
  35:lib/libdaisy/src/daisy_core.h **** #define U82F_SCALE 0.0078740f         /**< 1 / 127 */
  36:lib/libdaisy/src/daisy_core.h **** #define F2U8_SCALE 127.0f             /**< 128 - 1 */
  37:lib/libdaisy/src/daisy_core.h **** #define S82F_SCALE 0.0078125f         /**< 1 / (2**7) */
  38:lib/libdaisy/src/daisy_core.h **** #define F2S8_SCALE 127.0f             /**< (2 ** 7) - 1 */
  39:lib/libdaisy/src/daisy_core.h **** #define S162F_SCALE 3.0517578125e-05f /**< 1 / (2** 15) */
  40:lib/libdaisy/src/daisy_core.h **** #define F2S16_SCALE 32767.0f          /**< (2 ** 15) - 1 */
  41:lib/libdaisy/src/daisy_core.h **** #define F2S24_SCALE 8388608.0f        /**< 2 ** 23 */
  42:lib/libdaisy/src/daisy_core.h **** #define S242F_SCALE 1.192092896e-07f  /**< 1 / (2 ** 23) */
  43:lib/libdaisy/src/daisy_core.h **** #define S24SIGN 0x800000              /**< 2 ** 23 */
  44:lib/libdaisy/src/daisy_core.h **** #define S322F_SCALE 4.6566129e-10f    /**< 1 / (2** 31) */
  45:lib/libdaisy/src/daisy_core.h **** #define F2S32_SCALE 2147483647.f      /**< (2 ** 31) - 1 */
  46:lib/libdaisy/src/daisy_core.h **** 
  47:lib/libdaisy/src/daisy_core.h **** 
  48:lib/libdaisy/src/daisy_core.h **** /** shorthand macro for simplifying the reading of the left 
  49:lib/libdaisy/src/daisy_core.h ****  *  channel of a non-interleaved output buffer named out */
  50:lib/libdaisy/src/daisy_core.h **** #define OUT_L out[0]
  51:lib/libdaisy/src/daisy_core.h **** 
  52:lib/libdaisy/src/daisy_core.h **** /** shorthand macro for simplifying the reading of the right 
  53:lib/libdaisy/src/daisy_core.h ****  *  channel of a non-interleaved output buffer named out */
  54:lib/libdaisy/src/daisy_core.h **** #define OUT_R out[1]
  55:lib/libdaisy/src/daisy_core.h **** 
  56:lib/libdaisy/src/daisy_core.h **** /** shorthand macro for simplifying the reading of the left 
  57:lib/libdaisy/src/daisy_core.h ****  *  channel of a non-interleaved input buffer named in */
  58:lib/libdaisy/src/daisy_core.h **** #define IN_L in[0]
  59:lib/libdaisy/src/daisy_core.h **** 
  60:lib/libdaisy/src/daisy_core.h **** /** shorthand macro for simplifying the reading of the right 
  61:lib/libdaisy/src/daisy_core.h ****  *  channel of a non-interleaved input buffer named in */
  62:lib/libdaisy/src/daisy_core.h **** #define IN_R in[1]
  63:lib/libdaisy/src/daisy_core.h **** 
  64:lib/libdaisy/src/daisy_core.h **** /** 
  65:lib/libdaisy/src/daisy_core.h ****     Computes cube.
  66:lib/libdaisy/src/daisy_core.h ****     \param x Number to be cubed
  67:lib/libdaisy/src/daisy_core.h ****     \return x ^ 3
  68:lib/libdaisy/src/daisy_core.h **** */
  69:lib/libdaisy/src/daisy_core.h **** FORCE_INLINE float cube(float x)
  70:lib/libdaisy/src/daisy_core.h **** {
  71:lib/libdaisy/src/daisy_core.h ****     return (x * x) * x;
  72:lib/libdaisy/src/daisy_core.h **** }
  73:lib/libdaisy/src/daisy_core.h **** 
  74:lib/libdaisy/src/daisy_core.h **** /** 
  75:lib/libdaisy/src/daisy_core.h ****     Converts unsigned 8-bit to float
  76:lib/libdaisy/src/daisy_core.h ****     \param x Number to be scaled.
  77:lib/libdaisy/src/daisy_core.h ****     \return Scaled number.
  78:lib/libdaisy/src/daisy_core.h **** */
  79:lib/libdaisy/src/daisy_core.h **** FORCE_INLINE float u82f(uint8_t x)
  80:lib/libdaisy/src/daisy_core.h **** {
ARM GAS  /var/folders/9s/8rp0_f2s1n31qbztm3b5_fdh0000gn/T//ccdm6TqO.s 			page 16


  81:lib/libdaisy/src/daisy_core.h ****     return ((float)x - 127.f) * U82F_SCALE;
  82:lib/libdaisy/src/daisy_core.h **** }
  83:lib/libdaisy/src/daisy_core.h **** 
  84:lib/libdaisy/src/daisy_core.h **** /**
  85:lib/libdaisy/src/daisy_core.h ****     Converts float to unsigned 8-bit
  86:lib/libdaisy/src/daisy_core.h **** */
  87:lib/libdaisy/src/daisy_core.h **** FORCE_INLINE uint8_t f2u8(float x)
  88:lib/libdaisy/src/daisy_core.h **** {
  89:lib/libdaisy/src/daisy_core.h ****     x = x <= FBIPMIN ? FBIPMIN : x;
  90:lib/libdaisy/src/daisy_core.h ****     x = x >= FBIPMAX ? FBIPMAX : x;
  91:lib/libdaisy/src/daisy_core.h ****     return (uint8_t)((x * F2U8_SCALE) + F2U8_SCALE);
  92:lib/libdaisy/src/daisy_core.h **** }
  93:lib/libdaisy/src/daisy_core.h **** 
  94:lib/libdaisy/src/daisy_core.h **** 
  95:lib/libdaisy/src/daisy_core.h **** /** 
  96:lib/libdaisy/src/daisy_core.h ****     Converts Signed 8-bit to float
  97:lib/libdaisy/src/daisy_core.h ****     \param x Number to be scaled.
  98:lib/libdaisy/src/daisy_core.h ****     \return Scaled number.
  99:lib/libdaisy/src/daisy_core.h **** */
 100:lib/libdaisy/src/daisy_core.h **** FORCE_INLINE float s82f(int8_t x)
 101:lib/libdaisy/src/daisy_core.h **** {
 102:lib/libdaisy/src/daisy_core.h ****     return (float)x * S82F_SCALE;
 103:lib/libdaisy/src/daisy_core.h **** }
 104:lib/libdaisy/src/daisy_core.h **** 
 105:lib/libdaisy/src/daisy_core.h **** /**
 106:lib/libdaisy/src/daisy_core.h ****     Converts float to Signed 8-bit
 107:lib/libdaisy/src/daisy_core.h **** */
 108:lib/libdaisy/src/daisy_core.h **** FORCE_INLINE int8_t f2s8(float x)
 109:lib/libdaisy/src/daisy_core.h **** {
 110:lib/libdaisy/src/daisy_core.h ****     x = x <= FBIPMIN ? FBIPMIN : x;
 111:lib/libdaisy/src/daisy_core.h ****     x = x >= FBIPMAX ? FBIPMAX : x;
 112:lib/libdaisy/src/daisy_core.h ****     return (int32_t)(x * F2S8_SCALE);
 113:lib/libdaisy/src/daisy_core.h **** }
 114:lib/libdaisy/src/daisy_core.h **** 
 115:lib/libdaisy/src/daisy_core.h **** /** 
 116:lib/libdaisy/src/daisy_core.h ****     Converts Signed 16-bit to float
 117:lib/libdaisy/src/daisy_core.h ****     \param x Number to be scaled.
 118:lib/libdaisy/src/daisy_core.h ****     \return Scaled number.
 119:lib/libdaisy/src/daisy_core.h **** */
 120:lib/libdaisy/src/daisy_core.h **** FORCE_INLINE float s162f(int16_t x)
 121:lib/libdaisy/src/daisy_core.h **** {
 122:lib/libdaisy/src/daisy_core.h ****     return (float)x * S162F_SCALE;
 123:lib/libdaisy/src/daisy_core.h **** }
 124:lib/libdaisy/src/daisy_core.h **** 
 125:lib/libdaisy/src/daisy_core.h **** /**
 126:lib/libdaisy/src/daisy_core.h ****     Converts float to Signed 16-bit
 127:lib/libdaisy/src/daisy_core.h **** */
 128:lib/libdaisy/src/daisy_core.h **** FORCE_INLINE int16_t f2s16(float x)
 129:lib/libdaisy/src/daisy_core.h **** {
 130:lib/libdaisy/src/daisy_core.h ****     x = x <= FBIPMIN ? FBIPMIN : x;
 131:lib/libdaisy/src/daisy_core.h ****     x = x >= FBIPMAX ? FBIPMAX : x;
 132:lib/libdaisy/src/daisy_core.h ****     return (int32_t)(x * F2S16_SCALE);
 133:lib/libdaisy/src/daisy_core.h **** }
 134:lib/libdaisy/src/daisy_core.h **** 
 135:lib/libdaisy/src/daisy_core.h **** /**
 136:lib/libdaisy/src/daisy_core.h ****     Converts Signed 24-bit to float
 137:lib/libdaisy/src/daisy_core.h ****  */
ARM GAS  /var/folders/9s/8rp0_f2s1n31qbztm3b5_fdh0000gn/T//ccdm6TqO.s 			page 17


 138:lib/libdaisy/src/daisy_core.h **** FORCE_INLINE float s242f(int32_t x)
 139:lib/libdaisy/src/daisy_core.h **** {
 140:lib/libdaisy/src/daisy_core.h ****     x = (x ^ S24SIGN) - S24SIGN; //sign extend aka ((x<<8)>>8)
 141:lib/libdaisy/src/daisy_core.h ****     return (float)x * S242F_SCALE;
 142:lib/libdaisy/src/daisy_core.h **** }
 143:lib/libdaisy/src/daisy_core.h **** /**
 144:lib/libdaisy/src/daisy_core.h ****     Converts float to Signed 24-bit
 145:lib/libdaisy/src/daisy_core.h ****  */
 146:lib/libdaisy/src/daisy_core.h **** FORCE_INLINE int32_t f2s24(float x)
 147:lib/libdaisy/src/daisy_core.h **** {
 148:lib/libdaisy/src/daisy_core.h ****     x = x <= FBIPMIN ? FBIPMIN : x;
 149:lib/libdaisy/src/daisy_core.h ****     x = x >= FBIPMAX ? FBIPMAX : x;
 150:lib/libdaisy/src/daisy_core.h ****     return (int32_t)(x * F2S24_SCALE);
 151:lib/libdaisy/src/daisy_core.h **** }
 152:lib/libdaisy/src/daisy_core.h **** 
 153:lib/libdaisy/src/daisy_core.h **** /**
 154:lib/libdaisy/src/daisy_core.h ****     Converts Signed 32-bit to float
 155:lib/libdaisy/src/daisy_core.h ****  */
 156:lib/libdaisy/src/daisy_core.h **** FORCE_INLINE float s322f(int32_t x)
 157:lib/libdaisy/src/daisy_core.h **** {
 158:lib/libdaisy/src/daisy_core.h ****     return (float)x * S322F_SCALE;
 159:lib/libdaisy/src/daisy_core.h **** }
 160:lib/libdaisy/src/daisy_core.h **** /**
 161:lib/libdaisy/src/daisy_core.h ****     Converts float to Signed 24-bit
 162:lib/libdaisy/src/daisy_core.h ****  */
 163:lib/libdaisy/src/daisy_core.h **** FORCE_INLINE int32_t f2s32(float x)
 164:lib/libdaisy/src/daisy_core.h **** {
 165:lib/libdaisy/src/daisy_core.h ****     x = x <= FBIPMIN ? FBIPMIN : x;
 166:lib/libdaisy/src/daisy_core.h ****     x = x >= FBIPMAX ? FBIPMAX : x;
 167:lib/libdaisy/src/daisy_core.h ****     return (int32_t)(x * F2S32_SCALE);
 168:lib/libdaisy/src/daisy_core.h **** }
 169:lib/libdaisy/src/daisy_core.h **** 
 170:lib/libdaisy/src/daisy_core.h **** #ifdef __cplusplus
 171:lib/libdaisy/src/daisy_core.h **** 
 172:lib/libdaisy/src/daisy_core.h **** namespace daisy
 173:lib/libdaisy/src/daisy_core.h **** {
 174:lib/libdaisy/src/daisy_core.h **** /** @brief GPIO Port names */
 175:lib/libdaisy/src/daisy_core.h **** enum GPIOPort
 176:lib/libdaisy/src/daisy_core.h **** {
 177:lib/libdaisy/src/daisy_core.h ****     PORTA, /**< Port A */
 178:lib/libdaisy/src/daisy_core.h ****     PORTB, /**< Port B */
 179:lib/libdaisy/src/daisy_core.h ****     PORTC, /**< Port C */
 180:lib/libdaisy/src/daisy_core.h ****     PORTD, /**< Port D */
 181:lib/libdaisy/src/daisy_core.h ****     PORTE, /**< Port E */
 182:lib/libdaisy/src/daisy_core.h ****     PORTF, /**< Port F */
 183:lib/libdaisy/src/daisy_core.h ****     PORTG, /**< Port G */
 184:lib/libdaisy/src/daisy_core.h ****     PORTH, /**< Port H */
 185:lib/libdaisy/src/daisy_core.h ****     PORTI, /**< Port I */
 186:lib/libdaisy/src/daisy_core.h ****     PORTJ, /**< Port J */
 187:lib/libdaisy/src/daisy_core.h ****     PORTK, /**< Port K */
 188:lib/libdaisy/src/daisy_core.h ****     PORTX, /**< Used as a dummy port to signal an invalid pin. */
 189:lib/libdaisy/src/daisy_core.h **** };
 190:lib/libdaisy/src/daisy_core.h **** 
 191:lib/libdaisy/src/daisy_core.h **** /** @brief representation of hardware port/pin combination */
 192:lib/libdaisy/src/daisy_core.h **** struct Pin
 193:lib/libdaisy/src/daisy_core.h **** {
 194:lib/libdaisy/src/daisy_core.h ****     GPIOPort port;
ARM GAS  /var/folders/9s/8rp0_f2s1n31qbztm3b5_fdh0000gn/T//ccdm6TqO.s 			page 18


 195:lib/libdaisy/src/daisy_core.h ****     uint8_t  pin;
 196:lib/libdaisy/src/daisy_core.h **** 
 197:lib/libdaisy/src/daisy_core.h ****     /** @brief Constructor creates a valid pin. 
 198:lib/libdaisy/src/daisy_core.h ****      *  @param pt GPIOPort between PA, and PK corresponding to STM32 Port.
 199:lib/libdaisy/src/daisy_core.h ****      *  @param pn pin number in range of 0-15
 200:lib/libdaisy/src/daisy_core.h ****     */
 201:lib/libdaisy/src/daisy_core.h ****     constexpr Pin(const GPIOPort pt, const uint8_t pn) : port(pt), pin(pn) {}
 202:lib/libdaisy/src/daisy_core.h **** 
 203:lib/libdaisy/src/daisy_core.h ****     /** @brief Basic Constructor creates an invalid Pin object */
 204:lib/libdaisy/src/daisy_core.h ****     constexpr Pin() : port(PORTX), pin(255) {}
 358              		.loc 6 204 15 view .LVU87
 359              		.loc 6 204 15 is_stmt 0 view .LVU88
 360              	.LBE122:
 361              	.LBB125:
 362              	.LBI125:
 363              		.loc 6 204 15 is_stmt 1 view .LVU89
 364              		.loc 6 204 15 is_stmt 0 view .LVU90
 365              	.LBE125:
 366              	.LBE121:
 367              	.LBE120:
 368              	.LBE119:
 369              	.LBE118:
  50:Thaumazein.cpp ****         cfg.Defaults();
 370              		.loc 1 50 9 is_stmt 1 view .LVU91
 371              	.LBB136:
 372              	.LBI136:
  63:mpr121_daisy.h ****     {
  64:mpr121_daisy.h ****         I2CHandle::Config i2c_config;
  65:mpr121_daisy.h ****         uint8_t          i2c_address;
  66:mpr121_daisy.h **** 
  67:mpr121_daisy.h ****         void Defaults()
 373              		.loc 4 67 14 view .LVU92
 374              	.LBB137:
  68:mpr121_daisy.h ****         {
  69:mpr121_daisy.h ****             i2c_config.periph = I2CHandle::Config::Peripheral::I2C_1;
 375              		.loc 4 69 13 view .LVU93
  70:mpr121_daisy.h ****             i2c_config.speed  = I2CHandle::Config::Speed::I2C_400KHZ;
 376              		.loc 4 70 13 view .LVU94
  71:mpr121_daisy.h ****             i2c_config.mode   = I2CHandle::Config::Mode::I2C_MASTER;
 377              		.loc 4 71 13 view .LVU95
  72:mpr121_daisy.h ****             i2c_config.pin_config.scl = Pin(daisy::GPIOPort::PORTB, 8);
 378              		.loc 4 72 13 view .LVU96
 379              	.LBB138:
 380              	.LBI138:
 201:lib/libdaisy/src/daisy_core.h **** 
 381              		.loc 6 201 15 view .LVU97
 201:lib/libdaisy/src/daisy_core.h **** 
 382              		.loc 6 201 15 is_stmt 0 view .LVU98
 383              	.LBE138:
  73:mpr121_daisy.h ****             i2c_config.pin_config.sda = Pin(daisy::GPIOPort::PORTB, 9);
 384              		.loc 4 73 13 is_stmt 1 view .LVU99
 385              	.LBB139:
 386              	.LBI139:
 201:lib/libdaisy/src/daisy_core.h **** 
 387              		.loc 6 201 15 view .LVU100
 201:lib/libdaisy/src/daisy_core.h **** 
 388              		.loc 6 201 15 is_stmt 0 view .LVU101
ARM GAS  /var/folders/9s/8rp0_f2s1n31qbztm3b5_fdh0000gn/T//ccdm6TqO.s 			page 19


 389              	.LBE139:
 390              	.LBE137:
 391              	.LBE136:
 392              	.LBB142:
 393              	.LBB133:
 394              	.LBB130:
 395              	.LBB128:
 396              	.LBB126:
 397              	.LBB123:
 398              		.loc 6 204 21 view .LVU102
 399 0024 0023     		movs	r3, #0
 400 0026 4C4A     		ldr	r2, .L36+8
 401              	.LBE123:
 402              	.LBE126:
 403              	.LBE128:
 404              	.LBE130:
 405              	.LBE133:
 406              	.LBE142:
  51:Thaumazein.cpp ****         touch_sensor.Init(cfg);
 407              		.loc 1 51 26 view .LVU103
 408 0028 6946     		mov	r1, sp
 409 002a 4A48     		ldr	r0, .L36+4
 410              	.LBB143:
 411              	.LBB134:
 412              	.LBB131:
 413              	.LBB129:
 414              	.LBB127:
 415              	.LBB124:
 416              		.loc 6 204 21 view .LVU104
 417 002c CDE90032 		strd	r3, r2, [sp]
 418              	.LBE124:
 419              	.LBE127:
 420              	.LBE129:
 421              	.LBE131:
 422              	.LBE134:
 423              	.LBE143:
 424              	.LBB144:
 425              	.LBB140:
  70:mpr121_daisy.h ****             i2c_config.mode   = I2CHandle::Config::Mode::I2C_MASTER;
 426              		.loc 4 70 31 view .LVU105
 427 0030 0122     		movs	r2, #1
  71:mpr121_daisy.h ****             i2c_config.pin_config.scl = Pin(daisy::GPIOPort::PORTB, 8);
 428              		.loc 4 71 31 view .LVU106
 429 0032 CDE90223 		strd	r2, r3, [sp, #8]
 430              	.LBE140:
 431              	.LBE144:
 432              	.LBB145:
 433              	.LBB135:
 434              	.LBB132:
  29:lib/libdaisy/src/per/i2c.h ****     {
 435              		.loc 5 29 12 view .LVU107
 436 0036 1023     		movs	r3, #16
 437 0038 8DF81030 		strb	r3, [sp, #16]
 438              	.LBE132:
 439              	.LBE135:
 440              	.LBE145:
 441              	.LBB146:
ARM GAS  /var/folders/9s/8rp0_f2s1n31qbztm3b5_fdh0000gn/T//ccdm6TqO.s 			page 20


 442              	.LBB141:
  74:mpr121_daisy.h ****             i2c_address               = MPR121_I2CADDR_DEFAULT;
 443              		.loc 4 74 13 is_stmt 1 view .LVU108
 444              		.loc 4 74 39 is_stmt 0 view .LVU109
 445 003c 5A23     		movs	r3, #90
 446 003e 8DF81430 		strb	r3, [sp, #20]
 447              	.LVL19:
 448              		.loc 4 74 39 view .LVU110
 449              	.LBE141:
 450              	.LBE146:
 451              		.loc 1 51 9 is_stmt 1 view .LVU111
 452              		.loc 1 51 26 is_stmt 0 view .LVU112
 453 0042 FFF7FEFF 		bl	_ZN14thaumazein_hal6Mpr1214InitERKNS0_6ConfigE
 454              	.LVL20:
  52:Thaumazein.cpp ****         touch_sensor.SetThresholds(6, 3);
 455              		.loc 1 52 9 is_stmt 1 view .LVU113
 456              		.loc 1 52 35 is_stmt 0 view .LVU114
 457 0046 0322     		movs	r2, #3
 458 0048 0621     		movs	r1, #6
 459 004a 4248     		ldr	r0, .L36+4
 460 004c FFF7FEFF 		bl	_ZN14thaumazein_hal6Mpr12113SetThresholdsEhh
 461              	.LVL21:
 462              	.L15:
 463              	.LBE117:
 464              	.LBE116:
  53:Thaumazein.cpp ****     }
  54:Thaumazein.cpp ****     uint16_t touched = touch_sensor.Touched();
 465              		.loc 1 54 5 is_stmt 1 view .LVU115
 466              		.loc 1 54 44 is_stmt 0 view .LVU116
 467 0050 4048     		ldr	r0, .L36+4
  55:Thaumazein.cpp ****     current_touch_state = touched;
  56:Thaumazein.cpp **** 
  57:Thaumazein.cpp ****     // Update touch pad LEDs with touch and ARP blink
  58:Thaumazein.cpp ****     uint32_t now = hw.system.GetNow();
  59:Thaumazein.cpp ****     bool arp_on = arp.IsActive();
 468              		.loc 1 59 31 view .LVU117
 469 0052 0B24     		movs	r4, #11
  54:Thaumazein.cpp ****     current_touch_state = touched;
 470              		.loc 1 54 44 view .LVU118
 471 0054 FFF7FEFF 		bl	_ZN14thaumazein_hal6Mpr1217TouchedEv
 472              	.LVL22:
  55:Thaumazein.cpp ****     current_touch_state = touched;
 473              		.loc 1 55 25 view .LVU119
 474 0058 404B     		ldr	r3, .L36+12
  54:Thaumazein.cpp ****     current_touch_state = touched;
 475              		.loc 1 54 44 view .LVU120
 476 005a 0546     		mov	r5, r0
 477              	.LVL23:
  55:Thaumazein.cpp ****     current_touch_state = touched;
 478              		.loc 1 55 5 is_stmt 1 view .LVU121
  55:Thaumazein.cpp ****     current_touch_state = touched;
 479              		.loc 1 55 25 is_stmt 0 view .LVU122
 480 005c 1880     		strh	r0, [r3]	@ movhi
  58:Thaumazein.cpp ****     bool arp_on = arp.IsActive();
 481              		.loc 1 58 5 is_stmt 1 view .LVU123
  58:Thaumazein.cpp ****     bool arp_on = arp.IsActive();
 482              		.loc 1 58 36 is_stmt 0 view .LVU124
ARM GAS  /var/folders/9s/8rp0_f2s1n31qbztm3b5_fdh0000gn/T//ccdm6TqO.s 			page 21


 483 005e FFF7FEFF 		bl	_ZN5daisy6System6GetNowEv
 484              	.LVL24:
  58:Thaumazein.cpp ****     bool arp_on = arp.IsActive();
 485              		.loc 1 58 36 view .LVU125
 486 0062 0646     		mov	r6, r0
 487              	.LVL25:
 488              		.loc 1 59 5 is_stmt 1 view .LVU126
 489              		.loc 1 59 31 is_stmt 0 view .LVU127
 490 0064 3E48     		ldr	r0, .L36+16
 491              	.LVL26:
 492              		.loc 1 59 31 view .LVU128
 493 0066 FFF7FEFF 		bl	_ZNK11Arpeggiator8IsActiveEv
 494              	.LVL27:
 495 006a 0746     		mov	r7, r0
 496              	.LVL28:
  60:Thaumazein.cpp ****     for(int i = 0; i < 12; ++i) {
 497              		.loc 1 60 5 is_stmt 1 view .LVU129
 498              	.LBB147:
 499              		.loc 1 60 22 view .LVU130
 500              	.L17:
 501              	.LBB148:
  61:Thaumazein.cpp ****         int ledIdx = 11 - i;  // pad i maps to LED[11-i]
  62:Thaumazein.cpp ****         bool padTouched = (touched & (1 << i)) != 0;
  63:Thaumazein.cpp ****         bool blink     = (now - arp_led_timestamps[ledIdx]) < ARP_LED_DURATION_MS;
 502              		.loc 1 63 58 is_stmt 0 view .LVU131
 503 006c 3D4A     		ldr	r2, .L36+20
 504 006e C4F10B03 		rsb	r3, r4, #11
 505              	.LVL29:
  61:Thaumazein.cpp ****         int ledIdx = 11 - i;  // pad i maps to LED[11-i]
 506              		.loc 1 61 9 is_stmt 1 view .LVU132
  62:Thaumazein.cpp ****         bool blink     = (now - arp_led_timestamps[ledIdx]) < ARP_LED_DURATION_MS;
 507              		.loc 1 62 9 view .LVU133
 508              		.loc 1 63 9 view .LVU134
 509              		.loc 1 63 58 is_stmt 0 view .LVU135
 510 0072 52F82410 		ldr	r1, [r2, r4, lsl #2]
 511              		.loc 1 63 63 view .LVU136
 512 0076 3C4A     		ldr	r2, .L36+24
 513              		.loc 1 63 31 view .LVU137
 514 0078 711A     		subs	r1, r6, r1
 515              		.loc 1 63 63 view .LVU138
 516 007a 1268     		ldr	r2, [r2]
 517 007c 9142     		cmp	r1, r2
 518 007e 2CBF     		ite	cs
 519 0080 0021     		movcs	r1, #0
 520 0082 0121     		movcc	r1, #1
 521              	.LVL30:
  64:Thaumazein.cpp ****         bool ledState  = arp_on ? blink : (padTouched || blink);
 522              		.loc 1 64 9 is_stmt 1 view .LVU139
 523              		.loc 1 64 33 is_stmt 0 view .LVU140
 524 0084 2FB9     		cbnz	r7, .L16
  62:Thaumazein.cpp ****         bool blink     = (now - arp_led_timestamps[ledIdx]) < ARP_LED_DURATION_MS;
 525              		.loc 1 62 48 view .LVU141
 526 0086 45FA03F3 		asr	r3, r5, r3
 527              	.LVL31:
 528              		.loc 1 64 55 view .LVU142
 529 008a 13F0010F 		tst	r3, #1
 530 008e 18BF     		it	ne
ARM GAS  /var/folders/9s/8rp0_f2s1n31qbztm3b5_fdh0000gn/T//ccdm6TqO.s 			page 22


 531 0090 4146     		movne	r1, r8
 532              	.LVL32:
 533              	.L16:
  65:Thaumazein.cpp ****         touch_leds[ledIdx].Write(ledState);
 534              		.loc 1 65 9 is_stmt 1 view .LVU143
 535              		.loc 1 65 33 is_stmt 0 view .LVU144
 536 0092 364B     		ldr	r3, .L36+28
 537 0094 1420     		movs	r0, #20
 538 0096 00FB0430 		mla	r0, r0, r4, r3
 539 009a FFF7FEFF 		bl	_ZN5daisy4GPIO5WriteEb
 540              	.LVL33:
 541              		.loc 1 65 33 view .LVU145
 542              	.LBE148:
  60:Thaumazein.cpp ****         int ledIdx = 11 - i;  // pad i maps to LED[11-i]
 543              		.loc 1 60 5 is_stmt 1 view .LVU146
  60:Thaumazein.cpp ****         int ledIdx = 11 - i;  // pad i maps to LED[11-i]
 544              		.loc 1 60 22 view .LVU147
 545 009e 013C     		subs	r4, r4, #1
 546              	.LVL34:
  60:Thaumazein.cpp ****         int ledIdx = 11 - i;  // pad i maps to LED[11-i]
 547              		.loc 1 60 22 is_stmt 0 view .LVU148
 548 00a0 E4D2     		bcs	.L17
 549              	.LBE147:
  66:Thaumazein.cpp ****     }
  67:Thaumazein.cpp **** 
  68:Thaumazein.cpp ****     if (touched == 0) {
 550              		.loc 1 68 5 is_stmt 1 view .LVU149
 551 00a2 6DB9     		cbnz	r5, .L22
  69:Thaumazein.cpp ****        
  70:Thaumazein.cpp ****         touch_cv_value = touch_cv_value * 0.95f; 
 552              		.loc 1 70 9 view .LVU150
 553              		.loc 1 70 26 is_stmt 0 view .LVU151
 554 00a4 324B     		ldr	r3, .L36+32
 555              		.loc 1 70 41 view .LVU152
 556 00a6 9FED337A 		vldr.32	s14, .L36+36
 557              		.loc 1 70 26 view .LVU153
 558 00aa D3ED007A 		vldr.32	s15, [r3]
 559              		.loc 1 70 41 view .LVU154
 560 00ae 67EE877A 		vmul.f32	s15, s15, s14
 561              	.LVL35:
 562              	.L35:
  71:Thaumazein.cpp ****         return;
  72:Thaumazein.cpp ****     }
  73:Thaumazein.cpp **** 
  74:Thaumazein.cpp ****     float total_deviation = 0.0f;
  75:Thaumazein.cpp ****     int touched_count = 0;
  76:Thaumazein.cpp **** 
  77:Thaumazein.cpp ****     // Iterate through all pads
  78:Thaumazein.cpp ****     for (int i = 0; i < 12; i++) {
  79:Thaumazein.cpp ****         if (touched & (1 << i)) {
  80:Thaumazein.cpp ****             int16_t deviation = touch_sensor.GetBaselineDeviation(i);
  81:Thaumazein.cpp ****             total_deviation += deviation;
  82:Thaumazein.cpp ****             touched_count++;
  83:Thaumazein.cpp ****         }
  84:Thaumazein.cpp ****     }
  85:Thaumazein.cpp **** 
  86:Thaumazein.cpp ****     float average_deviation = 0.0f;
ARM GAS  /var/folders/9s/8rp0_f2s1n31qbztm3b5_fdh0000gn/T//ccdm6TqO.s 			page 23


  87:Thaumazein.cpp ****     if (touched_count > 0) {
  88:Thaumazein.cpp ****         average_deviation = total_deviation / touched_count;
  89:Thaumazein.cpp ****     }
  90:Thaumazein.cpp **** 
  91:Thaumazein.cpp ****     // Normalize to 0.0-1.0 range with adjustable sensitivity
  92:Thaumazein.cpp ****     // Consider recalibrating sensitivity if needed for average pressure
  93:Thaumazein.cpp ****     float sensitivity = 150.0f;
  94:Thaumazein.cpp ****     float normalized_value = daisysp::fmax(0.0f, daisysp::fmin(1.0f, average_deviation / sensitivit
  95:Thaumazein.cpp **** 
  96:Thaumazein.cpp ****     // Apply curve for better control response (squared curve feels more natural)
  97:Thaumazein.cpp ****     normalized_value = normalized_value * normalized_value;
  98:Thaumazein.cpp **** 
  99:Thaumazein.cpp ****     // Remove the position component - control is now based purely on average pressure
 100:Thaumazein.cpp ****     // float position_value = highest_pad / 11.0f; // Removed
 101:Thaumazein.cpp ****     // float position_weight = 0.7f;              // Removed
 102:Thaumazein.cpp ****     // float combined_value = position_value * position_weight + normalized_value * (1.0f - positio
 103:Thaumazein.cpp ****     float combined_value = normalized_value; // Use normalized average pressure directly
 104:Thaumazein.cpp **** 
 105:Thaumazein.cpp ****     // Apply adaptive smoothing - more smoothing for small changes, less for big changes
 106:Thaumazein.cpp ****     float change = fabsf(combined_value - touch_cv_value);
 107:Thaumazein.cpp ****     float smoothing = daisysp::fmax(0.5f, 0.95f - change * 2.0f); // 0.5-0.95 smoothing range
 108:Thaumazein.cpp **** 
 109:Thaumazein.cpp ****     // Update the shared volatile variable
 110:Thaumazein.cpp ****     touch_cv_value = touch_cv_value * smoothing + combined_value * (1.0f - smoothing);
 563              		.loc 1 110 20 view .LVU155
 564 00b2 C3ED007A 		vstr.32	s15, [r3]
 565              	.LVL36:
 566              	.L13:
 567              		.loc 1 110 20 view .LVU156
 568              	.LBE115:
 569              	.LBE114:
 111:Thaumazein.cpp **** }
 570              		.loc 1 111 1 view .LVU157
 571 00b6 06B0     		add	sp, sp, #24
 572              		.cfi_remember_state
 573              		.cfi_def_cfa_offset 32
 574              		@ sp needed
 575 00b8 BDEC028B 		vldm	sp!, {d8}
 576              		.cfi_restore 80
 577              		.cfi_restore 81
 578              		.cfi_def_cfa_offset 24
 579 00bc BDE8F081 		pop	{r4, r5, r6, r7, r8, pc}
 580              	.LVL37:
 581              	.L22:
 582              		.cfi_restore_state
 583              	.LBB163:
 584              	.LBB161:
  74:Thaumazein.cpp ****     int touched_count = 0;
 585              		.loc 1 74 11 view .LVU158
 586 00c0 DFED2D8A 		vldr.32	s17, .L36+40
  75:Thaumazein.cpp **** 
 587              		.loc 1 75 9 view .LVU159
 588 00c4 0024     		movs	r4, #0
 589              	.LVL38:
  75:Thaumazein.cpp **** 
 590              		.loc 1 75 9 view .LVU160
 591 00c6 B0EE688A 		vmov.f32	s16, s17
ARM GAS  /var/folders/9s/8rp0_f2s1n31qbztm3b5_fdh0000gn/T//ccdm6TqO.s 			page 24


 592              	.LBB149:
  78:Thaumazein.cpp ****         if (touched & (1 << i)) {
 593              		.loc 1 78 14 view .LVU161
 594 00ca 2646     		mov	r6, r4
 595              	.LVL39:
 596              	.L18:
  78:Thaumazein.cpp ****         if (touched & (1 << i)) {
 597              		.loc 1 78 14 view .LVU162
 598              	.LBE149:
 599              	.LBE161:
 600              	.LBE163:
  79:Thaumazein.cpp ****             int16_t deviation = touch_sensor.GetBaselineDeviation(i);
 601              		.loc 1 79 9 is_stmt 1 view .LVU163
 602              	.LBB164:
 603              	.LBB162:
 604              	.LBB152:
 605              	.LBB150:
  79:Thaumazein.cpp ****             int16_t deviation = touch_sensor.GetBaselineDeviation(i);
 606              		.loc 1 79 21 is_stmt 0 view .LVU164
 607 00cc 45FA06F3 		asr	r3, r5, r6
  79:Thaumazein.cpp ****             int16_t deviation = touch_sensor.GetBaselineDeviation(i);
 608              		.loc 1 79 9 view .LVU165
 609 00d0 DB07     		lsls	r3, r3, #31
 610 00d2 0AD5     		bpl	.L19
 611              	.LBB151:
  80:Thaumazein.cpp ****             total_deviation += deviation;
 612              		.loc 1 80 13 is_stmt 1 view .LVU166
  80:Thaumazein.cpp ****             total_deviation += deviation;
 613              		.loc 1 80 66 is_stmt 0 view .LVU167
 614 00d4 F1B2     		uxtb	r1, r6
 615 00d6 1F48     		ldr	r0, .L36+4
 616 00d8 FFF7FEFF 		bl	_ZN14thaumazein_hal6Mpr12120GetBaselineDeviationEh
 617              	.LVL40:
  81:Thaumazein.cpp ****             touched_count++;
 618              		.loc 1 81 13 is_stmt 1 view .LVU168
  81:Thaumazein.cpp ****             touched_count++;
 619              		.loc 1 81 29 is_stmt 0 view .LVU169
 620 00dc 07EE900A 		vmov	s15, r0	@ int
  82:Thaumazein.cpp ****         }
 621              		.loc 1 82 26 view .LVU170
 622 00e0 0134     		adds	r4, r4, #1
 623              	.LVL41:
  81:Thaumazein.cpp ****             touched_count++;
 624              		.loc 1 81 29 view .LVU171
 625 00e2 F8EEE77A 		vcvt.f32.s32	s15, s15
 626 00e6 78EEA78A 		vadd.f32	s17, s17, s15
 627              	.LVL42:
  82:Thaumazein.cpp ****         }
 628              		.loc 1 82 13 is_stmt 1 view .LVU172
 629              	.L19:
  82:Thaumazein.cpp ****         }
 630              		.loc 1 82 13 is_stmt 0 view .LVU173
 631              	.LBE151:
 632              	.LBE150:
  78:Thaumazein.cpp ****         if (touched & (1 << i)) {
 633              		.loc 1 78 5 is_stmt 1 view .LVU174
 634 00ea 0136     		adds	r6, r6, #1
ARM GAS  /var/folders/9s/8rp0_f2s1n31qbztm3b5_fdh0000gn/T//ccdm6TqO.s 			page 25


 635              	.LVL43:
  78:Thaumazein.cpp ****         if (touched & (1 << i)) {
 636              		.loc 1 78 23 view .LVU175
 637 00ec 0C2E     		cmp	r6, #12
 638 00ee EDD1     		bne	.L18
  78:Thaumazein.cpp ****         if (touched & (1 << i)) {
 639              		.loc 1 78 23 is_stmt 0 view .LVU176
 640              	.LBE152:
  86:Thaumazein.cpp ****     if (touched_count > 0) {
 641              		.loc 1 86 5 is_stmt 1 view .LVU177
 642              	.LVL44:
  87:Thaumazein.cpp ****         average_deviation = total_deviation / touched_count;
 643              		.loc 1 87 5 view .LVU178
 644 00f0 5CB3     		cbz	r4, .L23
  88:Thaumazein.cpp ****     }
 645              		.loc 1 88 9 view .LVU179
  88:Thaumazein.cpp ****     }
 646              		.loc 1 88 45 is_stmt 0 view .LVU180
 647 00f2 07EE904A 		vmov	s15, r4	@ int
 648 00f6 F8EEE77A 		vcvt.f32.s32	s15, s15
  88:Thaumazein.cpp ****     }
 649              		.loc 1 88 27 view .LVU181
 650 00fa C8EEA76A 		vdiv.f32	s13, s17, s15
 651              	.LVL45:
 652              	.L20:
  93:Thaumazein.cpp ****     float normalized_value = daisysp::fmax(0.0f, daisysp::fmin(1.0f, average_deviation / sensitivit
 653              		.loc 1 93 5 is_stmt 1 view .LVU182
  94:Thaumazein.cpp **** 
 654              		.loc 1 94 5 view .LVU183
 655              	.LBB153:
 656              	.LBI153:
 657              		.file 7 "lib/DaisySP/Source/Utility/dsp.h"
   1:lib/DaisySP/Source/Utility/dsp.h **** /*
   2:lib/DaisySP/Source/Utility/dsp.h **** Copyright (c) 2020 Electrosmith, Corp, Emilie Gillet
   3:lib/DaisySP/Source/Utility/dsp.h **** 
   4:lib/DaisySP/Source/Utility/dsp.h **** Use of this source code is governed by an MIT-style
   5:lib/DaisySP/Source/Utility/dsp.h **** license that can be found in the LICENSE file or at
   6:lib/DaisySP/Source/Utility/dsp.h **** https://opensource.org/licenses/MIT.
   7:lib/DaisySP/Source/Utility/dsp.h **** */
   8:lib/DaisySP/Source/Utility/dsp.h **** 
   9:lib/DaisySP/Source/Utility/dsp.h **** /** Helpful defines, functions, and other utilities for use in/with daisysp modules.
  10:lib/DaisySP/Source/Utility/dsp.h **** */
  11:lib/DaisySP/Source/Utility/dsp.h **** #pragma once
  12:lib/DaisySP/Source/Utility/dsp.h **** #ifndef DSY_CORE_DSP
  13:lib/DaisySP/Source/Utility/dsp.h **** #define DSY_CORE_DSP
  14:lib/DaisySP/Source/Utility/dsp.h **** #include <cassert>
  15:lib/DaisySP/Source/Utility/dsp.h **** #include <cstdint>
  16:lib/DaisySP/Source/Utility/dsp.h **** #include <random>
  17:lib/DaisySP/Source/Utility/dsp.h **** #include <cmath>
  18:lib/DaisySP/Source/Utility/dsp.h **** 
  19:lib/DaisySP/Source/Utility/dsp.h **** /** PIs
  20:lib/DaisySP/Source/Utility/dsp.h **** */
  21:lib/DaisySP/Source/Utility/dsp.h **** #define PI_F 3.1415927410125732421875f
  22:lib/DaisySP/Source/Utility/dsp.h **** #define TWOPI_F (2.0f * PI_F)
  23:lib/DaisySP/Source/Utility/dsp.h **** #define HALFPI_F (PI_F * 0.5f)
  24:lib/DaisySP/Source/Utility/dsp.h **** #define DSY_MIN(in, mn) (in < mn ? in : mn)
  25:lib/DaisySP/Source/Utility/dsp.h **** #define DSY_MAX(in, mx) (in > mx ? in : mx)
ARM GAS  /var/folders/9s/8rp0_f2s1n31qbztm3b5_fdh0000gn/T//ccdm6TqO.s 			page 26


  26:lib/DaisySP/Source/Utility/dsp.h **** #define DSY_CLAMP(in, mn, mx) (DSY_MIN(DSY_MAX(in, mn), mx))
  27:lib/DaisySP/Source/Utility/dsp.h **** #define DSY_COUNTOF(_arr) (sizeof(_arr) / sizeof(_arr[0]))
  28:lib/DaisySP/Source/Utility/dsp.h **** 
  29:lib/DaisySP/Source/Utility/dsp.h **** namespace daisysp
  30:lib/DaisySP/Source/Utility/dsp.h **** {
  31:lib/DaisySP/Source/Utility/dsp.h **** //Avoids division for random floats. e.g. rand() * kRandFrac
  32:lib/DaisySP/Source/Utility/dsp.h **** static constexpr float kRandFrac = 1.f / (float)RAND_MAX;
  33:lib/DaisySP/Source/Utility/dsp.h **** 
  34:lib/DaisySP/Source/Utility/dsp.h **** //Convert from semitones to other units. e.g. 2 ^ (kOneTwelfth * x)
  35:lib/DaisySP/Source/Utility/dsp.h **** static constexpr float kOneTwelfth = 1.f / 12.f;
  36:lib/DaisySP/Source/Utility/dsp.h **** 
  37:lib/DaisySP/Source/Utility/dsp.h **** /** efficient floating point min/max
  38:lib/DaisySP/Source/Utility/dsp.h **** c/o stephen mccaul
  39:lib/DaisySP/Source/Utility/dsp.h **** */
  40:lib/DaisySP/Source/Utility/dsp.h **** inline float fmax(float a, float b)
  41:lib/DaisySP/Source/Utility/dsp.h **** {
  42:lib/DaisySP/Source/Utility/dsp.h ****     float r;
  43:lib/DaisySP/Source/Utility/dsp.h **** #ifdef __arm__
  44:lib/DaisySP/Source/Utility/dsp.h ****     asm("vmaxnm.f32 %[d], %[n], %[m]" : [d] "=t"(r) : [n] "t"(a), [m] "t"(b) :);
  45:lib/DaisySP/Source/Utility/dsp.h **** #else
  46:lib/DaisySP/Source/Utility/dsp.h ****     r = (a > b) ? a : b;
  47:lib/DaisySP/Source/Utility/dsp.h **** #endif // __arm__
  48:lib/DaisySP/Source/Utility/dsp.h ****     return r;
  49:lib/DaisySP/Source/Utility/dsp.h **** }
  50:lib/DaisySP/Source/Utility/dsp.h **** 
  51:lib/DaisySP/Source/Utility/dsp.h **** inline float fmin(float a, float b)
 658              		.loc 7 51 14 view .LVU184
 659              	.LBB154:
  52:lib/DaisySP/Source/Utility/dsp.h **** {
  53:lib/DaisySP/Source/Utility/dsp.h ****     float r;
 660              		.loc 7 53 5 view .LVU185
  54:lib/DaisySP/Source/Utility/dsp.h **** #ifdef __arm__
  55:lib/DaisySP/Source/Utility/dsp.h ****     asm("vminnm.f32 %[d], %[n], %[m]" : [d] "=t"(r) : [n] "t"(a), [m] "t"(b) :);
 661              		.loc 7 55 5 view .LVU186
 662              	.LBE154:
 663              	.LBE153:
  94:Thaumazein.cpp **** 
 664              		.loc 1 94 43 is_stmt 0 view .LVU187
 665 00fe 9FED1F6A 		vldr.32	s12, .L36+44
 106:Thaumazein.cpp ****     float smoothing = daisysp::fmax(0.5f, 0.95f - change * 2.0f); // 0.5-0.95 smoothing range
 666              		.loc 1 106 43 view .LVU188
 667 0102 1B4B     		ldr	r3, .L36+32
  94:Thaumazein.cpp **** 
 668              		.loc 1 94 43 view .LVU189
 669 0104 86EE867A 		vdiv.f32	s14, s13, s12
 670              	.LVL46:
 106:Thaumazein.cpp ****     float smoothing = daisysp::fmax(0.5f, 0.95f - change * 2.0f); // 0.5-0.95 smoothing range
 671              		.loc 1 106 43 view .LVU190
 672 0108 D3ED006A 		vldr.32	s13, [r3]
 673              	.LVL47:
 107:Thaumazein.cpp **** 
 674              		.loc 1 107 36 view .LVU191
 675 010c 9FED196A 		vldr.32	s12, .L36+36
 676              	.LBB156:
 677              	.LBB155:
 678              		.loc 7 55 5 view .LVU192
 679 0110 F7EE007A 		vmov.f32	s15, #1.0e+0
ARM GAS  /var/folders/9s/8rp0_f2s1n31qbztm3b5_fdh0000gn/T//ccdm6TqO.s 			page 27


 680              		.syntax unified
 681              	@ 55 "lib/DaisySP/Source/Utility/dsp.h" 1
 682 0114 87FEC77A 		vminnm.f32 s14, s15, s14
 683              	@ 0 "" 2
 684              	.LVL48:
  56:lib/DaisySP/Source/Utility/dsp.h **** #else
  57:lib/DaisySP/Source/Utility/dsp.h ****     r = (a < b) ? a : b;
  58:lib/DaisySP/Source/Utility/dsp.h **** #endif // __arm__
  59:lib/DaisySP/Source/Utility/dsp.h ****     return r;
 685              		.loc 7 59 5 is_stmt 1 view .LVU193
 686              		.loc 7 59 5 is_stmt 0 view .LVU194
 687              		.thumb
 688              		.syntax unified
 689              	.LBE155:
 690              	.LBE156:
 691              	.LBB157:
 692              	.LBI157:
  40:lib/DaisySP/Source/Utility/dsp.h **** {
 693              		.loc 7 40 14 is_stmt 1 view .LVU195
 694              	.LBB158:
  42:lib/DaisySP/Source/Utility/dsp.h **** #ifdef __arm__
 695              		.loc 7 42 5 view .LVU196
  44:lib/DaisySP/Source/Utility/dsp.h **** #else
 696              		.loc 7 44 5 view .LVU197
 697              		.syntax unified
 698              	@ 44 "lib/DaisySP/Source/Utility/dsp.h" 1
 699 0118 88FE077A 		vmaxnm.f32 s14, s16, s14
 700              	@ 0 "" 2
 701              	.LVL49:
  48:lib/DaisySP/Source/Utility/dsp.h **** }
 702              		.loc 7 48 5 view .LVU198
  48:lib/DaisySP/Source/Utility/dsp.h **** }
 703              		.loc 7 48 5 is_stmt 0 view .LVU199
 704              		.thumb
 705              		.syntax unified
 706              	.LBE158:
 707              	.LBE157:
  97:Thaumazein.cpp **** 
 708              		.loc 1 97 5 is_stmt 1 view .LVU200
  97:Thaumazein.cpp **** 
 709              		.loc 1 97 22 is_stmt 0 view .LVU201
 710 011c 27EE077A 		vmul.f32	s14, s14, s14
 711              	.LVL50:
 103:Thaumazein.cpp **** 
 712              		.loc 1 103 5 is_stmt 1 view .LVU202
 106:Thaumazein.cpp ****     float smoothing = daisysp::fmax(0.5f, 0.95f - change * 2.0f); // 0.5-0.95 smoothing range
 713              		.loc 1 106 5 view .LVU203
 107:Thaumazein.cpp **** 
 714              		.loc 1 107 5 view .LVU204
 107:Thaumazein.cpp **** 
 715              		.loc 1 107 36 is_stmt 0 view .LVU205
 716 0120 F0EE005A 		vmov.f32	s11, #2.0e+0
 106:Thaumazein.cpp ****     float smoothing = daisysp::fmax(0.5f, 0.95f - change * 2.0f); // 0.5-0.95 smoothing range
 717              		.loc 1 106 41 view .LVU206
 718 0124 77EE666A 		vsub.f32	s13, s14, s13
 719              	.LVL51:
 106:Thaumazein.cpp ****     float smoothing = daisysp::fmax(0.5f, 0.95f - change * 2.0f); // 0.5-0.95 smoothing range
ARM GAS  /var/folders/9s/8rp0_f2s1n31qbztm3b5_fdh0000gn/T//ccdm6TqO.s 			page 28


 720              		.loc 1 106 57 view .LVU207
 721 0128 F0EEE66A 		vabs.f32	s13, s13
 722              	.LVL52:
 107:Thaumazein.cpp **** 
 723              		.loc 1 107 36 view .LVU208
 724 012c A6EEE56A 		vfms.f32	s12, s13, s11
 725              	.LVL53:
 726              	.LBB159:
 727              	.LBI159:
  40:lib/DaisySP/Source/Utility/dsp.h **** {
 728              		.loc 7 40 14 is_stmt 1 view .LVU209
 729              	.LBB160:
  42:lib/DaisySP/Source/Utility/dsp.h **** #ifdef __arm__
 730              		.loc 7 42 5 view .LVU210
  44:lib/DaisySP/Source/Utility/dsp.h **** #else
 731              		.loc 7 44 5 view .LVU211
 732 0130 F6EE006A 		vmov.f32	s13, #5.0e-1
 733              	.LVL54:
  44:lib/DaisySP/Source/Utility/dsp.h **** #else
 734              		.loc 7 44 5 is_stmt 0 view .LVU212
 735              		.syntax unified
 736              	@ 44 "lib/DaisySP/Source/Utility/dsp.h" 1
 737 0134 C6FE866A 		vmaxnm.f32 s13, s13, s12
 738              	@ 0 "" 2
 739              	.LVL55:
  48:lib/DaisySP/Source/Utility/dsp.h **** }
 740              		.loc 7 48 5 is_stmt 1 view .LVU213
  48:lib/DaisySP/Source/Utility/dsp.h **** }
 741              		.loc 7 48 5 is_stmt 0 view .LVU214
 742              		.thumb
 743              		.syntax unified
 744              	.LBE160:
 745              	.LBE159:
 110:Thaumazein.cpp **** }
 746              		.loc 1 110 5 is_stmt 1 view .LVU215
 110:Thaumazein.cpp **** }
 747              		.loc 1 110 74 is_stmt 0 view .LVU216
 748 0138 77EEE67A 		vsub.f32	s15, s15, s13
 110:Thaumazein.cpp **** }
 749              		.loc 1 110 22 view .LVU217
 750 013c 93ED006A 		vldr.32	s12, [r3]
 110:Thaumazein.cpp **** }
 751              		.loc 1 110 66 view .LVU218
 752 0140 67EE877A 		vmul.f32	s15, s15, s14
 110:Thaumazein.cpp **** }
 753              		.loc 1 110 49 view .LVU219
 754 0144 E6EE867A 		vfma.f32	s15, s13, s12
 755 0148 B3E7     		b	.L35
 756              	.LVL56:
 757              	.L23:
  86:Thaumazein.cpp ****     if (touched_count > 0) {
 758              		.loc 1 86 11 view .LVU220
 759 014a DFED0B6A 		vldr.32	s13, .L36+40
 760 014e D6E7     		b	.L20
 761              	.L37:
 762              		.align	2
 763              	.L36:
ARM GAS  /var/folders/9s/8rp0_f2s1n31qbztm3b5_fdh0000gn/T//ccdm6TqO.s 			page 29


 764 0150 00000000 		.word	touch_sensor_present
 765 0154 00000000 		.word	touch_sensor
 766 0158 01080109 		.word	151062529
 767 015c 00000000 		.word	.LANCHOR0
 768 0160 00000000 		.word	arp
 769 0164 00000000 		.word	arp_led_timestamps
 770 0168 00000000 		.word	ARP_LED_DURATION_MS
 771 016c 00000000 		.word	touch_leds
 772 0170 00000000 		.word	.LANCHOR1
 773 0174 3333733F 		.word	1064514355
 774 0178 00000000 		.word	0
 775 017c 00001643 		.word	1125515264
 776              	.LBE162:
 777              	.LBE164:
 778              		.cfi_endproc
 779              	.LFE5843:
 781              		.section	.text.startup.main,"ax",%progbits
 782              		.align	1
 783              		.global	main
 784              		.syntax unified
 785              		.thumb
 786              		.thumb_func
 788              	main:
 789              	.LFB5847:
 112:Thaumazein.cpp **** 
 113:Thaumazein.cpp **** int main(void) {
 790              		.loc 1 113 16 is_stmt 1 view -0
 791              		.cfi_startproc
 792              		@ args = 0, pretend = 0, frame = 0
 793              		@ frame_needed = 0, uses_anonymous_args = 0
 114:Thaumazein.cpp ****     InitializeSynth();
 794              		.loc 1 114 5 view .LVU222
 113:Thaumazein.cpp ****     InitializeSynth();
 795              		.loc 1 113 16 is_stmt 0 view .LVU223
 796 0000 10B5     		push	{r4, lr}
 797              		.cfi_def_cfa_offset 8
 798              		.cfi_offset 4, -8
 799              		.cfi_offset 14, -4
 800              		.loc 1 114 20 view .LVU224
 801 0002 FFF7FEFF 		bl	_Z15InitializeSynthv
 802              	.LVL57:
 115:Thaumazein.cpp ****     
 116:Thaumazein.cpp ****     uint32_t lastPoll = hw.system.GetNow();  // Track last poll time
 803              		.loc 1 116 5 is_stmt 1 view .LVU225
 804              		.loc 1 116 41 is_stmt 0 view .LVU226
 805 0006 FFF7FEFF 		bl	_ZN5daisy6System6GetNowEv
 806              	.LVL58:
 807 000a 0446     		mov	r4, r0
 808              	.LVL59:
 809              	.L40:
 117:Thaumazein.cpp ****     
 118:Thaumazein.cpp ****     // Main Loop 
 119:Thaumazein.cpp ****     while (1) {
 810              		.loc 1 119 5 is_stmt 1 view .LVU227
 120:Thaumazein.cpp ****         UpdateLED();
 811              		.loc 1 120 9 view .LVU228
 812              		.loc 1 120 18 is_stmt 0 view .LVU229
ARM GAS  /var/folders/9s/8rp0_f2s1n31qbztm3b5_fdh0000gn/T//ccdm6TqO.s 			page 30


 813 000c FFF7FEFF 		bl	_Z9UpdateLEDv
 814              	.LVL60:
 121:Thaumazein.cpp ****         
 122:Thaumazein.cpp ****         // Check bootloader condition via ADC touch pads
 123:Thaumazein.cpp ****         Bootload();
 815              		.loc 1 123 9 is_stmt 1 view .LVU230
 816              		.loc 1 123 17 is_stmt 0 view .LVU231
 817 0010 FFF7FEFF 		bl	_Z8Bootloadv
 818              	.LVL61:
 124:Thaumazein.cpp ****         
 125:Thaumazein.cpp ****         UpdateDisplay();
 819              		.loc 1 125 9 is_stmt 1 view .LVU232
 820              		.loc 1 125 22 is_stmt 0 view .LVU233
 821 0014 FFF7FEFF 		bl	_Z13UpdateDisplayv
 822              	.LVL62:
 126:Thaumazein.cpp ****         
 127:Thaumazein.cpp ****         // Poll touch sensor every 5 ms (200 Hz)
 128:Thaumazein.cpp ****         if (hw.system.GetNow() - lastPoll >= 5) {
 823              		.loc 1 128 9 is_stmt 1 view .LVU234
 824              		.loc 1 128 29 is_stmt 0 view .LVU235
 825 0018 FFF7FEFF 		bl	_ZN5daisy6System6GetNowEv
 826              	.LVL63:
 827              		.loc 1 128 32 view .LVU236
 828 001c 001B     		subs	r0, r0, r4
 829              		.loc 1 128 9 view .LVU237
 830 001e 0428     		cmp	r0, #4
 831 0020 04D9     		bls	.L39
 129:Thaumazein.cpp ****             lastPoll = hw.system.GetNow();
 832              		.loc 1 129 13 is_stmt 1 view .LVU238
 833              		.loc 1 129 40 is_stmt 0 view .LVU239
 834 0022 FFF7FEFF 		bl	_ZN5daisy6System6GetNowEv
 835              	.LVL64:
 836 0026 0446     		mov	r4, r0
 837              	.LVL65:
 130:Thaumazein.cpp ****             PollTouchSensor(); 
 838              		.loc 1 130 13 is_stmt 1 view .LVU240
 839              		.loc 1 130 28 is_stmt 0 view .LVU241
 840 0028 FFF7FEFF 		bl	_Z15PollTouchSensorv
 841              	.LVL66:
 842              	.L39:
 131:Thaumazein.cpp ****         }
 132:Thaumazein.cpp ****         
 133:Thaumazein.cpp ****         // Yield for system tasks, adjusted for polling interval
 134:Thaumazein.cpp ****         System::Delay(1); // Shorter delay to allow more frequent polling checks
 843              		.loc 1 134 9 is_stmt 1 view .LVU242
 844              		.loc 1 134 22 is_stmt 0 view .LVU243
 845 002c 0120     		movs	r0, #1
 846 002e FFF7FEFF 		bl	_ZN5daisy6System5DelayEm
 847              	.LVL67:
 119:Thaumazein.cpp ****         UpdateLED();
 848              		.loc 1 119 5 is_stmt 1 view .LVU244
 120:Thaumazein.cpp ****         
 849              		.loc 1 120 18 is_stmt 0 view .LVU245
 850 0032 EBE7     		b	.L40
 851              		.cfi_endproc
 852              	.LFE5847:
 854              		.global	touch_cv_value
ARM GAS  /var/folders/9s/8rp0_f2s1n31qbztm3b5_fdh0000gn/T//ccdm6TqO.s 			page 31


 855              		.global	current_touch_state
 856              		.section	.bss.current_touch_state,"aw",%nobits
 857              		.align	1
 858              		.set	.LANCHOR0,. + 0
 861              	current_touch_state:
 862 0000 0000     		.space	2
 863              		.section	.bss.touch_cv_value,"aw",%nobits
 864              		.align	2
 865              		.set	.LANCHOR1,. + 0
 868              	touch_cv_value:
 869 0000 00000000 		.space	4
 870              		.text
 871              	.Letext0:
 872              		.file 8 "/Library/DaisyToolchain/0.2.0/arm/arm-none-eabi/include/machine/_default_types.h"
 873              		.file 9 "/Library/DaisyToolchain/0.2.0/arm/arm-none-eabi/include/sys/_stdint.h"
 874              		.file 10 "/Library/DaisyToolchain/0.2.0/arm/arm-none-eabi/include/stdint.h"
 875              		.file 11 "/Library/DaisyToolchain/0.2.0/arm/lib/gcc/arm-none-eabi/10.3.1/include/stddef.h"
 876              		.file 12 "/Library/DaisyToolchain/0.2.0/arm/arm-none-eabi/include/c++/10.3.1/cmath"
 877              		.file 13 "/Library/DaisyToolchain/0.2.0/arm/arm-none-eabi/include/c++/10.3.1/bits/std_abs.h"
 878              		.file 14 "/Library/DaisyToolchain/0.2.0/arm/arm-none-eabi/include/c++/10.3.1/cstdlib"
 879              		.file 15 "/Library/DaisyToolchain/0.2.0/arm/arm-none-eabi/include/c++/10.3.1/cstdint"
 880              		.file 16 "/Library/DaisyToolchain/0.2.0/arm/arm-none-eabi/include/c++/10.3.1/type_traits"
 881              		.file 17 "/Library/DaisyToolchain/0.2.0/arm/arm-none-eabi/include/c++/10.3.1/arm-none-eabi/thumb/v
 882              		.file 18 "/Library/DaisyToolchain/0.2.0/arm/arm-none-eabi/include/c++/10.3.1/bits/stl_pair.h"
 883              		.file 19 "/Library/DaisyToolchain/0.2.0/arm/arm-none-eabi/include/c++/10.3.1/debug/debug.h"
 884              		.file 20 "/Library/DaisyToolchain/0.2.0/arm/arm-none-eabi/include/c++/10.3.1/bits/algorithmfwd.h"
 885              		.file 21 "/Library/DaisyToolchain/0.2.0/arm/arm-none-eabi/include/c++/10.3.1/bits/exception_ptr.h"
 886              		.file 22 "/Library/DaisyToolchain/0.2.0/arm/arm-none-eabi/include/c++/10.3.1/cstdarg"
 887              		.file 23 "/Library/DaisyToolchain/0.2.0/arm/arm-none-eabi/include/c++/10.3.1/cstdio"
 888              		.file 24 "/Library/DaisyToolchain/0.2.0/arm/arm-none-eabi/include/c++/10.3.1/cstring"
 889              		.file 25 "/Library/DaisyToolchain/0.2.0/arm/arm-none-eabi/include/c++/10.3.1/cwchar"
 890              		.file 26 "/Library/DaisyToolchain/0.2.0/arm/arm-none-eabi/include/c++/10.3.1/clocale"
 891              		.file 27 "/Library/DaisyToolchain/0.2.0/arm/arm-none-eabi/include/c++/10.3.1/bits/basic_string.h"
 892              		.file 28 "/Library/DaisyToolchain/0.2.0/arm/arm-none-eabi/include/c++/10.3.1/bits/stl_iterator.h"
 893              		.file 29 "/Library/DaisyToolchain/0.2.0/arm/arm-none-eabi/include/c++/10.3.1/bits/uses_allocator.h
 894              		.file 30 "/Library/DaisyToolchain/0.2.0/arm/arm-none-eabi/include/c++/10.3.1/tuple"
 895              		.file 31 "/Library/DaisyToolchain/0.2.0/arm/arm-none-eabi/include/c++/10.3.1/bits/std_function.h"
 896              		.file 32 "/Library/DaisyToolchain/0.2.0/arm/arm-none-eabi/include/c++/10.3.1/functional"
 897              		.file 33 "/Library/DaisyToolchain/0.2.0/arm/arm-none-eabi/include/c++/10.3.1/bits/allocator.h"
 898              		.file 34 "/Library/DaisyToolchain/0.2.0/arm/arm-none-eabi/include/c++/10.3.1/bits/alloc_traits.h"
 899              		.file 35 "/Library/DaisyToolchain/0.2.0/arm/arm-none-eabi/include/c++/10.3.1/bits/stl_vector.h"
 900              		.file 36 "/Library/DaisyToolchain/0.2.0/arm/arm-none-eabi/include/c++/10.3.1/bits/vector.tcc"
 901              		.file 37 "/Library/DaisyToolchain/0.2.0/arm/arm-none-eabi/include/c++/10.3.1/bits/stl_function.h"
 902              		.file 38 "/Library/DaisyToolchain/0.2.0/arm/arm-none-eabi/include/c++/10.3.1/bits/refwrap.h"
 903              		.file 39 "/Library/DaisyToolchain/0.2.0/arm/arm-none-eabi/include/c++/10.3.1/bits/predefined_ops.h
 904              		.file 40 "/Library/DaisyToolchain/0.2.0/arm/arm-none-eabi/include/c++/10.3.1/ext/new_allocator.h"
 905              		.file 41 "/Library/DaisyToolchain/0.2.0/arm/arm-none-eabi/include/c++/10.3.1/ext/alloc_traits.h"
 906              		.file 42 "/Library/DaisyToolchain/0.2.0/arm/arm-none-eabi/include/sys/_types.h"
 907              		.file 43 "/Library/DaisyToolchain/0.2.0/arm/arm-none-eabi/include/sys/reent.h"
 908              		.file 44 "/Library/DaisyToolchain/0.2.0/arm/arm-none-eabi/include/sys/lock.h"
 909              		.file 45 "/Library/DaisyToolchain/0.2.0/arm/arm-none-eabi/include/math.h"
 910              		.file 46 "/Library/DaisyToolchain/0.2.0/arm/arm-none-eabi/include/stdlib.h"
 911              		.file 47 "/Library/DaisyToolchain/0.2.0/arm/arm-none-eabi/include/c++/10.3.1/math.h"
 912              		.file 48 "/Library/DaisyToolchain/0.2.0/arm/arm-none-eabi/include/c++/10.3.1/stdlib.h"
 913              		.file 49 "lib/libdaisy/src/per/tim.h"
 914              		.file 50 "lib/libdaisy/src/sys/system.h"
 915              		.file 51 "lib/libdaisy/src/per/qspi.h"
ARM GAS  /var/folders/9s/8rp0_f2s1n31qbztm3b5_fdh0000gn/T//ccdm6TqO.s 			page 32


 916              		.file 52 "lib/libdaisy/src/per/dac.h"
 917              		.file 53 "lib/libdaisy/src/per/gpio.h"
 918              		.file 54 "lib/libdaisy/src/per/sai.h"
 919              		.file 55 "lib/libdaisy/src/hid/audio.h"
 920              		.file 56 "lib/libdaisy/src/per/adc.h"
 921              		.file 57 "lib/libdaisy/src/hid/usb.h"
 922              		.file 58 "lib/libdaisy/src/hid/logger_impl.h"
 923              		.file 59 "lib/libdaisy/src/util/wav_format.h"
 924              		.file 60 "lib/libdaisy/src/dev/sr_595.h"
 925              		.file 61 "lib/libdaisy/src/dev/codec_ak4556.h"
 926              		.file 62 "lib/libdaisy/src/dev/max11300.h"
 927              		.file 63 "lib/libdaisy/src/hid/logger.h"
 928              		.file 64 "lib/libdaisy/src/dev/sdram.h"
 929              		.file 65 "/Library/DaisyToolchain/0.2.0/arm/lib/gcc/arm-none-eabi/10.3.1/include/stdarg.h"
 930              		.file 66 "/Library/DaisyToolchain/0.2.0/arm/arm-none-eabi/include/stdio.h"
 931              		.file 67 "/Library/DaisyToolchain/0.2.0/arm/arm-none-eabi/include/string.h"
 932              		.file 68 "lib/DaisySP/Source/Control/adenv.h"
 933              		.file 69 "lib/DaisySP/Source/Utility/metro.h"
 934              		.file 70 "/Library/DaisyToolchain/0.2.0/arm/arm-none-eabi/include/wchar.h"
 935              		.file 71 "/Library/DaisyToolchain/0.2.0/arm/arm-none-eabi/include/locale.h"
 936              		.file 72 "eurorack/stmlib/stmlib.h"
 937              		.file 73 "eurorack/plaits/dsp/dsp.h"
 938              		.file 74 "eurorack/plaits/dsp/engine/additive_engine.h"
 939              		.file 75 "eurorack/plaits/dsp/oscillator/oscillator.h"
 940              		.file 76 "eurorack/plaits/dsp/engine/chord_engine.h"
 941              		.file 77 "eurorack/plaits/dsp/physical_modelling/resonator.h"
 942              		.file 78 "eurorack/plaits/dsp/engine/particle_engine.h"
 943              		.file 79 "eurorack/plaits/dsp/physical_modelling/string.h"
 944              		.file 80 "eurorack/plaits/dsp/engine/string_engine.h"
 945              		.file 81 "eurorack/plaits/dsp/engine/swarm_engine.h"
 946              		.file 82 "eurorack/plaits/dsp/oscillator/variable_saw_oscillator.h"
 947              		.file 83 "eurorack/plaits/dsp/voice.h"
 948              		.file 84 "Effects/BiquadFilters.h"
 949              		.file 85 "Arpeggiator.h"
 950              		.file 86 "Thaumazein.h"
 951              		.file 87 "<built-in>"
ARM GAS  /var/folders/9s/8rp0_f2s1n31qbztm3b5_fdh0000gn/T//ccdm6TqO.s 			page 33


DEFINED SYMBOLS
                            *ABS*:0000000000000000 Thaumazein.cpp
/var/folders/9s/8rp0_f2s1n31qbztm3b5_fdh0000gn/T//ccdm6TqO.s:36     .text._Z13UpdateDisplayv.part.0:0000000000000000 $t
/var/folders/9s/8rp0_f2s1n31qbztm3b5_fdh0000gn/T//ccdm6TqO.s:41     .text._Z13UpdateDisplayv.part.0:0000000000000000 _Z13UpdateDisplayv.part.0
/var/folders/9s/8rp0_f2s1n31qbztm3b5_fdh0000gn/T//ccdm6TqO.s:236    .text._Z13UpdateDisplayv.part.0:00000000000000c0 $d
/var/folders/9s/8rp0_f2s1n31qbztm3b5_fdh0000gn/T//ccdm6TqO.s:254    .text._Z13UpdateDisplayv:0000000000000000 $t
/var/folders/9s/8rp0_f2s1n31qbztm3b5_fdh0000gn/T//ccdm6TqO.s:260    .text._Z13UpdateDisplayv:0000000000000000 _Z13UpdateDisplayv
/var/folders/9s/8rp0_f2s1n31qbztm3b5_fdh0000gn/T//ccdm6TqO.s:283    .text._Z13UpdateDisplayv:000000000000000c $d
/var/folders/9s/8rp0_f2s1n31qbztm3b5_fdh0000gn/T//ccdm6TqO.s:288    .text._Z15PollTouchSensorv:0000000000000000 $t
/var/folders/9s/8rp0_f2s1n31qbztm3b5_fdh0000gn/T//ccdm6TqO.s:294    .text._Z15PollTouchSensorv:0000000000000000 _Z15PollTouchSensorv
/var/folders/9s/8rp0_f2s1n31qbztm3b5_fdh0000gn/T//ccdm6TqO.s:764    .text._Z15PollTouchSensorv:0000000000000150 $d
/var/folders/9s/8rp0_f2s1n31qbztm3b5_fdh0000gn/T//ccdm6TqO.s:782    .text.startup.main:0000000000000000 $t
/var/folders/9s/8rp0_f2s1n31qbztm3b5_fdh0000gn/T//ccdm6TqO.s:788    .text.startup.main:0000000000000000 main
/var/folders/9s/8rp0_f2s1n31qbztm3b5_fdh0000gn/T//ccdm6TqO.s:868    .bss.touch_cv_value:0000000000000000 touch_cv_value
/var/folders/9s/8rp0_f2s1n31qbztm3b5_fdh0000gn/T//ccdm6TqO.s:861    .bss.current_touch_state:0000000000000000 current_touch_state
/var/folders/9s/8rp0_f2s1n31qbztm3b5_fdh0000gn/T//ccdm6TqO.s:857    .bss.current_touch_state:0000000000000000 $d
/var/folders/9s/8rp0_f2s1n31qbztm3b5_fdh0000gn/T//ccdm6TqO.s:864    .bss.touch_cv_value:0000000000000000 $d

UNDEFINED SYMBOLS
snprintf
_ZN5daisy6LoggerILNS_17LoggerDestinationE1EE9PrintLineEPKcz
cpu_meter
current_engine_index
adc_raw_values
update_display
_ZNK14thaumazein_hal6Mpr1218HasErrorEv
_ZN14thaumazein_hal6Mpr12110ClearErrorEv
_ZN14thaumazein_hal6Mpr1214InitERKNS0_6ConfigE
_ZN14thaumazein_hal6Mpr12113SetThresholdsEhh
_ZN14thaumazein_hal6Mpr1217TouchedEv
_ZN5daisy6System6GetNowEv
_ZNK11Arpeggiator8IsActiveEv
_ZN5daisy4GPIO5WriteEb
_ZN14thaumazein_hal6Mpr12120GetBaselineDeviationEh
touch_sensor_present
touch_sensor
arp
arp_led_timestamps
ARP_LED_DURATION_MS
touch_leds
_Z15InitializeSynthv
_Z9UpdateLEDv
_Z8Bootloadv
_ZN5daisy6System5DelayEm
