Archive member included to satisfy reference by file (symbol)

lib/libdaisy/build/libdaisy.a(startup_stm32h750xx.o)
                              (Reset_Handler)
lib/libdaisy/build/libdaisy.a(system_stm32h7xx.o)
                              lib/libdaisy/build/libdaisy.a(startup_stm32h750xx.o) (SystemInit)
/Library/DaisyToolchain/0.2.0/arm/bin/../lib/gcc/arm-none-eabi/10.3.1/../../../../arm-none-eabi/lib/thumb/v7e-m+dp/hard/libc_nano.a(lib_a-exit.o)
                              /Library/DaisyToolchain/0.2.0/arm/bin/../lib/gcc/arm-none-eabi/10.3.1/../../../../arm-none-eabi/lib/thumb/v7e-m+dp/hard/crt0.o (exit)
/Library/DaisyToolchain/0.2.0/arm/bin/../lib/gcc/arm-none-eabi/10.3.1/../../../../arm-none-eabi/lib/thumb/v7e-m+dp/hard/libc_nano.a(lib_a-impure.o)
                              /Library/DaisyToolchain/0.2.0/arm/bin/../lib/gcc/arm-none-eabi/10.3.1/../../../../arm-none-eabi/lib/thumb/v7e-m+dp/hard/libc_nano.a(lib_a-exit.o) (_global_impure_ptr)
/Library/DaisyToolchain/0.2.0/arm/bin/../lib/gcc/arm-none-eabi/10.3.1/../../../../arm-none-eabi/lib/thumb/v7e-m+dp/hard/libc_nano.a(lib_a-init.o)
                              /Library/DaisyToolchain/0.2.0/arm/bin/../lib/gcc/arm-none-eabi/10.3.1/../../../../arm-none-eabi/lib/thumb/v7e-m+dp/hard/crt0.o (__libc_init_array)
/Library/DaisyToolchain/0.2.0/arm/bin/../lib/gcc/arm-none-eabi/10.3.1/../../../../arm-none-eabi/lib/thumb/v7e-m+dp/hard/libc_nano.a(lib_a-memcpy-stub.o)
                              lib/libdaisy/build/libdaisy.a(startup_stm32h750xx.o) (memcpy)
/Library/DaisyToolchain/0.2.0/arm/bin/../lib/gcc/arm-none-eabi/10.3.1/../../../../arm-none-eabi/lib/thumb/v7e-m+dp/hard/libc_nano.a(lib_a-memset.o)
                              /Library/DaisyToolchain/0.2.0/arm/bin/../lib/gcc/arm-none-eabi/10.3.1/../../../../arm-none-eabi/lib/thumb/v7e-m+dp/hard/crt0.o (memset)
/Library/DaisyToolchain/0.2.0/arm/bin/../lib/gcc/arm-none-eabi/10.3.1/../../../../arm-none-eabi/lib/thumb/v7e-m+dp/hard/libnosys.a(_exit.o)
                              /Library/DaisyToolchain/0.2.0/arm/bin/../lib/gcc/arm-none-eabi/10.3.1/../../../../arm-none-eabi/lib/thumb/v7e-m+dp/hard/libc_nano.a(lib_a-exit.o) (_exit)

Discarded input sections

 .text          0x0000000000000000        0x0 /Library/DaisyToolchain/0.2.0/arm/bin/../lib/gcc/arm-none-eabi/10.3.1/thumb/v7e-m+dp/hard/crti.o
 .data          0x0000000000000000        0x0 /Library/DaisyToolchain/0.2.0/arm/bin/../lib/gcc/arm-none-eabi/10.3.1/thumb/v7e-m+dp/hard/crti.o
 .bss           0x0000000000000000        0x0 /Library/DaisyToolchain/0.2.0/arm/bin/../lib/gcc/arm-none-eabi/10.3.1/thumb/v7e-m+dp/hard/crti.o
 .data          0x0000000000000000        0x4 /Library/DaisyToolchain/0.2.0/arm/bin/../lib/gcc/arm-none-eabi/10.3.1/thumb/v7e-m+dp/hard/crtbegin.o
 .rodata        0x0000000000000000       0x24 /Library/DaisyToolchain/0.2.0/arm/bin/../lib/gcc/arm-none-eabi/10.3.1/thumb/v7e-m+dp/hard/crtbegin.o
 .text          0x0000000000000000       0x7c /Library/DaisyToolchain/0.2.0/arm/bin/../lib/gcc/arm-none-eabi/10.3.1/../../../../arm-none-eabi/lib/thumb/v7e-m+dp/hard/crt0.o
 .data          0x0000000000000000        0x0 /Library/DaisyToolchain/0.2.0/arm/bin/../lib/gcc/arm-none-eabi/10.3.1/../../../../arm-none-eabi/lib/thumb/v7e-m+dp/hard/crt0.o
 .bss           0x0000000000000000        0x0 /Library/DaisyToolchain/0.2.0/arm/bin/../lib/gcc/arm-none-eabi/10.3.1/../../../../arm-none-eabi/lib/thumb/v7e-m+dp/hard/crt0.o
 .ARM.extab     0x0000000000000000        0x0 /Library/DaisyToolchain/0.2.0/arm/bin/../lib/gcc/arm-none-eabi/10.3.1/../../../../arm-none-eabi/lib/thumb/v7e-m+dp/hard/crt0.o
 .ARM.exidx     0x0000000000000000       0x10 /Library/DaisyToolchain/0.2.0/arm/bin/../lib/gcc/arm-none-eabi/10.3.1/../../../../arm-none-eabi/lib/thumb/v7e-m+dp/hard/crt0.o
 .ARM.attributes
                0x0000000000000000       0x1c /Library/DaisyToolchain/0.2.0/arm/bin/../lib/gcc/arm-none-eabi/10.3.1/../../../../arm-none-eabi/lib/thumb/v7e-m+dp/hard/crt0.o
 .text          0x0000000000000000        0x0 lib/libdaisy/build/libdaisy.a(startup_stm32h750xx.o)
 .data          0x0000000000000000        0x0 lib/libdaisy/build/libdaisy.a(startup_stm32h750xx.o)
 .bss           0x0000000000000000        0x0 lib/libdaisy/build/libdaisy.a(startup_stm32h750xx.o)
 .text          0x0000000000000000        0x0 lib/libdaisy/build/libdaisy.a(system_stm32h7xx.o)
 .data          0x0000000000000000        0x0 lib/libdaisy/build/libdaisy.a(system_stm32h7xx.o)
 .bss           0x0000000000000000        0x0 lib/libdaisy/build/libdaisy.a(system_stm32h7xx.o)
 .text.SystemCoreClockUpdate
                0x0000000000000000      0x150 lib/libdaisy/build/libdaisy.a(system_stm32h7xx.o)
 .data.SystemCoreClock
                0x0000000000000000        0x4 lib/libdaisy/build/libdaisy.a(system_stm32h7xx.o)
 .data.SystemD2Clock
                0x0000000000000000        0x4 lib/libdaisy/build/libdaisy.a(system_stm32h7xx.o)
 .rodata.D1CorePrescTable
                0x0000000000000000       0x10 lib/libdaisy/build/libdaisy.a(system_stm32h7xx.o)
 .text          0x0000000000000000        0x0 /Library/DaisyToolchain/0.2.0/arm/bin/../lib/gcc/arm-none-eabi/10.3.1/../../../../arm-none-eabi/lib/thumb/v7e-m+dp/hard/libc_nano.a(lib_a-exit.o)
 .data          0x0000000000000000        0x0 /Library/DaisyToolchain/0.2.0/arm/bin/../lib/gcc/arm-none-eabi/10.3.1/../../../../arm-none-eabi/lib/thumb/v7e-m+dp/hard/libc_nano.a(lib_a-exit.o)
 .bss           0x0000000000000000        0x0 /Library/DaisyToolchain/0.2.0/arm/bin/../lib/gcc/arm-none-eabi/10.3.1/../../../../arm-none-eabi/lib/thumb/v7e-m+dp/hard/libc_nano.a(lib_a-exit.o)
 .text.exit     0x0000000000000000       0x28 /Library/DaisyToolchain/0.2.0/arm/bin/../lib/gcc/arm-none-eabi/10.3.1/../../../../arm-none-eabi/lib/thumb/v7e-m+dp/hard/libc_nano.a(lib_a-exit.o)
 .debug_frame   0x0000000000000000       0x28 /Library/DaisyToolchain/0.2.0/arm/bin/../lib/gcc/arm-none-eabi/10.3.1/../../../../arm-none-eabi/lib/thumb/v7e-m+dp/hard/libc_nano.a(lib_a-exit.o)
 .ARM.attributes
                0x0000000000000000       0x32 /Library/DaisyToolchain/0.2.0/arm/bin/../lib/gcc/arm-none-eabi/10.3.1/../../../../arm-none-eabi/lib/thumb/v7e-m+dp/hard/libc_nano.a(lib_a-exit.o)
 .text          0x0000000000000000        0x0 /Library/DaisyToolchain/0.2.0/arm/bin/../lib/gcc/arm-none-eabi/10.3.1/../../../../arm-none-eabi/lib/thumb/v7e-m+dp/hard/libc_nano.a(lib_a-impure.o)
 .data          0x0000000000000000        0x0 /Library/DaisyToolchain/0.2.0/arm/bin/../lib/gcc/arm-none-eabi/10.3.1/../../../../arm-none-eabi/lib/thumb/v7e-m+dp/hard/libc_nano.a(lib_a-impure.o)
 .bss           0x0000000000000000        0x0 /Library/DaisyToolchain/0.2.0/arm/bin/../lib/gcc/arm-none-eabi/10.3.1/../../../../arm-none-eabi/lib/thumb/v7e-m+dp/hard/libc_nano.a(lib_a-impure.o)
 .data._impure_ptr
                0x0000000000000000        0x4 /Library/DaisyToolchain/0.2.0/arm/bin/../lib/gcc/arm-none-eabi/10.3.1/../../../../arm-none-eabi/lib/thumb/v7e-m+dp/hard/libc_nano.a(lib_a-impure.o)
 .data.impure_data
                0x0000000000000000       0x60 /Library/DaisyToolchain/0.2.0/arm/bin/../lib/gcc/arm-none-eabi/10.3.1/../../../../arm-none-eabi/lib/thumb/v7e-m+dp/hard/libc_nano.a(lib_a-impure.o)
 .rodata._global_impure_ptr
                0x0000000000000000        0x4 /Library/DaisyToolchain/0.2.0/arm/bin/../lib/gcc/arm-none-eabi/10.3.1/../../../../arm-none-eabi/lib/thumb/v7e-m+dp/hard/libc_nano.a(lib_a-impure.o)
 .ARM.attributes
                0x0000000000000000       0x32 /Library/DaisyToolchain/0.2.0/arm/bin/../lib/gcc/arm-none-eabi/10.3.1/../../../../arm-none-eabi/lib/thumb/v7e-m+dp/hard/libc_nano.a(lib_a-impure.o)
 .text          0x0000000000000000        0x0 /Library/DaisyToolchain/0.2.0/arm/bin/../lib/gcc/arm-none-eabi/10.3.1/../../../../arm-none-eabi/lib/thumb/v7e-m+dp/hard/libc_nano.a(lib_a-init.o)
 .data          0x0000000000000000        0x0 /Library/DaisyToolchain/0.2.0/arm/bin/../lib/gcc/arm-none-eabi/10.3.1/../../../../arm-none-eabi/lib/thumb/v7e-m+dp/hard/libc_nano.a(lib_a-init.o)
 .bss           0x0000000000000000        0x0 /Library/DaisyToolchain/0.2.0/arm/bin/../lib/gcc/arm-none-eabi/10.3.1/../../../../arm-none-eabi/lib/thumb/v7e-m+dp/hard/libc_nano.a(lib_a-init.o)
 .text          0x0000000000000000        0x0 /Library/DaisyToolchain/0.2.0/arm/bin/../lib/gcc/arm-none-eabi/10.3.1/../../../../arm-none-eabi/lib/thumb/v7e-m+dp/hard/libc_nano.a(lib_a-memcpy-stub.o)
 .data          0x0000000000000000        0x0 /Library/DaisyToolchain/0.2.0/arm/bin/../lib/gcc/arm-none-eabi/10.3.1/../../../../arm-none-eabi/lib/thumb/v7e-m+dp/hard/libc_nano.a(lib_a-memcpy-stub.o)
 .bss           0x0000000000000000        0x0 /Library/DaisyToolchain/0.2.0/arm/bin/../lib/gcc/arm-none-eabi/10.3.1/../../../../arm-none-eabi/lib/thumb/v7e-m+dp/hard/libc_nano.a(lib_a-memcpy-stub.o)
 .text          0x0000000000000000        0x0 /Library/DaisyToolchain/0.2.0/arm/bin/../lib/gcc/arm-none-eabi/10.3.1/../../../../arm-none-eabi/lib/thumb/v7e-m+dp/hard/libc_nano.a(lib_a-memset.o)
 .data          0x0000000000000000        0x0 /Library/DaisyToolchain/0.2.0/arm/bin/../lib/gcc/arm-none-eabi/10.3.1/../../../../arm-none-eabi/lib/thumb/v7e-m+dp/hard/libc_nano.a(lib_a-memset.o)
 .bss           0x0000000000000000        0x0 /Library/DaisyToolchain/0.2.0/arm/bin/../lib/gcc/arm-none-eabi/10.3.1/../../../../arm-none-eabi/lib/thumb/v7e-m+dp/hard/libc_nano.a(lib_a-memset.o)
 .text          0x0000000000000000        0x0 /Library/DaisyToolchain/0.2.0/arm/bin/../lib/gcc/arm-none-eabi/10.3.1/../../../../arm-none-eabi/lib/thumb/v7e-m+dp/hard/libnosys.a(_exit.o)
 .data          0x0000000000000000        0x0 /Library/DaisyToolchain/0.2.0/arm/bin/../lib/gcc/arm-none-eabi/10.3.1/../../../../arm-none-eabi/lib/thumb/v7e-m+dp/hard/libnosys.a(_exit.o)
 .bss           0x0000000000000000        0x0 /Library/DaisyToolchain/0.2.0/arm/bin/../lib/gcc/arm-none-eabi/10.3.1/../../../../arm-none-eabi/lib/thumb/v7e-m+dp/hard/libnosys.a(_exit.o)
 .text._exit    0x0000000000000000        0x4 /Library/DaisyToolchain/0.2.0/arm/bin/../lib/gcc/arm-none-eabi/10.3.1/../../../../arm-none-eabi/lib/thumb/v7e-m+dp/hard/libnosys.a(_exit.o)
 .debug_frame   0x0000000000000000       0x20 /Library/DaisyToolchain/0.2.0/arm/bin/../lib/gcc/arm-none-eabi/10.3.1/../../../../arm-none-eabi/lib/thumb/v7e-m+dp/hard/libnosys.a(_exit.o)
 .ARM.attributes
                0x0000000000000000       0x32 /Library/DaisyToolchain/0.2.0/arm/bin/../lib/gcc/arm-none-eabi/10.3.1/../../../../arm-none-eabi/lib/thumb/v7e-m+dp/hard/libnosys.a(_exit.o)
 .text          0x0000000000000000        0x0 build/correlator.o
 .data          0x0000000000000000        0x0 build/correlator.o
 .bss           0x0000000000000000        0x0 build/correlator.o
 .text._ZN6clouds10Correlator4InitEPmS1_
                0x0000000000000000       0x12 build/correlator.o
 .text._ZN6clouds10Correlator21EvaluateNextCandidateEv
                0x0000000000000000       0x98 build/correlator.o
 .text._ZN6clouds10Correlator11StartSearchElll
                0x0000000000000000       0x14 build/correlator.o
 .debug_info    0x0000000000000000     0x233a build/correlator.o
 .debug_abbrev  0x0000000000000000      0x426 build/correlator.o
 .debug_loc     0x0000000000000000      0x340 build/correlator.o
 .debug_aranges
                0x0000000000000000       0x30 build/correlator.o
 .debug_ranges  0x0000000000000000       0x20 build/correlator.o
 .debug_line    0x0000000000000000      0x548 build/correlator.o
 .debug_str     0x0000000000000000     0x1462 build/correlator.o
 .comment       0x0000000000000000       0x4a build/correlator.o
 .debug_frame   0x0000000000000000       0x50 build/correlator.o
 .ARM.attributes
                0x0000000000000000       0x32 build/correlator.o
 .text          0x0000000000000000        0x0 /Library/DaisyToolchain/0.2.0/arm/bin/../lib/gcc/arm-none-eabi/10.3.1/thumb/v7e-m+dp/hard/crtend.o
 .data          0x0000000000000000        0x0 /Library/DaisyToolchain/0.2.0/arm/bin/../lib/gcc/arm-none-eabi/10.3.1/thumb/v7e-m+dp/hard/crtend.o
 .bss           0x0000000000000000        0x0 /Library/DaisyToolchain/0.2.0/arm/bin/../lib/gcc/arm-none-eabi/10.3.1/thumb/v7e-m+dp/hard/crtend.o
 .rodata        0x0000000000000000       0x24 /Library/DaisyToolchain/0.2.0/arm/bin/../lib/gcc/arm-none-eabi/10.3.1/thumb/v7e-m+dp/hard/crtend.o
 .eh_frame      0x0000000000000000        0x4 /Library/DaisyToolchain/0.2.0/arm/bin/../lib/gcc/arm-none-eabi/10.3.1/thumb/v7e-m+dp/hard/crtend.o
 .ARM.attributes
                0x0000000000000000       0x32 /Library/DaisyToolchain/0.2.0/arm/bin/../lib/gcc/arm-none-eabi/10.3.1/thumb/v7e-m+dp/hard/crtend.o
 .text          0x0000000000000000        0x0 /Library/DaisyToolchain/0.2.0/arm/bin/../lib/gcc/arm-none-eabi/10.3.1/thumb/v7e-m+dp/hard/crtn.o
 .data          0x0000000000000000        0x0 /Library/DaisyToolchain/0.2.0/arm/bin/../lib/gcc/arm-none-eabi/10.3.1/thumb/v7e-m+dp/hard/crtn.o
 .bss           0x0000000000000000        0x0 /Library/DaisyToolchain/0.2.0/arm/bin/../lib/gcc/arm-none-eabi/10.3.1/thumb/v7e-m+dp/hard/crtn.o

Memory Configuration

Name             Origin             Length             Attributes
FLASH            0x0000000008000000 0x0000000000020000 xr
DTCMRAM          0x0000000020000000 0x0000000000020000 xrw
SRAM             0x0000000024000000 0x0000000000080000 xrw
RAM_D2_DMA       0x0000000030000000 0x0000000000008000 xrw
RAM_D2           0x0000000030008000 0x0000000000040000 xrw
RAM_D3           0x0000000038000000 0x0000000000010000 xrw
BACKUP_SRAM      0x0000000038800000 0x0000000000001000 xrw
ITCMRAM          0x0000000000000000 0x0000000000010000 xrw
SDRAM            0x00000000c0000000 0x0000000004000000 xrw
QSPIFLASH        0x0000000090040000 0x00000000007c0000 xr
*default*        0x0000000000000000 0xffffffffffffffff

Linker script and memory map

LOAD /Library/DaisyToolchain/0.2.0/arm/bin/../lib/gcc/arm-none-eabi/10.3.1/thumb/v7e-m+dp/hard/crti.o
LOAD /Library/DaisyToolchain/0.2.0/arm/bin/../lib/gcc/arm-none-eabi/10.3.1/thumb/v7e-m+dp/hard/crtbegin.o
LOAD /Library/DaisyToolchain/0.2.0/arm/bin/../lib/gcc/arm-none-eabi/10.3.1/../../../../arm-none-eabi/lib/thumb/v7e-m+dp/hard/crt0.o
LOAD lib/libdaisy/build/libdaisy.a
LOAD /Library/DaisyToolchain/0.2.0/arm/bin/../lib/gcc/arm-none-eabi/10.3.1/../../../../arm-none-eabi/lib/thumb/v7e-m+dp/hard/libc_nano.a
LOAD /Library/DaisyToolchain/0.2.0/arm/bin/../lib/gcc/arm-none-eabi/10.3.1/../../../../arm-none-eabi/lib/thumb/v7e-m+dp/hard/libm.a
LOAD /Library/DaisyToolchain/0.2.0/arm/bin/../lib/gcc/arm-none-eabi/10.3.1/../../../../arm-none-eabi/lib/thumb/v7e-m+dp/hard/libnosys.a
LOAD lib/DaisySP/build/libdaisysp.a
LOAD build/correlator.o
START GROUP
LOAD /Library/DaisyToolchain/0.2.0/arm/bin/../lib/gcc/arm-none-eabi/10.3.1/thumb/v7e-m+dp/hard/libgcc.a
LOAD /Library/DaisyToolchain/0.2.0/arm/bin/../lib/gcc/arm-none-eabi/10.3.1/../../../../arm-none-eabi/lib/thumb/v7e-m+dp/hard/libc_nano.a
END GROUP
START GROUP
LOAD /Library/DaisyToolchain/0.2.0/arm/bin/../lib/gcc/arm-none-eabi/10.3.1/thumb/v7e-m+dp/hard/libgcc.a
LOAD /Library/DaisyToolchain/0.2.0/arm/bin/../lib/gcc/arm-none-eabi/10.3.1/../../../../arm-none-eabi/lib/thumb/v7e-m+dp/hard/libc_nano.a
LOAD /Library/DaisyToolchain/0.2.0/arm/bin/../lib/gcc/arm-none-eabi/10.3.1/../../../../arm-none-eabi/lib/thumb/v7e-m+dp/hard/libnosys.a
END GROUP
START GROUP
LOAD /Library/DaisyToolchain/0.2.0/arm/bin/../lib/gcc/arm-none-eabi/10.3.1/thumb/v7e-m+dp/hard/libgcc.a
LOAD /Library/DaisyToolchain/0.2.0/arm/bin/../lib/gcc/arm-none-eabi/10.3.1/../../../../arm-none-eabi/lib/thumb/v7e-m+dp/hard/libc_nano.a
LOAD /Library/DaisyToolchain/0.2.0/arm/bin/../lib/gcc/arm-none-eabi/10.3.1/../../../../arm-none-eabi/lib/thumb/v7e-m+dp/hard/libnosys.a
END GROUP
LOAD /Library/DaisyToolchain/0.2.0/arm/bin/../lib/gcc/arm-none-eabi/10.3.1/thumb/v7e-m+dp/hard/crtend.o
LOAD /Library/DaisyToolchain/0.2.0/arm/bin/../lib/gcc/arm-none-eabi/10.3.1/thumb/v7e-m+dp/hard/crtn.o
                0x0000000020020000                _estack = 0x20020000

.isr_vector     0x0000000090040000      0x298
                0x0000000090040000                . = ALIGN (0x4)
 *(.isr_vector)
 .isr_vector    0x0000000090040000      0x298 lib/libdaisy/build/libdaisy.a(startup_stm32h750xx.o)
                0x0000000090040000                g_pfnVectors
                0x0000000090040298                . = ALIGN (0x4)

.text           0x0000000090040298      0x1b8
                0x0000000090040298                . = ALIGN (0x4)
                0x0000000090040298                _stext = .
 *(.text)
 .text          0x0000000090040298       0x40 /Library/DaisyToolchain/0.2.0/arm/bin/../lib/gcc/arm-none-eabi/10.3.1/thumb/v7e-m+dp/hard/crtbegin.o
 *(.text*)
 .text.Default_Handler
                0x00000000900402d8        0xc lib/libdaisy/build/libdaisy.a(startup_stm32h750xx.o)
                0x00000000900402d8                DMA1_Stream3_IRQHandler
                0x00000000900402d8                HASH_RNG_IRQHandler
                0x00000000900402d8                EXTI2_IRQHandler
                0x00000000900402d8                TIM8_CC_IRQHandler
                0x00000000900402d8                HRTIM1_Master_IRQHandler
                0x00000000900402d8                DebugMon_Handler
                0x00000000900402d8                UART8_IRQHandler
                0x00000000900402d8                SPI4_IRQHandler
                0x00000000900402d8                TIM1_CC_IRQHandler
                0x00000000900402d8                BDMA_Channel6_IRQHandler
                0x00000000900402d8                DMA2_Stream5_IRQHandler
                0x00000000900402d8                HardFault_Handler
                0x00000000900402d8                HRTIM1_FLT_IRQHandler
                0x00000000900402d8                JPEG_IRQHandler
                0x00000000900402d8                DMA1_Stream5_IRQHandler
                0x00000000900402d8                SysTick_Handler
                0x00000000900402d8                BDMA_Channel1_IRQHandler
                0x00000000900402d8                HRTIM1_TIMD_IRQHandler
                0x00000000900402d8                TAMP_STAMP_IRQHandler
                0x00000000900402d8                PendSV_Handler
                0x00000000900402d8                NMI_Handler
                0x00000000900402d8                EXTI3_IRQHandler
                0x00000000900402d8                LPTIM4_IRQHandler
                0x00000000900402d8                TIM8_TRG_COM_TIM14_IRQHandler
                0x00000000900402d8                LPTIM2_IRQHandler
                0x00000000900402d8                DFSDM1_FLT1_IRQHandler
                0x00000000900402d8                DMAMUX2_OVR_IRQHandler
                0x00000000900402d8                TIM8_UP_TIM13_IRQHandler
                0x00000000900402d8                I2C3_ER_IRQHandler
                0x00000000900402d8                DFSDM1_FLT2_IRQHandler
                0x00000000900402d8                MDMA_IRQHandler
                0x00000000900402d8                LPTIM3_IRQHandler
                0x00000000900402d8                HSEM1_IRQHandler
                0x00000000900402d8                EXTI0_IRQHandler
                0x00000000900402d8                I2C2_EV_IRQHandler
                0x00000000900402d8                DMA1_Stream2_IRQHandler
                0x00000000900402d8                FPU_IRQHandler
                0x00000000900402d8                OTG_HS_WKUP_IRQHandler
                0x00000000900402d8                FDCAN1_IT1_IRQHandler
                0x00000000900402d8                UsageFault_Handler
                0x00000000900402d8                LTDC_ER_IRQHandler
                0x00000000900402d8                DMA2_Stream2_IRQHandler
                0x00000000900402d8                HRTIM1_TIME_IRQHandler
                0x00000000900402d8                SPI1_IRQHandler
                0x00000000900402d8                TIM6_DAC_IRQHandler
                0x00000000900402d8                DCMI_IRQHandler
                0x00000000900402d8                HRTIM1_TIMC_IRQHandler
                0x00000000900402d8                DMA2_Stream3_IRQHandler
                0x00000000900402d8                SAI2_IRQHandler
                0x00000000900402d8                DFSDM1_FLT3_IRQHandler
                0x00000000900402d8                USART6_IRQHandler
                0x00000000900402d8                TIM17_IRQHandler
                0x00000000900402d8                USART3_IRQHandler
                0x00000000900402d8                CRYP_IRQHandler
                0x00000000900402d8                BDMA_Channel7_IRQHandler
                0x00000000900402d8                LPTIM5_IRQHandler
                0x00000000900402d8                UART5_IRQHandler
                0x00000000900402d8                ADC3_IRQHandler
                0x00000000900402d8                DMA2_Stream0_IRQHandler
                0x00000000900402d8                TIM4_IRQHandler
                0x00000000900402d8                BDMA_Channel2_IRQHandler
                0x00000000900402d8                QUADSPI_IRQHandler
                0x00000000900402d8                I2C1_EV_IRQHandler
                0x00000000900402d8                DMA1_Stream6_IRQHandler
                0x00000000900402d8                DMAMUX1_OVR_IRQHandler
                0x00000000900402d8                DMA1_Stream1_IRQHandler
                0x00000000900402d8                TIM16_IRQHandler
                0x00000000900402d8                UART4_IRQHandler
                0x00000000900402d8                BDMA_Channel5_IRQHandler
                0x00000000900402d8                TIM3_IRQHandler
                0x00000000900402d8                RCC_IRQHandler
                0x00000000900402d8                TIM8_BRK_TIM12_IRQHandler
                0x00000000900402d8                TIM1_TRG_COM_IRQHandler
                0x00000000900402d8                Default_Handler
                0x00000000900402d8                ECC_IRQHandler
                0x00000000900402d8                CEC_IRQHandler
                0x00000000900402d8                EXTI15_10_IRQHandler
                0x00000000900402d8                BDMA_Channel0_IRQHandler
                0x00000000900402d8                ADC_IRQHandler
                0x00000000900402d8                DMA1_Stream7_IRQHandler
                0x00000000900402d8                HRTIM1_TIMA_IRQHandler
                0x00000000900402d8                SPI5_IRQHandler
                0x00000000900402d8                TIM7_IRQHandler
                0x00000000900402d8                SDMMC1_IRQHandler
                0x00000000900402d8                TIM5_IRQHandler
                0x00000000900402d8                DMA2_Stream7_IRQHandler
                0x00000000900402d8                TIM15_IRQHandler
                0x00000000900402d8                PVD_AVD_IRQHandler
                0x00000000900402d8                I2C3_EV_IRQHandler
                0x00000000900402d8                EXTI9_5_IRQHandler
                0x00000000900402d8                RTC_WKUP_IRQHandler
                0x00000000900402d8                LTDC_IRQHandler
                0x00000000900402d8                SAI3_IRQHandler
                0x00000000900402d8                ETH_WKUP_IRQHandler
                0x00000000900402d8                SPDIF_RX_IRQHandler
                0x00000000900402d8                SPI2_IRQHandler
                0x00000000900402d8                OTG_HS_EP1_IN_IRQHandler
                0x00000000900402d8                MemManage_Handler
                0x00000000900402d8                DMA1_Stream0_IRQHandler
                0x00000000900402d8                SVC_Handler
                0x00000000900402d8                CRS_IRQHandler
                0x00000000900402d8                EXTI4_IRQHandler
                0x00000000900402d8                HRTIM1_TIMB_IRQHandler
                0x00000000900402d8                FDCAN2_IT1_IRQHandler
                0x00000000900402d8                ETH_IRQHandler
                0x00000000900402d8                TIM1_UP_IRQHandler
                0x00000000900402d8                BDMA_Channel4_IRQHandler
                0x00000000900402d8                OTG_HS_EP1_OUT_IRQHandler
                0x00000000900402d8                WWDG_IRQHandler
                0x00000000900402d8                SPI6_IRQHandler
                0x00000000900402d8                I2C4_EV_IRQHandler
                0x00000000900402d8                MDIOS_IRQHandler
                0x00000000900402d8                FDCAN2_IT0_IRQHandler
                0x00000000900402d8                LPUART1_IRQHandler
                0x00000000900402d8                FDCAN1_IT0_IRQHandler
                0x00000000900402d8                TIM2_IRQHandler
                0x00000000900402d8                OTG_FS_WKUP_IRQHandler
                0x00000000900402d8                OTG_HS_IRQHandler
                0x00000000900402d8                DMA2D_IRQHandler
                0x00000000900402d8                TIM1_BRK_IRQHandler
                0x00000000900402d8                EXTI1_IRQHandler
                0x00000000900402d8                SDMMC2_IRQHandler
                0x00000000900402d8                OTG_FS_EP1_OUT_IRQHandler
                0x00000000900402d8                BDMA_Channel3_IRQHandler
                0x00000000900402d8                UART7_IRQHandler
                0x00000000900402d8                MDIOS_WKUP_IRQHandler
                0x00000000900402d8                USART2_IRQHandler
                0x00000000900402d8                DFSDM1_FLT0_IRQHandler
                0x00000000900402d8                SAI4_IRQHandler
                0x00000000900402d8                I2C2_ER_IRQHandler
                0x00000000900402d8                DMA2_Stream1_IRQHandler
                0x00000000900402d8                FLASH_IRQHandler
                0x00000000900402d8                DMA2_Stream4_IRQHandler
                0x00000000900402d8                BusFault_Handler
                0x00000000900402d8                USART1_IRQHandler
                0x00000000900402d8                OTG_FS_IRQHandler
                0x00000000900402d8                SPI3_IRQHandler
                0x00000000900402d8                WAKEUP_PIN_IRQHandler
                0x00000000900402d8                DMA1_Stream4_IRQHandler
                0x00000000900402d8                OTG_FS_EP1_IN_IRQHandler
                0x00000000900402d8                I2C1_ER_IRQHandler
                0x00000000900402d8                FMC_IRQHandler
                0x00000000900402d8                FDCAN_CAL_IRQHandler
                0x00000000900402d8                SWPMI1_IRQHandler
                0x00000000900402d8                COMP1_IRQHandler
                0x00000000900402d8                LPTIM1_IRQHandler
                0x00000000900402d8                I2C4_ER_IRQHandler
                0x00000000900402d8                DMA2_Stream6_IRQHandler
                0x00000000900402d8                SAI1_IRQHandler
                0x00000000900402d8                RTC_Alarm_IRQHandler
 .text.Reset_Handler
                0x00000000900402e4       0x44 lib/libdaisy/build/libdaisy.a(startup_stm32h750xx.o)
                0x00000000900402e4                Reset_Handler
 .text.SystemInit
                0x0000000090040328       0x9c lib/libdaisy/build/libdaisy.a(system_stm32h7xx.o)
                0x0000000090040328                SystemInit
 .text.__libc_init_array
                0x00000000900403c4       0x48 /Library/DaisyToolchain/0.2.0/arm/bin/../lib/gcc/arm-none-eabi/10.3.1/../../../../arm-none-eabi/lib/thumb/v7e-m+dp/hard/libc_nano.a(lib_a-init.o)
                0x00000000900403c4                __libc_init_array
 .text.memcpy   0x000000009004040c       0x1c /Library/DaisyToolchain/0.2.0/arm/bin/../lib/gcc/arm-none-eabi/10.3.1/../../../../arm-none-eabi/lib/thumb/v7e-m+dp/hard/libc_nano.a(lib_a-memcpy-stub.o)
                0x000000009004040c                memcpy
 .text.memset   0x0000000090040428       0x10 /Library/DaisyToolchain/0.2.0/arm/bin/../lib/gcc/arm-none-eabi/10.3.1/../../../../arm-none-eabi/lib/thumb/v7e-m+dp/hard/libc_nano.a(lib_a-memset.o)
                0x0000000090040428                memset
 *(.rodata)
 *(.rodata*)
 *(.glue_7)
 .glue_7        0x0000000090040438        0x0 linker stubs
 *(.glue_7t)
 .glue_7t       0x0000000090040438        0x0 linker stubs
 *(.init)
 .init          0x0000000090040438        0x4 /Library/DaisyToolchain/0.2.0/arm/bin/../lib/gcc/arm-none-eabi/10.3.1/thumb/v7e-m+dp/hard/crti.o
                0x0000000090040438                _init
 .init          0x000000009004043c        0x8 /Library/DaisyToolchain/0.2.0/arm/bin/../lib/gcc/arm-none-eabi/10.3.1/thumb/v7e-m+dp/hard/crtn.o
 *(.fini)
 .fini          0x0000000090040444        0x4 /Library/DaisyToolchain/0.2.0/arm/bin/../lib/gcc/arm-none-eabi/10.3.1/thumb/v7e-m+dp/hard/crti.o
                0x0000000090040444                _fini
 .fini          0x0000000090040448        0x8 /Library/DaisyToolchain/0.2.0/arm/bin/../lib/gcc/arm-none-eabi/10.3.1/thumb/v7e-m+dp/hard/crtn.o
                0x0000000090040450                . = ALIGN (0x4)
                0x0000000090040450                _etext = .

.eh_frame       0x0000000090040450        0x0
 .eh_frame      0x0000000090040450        0x0 /Library/DaisyToolchain/0.2.0/arm/bin/../lib/gcc/arm-none-eabi/10.3.1/thumb/v7e-m+dp/hard/crtbegin.o

.vfp11_veneer   0x0000000090040450        0x0
 .vfp11_veneer  0x0000000090040450        0x0 linker stubs

.v4_bx          0x0000000090040450        0x0
 .v4_bx         0x0000000090040450        0x0 linker stubs

.iplt           0x0000000090040450        0x0
 .iplt          0x0000000090040450        0x0 /Library/DaisyToolchain/0.2.0/arm/bin/../lib/gcc/arm-none-eabi/10.3.1/thumb/v7e-m+dp/hard/crtbegin.o

.rel.dyn        0x0000000090040450        0x0
 .rel.iplt      0x0000000090040450        0x0 /Library/DaisyToolchain/0.2.0/arm/bin/../lib/gcc/arm-none-eabi/10.3.1/thumb/v7e-m+dp/hard/crtbegin.o

.ARM.extab      0x0000000090040450        0x0
                0x0000000090040450                . = ALIGN (0x4)
 *(.ARM.extab)
 *(.gnu.linkonce.armextab.*)
                0x0000000090040450                . = ALIGN (0x4)

.exidx          0x0000000090040450        0x0
                0x0000000090040450                . = ALIGN (0x4)
                [!provide]                        PROVIDE (__exidx_start = .)
 *(.ARM.exidx*)
                0x0000000090040450                . = ALIGN (0x4)
                [!provide]                        PROVIDE (__exidx_end = .)

.ARM.attributes
                0x0000000000000000       0x2e
 *(.ARM.attributes)
 .ARM.attributes
                0x0000000000000000       0x1e /Library/DaisyToolchain/0.2.0/arm/bin/../lib/gcc/arm-none-eabi/10.3.1/thumb/v7e-m+dp/hard/crti.o
 .ARM.attributes
                0x000000000000001e       0x32 /Library/DaisyToolchain/0.2.0/arm/bin/../lib/gcc/arm-none-eabi/10.3.1/thumb/v7e-m+dp/hard/crtbegin.o
 .ARM.attributes
                0x0000000000000050       0x32 lib/libdaisy/build/libdaisy.a(startup_stm32h750xx.o)
 .ARM.attributes
                0x0000000000000082       0x32 lib/libdaisy/build/libdaisy.a(system_stm32h7xx.o)
 .ARM.attributes
                0x00000000000000b4       0x32 /Library/DaisyToolchain/0.2.0/arm/bin/../lib/gcc/arm-none-eabi/10.3.1/../../../../arm-none-eabi/lib/thumb/v7e-m+dp/hard/libc_nano.a(lib_a-init.o)
 .ARM.attributes
                0x00000000000000e6       0x32 /Library/DaisyToolchain/0.2.0/arm/bin/../lib/gcc/arm-none-eabi/10.3.1/../../../../arm-none-eabi/lib/thumb/v7e-m+dp/hard/libc_nano.a(lib_a-memcpy-stub.o)
 .ARM.attributes
                0x0000000000000118       0x32 /Library/DaisyToolchain/0.2.0/arm/bin/../lib/gcc/arm-none-eabi/10.3.1/../../../../arm-none-eabi/lib/thumb/v7e-m+dp/hard/libc_nano.a(lib_a-memset.o)
 .ARM.attributes
                0x000000000000014a       0x1e /Library/DaisyToolchain/0.2.0/arm/bin/../lib/gcc/arm-none-eabi/10.3.1/thumb/v7e-m+dp/hard/crtn.o

.preinit_array  0x0000000090040450        0x0
                0x0000000090040450                PROVIDE (__preinit_array_start = .)
 *(.preinit_array*)
                0x0000000090040450                PROVIDE (__preinit_array_end = .)

.init_array     0x0000000090040450        0x4
                0x0000000090040450                PROVIDE (__init_array_start = .)
 *(SORT_BY_NAME(.init_array.*))
 *(.init_array*)
 .init_array    0x0000000090040450        0x4 /Library/DaisyToolchain/0.2.0/arm/bin/../lib/gcc/arm-none-eabi/10.3.1/thumb/v7e-m+dp/hard/crtbegin.o
                0x0000000090040454                PROVIDE (__init_array_end = .)

.fini_array     0x0000000090040454        0x4
                [!provide]                        PROVIDE (__fini_array_start = .)
 *(.fini_array*)
 .fini_array    0x0000000090040454        0x4 /Library/DaisyToolchain/0.2.0/arm/bin/../lib/gcc/arm-none-eabi/10.3.1/thumb/v7e-m+dp/hard/crtbegin.o
 *(SORT_BY_NAME(.fini_array.*))
                [!provide]                        PROVIDE (__fini_array_end = .)

.sram1_bss      0x0000000030000000        0x0
                0x0000000030000000                . = ALIGN (0x4)
                0x0000000030000000                _ssram1_bss = .
                [!provide]                        PROVIDE (__sram1_bss_start__ = _sram1_bss)
 *(.sram1_bss)
 *(.sram1_bss*)
                0x0000000030000000                . = ALIGN (0x4)
                0x0000000030000000                _esram1_bss = .
                [!provide]                        PROVIDE (__sram1_bss_end__ = _esram1_bss)

.data           0x0000000024000000        0x0 load address 0x0000000090040458
                0x0000000024000000                . = ALIGN (0x4)
                0x0000000024000000                _sdata = .
                [!provide]                        PROVIDE (__data_start__ = _sdata)
 *(.data)
 *(.data*)
                0x0000000024000000                . = ALIGN (0x4)
                0x0000000024000000                _edata = .
                [!provide]                        PROVIDE (__data_end__ = _edata)
                0x0000000090040458                _sidata = LOADADDR (.data)

.igot.plt       0x0000000024000000        0x0 load address 0x0000000090040458
 .igot.plt      0x0000000024000000        0x0 /Library/DaisyToolchain/0.2.0/arm/bin/../lib/gcc/arm-none-eabi/10.3.1/thumb/v7e-m+dp/hard/crtbegin.o

.bss            0x0000000024000000       0x1c load address 0x0000000090040458
                0x0000000024000000                . = ALIGN (0x4)
                0x0000000024000000                _sbss = .
                0x0000000024000000                PROVIDE (__bss_start__ = _sbss)
 *(.bss)
 .bss           0x0000000024000000       0x1c /Library/DaisyToolchain/0.2.0/arm/bin/../lib/gcc/arm-none-eabi/10.3.1/thumb/v7e-m+dp/hard/crtbegin.o
 *(.bss*)
 *(COMMON)
                0x000000002400001c                . = ALIGN (0x4)
                0x000000002400001c                _ebss = .
                0x000000002400001c                PROVIDE (__bss_end__ = _ebss)

.dtcmram_bss    0x0000000020000000        0x0
                0x0000000020000000                . = ALIGN (0x4)
                0x0000000020000000                _sdtcmram_bss = .
                [!provide]                        PROVIDE (__dtcmram_bss_start__ = _sdtcmram_bss)
 *(.dtcmram_bss)
 *(.dtcmram_bss*)
                0x0000000020000000                . = ALIGN (0x4)
                0x0000000020000000                _edtcmram_bss = .
                [!provide]                        PROVIDE (__dtcmram_bss_end__ = _edtcmram_bss)

.sdram_bss      0x00000000c0000000        0x0
                0x00000000c0000000                . = ALIGN (0x4)
                0x00000000c0000000                _ssdram_bss = .
                [!provide]                        PROVIDE (__sdram_bss_start = _ssdram_bss)
 *(.sdram_bss)
 *(.sdram_bss*)
                0x00000000c0000000                . = ALIGN (0x4)
                0x00000000c0000000                _esdram_bss = .
                [!provide]                        PROVIDE (__sdram_bss_end = _esdram_bss)

.backup_sram    0x0000000038800000        0x0
                0x0000000038800000                . = ALIGN (0x4)
                0x0000000038800000                _sbackup_sram = .
                [!provide]                        PROVIDE (__backup_sram_start = _sbackup_sram)
 *(.backup_sram)
 *(.backup_sram*)
                0x0000000038800000                . = ALIGN (0x4)
                0x0000000038800000                _ebackup_sram = .
                [!provide]                        PROVIDE (__backup_sram_end = _ebackup_sram)

.heap           0x000000002400001c        0x0
                0x000000002400001c                . = ALIGN (0x4)
                [!provide]                        PROVIDE (__heap_start__ = .)
                [!provide]                        PROVIDE (__heap_start = .)
 *(.heap)
                0x000000002400001c                . = ALIGN (0x4)
                [!provide]                        PROVIDE (__heap_end = .)
                [!provide]                        PROVIDE (__heap_end__ = .)
                [!provide]                        PROVIDE (end = .)

.reserved_for_stack
                0x0000000020000000        0x0
                0x0000000020000000                . = ALIGN (0x4)
                [!provide]                        PROVIDE (__reserved_for_stack_start__ = .)
 *(.reserved_for_stack)
                0x0000000020000000                . = ALIGN (0x4)
                [!provide]                        PROVIDE (__reserved_for_stack_end__ = .)

DISCARD
 libc.a(*)
 libm.a(*)
 libgcc.a(*)
OUTPUT(build/correlator elf32-littlearm)
LOAD linker stubs
LOAD /Library/DaisyToolchain/0.2.0/arm/bin/../lib/gcc/arm-none-eabi/10.3.1/../../../../arm-none-eabi/lib/thumb/v7e-m+dp/hard/libc.a
LOAD /Library/DaisyToolchain/0.2.0/arm/bin/../lib/gcc/arm-none-eabi/10.3.1/../../../../arm-none-eabi/lib/thumb/v7e-m+dp/hard/libm.a
LOAD /Library/DaisyToolchain/0.2.0/arm/bin/../lib/gcc/arm-none-eabi/10.3.1/thumb/v7e-m+dp/hard/libgcc.a

.debug_info     0x0000000000000000      0xbcd
 .debug_info    0x0000000000000000      0x173 lib/libdaisy/build/libdaisy.a(startup_stm32h750xx.o)
 .debug_info    0x0000000000000173      0xa5a lib/libdaisy/build/libdaisy.a(system_stm32h7xx.o)

.debug_abbrev   0x0000000000000000      0x25e
 .debug_abbrev  0x0000000000000000      0x114 lib/libdaisy/build/libdaisy.a(startup_stm32h750xx.o)
 .debug_abbrev  0x0000000000000114      0x14a lib/libdaisy/build/libdaisy.a(system_stm32h7xx.o)

.debug_aranges  0x0000000000000000       0x50
 .debug_aranges
                0x0000000000000000       0x28 lib/libdaisy/build/libdaisy.a(startup_stm32h750xx.o)
 .debug_aranges
                0x0000000000000028       0x28 lib/libdaisy/build/libdaisy.a(system_stm32h7xx.o)

.debug_ranges   0x0000000000000000       0x30
 .debug_ranges  0x0000000000000000       0x18 lib/libdaisy/build/libdaisy.a(startup_stm32h750xx.o)
 .debug_ranges  0x0000000000000018       0x18 lib/libdaisy/build/libdaisy.a(system_stm32h7xx.o)

.debug_line     0x0000000000000000      0x4df
 .debug_line    0x0000000000000000       0xed lib/libdaisy/build/libdaisy.a(startup_stm32h750xx.o)
 .debug_line    0x00000000000000ed      0x3f2 lib/libdaisy/build/libdaisy.a(system_stm32h7xx.o)

.debug_str      0x0000000000000000      0x657
 .debug_str     0x0000000000000000      0x1d4 lib/libdaisy/build/libdaisy.a(startup_stm32h750xx.o)
                                        0x1ef (size before relaxing)
 .debug_str     0x00000000000001d4      0x483 lib/libdaisy/build/libdaisy.a(system_stm32h7xx.o)
                                        0x5f6 (size before relaxing)

.comment        0x0000000000000000       0x49
 .comment       0x0000000000000000       0x49 lib/libdaisy/build/libdaisy.a(startup_stm32h750xx.o)
                                         0x4a (size before relaxing)
 .comment       0x0000000000000049       0x4a lib/libdaisy/build/libdaisy.a(system_stm32h7xx.o)

.debug_frame    0x0000000000000000      0x100
 .debug_frame   0x0000000000000000       0x3c lib/libdaisy/build/libdaisy.a(startup_stm32h750xx.o)
 .debug_frame   0x000000000000003c       0x50 lib/libdaisy/build/libdaisy.a(system_stm32h7xx.o)
 .debug_frame   0x000000000000008c       0x2c /Library/DaisyToolchain/0.2.0/arm/bin/../lib/gcc/arm-none-eabi/10.3.1/../../../../arm-none-eabi/lib/thumb/v7e-m+dp/hard/libc_nano.a(lib_a-init.o)
 .debug_frame   0x00000000000000b8       0x28 /Library/DaisyToolchain/0.2.0/arm/bin/../lib/gcc/arm-none-eabi/10.3.1/../../../../arm-none-eabi/lib/thumb/v7e-m+dp/hard/libc_nano.a(lib_a-memcpy-stub.o)
 .debug_frame   0x00000000000000e0       0x20 /Library/DaisyToolchain/0.2.0/arm/bin/../lib/gcc/arm-none-eabi/10.3.1/../../../../arm-none-eabi/lib/thumb/v7e-m+dp/hard/libc_nano.a(lib_a-memset.o)

.debug_loc      0x0000000000000000      0x170
 .debug_loc     0x0000000000000000      0x170 lib/libdaisy/build/libdaisy.a(system_stm32h7xx.o)

Cross Reference Table

Symbol                                            File
ADC3_IRQHandler                                   lib/libdaisy/build/libdaisy.a(startup_stm32h750xx.o)
ADC_IRQHandler                                    lib/libdaisy/build/libdaisy.a(startup_stm32h750xx.o)
BDMA_Channel0_IRQHandler                          lib/libdaisy/build/libdaisy.a(startup_stm32h750xx.o)
BDMA_Channel1_IRQHandler                          lib/libdaisy/build/libdaisy.a(startup_stm32h750xx.o)
BDMA_Channel2_IRQHandler                          lib/libdaisy/build/libdaisy.a(startup_stm32h750xx.o)
BDMA_Channel3_IRQHandler                          lib/libdaisy/build/libdaisy.a(startup_stm32h750xx.o)
BDMA_Channel4_IRQHandler                          lib/libdaisy/build/libdaisy.a(startup_stm32h750xx.o)
BDMA_Channel5_IRQHandler                          lib/libdaisy/build/libdaisy.a(startup_stm32h750xx.o)
BDMA_Channel6_IRQHandler                          lib/libdaisy/build/libdaisy.a(startup_stm32h750xx.o)
BDMA_Channel7_IRQHandler                          lib/libdaisy/build/libdaisy.a(startup_stm32h750xx.o)
BusFault_Handler                                  lib/libdaisy/build/libdaisy.a(startup_stm32h750xx.o)
CEC_IRQHandler                                    lib/libdaisy/build/libdaisy.a(startup_stm32h750xx.o)
COMP1_IRQHandler                                  lib/libdaisy/build/libdaisy.a(startup_stm32h750xx.o)
CRS_IRQHandler                                    lib/libdaisy/build/libdaisy.a(startup_stm32h750xx.o)
CRYP_IRQHandler                                   lib/libdaisy/build/libdaisy.a(startup_stm32h750xx.o)
D1CorePrescTable                                  lib/libdaisy/build/libdaisy.a(system_stm32h7xx.o)
DCMI_IRQHandler                                   lib/libdaisy/build/libdaisy.a(startup_stm32h750xx.o)
DFSDM1_FLT0_IRQHandler                            lib/libdaisy/build/libdaisy.a(startup_stm32h750xx.o)
DFSDM1_FLT1_IRQHandler                            lib/libdaisy/build/libdaisy.a(startup_stm32h750xx.o)
DFSDM1_FLT2_IRQHandler                            lib/libdaisy/build/libdaisy.a(startup_stm32h750xx.o)
DFSDM1_FLT3_IRQHandler                            lib/libdaisy/build/libdaisy.a(startup_stm32h750xx.o)
DMA1_Stream0_IRQHandler                           lib/libdaisy/build/libdaisy.a(startup_stm32h750xx.o)
DMA1_Stream1_IRQHandler                           lib/libdaisy/build/libdaisy.a(startup_stm32h750xx.o)
DMA1_Stream2_IRQHandler                           lib/libdaisy/build/libdaisy.a(startup_stm32h750xx.o)
DMA1_Stream3_IRQHandler                           lib/libdaisy/build/libdaisy.a(startup_stm32h750xx.o)
DMA1_Stream4_IRQHandler                           lib/libdaisy/build/libdaisy.a(startup_stm32h750xx.o)
DMA1_Stream5_IRQHandler                           lib/libdaisy/build/libdaisy.a(startup_stm32h750xx.o)
DMA1_Stream6_IRQHandler                           lib/libdaisy/build/libdaisy.a(startup_stm32h750xx.o)
DMA1_Stream7_IRQHandler                           lib/libdaisy/build/libdaisy.a(startup_stm32h750xx.o)
DMA2D_IRQHandler                                  lib/libdaisy/build/libdaisy.a(startup_stm32h750xx.o)
DMA2_Stream0_IRQHandler                           lib/libdaisy/build/libdaisy.a(startup_stm32h750xx.o)
DMA2_Stream1_IRQHandler                           lib/libdaisy/build/libdaisy.a(startup_stm32h750xx.o)
DMA2_Stream2_IRQHandler                           lib/libdaisy/build/libdaisy.a(startup_stm32h750xx.o)
DMA2_Stream3_IRQHandler                           lib/libdaisy/build/libdaisy.a(startup_stm32h750xx.o)
DMA2_Stream4_IRQHandler                           lib/libdaisy/build/libdaisy.a(startup_stm32h750xx.o)
DMA2_Stream5_IRQHandler                           lib/libdaisy/build/libdaisy.a(startup_stm32h750xx.o)
DMA2_Stream6_IRQHandler                           lib/libdaisy/build/libdaisy.a(startup_stm32h750xx.o)
DMA2_Stream7_IRQHandler                           lib/libdaisy/build/libdaisy.a(startup_stm32h750xx.o)
DMAMUX1_OVR_IRQHandler                            lib/libdaisy/build/libdaisy.a(startup_stm32h750xx.o)
DMAMUX2_OVR_IRQHandler                            lib/libdaisy/build/libdaisy.a(startup_stm32h750xx.o)
DebugMon_Handler                                  lib/libdaisy/build/libdaisy.a(startup_stm32h750xx.o)
Default_Handler                                   lib/libdaisy/build/libdaisy.a(startup_stm32h750xx.o)
ECC_IRQHandler                                    lib/libdaisy/build/libdaisy.a(startup_stm32h750xx.o)
ETH_IRQHandler                                    lib/libdaisy/build/libdaisy.a(startup_stm32h750xx.o)
ETH_WKUP_IRQHandler                               lib/libdaisy/build/libdaisy.a(startup_stm32h750xx.o)
EXTI0_IRQHandler                                  lib/libdaisy/build/libdaisy.a(startup_stm32h750xx.o)
EXTI15_10_IRQHandler                              lib/libdaisy/build/libdaisy.a(startup_stm32h750xx.o)
EXTI1_IRQHandler                                  lib/libdaisy/build/libdaisy.a(startup_stm32h750xx.o)
EXTI2_IRQHandler                                  lib/libdaisy/build/libdaisy.a(startup_stm32h750xx.o)
EXTI3_IRQHandler                                  lib/libdaisy/build/libdaisy.a(startup_stm32h750xx.o)
EXTI4_IRQHandler                                  lib/libdaisy/build/libdaisy.a(startup_stm32h750xx.o)
EXTI9_5_IRQHandler                                lib/libdaisy/build/libdaisy.a(startup_stm32h750xx.o)
FDCAN1_IT0_IRQHandler                             lib/libdaisy/build/libdaisy.a(startup_stm32h750xx.o)
FDCAN1_IT1_IRQHandler                             lib/libdaisy/build/libdaisy.a(startup_stm32h750xx.o)
FDCAN2_IT0_IRQHandler                             lib/libdaisy/build/libdaisy.a(startup_stm32h750xx.o)
FDCAN2_IT1_IRQHandler                             lib/libdaisy/build/libdaisy.a(startup_stm32h750xx.o)
FDCAN_CAL_IRQHandler                              lib/libdaisy/build/libdaisy.a(startup_stm32h750xx.o)
FLASH_IRQHandler                                  lib/libdaisy/build/libdaisy.a(startup_stm32h750xx.o)
FMC_IRQHandler                                    lib/libdaisy/build/libdaisy.a(startup_stm32h750xx.o)
FPU_IRQHandler                                    lib/libdaisy/build/libdaisy.a(startup_stm32h750xx.o)
HASH_RNG_IRQHandler                               lib/libdaisy/build/libdaisy.a(startup_stm32h750xx.o)
HRTIM1_FLT_IRQHandler                             lib/libdaisy/build/libdaisy.a(startup_stm32h750xx.o)
HRTIM1_Master_IRQHandler                          lib/libdaisy/build/libdaisy.a(startup_stm32h750xx.o)
HRTIM1_TIMA_IRQHandler                            lib/libdaisy/build/libdaisy.a(startup_stm32h750xx.o)
HRTIM1_TIMB_IRQHandler                            lib/libdaisy/build/libdaisy.a(startup_stm32h750xx.o)
HRTIM1_TIMC_IRQHandler                            lib/libdaisy/build/libdaisy.a(startup_stm32h750xx.o)
HRTIM1_TIMD_IRQHandler                            lib/libdaisy/build/libdaisy.a(startup_stm32h750xx.o)
HRTIM1_TIME_IRQHandler                            lib/libdaisy/build/libdaisy.a(startup_stm32h750xx.o)
HSEM1_IRQHandler                                  lib/libdaisy/build/libdaisy.a(startup_stm32h750xx.o)
HardFault_Handler                                 lib/libdaisy/build/libdaisy.a(startup_stm32h750xx.o)
I2C1_ER_IRQHandler                                lib/libdaisy/build/libdaisy.a(startup_stm32h750xx.o)
I2C1_EV_IRQHandler                                lib/libdaisy/build/libdaisy.a(startup_stm32h750xx.o)
I2C2_ER_IRQHandler                                lib/libdaisy/build/libdaisy.a(startup_stm32h750xx.o)
I2C2_EV_IRQHandler                                lib/libdaisy/build/libdaisy.a(startup_stm32h750xx.o)
I2C3_ER_IRQHandler                                lib/libdaisy/build/libdaisy.a(startup_stm32h750xx.o)
I2C3_EV_IRQHandler                                lib/libdaisy/build/libdaisy.a(startup_stm32h750xx.o)
I2C4_ER_IRQHandler                                lib/libdaisy/build/libdaisy.a(startup_stm32h750xx.o)
I2C4_EV_IRQHandler                                lib/libdaisy/build/libdaisy.a(startup_stm32h750xx.o)
JPEG_IRQHandler                                   lib/libdaisy/build/libdaisy.a(startup_stm32h750xx.o)
LPTIM1_IRQHandler                                 lib/libdaisy/build/libdaisy.a(startup_stm32h750xx.o)
LPTIM2_IRQHandler                                 lib/libdaisy/build/libdaisy.a(startup_stm32h750xx.o)
LPTIM3_IRQHandler                                 lib/libdaisy/build/libdaisy.a(startup_stm32h750xx.o)
LPTIM4_IRQHandler                                 lib/libdaisy/build/libdaisy.a(startup_stm32h750xx.o)
LPTIM5_IRQHandler                                 lib/libdaisy/build/libdaisy.a(startup_stm32h750xx.o)
LPUART1_IRQHandler                                lib/libdaisy/build/libdaisy.a(startup_stm32h750xx.o)
LTDC_ER_IRQHandler                                lib/libdaisy/build/libdaisy.a(startup_stm32h750xx.o)
LTDC_IRQHandler                                   lib/libdaisy/build/libdaisy.a(startup_stm32h750xx.o)
MDIOS_IRQHandler                                  lib/libdaisy/build/libdaisy.a(startup_stm32h750xx.o)
MDIOS_WKUP_IRQHandler                             lib/libdaisy/build/libdaisy.a(startup_stm32h750xx.o)
MDMA_IRQHandler                                   lib/libdaisy/build/libdaisy.a(startup_stm32h750xx.o)
MemManage_Handler                                 lib/libdaisy/build/libdaisy.a(startup_stm32h750xx.o)
NMI_Handler                                       lib/libdaisy/build/libdaisy.a(startup_stm32h750xx.o)
OTG_FS_EP1_IN_IRQHandler                          lib/libdaisy/build/libdaisy.a(startup_stm32h750xx.o)
OTG_FS_EP1_OUT_IRQHandler                         lib/libdaisy/build/libdaisy.a(startup_stm32h750xx.o)
OTG_FS_IRQHandler                                 lib/libdaisy/build/libdaisy.a(startup_stm32h750xx.o)
OTG_FS_WKUP_IRQHandler                            lib/libdaisy/build/libdaisy.a(startup_stm32h750xx.o)
OTG_HS_EP1_IN_IRQHandler                          lib/libdaisy/build/libdaisy.a(startup_stm32h750xx.o)
OTG_HS_EP1_OUT_IRQHandler                         lib/libdaisy/build/libdaisy.a(startup_stm32h750xx.o)
OTG_HS_IRQHandler                                 lib/libdaisy/build/libdaisy.a(startup_stm32h750xx.o)
OTG_HS_WKUP_IRQHandler                            lib/libdaisy/build/libdaisy.a(startup_stm32h750xx.o)
PVD_AVD_IRQHandler                                lib/libdaisy/build/libdaisy.a(startup_stm32h750xx.o)
PendSV_Handler                                    lib/libdaisy/build/libdaisy.a(startup_stm32h750xx.o)
QUADSPI_IRQHandler                                lib/libdaisy/build/libdaisy.a(startup_stm32h750xx.o)
RCC_IRQHandler                                    lib/libdaisy/build/libdaisy.a(startup_stm32h750xx.o)
RTC_Alarm_IRQHandler                              lib/libdaisy/build/libdaisy.a(startup_stm32h750xx.o)
RTC_WKUP_IRQHandler                               lib/libdaisy/build/libdaisy.a(startup_stm32h750xx.o)
Reset_Handler                                     lib/libdaisy/build/libdaisy.a(startup_stm32h750xx.o)
SAI1_IRQHandler                                   lib/libdaisy/build/libdaisy.a(startup_stm32h750xx.o)
SAI2_IRQHandler                                   lib/libdaisy/build/libdaisy.a(startup_stm32h750xx.o)
SAI3_IRQHandler                                   lib/libdaisy/build/libdaisy.a(startup_stm32h750xx.o)
SAI4_IRQHandler                                   lib/libdaisy/build/libdaisy.a(startup_stm32h750xx.o)
SDMMC1_IRQHandler                                 lib/libdaisy/build/libdaisy.a(startup_stm32h750xx.o)
SDMMC2_IRQHandler                                 lib/libdaisy/build/libdaisy.a(startup_stm32h750xx.o)
SPDIF_RX_IRQHandler                               lib/libdaisy/build/libdaisy.a(startup_stm32h750xx.o)
SPI1_IRQHandler                                   lib/libdaisy/build/libdaisy.a(startup_stm32h750xx.o)
SPI2_IRQHandler                                   lib/libdaisy/build/libdaisy.a(startup_stm32h750xx.o)
SPI3_IRQHandler                                   lib/libdaisy/build/libdaisy.a(startup_stm32h750xx.o)
SPI4_IRQHandler                                   lib/libdaisy/build/libdaisy.a(startup_stm32h750xx.o)
SPI5_IRQHandler                                   lib/libdaisy/build/libdaisy.a(startup_stm32h750xx.o)
SPI6_IRQHandler                                   lib/libdaisy/build/libdaisy.a(startup_stm32h750xx.o)
SVC_Handler                                       lib/libdaisy/build/libdaisy.a(startup_stm32h750xx.o)
SWPMI1_IRQHandler                                 lib/libdaisy/build/libdaisy.a(startup_stm32h750xx.o)
SysTick_Handler                                   lib/libdaisy/build/libdaisy.a(startup_stm32h750xx.o)
SystemCoreClock                                   lib/libdaisy/build/libdaisy.a(system_stm32h7xx.o)
SystemCoreClockUpdate                             lib/libdaisy/build/libdaisy.a(system_stm32h7xx.o)
SystemD2Clock                                     lib/libdaisy/build/libdaisy.a(system_stm32h7xx.o)
SystemInit                                        lib/libdaisy/build/libdaisy.a(system_stm32h7xx.o)
                                                  lib/libdaisy/build/libdaisy.a(startup_stm32h750xx.o)
TAMP_STAMP_IRQHandler                             lib/libdaisy/build/libdaisy.a(startup_stm32h750xx.o)
TIM15_IRQHandler                                  lib/libdaisy/build/libdaisy.a(startup_stm32h750xx.o)
TIM16_IRQHandler                                  lib/libdaisy/build/libdaisy.a(startup_stm32h750xx.o)
TIM17_IRQHandler                                  lib/libdaisy/build/libdaisy.a(startup_stm32h750xx.o)
TIM1_BRK_IRQHandler                               lib/libdaisy/build/libdaisy.a(startup_stm32h750xx.o)
TIM1_CC_IRQHandler                                lib/libdaisy/build/libdaisy.a(startup_stm32h750xx.o)
TIM1_TRG_COM_IRQHandler                           lib/libdaisy/build/libdaisy.a(startup_stm32h750xx.o)
TIM1_UP_IRQHandler                                lib/libdaisy/build/libdaisy.a(startup_stm32h750xx.o)
TIM2_IRQHandler                                   lib/libdaisy/build/libdaisy.a(startup_stm32h750xx.o)
TIM3_IRQHandler                                   lib/libdaisy/build/libdaisy.a(startup_stm32h750xx.o)
TIM4_IRQHandler                                   lib/libdaisy/build/libdaisy.a(startup_stm32h750xx.o)
TIM5_IRQHandler                                   lib/libdaisy/build/libdaisy.a(startup_stm32h750xx.o)
TIM6_DAC_IRQHandler                               lib/libdaisy/build/libdaisy.a(startup_stm32h750xx.o)
TIM7_IRQHandler                                   lib/libdaisy/build/libdaisy.a(startup_stm32h750xx.o)
TIM8_BRK_TIM12_IRQHandler                         lib/libdaisy/build/libdaisy.a(startup_stm32h750xx.o)
TIM8_CC_IRQHandler                                lib/libdaisy/build/libdaisy.a(startup_stm32h750xx.o)
TIM8_TRG_COM_TIM14_IRQHandler                     lib/libdaisy/build/libdaisy.a(startup_stm32h750xx.o)
TIM8_UP_TIM13_IRQHandler                          lib/libdaisy/build/libdaisy.a(startup_stm32h750xx.o)
UART4_IRQHandler                                  lib/libdaisy/build/libdaisy.a(startup_stm32h750xx.o)
UART5_IRQHandler                                  lib/libdaisy/build/libdaisy.a(startup_stm32h750xx.o)
UART7_IRQHandler                                  lib/libdaisy/build/libdaisy.a(startup_stm32h750xx.o)
UART8_IRQHandler                                  lib/libdaisy/build/libdaisy.a(startup_stm32h750xx.o)
USART1_IRQHandler                                 lib/libdaisy/build/libdaisy.a(startup_stm32h750xx.o)
USART2_IRQHandler                                 lib/libdaisy/build/libdaisy.a(startup_stm32h750xx.o)
USART3_IRQHandler                                 lib/libdaisy/build/libdaisy.a(startup_stm32h750xx.o)
USART6_IRQHandler                                 lib/libdaisy/build/libdaisy.a(startup_stm32h750xx.o)
UsageFault_Handler                                lib/libdaisy/build/libdaisy.a(startup_stm32h750xx.o)
WAKEUP_PIN_IRQHandler                             lib/libdaisy/build/libdaisy.a(startup_stm32h750xx.o)
WWDG_IRQHandler                                   lib/libdaisy/build/libdaisy.a(startup_stm32h750xx.o)
__bss_end__                                       /Library/DaisyToolchain/0.2.0/arm/bin/../lib/gcc/arm-none-eabi/10.3.1/../../../../arm-none-eabi/lib/thumb/v7e-m+dp/hard/crt0.o
__bss_start__                                     /Library/DaisyToolchain/0.2.0/arm/bin/../lib/gcc/arm-none-eabi/10.3.1/../../../../arm-none-eabi/lib/thumb/v7e-m+dp/hard/crt0.o
__call_exitprocs                                  /Library/DaisyToolchain/0.2.0/arm/bin/../lib/gcc/arm-none-eabi/10.3.1/../../../../arm-none-eabi/lib/thumb/v7e-m+dp/hard/libc_nano.a(lib_a-exit.o)
__deregister_frame_info                           /Library/DaisyToolchain/0.2.0/arm/bin/../lib/gcc/arm-none-eabi/10.3.1/thumb/v7e-m+dp/hard/crtbegin.o
__dso_handle                                      /Library/DaisyToolchain/0.2.0/arm/bin/../lib/gcc/arm-none-eabi/10.3.1/thumb/v7e-m+dp/hard/crtbegin.o
__init_array_end                                  /Library/DaisyToolchain/0.2.0/arm/bin/../lib/gcc/arm-none-eabi/10.3.1/../../../../arm-none-eabi/lib/thumb/v7e-m+dp/hard/libc_nano.a(lib_a-init.o)
__init_array_start                                /Library/DaisyToolchain/0.2.0/arm/bin/../lib/gcc/arm-none-eabi/10.3.1/../../../../arm-none-eabi/lib/thumb/v7e-m+dp/hard/libc_nano.a(lib_a-init.o)
__libc_fini_array                                 /Library/DaisyToolchain/0.2.0/arm/bin/../lib/gcc/arm-none-eabi/10.3.1/../../../../arm-none-eabi/lib/thumb/v7e-m+dp/hard/crt0.o
__libc_init_array                                 /Library/DaisyToolchain/0.2.0/arm/bin/../lib/gcc/arm-none-eabi/10.3.1/../../../../arm-none-eabi/lib/thumb/v7e-m+dp/hard/libc_nano.a(lib_a-init.o)
                                                  lib/libdaisy/build/libdaisy.a(startup_stm32h750xx.o)
                                                  /Library/DaisyToolchain/0.2.0/arm/bin/../lib/gcc/arm-none-eabi/10.3.1/../../../../arm-none-eabi/lib/thumb/v7e-m+dp/hard/crt0.o
__preinit_array_end                               /Library/DaisyToolchain/0.2.0/arm/bin/../lib/gcc/arm-none-eabi/10.3.1/../../../../arm-none-eabi/lib/thumb/v7e-m+dp/hard/libc_nano.a(lib_a-init.o)
__preinit_array_start                             /Library/DaisyToolchain/0.2.0/arm/bin/../lib/gcc/arm-none-eabi/10.3.1/../../../../arm-none-eabi/lib/thumb/v7e-m+dp/hard/libc_nano.a(lib_a-init.o)
__register_frame_info                             /Library/DaisyToolchain/0.2.0/arm/bin/../lib/gcc/arm-none-eabi/10.3.1/thumb/v7e-m+dp/hard/crtbegin.o
__sf_fake_stderr                                  /Library/DaisyToolchain/0.2.0/arm/bin/../lib/gcc/arm-none-eabi/10.3.1/../../../../arm-none-eabi/lib/thumb/v7e-m+dp/hard/libc_nano.a(lib_a-impure.o)
__sf_fake_stdin                                   /Library/DaisyToolchain/0.2.0/arm/bin/../lib/gcc/arm-none-eabi/10.3.1/../../../../arm-none-eabi/lib/thumb/v7e-m+dp/hard/libc_nano.a(lib_a-impure.o)
__sf_fake_stdout                                  /Library/DaisyToolchain/0.2.0/arm/bin/../lib/gcc/arm-none-eabi/10.3.1/../../../../arm-none-eabi/lib/thumb/v7e-m+dp/hard/libc_nano.a(lib_a-impure.o)
__stack                                           /Library/DaisyToolchain/0.2.0/arm/bin/../lib/gcc/arm-none-eabi/10.3.1/../../../../arm-none-eabi/lib/thumb/v7e-m+dp/hard/crt0.o
_ebss                                             lib/libdaisy/build/libdaisy.a(startup_stm32h750xx.o)
_edata                                            lib/libdaisy/build/libdaisy.a(startup_stm32h750xx.o)
_estack                                           lib/libdaisy/build/libdaisy.a(startup_stm32h750xx.o)
_exit                                             /Library/DaisyToolchain/0.2.0/arm/bin/../lib/gcc/arm-none-eabi/10.3.1/../../../../arm-none-eabi/lib/thumb/v7e-m+dp/hard/libnosys.a(_exit.o)
                                                  /Library/DaisyToolchain/0.2.0/arm/bin/../lib/gcc/arm-none-eabi/10.3.1/../../../../arm-none-eabi/lib/thumb/v7e-m+dp/hard/libc_nano.a(lib_a-exit.o)
_fini                                             /Library/DaisyToolchain/0.2.0/arm/bin/../lib/gcc/arm-none-eabi/10.3.1/thumb/v7e-m+dp/hard/crti.o
_global_impure_ptr                                /Library/DaisyToolchain/0.2.0/arm/bin/../lib/gcc/arm-none-eabi/10.3.1/../../../../arm-none-eabi/lib/thumb/v7e-m+dp/hard/libc_nano.a(lib_a-impure.o)
                                                  /Library/DaisyToolchain/0.2.0/arm/bin/../lib/gcc/arm-none-eabi/10.3.1/../../../../arm-none-eabi/lib/thumb/v7e-m+dp/hard/libc_nano.a(lib_a-exit.o)
_impure_ptr                                       /Library/DaisyToolchain/0.2.0/arm/bin/../lib/gcc/arm-none-eabi/10.3.1/../../../../arm-none-eabi/lib/thumb/v7e-m+dp/hard/libc_nano.a(lib_a-impure.o)
_init                                             /Library/DaisyToolchain/0.2.0/arm/bin/../lib/gcc/arm-none-eabi/10.3.1/thumb/v7e-m+dp/hard/crti.o
                                                  /Library/DaisyToolchain/0.2.0/arm/bin/../lib/gcc/arm-none-eabi/10.3.1/../../../../arm-none-eabi/lib/thumb/v7e-m+dp/hard/libc_nano.a(lib_a-init.o)
_mainCRTStartup                                   /Library/DaisyToolchain/0.2.0/arm/bin/../lib/gcc/arm-none-eabi/10.3.1/../../../../arm-none-eabi/lib/thumb/v7e-m+dp/hard/crt0.o
_sbss                                             lib/libdaisy/build/libdaisy.a(startup_stm32h750xx.o)
_sdata                                            lib/libdaisy/build/libdaisy.a(startup_stm32h750xx.o)
_sidata                                           lib/libdaisy/build/libdaisy.a(startup_stm32h750xx.o)
_stack_init                                       /Library/DaisyToolchain/0.2.0/arm/bin/../lib/gcc/arm-none-eabi/10.3.1/../../../../arm-none-eabi/lib/thumb/v7e-m+dp/hard/crt0.o
_start                                            /Library/DaisyToolchain/0.2.0/arm/bin/../lib/gcc/arm-none-eabi/10.3.1/../../../../arm-none-eabi/lib/thumb/v7e-m+dp/hard/crt0.o
atexit                                            /Library/DaisyToolchain/0.2.0/arm/bin/../lib/gcc/arm-none-eabi/10.3.1/../../../../arm-none-eabi/lib/thumb/v7e-m+dp/hard/crt0.o
clouds::Correlator::EvaluateNextCandidate()       build/correlator.o
clouds::Correlator::Init(unsigned long*, unsigned long*) build/correlator.o
clouds::Correlator::StartSearch(long, long, long) build/correlator.o
exit                                              /Library/DaisyToolchain/0.2.0/arm/bin/../lib/gcc/arm-none-eabi/10.3.1/../../../../arm-none-eabi/lib/thumb/v7e-m+dp/hard/libc_nano.a(lib_a-exit.o)
                                                  /Library/DaisyToolchain/0.2.0/arm/bin/../lib/gcc/arm-none-eabi/10.3.1/../../../../arm-none-eabi/lib/thumb/v7e-m+dp/hard/crt0.o
g_pfnVectors                                      lib/libdaisy/build/libdaisy.a(startup_stm32h750xx.o)
hardware_init_hook                                /Library/DaisyToolchain/0.2.0/arm/bin/../lib/gcc/arm-none-eabi/10.3.1/../../../../arm-none-eabi/lib/thumb/v7e-m+dp/hard/crt0.o
main                                              lib/libdaisy/build/libdaisy.a(startup_stm32h750xx.o)
                                                  /Library/DaisyToolchain/0.2.0/arm/bin/../lib/gcc/arm-none-eabi/10.3.1/../../../../arm-none-eabi/lib/thumb/v7e-m+dp/hard/crt0.o
memcpy                                            /Library/DaisyToolchain/0.2.0/arm/bin/../lib/gcc/arm-none-eabi/10.3.1/../../../../arm-none-eabi/lib/thumb/v7e-m+dp/hard/libc_nano.a(lib_a-memcpy-stub.o)
                                                  lib/libdaisy/build/libdaisy.a(startup_stm32h750xx.o)
memset                                            /Library/DaisyToolchain/0.2.0/arm/bin/../lib/gcc/arm-none-eabi/10.3.1/../../../../arm-none-eabi/lib/thumb/v7e-m+dp/hard/libc_nano.a(lib_a-memset.o)
                                                  lib/libdaisy/build/libdaisy.a(startup_stm32h750xx.o)
                                                  /Library/DaisyToolchain/0.2.0/arm/bin/../lib/gcc/arm-none-eabi/10.3.1/../../../../arm-none-eabi/lib/thumb/v7e-m+dp/hard/crt0.o
software_init_hook                                /Library/DaisyToolchain/0.2.0/arm/bin/../lib/gcc/arm-none-eabi/10.3.1/../../../../arm-none-eabi/lib/thumb/v7e-m+dp/hard/crt0.o
