ARM GAS  /var/folders/9s/8rp0_f2s1n31qbztm3b5_fdh0000gn/T//ccbVcCyO.s 			page 1


   1              		.cpu cortex-m7
   2              		.arch armv7e-m
   3              		.fpu fpv5-d16
   4              		.eabi_attribute 28, 1
   5              		.eabi_attribute 20, 1
   6              		.eabi_attribute 21, 1
   7              		.eabi_attribute 23, 3
   8              		.eabi_attribute 24, 1
   9              		.eabi_attribute 25, 1
  10              		.eabi_attribute 26, 1
  11              		.eabi_attribute 30, 4
  12              		.eabi_attribute 34, 1
  13              		.eabi_attribute 18, 4
  14              		.file	"Thaumazein.cpp"
  15              		.text
  16              	.Ltext0:
  17              		.cfi_sections	.debug_frame
  18              		.section	.rodata._Z13UpdateDisplayv.part.0.str1.1,"aMS",%progbits,1
  19              	.LC0:
  20 0000 506F6C79 		.ascii	"Poly-4\000"
  20      2D3400
  21              	.LC1:
  22 0007 4D6F6E6F 		.ascii	"Mono\000"
  22      00
  23              	.LC2:
  24 000c 63707520 		.ascii	"cpu : %d/%d\012\000"
  24      3A202564 
  24      2F25640A 
  24      00
  25              	.LC3:
  26 0019 456E6769 		.ascii	"Engine: %d (%s)\012\000"
  26      6E653A20 
  26      25642028 
  26      2573290A 
  26      00
  27              	.LC4:
  28 002a 41444320 		.ascii	"ADC Values (8-11):\012\000"
  28      56616C75 
  28      65732028 
  28      382D3131 
  28      293A0A00 
  29              	.LC5:
  30 003e 5B25645D 		.ascii	"[%d]: %d\012\000"
  30      3A202564 
  30      0A00
  31              	.LC6:
  32 0048 2D2D2D2D 		.ascii	"--------\000"
  32      2D2D2D2D 
  32      00
  33              	.LC7:
  34 0051 257300   		.ascii	"%s\000"
  35              		.section	.text._Z13UpdateDisplayv.part.0,"ax",%progbits
  36              		.align	1
  37              		.syntax unified
  38              		.thumb
  39              		.thumb_func
  41              	_Z13UpdateDisplayv.part.0:
ARM GAS  /var/folders/9s/8rp0_f2s1n31qbztm3b5_fdh0000gn/T//ccbVcCyO.s 			page 2


  42              	.LFB7011:
  43              		.file 1 "Thaumazein.cpp"
   1:Thaumazein.cpp **** #include "Thaumazein.h"
   2:Thaumazein.cpp **** 
   3:Thaumazein.cpp **** // Define shared volatile variables
   4:Thaumazein.cpp **** volatile uint16_t current_touch_state = 0;
   5:Thaumazein.cpp **** volatile float touch_cv_value = 0.0f;
   6:Thaumazein.cpp **** 
   7:Thaumazein.cpp **** void UpdateDisplay() {
  44              		.loc 1 7 6 view -0
  45              		.cfi_startproc
  46              		@ args = 0, pretend = 0, frame = 512
  47              		@ frame_needed = 0, uses_anonymous_args = 0
  48              	.LBB73:
   8:Thaumazein.cpp ****     if (update_display) {
   9:Thaumazein.cpp ****         // Build stats message in a smaller buffer
  10:Thaumazein.cpp ****         char msg[512];
  49              		.loc 1 10 9 view .LVU1
  11:Thaumazein.cpp ****         int pos = 0;
  50              		.loc 1 11 9 view .LVU2
  51              	.LVL0:
  12:Thaumazein.cpp **** 
  13:Thaumazein.cpp ****         // cpu load average/max
  14:Thaumazein.cpp ****         float avg_cpu_load = cpu_meter.GetAvgCpuLoad();
  52              		.loc 1 14 9 view .LVU3
  53              	.LBB74:
  54              	.LBI74:
  55              		.file 2 "lib/libdaisy/src/util/CpuLoadMeter.h"
   1:lib/libdaisy/src/util/CpuLoadMeter.h **** #pragma once
   2:lib/libdaisy/src/util/CpuLoadMeter.h **** 
   3:lib/libdaisy/src/util/CpuLoadMeter.h **** #include "sys/system.h"
   4:lib/libdaisy/src/util/CpuLoadMeter.h **** #include <cmath>
   5:lib/libdaisy/src/util/CpuLoadMeter.h **** 
   6:lib/libdaisy/src/util/CpuLoadMeter.h **** namespace daisy
   7:lib/libdaisy/src/util/CpuLoadMeter.h **** {
   8:lib/libdaisy/src/util/CpuLoadMeter.h **** /** @brief CPU load metering
   9:lib/libdaisy/src/util/CpuLoadMeter.h ****  *  @author jelliesen
  10:lib/libdaisy/src/util/CpuLoadMeter.h ****  *  @addtogroup utility
  11:lib/libdaisy/src/util/CpuLoadMeter.h ****  * 
  12:lib/libdaisy/src/util/CpuLoadMeter.h ****  *  To measure the CPU load of your audio processing, create a CpuLoadMeter
  13:lib/libdaisy/src/util/CpuLoadMeter.h ****  *  and initialize it with your block size and sample rate.
  14:lib/libdaisy/src/util/CpuLoadMeter.h ****  *  Then at the beginning of the audio callback, call `OnBlockStart()`, 
  15:lib/libdaisy/src/util/CpuLoadMeter.h ****  *  and at the end of the audio callback, call `OnBlockEnd()`.
  16:lib/libdaisy/src/util/CpuLoadMeter.h ****  *  You can then read out the minimum, maximum and average CPU load.
  17:lib/libdaisy/src/util/CpuLoadMeter.h ****  */
  18:lib/libdaisy/src/util/CpuLoadMeter.h **** class CpuLoadMeter
  19:lib/libdaisy/src/util/CpuLoadMeter.h **** {
  20:lib/libdaisy/src/util/CpuLoadMeter.h ****   public:
  21:lib/libdaisy/src/util/CpuLoadMeter.h ****     CpuLoadMeter(){};
  22:lib/libdaisy/src/util/CpuLoadMeter.h **** 
  23:lib/libdaisy/src/util/CpuLoadMeter.h ****     /** Initializes the CpuLoadMeter for a particular sample rate and block size.
  24:lib/libdaisy/src/util/CpuLoadMeter.h ****      *  @param sampleRateInHz           The sample rate in Hz
  25:lib/libdaisy/src/util/CpuLoadMeter.h ****      *  @param blockSizeInSamples       The block size in samples
  26:lib/libdaisy/src/util/CpuLoadMeter.h ****      *  @param smoothingFilterCutoffHz  The cutoff frequency of the smoothing filter that's used to
  27:lib/libdaisy/src/util/CpuLoadMeter.h ****      *                                  create the average CPU load reading.
  28:lib/libdaisy/src/util/CpuLoadMeter.h ****      */
  29:lib/libdaisy/src/util/CpuLoadMeter.h ****     void Init(float sampleRateInHz,
ARM GAS  /var/folders/9s/8rp0_f2s1n31qbztm3b5_fdh0000gn/T//ccbVcCyO.s 			page 3


  30:lib/libdaisy/src/util/CpuLoadMeter.h ****               int   blockSizeInSamples,
  31:lib/libdaisy/src/util/CpuLoadMeter.h ****               float smoothingFilterCutoffHz = 1.0f)
  32:lib/libdaisy/src/util/CpuLoadMeter.h ****     {
  33:lib/libdaisy/src/util/CpuLoadMeter.h ****         const auto secPerBlock = float(blockSizeInSamples) / sampleRateInHz;
  34:lib/libdaisy/src/util/CpuLoadMeter.h ****         const auto ticksPerS   = float(System::GetTickFreq());
  35:lib/libdaisy/src/util/CpuLoadMeter.h ****         ticksPerBlockInv_      = 1.0f / (ticksPerS * secPerBlock);
  36:lib/libdaisy/src/util/CpuLoadMeter.h **** 
  37:lib/libdaisy/src/util/CpuLoadMeter.h ****         // update filter coefficient for smoothing filter (1pole lowpass)
  38:lib/libdaisy/src/util/CpuLoadMeter.h ****         const auto blockRateInHz = sampleRateInHz / float(blockSizeInSamples);
  39:lib/libdaisy/src/util/CpuLoadMeter.h ****         const auto cutoffNormalized
  40:lib/libdaisy/src/util/CpuLoadMeter.h ****             = smoothingFilterCutoffHz * 2.0f * 3.141592653f / blockRateInHz;
  41:lib/libdaisy/src/util/CpuLoadMeter.h ****         // according to
  42:lib/libdaisy/src/util/CpuLoadMeter.h ****         // https://en.wikipedia.org/wiki/Low-pass_filter#Simple_infinite_impulse_response_filter
  43:lib/libdaisy/src/util/CpuLoadMeter.h ****         smoothingConstant_ = cutoffNormalized / (cutoffNormalized + 1.0f);
  44:lib/libdaisy/src/util/CpuLoadMeter.h **** 
  45:lib/libdaisy/src/util/CpuLoadMeter.h ****         Reset();
  46:lib/libdaisy/src/util/CpuLoadMeter.h ****     }
  47:lib/libdaisy/src/util/CpuLoadMeter.h **** 
  48:lib/libdaisy/src/util/CpuLoadMeter.h ****     /** Call this at the beginning of your audio callback */
  49:lib/libdaisy/src/util/CpuLoadMeter.h ****     void OnBlockStart() { currentBlockStartTicks_ = System::GetTick(); }
  50:lib/libdaisy/src/util/CpuLoadMeter.h **** 
  51:lib/libdaisy/src/util/CpuLoadMeter.h ****     /** Call this at the end of your audio callback */
  52:lib/libdaisy/src/util/CpuLoadMeter.h ****     void OnBlockEnd()
  53:lib/libdaisy/src/util/CpuLoadMeter.h ****     {
  54:lib/libdaisy/src/util/CpuLoadMeter.h ****         const auto end         = System::GetTick();
  55:lib/libdaisy/src/util/CpuLoadMeter.h ****         const auto ticksPassed = end - currentBlockStartTicks_;
  56:lib/libdaisy/src/util/CpuLoadMeter.h ****         const auto currentBlockLoad
  57:lib/libdaisy/src/util/CpuLoadMeter.h ****             = float(ticksPassed) * ticksPerBlockInv_; // usPassed / usPerBlock
  58:lib/libdaisy/src/util/CpuLoadMeter.h **** 
  59:lib/libdaisy/src/util/CpuLoadMeter.h ****         if(firstCycle_)
  60:lib/libdaisy/src/util/CpuLoadMeter.h ****         {
  61:lib/libdaisy/src/util/CpuLoadMeter.h ****             max_ = min_ = avg_ = currentBlockLoad;
  62:lib/libdaisy/src/util/CpuLoadMeter.h ****             firstCycle_        = false;
  63:lib/libdaisy/src/util/CpuLoadMeter.h ****         }
  64:lib/libdaisy/src/util/CpuLoadMeter.h ****         else
  65:lib/libdaisy/src/util/CpuLoadMeter.h ****         {
  66:lib/libdaisy/src/util/CpuLoadMeter.h ****             if(currentBlockLoad > max_)
  67:lib/libdaisy/src/util/CpuLoadMeter.h ****                 max_ = currentBlockLoad;
  68:lib/libdaisy/src/util/CpuLoadMeter.h ****             if(currentBlockLoad < min_)
  69:lib/libdaisy/src/util/CpuLoadMeter.h ****                 min_ = currentBlockLoad;
  70:lib/libdaisy/src/util/CpuLoadMeter.h **** 
  71:lib/libdaisy/src/util/CpuLoadMeter.h ****             avg_ = smoothingConstant_ * currentBlockLoad
  72:lib/libdaisy/src/util/CpuLoadMeter.h ****                    + (1.0f - smoothingConstant_) * avg_;
  73:lib/libdaisy/src/util/CpuLoadMeter.h ****         }
  74:lib/libdaisy/src/util/CpuLoadMeter.h ****     }
  75:lib/libdaisy/src/util/CpuLoadMeter.h **** 
  76:lib/libdaisy/src/util/CpuLoadMeter.h ****     /** Returns the smoothed average CPU load in the range 0..1 */
  77:lib/libdaisy/src/util/CpuLoadMeter.h ****     float GetAvgCpuLoad() const { return avg_; }
  56              		.loc 2 77 11 view .LVU4
  57              	.LBB75:
  58              		.loc 2 77 35 view .LVU5
  59              		.loc 2 77 35 is_stmt 0 view .LVU6
  60              	.LBE75:
  61              	.LBE74:
  15:Thaumazein.cpp ****         int cpu_avg = static_cast<int>(avg_cpu_load * 100.0f);
  62              		.loc 1 15 9 is_stmt 1 view .LVU7
  16:Thaumazein.cpp ****         cpu_avg = cpu_avg < 0 ? 0 : (cpu_avg > 100 ? 100 : cpu_avg);
ARM GAS  /var/folders/9s/8rp0_f2s1n31qbztm3b5_fdh0000gn/T//ccbVcCyO.s 			page 4


  63              		.loc 1 16 9 view .LVU8
  17:Thaumazein.cpp ****         float max_cpu_load = cpu_meter.GetMaxCpuLoad();
  64              		.loc 1 17 9 view .LVU9
  65              	.LBB77:
  66              	.LBI77:
  78:lib/libdaisy/src/util/CpuLoadMeter.h ****     /** Returns the minimun CPU load observed since the last call to Reset(). */
  79:lib/libdaisy/src/util/CpuLoadMeter.h ****     float GetMinCpuLoad() const { return min_; }
  80:lib/libdaisy/src/util/CpuLoadMeter.h ****     /** Returns the maximum CPU load observed since the last call to Reset(). */
  81:lib/libdaisy/src/util/CpuLoadMeter.h ****     float GetMaxCpuLoad() const { return max_; }
  67              		.loc 2 81 11 view .LVU10
  68              	.LBB78:
  69              		.loc 2 81 35 view .LVU11
  70              		.loc 2 81 35 is_stmt 0 view .LVU12
  71              	.LBE78:
  72              	.LBE77:
  18:Thaumazein.cpp ****         int cpu_max = static_cast<int>(max_cpu_load * 100.0f);
  73              		.loc 1 18 9 is_stmt 1 view .LVU13
  19:Thaumazein.cpp ****         cpu_max = cpu_max < 0 ? 0 : (cpu_max > 100 ? 100 : cpu_max);
  74              		.loc 1 19 9 view .LVU14
  20:Thaumazein.cpp ****         pos += snprintf(msg + pos, sizeof(msg) - pos, "cpu : %d/%d\n", cpu_avg, cpu_max);
  75              		.loc 1 20 9 view .LVU15
  76              	.LBB79:
  77              	.LBB76:
  77:lib/libdaisy/src/util/CpuLoadMeter.h ****     /** Returns the minimun CPU load observed since the last call to Reset(). */
  78              		.loc 2 77 42 is_stmt 0 view .LVU16
  79 0000 364A     		ldr	r2, .L7
  80              	.LBE76:
  81              	.LBE79:
  82              		.loc 1 20 24 view .LVU17
  83 0002 4FF40071 		mov	r1, #512
  15:Thaumazein.cpp ****         cpu_avg = cpu_avg < 0 ? 0 : (cpu_avg > 100 ? 100 : cpu_avg);
  84              		.loc 1 15 53 view .LVU18
  85 0006 DFED366A 		vldr.32	s13, .L7+4
  86 000a 92ED057A 		vldr.32	s14, [r2, #20]
  87 000e 27EE267A 		vmul.f32	s14, s14, s13
  88              	.LBE73:
   7:Thaumazein.cpp ****     if (update_display) {
  89              		.loc 1 7 6 view .LVU19
  90 0012 30B5     		push	{r4, r5, lr}
  91              		.cfi_def_cfa_offset 12
  92              		.cfi_offset 4, -12
  93              		.cfi_offset 5, -8
  94              		.cfi_offset 14, -4
  95              	.LBB84:
  15:Thaumazein.cpp ****         cpu_avg = cpu_avg < 0 ? 0 : (cpu_avg > 100 ? 100 : cpu_avg);
  96              		.loc 1 15 13 view .LVU20
  97 0014 FDEEC77A 		vcvt.s32.f32	s15, s14
  98              	.LBE84:
   7:Thaumazein.cpp ****     if (update_display) {
  99              		.loc 1 7 6 view .LVU21
 100 0018 ADF5037D 		sub	sp, sp, #524
 101              		.cfi_def_cfa_offset 536
 102              	.LBB85:
 103              	.LBB80:
  21:Thaumazein.cpp **** 
  22:Thaumazein.cpp ****         // Engine Info
  23:Thaumazein.cpp ****         int current_engine_idx = current_engine_index;
ARM GAS  /var/folders/9s/8rp0_f2s1n31qbztm3b5_fdh0000gn/T//ccbVcCyO.s 			page 5


  24:Thaumazein.cpp ****         pos += snprintf(msg + pos, sizeof(msg) - pos, "Engine: %d (%s)\n", current_engine_idx, (cur
  25:Thaumazein.cpp **** 
  26:Thaumazein.cpp ****         // Only show ADC values 8-11
  27:Thaumazein.cpp ****         pos += snprintf(msg + pos, sizeof(msg) - pos, "ADC Values (8-11):\n");
  28:Thaumazein.cpp ****         for (int i = 8; i < 12; ++i) {
 104              		.loc 1 28 18 view .LVU22
 105 001c 0825     		movs	r5, #8
 106              	.LBE80:
  20:Thaumazein.cpp **** 
 107              		.loc 1 20 24 view .LVU23
 108 001e 02A8     		add	r0, sp, #8
  15:Thaumazein.cpp ****         cpu_avg = cpu_avg < 0 ? 0 : (cpu_avg > 100 ? 100 : cpu_avg);
 109              		.loc 1 15 13 view .LVU24
 110 0020 17EE903A 		vmov	r3, s15	@ int
  18:Thaumazein.cpp ****         cpu_max = cpu_max < 0 ? 0 : (cpu_max > 100 ? 100 : cpu_max);
 111              		.loc 1 18 53 view .LVU25
 112 0024 D2ED047A 		vldr.32	s15, [r2, #16]
 113 0028 67EEA67A 		vmul.f32	s15, s15, s13
  16:Thaumazein.cpp ****         float max_cpu_load = cpu_meter.GetMaxCpuLoad();
 114              		.loc 1 16 31 view .LVU26
 115 002c 642B     		cmp	r3, #100
 116 002e A8BF     		it	ge
 117 0030 6423     		movge	r3, #100
  18:Thaumazein.cpp ****         cpu_max = cpu_max < 0 ? 0 : (cpu_max > 100 ? 100 : cpu_max);
 118              		.loc 1 18 13 view .LVU27
 119 0032 FDEEE77A 		vcvt.s32.f32	s15, s15
  20:Thaumazein.cpp **** 
 120              		.loc 1 20 24 view .LVU28
 121 0036 23EAE373 		bic	r3, r3, r3, asr #31
  18:Thaumazein.cpp ****         cpu_max = cpu_max < 0 ? 0 : (cpu_max > 100 ? 100 : cpu_max);
 122              		.loc 1 18 13 view .LVU29
 123 003a 17EE902A 		vmov	r2, s15	@ int
  19:Thaumazein.cpp ****         pos += snprintf(msg + pos, sizeof(msg) - pos, "cpu : %d/%d\n", cpu_avg, cpu_max);
 124              		.loc 1 19 31 view .LVU30
 125 003e 642A     		cmp	r2, #100
 126 0040 A8BF     		it	ge
 127 0042 6422     		movge	r2, #100
  20:Thaumazein.cpp **** 
 128              		.loc 1 20 24 view .LVU31
 129 0044 22EAE272 		bic	r2, r2, r2, asr #31
 130 0048 0092     		str	r2, [sp]
 131 004a 264A     		ldr	r2, .L7+8
 132 004c FFF7FEFF 		bl	snprintf
 133              	.LVL1:
  23:Thaumazein.cpp ****         pos += snprintf(msg + pos, sizeof(msg) - pos, "Engine: %d (%s)\n", current_engine_idx, (cur
 134              		.loc 1 23 34 view .LVU32
 135 0050 254B     		ldr	r3, .L7+12
  24:Thaumazein.cpp **** 
 136              		.loc 1 24 24 view .LVU33
 137 0052 2649     		ldr	r1, .L7+16
  20:Thaumazein.cpp **** 
 138              		.loc 1 20 24 view .LVU34
 139 0054 0446     		mov	r4, r0
 140              	.LVL2:
  23:Thaumazein.cpp ****         pos += snprintf(msg + pos, sizeof(msg) - pos, "Engine: %d (%s)\n", current_engine_idx, (cur
 141              		.loc 1 23 9 is_stmt 1 view .LVU35
  23:Thaumazein.cpp ****         pos += snprintf(msg + pos, sizeof(msg) - pos, "Engine: %d (%s)\n", current_engine_idx, (cur
ARM GAS  /var/folders/9s/8rp0_f2s1n31qbztm3b5_fdh0000gn/T//ccbVcCyO.s 			page 6


 142              		.loc 1 23 34 is_stmt 0 view .LVU36
 143 0056 1B68     		ldr	r3, [r3]
 144              	.LVL3:
  24:Thaumazein.cpp **** 
 145              		.loc 1 24 9 is_stmt 1 view .LVU37
  24:Thaumazein.cpp **** 
 146              		.loc 1 24 24 is_stmt 0 view .LVU38
 147 0058 254A     		ldr	r2, .L7+20
 148 005a 032B     		cmp	r3, #3
 149 005c C8BF     		it	gt
 150 005e 0A46     		movgt	r2, r1
 151 0060 C0F50071 		rsb	r1, r0, #512
 152 0064 02A8     		add	r0, sp, #8
 153              	.LVL4:
  24:Thaumazein.cpp **** 
 154              		.loc 1 24 24 view .LVU39
 155 0066 0092     		str	r2, [sp]
 156 0068 2044     		add	r0, r0, r4
 157 006a 224A     		ldr	r2, .L7+24
 158 006c FFF7FEFF 		bl	snprintf
 159              	.LVL5:
  27:Thaumazein.cpp ****         for (int i = 8; i < 12; ++i) {
 160              		.loc 1 27 24 view .LVU40
 161 0070 02AB     		add	r3, sp, #8
  24:Thaumazein.cpp **** 
 162              		.loc 1 24 13 view .LVU41
 163 0072 0444     		add	r4, r4, r0
 164              	.LVL6:
  27:Thaumazein.cpp ****         for (int i = 8; i < 12; ++i) {
 165              		.loc 1 27 9 is_stmt 1 view .LVU42
  27:Thaumazein.cpp ****         for (int i = 8; i < 12; ++i) {
 166              		.loc 1 27 24 is_stmt 0 view .LVU43
 167 0074 204A     		ldr	r2, .L7+28
 168 0076 C4F50071 		rsb	r1, r4, #512
 169 007a 1819     		adds	r0, r3, r4
 170 007c FFF7FEFF 		bl	snprintf
 171              	.LVL7:
  27:Thaumazein.cpp ****         for (int i = 8; i < 12; ++i) {
 172              		.loc 1 27 13 view .LVU44
 173 0080 0444     		add	r4, r4, r0
 174              	.LVL8:
 175              		.loc 1 28 9 is_stmt 1 view .LVU45
 176              	.LBB81:
 177              		.loc 1 28 27 view .LVU46
 178              	.L4:
  29:Thaumazein.cpp ****             pos += snprintf(msg + pos, sizeof(msg) - pos, "[%d]: %d\n", i, static_cast<int>(adc_raw
 179              		.loc 1 29 13 view .LVU47
 180              		.loc 1 29 109 is_stmt 0 view .LVU48
 181 0082 1E4B     		ldr	r3, .L7+32
 182              		.loc 1 29 28 view .LVU49
 183 0084 02A8     		add	r0, sp, #8
 184              		.loc 1 29 111 view .LVU50
 185 0086 9FED1E7A 		vldr.32	s14, .L7+36
 186              		.loc 1 29 28 view .LVU51
 187 008a C4F50071 		rsb	r1, r4, #512
 188              		.loc 1 29 109 view .LVU52
 189 008e 03EB8503 		add	r3, r3, r5, lsl #2
ARM GAS  /var/folders/9s/8rp0_f2s1n31qbztm3b5_fdh0000gn/T//ccbVcCyO.s 			page 7


 190              		.loc 1 29 28 view .LVU53
 191 0092 2044     		add	r0, r0, r4
 192 0094 1B4A     		ldr	r2, .L7+40
 193              		.loc 1 29 109 view .LVU54
 194 0096 D3ED007A 		vldr.32	s15, [r3]
 195              		.loc 1 29 28 view .LVU55
 196 009a 2B46     		mov	r3, r5
 197              		.loc 1 29 111 view .LVU56
 198 009c 67EE877A 		vmul.f32	s15, s15, s14
 199              		.loc 1 29 28 view .LVU57
 200 00a0 FDEEE77A 		vcvt.s32.f32	s15, s15
 201 00a4 CDED007A 		vstr.32	s15, [sp]	@ int
 202 00a8 FFF7FEFF 		bl	snprintf
 203              	.LVL9:
 204              		.loc 1 29 17 view .LVU58
 205 00ac 0444     		add	r4, r4, r0
 206              	.LVL10:
  30:Thaumazein.cpp ****             if(pos >= (int)sizeof(msg) - 20) break; // safety margin
 207              		.loc 1 30 13 is_stmt 1 view .LVU59
 208 00ae B4F5F67F 		cmp	r4, #492
 209 00b2 02DA     		bge	.L3
  28:Thaumazein.cpp ****             pos += snprintf(msg + pos, sizeof(msg) - pos, "[%d]: %d\n", i, static_cast<int>(adc_raw
 210              		.loc 1 28 9 view .LVU60
 211 00b4 0135     		adds	r5, r5, #1
 212              	.LVL11:
  28:Thaumazein.cpp ****             pos += snprintf(msg + pos, sizeof(msg) - pos, "[%d]: %d\n", i, static_cast<int>(adc_raw
 213              		.loc 1 28 27 view .LVU61
 214 00b6 0C2D     		cmp	r5, #12
 215 00b8 E3D1     		bne	.L4
 216              	.L3:
  28:Thaumazein.cpp ****             pos += snprintf(msg + pos, sizeof(msg) - pos, "[%d]: %d\n", i, static_cast<int>(adc_raw
 217              		.loc 1 28 27 is_stmt 0 view .LVU62
 218              	.LBE81:
  31:Thaumazein.cpp ****         }
  32:Thaumazein.cpp **** 
  33:Thaumazein.cpp ****         // Separator
  34:Thaumazein.cpp ****         pos += snprintf(msg + pos, sizeof(msg) - pos, "--------");
 219              		.loc 1 34 9 is_stmt 1 view .LVU63
 220              		.loc 1 34 24 is_stmt 0 view .LVU64
 221 00ba 02AB     		add	r3, sp, #8
 222 00bc 124A     		ldr	r2, .L7+44
 223 00be C4F50071 		rsb	r1, r4, #512
 224 00c2 1819     		adds	r0, r3, r4
 225 00c4 FFF7FEFF 		bl	snprintf
 226              	.LVL12:
  35:Thaumazein.cpp **** 
  36:Thaumazein.cpp ****         // Print once with a single call to avoid throttling
  37:Thaumazein.cpp ****         hw.PrintLine("%s", msg);
 227              		.loc 1 37 9 is_stmt 1 view .LVU65
 228              	.LBB82:
 229              	.LBI82:
 230              		.file 3 "lib/libdaisy/src/daisy_seed.h"
   1:lib/libdaisy/src/daisy_seed.h **** #pragma once
   2:lib/libdaisy/src/daisy_seed.h **** #ifndef DSY_SEED_H
   3:lib/libdaisy/src/daisy_seed.h **** #define DSY_SEED_H
   4:lib/libdaisy/src/daisy_seed.h **** 
   5:lib/libdaisy/src/daisy_seed.h **** #include "daisy.h"
ARM GAS  /var/folders/9s/8rp0_f2s1n31qbztm3b5_fdh0000gn/T//ccbVcCyO.s 			page 8


   6:lib/libdaisy/src/daisy_seed.h **** 
   7:lib/libdaisy/src/daisy_seed.h **** //Uncomment this out if you're still using the rev2 hardware
   8:lib/libdaisy/src/daisy_seed.h **** //#define SEED_REV2
   9:lib/libdaisy/src/daisy_seed.h **** 
  10:lib/libdaisy/src/daisy_seed.h **** namespace daisy
  11:lib/libdaisy/src/daisy_seed.h **** {
  12:lib/libdaisy/src/daisy_seed.h **** /**
  13:lib/libdaisy/src/daisy_seed.h ****    @brief This is the higher-level interface for the Daisy board. \n 
  14:lib/libdaisy/src/daisy_seed.h ****     All basic peripheral configuration/initialization is setup here. \n
  15:lib/libdaisy/src/daisy_seed.h **** 
  16:lib/libdaisy/src/daisy_seed.h ****    @ingroup boards
  17:lib/libdaisy/src/daisy_seed.h **** */
  18:lib/libdaisy/src/daisy_seed.h **** class DaisySeed
  19:lib/libdaisy/src/daisy_seed.h **** {
  20:lib/libdaisy/src/daisy_seed.h ****   public:
  21:lib/libdaisy/src/daisy_seed.h ****     DaisySeed() {}
  22:lib/libdaisy/src/daisy_seed.h ****     ~DaisySeed() {}
  23:lib/libdaisy/src/daisy_seed.h **** 
  24:lib/libdaisy/src/daisy_seed.h ****     /** This function used to provide a pre-initialization configuraiton 
  25:lib/libdaisy/src/daisy_seed.h ****      *  it has since been deprecated, and does nothing.
  26:lib/libdaisy/src/daisy_seed.h ****      */
  27:lib/libdaisy/src/daisy_seed.h ****     void Configure();
  28:lib/libdaisy/src/daisy_seed.h **** 
  29:lib/libdaisy/src/daisy_seed.h ****     /** 
  30:lib/libdaisy/src/daisy_seed.h ****     Initializes the Daisy Seed and the following peripherals:
  31:lib/libdaisy/src/daisy_seed.h ****     SDRAM, QSPI, 24-bit 48kHz Audio via AK4556, Internal USB,
  32:lib/libdaisy/src/daisy_seed.h ****     as well as the built-in LED and Testpoint.
  33:lib/libdaisy/src/daisy_seed.h **** 
  34:lib/libdaisy/src/daisy_seed.h ****     ADCs, DACs, and other special peripherals (such as I2C, SPI, etc.)
  35:lib/libdaisy/src/daisy_seed.h ****     can be initialized using their specific initializers within libdaisy
  36:lib/libdaisy/src/daisy_seed.h ****     for a specific application.
  37:lib/libdaisy/src/daisy_seed.h ****     */
  38:lib/libdaisy/src/daisy_seed.h ****     void Init(bool boost = false);
  39:lib/libdaisy/src/daisy_seed.h **** 
  40:lib/libdaisy/src/daisy_seed.h ****     /** 
  41:lib/libdaisy/src/daisy_seed.h ****     Deinitializes all peripherals automatically handled by `Init`.
  42:lib/libdaisy/src/daisy_seed.h ****     */
  43:lib/libdaisy/src/daisy_seed.h ****     void DeInit();
  44:lib/libdaisy/src/daisy_seed.h **** 
  45:lib/libdaisy/src/daisy_seed.h ****     /** 
  46:lib/libdaisy/src/daisy_seed.h ****     Wait some ms before going on.
  47:lib/libdaisy/src/daisy_seed.h ****     \param del Delay time in ms.
  48:lib/libdaisy/src/daisy_seed.h ****     */
  49:lib/libdaisy/src/daisy_seed.h ****     void DelayMs(size_t del);
  50:lib/libdaisy/src/daisy_seed.h **** 
  51:lib/libdaisy/src/daisy_seed.h ****     /** 
  52:lib/libdaisy/src/daisy_seed.h ****     Returns the gpio_pin corresponding to the index 0-31.
  53:lib/libdaisy/src/daisy_seed.h ****     For the given GPIO on the Daisy Seed (labeled 1-32 in docs).
  54:lib/libdaisy/src/daisy_seed.h ****     */
  55:lib/libdaisy/src/daisy_seed.h ****     static Pin GetPin(uint8_t pin_idx);
  56:lib/libdaisy/src/daisy_seed.h **** 
  57:lib/libdaisy/src/daisy_seed.h ****     /** Begins the audio for the seeds builtin audio.
  58:lib/libdaisy/src/daisy_seed.h ****     the specified callback will get called whenever
  59:lib/libdaisy/src/daisy_seed.h ****     new data is ready to be prepared.
  60:lib/libdaisy/src/daisy_seed.h ****     */
  61:lib/libdaisy/src/daisy_seed.h ****     void StartAudio(AudioHandle::InterleavingAudioCallback cb);
  62:lib/libdaisy/src/daisy_seed.h **** 
ARM GAS  /var/folders/9s/8rp0_f2s1n31qbztm3b5_fdh0000gn/T//ccbVcCyO.s 			page 9


  63:lib/libdaisy/src/daisy_seed.h ****     /** Begins the audio for the seeds builtin audio.
  64:lib/libdaisy/src/daisy_seed.h ****     the specified callback will get called whenever
  65:lib/libdaisy/src/daisy_seed.h ****     new data is ready to be prepared.
  66:lib/libdaisy/src/daisy_seed.h ****     This will use the newer non-interleaved callback.
  67:lib/libdaisy/src/daisy_seed.h ****     */
  68:lib/libdaisy/src/daisy_seed.h ****     void StartAudio(AudioHandle::AudioCallback cb);
  69:lib/libdaisy/src/daisy_seed.h **** 
  70:lib/libdaisy/src/daisy_seed.h ****     /** Changes to a new interleaved callback
  71:lib/libdaisy/src/daisy_seed.h ****      */
  72:lib/libdaisy/src/daisy_seed.h ****     void ChangeAudioCallback(AudioHandle::InterleavingAudioCallback cb);
  73:lib/libdaisy/src/daisy_seed.h **** 
  74:lib/libdaisy/src/daisy_seed.h ****     /** Changes to a new multichannel callback
  75:lib/libdaisy/src/daisy_seed.h ****      */
  76:lib/libdaisy/src/daisy_seed.h ****     void ChangeAudioCallback(AudioHandle::AudioCallback cb);
  77:lib/libdaisy/src/daisy_seed.h **** 
  78:lib/libdaisy/src/daisy_seed.h ****     /** Stops the audio if it is running. */
  79:lib/libdaisy/src/daisy_seed.h ****     void StopAudio();
  80:lib/libdaisy/src/daisy_seed.h **** 
  81:lib/libdaisy/src/daisy_seed.h ****     /** Updates the Audio Sample Rate, and reinitializes.
  82:lib/libdaisy/src/daisy_seed.h ****      ** Audio must be stopped for this to work.
  83:lib/libdaisy/src/daisy_seed.h ****      */
  84:lib/libdaisy/src/daisy_seed.h ****     void SetAudioSampleRate(SaiHandle::Config::SampleRate samplerate);
  85:lib/libdaisy/src/daisy_seed.h **** 
  86:lib/libdaisy/src/daisy_seed.h ****     /** Returns the audio sample rate in Hz as a floating point number.
  87:lib/libdaisy/src/daisy_seed.h ****      */
  88:lib/libdaisy/src/daisy_seed.h ****     float AudioSampleRate();
  89:lib/libdaisy/src/daisy_seed.h **** 
  90:lib/libdaisy/src/daisy_seed.h ****     /** Sets the number of samples processed per channel by the audio callback.
  91:lib/libdaisy/src/daisy_seed.h ****      */
  92:lib/libdaisy/src/daisy_seed.h ****     void SetAudioBlockSize(size_t blocksize);
  93:lib/libdaisy/src/daisy_seed.h **** 
  94:lib/libdaisy/src/daisy_seed.h ****     /** Returns the number of samples per channel in a block of audio. */
  95:lib/libdaisy/src/daisy_seed.h ****     size_t AudioBlockSize();
  96:lib/libdaisy/src/daisy_seed.h **** 
  97:lib/libdaisy/src/daisy_seed.h ****     /** Returns the rate in Hz that the Audio callback is called */
  98:lib/libdaisy/src/daisy_seed.h ****     float AudioCallbackRate() const;
  99:lib/libdaisy/src/daisy_seed.h **** 
 100:lib/libdaisy/src/daisy_seed.h ****     /** Returns the SAI Handle for the Daisy Seed 
 101:lib/libdaisy/src/daisy_seed.h ****      *  This can be useful when adding a secondary codec,
 102:lib/libdaisy/src/daisy_seed.h ****      *  the result of this function can be passed to the audio reinit 
 103:lib/libdaisy/src/daisy_seed.h ****      *  with an SAI2 configuration
 104:lib/libdaisy/src/daisy_seed.h ****      */
 105:lib/libdaisy/src/daisy_seed.h ****     const SaiHandle& AudioSaiHandle() const;
 106:lib/libdaisy/src/daisy_seed.h **** 
 107:lib/libdaisy/src/daisy_seed.h ****     /** Sets the state of the built in LED
 108:lib/libdaisy/src/daisy_seed.h ****      */
 109:lib/libdaisy/src/daisy_seed.h ****     void SetLed(bool state);
 110:lib/libdaisy/src/daisy_seed.h **** 
 111:lib/libdaisy/src/daisy_seed.h ****     /** Sets the state of the test point near pin 10
 112:lib/libdaisy/src/daisy_seed.h ****      */
 113:lib/libdaisy/src/daisy_seed.h ****     void SetTestPoint(bool state);
 114:lib/libdaisy/src/daisy_seed.h **** 
 115:lib/libdaisy/src/daisy_seed.h ****     /** Print formatted debug log message
 116:lib/libdaisy/src/daisy_seed.h ****      */
 117:lib/libdaisy/src/daisy_seed.h ****     template <typename... VA>
 118:lib/libdaisy/src/daisy_seed.h ****     static void Print(const char* format, VA... va)
 119:lib/libdaisy/src/daisy_seed.h ****     {
ARM GAS  /var/folders/9s/8rp0_f2s1n31qbztm3b5_fdh0000gn/T//ccbVcCyO.s 			page 10


 120:lib/libdaisy/src/daisy_seed.h ****         Log::Print(format, va...);
 121:lib/libdaisy/src/daisy_seed.h ****     }
 122:lib/libdaisy/src/daisy_seed.h **** 
 123:lib/libdaisy/src/daisy_seed.h ****     /** Print formatted debug log message with automatic line termination
 124:lib/libdaisy/src/daisy_seed.h ****     */
 125:lib/libdaisy/src/daisy_seed.h ****     template <typename... VA>
 126:lib/libdaisy/src/daisy_seed.h ****     static void PrintLine(const char* format, VA... va)
 231              		.loc 3 126 17 view .LVU66
 232              	.LBB83:
 127:lib/libdaisy/src/daisy_seed.h ****     {
 128:lib/libdaisy/src/daisy_seed.h ****         Log::PrintLine(format, va...);
 233              		.loc 3 128 23 is_stmt 0 view .LVU67
 234 00c8 02A9     		add	r1, sp, #8
 235              	.LVL13:
 236              		.loc 3 128 23 view .LVU68
 237 00ca 1048     		ldr	r0, .L7+48
 238 00cc FFF7FEFF 		bl	_ZN5daisy6LoggerILNS_17LoggerDestinationE1EE9PrintLineEPKcz
 239              	.LVL14:
 240              		.loc 3 128 23 view .LVU69
 241              	.LBE83:
 242              	.LBE82:
  38:Thaumazein.cpp **** 
  39:Thaumazein.cpp ****         update_display = false; 
 243              		.loc 1 39 9 is_stmt 1 view .LVU70
 244              		.loc 1 39 24 is_stmt 0 view .LVU71
 245 00d0 0F4B     		ldr	r3, .L7+52
 246 00d2 0022     		movs	r2, #0
 247 00d4 1A70     		strb	r2, [r3]
 248              	.LBE85:
  40:Thaumazein.cpp ****     }
  41:Thaumazein.cpp **** }
 249              		.loc 1 41 1 view .LVU72
 250 00d6 0DF5037D 		add	sp, sp, #524
 251              		.cfi_def_cfa_offset 12
 252              		@ sp needed
 253 00da 30BD     		pop	{r4, r5, pc}
 254              	.LVL15:
 255              	.L8:
 256              		.loc 1 41 1 view .LVU73
 257              		.align	2
 258              	.L7:
 259 00dc 00000000 		.word	cpu_meter
 260 00e0 0000C842 		.word	1120403456
 261 00e4 0C000000 		.word	.LC2
 262 00e8 00000000 		.word	current_engine_index
 263 00ec 07000000 		.word	.LC1
 264 00f0 00000000 		.word	.LC0
 265 00f4 19000000 		.word	.LC3
 266 00f8 2A000000 		.word	.LC4
 267 00fc 00000000 		.word	adc_raw_values
 268 0100 00007A44 		.word	1148846080
 269 0104 3E000000 		.word	.LC5
 270 0108 48000000 		.word	.LC6
 271 010c 51000000 		.word	.LC7
 272 0110 00000000 		.word	update_display
 273              		.cfi_endproc
 274              	.LFE7011:
ARM GAS  /var/folders/9s/8rp0_f2s1n31qbztm3b5_fdh0000gn/T//ccbVcCyO.s 			page 11


 276              		.section	.text._Z13UpdateDisplayv,"ax",%progbits
 277              		.align	1
 278              		.global	_Z13UpdateDisplayv
 279              		.syntax unified
 280              		.thumb
 281              		.thumb_func
 283              	_Z13UpdateDisplayv:
 284              	.LFB6115:
   7:Thaumazein.cpp ****     if (update_display) {
 285              		.loc 1 7 22 is_stmt 1 view -0
 286              		.cfi_startproc
 287              		@ args = 0, pretend = 0, frame = 0
 288              		@ frame_needed = 0, uses_anonymous_args = 0
 289              		@ link register save eliminated.
   8:Thaumazein.cpp ****         // Build stats message in a smaller buffer
 290              		.loc 1 8 5 view .LVU75
 291              	.LBB86:
   8:Thaumazein.cpp ****         // Build stats message in a smaller buffer
 292              		.loc 1 8 9 is_stmt 0 view .LVU76
 293 0000 024B     		ldr	r3, .L11
 294 0002 1B78     		ldrb	r3, [r3]	@ zero_extendqisi2
   8:Thaumazein.cpp ****         // Build stats message in a smaller buffer
 295              		.loc 1 8 5 view .LVU77
 296 0004 0BB1     		cbz	r3, .L9
 297              	.LBE86:
 298 0006 FFF7FEBF 		b	_Z13UpdateDisplayv.part.0
 299              	.LVL16:
 300              	.L9:
 301              		.loc 1 41 1 view .LVU78
 302 000a 7047     		bx	lr
 303              	.L12:
 304              		.align	2
 305              	.L11:
 306 000c 00000000 		.word	update_display
 307              		.cfi_endproc
 308              	.LFE6115:
 310              		.section	.text._Z15PollTouchSensorv,"ax",%progbits
 311              		.align	1
 312              		.global	_Z15PollTouchSensorv
 313              		.syntax unified
 314              		.thumb
 315              		.thumb_func
 317              	_Z15PollTouchSensorv:
 318              	.LFB6116:
  42:Thaumazein.cpp **** 
  43:Thaumazein.cpp **** // Poll the touch sensor and update shared variables
  44:Thaumazein.cpp **** void PollTouchSensor() {
 319              		.loc 1 44 24 is_stmt 1 view -0
 320              		.cfi_startproc
 321              		@ args = 0, pretend = 0, frame = 24
 322              		@ frame_needed = 0, uses_anonymous_args = 0
  45:Thaumazein.cpp ****     if(!touch_sensor_present) {
 323              		.loc 1 45 5 view .LVU80
 324              		.loc 1 45 8 is_stmt 0 view .LVU81
 325 0000 534B     		ldr	r3, .L36
  44:Thaumazein.cpp ****     if(!touch_sensor_present) {
 326              		.loc 1 44 24 view .LVU82
ARM GAS  /var/folders/9s/8rp0_f2s1n31qbztm3b5_fdh0000gn/T//ccbVcCyO.s 			page 12


 327 0002 2DE9F041 		push	{r4, r5, r6, r7, r8, lr}
 328              		.cfi_def_cfa_offset 24
 329              		.cfi_offset 4, -24
 330              		.cfi_offset 5, -20
 331              		.cfi_offset 6, -16
 332              		.cfi_offset 7, -12
 333              		.cfi_offset 8, -8
 334              		.cfi_offset 14, -4
 335              		.loc 1 45 8 view .LVU83
 336 0006 93F80080 		ldrb	r8, [r3]	@ zero_extendqisi2
  44:Thaumazein.cpp ****     if(!touch_sensor_present) {
 337              		.loc 1 44 24 view .LVU84
 338 000a 2DED028B 		vpush.64	{d8}
 339              		.cfi_def_cfa_offset 32
 340              		.cfi_offset 80, -32
 341              		.cfi_offset 81, -28
 342 000e 86B0     		sub	sp, sp, #24
 343              		.cfi_def_cfa_offset 56
 344              		.loc 1 45 5 view .LVU85
 345 0010 B8F1000F 		cmp	r8, #0
 346 0014 4FD0     		beq	.L13
 347              	.LBB120:
 348              	.LBI120:
  44:Thaumazein.cpp ****     if(!touch_sensor_present) {
 349              		.loc 1 44 6 is_stmt 1 view .LVU86
 350              	.LBB121:
  46:Thaumazein.cpp ****         // Touch sensor unavailable – nothing to poll
  47:Thaumazein.cpp ****         return;
  48:Thaumazein.cpp ****     }
  49:Thaumazein.cpp ****     // Recover from any I2C errors on the touch sensor
  50:Thaumazein.cpp ****     if(touch_sensor.HasError()) {
 351              		.loc 1 50 5 view .LVU87
 352              	.LBB122:
 353              		.loc 1 50 29 is_stmt 0 view .LVU88
 354 0016 4F48     		ldr	r0, .L36+4
 355 0018 FFF7FEFF 		bl	_ZNK14thaumazein_hal6Mpr1218HasErrorEv
 356              	.LVL17:
 357              		.loc 1 50 5 view .LVU89
 358 001c C0B1     		cbz	r0, .L15
 359              	.LBB123:
  51:Thaumazein.cpp ****         touch_sensor.ClearError();
 360              		.loc 1 51 9 is_stmt 1 view .LVU90
 361              		.loc 1 51 32 is_stmt 0 view .LVU91
 362 001e 4D48     		ldr	r0, .L36+4
 363 0020 FFF7FEFF 		bl	_ZN14thaumazein_hal6Mpr12110ClearErrorEv
 364              	.LVL18:
  52:Thaumazein.cpp ****         thaumazein_hal::Mpr121::Config cfg;
 365              		.loc 1 52 9 is_stmt 1 view .LVU92
 366              	.LBB124:
 367              	.LBI124:
 368              		.file 4 "mpr121_daisy.h"
   1:mpr121_daisy.h **** #pragma once
   2:mpr121_daisy.h **** #ifndef MPR121_DAISY_H
   3:mpr121_daisy.h **** #define MPR121_DAISY_H
   4:mpr121_daisy.h **** 
   5:mpr121_daisy.h **** #include "daisy_seed.h"
   6:mpr121_daisy.h **** #include "per/i2c.h"
ARM GAS  /var/folders/9s/8rp0_f2s1n31qbztm3b5_fdh0000gn/T//ccbVcCyO.s 			page 13


   7:mpr121_daisy.h **** 
   8:mpr121_daisy.h **** // Add a namespace to avoid collision with daisy::Mpr121
   9:mpr121_daisy.h **** namespace thaumazein_hal {
  10:mpr121_daisy.h **** 
  11:mpr121_daisy.h **** using namespace daisy; // Keep daisy namespace accessible within thaumazein_hal for convenience
  12:mpr121_daisy.h **** 
  13:mpr121_daisy.h **** /// mp
  14:mpr121_daisy.h **** 
  15:mpr121_daisy.h **** // Register map
  16:mpr121_daisy.h **** #define MPR121_TOUCHSTATUS_L 0x00
  17:mpr121_daisy.h **** #define MPR121_TOUCHSTATUS_H 0x01
  18:mpr121_daisy.h **** #define MPR121_FILTDATA_0L 0x04
  19:mpr121_daisy.h **** #define MPR121_FILTDATA_0H 0x05
  20:mpr121_daisy.h **** #define MPR121_BASELINE_0 0x1E
  21:mpr121_daisy.h **** #define MPR121_MHDR 0x2B
  22:mpr121_daisy.h **** #define MPR121_NHDR 0x2C
  23:mpr121_daisy.h **** #define MPR121_NCLR 0x2D
  24:mpr121_daisy.h **** #define MPR121_FDLR 0x2E
  25:mpr121_daisy.h **** #define MPR121_MHDF 0x2F
  26:mpr121_daisy.h **** #define MPR121_NHDF 0x30
  27:mpr121_daisy.h **** #define MPR121_NCLF 0x31
  28:mpr121_daisy.h **** #define MPR121_FDLF 0x32
  29:mpr121_daisy.h **** #define MPR121_NHDT 0x33
  30:mpr121_daisy.h **** #define MPR121_NCLT 0x34
  31:mpr121_daisy.h **** #define MPR121_FDLT 0x35
  32:mpr121_daisy.h **** 
  33:mpr121_daisy.h **** #define MPR121_TOUCHTH_0 0x41
  34:mpr121_daisy.h **** #define MPR121_RELEASETH_0 0x42
  35:mpr121_daisy.h **** #define MPR121_DEBOUNCE 0x5B
  36:mpr121_daisy.h **** #define MPR121_CONFIG1 0x5C
  37:mpr121_daisy.h **** #define MPR121_CONFIG2 0x5D
  38:mpr121_daisy.h **** #define MPR121_CHARGECURR_0 0x5F
  39:mpr121_daisy.h **** #define MPR121_CHARGETIME_1 0x6C
  40:mpr121_daisy.h **** #define MPR121_ECR 0x5E
  41:mpr121_daisy.h **** #define MPR121_AUTOCONFIG0 0x7B
  42:mpr121_daisy.h **** #define MPR121_AUTOCONFIG1 0x7C
  43:mpr121_daisy.h **** #define MPR121_UPLIMIT 0x7D
  44:mpr121_daisy.h **** #define MPR121_LOWLIMIT 0x7E
  45:mpr121_daisy.h **** #define MPR121_TARGETLIMIT 0x7F
  46:mpr121_daisy.h **** 
  47:mpr121_daisy.h **** #define MPR121_GPIODIR 0x76
  48:mpr121_daisy.h **** #define MPR121_GPIOEN 0x77
  49:mpr121_daisy.h **** #define MPR121_GPIOSET 0x78
  50:mpr121_daisy.h **** #define MPR121_GPIOCLR 0x79
  51:mpr121_daisy.h **** #define MPR121_GPIOTOGGLE 0x7A
  52:mpr121_daisy.h **** 
  53:mpr121_daisy.h **** #define MPR121_SOFTRESET 0x80
  54:mpr121_daisy.h **** #define MPR121_I2CADDR_DEFAULT 0x5A
  55:mpr121_daisy.h **** 
  56:mpr121_daisy.h **** class Mpr121
  57:mpr121_daisy.h **** {
  58:mpr121_daisy.h ****   public:
  59:mpr121_daisy.h ****     Mpr121() {}
  60:mpr121_daisy.h ****     ~Mpr121() {}
  61:mpr121_daisy.h **** 
  62:mpr121_daisy.h ****     struct Config
 369              		.loc 4 62 12 view .LVU93
ARM GAS  /var/folders/9s/8rp0_f2s1n31qbztm3b5_fdh0000gn/T//ccbVcCyO.s 			page 14


 370              	.LBB125:
 371              	.LBI125:
 372              		.file 5 "lib/libdaisy/src/per/i2c.h"
   1:lib/libdaisy/src/per/i2c.h **** #pragma once
   2:lib/libdaisy/src/per/i2c.h **** #include "util/hal_map.h"
   3:lib/libdaisy/src/per/i2c.h **** #include "daisy_core.h"
   4:lib/libdaisy/src/per/i2c.h **** 
   5:lib/libdaisy/src/per/i2c.h **** namespace daisy
   6:lib/libdaisy/src/per/i2c.h **** {
   7:lib/libdaisy/src/per/i2c.h **** /** A handle for interacting with an I2C peripheral. This is a dumb
   8:lib/libdaisy/src/per/i2c.h ****  *  gateway that internally points to one of the four I2C peripherals
   9:lib/libdaisy/src/per/i2c.h ****  *  after it was initialised. It can then be copied and passed around.
  10:lib/libdaisy/src/per/i2c.h ****  *  Use an I2CHandle like this:
  11:lib/libdaisy/src/per/i2c.h ****  *  
  12:lib/libdaisy/src/per/i2c.h ****  *      // setup the configuration
  13:lib/libdaisy/src/per/i2c.h ****  *      I2CHandle::Config i2c_conf;
  14:lib/libdaisy/src/per/i2c.h ****  *      i2c_conf.periph = I2CHandle::Config::Peripheral::I2C_1;
  15:lib/libdaisy/src/per/i2c.h ****  *      i2c_conf.speed  = I2CHandle::Config::Speed::I2C_400KHZ;
  16:lib/libdaisy/src/per/i2c.h ****  *      i2c_conf.mode   = I2CHandle::Config::Mode::Master;
  17:lib/libdaisy/src/per/i2c.h ****  *      i2c_conf.pin_config.scl  = {DSY_GPIOB, 8};
  18:lib/libdaisy/src/per/i2c.h ****  *      i2c_conf.pin_config.sda  = {DSY_GPIOB, 9};
  19:lib/libdaisy/src/per/i2c.h ****  *      // initialise the peripheral
  20:lib/libdaisy/src/per/i2c.h ****  *      I2CHandle i2c;
  21:lib/libdaisy/src/per/i2c.h ****  *      i2c.Init(i2c_conf);
  22:lib/libdaisy/src/per/i2c.h ****  *      // now i2c points to the corresponding peripheral and can be used.
  23:lib/libdaisy/src/per/i2c.h ****  *      i2c.TransmitBlocking( ... );
  24:lib/libdaisy/src/per/i2c.h ****  */
  25:lib/libdaisy/src/per/i2c.h **** class I2CHandle
  26:lib/libdaisy/src/per/i2c.h **** {
  27:lib/libdaisy/src/per/i2c.h ****   public:
  28:lib/libdaisy/src/per/i2c.h ****     /** Contains settings for initialising an I2C interface. */
  29:lib/libdaisy/src/per/i2c.h ****     struct Config
 373              		.loc 5 29 12 view .LVU94
 374              	.LBB126:
 375              	.LBB127:
 376              	.LBI127:
  30:lib/libdaisy/src/per/i2c.h ****     {
  31:lib/libdaisy/src/per/i2c.h ****         /** Specifies whether the interface will operate in master or slave mode. */
  32:lib/libdaisy/src/per/i2c.h ****         enum class Mode
  33:lib/libdaisy/src/per/i2c.h ****         {
  34:lib/libdaisy/src/per/i2c.h ****             I2C_MASTER,
  35:lib/libdaisy/src/per/i2c.h ****             I2C_SLAVE,
  36:lib/libdaisy/src/per/i2c.h ****         };
  37:lib/libdaisy/src/per/i2c.h **** 
  38:lib/libdaisy/src/per/i2c.h ****         /** Specifices the internal peripheral to use (these are mapped to different pins on the ha
  39:lib/libdaisy/src/per/i2c.h ****         enum class Peripheral
  40:lib/libdaisy/src/per/i2c.h ****         {
  41:lib/libdaisy/src/per/i2c.h ****             I2C_1 = 0, /**< & */
  42:lib/libdaisy/src/per/i2c.h ****             I2C_2,     /**< & */
  43:lib/libdaisy/src/per/i2c.h ****             I2C_3,     /**< & */
  44:lib/libdaisy/src/per/i2c.h ****             I2C_4,     /**< & */
  45:lib/libdaisy/src/per/i2c.h ****         };
  46:lib/libdaisy/src/per/i2c.h **** 
  47:lib/libdaisy/src/per/i2c.h ****         /** Rate at which the clock/data will be sent/received. The device being used will have max
  48:lib/libdaisy/src/per/i2c.h ****          *  1MHZ Mode is currently 886kHz
  49:lib/libdaisy/src/per/i2c.h ****          */
  50:lib/libdaisy/src/per/i2c.h ****         enum class Speed
ARM GAS  /var/folders/9s/8rp0_f2s1n31qbztm3b5_fdh0000gn/T//ccbVcCyO.s 			page 15


  51:lib/libdaisy/src/per/i2c.h ****         {
  52:lib/libdaisy/src/per/i2c.h ****             I2C_100KHZ, /**< & */
  53:lib/libdaisy/src/per/i2c.h ****             I2C_400KHZ, /**< & */
  54:lib/libdaisy/src/per/i2c.h ****             I2C_1MHZ,   /**< & */
  55:lib/libdaisy/src/per/i2c.h ****         };
  56:lib/libdaisy/src/per/i2c.h **** 
  57:lib/libdaisy/src/per/i2c.h ****         Peripheral periph; /**< & */
  58:lib/libdaisy/src/per/i2c.h ****         struct
  59:lib/libdaisy/src/per/i2c.h ****         {
 377              		.loc 5 59 9 view .LVU95
 378              	.LBB128:
 379              	.LBI128:
 380              		.file 6 "lib/libdaisy/src/daisy_core.h"
   1:lib/libdaisy/src/daisy_core.h **** #pragma once
   2:lib/libdaisy/src/daisy_core.h **** #ifndef DSY_CORE_HW_H
   3:lib/libdaisy/src/daisy_core.h **** #define DSY_CORE_HW_H /**< & */
   4:lib/libdaisy/src/daisy_core.h **** #include <stdint.h>
   5:lib/libdaisy/src/daisy_core.h **** #include <stdlib.h>
   6:lib/libdaisy/src/daisy_core.h **** 
   7:lib/libdaisy/src/daisy_core.h **** #if defined(_MSC_VER)
   8:lib/libdaisy/src/daisy_core.h **** #define FORCE_INLINE __forceinline /**< & */
   9:lib/libdaisy/src/daisy_core.h **** #elif defined(__clang__)
  10:lib/libdaisy/src/daisy_core.h **** #define FORCE_INLINE inline __attribute__((always_inline)) /**< & */
  11:lib/libdaisy/src/daisy_core.h **** #pragma clang diagnostic ignored "-Wduplicate-decl-specifier"
  12:lib/libdaisy/src/daisy_core.h **** #elif defined(__GNUC__)
  13:lib/libdaisy/src/daisy_core.h **** #define FORCE_INLINE inline __attribute__((always_inline)) /**< & */
  14:lib/libdaisy/src/daisy_core.h **** #else
  15:lib/libdaisy/src/daisy_core.h **** #error unknown compiler
  16:lib/libdaisy/src/daisy_core.h **** #endif
  17:lib/libdaisy/src/daisy_core.h **** 
  18:lib/libdaisy/src/daisy_core.h **** /** @addtogroup utility
  19:lib/libdaisy/src/daisy_core.h ****     @{
  20:lib/libdaisy/src/daisy_core.h **** */
  21:lib/libdaisy/src/daisy_core.h **** 
  22:lib/libdaisy/src/daisy_core.h **** /** Macro for area of memory that is configured as cacheless
  23:lib/libdaisy/src/daisy_core.h **** This should be used primarily for DMA buffers, and the like.
  24:lib/libdaisy/src/daisy_core.h **** */
  25:lib/libdaisy/src/daisy_core.h **** #define DMA_BUFFER_MEM_SECTION __attribute__((section(".sram1_bss")))
  26:lib/libdaisy/src/daisy_core.h **** /** 
  27:lib/libdaisy/src/daisy_core.h **** THE DTCM RAM section is also non-cached. However, is not suitable 
  28:lib/libdaisy/src/daisy_core.h **** for DMA transfers. Performance is on par with internal SRAM w/ 
  29:lib/libdaisy/src/daisy_core.h **** cache enabled.
  30:lib/libdaisy/src/daisy_core.h **** */
  31:lib/libdaisy/src/daisy_core.h **** #define DTCM_MEM_SECTION __attribute__((section(".dtcmram_bss")))
  32:lib/libdaisy/src/daisy_core.h **** 
  33:lib/libdaisy/src/daisy_core.h **** #define FBIPMAX 0.999985f             /**< close to 1.0f-LSB at 16 bit */
  34:lib/libdaisy/src/daisy_core.h **** #define FBIPMIN (-FBIPMAX)            /**< - (1 - LSB) */
  35:lib/libdaisy/src/daisy_core.h **** #define U82F_SCALE 0.0078740f         /**< 1 / 127 */
  36:lib/libdaisy/src/daisy_core.h **** #define F2U8_SCALE 127.0f             /**< 128 - 1 */
  37:lib/libdaisy/src/daisy_core.h **** #define S82F_SCALE 0.0078125f         /**< 1 / (2**7) */
  38:lib/libdaisy/src/daisy_core.h **** #define F2S8_SCALE 127.0f             /**< (2 ** 7) - 1 */
  39:lib/libdaisy/src/daisy_core.h **** #define S162F_SCALE 3.0517578125e-05f /**< 1 / (2** 15) */
  40:lib/libdaisy/src/daisy_core.h **** #define F2S16_SCALE 32767.0f          /**< (2 ** 15) - 1 */
  41:lib/libdaisy/src/daisy_core.h **** #define F2S24_SCALE 8388608.0f        /**< 2 ** 23 */
  42:lib/libdaisy/src/daisy_core.h **** #define S242F_SCALE 1.192092896e-07f  /**< 1 / (2 ** 23) */
  43:lib/libdaisy/src/daisy_core.h **** #define S24SIGN 0x800000              /**< 2 ** 23 */
  44:lib/libdaisy/src/daisy_core.h **** #define S322F_SCALE 4.6566129e-10f    /**< 1 / (2** 31) */
ARM GAS  /var/folders/9s/8rp0_f2s1n31qbztm3b5_fdh0000gn/T//ccbVcCyO.s 			page 16


  45:lib/libdaisy/src/daisy_core.h **** #define F2S32_SCALE 2147483647.f      /**< (2 ** 31) - 1 */
  46:lib/libdaisy/src/daisy_core.h **** 
  47:lib/libdaisy/src/daisy_core.h **** 
  48:lib/libdaisy/src/daisy_core.h **** /** shorthand macro for simplifying the reading of the left 
  49:lib/libdaisy/src/daisy_core.h ****  *  channel of a non-interleaved output buffer named out */
  50:lib/libdaisy/src/daisy_core.h **** #define OUT_L out[0]
  51:lib/libdaisy/src/daisy_core.h **** 
  52:lib/libdaisy/src/daisy_core.h **** /** shorthand macro for simplifying the reading of the right 
  53:lib/libdaisy/src/daisy_core.h ****  *  channel of a non-interleaved output buffer named out */
  54:lib/libdaisy/src/daisy_core.h **** #define OUT_R out[1]
  55:lib/libdaisy/src/daisy_core.h **** 
  56:lib/libdaisy/src/daisy_core.h **** /** shorthand macro for simplifying the reading of the left 
  57:lib/libdaisy/src/daisy_core.h ****  *  channel of a non-interleaved input buffer named in */
  58:lib/libdaisy/src/daisy_core.h **** #define IN_L in[0]
  59:lib/libdaisy/src/daisy_core.h **** 
  60:lib/libdaisy/src/daisy_core.h **** /** shorthand macro for simplifying the reading of the right 
  61:lib/libdaisy/src/daisy_core.h ****  *  channel of a non-interleaved input buffer named in */
  62:lib/libdaisy/src/daisy_core.h **** #define IN_R in[1]
  63:lib/libdaisy/src/daisy_core.h **** 
  64:lib/libdaisy/src/daisy_core.h **** /** 
  65:lib/libdaisy/src/daisy_core.h ****     Computes cube.
  66:lib/libdaisy/src/daisy_core.h ****     \param x Number to be cubed
  67:lib/libdaisy/src/daisy_core.h ****     \return x ^ 3
  68:lib/libdaisy/src/daisy_core.h **** */
  69:lib/libdaisy/src/daisy_core.h **** FORCE_INLINE float cube(float x)
  70:lib/libdaisy/src/daisy_core.h **** {
  71:lib/libdaisy/src/daisy_core.h ****     return (x * x) * x;
  72:lib/libdaisy/src/daisy_core.h **** }
  73:lib/libdaisy/src/daisy_core.h **** 
  74:lib/libdaisy/src/daisy_core.h **** /** 
  75:lib/libdaisy/src/daisy_core.h ****     Converts unsigned 8-bit to float
  76:lib/libdaisy/src/daisy_core.h ****     \param x Number to be scaled.
  77:lib/libdaisy/src/daisy_core.h ****     \return Scaled number.
  78:lib/libdaisy/src/daisy_core.h **** */
  79:lib/libdaisy/src/daisy_core.h **** FORCE_INLINE float u82f(uint8_t x)
  80:lib/libdaisy/src/daisy_core.h **** {
  81:lib/libdaisy/src/daisy_core.h ****     return ((float)x - 127.f) * U82F_SCALE;
  82:lib/libdaisy/src/daisy_core.h **** }
  83:lib/libdaisy/src/daisy_core.h **** 
  84:lib/libdaisy/src/daisy_core.h **** /**
  85:lib/libdaisy/src/daisy_core.h ****     Converts float to unsigned 8-bit
  86:lib/libdaisy/src/daisy_core.h **** */
  87:lib/libdaisy/src/daisy_core.h **** FORCE_INLINE uint8_t f2u8(float x)
  88:lib/libdaisy/src/daisy_core.h **** {
  89:lib/libdaisy/src/daisy_core.h ****     x = x <= FBIPMIN ? FBIPMIN : x;
  90:lib/libdaisy/src/daisy_core.h ****     x = x >= FBIPMAX ? FBIPMAX : x;
  91:lib/libdaisy/src/daisy_core.h ****     return (uint8_t)((x * F2U8_SCALE) + F2U8_SCALE);
  92:lib/libdaisy/src/daisy_core.h **** }
  93:lib/libdaisy/src/daisy_core.h **** 
  94:lib/libdaisy/src/daisy_core.h **** 
  95:lib/libdaisy/src/daisy_core.h **** /** 
  96:lib/libdaisy/src/daisy_core.h ****     Converts Signed 8-bit to float
  97:lib/libdaisy/src/daisy_core.h ****     \param x Number to be scaled.
  98:lib/libdaisy/src/daisy_core.h ****     \return Scaled number.
  99:lib/libdaisy/src/daisy_core.h **** */
 100:lib/libdaisy/src/daisy_core.h **** FORCE_INLINE float s82f(int8_t x)
 101:lib/libdaisy/src/daisy_core.h **** {
ARM GAS  /var/folders/9s/8rp0_f2s1n31qbztm3b5_fdh0000gn/T//ccbVcCyO.s 			page 17


 102:lib/libdaisy/src/daisy_core.h ****     return (float)x * S82F_SCALE;
 103:lib/libdaisy/src/daisy_core.h **** }
 104:lib/libdaisy/src/daisy_core.h **** 
 105:lib/libdaisy/src/daisy_core.h **** /**
 106:lib/libdaisy/src/daisy_core.h ****     Converts float to Signed 8-bit
 107:lib/libdaisy/src/daisy_core.h **** */
 108:lib/libdaisy/src/daisy_core.h **** FORCE_INLINE int8_t f2s8(float x)
 109:lib/libdaisy/src/daisy_core.h **** {
 110:lib/libdaisy/src/daisy_core.h ****     x = x <= FBIPMIN ? FBIPMIN : x;
 111:lib/libdaisy/src/daisy_core.h ****     x = x >= FBIPMAX ? FBIPMAX : x;
 112:lib/libdaisy/src/daisy_core.h ****     return (int32_t)(x * F2S8_SCALE);
 113:lib/libdaisy/src/daisy_core.h **** }
 114:lib/libdaisy/src/daisy_core.h **** 
 115:lib/libdaisy/src/daisy_core.h **** /** 
 116:lib/libdaisy/src/daisy_core.h ****     Converts Signed 16-bit to float
 117:lib/libdaisy/src/daisy_core.h ****     \param x Number to be scaled.
 118:lib/libdaisy/src/daisy_core.h ****     \return Scaled number.
 119:lib/libdaisy/src/daisy_core.h **** */
 120:lib/libdaisy/src/daisy_core.h **** FORCE_INLINE float s162f(int16_t x)
 121:lib/libdaisy/src/daisy_core.h **** {
 122:lib/libdaisy/src/daisy_core.h ****     return (float)x * S162F_SCALE;
 123:lib/libdaisy/src/daisy_core.h **** }
 124:lib/libdaisy/src/daisy_core.h **** 
 125:lib/libdaisy/src/daisy_core.h **** /**
 126:lib/libdaisy/src/daisy_core.h ****     Converts float to Signed 16-bit
 127:lib/libdaisy/src/daisy_core.h **** */
 128:lib/libdaisy/src/daisy_core.h **** FORCE_INLINE int16_t f2s16(float x)
 129:lib/libdaisy/src/daisy_core.h **** {
 130:lib/libdaisy/src/daisy_core.h ****     x = x <= FBIPMIN ? FBIPMIN : x;
 131:lib/libdaisy/src/daisy_core.h ****     x = x >= FBIPMAX ? FBIPMAX : x;
 132:lib/libdaisy/src/daisy_core.h ****     return (int32_t)(x * F2S16_SCALE);
 133:lib/libdaisy/src/daisy_core.h **** }
 134:lib/libdaisy/src/daisy_core.h **** 
 135:lib/libdaisy/src/daisy_core.h **** /**
 136:lib/libdaisy/src/daisy_core.h ****     Converts Signed 24-bit to float
 137:lib/libdaisy/src/daisy_core.h ****  */
 138:lib/libdaisy/src/daisy_core.h **** FORCE_INLINE float s242f(int32_t x)
 139:lib/libdaisy/src/daisy_core.h **** {
 140:lib/libdaisy/src/daisy_core.h ****     x = (x ^ S24SIGN) - S24SIGN; //sign extend aka ((x<<8)>>8)
 141:lib/libdaisy/src/daisy_core.h ****     return (float)x * S242F_SCALE;
 142:lib/libdaisy/src/daisy_core.h **** }
 143:lib/libdaisy/src/daisy_core.h **** /**
 144:lib/libdaisy/src/daisy_core.h ****     Converts float to Signed 24-bit
 145:lib/libdaisy/src/daisy_core.h ****  */
 146:lib/libdaisy/src/daisy_core.h **** FORCE_INLINE int32_t f2s24(float x)
 147:lib/libdaisy/src/daisy_core.h **** {
 148:lib/libdaisy/src/daisy_core.h ****     x = x <= FBIPMIN ? FBIPMIN : x;
 149:lib/libdaisy/src/daisy_core.h ****     x = x >= FBIPMAX ? FBIPMAX : x;
 150:lib/libdaisy/src/daisy_core.h ****     return (int32_t)(x * F2S24_SCALE);
 151:lib/libdaisy/src/daisy_core.h **** }
 152:lib/libdaisy/src/daisy_core.h **** 
 153:lib/libdaisy/src/daisy_core.h **** /**
 154:lib/libdaisy/src/daisy_core.h ****     Converts Signed 32-bit to float
 155:lib/libdaisy/src/daisy_core.h ****  */
 156:lib/libdaisy/src/daisy_core.h **** FORCE_INLINE float s322f(int32_t x)
 157:lib/libdaisy/src/daisy_core.h **** {
 158:lib/libdaisy/src/daisy_core.h ****     return (float)x * S322F_SCALE;
ARM GAS  /var/folders/9s/8rp0_f2s1n31qbztm3b5_fdh0000gn/T//ccbVcCyO.s 			page 18


 159:lib/libdaisy/src/daisy_core.h **** }
 160:lib/libdaisy/src/daisy_core.h **** /**
 161:lib/libdaisy/src/daisy_core.h ****     Converts float to Signed 24-bit
 162:lib/libdaisy/src/daisy_core.h ****  */
 163:lib/libdaisy/src/daisy_core.h **** FORCE_INLINE int32_t f2s32(float x)
 164:lib/libdaisy/src/daisy_core.h **** {
 165:lib/libdaisy/src/daisy_core.h ****     x = x <= FBIPMIN ? FBIPMIN : x;
 166:lib/libdaisy/src/daisy_core.h ****     x = x >= FBIPMAX ? FBIPMAX : x;
 167:lib/libdaisy/src/daisy_core.h ****     return (int32_t)(x * F2S32_SCALE);
 168:lib/libdaisy/src/daisy_core.h **** }
 169:lib/libdaisy/src/daisy_core.h **** 
 170:lib/libdaisy/src/daisy_core.h **** #ifdef __cplusplus
 171:lib/libdaisy/src/daisy_core.h **** 
 172:lib/libdaisy/src/daisy_core.h **** namespace daisy
 173:lib/libdaisy/src/daisy_core.h **** {
 174:lib/libdaisy/src/daisy_core.h **** /** @brief GPIO Port names */
 175:lib/libdaisy/src/daisy_core.h **** enum GPIOPort
 176:lib/libdaisy/src/daisy_core.h **** {
 177:lib/libdaisy/src/daisy_core.h ****     PORTA, /**< Port A */
 178:lib/libdaisy/src/daisy_core.h ****     PORTB, /**< Port B */
 179:lib/libdaisy/src/daisy_core.h ****     PORTC, /**< Port C */
 180:lib/libdaisy/src/daisy_core.h ****     PORTD, /**< Port D */
 181:lib/libdaisy/src/daisy_core.h ****     PORTE, /**< Port E */
 182:lib/libdaisy/src/daisy_core.h ****     PORTF, /**< Port F */
 183:lib/libdaisy/src/daisy_core.h ****     PORTG, /**< Port G */
 184:lib/libdaisy/src/daisy_core.h ****     PORTH, /**< Port H */
 185:lib/libdaisy/src/daisy_core.h ****     PORTI, /**< Port I */
 186:lib/libdaisy/src/daisy_core.h ****     PORTJ, /**< Port J */
 187:lib/libdaisy/src/daisy_core.h ****     PORTK, /**< Port K */
 188:lib/libdaisy/src/daisy_core.h ****     PORTX, /**< Used as a dummy port to signal an invalid pin. */
 189:lib/libdaisy/src/daisy_core.h **** };
 190:lib/libdaisy/src/daisy_core.h **** 
 191:lib/libdaisy/src/daisy_core.h **** /** @brief representation of hardware port/pin combination */
 192:lib/libdaisy/src/daisy_core.h **** struct Pin
 193:lib/libdaisy/src/daisy_core.h **** {
 194:lib/libdaisy/src/daisy_core.h ****     GPIOPort port;
 195:lib/libdaisy/src/daisy_core.h ****     uint8_t  pin;
 196:lib/libdaisy/src/daisy_core.h **** 
 197:lib/libdaisy/src/daisy_core.h ****     /** @brief Constructor creates a valid pin. 
 198:lib/libdaisy/src/daisy_core.h ****      *  @param pt GPIOPort between PA, and PK corresponding to STM32 Port.
 199:lib/libdaisy/src/daisy_core.h ****      *  @param pn pin number in range of 0-15
 200:lib/libdaisy/src/daisy_core.h ****     */
 201:lib/libdaisy/src/daisy_core.h ****     constexpr Pin(const GPIOPort pt, const uint8_t pn) : port(pt), pin(pn) {}
 202:lib/libdaisy/src/daisy_core.h **** 
 203:lib/libdaisy/src/daisy_core.h ****     /** @brief Basic Constructor creates an invalid Pin object */
 204:lib/libdaisy/src/daisy_core.h ****     constexpr Pin() : port(PORTX), pin(255) {}
 381              		.loc 6 204 15 view .LVU96
 382              		.loc 6 204 15 is_stmt 0 view .LVU97
 383              	.LBE128:
 384              	.LBB131:
 385              	.LBI131:
 386              		.loc 6 204 15 is_stmt 1 view .LVU98
 387              		.loc 6 204 15 is_stmt 0 view .LVU99
 388              	.LBE131:
 389              	.LBE127:
 390              	.LBE126:
 391              	.LBE125:
ARM GAS  /var/folders/9s/8rp0_f2s1n31qbztm3b5_fdh0000gn/T//ccbVcCyO.s 			page 19


 392              	.LBE124:
  53:Thaumazein.cpp ****         cfg.Defaults();
 393              		.loc 1 53 9 is_stmt 1 view .LVU100
 394              	.LBB142:
 395              	.LBI142:
  63:mpr121_daisy.h ****     {
  64:mpr121_daisy.h ****         I2CHandle::Config i2c_config;
  65:mpr121_daisy.h ****         uint8_t          i2c_address;
  66:mpr121_daisy.h **** 
  67:mpr121_daisy.h ****         void Defaults()
 396              		.loc 4 67 14 view .LVU101
 397              	.LBB143:
  68:mpr121_daisy.h ****         {
  69:mpr121_daisy.h ****             i2c_config.periph = I2CHandle::Config::Peripheral::I2C_1;
 398              		.loc 4 69 13 view .LVU102
  70:mpr121_daisy.h ****             i2c_config.speed  = I2CHandle::Config::Speed::I2C_400KHZ;
 399              		.loc 4 70 13 view .LVU103
  71:mpr121_daisy.h ****             i2c_config.mode   = I2CHandle::Config::Mode::I2C_MASTER;
 400              		.loc 4 71 13 view .LVU104
  72:mpr121_daisy.h ****             i2c_config.pin_config.scl = Pin(daisy::GPIOPort::PORTB, 8);
 401              		.loc 4 72 13 view .LVU105
 402              	.LBB144:
 403              	.LBI144:
 201:lib/libdaisy/src/daisy_core.h **** 
 404              		.loc 6 201 15 view .LVU106
 201:lib/libdaisy/src/daisy_core.h **** 
 405              		.loc 6 201 15 is_stmt 0 view .LVU107
 406              	.LBE144:
  73:mpr121_daisy.h ****             i2c_config.pin_config.sda = Pin(daisy::GPIOPort::PORTB, 9);
 407              		.loc 4 73 13 is_stmt 1 view .LVU108
 408              	.LBB145:
 409              	.LBI145:
 201:lib/libdaisy/src/daisy_core.h **** 
 410              		.loc 6 201 15 view .LVU109
 201:lib/libdaisy/src/daisy_core.h **** 
 411              		.loc 6 201 15 is_stmt 0 view .LVU110
 412              	.LBE145:
 413              	.LBE143:
 414              	.LBE142:
 415              	.LBB148:
 416              	.LBB139:
 417              	.LBB136:
 418              	.LBB134:
 419              	.LBB132:
 420              	.LBB129:
 421              		.loc 6 204 21 view .LVU111
 422 0024 0023     		movs	r3, #0
 423 0026 4C4A     		ldr	r2, .L36+8
 424              	.LBE129:
 425              	.LBE132:
 426              	.LBE134:
 427              	.LBE136:
 428              	.LBE139:
 429              	.LBE148:
  54:Thaumazein.cpp ****         touch_sensor.Init(cfg);
 430              		.loc 1 54 26 view .LVU112
 431 0028 6946     		mov	r1, sp
ARM GAS  /var/folders/9s/8rp0_f2s1n31qbztm3b5_fdh0000gn/T//ccbVcCyO.s 			page 20


 432 002a 4A48     		ldr	r0, .L36+4
 433              	.LBB149:
 434              	.LBB140:
 435              	.LBB137:
 436              	.LBB135:
 437              	.LBB133:
 438              	.LBB130:
 439              		.loc 6 204 21 view .LVU113
 440 002c CDE90032 		strd	r3, r2, [sp]
 441              	.LBE130:
 442              	.LBE133:
 443              	.LBE135:
 444              	.LBE137:
 445              	.LBE140:
 446              	.LBE149:
 447              	.LBB150:
 448              	.LBB146:
  70:mpr121_daisy.h ****             i2c_config.mode   = I2CHandle::Config::Mode::I2C_MASTER;
 449              		.loc 4 70 31 view .LVU114
 450 0030 0122     		movs	r2, #1
  71:mpr121_daisy.h ****             i2c_config.pin_config.scl = Pin(daisy::GPIOPort::PORTB, 8);
 451              		.loc 4 71 31 view .LVU115
 452 0032 CDE90223 		strd	r2, r3, [sp, #8]
 453              	.LBE146:
 454              	.LBE150:
 455              	.LBB151:
 456              	.LBB141:
 457              	.LBB138:
  29:lib/libdaisy/src/per/i2c.h ****     {
 458              		.loc 5 29 12 view .LVU116
 459 0036 1023     		movs	r3, #16
 460 0038 8DF81030 		strb	r3, [sp, #16]
 461              	.LBE138:
 462              	.LBE141:
 463              	.LBE151:
 464              	.LBB152:
 465              	.LBB147:
  74:mpr121_daisy.h ****             i2c_address               = MPR121_I2CADDR_DEFAULT;
 466              		.loc 4 74 13 is_stmt 1 view .LVU117
 467              		.loc 4 74 39 is_stmt 0 view .LVU118
 468 003c 5A23     		movs	r3, #90
 469 003e 8DF81430 		strb	r3, [sp, #20]
 470              	.LVL19:
 471              		.loc 4 74 39 view .LVU119
 472              	.LBE147:
 473              	.LBE152:
 474              		.loc 1 54 9 is_stmt 1 view .LVU120
 475              		.loc 1 54 26 is_stmt 0 view .LVU121
 476 0042 FFF7FEFF 		bl	_ZN14thaumazein_hal6Mpr1214InitERKNS0_6ConfigE
 477              	.LVL20:
  55:Thaumazein.cpp ****         touch_sensor.SetThresholds(6, 3);
 478              		.loc 1 55 9 is_stmt 1 view .LVU122
 479              		.loc 1 55 35 is_stmt 0 view .LVU123
 480 0046 0322     		movs	r2, #3
 481 0048 0621     		movs	r1, #6
 482 004a 4248     		ldr	r0, .L36+4
 483 004c FFF7FEFF 		bl	_ZN14thaumazein_hal6Mpr12113SetThresholdsEhh
ARM GAS  /var/folders/9s/8rp0_f2s1n31qbztm3b5_fdh0000gn/T//ccbVcCyO.s 			page 21


 484              	.LVL21:
 485              	.L15:
 486              	.LBE123:
 487              	.LBE122:
  56:Thaumazein.cpp ****     }
  57:Thaumazein.cpp ****     uint16_t touched = touch_sensor.Touched();
 488              		.loc 1 57 5 is_stmt 1 view .LVU124
 489              		.loc 1 57 44 is_stmt 0 view .LVU125
 490 0050 4048     		ldr	r0, .L36+4
  58:Thaumazein.cpp ****     current_touch_state = touched;
  59:Thaumazein.cpp **** 
  60:Thaumazein.cpp ****     // Update touch pad LEDs with touch and ARP blink
  61:Thaumazein.cpp ****     uint32_t now = hw.system.GetNow();
  62:Thaumazein.cpp ****     bool arp_on = arp.IsActive();
 491              		.loc 1 62 31 view .LVU126
 492 0052 0B24     		movs	r4, #11
  57:Thaumazein.cpp ****     current_touch_state = touched;
 493              		.loc 1 57 44 view .LVU127
 494 0054 FFF7FEFF 		bl	_ZN14thaumazein_hal6Mpr1217TouchedEv
 495              	.LVL22:
  58:Thaumazein.cpp ****     current_touch_state = touched;
 496              		.loc 1 58 25 view .LVU128
 497 0058 404B     		ldr	r3, .L36+12
  57:Thaumazein.cpp ****     current_touch_state = touched;
 498              		.loc 1 57 44 view .LVU129
 499 005a 0546     		mov	r5, r0
 500              	.LVL23:
  58:Thaumazein.cpp ****     current_touch_state = touched;
 501              		.loc 1 58 5 is_stmt 1 view .LVU130
  58:Thaumazein.cpp ****     current_touch_state = touched;
 502              		.loc 1 58 25 is_stmt 0 view .LVU131
 503 005c 1880     		strh	r0, [r3]	@ movhi
  61:Thaumazein.cpp ****     bool arp_on = arp.IsActive();
 504              		.loc 1 61 5 is_stmt 1 view .LVU132
  61:Thaumazein.cpp ****     bool arp_on = arp.IsActive();
 505              		.loc 1 61 36 is_stmt 0 view .LVU133
 506 005e FFF7FEFF 		bl	_ZN5daisy6System6GetNowEv
 507              	.LVL24:
  61:Thaumazein.cpp ****     bool arp_on = arp.IsActive();
 508              		.loc 1 61 36 view .LVU134
 509 0062 0646     		mov	r6, r0
 510              	.LVL25:
 511              		.loc 1 62 5 is_stmt 1 view .LVU135
 512              		.loc 1 62 31 is_stmt 0 view .LVU136
 513 0064 3E48     		ldr	r0, .L36+16
 514              	.LVL26:
 515              		.loc 1 62 31 view .LVU137
 516 0066 FFF7FEFF 		bl	_ZNK11Arpeggiator8IsActiveEv
 517              	.LVL27:
 518 006a 0746     		mov	r7, r0
 519              	.LVL28:
  63:Thaumazein.cpp ****     for(int i = 0; i < 12; ++i) {
 520              		.loc 1 63 5 is_stmt 1 view .LVU138
 521              	.LBB153:
 522              		.loc 1 63 22 view .LVU139
 523              	.L17:
 524              	.LBB154:
ARM GAS  /var/folders/9s/8rp0_f2s1n31qbztm3b5_fdh0000gn/T//ccbVcCyO.s 			page 22


  64:Thaumazein.cpp ****         int ledIdx = 11 - i;  // pad i maps to LED[11-i]
  65:Thaumazein.cpp ****         bool padTouched = (touched & (1 << i)) != 0;
  66:Thaumazein.cpp ****         bool blink     = (now - arp_led_timestamps[ledIdx]) < ARP_LED_DURATION_MS;
 525              		.loc 1 66 58 is_stmt 0 view .LVU140
 526 006c 3D4A     		ldr	r2, .L36+20
 527 006e C4F10B03 		rsb	r3, r4, #11
 528              	.LVL29:
  64:Thaumazein.cpp ****         int ledIdx = 11 - i;  // pad i maps to LED[11-i]
 529              		.loc 1 64 9 is_stmt 1 view .LVU141
  65:Thaumazein.cpp ****         bool blink     = (now - arp_led_timestamps[ledIdx]) < ARP_LED_DURATION_MS;
 530              		.loc 1 65 9 view .LVU142
 531              		.loc 1 66 9 view .LVU143
 532              		.loc 1 66 58 is_stmt 0 view .LVU144
 533 0072 52F82410 		ldr	r1, [r2, r4, lsl #2]
 534              		.loc 1 66 63 view .LVU145
 535 0076 3C4A     		ldr	r2, .L36+24
 536              		.loc 1 66 31 view .LVU146
 537 0078 711A     		subs	r1, r6, r1
 538              		.loc 1 66 63 view .LVU147
 539 007a 1268     		ldr	r2, [r2]
 540 007c 9142     		cmp	r1, r2
 541 007e 2CBF     		ite	cs
 542 0080 0021     		movcs	r1, #0
 543 0082 0121     		movcc	r1, #1
 544              	.LVL30:
  67:Thaumazein.cpp ****         bool ledState  = arp_on ? blink : (padTouched || blink);
 545              		.loc 1 67 9 is_stmt 1 view .LVU148
 546              		.loc 1 67 33 is_stmt 0 view .LVU149
 547 0084 2FB9     		cbnz	r7, .L16
  65:Thaumazein.cpp ****         bool blink     = (now - arp_led_timestamps[ledIdx]) < ARP_LED_DURATION_MS;
 548              		.loc 1 65 48 view .LVU150
 549 0086 45FA03F3 		asr	r3, r5, r3
 550              	.LVL31:
 551              		.loc 1 67 55 view .LVU151
 552 008a 13F0010F 		tst	r3, #1
 553 008e 18BF     		it	ne
 554 0090 4146     		movne	r1, r8
 555              	.LVL32:
 556              	.L16:
  68:Thaumazein.cpp ****         touch_leds[ledIdx].Write(ledState);
 557              		.loc 1 68 9 is_stmt 1 view .LVU152
 558              		.loc 1 68 33 is_stmt 0 view .LVU153
 559 0092 364B     		ldr	r3, .L36+28
 560 0094 1420     		movs	r0, #20
 561 0096 00FB0430 		mla	r0, r0, r4, r3
 562 009a FFF7FEFF 		bl	_ZN5daisy4GPIO5WriteEb
 563              	.LVL33:
 564              		.loc 1 68 33 view .LVU154
 565              	.LBE154:
  63:Thaumazein.cpp ****         int ledIdx = 11 - i;  // pad i maps to LED[11-i]
 566              		.loc 1 63 5 is_stmt 1 view .LVU155
  63:Thaumazein.cpp ****         int ledIdx = 11 - i;  // pad i maps to LED[11-i]
 567              		.loc 1 63 22 view .LVU156
 568 009e 013C     		subs	r4, r4, #1
 569              	.LVL34:
  63:Thaumazein.cpp ****         int ledIdx = 11 - i;  // pad i maps to LED[11-i]
 570              		.loc 1 63 22 is_stmt 0 view .LVU157
ARM GAS  /var/folders/9s/8rp0_f2s1n31qbztm3b5_fdh0000gn/T//ccbVcCyO.s 			page 23


 571 00a0 E4D2     		bcs	.L17
 572              	.LBE153:
  69:Thaumazein.cpp ****     }
  70:Thaumazein.cpp **** 
  71:Thaumazein.cpp ****     if (touched == 0) {
 573              		.loc 1 71 5 is_stmt 1 view .LVU158
 574 00a2 6DB9     		cbnz	r5, .L22
  72:Thaumazein.cpp ****        
  73:Thaumazein.cpp ****         touch_cv_value = touch_cv_value * 0.95f; 
 575              		.loc 1 73 9 view .LVU159
 576              		.loc 1 73 26 is_stmt 0 view .LVU160
 577 00a4 324B     		ldr	r3, .L36+32
 578              		.loc 1 73 41 view .LVU161
 579 00a6 9FED337A 		vldr.32	s14, .L36+36
 580              		.loc 1 73 26 view .LVU162
 581 00aa D3ED007A 		vldr.32	s15, [r3]
 582              		.loc 1 73 41 view .LVU163
 583 00ae 67EE877A 		vmul.f32	s15, s15, s14
 584              	.LVL35:
 585              	.L35:
  74:Thaumazein.cpp ****         return;
  75:Thaumazein.cpp ****     }
  76:Thaumazein.cpp **** 
  77:Thaumazein.cpp ****     float total_deviation = 0.0f;
  78:Thaumazein.cpp ****     int touched_count = 0;
  79:Thaumazein.cpp **** 
  80:Thaumazein.cpp ****     // Iterate through all pads
  81:Thaumazein.cpp ****     for (int i = 0; i < 12; i++) {
  82:Thaumazein.cpp ****         if (touched & (1 << i)) {
  83:Thaumazein.cpp ****             int16_t deviation = touch_sensor.GetBaselineDeviation(i);
  84:Thaumazein.cpp ****             total_deviation += deviation;
  85:Thaumazein.cpp ****             touched_count++;
  86:Thaumazein.cpp ****         }
  87:Thaumazein.cpp ****     }
  88:Thaumazein.cpp **** 
  89:Thaumazein.cpp ****     float average_deviation = 0.0f;
  90:Thaumazein.cpp ****     if (touched_count > 0) {
  91:Thaumazein.cpp ****         average_deviation = total_deviation / touched_count;
  92:Thaumazein.cpp ****     }
  93:Thaumazein.cpp **** 
  94:Thaumazein.cpp ****     // Normalize to 0.0-1.0 range with adjustable sensitivity
  95:Thaumazein.cpp ****     // Consider recalibrating sensitivity if needed for average pressure
  96:Thaumazein.cpp ****     float sensitivity = 150.0f;
  97:Thaumazein.cpp ****     float normalized_value = daisysp::fmax(0.0f, daisysp::fmin(1.0f, average_deviation / sensitivit
  98:Thaumazein.cpp **** 
  99:Thaumazein.cpp ****     // Apply curve for better control response (squared curve feels more natural)
 100:Thaumazein.cpp ****     normalized_value = normalized_value * normalized_value;
 101:Thaumazein.cpp **** 
 102:Thaumazein.cpp ****     // Remove the position component - control is now based purely on average pressure
 103:Thaumazein.cpp ****     // float position_value = highest_pad / 11.0f; // Removed
 104:Thaumazein.cpp ****     // float position_weight = 0.7f;              // Removed
 105:Thaumazein.cpp ****     // float combined_value = position_value * position_weight + normalized_value * (1.0f - positio
 106:Thaumazein.cpp ****     float combined_value = normalized_value; // Use normalized average pressure directly
 107:Thaumazein.cpp **** 
 108:Thaumazein.cpp ****     // Apply adaptive smoothing - more smoothing for small changes, less for big changes
 109:Thaumazein.cpp ****     float change = fabsf(combined_value - touch_cv_value);
 110:Thaumazein.cpp ****     float smoothing = daisysp::fmax(0.5f, 0.95f - change * 2.0f); // 0.5-0.95 smoothing range
ARM GAS  /var/folders/9s/8rp0_f2s1n31qbztm3b5_fdh0000gn/T//ccbVcCyO.s 			page 24


 111:Thaumazein.cpp **** 
 112:Thaumazein.cpp ****     // Update the shared volatile variable
 113:Thaumazein.cpp ****     touch_cv_value = touch_cv_value * smoothing + combined_value * (1.0f - smoothing);
 586              		.loc 1 113 20 view .LVU164
 587 00b2 C3ED007A 		vstr.32	s15, [r3]
 588              	.LVL36:
 589              	.L13:
 590              		.loc 1 113 20 view .LVU165
 591              	.LBE121:
 592              	.LBE120:
 114:Thaumazein.cpp **** }
 593              		.loc 1 114 1 view .LVU166
 594 00b6 06B0     		add	sp, sp, #24
 595              		.cfi_remember_state
 596              		.cfi_def_cfa_offset 32
 597              		@ sp needed
 598 00b8 BDEC028B 		vldm	sp!, {d8}
 599              		.cfi_restore 80
 600              		.cfi_restore 81
 601              		.cfi_def_cfa_offset 24
 602 00bc BDE8F081 		pop	{r4, r5, r6, r7, r8, pc}
 603              	.LVL37:
 604              	.L22:
 605              		.cfi_restore_state
 606              	.LBB169:
 607              	.LBB167:
  77:Thaumazein.cpp ****     int touched_count = 0;
 608              		.loc 1 77 11 view .LVU167
 609 00c0 DFED2D8A 		vldr.32	s17, .L36+40
  78:Thaumazein.cpp **** 
 610              		.loc 1 78 9 view .LVU168
 611 00c4 0024     		movs	r4, #0
 612              	.LVL38:
  78:Thaumazein.cpp **** 
 613              		.loc 1 78 9 view .LVU169
 614 00c6 B0EE688A 		vmov.f32	s16, s17
 615              	.LBB155:
  81:Thaumazein.cpp ****         if (touched & (1 << i)) {
 616              		.loc 1 81 14 view .LVU170
 617 00ca 2646     		mov	r6, r4
 618              	.LVL39:
 619              	.L18:
  81:Thaumazein.cpp ****         if (touched & (1 << i)) {
 620              		.loc 1 81 14 view .LVU171
 621              	.LBE155:
 622              	.LBE167:
 623              	.LBE169:
  82:Thaumazein.cpp ****             int16_t deviation = touch_sensor.GetBaselineDeviation(i);
 624              		.loc 1 82 9 is_stmt 1 view .LVU172
 625              	.LBB170:
 626              	.LBB168:
 627              	.LBB158:
 628              	.LBB156:
  82:Thaumazein.cpp ****             int16_t deviation = touch_sensor.GetBaselineDeviation(i);
 629              		.loc 1 82 21 is_stmt 0 view .LVU173
 630 00cc 45FA06F3 		asr	r3, r5, r6
  82:Thaumazein.cpp ****             int16_t deviation = touch_sensor.GetBaselineDeviation(i);
ARM GAS  /var/folders/9s/8rp0_f2s1n31qbztm3b5_fdh0000gn/T//ccbVcCyO.s 			page 25


 631              		.loc 1 82 9 view .LVU174
 632 00d0 DB07     		lsls	r3, r3, #31
 633 00d2 0AD5     		bpl	.L19
 634              	.LBB157:
  83:Thaumazein.cpp ****             total_deviation += deviation;
 635              		.loc 1 83 13 is_stmt 1 view .LVU175
  83:Thaumazein.cpp ****             total_deviation += deviation;
 636              		.loc 1 83 66 is_stmt 0 view .LVU176
 637 00d4 F1B2     		uxtb	r1, r6
 638 00d6 1F48     		ldr	r0, .L36+4
 639 00d8 FFF7FEFF 		bl	_ZN14thaumazein_hal6Mpr12120GetBaselineDeviationEh
 640              	.LVL40:
  84:Thaumazein.cpp ****             touched_count++;
 641              		.loc 1 84 13 is_stmt 1 view .LVU177
  84:Thaumazein.cpp ****             touched_count++;
 642              		.loc 1 84 29 is_stmt 0 view .LVU178
 643 00dc 07EE900A 		vmov	s15, r0	@ int
  85:Thaumazein.cpp ****         }
 644              		.loc 1 85 26 view .LVU179
 645 00e0 0134     		adds	r4, r4, #1
 646              	.LVL41:
  84:Thaumazein.cpp ****             touched_count++;
 647              		.loc 1 84 29 view .LVU180
 648 00e2 F8EEE77A 		vcvt.f32.s32	s15, s15
 649 00e6 78EEA78A 		vadd.f32	s17, s17, s15
 650              	.LVL42:
  85:Thaumazein.cpp ****         }
 651              		.loc 1 85 13 is_stmt 1 view .LVU181
 652              	.L19:
  85:Thaumazein.cpp ****         }
 653              		.loc 1 85 13 is_stmt 0 view .LVU182
 654              	.LBE157:
 655              	.LBE156:
  81:Thaumazein.cpp ****         if (touched & (1 << i)) {
 656              		.loc 1 81 5 is_stmt 1 view .LVU183
 657 00ea 0136     		adds	r6, r6, #1
 658              	.LVL43:
  81:Thaumazein.cpp ****         if (touched & (1 << i)) {
 659              		.loc 1 81 23 view .LVU184
 660 00ec 0C2E     		cmp	r6, #12
 661 00ee EDD1     		bne	.L18
  81:Thaumazein.cpp ****         if (touched & (1 << i)) {
 662              		.loc 1 81 23 is_stmt 0 view .LVU185
 663              	.LBE158:
  89:Thaumazein.cpp ****     if (touched_count > 0) {
 664              		.loc 1 89 5 is_stmt 1 view .LVU186
 665              	.LVL44:
  90:Thaumazein.cpp ****         average_deviation = total_deviation / touched_count;
 666              		.loc 1 90 5 view .LVU187
 667 00f0 5CB3     		cbz	r4, .L23
  91:Thaumazein.cpp ****     }
 668              		.loc 1 91 9 view .LVU188
  91:Thaumazein.cpp ****     }
 669              		.loc 1 91 45 is_stmt 0 view .LVU189
 670 00f2 07EE904A 		vmov	s15, r4	@ int
 671 00f6 F8EEE77A 		vcvt.f32.s32	s15, s15
  91:Thaumazein.cpp ****     }
ARM GAS  /var/folders/9s/8rp0_f2s1n31qbztm3b5_fdh0000gn/T//ccbVcCyO.s 			page 26


 672              		.loc 1 91 27 view .LVU190
 673 00fa C8EEA76A 		vdiv.f32	s13, s17, s15
 674              	.LVL45:
 675              	.L20:
  96:Thaumazein.cpp ****     float normalized_value = daisysp::fmax(0.0f, daisysp::fmin(1.0f, average_deviation / sensitivit
 676              		.loc 1 96 5 is_stmt 1 view .LVU191
  97:Thaumazein.cpp **** 
 677              		.loc 1 97 5 view .LVU192
 678              	.LBB159:
 679              	.LBI159:
 680              		.file 7 "lib/DaisySP/Source/Utility/dsp.h"
   1:lib/DaisySP/Source/Utility/dsp.h **** /*
   2:lib/DaisySP/Source/Utility/dsp.h **** Copyright (c) 2020 Electrosmith, Corp, Emilie Gillet
   3:lib/DaisySP/Source/Utility/dsp.h **** 
   4:lib/DaisySP/Source/Utility/dsp.h **** Use of this source code is governed by an MIT-style
   5:lib/DaisySP/Source/Utility/dsp.h **** license that can be found in the LICENSE file or at
   6:lib/DaisySP/Source/Utility/dsp.h **** https://opensource.org/licenses/MIT.
   7:lib/DaisySP/Source/Utility/dsp.h **** */
   8:lib/DaisySP/Source/Utility/dsp.h **** 
   9:lib/DaisySP/Source/Utility/dsp.h **** /** Helpful defines, functions, and other utilities for use in/with daisysp modules.
  10:lib/DaisySP/Source/Utility/dsp.h **** */
  11:lib/DaisySP/Source/Utility/dsp.h **** #pragma once
  12:lib/DaisySP/Source/Utility/dsp.h **** #ifndef DSY_CORE_DSP
  13:lib/DaisySP/Source/Utility/dsp.h **** #define DSY_CORE_DSP
  14:lib/DaisySP/Source/Utility/dsp.h **** #include <cassert>
  15:lib/DaisySP/Source/Utility/dsp.h **** #include <cstdint>
  16:lib/DaisySP/Source/Utility/dsp.h **** #include <random>
  17:lib/DaisySP/Source/Utility/dsp.h **** #include <cmath>
  18:lib/DaisySP/Source/Utility/dsp.h **** 
  19:lib/DaisySP/Source/Utility/dsp.h **** /** PIs
  20:lib/DaisySP/Source/Utility/dsp.h **** */
  21:lib/DaisySP/Source/Utility/dsp.h **** #define PI_F 3.1415927410125732421875f
  22:lib/DaisySP/Source/Utility/dsp.h **** #define TWOPI_F (2.0f * PI_F)
  23:lib/DaisySP/Source/Utility/dsp.h **** #define HALFPI_F (PI_F * 0.5f)
  24:lib/DaisySP/Source/Utility/dsp.h **** #define DSY_MIN(in, mn) (in < mn ? in : mn)
  25:lib/DaisySP/Source/Utility/dsp.h **** #define DSY_MAX(in, mx) (in > mx ? in : mx)
  26:lib/DaisySP/Source/Utility/dsp.h **** #define DSY_CLAMP(in, mn, mx) (DSY_MIN(DSY_MAX(in, mn), mx))
  27:lib/DaisySP/Source/Utility/dsp.h **** #define DSY_COUNTOF(_arr) (sizeof(_arr) / sizeof(_arr[0]))
  28:lib/DaisySP/Source/Utility/dsp.h **** 
  29:lib/DaisySP/Source/Utility/dsp.h **** namespace daisysp
  30:lib/DaisySP/Source/Utility/dsp.h **** {
  31:lib/DaisySP/Source/Utility/dsp.h **** //Avoids division for random floats. e.g. rand() * kRandFrac
  32:lib/DaisySP/Source/Utility/dsp.h **** static constexpr float kRandFrac = 1.f / (float)RAND_MAX;
  33:lib/DaisySP/Source/Utility/dsp.h **** 
  34:lib/DaisySP/Source/Utility/dsp.h **** //Convert from semitones to other units. e.g. 2 ^ (kOneTwelfth * x)
  35:lib/DaisySP/Source/Utility/dsp.h **** static constexpr float kOneTwelfth = 1.f / 12.f;
  36:lib/DaisySP/Source/Utility/dsp.h **** 
  37:lib/DaisySP/Source/Utility/dsp.h **** /** efficient floating point min/max
  38:lib/DaisySP/Source/Utility/dsp.h **** c/o stephen mccaul
  39:lib/DaisySP/Source/Utility/dsp.h **** */
  40:lib/DaisySP/Source/Utility/dsp.h **** inline float fmax(float a, float b)
  41:lib/DaisySP/Source/Utility/dsp.h **** {
  42:lib/DaisySP/Source/Utility/dsp.h ****     float r;
  43:lib/DaisySP/Source/Utility/dsp.h **** #ifdef __arm__
  44:lib/DaisySP/Source/Utility/dsp.h ****     asm("vmaxnm.f32 %[d], %[n], %[m]" : [d] "=t"(r) : [n] "t"(a), [m] "t"(b) :);
  45:lib/DaisySP/Source/Utility/dsp.h **** #else
  46:lib/DaisySP/Source/Utility/dsp.h ****     r = (a > b) ? a : b;
ARM GAS  /var/folders/9s/8rp0_f2s1n31qbztm3b5_fdh0000gn/T//ccbVcCyO.s 			page 27


  47:lib/DaisySP/Source/Utility/dsp.h **** #endif // __arm__
  48:lib/DaisySP/Source/Utility/dsp.h ****     return r;
  49:lib/DaisySP/Source/Utility/dsp.h **** }
  50:lib/DaisySP/Source/Utility/dsp.h **** 
  51:lib/DaisySP/Source/Utility/dsp.h **** inline float fmin(float a, float b)
 681              		.loc 7 51 14 view .LVU193
 682              	.LBB160:
  52:lib/DaisySP/Source/Utility/dsp.h **** {
  53:lib/DaisySP/Source/Utility/dsp.h ****     float r;
 683              		.loc 7 53 5 view .LVU194
  54:lib/DaisySP/Source/Utility/dsp.h **** #ifdef __arm__
  55:lib/DaisySP/Source/Utility/dsp.h ****     asm("vminnm.f32 %[d], %[n], %[m]" : [d] "=t"(r) : [n] "t"(a), [m] "t"(b) :);
 684              		.loc 7 55 5 view .LVU195
 685              	.LBE160:
 686              	.LBE159:
  97:Thaumazein.cpp **** 
 687              		.loc 1 97 43 is_stmt 0 view .LVU196
 688 00fe 9FED1F6A 		vldr.32	s12, .L36+44
 109:Thaumazein.cpp ****     float smoothing = daisysp::fmax(0.5f, 0.95f - change * 2.0f); // 0.5-0.95 smoothing range
 689              		.loc 1 109 43 view .LVU197
 690 0102 1B4B     		ldr	r3, .L36+32
  97:Thaumazein.cpp **** 
 691              		.loc 1 97 43 view .LVU198
 692 0104 86EE867A 		vdiv.f32	s14, s13, s12
 693              	.LVL46:
 109:Thaumazein.cpp ****     float smoothing = daisysp::fmax(0.5f, 0.95f - change * 2.0f); // 0.5-0.95 smoothing range
 694              		.loc 1 109 43 view .LVU199
 695 0108 D3ED006A 		vldr.32	s13, [r3]
 696              	.LVL47:
 110:Thaumazein.cpp **** 
 697              		.loc 1 110 36 view .LVU200
 698 010c 9FED196A 		vldr.32	s12, .L36+36
 699              	.LBB162:
 700              	.LBB161:
 701              		.loc 7 55 5 view .LVU201
 702 0110 F7EE007A 		vmov.f32	s15, #1.0e+0
 703              		.syntax unified
 704              	@ 55 "lib/DaisySP/Source/Utility/dsp.h" 1
 705 0114 87FEC77A 		vminnm.f32 s14, s15, s14
 706              	@ 0 "" 2
 707              	.LVL48:
  56:lib/DaisySP/Source/Utility/dsp.h **** #else
  57:lib/DaisySP/Source/Utility/dsp.h ****     r = (a < b) ? a : b;
  58:lib/DaisySP/Source/Utility/dsp.h **** #endif // __arm__
  59:lib/DaisySP/Source/Utility/dsp.h ****     return r;
 708              		.loc 7 59 5 is_stmt 1 view .LVU202
 709              		.loc 7 59 5 is_stmt 0 view .LVU203
 710              		.thumb
 711              		.syntax unified
 712              	.LBE161:
 713              	.LBE162:
 714              	.LBB163:
 715              	.LBI163:
  40:lib/DaisySP/Source/Utility/dsp.h **** {
 716              		.loc 7 40 14 is_stmt 1 view .LVU204
 717              	.LBB164:
  42:lib/DaisySP/Source/Utility/dsp.h **** #ifdef __arm__
ARM GAS  /var/folders/9s/8rp0_f2s1n31qbztm3b5_fdh0000gn/T//ccbVcCyO.s 			page 28


 718              		.loc 7 42 5 view .LVU205
  44:lib/DaisySP/Source/Utility/dsp.h **** #else
 719              		.loc 7 44 5 view .LVU206
 720              		.syntax unified
 721              	@ 44 "lib/DaisySP/Source/Utility/dsp.h" 1
 722 0118 88FE077A 		vmaxnm.f32 s14, s16, s14
 723              	@ 0 "" 2
 724              	.LVL49:
  48:lib/DaisySP/Source/Utility/dsp.h **** }
 725              		.loc 7 48 5 view .LVU207
  48:lib/DaisySP/Source/Utility/dsp.h **** }
 726              		.loc 7 48 5 is_stmt 0 view .LVU208
 727              		.thumb
 728              		.syntax unified
 729              	.LBE164:
 730              	.LBE163:
 100:Thaumazein.cpp **** 
 731              		.loc 1 100 5 is_stmt 1 view .LVU209
 100:Thaumazein.cpp **** 
 732              		.loc 1 100 22 is_stmt 0 view .LVU210
 733 011c 27EE077A 		vmul.f32	s14, s14, s14
 734              	.LVL50:
 106:Thaumazein.cpp **** 
 735              		.loc 1 106 5 is_stmt 1 view .LVU211
 109:Thaumazein.cpp ****     float smoothing = daisysp::fmax(0.5f, 0.95f - change * 2.0f); // 0.5-0.95 smoothing range
 736              		.loc 1 109 5 view .LVU212
 110:Thaumazein.cpp **** 
 737              		.loc 1 110 5 view .LVU213
 110:Thaumazein.cpp **** 
 738              		.loc 1 110 36 is_stmt 0 view .LVU214
 739 0120 F0EE005A 		vmov.f32	s11, #2.0e+0
 109:Thaumazein.cpp ****     float smoothing = daisysp::fmax(0.5f, 0.95f - change * 2.0f); // 0.5-0.95 smoothing range
 740              		.loc 1 109 41 view .LVU215
 741 0124 77EE666A 		vsub.f32	s13, s14, s13
 742              	.LVL51:
 109:Thaumazein.cpp ****     float smoothing = daisysp::fmax(0.5f, 0.95f - change * 2.0f); // 0.5-0.95 smoothing range
 743              		.loc 1 109 57 view .LVU216
 744 0128 F0EEE66A 		vabs.f32	s13, s13
 745              	.LVL52:
 110:Thaumazein.cpp **** 
 746              		.loc 1 110 36 view .LVU217
 747 012c A6EEE56A 		vfms.f32	s12, s13, s11
 748              	.LVL53:
 749              	.LBB165:
 750              	.LBI165:
  40:lib/DaisySP/Source/Utility/dsp.h **** {
 751              		.loc 7 40 14 is_stmt 1 view .LVU218
 752              	.LBB166:
  42:lib/DaisySP/Source/Utility/dsp.h **** #ifdef __arm__
 753              		.loc 7 42 5 view .LVU219
  44:lib/DaisySP/Source/Utility/dsp.h **** #else
 754              		.loc 7 44 5 view .LVU220
 755 0130 F6EE006A 		vmov.f32	s13, #5.0e-1
 756              	.LVL54:
  44:lib/DaisySP/Source/Utility/dsp.h **** #else
 757              		.loc 7 44 5 is_stmt 0 view .LVU221
 758              		.syntax unified
ARM GAS  /var/folders/9s/8rp0_f2s1n31qbztm3b5_fdh0000gn/T//ccbVcCyO.s 			page 29


 759              	@ 44 "lib/DaisySP/Source/Utility/dsp.h" 1
 760 0134 C6FE866A 		vmaxnm.f32 s13, s13, s12
 761              	@ 0 "" 2
 762              	.LVL55:
  48:lib/DaisySP/Source/Utility/dsp.h **** }
 763              		.loc 7 48 5 is_stmt 1 view .LVU222
  48:lib/DaisySP/Source/Utility/dsp.h **** }
 764              		.loc 7 48 5 is_stmt 0 view .LVU223
 765              		.thumb
 766              		.syntax unified
 767              	.LBE166:
 768              	.LBE165:
 113:Thaumazein.cpp **** }
 769              		.loc 1 113 5 is_stmt 1 view .LVU224
 113:Thaumazein.cpp **** }
 770              		.loc 1 113 74 is_stmt 0 view .LVU225
 771 0138 77EEE67A 		vsub.f32	s15, s15, s13
 113:Thaumazein.cpp **** }
 772              		.loc 1 113 22 view .LVU226
 773 013c 93ED006A 		vldr.32	s12, [r3]
 113:Thaumazein.cpp **** }
 774              		.loc 1 113 66 view .LVU227
 775 0140 67EE877A 		vmul.f32	s15, s15, s14
 113:Thaumazein.cpp **** }
 776              		.loc 1 113 49 view .LVU228
 777 0144 E6EE867A 		vfma.f32	s15, s13, s12
 778 0148 B3E7     		b	.L35
 779              	.LVL56:
 780              	.L23:
  89:Thaumazein.cpp ****     if (touched_count > 0) {
 781              		.loc 1 89 11 view .LVU229
 782 014a DFED0B6A 		vldr.32	s13, .L36+40
 783 014e D6E7     		b	.L20
 784              	.L37:
 785              		.align	2
 786              	.L36:
 787 0150 00000000 		.word	touch_sensor_present
 788 0154 00000000 		.word	touch_sensor
 789 0158 01080109 		.word	151062529
 790 015c 00000000 		.word	.LANCHOR0
 791 0160 00000000 		.word	arp
 792 0164 00000000 		.word	arp_led_timestamps
 793 0168 00000000 		.word	ARP_LED_DURATION_MS
 794 016c 00000000 		.word	touch_leds
 795 0170 00000000 		.word	.LANCHOR1
 796 0174 3333733F 		.word	1064514355
 797 0178 00000000 		.word	0
 798 017c 00001643 		.word	1125515264
 799              	.LBE168:
 800              	.LBE170:
 801              		.cfi_endproc
 802              	.LFE6116:
 804              		.section	.text.startup.main,"ax",%progbits
 805              		.align	1
 806              		.global	main
 807              		.syntax unified
 808              		.thumb
ARM GAS  /var/folders/9s/8rp0_f2s1n31qbztm3b5_fdh0000gn/T//ccbVcCyO.s 			page 30


 809              		.thumb_func
 811              	main:
 812              	.LFB6120:
 115:Thaumazein.cpp **** 
 116:Thaumazein.cpp **** int main(void) {
 813              		.loc 1 116 16 is_stmt 1 view -0
 814              		.cfi_startproc
 815              		@ args = 0, pretend = 0, frame = 0
 816              		@ frame_needed = 0, uses_anonymous_args = 0
 117:Thaumazein.cpp ****     InitializeSynth();
 817              		.loc 1 117 5 view .LVU231
 116:Thaumazein.cpp ****     InitializeSynth();
 818              		.loc 1 116 16 is_stmt 0 view .LVU232
 819 0000 10B5     		push	{r4, lr}
 820              		.cfi_def_cfa_offset 8
 821              		.cfi_offset 4, -8
 822              		.cfi_offset 14, -4
 823              		.loc 1 117 20 view .LVU233
 824 0002 FFF7FEFF 		bl	_Z15InitializeSynthv
 825              	.LVL57:
 118:Thaumazein.cpp ****     
 119:Thaumazein.cpp ****     uint32_t lastPoll = hw.system.GetNow();  // Track last poll time
 826              		.loc 1 119 5 is_stmt 1 view .LVU234
 827              		.loc 1 119 41 is_stmt 0 view .LVU235
 828 0006 FFF7FEFF 		bl	_ZN5daisy6System6GetNowEv
 829              	.LVL58:
 830 000a 0446     		mov	r4, r0
 831              	.LVL59:
 832              	.L40:
 120:Thaumazein.cpp ****     
 121:Thaumazein.cpp ****     // Main Loop 
 122:Thaumazein.cpp ****     while (1) {
 833              		.loc 1 122 5 is_stmt 1 view .LVU236
 123:Thaumazein.cpp ****         UpdateLED();
 834              		.loc 1 123 9 view .LVU237
 835              		.loc 1 123 18 is_stmt 0 view .LVU238
 836 000c FFF7FEFF 		bl	_Z9UpdateLEDv
 837              	.LVL60:
 124:Thaumazein.cpp ****         
 125:Thaumazein.cpp ****         // Check bootloader condition via ADC touch pads
 126:Thaumazein.cpp ****         Bootload();
 838              		.loc 1 126 9 is_stmt 1 view .LVU239
 839              		.loc 1 126 17 is_stmt 0 view .LVU240
 840 0010 FFF7FEFF 		bl	_Z8Bootloadv
 841              	.LVL61:
 127:Thaumazein.cpp ****         
 128:Thaumazein.cpp ****         UpdateDisplay();
 842              		.loc 1 128 9 is_stmt 1 view .LVU241
 843              		.loc 1 128 22 is_stmt 0 view .LVU242
 844 0014 FFF7FEFF 		bl	_Z13UpdateDisplayv
 845              	.LVL62:
 129:Thaumazein.cpp ****         
 130:Thaumazein.cpp ****         // Poll touch sensor every 5 ms (200 Hz)
 131:Thaumazein.cpp ****         if (hw.system.GetNow() - lastPoll >= 5) {
 846              		.loc 1 131 9 is_stmt 1 view .LVU243
 847              		.loc 1 131 29 is_stmt 0 view .LVU244
 848 0018 FFF7FEFF 		bl	_ZN5daisy6System6GetNowEv
ARM GAS  /var/folders/9s/8rp0_f2s1n31qbztm3b5_fdh0000gn/T//ccbVcCyO.s 			page 31


 849              	.LVL63:
 850              		.loc 1 131 32 view .LVU245
 851 001c 001B     		subs	r0, r0, r4
 852              		.loc 1 131 9 view .LVU246
 853 001e 0428     		cmp	r0, #4
 854 0020 04D9     		bls	.L39
 132:Thaumazein.cpp ****             lastPoll = hw.system.GetNow();
 855              		.loc 1 132 13 is_stmt 1 view .LVU247
 856              		.loc 1 132 40 is_stmt 0 view .LVU248
 857 0022 FFF7FEFF 		bl	_ZN5daisy6System6GetNowEv
 858              	.LVL64:
 859 0026 0446     		mov	r4, r0
 860              	.LVL65:
 133:Thaumazein.cpp ****             PollTouchSensor();
 861              		.loc 1 133 13 is_stmt 1 view .LVU249
 862              		.loc 1 133 28 is_stmt 0 view .LVU250
 863 0028 FFF7FEFF 		bl	_Z15PollTouchSensorv
 864              	.LVL66:
 865              	.L39:
 134:Thaumazein.cpp ****         }
 135:Thaumazein.cpp ****         
 136:Thaumazein.cpp ****         // Yield for system tasks, adjusted for polling interval
 137:Thaumazein.cpp ****         System::Delay(1); // Shorter delay to allow more frequent polling checks
 866              		.loc 1 137 9 is_stmt 1 view .LVU251
 867              		.loc 1 137 22 is_stmt 0 view .LVU252
 868 002c 0120     		movs	r0, #1
 869 002e FFF7FEFF 		bl	_ZN5daisy6System5DelayEm
 870              	.LVL67:
 122:Thaumazein.cpp ****         UpdateLED();
 871              		.loc 1 122 5 is_stmt 1 view .LVU253
 123:Thaumazein.cpp ****         
 872              		.loc 1 123 18 is_stmt 0 view .LVU254
 873 0032 EBE7     		b	.L40
 874              		.cfi_endproc
 875              	.LFE6120:
 877              		.global	touch_cv_value
 878              		.global	current_touch_state
 879              		.section	.bss.current_touch_state,"aw",%nobits
 880              		.align	1
 881              		.set	.LANCHOR0,. + 0
 884              	current_touch_state:
 885 0000 0000     		.space	2
 886              		.section	.bss.touch_cv_value,"aw",%nobits
 887              		.align	2
 888              		.set	.LANCHOR1,. + 0
 891              	touch_cv_value:
 892 0000 00000000 		.space	4
 893              		.text
 894              	.Letext0:
 895              		.file 8 "/Library/DaisyToolchain/0.2.0/arm/arm-none-eabi/include/machine/_default_types.h"
 896              		.file 9 "/Library/DaisyToolchain/0.2.0/arm/arm-none-eabi/include/sys/_stdint.h"
 897              		.file 10 "/Library/DaisyToolchain/0.2.0/arm/arm-none-eabi/include/stdint.h"
 898              		.file 11 "/Library/DaisyToolchain/0.2.0/arm/lib/gcc/arm-none-eabi/10.3.1/include/stddef.h"
 899              		.file 12 "/Library/DaisyToolchain/0.2.0/arm/arm-none-eabi/include/c++/10.3.1/cmath"
 900              		.file 13 "/Library/DaisyToolchain/0.2.0/arm/arm-none-eabi/include/c++/10.3.1/bits/std_abs.h"
 901              		.file 14 "/Library/DaisyToolchain/0.2.0/arm/arm-none-eabi/include/c++/10.3.1/cstdlib"
 902              		.file 15 "/Library/DaisyToolchain/0.2.0/arm/arm-none-eabi/include/c++/10.3.1/cstdint"
ARM GAS  /var/folders/9s/8rp0_f2s1n31qbztm3b5_fdh0000gn/T//ccbVcCyO.s 			page 32


 903              		.file 16 "/Library/DaisyToolchain/0.2.0/arm/arm-none-eabi/include/c++/10.3.1/type_traits"
 904              		.file 17 "/Library/DaisyToolchain/0.2.0/arm/arm-none-eabi/include/c++/10.3.1/arm-none-eabi/thumb/v
 905              		.file 18 "/Library/DaisyToolchain/0.2.0/arm/arm-none-eabi/include/c++/10.3.1/bits/stl_pair.h"
 906              		.file 19 "/Library/DaisyToolchain/0.2.0/arm/arm-none-eabi/include/c++/10.3.1/debug/debug.h"
 907              		.file 20 "/Library/DaisyToolchain/0.2.0/arm/arm-none-eabi/include/c++/10.3.1/bits/algorithmfwd.h"
 908              		.file 21 "/Library/DaisyToolchain/0.2.0/arm/arm-none-eabi/include/c++/10.3.1/bits/exception_ptr.h"
 909              		.file 22 "/Library/DaisyToolchain/0.2.0/arm/arm-none-eabi/include/c++/10.3.1/cstdarg"
 910              		.file 23 "/Library/DaisyToolchain/0.2.0/arm/arm-none-eabi/include/c++/10.3.1/cstdio"
 911              		.file 24 "/Library/DaisyToolchain/0.2.0/arm/arm-none-eabi/include/c++/10.3.1/cstring"
 912              		.file 25 "/Library/DaisyToolchain/0.2.0/arm/arm-none-eabi/include/c++/10.3.1/cwchar"
 913              		.file 26 "/Library/DaisyToolchain/0.2.0/arm/arm-none-eabi/include/c++/10.3.1/clocale"
 914              		.file 27 "/Library/DaisyToolchain/0.2.0/arm/arm-none-eabi/include/c++/10.3.1/bits/basic_string.h"
 915              		.file 28 "/Library/DaisyToolchain/0.2.0/arm/arm-none-eabi/include/c++/10.3.1/bits/stl_iterator.h"
 916              		.file 29 "/Library/DaisyToolchain/0.2.0/arm/arm-none-eabi/include/c++/10.3.1/bits/uses_allocator.h
 917              		.file 30 "/Library/DaisyToolchain/0.2.0/arm/arm-none-eabi/include/c++/10.3.1/tuple"
 918              		.file 31 "/Library/DaisyToolchain/0.2.0/arm/arm-none-eabi/include/c++/10.3.1/bits/std_function.h"
 919              		.file 32 "/Library/DaisyToolchain/0.2.0/arm/arm-none-eabi/include/c++/10.3.1/functional"
 920              		.file 33 "/Library/DaisyToolchain/0.2.0/arm/arm-none-eabi/include/c++/10.3.1/bits/allocator.h"
 921              		.file 34 "/Library/DaisyToolchain/0.2.0/arm/arm-none-eabi/include/c++/10.3.1/bits/alloc_traits.h"
 922              		.file 35 "/Library/DaisyToolchain/0.2.0/arm/arm-none-eabi/include/c++/10.3.1/bits/stl_vector.h"
 923              		.file 36 "/Library/DaisyToolchain/0.2.0/arm/arm-none-eabi/include/c++/10.3.1/bits/vector.tcc"
 924              		.file 37 "/Library/DaisyToolchain/0.2.0/arm/arm-none-eabi/include/c++/10.3.1/bits/stl_function.h"
 925              		.file 38 "/Library/DaisyToolchain/0.2.0/arm/arm-none-eabi/include/c++/10.3.1/bits/refwrap.h"
 926              		.file 39 "/Library/DaisyToolchain/0.2.0/arm/arm-none-eabi/include/c++/10.3.1/bits/predefined_ops.h
 927              		.file 40 "/Library/DaisyToolchain/0.2.0/arm/arm-none-eabi/include/c++/10.3.1/ext/new_allocator.h"
 928              		.file 41 "/Library/DaisyToolchain/0.2.0/arm/arm-none-eabi/include/c++/10.3.1/ext/alloc_traits.h"
 929              		.file 42 "/Library/DaisyToolchain/0.2.0/arm/arm-none-eabi/include/sys/_types.h"
 930              		.file 43 "/Library/DaisyToolchain/0.2.0/arm/arm-none-eabi/include/sys/reent.h"
 931              		.file 44 "/Library/DaisyToolchain/0.2.0/arm/arm-none-eabi/include/sys/lock.h"
 932              		.file 45 "/Library/DaisyToolchain/0.2.0/arm/arm-none-eabi/include/math.h"
 933              		.file 46 "/Library/DaisyToolchain/0.2.0/arm/arm-none-eabi/include/stdlib.h"
 934              		.file 47 "/Library/DaisyToolchain/0.2.0/arm/arm-none-eabi/include/c++/10.3.1/math.h"
 935              		.file 48 "/Library/DaisyToolchain/0.2.0/arm/arm-none-eabi/include/c++/10.3.1/stdlib.h"
 936              		.file 49 "lib/libdaisy/src/per/tim.h"
 937              		.file 50 "lib/libdaisy/src/sys/system.h"
 938              		.file 51 "lib/libdaisy/src/per/qspi.h"
 939              		.file 52 "lib/libdaisy/src/per/dac.h"
 940              		.file 53 "lib/libdaisy/src/per/gpio.h"
 941              		.file 54 "lib/libdaisy/src/per/sai.h"
 942              		.file 55 "lib/libdaisy/src/hid/audio.h"
 943              		.file 56 "lib/libdaisy/src/per/adc.h"
 944              		.file 57 "lib/libdaisy/src/hid/usb.h"
 945              		.file 58 "lib/libdaisy/src/hid/logger_impl.h"
 946              		.file 59 "lib/libdaisy/src/util/wav_format.h"
 947              		.file 60 "lib/libdaisy/src/dev/sr_595.h"
 948              		.file 61 "lib/libdaisy/src/dev/codec_ak4556.h"
 949              		.file 62 "lib/libdaisy/src/dev/max11300.h"
 950              		.file 63 "lib/libdaisy/src/hid/logger.h"
 951              		.file 64 "lib/libdaisy/src/dev/sdram.h"
 952              		.file 65 "/Library/DaisyToolchain/0.2.0/arm/lib/gcc/arm-none-eabi/10.3.1/include/stdarg.h"
 953              		.file 66 "/Library/DaisyToolchain/0.2.0/arm/arm-none-eabi/include/stdio.h"
 954              		.file 67 "/Library/DaisyToolchain/0.2.0/arm/arm-none-eabi/include/string.h"
 955              		.file 68 "lib/DaisySP/Source/Control/adenv.h"
 956              		.file 69 "lib/DaisySP/Source/Utility/metro.h"
 957              		.file 70 "/Library/DaisyToolchain/0.2.0/arm/arm-none-eabi/include/wchar.h"
 958              		.file 71 "/Library/DaisyToolchain/0.2.0/arm/arm-none-eabi/include/locale.h"
 959              		.file 72 "eurorack/stmlib/stmlib.h"
ARM GAS  /var/folders/9s/8rp0_f2s1n31qbztm3b5_fdh0000gn/T//ccbVcCyO.s 			page 33


 960              		.file 73 "eurorack/plaits/dsp/dsp.h"
 961              		.file 74 "eurorack/plaits/dsp/engine/additive_engine.h"
 962              		.file 75 "eurorack/plaits/dsp/oscillator/oscillator.h"
 963              		.file 76 "eurorack/plaits/dsp/engine/chord_engine.h"
 964              		.file 77 "eurorack/plaits/dsp/physical_modelling/resonator.h"
 965              		.file 78 "eurorack/plaits/dsp/engine/particle_engine.h"
 966              		.file 79 "eurorack/plaits/dsp/speech/lpc_speech_synth.h"
 967              		.file 80 "eurorack/plaits/dsp/speech/lpc_speech_synth_controller.h"
 968              		.file 81 "eurorack/plaits/dsp/speech/naive_speech_synth.h"
 969              		.file 82 "eurorack/plaits/dsp/speech/sam_speech_synth.h"
 970              		.file 83 "eurorack/plaits/dsp/physical_modelling/string.h"
 971              		.file 84 "eurorack/plaits/dsp/engine/string_engine.h"
 972              		.file 85 "eurorack/plaits/dsp/engine/swarm_engine.h"
 973              		.file 86 "eurorack/plaits/dsp/oscillator/variable_saw_oscillator.h"
 974              		.file 87 "eurorack/plaits/dsp/voice.h"
 975              		.file 88 "Effects/BiquadFilters.h"
 976              		.file 89 "Arpeggiator.h"
 977              		.file 90 "eurorack/clouds/dsp/correlator.h"
 978              		.file 91 "eurorack/clouds/dsp/frame.h"
 979              		.file 92 "eurorack/clouds/dsp/granular_sample_player.h"
 980              		.file 93 "eurorack/clouds/dsp/looping_sample_player.h"
 981              		.file 94 "eurorack/clouds/dsp/pvoc/stft.h"
 982              		.file 95 "eurorack/clouds/dsp/pvoc/frame_transformation.h"
 983              		.file 96 "eurorack/clouds/dsp/wsola_sample_player.h"
 984              		.file 97 "eurorack/clouds/dsp/granular_processor.h"
 985              		.file 98 "eurorack/clouds/dsp/audio_buffer.h"
 986              		.file 99 "Thaumazein.h"
 987              		.file 100 "<built-in>"
ARM GAS  /var/folders/9s/8rp0_f2s1n31qbztm3b5_fdh0000gn/T//ccbVcCyO.s 			page 34

