ARM GAS  /var/folders/9s/8rp0_f2s1n31qbztm3b5_fdh0000gn/T//ccITpZLc.s 			page 1


   1              		.cpu cortex-m7
   2              		.arch armv7e-m
   3              		.fpu fpv5-d16
   4              		.eabi_attribute 28, 1
   5              		.eabi_attribute 20, 1
   6              		.eabi_attribute 21, 1
   7              		.eabi_attribute 23, 3
   8              		.eabi_attribute 24, 1
   9              		.eabi_attribute 25, 1
  10              		.eabi_attribute 26, 1
  11              		.eabi_attribute 30, 4
  12              		.eabi_attribute 34, 1
  13              		.eabi_attribute 18, 4
  14              		.file	"Thaumazein.cpp"
  15              		.text
  16              	.Ltext0:
  17              		.cfi_sections	.debug_frame
  18              		.section	.rodata._Z13UpdateDisplayv.part.0.str1.1,"aMS",%progbits,1
  19              	.LC2:
  20 0000 506F6C79 		.ascii	"Poly-4\000"
  20      2D3400
  21              	.LC3:
  22 0007 4D6F6E6F 		.ascii	"Mono\000"
  22      00
  23              	.LC4:
  24 000c 4350553A 		.ascii	"CPU: %d\012\000"
  24      2025640A 
  24      00
  25              	.LC5:
  26 0015 456E6769 		.ascii	"Engine: %d (%s)\012\000"
  26      6E653A20 
  26      25642028 
  26      2573290A 
  26      00
  27              	.LC6:
  28 0026 41444320 		.ascii	"ADC Values (8-11):\012\000"
  28      56616C75 
  28      65732028 
  28      382D3131 
  28      293A0A00 
  29              	.LC7:
  30 003a 5B25645D 		.ascii	"[%d]: %d\012\000"
  30      3A202564 
  30      0A00
  31              	.LC8:
  32 0044 2D2D2D2D 		.ascii	"--------\000"
  32      2D2D2D2D 
  32      00
  33              	.LC9:
  34 004d 257300   		.ascii	"%s\000"
  35              		.section	.text._Z13UpdateDisplayv.part.0,"ax",%progbits
  36              		.align	1
  37              		.syntax unified
  38              		.thumb
  39              		.thumb_func
  41              	_Z13UpdateDisplayv.part.0:
  42              	.LFB6068:
ARM GAS  /var/folders/9s/8rp0_f2s1n31qbztm3b5_fdh0000gn/T//ccITpZLc.s 			page 2


  43              		.file 1 "Thaumazein.cpp"
   1:Thaumazein.cpp **** #include "Thaumazein.h"
   2:Thaumazein.cpp **** 
   3:Thaumazein.cpp **** // Define shared volatile variables
   4:Thaumazein.cpp **** volatile uint16_t current_touch_state = 0;
   5:Thaumazein.cpp **** volatile float touch_cv_value = 0.0f;
   6:Thaumazein.cpp **** 
   7:Thaumazein.cpp **** void UpdateDisplay() {
  44              		.loc 1 7 6 view -0
  45              		.cfi_startproc
  46              		@ args = 0, pretend = 0, frame = 512
  47              		@ frame_needed = 0, uses_anonymous_args = 0
  48              	.LBB53:
   8:Thaumazein.cpp ****     if (update_display) {
   9:Thaumazein.cpp ****         // Build stats message in a smaller buffer
  10:Thaumazein.cpp ****         char msg[512];
  49              		.loc 1 10 9 view .LVU1
  11:Thaumazein.cpp ****         int pos = 0;
  50              		.loc 1 11 9 view .LVU2
  51              	.LVL0:
  12:Thaumazein.cpp **** 
  13:Thaumazein.cpp ****         // CPU Load
  14:Thaumazein.cpp ****         float avg_cpu_load = cpu_meter.GetAvgCpuLoad();
  52              		.loc 1 14 9 view .LVU3
  53              	.LBB54:
  54              	.LBI54:
  55              		.file 2 "lib/libdaisy/src/util/CpuLoadMeter.h"
   1:lib/libdaisy/src/util/CpuLoadMeter.h **** #pragma once
   2:lib/libdaisy/src/util/CpuLoadMeter.h **** 
   3:lib/libdaisy/src/util/CpuLoadMeter.h **** #include "sys/system.h"
   4:lib/libdaisy/src/util/CpuLoadMeter.h **** #include <cmath>
   5:lib/libdaisy/src/util/CpuLoadMeter.h **** 
   6:lib/libdaisy/src/util/CpuLoadMeter.h **** namespace daisy
   7:lib/libdaisy/src/util/CpuLoadMeter.h **** {
   8:lib/libdaisy/src/util/CpuLoadMeter.h **** /** @brief CPU load metering
   9:lib/libdaisy/src/util/CpuLoadMeter.h ****  *  @author jelliesen
  10:lib/libdaisy/src/util/CpuLoadMeter.h ****  *  @addtogroup utility
  11:lib/libdaisy/src/util/CpuLoadMeter.h ****  * 
  12:lib/libdaisy/src/util/CpuLoadMeter.h ****  *  To measure the CPU load of your audio processing, create a CpuLoadMeter
  13:lib/libdaisy/src/util/CpuLoadMeter.h ****  *  and initialize it with your block size and sample rate.
  14:lib/libdaisy/src/util/CpuLoadMeter.h ****  *  Then at the beginning of the audio callback, call `OnBlockStart()`, 
  15:lib/libdaisy/src/util/CpuLoadMeter.h ****  *  and at the end of the audio callback, call `OnBlockEnd()`.
  16:lib/libdaisy/src/util/CpuLoadMeter.h ****  *  You can then read out the minimum, maximum and average CPU load.
  17:lib/libdaisy/src/util/CpuLoadMeter.h ****  */
  18:lib/libdaisy/src/util/CpuLoadMeter.h **** class CpuLoadMeter
  19:lib/libdaisy/src/util/CpuLoadMeter.h **** {
  20:lib/libdaisy/src/util/CpuLoadMeter.h ****   public:
  21:lib/libdaisy/src/util/CpuLoadMeter.h ****     CpuLoadMeter(){};
  22:lib/libdaisy/src/util/CpuLoadMeter.h **** 
  23:lib/libdaisy/src/util/CpuLoadMeter.h ****     /** Initializes the CpuLoadMeter for a particular sample rate and block size.
  24:lib/libdaisy/src/util/CpuLoadMeter.h ****      *  @param sampleRateInHz           The sample rate in Hz
  25:lib/libdaisy/src/util/CpuLoadMeter.h ****      *  @param blockSizeInSamples       The block size in samples
  26:lib/libdaisy/src/util/CpuLoadMeter.h ****      *  @param smoothingFilterCutoffHz  The cutoff frequency of the smoothing filter that's used to
  27:lib/libdaisy/src/util/CpuLoadMeter.h ****      *                                  create the average CPU load reading.
  28:lib/libdaisy/src/util/CpuLoadMeter.h ****      */
  29:lib/libdaisy/src/util/CpuLoadMeter.h ****     void Init(float sampleRateInHz,
  30:lib/libdaisy/src/util/CpuLoadMeter.h ****               int   blockSizeInSamples,
ARM GAS  /var/folders/9s/8rp0_f2s1n31qbztm3b5_fdh0000gn/T//ccITpZLc.s 			page 3


  31:lib/libdaisy/src/util/CpuLoadMeter.h ****               float smoothingFilterCutoffHz = 1.0f)
  32:lib/libdaisy/src/util/CpuLoadMeter.h ****     {
  33:lib/libdaisy/src/util/CpuLoadMeter.h ****         const auto secPerBlock = float(blockSizeInSamples) / sampleRateInHz;
  34:lib/libdaisy/src/util/CpuLoadMeter.h ****         const auto ticksPerS   = float(System::GetTickFreq());
  35:lib/libdaisy/src/util/CpuLoadMeter.h ****         ticksPerBlockInv_      = 1.0f / (ticksPerS * secPerBlock);
  36:lib/libdaisy/src/util/CpuLoadMeter.h **** 
  37:lib/libdaisy/src/util/CpuLoadMeter.h ****         // update filter coefficient for smoothing filter (1pole lowpass)
  38:lib/libdaisy/src/util/CpuLoadMeter.h ****         const auto blockRateInHz = sampleRateInHz / float(blockSizeInSamples);
  39:lib/libdaisy/src/util/CpuLoadMeter.h ****         const auto cutoffNormalized
  40:lib/libdaisy/src/util/CpuLoadMeter.h ****             = smoothingFilterCutoffHz * 2.0f * 3.141592653f / blockRateInHz;
  41:lib/libdaisy/src/util/CpuLoadMeter.h ****         // according to
  42:lib/libdaisy/src/util/CpuLoadMeter.h ****         // https://en.wikipedia.org/wiki/Low-pass_filter#Simple_infinite_impulse_response_filter
  43:lib/libdaisy/src/util/CpuLoadMeter.h ****         smoothingConstant_ = cutoffNormalized / (cutoffNormalized + 1.0f);
  44:lib/libdaisy/src/util/CpuLoadMeter.h **** 
  45:lib/libdaisy/src/util/CpuLoadMeter.h ****         Reset();
  46:lib/libdaisy/src/util/CpuLoadMeter.h ****     }
  47:lib/libdaisy/src/util/CpuLoadMeter.h **** 
  48:lib/libdaisy/src/util/CpuLoadMeter.h ****     /** Call this at the beginning of your audio callback */
  49:lib/libdaisy/src/util/CpuLoadMeter.h ****     void OnBlockStart() { currentBlockStartTicks_ = System::GetTick(); }
  50:lib/libdaisy/src/util/CpuLoadMeter.h **** 
  51:lib/libdaisy/src/util/CpuLoadMeter.h ****     /** Call this at the end of your audio callback */
  52:lib/libdaisy/src/util/CpuLoadMeter.h ****     void OnBlockEnd()
  53:lib/libdaisy/src/util/CpuLoadMeter.h ****     {
  54:lib/libdaisy/src/util/CpuLoadMeter.h ****         const auto end         = System::GetTick();
  55:lib/libdaisy/src/util/CpuLoadMeter.h ****         const auto ticksPassed = end - currentBlockStartTicks_;
  56:lib/libdaisy/src/util/CpuLoadMeter.h ****         const auto currentBlockLoad
  57:lib/libdaisy/src/util/CpuLoadMeter.h ****             = float(ticksPassed) * ticksPerBlockInv_; // usPassed / usPerBlock
  58:lib/libdaisy/src/util/CpuLoadMeter.h **** 
  59:lib/libdaisy/src/util/CpuLoadMeter.h ****         if(firstCycle_)
  60:lib/libdaisy/src/util/CpuLoadMeter.h ****         {
  61:lib/libdaisy/src/util/CpuLoadMeter.h ****             max_ = min_ = avg_ = currentBlockLoad;
  62:lib/libdaisy/src/util/CpuLoadMeter.h ****             firstCycle_        = false;
  63:lib/libdaisy/src/util/CpuLoadMeter.h ****         }
  64:lib/libdaisy/src/util/CpuLoadMeter.h ****         else
  65:lib/libdaisy/src/util/CpuLoadMeter.h ****         {
  66:lib/libdaisy/src/util/CpuLoadMeter.h ****             if(currentBlockLoad > max_)
  67:lib/libdaisy/src/util/CpuLoadMeter.h ****                 max_ = currentBlockLoad;
  68:lib/libdaisy/src/util/CpuLoadMeter.h ****             if(currentBlockLoad < min_)
  69:lib/libdaisy/src/util/CpuLoadMeter.h ****                 min_ = currentBlockLoad;
  70:lib/libdaisy/src/util/CpuLoadMeter.h **** 
  71:lib/libdaisy/src/util/CpuLoadMeter.h ****             avg_ = smoothingConstant_ * currentBlockLoad
  72:lib/libdaisy/src/util/CpuLoadMeter.h ****                    + (1.0f - smoothingConstant_) * avg_;
  73:lib/libdaisy/src/util/CpuLoadMeter.h ****         }
  74:lib/libdaisy/src/util/CpuLoadMeter.h ****     }
  75:lib/libdaisy/src/util/CpuLoadMeter.h **** 
  76:lib/libdaisy/src/util/CpuLoadMeter.h ****     /** Returns the smoothed average CPU load in the range 0..1 */
  77:lib/libdaisy/src/util/CpuLoadMeter.h ****     float GetAvgCpuLoad() const { return avg_; }
  56              		.loc 2 77 11 view .LVU4
  57              	.LBB55:
  58              		.loc 2 77 35 view .LVU5
  59              		.loc 2 77 35 is_stmt 0 view .LVU6
  60              	.LBE55:
  61              	.LBE54:
  15:Thaumazein.cpp ****         int cpu_percent_int = static_cast<int>(avg_cpu_load * 100.0f);
  62              		.loc 1 15 9 is_stmt 1 view .LVU7
  16:Thaumazein.cpp ****         cpu_percent_int = cpu_percent_int < 0 ? 0 : (cpu_percent_int > 100 ? 100 : cpu_percent_int)
  63              		.loc 1 16 9 view .LVU8
ARM GAS  /var/folders/9s/8rp0_f2s1n31qbztm3b5_fdh0000gn/T//ccITpZLc.s 			page 4


  17:Thaumazein.cpp ****         pos += snprintf(msg + pos, sizeof(msg) - pos, "CPU: %d\n", cpu_percent_int);
  64              		.loc 1 17 9 view .LVU9
  65              	.LBB57:
  66              	.LBB56:
  67              		.loc 2 77 42 is_stmt 0 view .LVU10
  68 0000 2F4B     		ldr	r3, .L7
  69              	.LBE56:
  70              	.LBE57:
  71              		.loc 1 17 24 view .LVU11
  72 0002 4FF40071 		mov	r1, #512
  15:Thaumazein.cpp ****         int cpu_percent_int = static_cast<int>(avg_cpu_load * 100.0f);
  73              		.loc 1 15 61 view .LVU12
  74 0006 9FED2F7A 		vldr.32	s14, .L7+4
  75 000a D3ED057A 		vldr.32	s15, [r3, #20]
  76              		.loc 1 17 24 view .LVU13
  77 000e 2E4A     		ldr	r2, .L7+8
  15:Thaumazein.cpp ****         int cpu_percent_int = static_cast<int>(avg_cpu_load * 100.0f);
  78              		.loc 1 15 61 view .LVU14
  79 0010 67EE877A 		vmul.f32	s15, s15, s14
  80              	.LBE53:
   7:Thaumazein.cpp ****     if (update_display) {
  81              		.loc 1 7 6 view .LVU15
  82 0014 30B5     		push	{r4, r5, lr}
  83              		.cfi_def_cfa_offset 12
  84              		.cfi_offset 4, -12
  85              		.cfi_offset 5, -8
  86              		.cfi_offset 14, -4
  87              	.LBB62:
  15:Thaumazein.cpp ****         cpu_percent_int = cpu_percent_int < 0 ? 0 : (cpu_percent_int > 100 ? 100 : cpu_percent_int)
  88              		.loc 1 15 13 view .LVU16
  89 0016 FDEEE77A 		vcvt.s32.f32	s15, s15
  90              	.LBE62:
   7:Thaumazein.cpp ****     if (update_display) {
  91              		.loc 1 7 6 view .LVU17
  92 001a ADF5037D 		sub	sp, sp, #524
  93              		.cfi_def_cfa_offset 536
  94              	.LBB63:
  95              	.LBB58:
  18:Thaumazein.cpp **** 
  19:Thaumazein.cpp ****         // Engine Info
  20:Thaumazein.cpp ****         int current_engine_idx = current_engine_index;
  21:Thaumazein.cpp ****         pos += snprintf(msg + pos, sizeof(msg) - pos, "Engine: %d (%s)\n", current_engine_idx, (cur
  22:Thaumazein.cpp **** 
  23:Thaumazein.cpp ****         // Only show ADC values 8-11
  24:Thaumazein.cpp ****         pos += snprintf(msg + pos, sizeof(msg) - pos, "ADC Values (8-11):\n");
  25:Thaumazein.cpp ****         for (int i = 8; i < 12; ++i) {
  96              		.loc 1 25 18 view .LVU18
  97 001e 0825     		movs	r5, #8
  98              	.LBE58:
  17:Thaumazein.cpp **** 
  99              		.loc 1 17 24 view .LVU19
 100 0020 02A8     		add	r0, sp, #8
  15:Thaumazein.cpp ****         cpu_percent_int = cpu_percent_int < 0 ? 0 : (cpu_percent_int > 100 ? 100 : cpu_percent_int)
 101              		.loc 1 15 13 view .LVU20
 102 0022 17EE903A 		vmov	r3, s15	@ int
  16:Thaumazein.cpp ****         pos += snprintf(msg + pos, sizeof(msg) - pos, "CPU: %d\n", cpu_percent_int);
 103              		.loc 1 16 47 view .LVU21
ARM GAS  /var/folders/9s/8rp0_f2s1n31qbztm3b5_fdh0000gn/T//ccITpZLc.s 			page 5


 104 0026 642B     		cmp	r3, #100
 105 0028 A8BF     		it	ge
 106 002a 6423     		movge	r3, #100
  17:Thaumazein.cpp **** 
 107              		.loc 1 17 24 view .LVU22
 108 002c 23EAE373 		bic	r3, r3, r3, asr #31
 109 0030 FFF7FEFF 		bl	snprintf
 110              	.LVL1:
  20:Thaumazein.cpp ****         pos += snprintf(msg + pos, sizeof(msg) - pos, "Engine: %d (%s)\n", current_engine_idx, (cur
 111              		.loc 1 20 34 view .LVU23
 112 0034 254B     		ldr	r3, .L7+12
  21:Thaumazein.cpp **** 
 113              		.loc 1 21 24 view .LVU24
 114 0036 2649     		ldr	r1, .L7+16
  17:Thaumazein.cpp **** 
 115              		.loc 1 17 24 view .LVU25
 116 0038 0446     		mov	r4, r0
 117              	.LVL2:
  20:Thaumazein.cpp ****         pos += snprintf(msg + pos, sizeof(msg) - pos, "Engine: %d (%s)\n", current_engine_idx, (cur
 118              		.loc 1 20 9 is_stmt 1 view .LVU26
  20:Thaumazein.cpp ****         pos += snprintf(msg + pos, sizeof(msg) - pos, "Engine: %d (%s)\n", current_engine_idx, (cur
 119              		.loc 1 20 34 is_stmt 0 view .LVU27
 120 003a 1B68     		ldr	r3, [r3]
 121              	.LVL3:
  21:Thaumazein.cpp **** 
 122              		.loc 1 21 9 is_stmt 1 view .LVU28
  21:Thaumazein.cpp **** 
 123              		.loc 1 21 24 is_stmt 0 view .LVU29
 124 003c 254A     		ldr	r2, .L7+20
 125 003e 032B     		cmp	r3, #3
 126 0040 C8BF     		it	gt
 127 0042 0A46     		movgt	r2, r1
 128 0044 C0F50071 		rsb	r1, r0, #512
 129 0048 02A8     		add	r0, sp, #8
 130              	.LVL4:
  21:Thaumazein.cpp **** 
 131              		.loc 1 21 24 view .LVU30
 132 004a 0092     		str	r2, [sp]
 133 004c 2044     		add	r0, r0, r4
 134 004e 224A     		ldr	r2, .L7+24
 135 0050 FFF7FEFF 		bl	snprintf
 136              	.LVL5:
  24:Thaumazein.cpp ****         for (int i = 8; i < 12; ++i) {
 137              		.loc 1 24 24 view .LVU31
 138 0054 02AB     		add	r3, sp, #8
  21:Thaumazein.cpp **** 
 139              		.loc 1 21 13 view .LVU32
 140 0056 0444     		add	r4, r4, r0
 141              	.LVL6:
  24:Thaumazein.cpp ****         for (int i = 8; i < 12; ++i) {
 142              		.loc 1 24 9 is_stmt 1 view .LVU33
  24:Thaumazein.cpp ****         for (int i = 8; i < 12; ++i) {
 143              		.loc 1 24 24 is_stmt 0 view .LVU34
 144 0058 204A     		ldr	r2, .L7+28
 145 005a C4F50071 		rsb	r1, r4, #512
 146 005e 1819     		adds	r0, r3, r4
 147 0060 FFF7FEFF 		bl	snprintf
ARM GAS  /var/folders/9s/8rp0_f2s1n31qbztm3b5_fdh0000gn/T//ccITpZLc.s 			page 6


 148              	.LVL7:
  24:Thaumazein.cpp ****         for (int i = 8; i < 12; ++i) {
 149              		.loc 1 24 13 view .LVU35
 150 0064 0444     		add	r4, r4, r0
 151              	.LVL8:
 152              		.loc 1 25 9 is_stmt 1 view .LVU36
 153              	.LBB59:
 154              		.loc 1 25 27 view .LVU37
 155              	.L4:
  26:Thaumazein.cpp ****             pos += snprintf(msg + pos, sizeof(msg) - pos, "[%d]: %d\n", i, static_cast<int>(adc_raw
 156              		.loc 1 26 13 view .LVU38
 157              		.loc 1 26 109 is_stmt 0 view .LVU39
 158 0066 1E4B     		ldr	r3, .L7+32
 159              		.loc 1 26 28 view .LVU40
 160 0068 02A8     		add	r0, sp, #8
 161              		.loc 1 26 111 view .LVU41
 162 006a 9FED1E7A 		vldr.32	s14, .L7+36
 163              		.loc 1 26 28 view .LVU42
 164 006e C4F50071 		rsb	r1, r4, #512
 165              		.loc 1 26 109 view .LVU43
 166 0072 03EB8503 		add	r3, r3, r5, lsl #2
 167              		.loc 1 26 28 view .LVU44
 168 0076 2044     		add	r0, r0, r4
 169 0078 1B4A     		ldr	r2, .L7+40
 170              		.loc 1 26 109 view .LVU45
 171 007a D3ED007A 		vldr.32	s15, [r3]
 172              		.loc 1 26 28 view .LVU46
 173 007e 2B46     		mov	r3, r5
 174              		.loc 1 26 111 view .LVU47
 175 0080 67EE877A 		vmul.f32	s15, s15, s14
 176              		.loc 1 26 28 view .LVU48
 177 0084 FDEEE77A 		vcvt.s32.f32	s15, s15
 178 0088 CDED007A 		vstr.32	s15, [sp]	@ int
 179 008c FFF7FEFF 		bl	snprintf
 180              	.LVL9:
 181              		.loc 1 26 17 view .LVU49
 182 0090 0444     		add	r4, r4, r0
 183              	.LVL10:
  27:Thaumazein.cpp ****             if(pos >= (int)sizeof(msg) - 20) break; // safety margin
 184              		.loc 1 27 13 is_stmt 1 view .LVU50
 185 0092 B4F5F67F 		cmp	r4, #492
 186 0096 02DA     		bge	.L3
  25:Thaumazein.cpp ****             pos += snprintf(msg + pos, sizeof(msg) - pos, "[%d]: %d\n", i, static_cast<int>(adc_raw
 187              		.loc 1 25 9 view .LVU51
 188 0098 0135     		adds	r5, r5, #1
 189              	.LVL11:
  25:Thaumazein.cpp ****             pos += snprintf(msg + pos, sizeof(msg) - pos, "[%d]: %d\n", i, static_cast<int>(adc_raw
 190              		.loc 1 25 27 view .LVU52
 191 009a 0C2D     		cmp	r5, #12
 192 009c E3D1     		bne	.L4
 193              	.L3:
  25:Thaumazein.cpp ****             pos += snprintf(msg + pos, sizeof(msg) - pos, "[%d]: %d\n", i, static_cast<int>(adc_raw
 194              		.loc 1 25 27 is_stmt 0 view .LVU53
 195              	.LBE59:
  28:Thaumazein.cpp ****         }
  29:Thaumazein.cpp **** 
  30:Thaumazein.cpp ****         // Separator
ARM GAS  /var/folders/9s/8rp0_f2s1n31qbztm3b5_fdh0000gn/T//ccITpZLc.s 			page 7


  31:Thaumazein.cpp ****         pos += snprintf(msg + pos, sizeof(msg) - pos, "--------");
 196              		.loc 1 31 9 is_stmt 1 view .LVU54
 197              		.loc 1 31 24 is_stmt 0 view .LVU55
 198 009e 02AB     		add	r3, sp, #8
 199 00a0 124A     		ldr	r2, .L7+44
 200 00a2 C4F50071 		rsb	r1, r4, #512
 201 00a6 1819     		adds	r0, r3, r4
 202 00a8 FFF7FEFF 		bl	snprintf
 203              	.LVL12:
  32:Thaumazein.cpp **** 
  33:Thaumazein.cpp ****         // Print once with a single call to avoid throttling
  34:Thaumazein.cpp ****         hw.PrintLine("%s", msg);
 204              		.loc 1 34 9 is_stmt 1 view .LVU56
 205              	.LBB60:
 206              	.LBI60:
 207              		.file 3 "lib/libdaisy/src/daisy_seed.h"
   1:lib/libdaisy/src/daisy_seed.h **** #pragma once
   2:lib/libdaisy/src/daisy_seed.h **** #ifndef DSY_SEED_H
   3:lib/libdaisy/src/daisy_seed.h **** #define DSY_SEED_H
   4:lib/libdaisy/src/daisy_seed.h **** 
   5:lib/libdaisy/src/daisy_seed.h **** #include "daisy.h"
   6:lib/libdaisy/src/daisy_seed.h **** 
   7:lib/libdaisy/src/daisy_seed.h **** //Uncomment this out if you're still using the rev2 hardware
   8:lib/libdaisy/src/daisy_seed.h **** //#define SEED_REV2
   9:lib/libdaisy/src/daisy_seed.h **** 
  10:lib/libdaisy/src/daisy_seed.h **** namespace daisy
  11:lib/libdaisy/src/daisy_seed.h **** {
  12:lib/libdaisy/src/daisy_seed.h **** /**
  13:lib/libdaisy/src/daisy_seed.h ****    @brief This is the higher-level interface for the Daisy board. \n 
  14:lib/libdaisy/src/daisy_seed.h ****     All basic peripheral configuration/initialization is setup here. \n
  15:lib/libdaisy/src/daisy_seed.h **** 
  16:lib/libdaisy/src/daisy_seed.h ****    @ingroup boards
  17:lib/libdaisy/src/daisy_seed.h **** */
  18:lib/libdaisy/src/daisy_seed.h **** class DaisySeed
  19:lib/libdaisy/src/daisy_seed.h **** {
  20:lib/libdaisy/src/daisy_seed.h ****   public:
  21:lib/libdaisy/src/daisy_seed.h ****     DaisySeed() {}
  22:lib/libdaisy/src/daisy_seed.h ****     ~DaisySeed() {}
  23:lib/libdaisy/src/daisy_seed.h **** 
  24:lib/libdaisy/src/daisy_seed.h ****     /** This function used to provide a pre-initialization configuraiton 
  25:lib/libdaisy/src/daisy_seed.h ****      *  it has since been deprecated, and does nothing.
  26:lib/libdaisy/src/daisy_seed.h ****      */
  27:lib/libdaisy/src/daisy_seed.h ****     void Configure();
  28:lib/libdaisy/src/daisy_seed.h **** 
  29:lib/libdaisy/src/daisy_seed.h ****     /** 
  30:lib/libdaisy/src/daisy_seed.h ****     Initializes the Daisy Seed and the following peripherals:
  31:lib/libdaisy/src/daisy_seed.h ****     SDRAM, QSPI, 24-bit 48kHz Audio via AK4556, Internal USB,
  32:lib/libdaisy/src/daisy_seed.h ****     as well as the built-in LED and Testpoint.
  33:lib/libdaisy/src/daisy_seed.h **** 
  34:lib/libdaisy/src/daisy_seed.h ****     ADCs, DACs, and other special peripherals (such as I2C, SPI, etc.)
  35:lib/libdaisy/src/daisy_seed.h ****     can be initialized using their specific initializers within libdaisy
  36:lib/libdaisy/src/daisy_seed.h ****     for a specific application.
  37:lib/libdaisy/src/daisy_seed.h ****     */
  38:lib/libdaisy/src/daisy_seed.h ****     void Init(bool boost = false);
  39:lib/libdaisy/src/daisy_seed.h **** 
  40:lib/libdaisy/src/daisy_seed.h ****     /** 
  41:lib/libdaisy/src/daisy_seed.h ****     Deinitializes all peripherals automatically handled by `Init`.
ARM GAS  /var/folders/9s/8rp0_f2s1n31qbztm3b5_fdh0000gn/T//ccITpZLc.s 			page 8


  42:lib/libdaisy/src/daisy_seed.h ****     */
  43:lib/libdaisy/src/daisy_seed.h ****     void DeInit();
  44:lib/libdaisy/src/daisy_seed.h **** 
  45:lib/libdaisy/src/daisy_seed.h ****     /** 
  46:lib/libdaisy/src/daisy_seed.h ****     Wait some ms before going on.
  47:lib/libdaisy/src/daisy_seed.h ****     \param del Delay time in ms.
  48:lib/libdaisy/src/daisy_seed.h ****     */
  49:lib/libdaisy/src/daisy_seed.h ****     void DelayMs(size_t del);
  50:lib/libdaisy/src/daisy_seed.h **** 
  51:lib/libdaisy/src/daisy_seed.h ****     /** 
  52:lib/libdaisy/src/daisy_seed.h ****     Returns the gpio_pin corresponding to the index 0-31.
  53:lib/libdaisy/src/daisy_seed.h ****     For the given GPIO on the Daisy Seed (labeled 1-32 in docs).
  54:lib/libdaisy/src/daisy_seed.h ****     */
  55:lib/libdaisy/src/daisy_seed.h ****     static dsy_gpio_pin GetPin(uint8_t pin_idx);
  56:lib/libdaisy/src/daisy_seed.h **** 
  57:lib/libdaisy/src/daisy_seed.h ****     /** Begins the audio for the seeds builtin audio.
  58:lib/libdaisy/src/daisy_seed.h ****     the specified callback will get called whenever
  59:lib/libdaisy/src/daisy_seed.h ****     new data is ready to be prepared.
  60:lib/libdaisy/src/daisy_seed.h ****     */
  61:lib/libdaisy/src/daisy_seed.h ****     void StartAudio(AudioHandle::InterleavingAudioCallback cb);
  62:lib/libdaisy/src/daisy_seed.h **** 
  63:lib/libdaisy/src/daisy_seed.h ****     /** Begins the audio for the seeds builtin audio.
  64:lib/libdaisy/src/daisy_seed.h ****     the specified callback will get called whenever
  65:lib/libdaisy/src/daisy_seed.h ****     new data is ready to be prepared.
  66:lib/libdaisy/src/daisy_seed.h ****     This will use the newer non-interleaved callback.
  67:lib/libdaisy/src/daisy_seed.h ****     */
  68:lib/libdaisy/src/daisy_seed.h ****     void StartAudio(AudioHandle::AudioCallback cb);
  69:lib/libdaisy/src/daisy_seed.h **** 
  70:lib/libdaisy/src/daisy_seed.h ****     /** Changes to a new interleaved callback
  71:lib/libdaisy/src/daisy_seed.h ****      */
  72:lib/libdaisy/src/daisy_seed.h ****     void ChangeAudioCallback(AudioHandle::InterleavingAudioCallback cb);
  73:lib/libdaisy/src/daisy_seed.h **** 
  74:lib/libdaisy/src/daisy_seed.h ****     /** Changes to a new multichannel callback
  75:lib/libdaisy/src/daisy_seed.h ****      */
  76:lib/libdaisy/src/daisy_seed.h ****     void ChangeAudioCallback(AudioHandle::AudioCallback cb);
  77:lib/libdaisy/src/daisy_seed.h **** 
  78:lib/libdaisy/src/daisy_seed.h ****     /** Stops the audio if it is running. */
  79:lib/libdaisy/src/daisy_seed.h ****     void StopAudio();
  80:lib/libdaisy/src/daisy_seed.h **** 
  81:lib/libdaisy/src/daisy_seed.h ****     /** Updates the Audio Sample Rate, and reinitializes.
  82:lib/libdaisy/src/daisy_seed.h ****      ** Audio must be stopped for this to work.
  83:lib/libdaisy/src/daisy_seed.h ****      */
  84:lib/libdaisy/src/daisy_seed.h ****     void SetAudioSampleRate(SaiHandle::Config::SampleRate samplerate);
  85:lib/libdaisy/src/daisy_seed.h **** 
  86:lib/libdaisy/src/daisy_seed.h ****     /** Returns the audio sample rate in Hz as a floating point number.
  87:lib/libdaisy/src/daisy_seed.h ****      */
  88:lib/libdaisy/src/daisy_seed.h ****     float AudioSampleRate();
  89:lib/libdaisy/src/daisy_seed.h **** 
  90:lib/libdaisy/src/daisy_seed.h ****     /** Sets the number of samples processed per channel by the audio callback.
  91:lib/libdaisy/src/daisy_seed.h ****      */
  92:lib/libdaisy/src/daisy_seed.h ****     void SetAudioBlockSize(size_t blocksize);
  93:lib/libdaisy/src/daisy_seed.h **** 
  94:lib/libdaisy/src/daisy_seed.h ****     /** Returns the number of samples per channel in a block of audio. */
  95:lib/libdaisy/src/daisy_seed.h ****     size_t AudioBlockSize();
  96:lib/libdaisy/src/daisy_seed.h **** 
  97:lib/libdaisy/src/daisy_seed.h ****     /** Returns the rate in Hz that the Audio callback is called */
  98:lib/libdaisy/src/daisy_seed.h ****     float AudioCallbackRate() const;
ARM GAS  /var/folders/9s/8rp0_f2s1n31qbztm3b5_fdh0000gn/T//ccITpZLc.s 			page 9


  99:lib/libdaisy/src/daisy_seed.h **** 
 100:lib/libdaisy/src/daisy_seed.h ****     /** Sets the state of the built in LED
 101:lib/libdaisy/src/daisy_seed.h ****      */
 102:lib/libdaisy/src/daisy_seed.h ****     void SetLed(bool state);
 103:lib/libdaisy/src/daisy_seed.h **** 
 104:lib/libdaisy/src/daisy_seed.h ****     /** Sets the state of the test point near pin 10
 105:lib/libdaisy/src/daisy_seed.h ****      */
 106:lib/libdaisy/src/daisy_seed.h ****     void SetTestPoint(bool state);
 107:lib/libdaisy/src/daisy_seed.h **** 
 108:lib/libdaisy/src/daisy_seed.h ****     /** Print formatted debug log message
 109:lib/libdaisy/src/daisy_seed.h ****      */
 110:lib/libdaisy/src/daisy_seed.h ****     template <typename... VA>
 111:lib/libdaisy/src/daisy_seed.h ****     static void Print(const char* format, VA... va)
 112:lib/libdaisy/src/daisy_seed.h ****     {
 113:lib/libdaisy/src/daisy_seed.h ****         Log::Print(format, va...);
 114:lib/libdaisy/src/daisy_seed.h ****     }
 115:lib/libdaisy/src/daisy_seed.h **** 
 116:lib/libdaisy/src/daisy_seed.h ****     /** Print formatted debug log message with automatic line termination
 117:lib/libdaisy/src/daisy_seed.h ****     */
 118:lib/libdaisy/src/daisy_seed.h ****     template <typename... VA>
 119:lib/libdaisy/src/daisy_seed.h ****     static void PrintLine(const char* format, VA... va)
 208              		.loc 3 119 17 view .LVU57
 209              	.LBB61:
 120:lib/libdaisy/src/daisy_seed.h ****     {
 121:lib/libdaisy/src/daisy_seed.h ****         Log::PrintLine(format, va...);
 210              		.loc 3 121 23 is_stmt 0 view .LVU58
 211 00ac 02A9     		add	r1, sp, #8
 212              	.LVL13:
 213              		.loc 3 121 23 view .LVU59
 214 00ae 1048     		ldr	r0, .L7+48
 215 00b0 FFF7FEFF 		bl	_ZN5daisy6LoggerILNS_17LoggerDestinationE1EE9PrintLineEPKcz
 216              	.LVL14:
 217              		.loc 3 121 23 view .LVU60
 218              	.LBE61:
 219              	.LBE60:
  35:Thaumazein.cpp **** 
  36:Thaumazein.cpp ****         update_display = false; 
 220              		.loc 1 36 9 is_stmt 1 view .LVU61
 221              		.loc 1 36 24 is_stmt 0 view .LVU62
 222 00b4 0F4B     		ldr	r3, .L7+52
 223 00b6 0022     		movs	r2, #0
 224 00b8 1A70     		strb	r2, [r3]
 225              	.LBE63:
  37:Thaumazein.cpp ****     }
  38:Thaumazein.cpp **** }
 226              		.loc 1 38 1 view .LVU63
 227 00ba 0DF5037D 		add	sp, sp, #524
 228              		.cfi_def_cfa_offset 12
 229              		@ sp needed
 230 00be 30BD     		pop	{r4, r5, pc}
 231              	.LVL15:
 232              	.L8:
 233              		.loc 1 38 1 view .LVU64
 234              		.align	2
 235              	.L7:
 236 00c0 00000000 		.word	cpu_meter
 237 00c4 0000C842 		.word	1120403456
ARM GAS  /var/folders/9s/8rp0_f2s1n31qbztm3b5_fdh0000gn/T//ccITpZLc.s 			page 10


 238 00c8 0C000000 		.word	.LC4
 239 00cc 00000000 		.word	current_engine_index
 240 00d0 07000000 		.word	.LC3
 241 00d4 00000000 		.word	.LC2
 242 00d8 15000000 		.word	.LC5
 243 00dc 26000000 		.word	.LC6
 244 00e0 00000000 		.word	adc_raw_values
 245 00e4 00007A44 		.word	1148846080
 246 00e8 3A000000 		.word	.LC7
 247 00ec 44000000 		.word	.LC8
 248 00f0 4D000000 		.word	.LC9
 249 00f4 00000000 		.word	update_display
 250              		.cfi_endproc
 251              	.LFE6068:
 253              		.section	.text._Z13UpdateDisplayv,"ax",%progbits
 254              		.align	1
 255              		.global	_Z13UpdateDisplayv
 256              		.syntax unified
 257              		.thumb
 258              		.thumb_func
 260              	_Z13UpdateDisplayv:
 261              	.LFB5343:
   7:Thaumazein.cpp ****     if (update_display) {
 262              		.loc 1 7 22 is_stmt 1 view -0
 263              		.cfi_startproc
 264              		@ args = 0, pretend = 0, frame = 0
 265              		@ frame_needed = 0, uses_anonymous_args = 0
 266              		@ link register save eliminated.
   8:Thaumazein.cpp ****         // Build stats message in a smaller buffer
 267              		.loc 1 8 5 view .LVU66
 268              	.LBB64:
   8:Thaumazein.cpp ****         // Build stats message in a smaller buffer
 269              		.loc 1 8 9 is_stmt 0 view .LVU67
 270 0000 024B     		ldr	r3, .L11
 271 0002 1B78     		ldrb	r3, [r3]	@ zero_extendqisi2
   8:Thaumazein.cpp ****         // Build stats message in a smaller buffer
 272              		.loc 1 8 5 view .LVU68
 273 0004 0BB1     		cbz	r3, .L9
 274              	.LBE64:
 275 0006 FFF7FEBF 		b	_Z13UpdateDisplayv.part.0
 276              	.LVL16:
 277              	.L9:
 278              		.loc 1 38 1 view .LVU69
 279 000a 7047     		bx	lr
 280              	.L12:
 281              		.align	2
 282              	.L11:
 283 000c 00000000 		.word	update_display
 284              		.cfi_endproc
 285              	.LFE5343:
 287              		.section	.text._Z15PollTouchSensorv,"ax",%progbits
 288              		.align	1
 289              		.global	_Z15PollTouchSensorv
 290              		.syntax unified
 291              		.thumb
 292              		.thumb_func
 294              	_Z15PollTouchSensorv:
ARM GAS  /var/folders/9s/8rp0_f2s1n31qbztm3b5_fdh0000gn/T//ccITpZLc.s 			page 11


 295              	.LFB5344:
  39:Thaumazein.cpp **** 
  40:Thaumazein.cpp **** // Poll the touch sensor and update shared variables
  41:Thaumazein.cpp **** void PollTouchSensor() {
 296              		.loc 1 41 24 is_stmt 1 view -0
 297              		.cfi_startproc
 298              		@ args = 0, pretend = 0, frame = 24
 299              		@ frame_needed = 0, uses_anonymous_args = 0
  42:Thaumazein.cpp ****     if(!touch_sensor_present) {
 300              		.loc 1 42 5 view .LVU71
 301              		.loc 1 42 8 is_stmt 0 view .LVU72
 302 0000 564B     		ldr	r3, .L36
  41:Thaumazein.cpp ****     if(!touch_sensor_present) {
 303              		.loc 1 41 24 view .LVU73
 304 0002 2DE9F041 		push	{r4, r5, r6, r7, r8, lr}
 305              		.cfi_def_cfa_offset 24
 306              		.cfi_offset 4, -24
 307              		.cfi_offset 5, -20
 308              		.cfi_offset 6, -16
 309              		.cfi_offset 7, -12
 310              		.cfi_offset 8, -8
 311              		.cfi_offset 14, -4
 312              		.loc 1 42 8 view .LVU74
 313 0006 93F80080 		ldrb	r8, [r3]	@ zero_extendqisi2
  41:Thaumazein.cpp ****     if(!touch_sensor_present) {
 314              		.loc 1 41 24 view .LVU75
 315 000a 2DED028B 		vpush.64	{d8}
 316              		.cfi_def_cfa_offset 32
 317              		.cfi_offset 80, -32
 318              		.cfi_offset 81, -28
 319 000e 86B0     		sub	sp, sp, #24
 320              		.cfi_def_cfa_offset 56
 321              		.loc 1 42 5 view .LVU76
 322 0010 B8F1000F 		cmp	r8, #0
 323 0014 54D0     		beq	.L13
 324              	.LBB88:
 325              	.LBI88:
  41:Thaumazein.cpp ****     if(!touch_sensor_present) {
 326              		.loc 1 41 6 is_stmt 1 view .LVU77
 327              	.LBB89:
  43:Thaumazein.cpp ****         // Touch sensor unavailable – nothing to poll
  44:Thaumazein.cpp ****         return;
  45:Thaumazein.cpp ****     }
  46:Thaumazein.cpp ****     // Recover from any I2C errors on the touch sensor
  47:Thaumazein.cpp ****     if(touch_sensor.HasError()) {
 328              		.loc 1 47 5 view .LVU78
 329              	.LBB90:
 330              		.loc 1 47 29 is_stmt 0 view .LVU79
 331 0016 5248     		ldr	r0, .L36+4
 332 0018 FFF7FEFF 		bl	_ZNK6Mpr1218HasErrorEv
 333              	.LVL17:
 334              		.loc 1 47 5 view .LVU80
 335 001c E8B1     		cbz	r0, .L15
 336              	.LBB91:
  48:Thaumazein.cpp ****         touch_sensor.ClearError();
 337              		.loc 1 48 9 is_stmt 1 view .LVU81
 338              		.loc 1 48 32 is_stmt 0 view .LVU82
ARM GAS  /var/folders/9s/8rp0_f2s1n31qbztm3b5_fdh0000gn/T//ccITpZLc.s 			page 12


 339 001e 5048     		ldr	r0, .L36+4
 340 0020 FFF7FEFF 		bl	_ZN6Mpr12110ClearErrorEv
 341              	.LVL18:
  49:Thaumazein.cpp ****         Mpr121::Config cfg;
 342              		.loc 1 49 9 is_stmt 1 view .LVU83
 343              	.LBB92:
 344              	.LBI92:
 345              		.file 4 "mpr121_daisy.h"
   1:mpr121_daisy.h **** #pragma once
   2:mpr121_daisy.h **** #ifndef MPR121_DAISY_H
   3:mpr121_daisy.h **** #define MPR121_DAISY_H
   4:mpr121_daisy.h **** 
   5:mpr121_daisy.h **** #include "daisy_seed.h"
   6:mpr121_daisy.h **** #include "per/i2c.h"
   7:mpr121_daisy.h **** 
   8:mpr121_daisy.h **** using namespace daisy;
   9:mpr121_daisy.h **** 
  10:mpr121_daisy.h **** /// mp
  11:mpr121_daisy.h **** 
  12:mpr121_daisy.h **** // Register map
  13:mpr121_daisy.h **** #define MPR121_TOUCHSTATUS_L 0x00
  14:mpr121_daisy.h **** #define MPR121_TOUCHSTATUS_H 0x01
  15:mpr121_daisy.h **** #define MPR121_FILTDATA_0L 0x04
  16:mpr121_daisy.h **** #define MPR121_FILTDATA_0H 0x05
  17:mpr121_daisy.h **** #define MPR121_BASELINE_0 0x1E
  18:mpr121_daisy.h **** #define MPR121_MHDR 0x2B
  19:mpr121_daisy.h **** #define MPR121_NHDR 0x2C
  20:mpr121_daisy.h **** #define MPR121_NCLR 0x2D
  21:mpr121_daisy.h **** #define MPR121_FDLR 0x2E
  22:mpr121_daisy.h **** #define MPR121_MHDF 0x2F
  23:mpr121_daisy.h **** #define MPR121_NHDF 0x30
  24:mpr121_daisy.h **** #define MPR121_NCLF 0x31
  25:mpr121_daisy.h **** #define MPR121_FDLF 0x32
  26:mpr121_daisy.h **** #define MPR121_NHDT 0x33
  27:mpr121_daisy.h **** #define MPR121_NCLT 0x34
  28:mpr121_daisy.h **** #define MPR121_FDLT 0x35
  29:mpr121_daisy.h **** 
  30:mpr121_daisy.h **** #define MPR121_TOUCHTH_0 0x41
  31:mpr121_daisy.h **** #define MPR121_RELEASETH_0 0x42
  32:mpr121_daisy.h **** #define MPR121_DEBOUNCE 0x5B
  33:mpr121_daisy.h **** #define MPR121_CONFIG1 0x5C
  34:mpr121_daisy.h **** #define MPR121_CONFIG2 0x5D
  35:mpr121_daisy.h **** #define MPR121_CHARGECURR_0 0x5F
  36:mpr121_daisy.h **** #define MPR121_CHARGETIME_1 0x6C
  37:mpr121_daisy.h **** #define MPR121_ECR 0x5E
  38:mpr121_daisy.h **** #define MPR121_AUTOCONFIG0 0x7B
  39:mpr121_daisy.h **** #define MPR121_AUTOCONFIG1 0x7C
  40:mpr121_daisy.h **** #define MPR121_UPLIMIT 0x7D
  41:mpr121_daisy.h **** #define MPR121_LOWLIMIT 0x7E
  42:mpr121_daisy.h **** #define MPR121_TARGETLIMIT 0x7F
  43:mpr121_daisy.h **** 
  44:mpr121_daisy.h **** #define MPR121_GPIODIR 0x76
  45:mpr121_daisy.h **** #define MPR121_GPIOEN 0x77
  46:mpr121_daisy.h **** #define MPR121_GPIOSET 0x78
  47:mpr121_daisy.h **** #define MPR121_GPIOCLR 0x79
  48:mpr121_daisy.h **** #define MPR121_GPIOTOGGLE 0x7A
  49:mpr121_daisy.h **** 
ARM GAS  /var/folders/9s/8rp0_f2s1n31qbztm3b5_fdh0000gn/T//ccITpZLc.s 			page 13


  50:mpr121_daisy.h **** #define MPR121_SOFTRESET 0x80
  51:mpr121_daisy.h **** #define MPR121_I2CADDR_DEFAULT 0x5A
  52:mpr121_daisy.h **** 
  53:mpr121_daisy.h **** class Mpr121
  54:mpr121_daisy.h **** {
  55:mpr121_daisy.h ****   public:
  56:mpr121_daisy.h ****     Mpr121() {}
  57:mpr121_daisy.h ****     ~Mpr121() {}
  58:mpr121_daisy.h **** 
  59:mpr121_daisy.h ****     struct Config
 346              		.loc 4 59 12 view .LVU84
 347              	.LBB93:
 348              	.LBI93:
 349              		.file 5 "lib/libdaisy/src/per/i2c.h"
   1:lib/libdaisy/src/per/i2c.h **** #pragma once
   2:lib/libdaisy/src/per/i2c.h **** #include "daisy_core.h"
   3:lib/libdaisy/src/per/i2c.h **** 
   4:lib/libdaisy/src/per/i2c.h **** namespace daisy
   5:lib/libdaisy/src/per/i2c.h **** {
   6:lib/libdaisy/src/per/i2c.h **** /** A handle for interacting with an I2C peripheral. This is a dumb
   7:lib/libdaisy/src/per/i2c.h ****  *  gateway that internally points to one of the four I2C peripherals
   8:lib/libdaisy/src/per/i2c.h ****  *  after it was initialised. It can then be copied and passed around.
   9:lib/libdaisy/src/per/i2c.h ****  *  Use an I2CHandle like this:
  10:lib/libdaisy/src/per/i2c.h ****  *  
  11:lib/libdaisy/src/per/i2c.h ****  *      // setup the configuration
  12:lib/libdaisy/src/per/i2c.h ****  *      I2CHandle::Config i2c_conf;
  13:lib/libdaisy/src/per/i2c.h ****  *      i2c_conf.periph = I2CHandle::Config::Peripheral::I2C_1;
  14:lib/libdaisy/src/per/i2c.h ****  *      i2c_conf.speed  = I2CHandle::Config::Speed::I2C_400KHZ;
  15:lib/libdaisy/src/per/i2c.h ****  *      i2c_conf.mode   = I2CHandle::Config::Mode::Master;
  16:lib/libdaisy/src/per/i2c.h ****  *      i2c_conf.pin_config.scl  = {DSY_GPIOB, 8};
  17:lib/libdaisy/src/per/i2c.h ****  *      i2c_conf.pin_config.sda  = {DSY_GPIOB, 9};
  18:lib/libdaisy/src/per/i2c.h ****  *      // initialise the peripheral
  19:lib/libdaisy/src/per/i2c.h ****  *      I2CHandle i2c;
  20:lib/libdaisy/src/per/i2c.h ****  *      i2c.Init(i2c_conf);
  21:lib/libdaisy/src/per/i2c.h ****  *      // now i2c points to the corresponding peripheral and can be used.
  22:lib/libdaisy/src/per/i2c.h ****  *      i2c.TransmitBlocking( ... );
  23:lib/libdaisy/src/per/i2c.h ****  */
  24:lib/libdaisy/src/per/i2c.h **** class I2CHandle
  25:lib/libdaisy/src/per/i2c.h **** {
  26:lib/libdaisy/src/per/i2c.h ****   public:
  27:lib/libdaisy/src/per/i2c.h ****     /** Contains settings for initialising an I2C interface. */
  28:lib/libdaisy/src/per/i2c.h ****     struct Config
 350              		.loc 5 28 12 view .LVU85
 351              	.LBB94:
 352 0024 1023     		movs	r3, #16
 353              	.LBE94:
 354              	.LBE93:
 355              	.LBE92:
 356              	.LBB97:
 357              	.LBB98:
  60:mpr121_daisy.h ****     {
  61:mpr121_daisy.h ****         I2CHandle::Config i2c_config;
  62:mpr121_daisy.h ****         uint8_t          i2c_address;
  63:mpr121_daisy.h **** 
  64:mpr121_daisy.h ****         void Defaults()
  65:mpr121_daisy.h ****         {
  66:mpr121_daisy.h ****             i2c_config.periph = I2CHandle::Config::Peripheral::I2C_1;
ARM GAS  /var/folders/9s/8rp0_f2s1n31qbztm3b5_fdh0000gn/T//ccITpZLc.s 			page 14


  67:mpr121_daisy.h ****             i2c_config.speed  = I2CHandle::Config::Speed::I2C_400KHZ;
 358              		.loc 4 67 31 is_stmt 0 view .LVU86
 359 0026 0122     		movs	r2, #1
 360              	.LBE98:
 361              	.LBE97:
  50:Thaumazein.cpp ****         cfg.Defaults();
  51:Thaumazein.cpp ****         touch_sensor.Init(cfg);
 362              		.loc 1 51 26 view .LVU87
 363 0028 6946     		mov	r1, sp
 364              	.LBB101:
 365              	.LBB96:
 366              	.LBB95:
 367              		.loc 5 28 12 view .LVU88
 368 002a 8DF81030 		strb	r3, [sp, #16]
 369              	.LVL19:
 370              		.loc 5 28 12 view .LVU89
 371              	.LBE95:
 372              	.LBE96:
 373              	.LBE101:
  50:Thaumazein.cpp ****         cfg.Defaults();
 374              		.loc 1 50 9 is_stmt 1 view .LVU90
 375              	.LBB102:
 376              	.LBI97:
  64:mpr121_daisy.h ****         {
 377              		.loc 4 64 14 view .LVU91
 378              	.LBB99:
  66:mpr121_daisy.h ****             i2c_config.speed  = I2CHandle::Config::Speed::I2C_400KHZ;
 379              		.loc 4 66 13 view .LVU92
  66:mpr121_daisy.h ****             i2c_config.speed  = I2CHandle::Config::Speed::I2C_400KHZ;
 380              		.loc 4 66 31 is_stmt 0 view .LVU93
 381 002e 0023     		movs	r3, #0
 382              	.LBE99:
 383              	.LBE102:
 384              		.loc 1 51 26 view .LVU94
 385 0030 4B48     		ldr	r0, .L36+4
 386              	.LBB103:
 387              	.LBB100:
  66:mpr121_daisy.h ****             i2c_config.speed  = I2CHandle::Config::Speed::I2C_400KHZ;
 388              		.loc 4 66 31 view .LVU95
 389 0032 0093     		str	r3, [sp]
 390              		.loc 4 67 13 is_stmt 1 view .LVU96
  68:mpr121_daisy.h ****             i2c_config.mode   = I2CHandle::Config::Mode::I2C_MASTER;
 391              		.loc 4 68 31 is_stmt 0 view .LVU97
 392 0034 CDE90223 		strd	r2, r3, [sp, #8]
  69:mpr121_daisy.h ****             i2c_config.pin_config.scl = {DSY_GPIOB, 8};
 393              		.loc 4 69 13 is_stmt 1 view .LVU98
 394              		.loc 4 69 39 is_stmt 0 view .LVU99
 395 0038 4A4B     		ldr	r3, .L36+8
 396 003a 1A88     		ldrh	r2, [r3]	@ unaligned
  70:mpr121_daisy.h ****             i2c_config.pin_config.sda = {DSY_GPIOB, 9};
 397              		.loc 4 70 39 view .LVU100
 398 003c 5B88     		ldrh	r3, [r3, #2]	@ unaligned
  69:mpr121_daisy.h ****             i2c_config.pin_config.scl = {DSY_GPIOB, 8};
 399              		.loc 4 69 39 view .LVU101
 400 003e ADF80420 		strh	r2, [sp, #4]	@ unaligned
 401              		.loc 4 70 13 is_stmt 1 view .LVU102
 402              		.loc 4 70 39 is_stmt 0 view .LVU103
ARM GAS  /var/folders/9s/8rp0_f2s1n31qbztm3b5_fdh0000gn/T//ccITpZLc.s 			page 15


 403 0042 ADF80630 		strh	r3, [sp, #6]	@ unaligned
  71:mpr121_daisy.h ****             i2c_address               = MPR121_I2CADDR_DEFAULT;
 404              		.loc 4 71 13 is_stmt 1 view .LVU104
 405              		.loc 4 71 39 is_stmt 0 view .LVU105
 406 0046 5A23     		movs	r3, #90
 407 0048 8DF81430 		strb	r3, [sp, #20]
 408              	.LVL20:
 409              		.loc 4 71 39 view .LVU106
 410              	.LBE100:
 411              	.LBE103:
 412              		.loc 1 51 9 is_stmt 1 view .LVU107
 413              		.loc 1 51 26 is_stmt 0 view .LVU108
 414 004c FFF7FEFF 		bl	_ZN6Mpr1214InitERKNS_6ConfigE
 415              	.LVL21:
  52:Thaumazein.cpp ****         touch_sensor.SetThresholds(6, 3);
 416              		.loc 1 52 9 is_stmt 1 view .LVU109
 417              		.loc 1 52 35 is_stmt 0 view .LVU110
 418 0050 0322     		movs	r2, #3
 419 0052 0621     		movs	r1, #6
 420 0054 4248     		ldr	r0, .L36+4
 421 0056 FFF7FEFF 		bl	_ZN6Mpr12113SetThresholdsEhh
 422              	.LVL22:
 423              	.L15:
 424              	.LBE91:
 425              	.LBE90:
  53:Thaumazein.cpp ****     }
  54:Thaumazein.cpp ****     uint16_t touched = touch_sensor.Touched();
 426              		.loc 1 54 5 is_stmt 1 view .LVU111
 427              		.loc 1 54 44 is_stmt 0 view .LVU112
 428 005a 4148     		ldr	r0, .L36+4
  55:Thaumazein.cpp ****     current_touch_state = touched;
  56:Thaumazein.cpp **** 
  57:Thaumazein.cpp ****     // Update touch pad LEDs with touch and ARP blink
  58:Thaumazein.cpp ****     uint32_t now = hw.system.GetNow();
  59:Thaumazein.cpp ****     bool arp_on = arp.IsActive();
 429              		.loc 1 59 31 view .LVU113
 430 005c 0B24     		movs	r4, #11
  54:Thaumazein.cpp ****     current_touch_state = touched;
 431              		.loc 1 54 44 view .LVU114
 432 005e FFF7FEFF 		bl	_ZN6Mpr1217TouchedEv
 433              	.LVL23:
  55:Thaumazein.cpp ****     current_touch_state = touched;
 434              		.loc 1 55 25 view .LVU115
 435 0062 414B     		ldr	r3, .L36+12
  54:Thaumazein.cpp ****     current_touch_state = touched;
 436              		.loc 1 54 44 view .LVU116
 437 0064 0546     		mov	r5, r0
 438              	.LVL24:
  55:Thaumazein.cpp ****     current_touch_state = touched;
 439              		.loc 1 55 5 is_stmt 1 view .LVU117
  55:Thaumazein.cpp ****     current_touch_state = touched;
 440              		.loc 1 55 25 is_stmt 0 view .LVU118
 441 0066 1880     		strh	r0, [r3]	@ movhi
  58:Thaumazein.cpp ****     bool arp_on = arp.IsActive();
 442              		.loc 1 58 5 is_stmt 1 view .LVU119
  58:Thaumazein.cpp ****     bool arp_on = arp.IsActive();
 443              		.loc 1 58 36 is_stmt 0 view .LVU120
ARM GAS  /var/folders/9s/8rp0_f2s1n31qbztm3b5_fdh0000gn/T//ccITpZLc.s 			page 16


 444 0068 FFF7FEFF 		bl	_ZN5daisy6System6GetNowEv
 445              	.LVL25:
  58:Thaumazein.cpp ****     bool arp_on = arp.IsActive();
 446              		.loc 1 58 36 view .LVU121
 447 006c 0646     		mov	r6, r0
 448              	.LVL26:
 449              		.loc 1 59 5 is_stmt 1 view .LVU122
 450              		.loc 1 59 31 is_stmt 0 view .LVU123
 451 006e 3F48     		ldr	r0, .L36+16
 452              	.LVL27:
 453              		.loc 1 59 31 view .LVU124
 454 0070 FFF7FEFF 		bl	_ZNK11Arpeggiator8IsActiveEv
 455              	.LVL28:
 456 0074 0746     		mov	r7, r0
 457              	.LVL29:
  60:Thaumazein.cpp ****     for(int i = 0; i < 12; ++i) {
 458              		.loc 1 60 5 is_stmt 1 view .LVU125
 459              	.LBB104:
 460              		.loc 1 60 22 view .LVU126
 461              	.L17:
 462              	.LBB105:
  61:Thaumazein.cpp ****         int ledIdx = 11 - i;  // pad i maps to LED[11-i]
  62:Thaumazein.cpp ****         bool padTouched = (touched & (1 << i)) != 0;
  63:Thaumazein.cpp ****         bool blink     = (now - arp_led_timestamps[ledIdx]) < ARP_LED_DURATION_MS;
 463              		.loc 1 63 58 is_stmt 0 view .LVU127
 464 0076 3E4A     		ldr	r2, .L36+20
 465 0078 C4F10B03 		rsb	r3, r4, #11
 466              	.LVL30:
  61:Thaumazein.cpp ****         int ledIdx = 11 - i;  // pad i maps to LED[11-i]
 467              		.loc 1 61 9 is_stmt 1 view .LVU128
  62:Thaumazein.cpp ****         bool blink     = (now - arp_led_timestamps[ledIdx]) < ARP_LED_DURATION_MS;
 468              		.loc 1 62 9 view .LVU129
 469              		.loc 1 63 9 view .LVU130
 470              		.loc 1 63 58 is_stmt 0 view .LVU131
 471 007c 52F82410 		ldr	r1, [r2, r4, lsl #2]
 472              		.loc 1 63 63 view .LVU132
 473 0080 3C4A     		ldr	r2, .L36+24
 474              		.loc 1 63 31 view .LVU133
 475 0082 711A     		subs	r1, r6, r1
 476              		.loc 1 63 63 view .LVU134
 477 0084 1268     		ldr	r2, [r2]
 478 0086 9142     		cmp	r1, r2
 479 0088 2CBF     		ite	cs
 480 008a 0021     		movcs	r1, #0
 481 008c 0121     		movcc	r1, #1
 482              	.LVL31:
  64:Thaumazein.cpp ****         bool ledState  = arp_on ? blink : (padTouched || blink);
 483              		.loc 1 64 9 is_stmt 1 view .LVU135
 484              		.loc 1 64 33 is_stmt 0 view .LVU136
 485 008e 2FB9     		cbnz	r7, .L16
  62:Thaumazein.cpp ****         bool blink     = (now - arp_led_timestamps[ledIdx]) < ARP_LED_DURATION_MS;
 486              		.loc 1 62 48 view .LVU137
 487 0090 45FA03F3 		asr	r3, r5, r3
 488              	.LVL32:
 489              		.loc 1 64 55 view .LVU138
 490 0094 13F0010F 		tst	r3, #1
 491 0098 18BF     		it	ne
ARM GAS  /var/folders/9s/8rp0_f2s1n31qbztm3b5_fdh0000gn/T//ccITpZLc.s 			page 17


 492 009a 4146     		movne	r1, r8
 493              	.LVL33:
 494              	.L16:
  65:Thaumazein.cpp ****         touch_leds[ledIdx].Write(ledState);
 495              		.loc 1 65 9 is_stmt 1 view .LVU139
 496              		.loc 1 65 33 is_stmt 0 view .LVU140
 497 009c 364B     		ldr	r3, .L36+28
 498 009e 1420     		movs	r0, #20
 499 00a0 00FB0430 		mla	r0, r0, r4, r3
 500 00a4 FFF7FEFF 		bl	_ZN5daisy4GPIO5WriteEb
 501              	.LVL34:
 502              		.loc 1 65 33 view .LVU141
 503              	.LBE105:
  60:Thaumazein.cpp ****         int ledIdx = 11 - i;  // pad i maps to LED[11-i]
 504              		.loc 1 60 5 is_stmt 1 view .LVU142
  60:Thaumazein.cpp ****         int ledIdx = 11 - i;  // pad i maps to LED[11-i]
 505              		.loc 1 60 22 view .LVU143
 506 00a8 013C     		subs	r4, r4, #1
 507              	.LVL35:
  60:Thaumazein.cpp ****         int ledIdx = 11 - i;  // pad i maps to LED[11-i]
 508              		.loc 1 60 22 is_stmt 0 view .LVU144
 509 00aa E4D2     		bcs	.L17
 510              	.LBE104:
  66:Thaumazein.cpp ****     }
  67:Thaumazein.cpp **** 
  68:Thaumazein.cpp ****     if (touched == 0) {
 511              		.loc 1 68 5 is_stmt 1 view .LVU145
 512 00ac 6DB9     		cbnz	r5, .L22
  69:Thaumazein.cpp ****        
  70:Thaumazein.cpp ****         touch_cv_value = touch_cv_value * 0.95f; 
 513              		.loc 1 70 9 view .LVU146
 514              		.loc 1 70 26 is_stmt 0 view .LVU147
 515 00ae 334B     		ldr	r3, .L36+32
 516              		.loc 1 70 41 view .LVU148
 517 00b0 9FED337A 		vldr.32	s14, .L36+36
 518              		.loc 1 70 26 view .LVU149
 519 00b4 D3ED007A 		vldr.32	s15, [r3]
 520              		.loc 1 70 41 view .LVU150
 521 00b8 67EE877A 		vmul.f32	s15, s15, s14
 522              	.LVL36:
 523              	.L35:
  71:Thaumazein.cpp ****         return;
  72:Thaumazein.cpp ****     }
  73:Thaumazein.cpp **** 
  74:Thaumazein.cpp ****     float total_deviation = 0.0f;
  75:Thaumazein.cpp ****     int touched_count = 0;
  76:Thaumazein.cpp **** 
  77:Thaumazein.cpp ****     // Iterate through all pads
  78:Thaumazein.cpp ****     for (int i = 0; i < 12; i++) {
  79:Thaumazein.cpp ****         if (touched & (1 << i)) {
  80:Thaumazein.cpp ****             int16_t deviation = touch_sensor.GetBaselineDeviation(i);
  81:Thaumazein.cpp ****             total_deviation += deviation;
  82:Thaumazein.cpp ****             touched_count++;
  83:Thaumazein.cpp ****         }
  84:Thaumazein.cpp ****     }
  85:Thaumazein.cpp **** 
  86:Thaumazein.cpp ****     float average_deviation = 0.0f;
ARM GAS  /var/folders/9s/8rp0_f2s1n31qbztm3b5_fdh0000gn/T//ccITpZLc.s 			page 18


  87:Thaumazein.cpp ****     if (touched_count > 0) {
  88:Thaumazein.cpp ****         average_deviation = total_deviation / touched_count;
  89:Thaumazein.cpp ****     }
  90:Thaumazein.cpp **** 
  91:Thaumazein.cpp ****     // Normalize to 0.0-1.0 range with adjustable sensitivity
  92:Thaumazein.cpp ****     // Consider recalibrating sensitivity if needed for average pressure
  93:Thaumazein.cpp ****     float sensitivity = 150.0f;
  94:Thaumazein.cpp ****     float normalized_value = daisysp::fmax(0.0f, daisysp::fmin(1.0f, average_deviation / sensitivit
  95:Thaumazein.cpp **** 
  96:Thaumazein.cpp ****     // Apply curve for better control response (squared curve feels more natural)
  97:Thaumazein.cpp ****     normalized_value = normalized_value * normalized_value;
  98:Thaumazein.cpp **** 
  99:Thaumazein.cpp ****     // Remove the position component - control is now based purely on average pressure
 100:Thaumazein.cpp ****     // float position_value = highest_pad / 11.0f; // Removed
 101:Thaumazein.cpp ****     // float position_weight = 0.7f;              // Removed
 102:Thaumazein.cpp ****     // float combined_value = position_value * position_weight + normalized_value * (1.0f - positio
 103:Thaumazein.cpp ****     float combined_value = normalized_value; // Use normalized average pressure directly
 104:Thaumazein.cpp **** 
 105:Thaumazein.cpp ****     // Apply adaptive smoothing - more smoothing for small changes, less for big changes
 106:Thaumazein.cpp ****     float change = fabsf(combined_value - touch_cv_value);
 107:Thaumazein.cpp ****     float smoothing = daisysp::fmax(0.5f, 0.95f - change * 2.0f); // 0.5-0.95 smoothing range
 108:Thaumazein.cpp **** 
 109:Thaumazein.cpp ****     // Update the shared volatile variable
 110:Thaumazein.cpp ****     touch_cv_value = touch_cv_value * smoothing + combined_value * (1.0f - smoothing);
 524              		.loc 1 110 20 view .LVU151
 525 00bc C3ED007A 		vstr.32	s15, [r3]
 526              	.LVL37:
 527              	.L13:
 528              		.loc 1 110 20 view .LVU152
 529              	.LBE89:
 530              	.LBE88:
 111:Thaumazein.cpp **** }
 531              		.loc 1 111 1 view .LVU153
 532 00c0 06B0     		add	sp, sp, #24
 533              		.cfi_remember_state
 534              		.cfi_def_cfa_offset 32
 535              		@ sp needed
 536 00c2 BDEC028B 		vldm	sp!, {d8}
 537              		.cfi_restore 80
 538              		.cfi_restore 81
 539              		.cfi_def_cfa_offset 24
 540 00c6 BDE8F081 		pop	{r4, r5, r6, r7, r8, pc}
 541              	.LVL38:
 542              	.L22:
 543              		.cfi_restore_state
 544              	.LBB120:
 545              	.LBB118:
  74:Thaumazein.cpp ****     int touched_count = 0;
 546              		.loc 1 74 11 view .LVU154
 547 00ca DFED2E8A 		vldr.32	s17, .L36+40
  75:Thaumazein.cpp **** 
 548              		.loc 1 75 9 view .LVU155
 549 00ce 0024     		movs	r4, #0
 550              	.LVL39:
  75:Thaumazein.cpp **** 
 551              		.loc 1 75 9 view .LVU156
 552 00d0 B0EE688A 		vmov.f32	s16, s17
ARM GAS  /var/folders/9s/8rp0_f2s1n31qbztm3b5_fdh0000gn/T//ccITpZLc.s 			page 19


 553              	.LBB106:
  78:Thaumazein.cpp ****         if (touched & (1 << i)) {
 554              		.loc 1 78 14 view .LVU157
 555 00d4 2646     		mov	r6, r4
 556              	.LVL40:
 557              	.L18:
  78:Thaumazein.cpp ****         if (touched & (1 << i)) {
 558              		.loc 1 78 14 view .LVU158
 559              	.LBE106:
 560              	.LBE118:
 561              	.LBE120:
  79:Thaumazein.cpp ****             int16_t deviation = touch_sensor.GetBaselineDeviation(i);
 562              		.loc 1 79 9 is_stmt 1 view .LVU159
 563              	.LBB121:
 564              	.LBB119:
 565              	.LBB109:
 566              	.LBB107:
  79:Thaumazein.cpp ****             int16_t deviation = touch_sensor.GetBaselineDeviation(i);
 567              		.loc 1 79 21 is_stmt 0 view .LVU160
 568 00d6 45FA06F3 		asr	r3, r5, r6
  79:Thaumazein.cpp ****             int16_t deviation = touch_sensor.GetBaselineDeviation(i);
 569              		.loc 1 79 9 view .LVU161
 570 00da DB07     		lsls	r3, r3, #31
 571 00dc 0AD5     		bpl	.L19
 572              	.LBB108:
  80:Thaumazein.cpp ****             total_deviation += deviation;
 573              		.loc 1 80 13 is_stmt 1 view .LVU162
  80:Thaumazein.cpp ****             total_deviation += deviation;
 574              		.loc 1 80 66 is_stmt 0 view .LVU163
 575 00de F1B2     		uxtb	r1, r6
 576 00e0 1F48     		ldr	r0, .L36+4
 577 00e2 FFF7FEFF 		bl	_ZN6Mpr12120GetBaselineDeviationEh
 578              	.LVL41:
  81:Thaumazein.cpp ****             touched_count++;
 579              		.loc 1 81 13 is_stmt 1 view .LVU164
  81:Thaumazein.cpp ****             touched_count++;
 580              		.loc 1 81 29 is_stmt 0 view .LVU165
 581 00e6 07EE900A 		vmov	s15, r0	@ int
  82:Thaumazein.cpp ****         }
 582              		.loc 1 82 26 view .LVU166
 583 00ea 0134     		adds	r4, r4, #1
 584              	.LVL42:
  81:Thaumazein.cpp ****             touched_count++;
 585              		.loc 1 81 29 view .LVU167
 586 00ec F8EEE77A 		vcvt.f32.s32	s15, s15
 587 00f0 78EEA78A 		vadd.f32	s17, s17, s15
 588              	.LVL43:
  82:Thaumazein.cpp ****         }
 589              		.loc 1 82 13 is_stmt 1 view .LVU168
 590              	.L19:
  82:Thaumazein.cpp ****         }
 591              		.loc 1 82 13 is_stmt 0 view .LVU169
 592              	.LBE108:
 593              	.LBE107:
  78:Thaumazein.cpp ****         if (touched & (1 << i)) {
 594              		.loc 1 78 5 is_stmt 1 view .LVU170
 595 00f4 0136     		adds	r6, r6, #1
ARM GAS  /var/folders/9s/8rp0_f2s1n31qbztm3b5_fdh0000gn/T//ccITpZLc.s 			page 20


 596              	.LVL44:
  78:Thaumazein.cpp ****         if (touched & (1 << i)) {
 597              		.loc 1 78 23 view .LVU171
 598 00f6 0C2E     		cmp	r6, #12
 599 00f8 EDD1     		bne	.L18
  78:Thaumazein.cpp ****         if (touched & (1 << i)) {
 600              		.loc 1 78 23 is_stmt 0 view .LVU172
 601              	.LBE109:
  86:Thaumazein.cpp ****     if (touched_count > 0) {
 602              		.loc 1 86 5 is_stmt 1 view .LVU173
 603              	.LVL45:
  87:Thaumazein.cpp ****         average_deviation = total_deviation / touched_count;
 604              		.loc 1 87 5 view .LVU174
 605 00fa 5CB3     		cbz	r4, .L23
  88:Thaumazein.cpp ****     }
 606              		.loc 1 88 9 view .LVU175
  88:Thaumazein.cpp ****     }
 607              		.loc 1 88 45 is_stmt 0 view .LVU176
 608 00fc 07EE904A 		vmov	s15, r4	@ int
 609 0100 F8EEE77A 		vcvt.f32.s32	s15, s15
  88:Thaumazein.cpp ****     }
 610              		.loc 1 88 27 view .LVU177
 611 0104 C8EEA76A 		vdiv.f32	s13, s17, s15
 612              	.LVL46:
 613              	.L20:
  93:Thaumazein.cpp ****     float normalized_value = daisysp::fmax(0.0f, daisysp::fmin(1.0f, average_deviation / sensitivit
 614              		.loc 1 93 5 is_stmt 1 view .LVU178
  94:Thaumazein.cpp **** 
 615              		.loc 1 94 5 view .LVU179
 616              	.LBB110:
 617              	.LBI110:
 618              		.file 6 "lib/DaisySP/Source/Utility/dsp.h"
   1:lib/DaisySP/Source/Utility/dsp.h **** /*
   2:lib/DaisySP/Source/Utility/dsp.h **** Copyright (c) 2020 Electrosmith, Corp, Emilie Gillet
   3:lib/DaisySP/Source/Utility/dsp.h **** 
   4:lib/DaisySP/Source/Utility/dsp.h **** Use of this source code is governed by an MIT-style
   5:lib/DaisySP/Source/Utility/dsp.h **** license that can be found in the LICENSE file or at
   6:lib/DaisySP/Source/Utility/dsp.h **** https://opensource.org/licenses/MIT.
   7:lib/DaisySP/Source/Utility/dsp.h **** */
   8:lib/DaisySP/Source/Utility/dsp.h **** 
   9:lib/DaisySP/Source/Utility/dsp.h **** /** Helpful defines, functions, and other utilities for use in/with daisysp modules.
  10:lib/DaisySP/Source/Utility/dsp.h **** */
  11:lib/DaisySP/Source/Utility/dsp.h **** #pragma once
  12:lib/DaisySP/Source/Utility/dsp.h **** #ifndef DSY_CORE_DSP
  13:lib/DaisySP/Source/Utility/dsp.h **** #define DSY_CORE_DSP
  14:lib/DaisySP/Source/Utility/dsp.h **** #include <cassert>
  15:lib/DaisySP/Source/Utility/dsp.h **** #include <cstdint>
  16:lib/DaisySP/Source/Utility/dsp.h **** #include <random>
  17:lib/DaisySP/Source/Utility/dsp.h **** #include <cmath>
  18:lib/DaisySP/Source/Utility/dsp.h **** 
  19:lib/DaisySP/Source/Utility/dsp.h **** /** PIs
  20:lib/DaisySP/Source/Utility/dsp.h **** */
  21:lib/DaisySP/Source/Utility/dsp.h **** #define PI_F 3.1415927410125732421875f
  22:lib/DaisySP/Source/Utility/dsp.h **** #define TWOPI_F (2.0f * PI_F)
  23:lib/DaisySP/Source/Utility/dsp.h **** #define HALFPI_F (PI_F * 0.5f)
  24:lib/DaisySP/Source/Utility/dsp.h **** #define DSY_MIN(in, mn) (in < mn ? in : mn)
  25:lib/DaisySP/Source/Utility/dsp.h **** #define DSY_MAX(in, mx) (in > mx ? in : mx)
ARM GAS  /var/folders/9s/8rp0_f2s1n31qbztm3b5_fdh0000gn/T//ccITpZLc.s 			page 21


  26:lib/DaisySP/Source/Utility/dsp.h **** #define DSY_CLAMP(in, mn, mx) (DSY_MIN(DSY_MAX(in, mn), mx))
  27:lib/DaisySP/Source/Utility/dsp.h **** #define DSY_COUNTOF(_arr) (sizeof(_arr) / sizeof(_arr[0]))
  28:lib/DaisySP/Source/Utility/dsp.h **** 
  29:lib/DaisySP/Source/Utility/dsp.h **** namespace daisysp
  30:lib/DaisySP/Source/Utility/dsp.h **** {
  31:lib/DaisySP/Source/Utility/dsp.h **** //Avoids division for random floats. e.g. rand() * kRandFrac
  32:lib/DaisySP/Source/Utility/dsp.h **** static constexpr float kRandFrac = 1.f / (float)RAND_MAX;
  33:lib/DaisySP/Source/Utility/dsp.h **** 
  34:lib/DaisySP/Source/Utility/dsp.h **** //Convert from semitones to other units. e.g. 2 ^ (kOneTwelfth * x)
  35:lib/DaisySP/Source/Utility/dsp.h **** static constexpr float kOneTwelfth = 1.f / 12.f;
  36:lib/DaisySP/Source/Utility/dsp.h **** 
  37:lib/DaisySP/Source/Utility/dsp.h **** /** efficient floating point min/max
  38:lib/DaisySP/Source/Utility/dsp.h **** c/o stephen mccaul
  39:lib/DaisySP/Source/Utility/dsp.h **** */
  40:lib/DaisySP/Source/Utility/dsp.h **** inline float fmax(float a, float b)
  41:lib/DaisySP/Source/Utility/dsp.h **** {
  42:lib/DaisySP/Source/Utility/dsp.h ****     float r;
  43:lib/DaisySP/Source/Utility/dsp.h **** #ifdef __arm__
  44:lib/DaisySP/Source/Utility/dsp.h ****     asm("vmaxnm.f32 %[d], %[n], %[m]" : [d] "=t"(r) : [n] "t"(a), [m] "t"(b) :);
  45:lib/DaisySP/Source/Utility/dsp.h **** #else
  46:lib/DaisySP/Source/Utility/dsp.h ****     r = (a > b) ? a : b;
  47:lib/DaisySP/Source/Utility/dsp.h **** #endif // __arm__
  48:lib/DaisySP/Source/Utility/dsp.h ****     return r;
  49:lib/DaisySP/Source/Utility/dsp.h **** }
  50:lib/DaisySP/Source/Utility/dsp.h **** 
  51:lib/DaisySP/Source/Utility/dsp.h **** inline float fmin(float a, float b)
 619              		.loc 6 51 14 view .LVU180
 620              	.LBB111:
  52:lib/DaisySP/Source/Utility/dsp.h **** {
  53:lib/DaisySP/Source/Utility/dsp.h ****     float r;
 621              		.loc 6 53 5 view .LVU181
  54:lib/DaisySP/Source/Utility/dsp.h **** #ifdef __arm__
  55:lib/DaisySP/Source/Utility/dsp.h ****     asm("vminnm.f32 %[d], %[n], %[m]" : [d] "=t"(r) : [n] "t"(a), [m] "t"(b) :);
 622              		.loc 6 55 5 view .LVU182
 623              	.LBE111:
 624              	.LBE110:
  94:Thaumazein.cpp **** 
 625              		.loc 1 94 43 is_stmt 0 view .LVU183
 626 0108 9FED1F6A 		vldr.32	s12, .L36+44
 106:Thaumazein.cpp ****     float smoothing = daisysp::fmax(0.5f, 0.95f - change * 2.0f); // 0.5-0.95 smoothing range
 627              		.loc 1 106 43 view .LVU184
 628 010c 1B4B     		ldr	r3, .L36+32
  94:Thaumazein.cpp **** 
 629              		.loc 1 94 43 view .LVU185
 630 010e 86EE867A 		vdiv.f32	s14, s13, s12
 631              	.LVL47:
 106:Thaumazein.cpp ****     float smoothing = daisysp::fmax(0.5f, 0.95f - change * 2.0f); // 0.5-0.95 smoothing range
 632              		.loc 1 106 43 view .LVU186
 633 0112 D3ED006A 		vldr.32	s13, [r3]
 634              	.LVL48:
 107:Thaumazein.cpp **** 
 635              		.loc 1 107 36 view .LVU187
 636 0116 9FED1A6A 		vldr.32	s12, .L36+36
 637              	.LBB113:
 638              	.LBB112:
 639              		.loc 6 55 5 view .LVU188
 640 011a F7EE007A 		vmov.f32	s15, #1.0e+0
ARM GAS  /var/folders/9s/8rp0_f2s1n31qbztm3b5_fdh0000gn/T//ccITpZLc.s 			page 22


 641              		.syntax unified
 642              	@ 55 "lib/DaisySP/Source/Utility/dsp.h" 1
 643 011e 87FEC77A 		vminnm.f32 s14, s15, s14
 644              	@ 0 "" 2
 645              	.LVL49:
  56:lib/DaisySP/Source/Utility/dsp.h **** #else
  57:lib/DaisySP/Source/Utility/dsp.h ****     r = (a < b) ? a : b;
  58:lib/DaisySP/Source/Utility/dsp.h **** #endif // __arm__
  59:lib/DaisySP/Source/Utility/dsp.h ****     return r;
 646              		.loc 6 59 5 is_stmt 1 view .LVU189
 647              		.loc 6 59 5 is_stmt 0 view .LVU190
 648              		.thumb
 649              		.syntax unified
 650              	.LBE112:
 651              	.LBE113:
 652              	.LBB114:
 653              	.LBI114:
  40:lib/DaisySP/Source/Utility/dsp.h **** {
 654              		.loc 6 40 14 is_stmt 1 view .LVU191
 655              	.LBB115:
  42:lib/DaisySP/Source/Utility/dsp.h **** #ifdef __arm__
 656              		.loc 6 42 5 view .LVU192
  44:lib/DaisySP/Source/Utility/dsp.h **** #else
 657              		.loc 6 44 5 view .LVU193
 658              		.syntax unified
 659              	@ 44 "lib/DaisySP/Source/Utility/dsp.h" 1
 660 0122 88FE077A 		vmaxnm.f32 s14, s16, s14
 661              	@ 0 "" 2
 662              	.LVL50:
  48:lib/DaisySP/Source/Utility/dsp.h **** }
 663              		.loc 6 48 5 view .LVU194
  48:lib/DaisySP/Source/Utility/dsp.h **** }
 664              		.loc 6 48 5 is_stmt 0 view .LVU195
 665              		.thumb
 666              		.syntax unified
 667              	.LBE115:
 668              	.LBE114:
  97:Thaumazein.cpp **** 
 669              		.loc 1 97 5 is_stmt 1 view .LVU196
  97:Thaumazein.cpp **** 
 670              		.loc 1 97 22 is_stmt 0 view .LVU197
 671 0126 27EE077A 		vmul.f32	s14, s14, s14
 672              	.LVL51:
 103:Thaumazein.cpp **** 
 673              		.loc 1 103 5 is_stmt 1 view .LVU198
 106:Thaumazein.cpp ****     float smoothing = daisysp::fmax(0.5f, 0.95f - change * 2.0f); // 0.5-0.95 smoothing range
 674              		.loc 1 106 5 view .LVU199
 107:Thaumazein.cpp **** 
 675              		.loc 1 107 5 view .LVU200
 107:Thaumazein.cpp **** 
 676              		.loc 1 107 36 is_stmt 0 view .LVU201
 677 012a F0EE005A 		vmov.f32	s11, #2.0e+0
 106:Thaumazein.cpp ****     float smoothing = daisysp::fmax(0.5f, 0.95f - change * 2.0f); // 0.5-0.95 smoothing range
 678              		.loc 1 106 41 view .LVU202
 679 012e 77EE666A 		vsub.f32	s13, s14, s13
 680              	.LVL52:
 106:Thaumazein.cpp ****     float smoothing = daisysp::fmax(0.5f, 0.95f - change * 2.0f); // 0.5-0.95 smoothing range
ARM GAS  /var/folders/9s/8rp0_f2s1n31qbztm3b5_fdh0000gn/T//ccITpZLc.s 			page 23


 681              		.loc 1 106 57 view .LVU203
 682 0132 F0EEE66A 		vabs.f32	s13, s13
 683              	.LVL53:
 107:Thaumazein.cpp **** 
 684              		.loc 1 107 36 view .LVU204
 685 0136 A6EEE56A 		vfms.f32	s12, s13, s11
 686              	.LVL54:
 687              	.LBB116:
 688              	.LBI116:
  40:lib/DaisySP/Source/Utility/dsp.h **** {
 689              		.loc 6 40 14 is_stmt 1 view .LVU205
 690              	.LBB117:
  42:lib/DaisySP/Source/Utility/dsp.h **** #ifdef __arm__
 691              		.loc 6 42 5 view .LVU206
  44:lib/DaisySP/Source/Utility/dsp.h **** #else
 692              		.loc 6 44 5 view .LVU207
 693 013a F6EE006A 		vmov.f32	s13, #5.0e-1
 694              	.LVL55:
  44:lib/DaisySP/Source/Utility/dsp.h **** #else
 695              		.loc 6 44 5 is_stmt 0 view .LVU208
 696              		.syntax unified
 697              	@ 44 "lib/DaisySP/Source/Utility/dsp.h" 1
 698 013e C6FE866A 		vmaxnm.f32 s13, s13, s12
 699              	@ 0 "" 2
 700              	.LVL56:
  48:lib/DaisySP/Source/Utility/dsp.h **** }
 701              		.loc 6 48 5 is_stmt 1 view .LVU209
  48:lib/DaisySP/Source/Utility/dsp.h **** }
 702              		.loc 6 48 5 is_stmt 0 view .LVU210
 703              		.thumb
 704              		.syntax unified
 705              	.LBE117:
 706              	.LBE116:
 110:Thaumazein.cpp **** }
 707              		.loc 1 110 5 is_stmt 1 view .LVU211
 110:Thaumazein.cpp **** }
 708              		.loc 1 110 74 is_stmt 0 view .LVU212
 709 0142 77EEE67A 		vsub.f32	s15, s15, s13
 110:Thaumazein.cpp **** }
 710              		.loc 1 110 22 view .LVU213
 711 0146 93ED006A 		vldr.32	s12, [r3]
 110:Thaumazein.cpp **** }
 712              		.loc 1 110 66 view .LVU214
 713 014a 67EE877A 		vmul.f32	s15, s15, s14
 110:Thaumazein.cpp **** }
 714              		.loc 1 110 49 view .LVU215
 715 014e E6EE867A 		vfma.f32	s15, s13, s12
 716 0152 B3E7     		b	.L35
 717              	.LVL57:
 718              	.L23:
  86:Thaumazein.cpp ****     if (touched_count > 0) {
 719              		.loc 1 86 11 view .LVU216
 720 0154 DFED0B6A 		vldr.32	s13, .L36+40
 721 0158 D6E7     		b	.L20
 722              	.L37:
 723 015a 00BF     		.align	2
 724              	.L36:
ARM GAS  /var/folders/9s/8rp0_f2s1n31qbztm3b5_fdh0000gn/T//ccITpZLc.s 			page 24


 725 015c 00000000 		.word	touch_sensor_present
 726 0160 00000000 		.word	touch_sensor
 727 0164 00000000 		.word	.LANCHOR0
 728 0168 00000000 		.word	.LANCHOR1
 729 016c 00000000 		.word	arp
 730 0170 00000000 		.word	arp_led_timestamps
 731 0174 00000000 		.word	ARP_LED_DURATION_MS
 732 0178 00000000 		.word	touch_leds
 733 017c 00000000 		.word	.LANCHOR2
 734 0180 3333733F 		.word	1064514355
 735 0184 00000000 		.word	0
 736 0188 00001643 		.word	1125515264
 737              	.LBE119:
 738              	.LBE121:
 739              		.cfi_endproc
 740              	.LFE5344:
 742              		.section	.text.startup.main,"ax",%progbits
 743              		.align	1
 744              		.global	main
 745              		.syntax unified
 746              		.thumb
 747              		.thumb_func
 749              	main:
 750              	.LFB5348:
 112:Thaumazein.cpp **** 
 113:Thaumazein.cpp **** int main(void) {
 751              		.loc 1 113 16 is_stmt 1 view -0
 752              		.cfi_startproc
 753              		@ args = 0, pretend = 0, frame = 0
 754              		@ frame_needed = 0, uses_anonymous_args = 0
 114:Thaumazein.cpp ****     InitializeSynth();
 755              		.loc 1 114 5 view .LVU218
 113:Thaumazein.cpp ****     InitializeSynth();
 756              		.loc 1 113 16 is_stmt 0 view .LVU219
 757 0000 10B5     		push	{r4, lr}
 758              		.cfi_def_cfa_offset 8
 759              		.cfi_offset 4, -8
 760              		.cfi_offset 14, -4
 761              		.loc 1 114 20 view .LVU220
 762 0002 FFF7FEFF 		bl	_Z15InitializeSynthv
 763              	.LVL58:
 115:Thaumazein.cpp ****     
 116:Thaumazein.cpp ****     uint32_t lastPoll = hw.system.GetNow();  // Track last poll time
 764              		.loc 1 116 5 is_stmt 1 view .LVU221
 765              		.loc 1 116 41 is_stmt 0 view .LVU222
 766 0006 FFF7FEFF 		bl	_ZN5daisy6System6GetNowEv
 767              	.LVL59:
 768 000a 0446     		mov	r4, r0
 769              	.LVL60:
 770              	.L40:
 117:Thaumazein.cpp ****     
 118:Thaumazein.cpp ****     // Main Loop 
 119:Thaumazein.cpp ****     while (1) {
 771              		.loc 1 119 5 is_stmt 1 view .LVU223
 120:Thaumazein.cpp ****         UpdateLED();
 772              		.loc 1 120 9 view .LVU224
 773              		.loc 1 120 18 is_stmt 0 view .LVU225
ARM GAS  /var/folders/9s/8rp0_f2s1n31qbztm3b5_fdh0000gn/T//ccITpZLc.s 			page 25


 774 000c FFF7FEFF 		bl	_Z9UpdateLEDv
 775              	.LVL61:
 121:Thaumazein.cpp ****         
 122:Thaumazein.cpp ****         // Check bootloader condition via ADC touch pads
 123:Thaumazein.cpp ****         Bootload();
 776              		.loc 1 123 9 is_stmt 1 view .LVU226
 777              		.loc 1 123 17 is_stmt 0 view .LVU227
 778 0010 FFF7FEFF 		bl	_Z8Bootloadv
 779              	.LVL62:
 124:Thaumazein.cpp ****         
 125:Thaumazein.cpp ****         UpdateDisplay();
 780              		.loc 1 125 9 is_stmt 1 view .LVU228
 781              		.loc 1 125 22 is_stmt 0 view .LVU229
 782 0014 FFF7FEFF 		bl	_Z13UpdateDisplayv
 783              	.LVL63:
 126:Thaumazein.cpp ****         
 127:Thaumazein.cpp ****         // Poll touch sensor every 5 ms (200 Hz)
 128:Thaumazein.cpp ****         if (hw.system.GetNow() - lastPoll >= 5) {
 784              		.loc 1 128 9 is_stmt 1 view .LVU230
 785              		.loc 1 128 29 is_stmt 0 view .LVU231
 786 0018 FFF7FEFF 		bl	_ZN5daisy6System6GetNowEv
 787              	.LVL64:
 788              		.loc 1 128 32 view .LVU232
 789 001c 001B     		subs	r0, r0, r4
 790              		.loc 1 128 9 view .LVU233
 791 001e 0428     		cmp	r0, #4
 792 0020 04D9     		bls	.L39
 129:Thaumazein.cpp ****             lastPoll = hw.system.GetNow();
 793              		.loc 1 129 13 is_stmt 1 view .LVU234
 794              		.loc 1 129 40 is_stmt 0 view .LVU235
 795 0022 FFF7FEFF 		bl	_ZN5daisy6System6GetNowEv
 796              	.LVL65:
 797 0026 0446     		mov	r4, r0
 798              	.LVL66:
 130:Thaumazein.cpp ****             PollTouchSensor(); 
 799              		.loc 1 130 13 is_stmt 1 view .LVU236
 800              		.loc 1 130 28 is_stmt 0 view .LVU237
 801 0028 FFF7FEFF 		bl	_Z15PollTouchSensorv
 802              	.LVL67:
 803              	.L39:
 131:Thaumazein.cpp ****         }
 132:Thaumazein.cpp ****         
 133:Thaumazein.cpp ****         // Yield for system tasks, adjusted for polling interval
 134:Thaumazein.cpp ****         System::Delay(1); // Shorter delay to allow more frequent polling checks
 804              		.loc 1 134 9 is_stmt 1 view .LVU238
 805              		.loc 1 134 22 is_stmt 0 view .LVU239
 806 002c 0120     		movs	r0, #1
 807 002e FFF7FEFF 		bl	_ZN5daisy6System5DelayEm
 808              	.LVL68:
 119:Thaumazein.cpp ****         UpdateLED();
 809              		.loc 1 119 5 is_stmt 1 view .LVU240
 120:Thaumazein.cpp ****         
 810              		.loc 1 120 18 is_stmt 0 view .LVU241
 811 0032 EBE7     		b	.L40
 812              		.cfi_endproc
 813              	.LFE5348:
 815              		.global	touch_cv_value
ARM GAS  /var/folders/9s/8rp0_f2s1n31qbztm3b5_fdh0000gn/T//ccITpZLc.s 			page 26


 816              		.global	current_touch_state
 817              		.section	.rodata
 818              		.set	.LANCHOR0,. + 0
 819              	.LC0:
 820 0000 01       		.byte	1
 821 0001 08       		.byte	8
 822              	.LC1:
 823 0002 01       		.byte	1
 824 0003 09       		.byte	9
 825              		.section	.bss.current_touch_state,"aw",%nobits
 826              		.align	1
 827              		.set	.LANCHOR1,. + 0
 830              	current_touch_state:
 831 0000 0000     		.space	2
 832              		.section	.bss.touch_cv_value,"aw",%nobits
 833              		.align	2
 834              		.set	.LANCHOR2,. + 0
 837              	touch_cv_value:
 838 0000 00000000 		.space	4
 839              		.text
 840              	.Letext0:
 841              		.file 7 "/Library/DaisyToolchain/0.2.0/arm/arm-none-eabi/include/machine/_default_types.h"
 842              		.file 8 "/Library/DaisyToolchain/0.2.0/arm/arm-none-eabi/include/sys/_stdint.h"
 843              		.file 9 "/Library/DaisyToolchain/0.2.0/arm/arm-none-eabi/include/stdint.h"
 844              		.file 10 "/Library/DaisyToolchain/0.2.0/arm/lib/gcc/arm-none-eabi/10.3.1/include/stddef.h"
 845              		.file 11 "/Library/DaisyToolchain/0.2.0/arm/arm-none-eabi/include/c++/10.3.1/cmath"
 846              		.file 12 "/Library/DaisyToolchain/0.2.0/arm/arm-none-eabi/include/c++/10.3.1/bits/std_abs.h"
 847              		.file 13 "/Library/DaisyToolchain/0.2.0/arm/arm-none-eabi/include/c++/10.3.1/cstdlib"
 848              		.file 14 "/Library/DaisyToolchain/0.2.0/arm/arm-none-eabi/include/c++/10.3.1/cstdint"
 849              		.file 15 "/Library/DaisyToolchain/0.2.0/arm/arm-none-eabi/include/c++/10.3.1/type_traits"
 850              		.file 16 "/Library/DaisyToolchain/0.2.0/arm/arm-none-eabi/include/c++/10.3.1/arm-none-eabi/thumb/v
 851              		.file 17 "/Library/DaisyToolchain/0.2.0/arm/arm-none-eabi/include/c++/10.3.1/bits/stl_pair.h"
 852              		.file 18 "/Library/DaisyToolchain/0.2.0/arm/arm-none-eabi/include/c++/10.3.1/debug/debug.h"
 853              		.file 19 "/Library/DaisyToolchain/0.2.0/arm/arm-none-eabi/include/c++/10.3.1/bits/algorithmfwd.h"
 854              		.file 20 "/Library/DaisyToolchain/0.2.0/arm/arm-none-eabi/include/c++/10.3.1/bits/exception_ptr.h"
 855              		.file 21 "/Library/DaisyToolchain/0.2.0/arm/arm-none-eabi/include/c++/10.3.1/cstdarg"
 856              		.file 22 "/Library/DaisyToolchain/0.2.0/arm/arm-none-eabi/include/c++/10.3.1/cstdio"
 857              		.file 23 "/Library/DaisyToolchain/0.2.0/arm/arm-none-eabi/include/c++/10.3.1/cstring"
 858              		.file 24 "/Library/DaisyToolchain/0.2.0/arm/arm-none-eabi/include/c++/10.3.1/cwchar"
 859              		.file 25 "/Library/DaisyToolchain/0.2.0/arm/arm-none-eabi/include/c++/10.3.1/clocale"
 860              		.file 26 "/Library/DaisyToolchain/0.2.0/arm/arm-none-eabi/include/c++/10.3.1/bits/basic_string.h"
 861              		.file 27 "/Library/DaisyToolchain/0.2.0/arm/arm-none-eabi/include/c++/10.3.1/bits/stl_iterator.h"
 862              		.file 28 "/Library/DaisyToolchain/0.2.0/arm/arm-none-eabi/include/c++/10.3.1/bits/uses_allocator.h
 863              		.file 29 "/Library/DaisyToolchain/0.2.0/arm/arm-none-eabi/include/c++/10.3.1/tuple"
 864              		.file 30 "/Library/DaisyToolchain/0.2.0/arm/arm-none-eabi/include/c++/10.3.1/bits/std_function.h"
 865              		.file 31 "/Library/DaisyToolchain/0.2.0/arm/arm-none-eabi/include/c++/10.3.1/functional"
 866              		.file 32 "/Library/DaisyToolchain/0.2.0/arm/arm-none-eabi/include/c++/10.3.1/bits/allocator.h"
 867              		.file 33 "/Library/DaisyToolchain/0.2.0/arm/arm-none-eabi/include/c++/10.3.1/bits/alloc_traits.h"
 868              		.file 34 "/Library/DaisyToolchain/0.2.0/arm/arm-none-eabi/include/c++/10.3.1/bits/stl_vector.h"
 869              		.file 35 "/Library/DaisyToolchain/0.2.0/arm/arm-none-eabi/include/c++/10.3.1/bits/vector.tcc"
 870              		.file 36 "/Library/DaisyToolchain/0.2.0/arm/arm-none-eabi/include/c++/10.3.1/bits/stl_function.h"
 871              		.file 37 "/Library/DaisyToolchain/0.2.0/arm/arm-none-eabi/include/c++/10.3.1/bits/refwrap.h"
 872              		.file 38 "/Library/DaisyToolchain/0.2.0/arm/arm-none-eabi/include/c++/10.3.1/bits/predefined_ops.h
 873              		.file 39 "/Library/DaisyToolchain/0.2.0/arm/arm-none-eabi/include/c++/10.3.1/ext/new_allocator.h"
 874              		.file 40 "/Library/DaisyToolchain/0.2.0/arm/arm-none-eabi/include/c++/10.3.1/ext/alloc_traits.h"
 875              		.file 41 "/Library/DaisyToolchain/0.2.0/arm/arm-none-eabi/include/sys/_types.h"
 876              		.file 42 "/Library/DaisyToolchain/0.2.0/arm/arm-none-eabi/include/sys/reent.h"
ARM GAS  /var/folders/9s/8rp0_f2s1n31qbztm3b5_fdh0000gn/T//ccITpZLc.s 			page 27


 877              		.file 43 "/Library/DaisyToolchain/0.2.0/arm/arm-none-eabi/include/sys/lock.h"
 878              		.file 44 "/Library/DaisyToolchain/0.2.0/arm/arm-none-eabi/include/math.h"
 879              		.file 45 "/Library/DaisyToolchain/0.2.0/arm/arm-none-eabi/include/stdlib.h"
 880              		.file 46 "/Library/DaisyToolchain/0.2.0/arm/arm-none-eabi/include/c++/10.3.1/math.h"
 881              		.file 47 "/Library/DaisyToolchain/0.2.0/arm/arm-none-eabi/include/c++/10.3.1/stdlib.h"
 882              		.file 48 "lib/libdaisy/src/daisy_core.h"
 883              		.file 49 "lib/libdaisy/src/per/tim.h"
 884              		.file 50 "lib/libdaisy/src/sys/system.h"
 885              		.file 51 "lib/libdaisy/src/per/qspi.h"
 886              		.file 52 "lib/libdaisy/src/per/dac.h"
 887              		.file 53 "lib/libdaisy/src/per/gpio.h"
 888              		.file 54 "lib/libdaisy/src/per/sai.h"
 889              		.file 55 "lib/libdaisy/src/hid/audio.h"
 890              		.file 56 "lib/libdaisy/src/per/adc.h"
 891              		.file 57 "lib/libdaisy/src/hid/usb.h"
 892              		.file 58 "lib/libdaisy/src/hid/logger_impl.h"
 893              		.file 59 "lib/libdaisy/src/util/wav_format.h"
 894              		.file 60 "lib/libdaisy/src/hid/logger.h"
 895              		.file 61 "lib/libdaisy/src/dev/sdram.h"
 896              		.file 62 "/Library/DaisyToolchain/0.2.0/arm/lib/gcc/arm-none-eabi/10.3.1/include/stdarg.h"
 897              		.file 63 "/Library/DaisyToolchain/0.2.0/arm/arm-none-eabi/include/stdio.h"
 898              		.file 64 "/Library/DaisyToolchain/0.2.0/arm/arm-none-eabi/include/string.h"
 899              		.file 65 "lib/DaisySP/Source/Control/adenv.h"
 900              		.file 66 "lib/DaisySP/Source/Utility/metro.h"
 901              		.file 67 "/Library/DaisyToolchain/0.2.0/arm/arm-none-eabi/include/wchar.h"
 902              		.file 68 "/Library/DaisyToolchain/0.2.0/arm/arm-none-eabi/include/locale.h"
 903              		.file 69 "eurorack/stmlib/stmlib.h"
 904              		.file 70 "eurorack/plaits/dsp/dsp.h"
 905              		.file 71 "eurorack/plaits/dsp/engine/additive_engine.h"
 906              		.file 72 "eurorack/plaits/dsp/oscillator/oscillator.h"
 907              		.file 73 "eurorack/plaits/dsp/engine/chord_engine.h"
 908              		.file 74 "eurorack/plaits/dsp/physical_modelling/resonator.h"
 909              		.file 75 "eurorack/plaits/dsp/engine/particle_engine.h"
 910              		.file 76 "eurorack/plaits/dsp/physical_modelling/string.h"
 911              		.file 77 "eurorack/plaits/dsp/engine/string_engine.h"
 912              		.file 78 "eurorack/plaits/dsp/engine/swarm_engine.h"
 913              		.file 79 "eurorack/plaits/dsp/oscillator/variable_saw_oscillator.h"
 914              		.file 80 "eurorack/plaits/dsp/voice.h"
 915              		.file 81 "Effects/BiquadFilters.h"
 916              		.file 82 "Arpeggiator.h"
 917              		.file 83 "Thaumazein.h"
 918              		.file 84 "lib/libdaisy/src/dev/sr_595.h"
 919              		.file 85 "<built-in>"
ARM GAS  /var/folders/9s/8rp0_f2s1n31qbztm3b5_fdh0000gn/T//ccITpZLc.s 			page 28


DEFINED SYMBOLS
                            *ABS*:0000000000000000 Thaumazein.cpp
/var/folders/9s/8rp0_f2s1n31qbztm3b5_fdh0000gn/T//ccITpZLc.s:36     .text._Z13UpdateDisplayv.part.0:0000000000000000 $t
/var/folders/9s/8rp0_f2s1n31qbztm3b5_fdh0000gn/T//ccITpZLc.s:41     .text._Z13UpdateDisplayv.part.0:0000000000000000 _Z13UpdateDisplayv.part.0
/var/folders/9s/8rp0_f2s1n31qbztm3b5_fdh0000gn/T//ccITpZLc.s:236    .text._Z13UpdateDisplayv.part.0:00000000000000c0 $d
/var/folders/9s/8rp0_f2s1n31qbztm3b5_fdh0000gn/T//ccITpZLc.s:254    .text._Z13UpdateDisplayv:0000000000000000 $t
/var/folders/9s/8rp0_f2s1n31qbztm3b5_fdh0000gn/T//ccITpZLc.s:260    .text._Z13UpdateDisplayv:0000000000000000 _Z13UpdateDisplayv
/var/folders/9s/8rp0_f2s1n31qbztm3b5_fdh0000gn/T//ccITpZLc.s:283    .text._Z13UpdateDisplayv:000000000000000c $d
/var/folders/9s/8rp0_f2s1n31qbztm3b5_fdh0000gn/T//ccITpZLc.s:288    .text._Z15PollTouchSensorv:0000000000000000 $t
/var/folders/9s/8rp0_f2s1n31qbztm3b5_fdh0000gn/T//ccITpZLc.s:294    .text._Z15PollTouchSensorv:0000000000000000 _Z15PollTouchSensorv
/var/folders/9s/8rp0_f2s1n31qbztm3b5_fdh0000gn/T//ccITpZLc.s:725    .text._Z15PollTouchSensorv:000000000000015c $d
/var/folders/9s/8rp0_f2s1n31qbztm3b5_fdh0000gn/T//ccITpZLc.s:743    .text.startup.main:0000000000000000 $t
/var/folders/9s/8rp0_f2s1n31qbztm3b5_fdh0000gn/T//ccITpZLc.s:749    .text.startup.main:0000000000000000 main
/var/folders/9s/8rp0_f2s1n31qbztm3b5_fdh0000gn/T//ccITpZLc.s:837    .bss.touch_cv_value:0000000000000000 touch_cv_value
/var/folders/9s/8rp0_f2s1n31qbztm3b5_fdh0000gn/T//ccITpZLc.s:830    .bss.current_touch_state:0000000000000000 current_touch_state
/var/folders/9s/8rp0_f2s1n31qbztm3b5_fdh0000gn/T//ccITpZLc.s:826    .bss.current_touch_state:0000000000000000 $d
/var/folders/9s/8rp0_f2s1n31qbztm3b5_fdh0000gn/T//ccITpZLc.s:833    .bss.touch_cv_value:0000000000000000 $d

UNDEFINED SYMBOLS
snprintf
_ZN5daisy6LoggerILNS_17LoggerDestinationE1EE9PrintLineEPKcz
cpu_meter
current_engine_index
adc_raw_values
update_display
_ZNK6Mpr1218HasErrorEv
_ZN6Mpr12110ClearErrorEv
_ZN6Mpr1214InitERKNS_6ConfigE
_ZN6Mpr12113SetThresholdsEhh
_ZN6Mpr1217TouchedEv
_ZN5daisy6System6GetNowEv
_ZNK11Arpeggiator8IsActiveEv
_ZN5daisy4GPIO5WriteEb
_ZN6Mpr12120GetBaselineDeviationEh
touch_sensor_present
touch_sensor
arp
arp_led_timestamps
ARP_LED_DURATION_MS
touch_leds
_Z15InitializeSynthv
_Z9UpdateLEDv
_Z8Bootloadv
_ZN5daisy6System5DelayEm
