ARM GAS  /var/folders/9s/8rp0_f2s1n31qbztm3b5_fdh0000gn/T//ccsWBIEq.s 			page 1


   1              		.cpu cortex-m7
   2              		.arch armv7e-m
   3              		.fpu fpv5-d16
   4              		.eabi_attribute 28, 1
   5              		.eabi_attribute 20, 1
   6              		.eabi_attribute 21, 1
   7              		.eabi_attribute 23, 3
   8              		.eabi_attribute 24, 1
   9              		.eabi_attribute 25, 1
  10              		.eabi_attribute 26, 1
  11              		.eabi_attribute 30, 4
  12              		.eabi_attribute 34, 1
  13              		.eabi_attribute 18, 4
  14              		.file	"Thaumazein.cpp"
  15              		.text
  16              	.Ltext0:
  17              		.cfi_sections	.debug_frame
  18              		.section	.rodata._Z13UpdateDisplayv.str1.1,"aMS",%progbits,1
  19              	.LC2:
  20 0000 506F6C79 		.ascii	"Poly-4\000"
  20      2D3400
  21              	.LC3:
  22 0007 4D6F6E6F 		.ascii	"Mono\000"
  22      00
  23              	.LC4:
  24 000c 4350553A 		.ascii	"CPU: %d\000"
  24      20256400 
  25              	.LC5:
  26 0014 456E6769 		.ascii	"Engine: %d (%s)\000"
  26      6E653A20 
  26      25642028 
  26      25732900 
  27              	.LC6:
  28 0024 4C657665 		.ascii	"Level: %d%%\000"
  28      6C3A2025 
  28      64252500 
  29              	.LC7:
  30 0030 4144435B 		.ascii	"ADC[%d]: %d\000"
  30      25645D3A 
  30      20256400 
  31              	.LC8:
  32 003c 2D2D2D2D 		.ascii	"--------\000"
  32      2D2D2D2D 
  32      00
  33              		.section	.text._Z13UpdateDisplayv,"ax",%progbits
  34              		.align	1
  35              		.global	_Z13UpdateDisplayv
  36              		.syntax unified
  37              		.thumb
  38              		.thumb_func
  40              	_Z13UpdateDisplayv:
  41              	.LFB5343:
  42              		.file 1 "Thaumazein.cpp"
   1:Thaumazein.cpp **** #include "Thaumazein.h"
   2:Thaumazein.cpp **** 
   3:Thaumazein.cpp **** // Define shared volatile variables
   4:Thaumazein.cpp **** volatile uint16_t current_touch_state = 0;
ARM GAS  /var/folders/9s/8rp0_f2s1n31qbztm3b5_fdh0000gn/T//ccsWBIEq.s 			page 2


   5:Thaumazein.cpp **** volatile float touch_cv_value = 0.0f;
   6:Thaumazein.cpp **** 
   7:Thaumazein.cpp **** void UpdateDisplay() {
  43              		.loc 1 7 22 view -0
  44              		.cfi_startproc
  45              		@ args = 0, pretend = 0, frame = 32
  46              		@ frame_needed = 0, uses_anonymous_args = 0
   8:Thaumazein.cpp ****     if (update_display) {
  47              		.loc 1 8 5 view .LVU1
   7:Thaumazein.cpp ****     if (update_display) {
  48              		.loc 1 7 22 is_stmt 0 view .LVU2
  49 0000 30B5     		push	{r4, r5, lr}
  50              		.cfi_def_cfa_offset 12
  51              		.cfi_offset 4, -12
  52              		.cfi_offset 5, -8
  53              		.cfi_offset 14, -4
  54              	.LBB72:
  55              		.loc 1 8 9 view .LVU3
  56 0002 314D     		ldr	r5, .L10
  57 0004 2B78     		ldrb	r3, [r5]	@ zero_extendqisi2
  58              	.LBE72:
   7:Thaumazein.cpp ****     if (update_display) {
  59              		.loc 1 7 22 view .LVU4
  60 0006 2DED028B 		vpush.64	{d8}
  61              		.cfi_def_cfa_offset 20
  62              		.cfi_offset 80, -20
  63              		.cfi_offset 81, -16
  64 000a 89B0     		sub	sp, sp, #36
  65              		.cfi_def_cfa_offset 56
  66              	.LBB73:
  67              		.loc 1 8 5 view .LVU5
  68 000c 002B     		cmp	r3, #0
  69 000e 57D0     		beq	.L1
  70              	.LBE73:
  71              	.LBB74:
  72              	.LBI74:
   7:Thaumazein.cpp ****     if (update_display) {
  73              		.loc 1 7 6 is_stmt 1 view .LVU6
  74              	.LBB75:
  75              	.LBB76:
   9:Thaumazein.cpp ****         // Get CPU Load from the CpuLoadMeter
  10:Thaumazein.cpp ****         float avg_cpu_load = cpu_meter.GetAvgCpuLoad();
  76              		.loc 1 10 9 view .LVU7
  77              	.LVL0:
  78              	.LBB77:
  79              	.LBI77:
  80              		.file 2 "lib/libdaisy/src/util/CpuLoadMeter.h"
   1:lib/libdaisy/src/util/CpuLoadMeter.h **** #pragma once
   2:lib/libdaisy/src/util/CpuLoadMeter.h **** 
   3:lib/libdaisy/src/util/CpuLoadMeter.h **** #include "sys/system.h"
   4:lib/libdaisy/src/util/CpuLoadMeter.h **** #include <cmath>
   5:lib/libdaisy/src/util/CpuLoadMeter.h **** 
   6:lib/libdaisy/src/util/CpuLoadMeter.h **** namespace daisy
   7:lib/libdaisy/src/util/CpuLoadMeter.h **** {
   8:lib/libdaisy/src/util/CpuLoadMeter.h **** /** @brief CPU load metering
   9:lib/libdaisy/src/util/CpuLoadMeter.h ****  *  @author jelliesen
  10:lib/libdaisy/src/util/CpuLoadMeter.h ****  *  @addtogroup utility
ARM GAS  /var/folders/9s/8rp0_f2s1n31qbztm3b5_fdh0000gn/T//ccsWBIEq.s 			page 3


  11:lib/libdaisy/src/util/CpuLoadMeter.h ****  * 
  12:lib/libdaisy/src/util/CpuLoadMeter.h ****  *  To measure the CPU load of your audio processing, create a CpuLoadMeter
  13:lib/libdaisy/src/util/CpuLoadMeter.h ****  *  and initialize it with your block size and sample rate.
  14:lib/libdaisy/src/util/CpuLoadMeter.h ****  *  Then at the beginning of the audio callback, call `OnBlockStart()`, 
  15:lib/libdaisy/src/util/CpuLoadMeter.h ****  *  and at the end of the audio callback, call `OnBlockEnd()`.
  16:lib/libdaisy/src/util/CpuLoadMeter.h ****  *  You can then read out the minimum, maximum and average CPU load.
  17:lib/libdaisy/src/util/CpuLoadMeter.h ****  */
  18:lib/libdaisy/src/util/CpuLoadMeter.h **** class CpuLoadMeter
  19:lib/libdaisy/src/util/CpuLoadMeter.h **** {
  20:lib/libdaisy/src/util/CpuLoadMeter.h ****   public:
  21:lib/libdaisy/src/util/CpuLoadMeter.h ****     CpuLoadMeter(){};
  22:lib/libdaisy/src/util/CpuLoadMeter.h **** 
  23:lib/libdaisy/src/util/CpuLoadMeter.h ****     /** Initializes the CpuLoadMeter for a particular sample rate and block size.
  24:lib/libdaisy/src/util/CpuLoadMeter.h ****      *  @param sampleRateInHz           The sample rate in Hz
  25:lib/libdaisy/src/util/CpuLoadMeter.h ****      *  @param blockSizeInSamples       The block size in samples
  26:lib/libdaisy/src/util/CpuLoadMeter.h ****      *  @param smoothingFilterCutoffHz  The cutoff frequency of the smoothing filter that's used to
  27:lib/libdaisy/src/util/CpuLoadMeter.h ****      *                                  create the average CPU load reading.
  28:lib/libdaisy/src/util/CpuLoadMeter.h ****      */
  29:lib/libdaisy/src/util/CpuLoadMeter.h ****     void Init(float sampleRateInHz,
  30:lib/libdaisy/src/util/CpuLoadMeter.h ****               int   blockSizeInSamples,
  31:lib/libdaisy/src/util/CpuLoadMeter.h ****               float smoothingFilterCutoffHz = 1.0f)
  32:lib/libdaisy/src/util/CpuLoadMeter.h ****     {
  33:lib/libdaisy/src/util/CpuLoadMeter.h ****         const auto secPerBlock = float(blockSizeInSamples) / sampleRateInHz;
  34:lib/libdaisy/src/util/CpuLoadMeter.h ****         const auto ticksPerS   = float(System::GetTickFreq());
  35:lib/libdaisy/src/util/CpuLoadMeter.h ****         ticksPerBlockInv_      = 1.0f / (ticksPerS * secPerBlock);
  36:lib/libdaisy/src/util/CpuLoadMeter.h **** 
  37:lib/libdaisy/src/util/CpuLoadMeter.h ****         // update filter coefficient for smoothing filter (1pole lowpass)
  38:lib/libdaisy/src/util/CpuLoadMeter.h ****         const auto blockRateInHz = sampleRateInHz / float(blockSizeInSamples);
  39:lib/libdaisy/src/util/CpuLoadMeter.h ****         const auto cutoffNormalized
  40:lib/libdaisy/src/util/CpuLoadMeter.h ****             = smoothingFilterCutoffHz * 2.0f * 3.141592653f / blockRateInHz;
  41:lib/libdaisy/src/util/CpuLoadMeter.h ****         // according to
  42:lib/libdaisy/src/util/CpuLoadMeter.h ****         // https://en.wikipedia.org/wiki/Low-pass_filter#Simple_infinite_impulse_response_filter
  43:lib/libdaisy/src/util/CpuLoadMeter.h ****         smoothingConstant_ = cutoffNormalized / (cutoffNormalized + 1.0f);
  44:lib/libdaisy/src/util/CpuLoadMeter.h **** 
  45:lib/libdaisy/src/util/CpuLoadMeter.h ****         Reset();
  46:lib/libdaisy/src/util/CpuLoadMeter.h ****     }
  47:lib/libdaisy/src/util/CpuLoadMeter.h **** 
  48:lib/libdaisy/src/util/CpuLoadMeter.h ****     /** Call this at the beginning of your audio callback */
  49:lib/libdaisy/src/util/CpuLoadMeter.h ****     void OnBlockStart() { currentBlockStartTicks_ = System::GetTick(); }
  50:lib/libdaisy/src/util/CpuLoadMeter.h **** 
  51:lib/libdaisy/src/util/CpuLoadMeter.h ****     /** Call this at the end of your audio callback */
  52:lib/libdaisy/src/util/CpuLoadMeter.h ****     void OnBlockEnd()
  53:lib/libdaisy/src/util/CpuLoadMeter.h ****     {
  54:lib/libdaisy/src/util/CpuLoadMeter.h ****         const auto end         = System::GetTick();
  55:lib/libdaisy/src/util/CpuLoadMeter.h ****         const auto ticksPassed = end - currentBlockStartTicks_;
  56:lib/libdaisy/src/util/CpuLoadMeter.h ****         const auto currentBlockLoad
  57:lib/libdaisy/src/util/CpuLoadMeter.h ****             = float(ticksPassed) * ticksPerBlockInv_; // usPassed / usPerBlock
  58:lib/libdaisy/src/util/CpuLoadMeter.h **** 
  59:lib/libdaisy/src/util/CpuLoadMeter.h ****         if(firstCycle_)
  60:lib/libdaisy/src/util/CpuLoadMeter.h ****         {
  61:lib/libdaisy/src/util/CpuLoadMeter.h ****             max_ = min_ = avg_ = currentBlockLoad;
  62:lib/libdaisy/src/util/CpuLoadMeter.h ****             firstCycle_        = false;
  63:lib/libdaisy/src/util/CpuLoadMeter.h ****         }
  64:lib/libdaisy/src/util/CpuLoadMeter.h ****         else
  65:lib/libdaisy/src/util/CpuLoadMeter.h ****         {
  66:lib/libdaisy/src/util/CpuLoadMeter.h ****             if(currentBlockLoad > max_)
  67:lib/libdaisy/src/util/CpuLoadMeter.h ****                 max_ = currentBlockLoad;
ARM GAS  /var/folders/9s/8rp0_f2s1n31qbztm3b5_fdh0000gn/T//ccsWBIEq.s 			page 4


  68:lib/libdaisy/src/util/CpuLoadMeter.h ****             if(currentBlockLoad < min_)
  69:lib/libdaisy/src/util/CpuLoadMeter.h ****                 min_ = currentBlockLoad;
  70:lib/libdaisy/src/util/CpuLoadMeter.h **** 
  71:lib/libdaisy/src/util/CpuLoadMeter.h ****             avg_ = smoothingConstant_ * currentBlockLoad
  72:lib/libdaisy/src/util/CpuLoadMeter.h ****                    + (1.0f - smoothingConstant_) * avg_;
  73:lib/libdaisy/src/util/CpuLoadMeter.h ****         }
  74:lib/libdaisy/src/util/CpuLoadMeter.h ****     }
  75:lib/libdaisy/src/util/CpuLoadMeter.h **** 
  76:lib/libdaisy/src/util/CpuLoadMeter.h ****     /** Returns the smoothed average CPU load in the range 0..1 */
  77:lib/libdaisy/src/util/CpuLoadMeter.h ****     float GetAvgCpuLoad() const { return avg_; }
  81              		.loc 2 77 11 view .LVU8
  82              	.LBB78:
  83              		.loc 2 77 35 view .LVU9
  84              		.loc 2 77 35 is_stmt 0 view .LVU10
  85              	.LBE78:
  86              	.LBE77:
  11:Thaumazein.cpp ****         int cpu_percent_int = static_cast<int>(avg_cpu_load * 100.0f);
  87              		.loc 1 11 9 is_stmt 1 view .LVU11
  12:Thaumazein.cpp ****         cpu_percent_int = cpu_percent_int < 0 ? 0 : (cpu_percent_int > 100 ? 100 : cpu_percent_int)
  88              		.loc 1 12 9 view .LVU12
  13:Thaumazein.cpp **** 
  14:Thaumazein.cpp ****         char buffer[32]; 
  89              		.loc 1 14 9 view .LVU13
  15:Thaumazein.cpp ****         sprintf(buffer, "CPU: %d", cpu_percent_int); 
  90              		.loc 1 15 9 view .LVU14
  91              	.LBB80:
  92              	.LBB79:
  93              		.loc 2 77 42 is_stmt 0 view .LVU15
  94 0010 2E4B     		ldr	r3, .L10+4
  95              	.LBE79:
  96              	.LBE80:
  97              		.loc 1 15 16 view .LVU16
  98 0012 6846     		mov	r0, sp
  11:Thaumazein.cpp ****         cpu_percent_int = cpu_percent_int < 0 ? 0 : (cpu_percent_int > 100 ? 100 : cpu_percent_int)
  99              		.loc 1 11 61 view .LVU17
 100 0014 9FED2E8A 		vldr.32	s16, .L10+8
 101              	.LBB81:
  16:Thaumazein.cpp ****         hw.PrintLine(buffer);
  17:Thaumazein.cpp ****         
  18:Thaumazein.cpp ****         // Determine current effective engine index again for display
  19:Thaumazein.cpp ****         int current_engine_idx = current_engine_index;
  20:Thaumazein.cpp ****         sprintf(buffer, "Engine: %d (%s)", current_engine_idx, (current_engine_idx <=3) ? "Poly-4" 
  21:Thaumazein.cpp ****         hw.PrintLine(buffer);
  22:Thaumazein.cpp ****         
  23:Thaumazein.cpp ****         // Print Smoothed Output Level
  24:Thaumazein.cpp ****         int level_percent = static_cast<int>(smoothed_output_level * 100.0f);
  25:Thaumazein.cpp ****         level_percent = level_percent < 0 ? 0 : (level_percent > 100 ? 100 : level_percent); // Cla
  26:Thaumazein.cpp ****         sprintf(buffer, "Level: %d%%", level_percent); 
  27:Thaumazein.cpp ****         hw.PrintLine(buffer);
  28:Thaumazein.cpp ****         
  29:Thaumazein.cpp ****         // Print all ADC raw values
  30:Thaumazein.cpp ****         for (int i = 0; i < 12; ++i) {
 102              		.loc 1 30 18 view .LVU18
 103 0018 0024     		movs	r4, #0
 104              	.LBE81:
  11:Thaumazein.cpp ****         cpu_percent_int = cpu_percent_int < 0 ? 0 : (cpu_percent_int > 100 ? 100 : cpu_percent_int)
 105              		.loc 1 11 61 view .LVU19
ARM GAS  /var/folders/9s/8rp0_f2s1n31qbztm3b5_fdh0000gn/T//ccsWBIEq.s 			page 5


 106 001a 93ED057A 		vldr.32	s14, [r3, #20]
  15:Thaumazein.cpp ****         hw.PrintLine(buffer);
 107              		.loc 1 15 16 view .LVU20
 108 001e 2D49     		ldr	r1, .L10+12
  11:Thaumazein.cpp ****         cpu_percent_int = cpu_percent_int < 0 ? 0 : (cpu_percent_int > 100 ? 100 : cpu_percent_int)
 109              		.loc 1 11 61 view .LVU21
 110 0020 27EE087A 		vmul.f32	s14, s14, s16
  11:Thaumazein.cpp ****         cpu_percent_int = cpu_percent_int < 0 ? 0 : (cpu_percent_int > 100 ? 100 : cpu_percent_int)
 111              		.loc 1 11 13 view .LVU22
 112 0024 FDEEC77A 		vcvt.s32.f32	s15, s14
 113 0028 17EE902A 		vmov	r2, s15	@ int
  12:Thaumazein.cpp **** 
 114              		.loc 1 12 47 view .LVU23
 115 002c 642A     		cmp	r2, #100
 116 002e A8BF     		it	ge
 117 0030 6422     		movge	r2, #100
  15:Thaumazein.cpp ****         hw.PrintLine(buffer);
 118              		.loc 1 15 16 view .LVU24
 119 0032 22EAE272 		bic	r2, r2, r2, asr #31
 120 0036 FFF7FEFF 		bl	sprintf
 121              	.LVL1:
  16:Thaumazein.cpp ****         hw.PrintLine(buffer);
 122              		.loc 1 16 9 is_stmt 1 view .LVU25
 123              	.LBB84:
 124              	.LBI84:
 125              		.file 3 "lib/libdaisy/src/daisy_seed.h"
   1:lib/libdaisy/src/daisy_seed.h **** #pragma once
   2:lib/libdaisy/src/daisy_seed.h **** #ifndef DSY_SEED_H
   3:lib/libdaisy/src/daisy_seed.h **** #define DSY_SEED_H
   4:lib/libdaisy/src/daisy_seed.h **** 
   5:lib/libdaisy/src/daisy_seed.h **** #include "daisy.h"
   6:lib/libdaisy/src/daisy_seed.h **** 
   7:lib/libdaisy/src/daisy_seed.h **** //Uncomment this out if you're still using the rev2 hardware
   8:lib/libdaisy/src/daisy_seed.h **** //#define SEED_REV2
   9:lib/libdaisy/src/daisy_seed.h **** 
  10:lib/libdaisy/src/daisy_seed.h **** namespace daisy
  11:lib/libdaisy/src/daisy_seed.h **** {
  12:lib/libdaisy/src/daisy_seed.h **** /**
  13:lib/libdaisy/src/daisy_seed.h ****    @brief This is the higher-level interface for the Daisy board. \n 
  14:lib/libdaisy/src/daisy_seed.h ****     All basic peripheral configuration/initialization is setup here. \n
  15:lib/libdaisy/src/daisy_seed.h **** 
  16:lib/libdaisy/src/daisy_seed.h ****    @ingroup boards
  17:lib/libdaisy/src/daisy_seed.h **** */
  18:lib/libdaisy/src/daisy_seed.h **** class DaisySeed
  19:lib/libdaisy/src/daisy_seed.h **** {
  20:lib/libdaisy/src/daisy_seed.h ****   public:
  21:lib/libdaisy/src/daisy_seed.h ****     DaisySeed() {}
  22:lib/libdaisy/src/daisy_seed.h ****     ~DaisySeed() {}
  23:lib/libdaisy/src/daisy_seed.h **** 
  24:lib/libdaisy/src/daisy_seed.h ****     /** This function used to provide a pre-initialization configuraiton 
  25:lib/libdaisy/src/daisy_seed.h ****      *  it has since been deprecated, and does nothing.
  26:lib/libdaisy/src/daisy_seed.h ****      */
  27:lib/libdaisy/src/daisy_seed.h ****     void Configure();
  28:lib/libdaisy/src/daisy_seed.h **** 
  29:lib/libdaisy/src/daisy_seed.h ****     /** 
  30:lib/libdaisy/src/daisy_seed.h ****     Initializes the Daisy Seed and the following peripherals:
  31:lib/libdaisy/src/daisy_seed.h ****     SDRAM, QSPI, 24-bit 48kHz Audio via AK4556, Internal USB,
ARM GAS  /var/folders/9s/8rp0_f2s1n31qbztm3b5_fdh0000gn/T//ccsWBIEq.s 			page 6


  32:lib/libdaisy/src/daisy_seed.h ****     as well as the built-in LED and Testpoint.
  33:lib/libdaisy/src/daisy_seed.h **** 
  34:lib/libdaisy/src/daisy_seed.h ****     ADCs, DACs, and other special peripherals (such as I2C, SPI, etc.)
  35:lib/libdaisy/src/daisy_seed.h ****     can be initialized using their specific initializers within libdaisy
  36:lib/libdaisy/src/daisy_seed.h ****     for a specific application.
  37:lib/libdaisy/src/daisy_seed.h ****     */
  38:lib/libdaisy/src/daisy_seed.h ****     void Init(bool boost = false);
  39:lib/libdaisy/src/daisy_seed.h **** 
  40:lib/libdaisy/src/daisy_seed.h ****     /** 
  41:lib/libdaisy/src/daisy_seed.h ****     Deinitializes all peripherals automatically handled by `Init`.
  42:lib/libdaisy/src/daisy_seed.h ****     */
  43:lib/libdaisy/src/daisy_seed.h ****     void DeInit();
  44:lib/libdaisy/src/daisy_seed.h **** 
  45:lib/libdaisy/src/daisy_seed.h ****     /** 
  46:lib/libdaisy/src/daisy_seed.h ****     Wait some ms before going on.
  47:lib/libdaisy/src/daisy_seed.h ****     \param del Delay time in ms.
  48:lib/libdaisy/src/daisy_seed.h ****     */
  49:lib/libdaisy/src/daisy_seed.h ****     void DelayMs(size_t del);
  50:lib/libdaisy/src/daisy_seed.h **** 
  51:lib/libdaisy/src/daisy_seed.h ****     /** 
  52:lib/libdaisy/src/daisy_seed.h ****     Returns the gpio_pin corresponding to the index 0-31.
  53:lib/libdaisy/src/daisy_seed.h ****     For the given GPIO on the Daisy Seed (labeled 1-32 in docs).
  54:lib/libdaisy/src/daisy_seed.h ****     */
  55:lib/libdaisy/src/daisy_seed.h ****     static dsy_gpio_pin GetPin(uint8_t pin_idx);
  56:lib/libdaisy/src/daisy_seed.h **** 
  57:lib/libdaisy/src/daisy_seed.h ****     /** Begins the audio for the seeds builtin audio.
  58:lib/libdaisy/src/daisy_seed.h ****     the specified callback will get called whenever
  59:lib/libdaisy/src/daisy_seed.h ****     new data is ready to be prepared.
  60:lib/libdaisy/src/daisy_seed.h ****     */
  61:lib/libdaisy/src/daisy_seed.h ****     void StartAudio(AudioHandle::InterleavingAudioCallback cb);
  62:lib/libdaisy/src/daisy_seed.h **** 
  63:lib/libdaisy/src/daisy_seed.h ****     /** Begins the audio for the seeds builtin audio.
  64:lib/libdaisy/src/daisy_seed.h ****     the specified callback will get called whenever
  65:lib/libdaisy/src/daisy_seed.h ****     new data is ready to be prepared.
  66:lib/libdaisy/src/daisy_seed.h ****     This will use the newer non-interleaved callback.
  67:lib/libdaisy/src/daisy_seed.h ****     */
  68:lib/libdaisy/src/daisy_seed.h ****     void StartAudio(AudioHandle::AudioCallback cb);
  69:lib/libdaisy/src/daisy_seed.h **** 
  70:lib/libdaisy/src/daisy_seed.h ****     /** Changes to a new interleaved callback
  71:lib/libdaisy/src/daisy_seed.h ****      */
  72:lib/libdaisy/src/daisy_seed.h ****     void ChangeAudioCallback(AudioHandle::InterleavingAudioCallback cb);
  73:lib/libdaisy/src/daisy_seed.h **** 
  74:lib/libdaisy/src/daisy_seed.h ****     /** Changes to a new multichannel callback
  75:lib/libdaisy/src/daisy_seed.h ****      */
  76:lib/libdaisy/src/daisy_seed.h ****     void ChangeAudioCallback(AudioHandle::AudioCallback cb);
  77:lib/libdaisy/src/daisy_seed.h **** 
  78:lib/libdaisy/src/daisy_seed.h ****     /** Stops the audio if it is running. */
  79:lib/libdaisy/src/daisy_seed.h ****     void StopAudio();
  80:lib/libdaisy/src/daisy_seed.h **** 
  81:lib/libdaisy/src/daisy_seed.h ****     /** Updates the Audio Sample Rate, and reinitializes.
  82:lib/libdaisy/src/daisy_seed.h ****      ** Audio must be stopped for this to work.
  83:lib/libdaisy/src/daisy_seed.h ****      */
  84:lib/libdaisy/src/daisy_seed.h ****     void SetAudioSampleRate(SaiHandle::Config::SampleRate samplerate);
  85:lib/libdaisy/src/daisy_seed.h **** 
  86:lib/libdaisy/src/daisy_seed.h ****     /** Returns the audio sample rate in Hz as a floating point number.
  87:lib/libdaisy/src/daisy_seed.h ****      */
  88:lib/libdaisy/src/daisy_seed.h ****     float AudioSampleRate();
ARM GAS  /var/folders/9s/8rp0_f2s1n31qbztm3b5_fdh0000gn/T//ccsWBIEq.s 			page 7


  89:lib/libdaisy/src/daisy_seed.h **** 
  90:lib/libdaisy/src/daisy_seed.h ****     /** Sets the number of samples processed per channel by the audio callback.
  91:lib/libdaisy/src/daisy_seed.h ****      */
  92:lib/libdaisy/src/daisy_seed.h ****     void SetAudioBlockSize(size_t blocksize);
  93:lib/libdaisy/src/daisy_seed.h **** 
  94:lib/libdaisy/src/daisy_seed.h ****     /** Returns the number of samples per channel in a block of audio. */
  95:lib/libdaisy/src/daisy_seed.h ****     size_t AudioBlockSize();
  96:lib/libdaisy/src/daisy_seed.h **** 
  97:lib/libdaisy/src/daisy_seed.h ****     /** Returns the rate in Hz that the Audio callback is called */
  98:lib/libdaisy/src/daisy_seed.h ****     float AudioCallbackRate() const;
  99:lib/libdaisy/src/daisy_seed.h **** 
 100:lib/libdaisy/src/daisy_seed.h ****     /** Sets the state of the built in LED
 101:lib/libdaisy/src/daisy_seed.h ****      */
 102:lib/libdaisy/src/daisy_seed.h ****     void SetLed(bool state);
 103:lib/libdaisy/src/daisy_seed.h **** 
 104:lib/libdaisy/src/daisy_seed.h ****     /** Sets the state of the test point near pin 10
 105:lib/libdaisy/src/daisy_seed.h ****      */
 106:lib/libdaisy/src/daisy_seed.h ****     void SetTestPoint(bool state);
 107:lib/libdaisy/src/daisy_seed.h **** 
 108:lib/libdaisy/src/daisy_seed.h ****     /** Print formatted debug log message
 109:lib/libdaisy/src/daisy_seed.h ****      */
 110:lib/libdaisy/src/daisy_seed.h ****     template <typename... VA>
 111:lib/libdaisy/src/daisy_seed.h ****     static void Print(const char* format, VA... va)
 112:lib/libdaisy/src/daisy_seed.h ****     {
 113:lib/libdaisy/src/daisy_seed.h ****         Log::Print(format, va...);
 114:lib/libdaisy/src/daisy_seed.h ****     }
 115:lib/libdaisy/src/daisy_seed.h **** 
 116:lib/libdaisy/src/daisy_seed.h ****     /** Print formatted debug log message with automatic line termination
 117:lib/libdaisy/src/daisy_seed.h ****     */
 118:lib/libdaisy/src/daisy_seed.h ****     template <typename... VA>
 119:lib/libdaisy/src/daisy_seed.h ****     static void PrintLine(const char* format, VA... va)
 126              		.loc 3 119 17 view .LVU26
 127              	.LBB85:
 120:lib/libdaisy/src/daisy_seed.h ****     {
 121:lib/libdaisy/src/daisy_seed.h ****         Log::PrintLine(format, va...);
 128              		.loc 3 121 23 is_stmt 0 view .LVU27
 129 003a 6846     		mov	r0, sp
 130 003c FFF7FEFF 		bl	_ZN5daisy6LoggerILNS_17LoggerDestinationE1EE9PrintLineEPKcz
 131              	.LVL2:
 132              		.loc 3 121 23 view .LVU28
 133              	.LBE85:
 134              	.LBE84:
  19:Thaumazein.cpp ****         sprintf(buffer, "Engine: %d (%s)", current_engine_idx, (current_engine_idx <=3) ? "Poly-4" 
 135              		.loc 1 19 9 is_stmt 1 view .LVU29
  19:Thaumazein.cpp ****         sprintf(buffer, "Engine: %d (%s)", current_engine_idx, (current_engine_idx <=3) ? "Poly-4" 
 136              		.loc 1 19 34 is_stmt 0 view .LVU30
 137 0040 254B     		ldr	r3, .L10+16
  20:Thaumazein.cpp ****         hw.PrintLine(buffer);
 138              		.loc 1 20 16 view .LVU31
 139 0042 2649     		ldr	r1, .L10+20
 140 0044 6846     		mov	r0, sp
  19:Thaumazein.cpp ****         sprintf(buffer, "Engine: %d (%s)", current_engine_idx, (current_engine_idx <=3) ? "Poly-4" 
 141              		.loc 1 19 34 view .LVU32
 142 0046 1A68     		ldr	r2, [r3]
 143              	.LVL3:
  20:Thaumazein.cpp ****         hw.PrintLine(buffer);
 144              		.loc 1 20 9 is_stmt 1 view .LVU33
ARM GAS  /var/folders/9s/8rp0_f2s1n31qbztm3b5_fdh0000gn/T//ccsWBIEq.s 			page 8


  20:Thaumazein.cpp ****         hw.PrintLine(buffer);
 145              		.loc 1 20 16 is_stmt 0 view .LVU34
 146 0048 254B     		ldr	r3, .L10+24
 147 004a 032A     		cmp	r2, #3
 148 004c D8BF     		it	le
 149 004e 0B46     		movle	r3, r1
 150 0050 2449     		ldr	r1, .L10+28
 151 0052 FFF7FEFF 		bl	sprintf
 152              	.LVL4:
  21:Thaumazein.cpp ****         
 153              		.loc 1 21 9 is_stmt 1 view .LVU35
 154              	.LBB86:
 155              	.LBI86:
 119:lib/libdaisy/src/daisy_seed.h ****     {
 156              		.loc 3 119 17 view .LVU36
 157              	.LBB87:
 158              		.loc 3 121 23 is_stmt 0 view .LVU37
 159 0056 6846     		mov	r0, sp
 160 0058 FFF7FEFF 		bl	_ZN5daisy6LoggerILNS_17LoggerDestinationE1EE9PrintLineEPKcz
 161              	.LVL5:
 162              		.loc 3 121 23 view .LVU38
 163              	.LBE87:
 164              	.LBE86:
  24:Thaumazein.cpp ****         level_percent = level_percent < 0 ? 0 : (level_percent > 100 ? 100 : level_percent); // Cla
 165              		.loc 1 24 9 is_stmt 1 view .LVU39
  24:Thaumazein.cpp ****         level_percent = level_percent < 0 ? 0 : (level_percent > 100 ? 100 : level_percent); // Cla
 166              		.loc 1 24 46 is_stmt 0 view .LVU40
 167 005c 224B     		ldr	r3, .L10+32
  26:Thaumazein.cpp ****         hw.PrintLine(buffer);
 168              		.loc 1 26 16 view .LVU41
 169 005e 2349     		ldr	r1, .L10+36
 170 0060 6846     		mov	r0, sp
  24:Thaumazein.cpp ****         level_percent = level_percent < 0 ? 0 : (level_percent > 100 ? 100 : level_percent); // Cla
 171              		.loc 1 24 46 view .LVU42
 172 0062 D3ED007A 		vldr.32	s15, [r3]
 173              	.LVL6:
  25:Thaumazein.cpp ****         sprintf(buffer, "Level: %d%%", level_percent); 
 174              		.loc 1 25 9 is_stmt 1 view .LVU43
  26:Thaumazein.cpp ****         hw.PrintLine(buffer);
 175              		.loc 1 26 9 view .LVU44
  24:Thaumazein.cpp ****         level_percent = level_percent < 0 ? 0 : (level_percent > 100 ? 100 : level_percent); // Cla
 176              		.loc 1 24 68 is_stmt 0 view .LVU45
 177 0066 67EE887A 		vmul.f32	s15, s15, s16
 178              	.LVL7:
  24:Thaumazein.cpp ****         level_percent = level_percent < 0 ? 0 : (level_percent > 100 ? 100 : level_percent); // Cla
 179              		.loc 1 24 76 view .LVU46
 180 006a FDEEE77A 		vcvt.s32.f32	s15, s15
 181 006e 17EE902A 		vmov	r2, s15	@ int
  25:Thaumazein.cpp ****         sprintf(buffer, "Level: %d%%", level_percent); 
 182              		.loc 1 25 43 view .LVU47
 183 0072 642A     		cmp	r2, #100
 184 0074 A8BF     		it	ge
 185 0076 6422     		movge	r2, #100
  26:Thaumazein.cpp ****         hw.PrintLine(buffer);
 186              		.loc 1 26 16 view .LVU48
 187 0078 22EAE272 		bic	r2, r2, r2, asr #31
 188 007c FFF7FEFF 		bl	sprintf
ARM GAS  /var/folders/9s/8rp0_f2s1n31qbztm3b5_fdh0000gn/T//ccsWBIEq.s 			page 9


 189              	.LVL8:
  27:Thaumazein.cpp ****         
 190              		.loc 1 27 9 is_stmt 1 view .LVU49
 191              	.LBB88:
 192              	.LBI88:
 119:lib/libdaisy/src/daisy_seed.h ****     {
 193              		.loc 3 119 17 view .LVU50
 194              	.LBB89:
 195              		.loc 3 121 23 is_stmt 0 view .LVU51
 196 0080 6846     		mov	r0, sp
 197 0082 FFF7FEFF 		bl	_ZN5daisy6LoggerILNS_17LoggerDestinationE1EE9PrintLineEPKcz
 198              	.LVL9:
 199              		.loc 3 121 23 view .LVU52
 200              	.LBE89:
 201              	.LBE88:
 202              		.loc 1 30 9 is_stmt 1 view .LVU53
 203              	.LBB90:
 204              		.loc 1 30 27 view .LVU54
 205              	.L4:
  31:Thaumazein.cpp ****             // Print ADC values as integers (multiplied by 1000 for precision)
  32:Thaumazein.cpp ****             sprintf(buffer, "ADC[%d]: %d", i, static_cast<int>(adc_raw_values[i] * 1000));
 206              		.loc 1 32 13 view .LVU55
 207              		.loc 1 32 80 is_stmt 0 view .LVU56
 208 0086 1A4B     		ldr	r3, .L10+40
 209              		.loc 1 32 20 view .LVU57
 210 0088 2246     		mov	r2, r4
 211              		.loc 1 32 82 view .LVU58
 212 008a 9FED1A7A 		vldr.32	s14, .L10+44
 213              		.loc 1 32 20 view .LVU59
 214 008e 6846     		mov	r0, sp
 215              		.loc 1 32 80 view .LVU60
 216 0090 03EB8403 		add	r3, r3, r4, lsl #2
 217              		.loc 1 32 20 view .LVU61
 218 0094 1849     		ldr	r1, .L10+48
  30:Thaumazein.cpp ****             // Print ADC values as integers (multiplied by 1000 for precision)
 219              		.loc 1 30 9 view .LVU62
 220 0096 0134     		adds	r4, r4, #1
 221              	.LVL10:
 222              		.loc 1 32 80 view .LVU63
 223 0098 D3ED007A 		vldr.32	s15, [r3]
 224              		.loc 1 32 82 view .LVU64
 225 009c 67EE877A 		vmul.f32	s15, s15, s14
 226              		.loc 1 32 20 view .LVU65
 227 00a0 FDEEE77A 		vcvt.s32.f32	s15, s15
 228 00a4 17EE903A 		vmov	r3, s15	@ int
 229 00a8 FFF7FEFF 		bl	sprintf
 230              	.LVL11:
  33:Thaumazein.cpp ****             hw.PrintLine(buffer);
 231              		.loc 1 33 13 is_stmt 1 view .LVU66
 232              	.LBB82:
 233              	.LBI82:
 119:lib/libdaisy/src/daisy_seed.h ****     {
 234              		.loc 3 119 17 view .LVU67
 235              	.LBB83:
 236              		.loc 3 121 23 is_stmt 0 view .LVU68
 237 00ac 6846     		mov	r0, sp
 238 00ae FFF7FEFF 		bl	_ZN5daisy6LoggerILNS_17LoggerDestinationE1EE9PrintLineEPKcz
ARM GAS  /var/folders/9s/8rp0_f2s1n31qbztm3b5_fdh0000gn/T//ccsWBIEq.s 			page 10


 239              	.LVL12:
 240              		.loc 3 121 23 view .LVU69
 241              	.LBE83:
 242              	.LBE82:
  30:Thaumazein.cpp ****             // Print ADC values as integers (multiplied by 1000 for precision)
 243              		.loc 1 30 9 is_stmt 1 view .LVU70
  30:Thaumazein.cpp ****             // Print ADC values as integers (multiplied by 1000 for precision)
 244              		.loc 1 30 27 view .LVU71
 245 00b2 0C2C     		cmp	r4, #12
 246 00b4 E7D1     		bne	.L4
 247              	.LBE90:
  34:Thaumazein.cpp ****         }
  35:Thaumazein.cpp ****         
  36:Thaumazein.cpp ****         hw.PrintLine("--------"); 
 248              		.loc 1 36 9 view .LVU72
 249              	.LVL13:
 250              	.LBB91:
 251              	.LBI91:
 119:lib/libdaisy/src/daisy_seed.h ****     {
 252              		.loc 3 119 17 view .LVU73
 253              	.LBB92:
 254              		.loc 3 121 23 is_stmt 0 view .LVU74
 255 00b6 1148     		ldr	r0, .L10+52
 256 00b8 FFF7FEFF 		bl	_ZN5daisy6LoggerILNS_17LoggerDestinationE1EE9PrintLineEPKcz
 257              	.LVL14:
 258              		.loc 3 121 23 view .LVU75
 259              	.LBE92:
 260              	.LBE91:
  37:Thaumazein.cpp ****         
  38:Thaumazein.cpp ****         update_display = false; 
 261              		.loc 1 38 9 is_stmt 1 view .LVU76
 262              		.loc 1 38 24 is_stmt 0 view .LVU77
 263 00bc 0023     		movs	r3, #0
 264 00be 2B70     		strb	r3, [r5]
 265              	.LVL15:
 266              	.L1:
 267              		.loc 1 38 24 view .LVU78
 268              	.LBE76:
 269              	.LBE75:
 270              	.LBE74:
  39:Thaumazein.cpp ****     }
  40:Thaumazein.cpp **** }
 271              		.loc 1 40 1 view .LVU79
 272 00c0 09B0     		add	sp, sp, #36
 273              		.cfi_def_cfa_offset 20
 274              		@ sp needed
 275 00c2 BDEC028B 		vldm	sp!, {d8}
 276              		.cfi_restore 80
 277              		.cfi_restore 81
 278              		.cfi_def_cfa_offset 12
 279 00c6 30BD     		pop	{r4, r5, pc}
 280              	.L11:
 281              		.align	2
 282              	.L10:
 283 00c8 00000000 		.word	update_display
 284 00cc 00000000 		.word	cpu_meter
 285 00d0 0000C842 		.word	1120403456
ARM GAS  /var/folders/9s/8rp0_f2s1n31qbztm3b5_fdh0000gn/T//ccsWBIEq.s 			page 11


 286 00d4 0C000000 		.word	.LC4
 287 00d8 00000000 		.word	current_engine_index
 288 00dc 00000000 		.word	.LC2
 289 00e0 07000000 		.word	.LC3
 290 00e4 14000000 		.word	.LC5
 291 00e8 00000000 		.word	smoothed_output_level
 292 00ec 24000000 		.word	.LC6
 293 00f0 00000000 		.word	adc_raw_values
 294 00f4 00007A44 		.word	1148846080
 295 00f8 30000000 		.word	.LC7
 296 00fc 3C000000 		.word	.LC8
 297              		.cfi_endproc
 298              	.LFE5343:
 300              		.section	.text._Z15PollTouchSensorv,"ax",%progbits
 301              		.align	1
 302              		.global	_Z15PollTouchSensorv
 303              		.syntax unified
 304              		.thumb
 305              		.thumb_func
 307              	_Z15PollTouchSensorv:
 308              	.LFB5344:
  41:Thaumazein.cpp **** 
  42:Thaumazein.cpp **** // Poll the touch sensor and update shared variables
  43:Thaumazein.cpp **** void PollTouchSensor() {
 309              		.loc 1 43 24 is_stmt 1 view -0
 310              		.cfi_startproc
 311              		@ args = 0, pretend = 0, frame = 24
 312              		@ frame_needed = 0, uses_anonymous_args = 0
  44:Thaumazein.cpp ****     // Recover from any I2C errors on the touch sensor
  45:Thaumazein.cpp ****     if(touch_sensor.HasError()) {
 313              		.loc 1 45 5 view .LVU81
  43:Thaumazein.cpp ****     // Recover from any I2C errors on the touch sensor
 314              		.loc 1 43 24 is_stmt 0 view .LVU82
 315 0000 70B5     		push	{r4, r5, r6, lr}
 316              		.cfi_def_cfa_offset 16
 317              		.cfi_offset 4, -16
 318              		.cfi_offset 5, -12
 319              		.cfi_offset 6, -8
 320              		.cfi_offset 14, -4
 321              	.LBB109:
 322              		.loc 1 45 29 view .LVU83
 323 0002 4048     		ldr	r0, .L28
 324              	.LBE109:
  43:Thaumazein.cpp ****     // Recover from any I2C errors on the touch sensor
 325              		.loc 1 43 24 view .LVU84
 326 0004 2DED028B 		vpush.64	{d8}
 327              		.cfi_def_cfa_offset 24
 328              		.cfi_offset 80, -24
 329              		.cfi_offset 81, -20
 330 0008 86B0     		sub	sp, sp, #24
 331              		.cfi_def_cfa_offset 48
 332              	.LBB123:
 333              		.loc 1 45 29 view .LVU85
 334 000a FFF7FEFF 		bl	_ZNK6Mpr1218HasErrorEv
 335              	.LVL16:
 336              		.loc 1 45 5 view .LVU86
 337 000e E8B1     		cbz	r0, .L13
ARM GAS  /var/folders/9s/8rp0_f2s1n31qbztm3b5_fdh0000gn/T//ccsWBIEq.s 			page 12


 338              	.LBB110:
  46:Thaumazein.cpp ****         touch_sensor.ClearError();
 339              		.loc 1 46 9 is_stmt 1 view .LVU87
 340              		.loc 1 46 32 is_stmt 0 view .LVU88
 341 0010 3C48     		ldr	r0, .L28
 342 0012 FFF7FEFF 		bl	_ZN6Mpr12110ClearErrorEv
 343              	.LVL17:
  47:Thaumazein.cpp ****         Mpr121::Config cfg;
 344              		.loc 1 47 9 is_stmt 1 view .LVU89
 345              	.LBB111:
 346              	.LBI111:
 347              		.file 4 "mpr121_daisy.h"
   1:mpr121_daisy.h **** #pragma once
   2:mpr121_daisy.h **** #ifndef MPR121_DAISY_H
   3:mpr121_daisy.h **** #define MPR121_DAISY_H
   4:mpr121_daisy.h **** 
   5:mpr121_daisy.h **** #include "daisy_seed.h"
   6:mpr121_daisy.h **** #include "per/i2c.h"
   7:mpr121_daisy.h **** 
   8:mpr121_daisy.h **** using namespace daisy;
   9:mpr121_daisy.h **** 
  10:mpr121_daisy.h **** /// mp
  11:mpr121_daisy.h **** 
  12:mpr121_daisy.h **** // Register map
  13:mpr121_daisy.h **** #define MPR121_TOUCHSTATUS_L 0x00
  14:mpr121_daisy.h **** #define MPR121_TOUCHSTATUS_H 0x01
  15:mpr121_daisy.h **** #define MPR121_FILTDATA_0L 0x04
  16:mpr121_daisy.h **** #define MPR121_FILTDATA_0H 0x05
  17:mpr121_daisy.h **** #define MPR121_BASELINE_0 0x1E
  18:mpr121_daisy.h **** #define MPR121_MHDR 0x2B
  19:mpr121_daisy.h **** #define MPR121_NHDR 0x2C
  20:mpr121_daisy.h **** #define MPR121_NCLR 0x2D
  21:mpr121_daisy.h **** #define MPR121_FDLR 0x2E
  22:mpr121_daisy.h **** #define MPR121_MHDF 0x2F
  23:mpr121_daisy.h **** #define MPR121_NHDF 0x30
  24:mpr121_daisy.h **** #define MPR121_NCLF 0x31
  25:mpr121_daisy.h **** #define MPR121_FDLF 0x32
  26:mpr121_daisy.h **** #define MPR121_NHDT 0x33
  27:mpr121_daisy.h **** #define MPR121_NCLT 0x34
  28:mpr121_daisy.h **** #define MPR121_FDLT 0x35
  29:mpr121_daisy.h **** 
  30:mpr121_daisy.h **** #define MPR121_TOUCHTH_0 0x41
  31:mpr121_daisy.h **** #define MPR121_RELEASETH_0 0x42
  32:mpr121_daisy.h **** #define MPR121_DEBOUNCE 0x5B
  33:mpr121_daisy.h **** #define MPR121_CONFIG1 0x5C
  34:mpr121_daisy.h **** #define MPR121_CONFIG2 0x5D
  35:mpr121_daisy.h **** #define MPR121_CHARGECURR_0 0x5F
  36:mpr121_daisy.h **** #define MPR121_CHARGETIME_1 0x6C
  37:mpr121_daisy.h **** #define MPR121_ECR 0x5E
  38:mpr121_daisy.h **** #define MPR121_AUTOCONFIG0 0x7B
  39:mpr121_daisy.h **** #define MPR121_AUTOCONFIG1 0x7C
  40:mpr121_daisy.h **** #define MPR121_UPLIMIT 0x7D
  41:mpr121_daisy.h **** #define MPR121_LOWLIMIT 0x7E
  42:mpr121_daisy.h **** #define MPR121_TARGETLIMIT 0x7F
  43:mpr121_daisy.h **** 
  44:mpr121_daisy.h **** #define MPR121_GPIODIR 0x76
  45:mpr121_daisy.h **** #define MPR121_GPIOEN 0x77
ARM GAS  /var/folders/9s/8rp0_f2s1n31qbztm3b5_fdh0000gn/T//ccsWBIEq.s 			page 13


  46:mpr121_daisy.h **** #define MPR121_GPIOSET 0x78
  47:mpr121_daisy.h **** #define MPR121_GPIOCLR 0x79
  48:mpr121_daisy.h **** #define MPR121_GPIOTOGGLE 0x7A
  49:mpr121_daisy.h **** 
  50:mpr121_daisy.h **** #define MPR121_SOFTRESET 0x80
  51:mpr121_daisy.h **** #define MPR121_I2CADDR_DEFAULT 0x5A
  52:mpr121_daisy.h **** 
  53:mpr121_daisy.h **** class Mpr121
  54:mpr121_daisy.h **** {
  55:mpr121_daisy.h ****   public:
  56:mpr121_daisy.h ****     Mpr121() {}
  57:mpr121_daisy.h ****     ~Mpr121() {}
  58:mpr121_daisy.h **** 
  59:mpr121_daisy.h ****     struct Config
 348              		.loc 4 59 12 view .LVU90
 349              	.LBB112:
 350              	.LBI112:
 351              		.file 5 "lib/libdaisy/src/per/i2c.h"
   1:lib/libdaisy/src/per/i2c.h **** #pragma once
   2:lib/libdaisy/src/per/i2c.h **** #include "daisy_core.h"
   3:lib/libdaisy/src/per/i2c.h **** 
   4:lib/libdaisy/src/per/i2c.h **** namespace daisy
   5:lib/libdaisy/src/per/i2c.h **** {
   6:lib/libdaisy/src/per/i2c.h **** /** A handle for interacting with an I2C peripheral. This is a dumb
   7:lib/libdaisy/src/per/i2c.h ****  *  gateway that internally points to one of the four I2C peripherals
   8:lib/libdaisy/src/per/i2c.h ****  *  after it was initialised. It can then be copied and passed around.
   9:lib/libdaisy/src/per/i2c.h ****  *  Use an I2CHandle like this:
  10:lib/libdaisy/src/per/i2c.h ****  *  
  11:lib/libdaisy/src/per/i2c.h ****  *      // setup the configuration
  12:lib/libdaisy/src/per/i2c.h ****  *      I2CHandle::Config i2c_conf;
  13:lib/libdaisy/src/per/i2c.h ****  *      i2c_conf.periph = I2CHandle::Config::Peripheral::I2C_1;
  14:lib/libdaisy/src/per/i2c.h ****  *      i2c_conf.speed  = I2CHandle::Config::Speed::I2C_400KHZ;
  15:lib/libdaisy/src/per/i2c.h ****  *      i2c_conf.mode   = I2CHandle::Config::Mode::Master;
  16:lib/libdaisy/src/per/i2c.h ****  *      i2c_conf.pin_config.scl  = {DSY_GPIOB, 8};
  17:lib/libdaisy/src/per/i2c.h ****  *      i2c_conf.pin_config.sda  = {DSY_GPIOB, 9};
  18:lib/libdaisy/src/per/i2c.h ****  *      // initialise the peripheral
  19:lib/libdaisy/src/per/i2c.h ****  *      I2CHandle i2c;
  20:lib/libdaisy/src/per/i2c.h ****  *      i2c.Init(i2c_conf);
  21:lib/libdaisy/src/per/i2c.h ****  *      // now i2c points to the corresponding peripheral and can be used.
  22:lib/libdaisy/src/per/i2c.h ****  *      i2c.TransmitBlocking( ... );
  23:lib/libdaisy/src/per/i2c.h ****  */
  24:lib/libdaisy/src/per/i2c.h **** class I2CHandle
  25:lib/libdaisy/src/per/i2c.h **** {
  26:lib/libdaisy/src/per/i2c.h ****   public:
  27:lib/libdaisy/src/per/i2c.h ****     /** Contains settings for initialising an I2C interface. */
  28:lib/libdaisy/src/per/i2c.h ****     struct Config
 352              		.loc 5 28 12 view .LVU91
 353              	.LBB113:
 354 0016 1023     		movs	r3, #16
 355              	.LBE113:
 356              	.LBE112:
 357              	.LBE111:
 358              	.LBB116:
 359              	.LBB117:
  60:mpr121_daisy.h ****     {
  61:mpr121_daisy.h ****         I2CHandle::Config i2c_config;
  62:mpr121_daisy.h ****         uint8_t          i2c_address;
ARM GAS  /var/folders/9s/8rp0_f2s1n31qbztm3b5_fdh0000gn/T//ccsWBIEq.s 			page 14


  63:mpr121_daisy.h **** 
  64:mpr121_daisy.h ****         void Defaults()
  65:mpr121_daisy.h ****         {
  66:mpr121_daisy.h ****             i2c_config.periph = I2CHandle::Config::Peripheral::I2C_1;
  67:mpr121_daisy.h ****             i2c_config.speed  = I2CHandle::Config::Speed::I2C_400KHZ;
 360              		.loc 4 67 31 is_stmt 0 view .LVU92
 361 0018 0122     		movs	r2, #1
 362              	.LBE117:
 363              	.LBE116:
  48:Thaumazein.cpp ****         cfg.Defaults();
  49:Thaumazein.cpp ****         touch_sensor.Init(cfg);
 364              		.loc 1 49 26 view .LVU93
 365 001a 6946     		mov	r1, sp
 366              	.LBB120:
 367              	.LBB115:
 368              	.LBB114:
 369              		.loc 5 28 12 view .LVU94
 370 001c 8DF81030 		strb	r3, [sp, #16]
 371              	.LVL18:
 372              		.loc 5 28 12 view .LVU95
 373              	.LBE114:
 374              	.LBE115:
 375              	.LBE120:
  48:Thaumazein.cpp ****         cfg.Defaults();
 376              		.loc 1 48 9 is_stmt 1 view .LVU96
 377              	.LBB121:
 378              	.LBI116:
  64:mpr121_daisy.h ****         {
 379              		.loc 4 64 14 view .LVU97
 380              	.LBB118:
  66:mpr121_daisy.h ****             i2c_config.speed  = I2CHandle::Config::Speed::I2C_400KHZ;
 381              		.loc 4 66 13 view .LVU98
  66:mpr121_daisy.h ****             i2c_config.speed  = I2CHandle::Config::Speed::I2C_400KHZ;
 382              		.loc 4 66 31 is_stmt 0 view .LVU99
 383 0020 0023     		movs	r3, #0
 384              	.LBE118:
 385              	.LBE121:
 386              		.loc 1 49 26 view .LVU100
 387 0022 3848     		ldr	r0, .L28
 388              	.LBB122:
 389              	.LBB119:
  66:mpr121_daisy.h ****             i2c_config.speed  = I2CHandle::Config::Speed::I2C_400KHZ;
 390              		.loc 4 66 31 view .LVU101
 391 0024 0093     		str	r3, [sp]
 392              		.loc 4 67 13 is_stmt 1 view .LVU102
  68:mpr121_daisy.h ****             i2c_config.mode   = I2CHandle::Config::Mode::I2C_MASTER;
 393              		.loc 4 68 31 is_stmt 0 view .LVU103
 394 0026 CDE90223 		strd	r2, r3, [sp, #8]
  69:mpr121_daisy.h ****             i2c_config.pin_config.scl = {DSY_GPIOB, 8};
 395              		.loc 4 69 13 is_stmt 1 view .LVU104
 396              		.loc 4 69 39 is_stmt 0 view .LVU105
 397 002a 374B     		ldr	r3, .L28+4
 398 002c 1A88     		ldrh	r2, [r3]	@ unaligned
  70:mpr121_daisy.h ****             i2c_config.pin_config.sda = {DSY_GPIOB, 9};
 399              		.loc 4 70 39 view .LVU106
 400 002e 5B88     		ldrh	r3, [r3, #2]	@ unaligned
  69:mpr121_daisy.h ****             i2c_config.pin_config.scl = {DSY_GPIOB, 8};
ARM GAS  /var/folders/9s/8rp0_f2s1n31qbztm3b5_fdh0000gn/T//ccsWBIEq.s 			page 15


 401              		.loc 4 69 39 view .LVU107
 402 0030 ADF80420 		strh	r2, [sp, #4]	@ unaligned
 403              		.loc 4 70 13 is_stmt 1 view .LVU108
 404              		.loc 4 70 39 is_stmt 0 view .LVU109
 405 0034 ADF80630 		strh	r3, [sp, #6]	@ unaligned
  71:mpr121_daisy.h ****             i2c_address               = MPR121_I2CADDR_DEFAULT;
 406              		.loc 4 71 13 is_stmt 1 view .LVU110
 407              		.loc 4 71 39 is_stmt 0 view .LVU111
 408 0038 5A23     		movs	r3, #90
 409 003a 8DF81430 		strb	r3, [sp, #20]
 410              	.LVL19:
 411              		.loc 4 71 39 view .LVU112
 412              	.LBE119:
 413              	.LBE122:
 414              		.loc 1 49 9 is_stmt 1 view .LVU113
 415              		.loc 1 49 26 is_stmt 0 view .LVU114
 416 003e FFF7FEFF 		bl	_ZN6Mpr1214InitERKNS_6ConfigE
 417              	.LVL20:
  50:Thaumazein.cpp ****         touch_sensor.SetThresholds(6, 3);
 418              		.loc 1 50 9 is_stmt 1 view .LVU115
 419              		.loc 1 50 35 is_stmt 0 view .LVU116
 420 0042 0322     		movs	r2, #3
 421 0044 0621     		movs	r1, #6
 422 0046 2F48     		ldr	r0, .L28
 423 0048 FFF7FEFF 		bl	_ZN6Mpr12113SetThresholdsEhh
 424              	.LVL21:
 425              	.L13:
 426              	.LBE110:
 427              	.LBE123:
  51:Thaumazein.cpp ****     }
  52:Thaumazein.cpp ****     uint16_t touched = touch_sensor.Touched();
 428              		.loc 1 52 5 is_stmt 1 view .LVU117
 429              		.loc 1 52 44 is_stmt 0 view .LVU118
 430 004c 2D48     		ldr	r0, .L28
 431 004e FFF7FEFF 		bl	_ZN6Mpr1217TouchedEv
 432              	.LVL22:
  53:Thaumazein.cpp ****     current_touch_state = touched;
 433              		.loc 1 53 25 view .LVU119
 434 0052 2E4B     		ldr	r3, .L28+8
  52:Thaumazein.cpp ****     current_touch_state = touched;
 435              		.loc 1 52 44 view .LVU120
 436 0054 0646     		mov	r6, r0
 437              	.LVL23:
 438              		.loc 1 53 5 is_stmt 1 view .LVU121
 439              		.loc 1 53 25 is_stmt 0 view .LVU122
 440 0056 1880     		strh	r0, [r3]	@ movhi
  54:Thaumazein.cpp **** 
  55:Thaumazein.cpp ****     if (touched == 0) {
 441              		.loc 1 55 5 is_stmt 1 view .LVU123
 442 0058 60B9     		cbnz	r0, .L18
  56:Thaumazein.cpp ****         // Optionally decay the control value smoothly to 0 when no pads are touched
  57:Thaumazein.cpp ****         touch_cv_value = touch_cv_value * 0.95f; 
 443              		.loc 1 57 9 view .LVU124
 444              		.loc 1 57 26 is_stmt 0 view .LVU125
 445 005a 2D4B     		ldr	r3, .L28+12
 446              		.loc 1 57 41 view .LVU126
 447 005c 9FED2D7A 		vldr.32	s14, .L28+16
ARM GAS  /var/folders/9s/8rp0_f2s1n31qbztm3b5_fdh0000gn/T//ccsWBIEq.s 			page 16


 448              		.loc 1 57 26 view .LVU127
 449 0060 D3ED007A 		vldr.32	s15, [r3]
 450              		.loc 1 57 41 view .LVU128
 451 0064 67EE877A 		vmul.f32	s15, s15, s14
 452              	.LVL24:
 453              	.L27:
  58:Thaumazein.cpp ****         return;
  59:Thaumazein.cpp ****     }
  60:Thaumazein.cpp **** 
  61:Thaumazein.cpp ****     float total_deviation = 0.0f;
  62:Thaumazein.cpp ****     int touched_count = 0;
  63:Thaumazein.cpp **** 
  64:Thaumazein.cpp ****     // Iterate through all pads
  65:Thaumazein.cpp ****     for (int i = 0; i < 12; i++) {
  66:Thaumazein.cpp ****         if (touched & (1 << i)) {
  67:Thaumazein.cpp ****             // Get capacitance deviation for this touched pad
  68:Thaumazein.cpp ****             int16_t deviation = touch_sensor.GetBaselineDeviation(i);
  69:Thaumazein.cpp ****             total_deviation += deviation;
  70:Thaumazein.cpp ****             touched_count++;
  71:Thaumazein.cpp ****         }
  72:Thaumazein.cpp ****     }
  73:Thaumazein.cpp **** 
  74:Thaumazein.cpp ****     float average_deviation = 0.0f;
  75:Thaumazein.cpp ****     if (touched_count > 0) {
  76:Thaumazein.cpp ****         average_deviation = total_deviation / touched_count;
  77:Thaumazein.cpp ****     }
  78:Thaumazein.cpp **** 
  79:Thaumazein.cpp ****     // Normalize to 0.0-1.0 range with adjustable sensitivity
  80:Thaumazein.cpp ****     // Consider recalibrating sensitivity if needed for average pressure
  81:Thaumazein.cpp ****     float sensitivity = 150.0f;
  82:Thaumazein.cpp ****     float normalized_value = daisysp::fmax(0.0f, daisysp::fmin(1.0f, average_deviation / sensitivit
  83:Thaumazein.cpp **** 
  84:Thaumazein.cpp ****     // Apply curve for better control response (squared curve feels more natural)
  85:Thaumazein.cpp ****     normalized_value = normalized_value * normalized_value;
  86:Thaumazein.cpp **** 
  87:Thaumazein.cpp ****     // Remove the position component - control is now based purely on average pressure
  88:Thaumazein.cpp ****     // float position_value = highest_pad / 11.0f; // Removed
  89:Thaumazein.cpp ****     // float position_weight = 0.7f;              // Removed
  90:Thaumazein.cpp ****     // float combined_value = position_value * position_weight + normalized_value * (1.0f - positio
  91:Thaumazein.cpp ****     float combined_value = normalized_value; // Use normalized average pressure directly
  92:Thaumazein.cpp **** 
  93:Thaumazein.cpp ****     // Apply adaptive smoothing - more smoothing for small changes, less for big changes
  94:Thaumazein.cpp ****     float change = fabsf(combined_value - touch_cv_value);
  95:Thaumazein.cpp ****     float smoothing = daisysp::fmax(0.5f, 0.95f - change * 2.0f); // 0.5-0.95 smoothing range
  96:Thaumazein.cpp **** 
  97:Thaumazein.cpp ****     // Update the shared volatile variable
  98:Thaumazein.cpp ****     touch_cv_value = touch_cv_value * smoothing + combined_value * (1.0f - smoothing);
 454              		.loc 1 98 20 view .LVU129
 455 0068 C3ED007A 		vstr.32	s15, [r3]
  99:Thaumazein.cpp **** }
 456              		.loc 1 99 1 view .LVU130
 457 006c 06B0     		add	sp, sp, #24
 458              		.cfi_remember_state
 459              		.cfi_def_cfa_offset 24
 460              		@ sp needed
 461 006e BDEC028B 		vldm	sp!, {d8}
 462              		.cfi_restore 80
ARM GAS  /var/folders/9s/8rp0_f2s1n31qbztm3b5_fdh0000gn/T//ccsWBIEq.s 			page 17


 463              		.cfi_restore 81
 464              		.cfi_def_cfa_offset 16
 465 0072 70BD     		pop	{r4, r5, r6, pc}
 466              	.LVL25:
 467              	.L18:
 468              		.cfi_restore_state
  61:Thaumazein.cpp ****     int touched_count = 0;
 469              		.loc 1 61 11 view .LVU131
 470 0074 DFED288A 		vldr.32	s17, .L28+20
 471              	.LBB124:
  65:Thaumazein.cpp ****         if (touched & (1 << i)) {
 472              		.loc 1 65 14 view .LVU132
 473 0078 0025     		movs	r5, #0
 474 007a B0EE688A 		vmov.f32	s16, s17
 475              	.LBE124:
  62:Thaumazein.cpp **** 
 476              		.loc 1 62 9 view .LVU133
 477 007e 2C46     		mov	r4, r5
 478              	.LVL26:
 479              	.L14:
  66:Thaumazein.cpp ****             // Get capacitance deviation for this touched pad
 480              		.loc 1 66 9 is_stmt 1 view .LVU134
 481              	.LBB127:
 482              	.LBB125:
  66:Thaumazein.cpp ****             // Get capacitance deviation for this touched pad
 483              		.loc 1 66 21 is_stmt 0 view .LVU135
 484 0080 46FA05F3 		asr	r3, r6, r5
  66:Thaumazein.cpp ****             // Get capacitance deviation for this touched pad
 485              		.loc 1 66 9 view .LVU136
 486 0084 DB07     		lsls	r3, r3, #31
 487 0086 0AD5     		bpl	.L16
 488              	.LBB126:
  68:Thaumazein.cpp ****             total_deviation += deviation;
 489              		.loc 1 68 13 is_stmt 1 view .LVU137
  68:Thaumazein.cpp ****             total_deviation += deviation;
 490              		.loc 1 68 66 is_stmt 0 view .LVU138
 491 0088 E9B2     		uxtb	r1, r5
 492 008a 1E48     		ldr	r0, .L28
 493 008c FFF7FEFF 		bl	_ZN6Mpr12120GetBaselineDeviationEh
 494              	.LVL27:
  69:Thaumazein.cpp ****             touched_count++;
 495              		.loc 1 69 13 is_stmt 1 view .LVU139
  69:Thaumazein.cpp ****             touched_count++;
 496              		.loc 1 69 29 is_stmt 0 view .LVU140
 497 0090 07EE900A 		vmov	s15, r0	@ int
  70:Thaumazein.cpp ****         }
 498              		.loc 1 70 26 view .LVU141
 499 0094 0134     		adds	r4, r4, #1
 500              	.LVL28:
  69:Thaumazein.cpp ****             touched_count++;
 501              		.loc 1 69 29 view .LVU142
 502 0096 F8EEE77A 		vcvt.f32.s32	s15, s15
 503 009a 78EEA78A 		vadd.f32	s17, s17, s15
 504              	.LVL29:
  70:Thaumazein.cpp ****         }
 505              		.loc 1 70 13 is_stmt 1 view .LVU143
 506              	.L16:
ARM GAS  /var/folders/9s/8rp0_f2s1n31qbztm3b5_fdh0000gn/T//ccsWBIEq.s 			page 18


  70:Thaumazein.cpp ****         }
 507              		.loc 1 70 13 is_stmt 0 view .LVU144
 508              	.LBE126:
 509              	.LBE125:
  65:Thaumazein.cpp ****         if (touched & (1 << i)) {
 510              		.loc 1 65 5 is_stmt 1 discriminator 2 view .LVU145
 511 009e 0135     		adds	r5, r5, #1
 512              	.LVL30:
  65:Thaumazein.cpp ****         if (touched & (1 << i)) {
 513              		.loc 1 65 23 discriminator 2 view .LVU146
 514 00a0 0C2D     		cmp	r5, #12
 515 00a2 EDD1     		bne	.L14
  65:Thaumazein.cpp ****         if (touched & (1 << i)) {
 516              		.loc 1 65 23 is_stmt 0 discriminator 2 view .LVU147
 517              	.LBE127:
  74:Thaumazein.cpp ****     if (touched_count > 0) {
 518              		.loc 1 74 5 is_stmt 1 view .LVU148
 519              	.LVL31:
  75:Thaumazein.cpp ****         average_deviation = total_deviation / touched_count;
 520              		.loc 1 75 5 view .LVU149
 521 00a4 5CB3     		cbz	r4, .L19
  76:Thaumazein.cpp ****     }
 522              		.loc 1 76 9 view .LVU150
  76:Thaumazein.cpp ****     }
 523              		.loc 1 76 45 is_stmt 0 view .LVU151
 524 00a6 07EE904A 		vmov	s15, r4	@ int
 525 00aa F8EEE77A 		vcvt.f32.s32	s15, s15
  76:Thaumazein.cpp ****     }
 526              		.loc 1 76 27 view .LVU152
 527 00ae C8EEA76A 		vdiv.f32	s13, s17, s15
 528              	.LVL32:
 529              	.L17:
  81:Thaumazein.cpp ****     float normalized_value = daisysp::fmax(0.0f, daisysp::fmin(1.0f, average_deviation / sensitivit
 530              		.loc 1 81 5 is_stmt 1 view .LVU153
  82:Thaumazein.cpp **** 
 531              		.loc 1 82 5 view .LVU154
 532              	.LBB128:
 533              	.LBI128:
 534              		.file 6 "lib/DaisySP/Source/Utility/dsp.h"
   1:lib/DaisySP/Source/Utility/dsp.h **** /*
   2:lib/DaisySP/Source/Utility/dsp.h **** Copyright (c) 2020 Electrosmith, Corp, Emilie Gillet
   3:lib/DaisySP/Source/Utility/dsp.h **** 
   4:lib/DaisySP/Source/Utility/dsp.h **** Use of this source code is governed by an MIT-style
   5:lib/DaisySP/Source/Utility/dsp.h **** license that can be found in the LICENSE file or at
   6:lib/DaisySP/Source/Utility/dsp.h **** https://opensource.org/licenses/MIT.
   7:lib/DaisySP/Source/Utility/dsp.h **** */
   8:lib/DaisySP/Source/Utility/dsp.h **** 
   9:lib/DaisySP/Source/Utility/dsp.h **** /** Helpful defines, functions, and other utilities for use in/with daisysp modules.
  10:lib/DaisySP/Source/Utility/dsp.h **** */
  11:lib/DaisySP/Source/Utility/dsp.h **** #pragma once
  12:lib/DaisySP/Source/Utility/dsp.h **** #ifndef DSY_CORE_DSP
  13:lib/DaisySP/Source/Utility/dsp.h **** #define DSY_CORE_DSP
  14:lib/DaisySP/Source/Utility/dsp.h **** #include <cassert>
  15:lib/DaisySP/Source/Utility/dsp.h **** #include <cstdint>
  16:lib/DaisySP/Source/Utility/dsp.h **** #include <random>
  17:lib/DaisySP/Source/Utility/dsp.h **** #include <cmath>
  18:lib/DaisySP/Source/Utility/dsp.h **** 
ARM GAS  /var/folders/9s/8rp0_f2s1n31qbztm3b5_fdh0000gn/T//ccsWBIEq.s 			page 19


  19:lib/DaisySP/Source/Utility/dsp.h **** /** PIs
  20:lib/DaisySP/Source/Utility/dsp.h **** */
  21:lib/DaisySP/Source/Utility/dsp.h **** #define PI_F 3.1415927410125732421875f
  22:lib/DaisySP/Source/Utility/dsp.h **** #define TWOPI_F (2.0f * PI_F)
  23:lib/DaisySP/Source/Utility/dsp.h **** #define HALFPI_F (PI_F * 0.5f)
  24:lib/DaisySP/Source/Utility/dsp.h **** #define DSY_MIN(in, mn) (in < mn ? in : mn)
  25:lib/DaisySP/Source/Utility/dsp.h **** #define DSY_MAX(in, mx) (in > mx ? in : mx)
  26:lib/DaisySP/Source/Utility/dsp.h **** #define DSY_CLAMP(in, mn, mx) (DSY_MIN(DSY_MAX(in, mn), mx))
  27:lib/DaisySP/Source/Utility/dsp.h **** #define DSY_COUNTOF(_arr) (sizeof(_arr) / sizeof(_arr[0]))
  28:lib/DaisySP/Source/Utility/dsp.h **** 
  29:lib/DaisySP/Source/Utility/dsp.h **** namespace daisysp
  30:lib/DaisySP/Source/Utility/dsp.h **** {
  31:lib/DaisySP/Source/Utility/dsp.h **** //Avoids division for random floats. e.g. rand() * kRandFrac
  32:lib/DaisySP/Source/Utility/dsp.h **** static constexpr float kRandFrac = 1.f / (float)RAND_MAX;
  33:lib/DaisySP/Source/Utility/dsp.h **** 
  34:lib/DaisySP/Source/Utility/dsp.h **** //Convert from semitones to other units. e.g. 2 ^ (kOneTwelfth * x)
  35:lib/DaisySP/Source/Utility/dsp.h **** static constexpr float kOneTwelfth = 1.f / 12.f;
  36:lib/DaisySP/Source/Utility/dsp.h **** 
  37:lib/DaisySP/Source/Utility/dsp.h **** /** efficient floating point min/max
  38:lib/DaisySP/Source/Utility/dsp.h **** c/o stephen mccaul
  39:lib/DaisySP/Source/Utility/dsp.h **** */
  40:lib/DaisySP/Source/Utility/dsp.h **** inline float fmax(float a, float b)
  41:lib/DaisySP/Source/Utility/dsp.h **** {
  42:lib/DaisySP/Source/Utility/dsp.h ****     float r;
  43:lib/DaisySP/Source/Utility/dsp.h **** #ifdef __arm__
  44:lib/DaisySP/Source/Utility/dsp.h ****     asm("vmaxnm.f32 %[d], %[n], %[m]" : [d] "=t"(r) : [n] "t"(a), [m] "t"(b) :);
  45:lib/DaisySP/Source/Utility/dsp.h **** #else
  46:lib/DaisySP/Source/Utility/dsp.h ****     r = (a > b) ? a : b;
  47:lib/DaisySP/Source/Utility/dsp.h **** #endif // __arm__
  48:lib/DaisySP/Source/Utility/dsp.h ****     return r;
  49:lib/DaisySP/Source/Utility/dsp.h **** }
  50:lib/DaisySP/Source/Utility/dsp.h **** 
  51:lib/DaisySP/Source/Utility/dsp.h **** inline float fmin(float a, float b)
 535              		.loc 6 51 14 view .LVU155
 536              	.LBB129:
  52:lib/DaisySP/Source/Utility/dsp.h **** {
  53:lib/DaisySP/Source/Utility/dsp.h ****     float r;
 537              		.loc 6 53 5 view .LVU156
  54:lib/DaisySP/Source/Utility/dsp.h **** #ifdef __arm__
  55:lib/DaisySP/Source/Utility/dsp.h ****     asm("vminnm.f32 %[d], %[n], %[m]" : [d] "=t"(r) : [n] "t"(a), [m] "t"(b) :);
 538              		.loc 6 55 5 view .LVU157
 539              	.LBE129:
 540              	.LBE128:
  82:Thaumazein.cpp **** 
 541              		.loc 1 82 43 is_stmt 0 view .LVU158
 542 00b2 9FED1A6A 		vldr.32	s12, .L28+24
  94:Thaumazein.cpp ****     float smoothing = daisysp::fmax(0.5f, 0.95f - change * 2.0f); // 0.5-0.95 smoothing range
 543              		.loc 1 94 43 view .LVU159
 544 00b6 164B     		ldr	r3, .L28+12
  82:Thaumazein.cpp **** 
 545              		.loc 1 82 43 view .LVU160
 546 00b8 86EE867A 		vdiv.f32	s14, s13, s12
 547              	.LVL33:
  94:Thaumazein.cpp ****     float smoothing = daisysp::fmax(0.5f, 0.95f - change * 2.0f); // 0.5-0.95 smoothing range
 548              		.loc 1 94 43 view .LVU161
 549 00bc D3ED006A 		vldr.32	s13, [r3]
 550              	.LVL34:
ARM GAS  /var/folders/9s/8rp0_f2s1n31qbztm3b5_fdh0000gn/T//ccsWBIEq.s 			page 20


  95:Thaumazein.cpp **** 
 551              		.loc 1 95 36 view .LVU162
 552 00c0 9FED146A 		vldr.32	s12, .L28+16
 553              	.LBB131:
 554              	.LBB130:
 555              		.loc 6 55 5 view .LVU163
 556 00c4 F7EE007A 		vmov.f32	s15, #1.0e+0
 557              		.syntax unified
 558              	@ 55 "lib/DaisySP/Source/Utility/dsp.h" 1
 559 00c8 87FEC77A 		vminnm.f32 s14, s15, s14
 560              	@ 0 "" 2
 561              	.LVL35:
  56:lib/DaisySP/Source/Utility/dsp.h **** #else
  57:lib/DaisySP/Source/Utility/dsp.h ****     r = (a < b) ? a : b;
  58:lib/DaisySP/Source/Utility/dsp.h **** #endif // __arm__
  59:lib/DaisySP/Source/Utility/dsp.h ****     return r;
 562              		.loc 6 59 5 is_stmt 1 view .LVU164
 563              		.loc 6 59 5 is_stmt 0 view .LVU165
 564              		.thumb
 565              		.syntax unified
 566              	.LBE130:
 567              	.LBE131:
 568              	.LBB132:
 569              	.LBI132:
  40:lib/DaisySP/Source/Utility/dsp.h **** {
 570              		.loc 6 40 14 is_stmt 1 view .LVU166
 571              	.LBB133:
  42:lib/DaisySP/Source/Utility/dsp.h **** #ifdef __arm__
 572              		.loc 6 42 5 view .LVU167
  44:lib/DaisySP/Source/Utility/dsp.h **** #else
 573              		.loc 6 44 5 view .LVU168
 574              		.syntax unified
 575              	@ 44 "lib/DaisySP/Source/Utility/dsp.h" 1
 576 00cc 88FE077A 		vmaxnm.f32 s14, s16, s14
 577              	@ 0 "" 2
 578              	.LVL36:
  48:lib/DaisySP/Source/Utility/dsp.h **** }
 579              		.loc 6 48 5 view .LVU169
  48:lib/DaisySP/Source/Utility/dsp.h **** }
 580              		.loc 6 48 5 is_stmt 0 view .LVU170
 581              		.thumb
 582              		.syntax unified
 583              	.LBE133:
 584              	.LBE132:
  85:Thaumazein.cpp **** 
 585              		.loc 1 85 5 is_stmt 1 view .LVU171
  85:Thaumazein.cpp **** 
 586              		.loc 1 85 22 is_stmt 0 view .LVU172
 587 00d0 27EE077A 		vmul.f32	s14, s14, s14
 588              	.LVL37:
  91:Thaumazein.cpp **** 
 589              		.loc 1 91 5 is_stmt 1 view .LVU173
  94:Thaumazein.cpp ****     float smoothing = daisysp::fmax(0.5f, 0.95f - change * 2.0f); // 0.5-0.95 smoothing range
 590              		.loc 1 94 5 view .LVU174
  95:Thaumazein.cpp **** 
 591              		.loc 1 95 5 view .LVU175
  95:Thaumazein.cpp **** 
ARM GAS  /var/folders/9s/8rp0_f2s1n31qbztm3b5_fdh0000gn/T//ccsWBIEq.s 			page 21


 592              		.loc 1 95 36 is_stmt 0 view .LVU176
 593 00d4 F0EE005A 		vmov.f32	s11, #2.0e+0
  94:Thaumazein.cpp ****     float smoothing = daisysp::fmax(0.5f, 0.95f - change * 2.0f); // 0.5-0.95 smoothing range
 594              		.loc 1 94 41 view .LVU177
 595 00d8 77EE666A 		vsub.f32	s13, s14, s13
 596              	.LVL38:
  94:Thaumazein.cpp ****     float smoothing = daisysp::fmax(0.5f, 0.95f - change * 2.0f); // 0.5-0.95 smoothing range
 597              		.loc 1 94 57 view .LVU178
 598 00dc F0EEE66A 		vabs.f32	s13, s13
 599              	.LVL39:
  95:Thaumazein.cpp **** 
 600              		.loc 1 95 36 view .LVU179
 601 00e0 A6EEE56A 		vfms.f32	s12, s13, s11
 602              	.LVL40:
 603              	.LBB134:
 604              	.LBI134:
  40:lib/DaisySP/Source/Utility/dsp.h **** {
 605              		.loc 6 40 14 is_stmt 1 view .LVU180
 606              	.LBB135:
  42:lib/DaisySP/Source/Utility/dsp.h **** #ifdef __arm__
 607              		.loc 6 42 5 view .LVU181
  44:lib/DaisySP/Source/Utility/dsp.h **** #else
 608              		.loc 6 44 5 view .LVU182
 609 00e4 F6EE006A 		vmov.f32	s13, #5.0e-1
 610              	.LVL41:
  44:lib/DaisySP/Source/Utility/dsp.h **** #else
 611              		.loc 6 44 5 is_stmt 0 view .LVU183
 612              		.syntax unified
 613              	@ 44 "lib/DaisySP/Source/Utility/dsp.h" 1
 614 00e8 C6FE866A 		vmaxnm.f32 s13, s13, s12
 615              	@ 0 "" 2
 616              	.LVL42:
  48:lib/DaisySP/Source/Utility/dsp.h **** }
 617              		.loc 6 48 5 is_stmt 1 view .LVU184
  48:lib/DaisySP/Source/Utility/dsp.h **** }
 618              		.loc 6 48 5 is_stmt 0 view .LVU185
 619              		.thumb
 620              		.syntax unified
 621              	.LBE135:
 622              	.LBE134:
  98:Thaumazein.cpp **** }
 623              		.loc 1 98 5 is_stmt 1 view .LVU186
  98:Thaumazein.cpp **** }
 624              		.loc 1 98 74 is_stmt 0 view .LVU187
 625 00ec 77EEE67A 		vsub.f32	s15, s15, s13
  98:Thaumazein.cpp **** }
 626              		.loc 1 98 22 view .LVU188
 627 00f0 93ED006A 		vldr.32	s12, [r3]
  98:Thaumazein.cpp **** }
 628              		.loc 1 98 66 view .LVU189
 629 00f4 67EE877A 		vmul.f32	s15, s15, s14
  98:Thaumazein.cpp **** }
 630              		.loc 1 98 49 view .LVU190
 631 00f8 E6EE267A 		vfma.f32	s15, s12, s13
 632 00fc B4E7     		b	.L27
 633              	.LVL43:
 634              	.L19:
ARM GAS  /var/folders/9s/8rp0_f2s1n31qbztm3b5_fdh0000gn/T//ccsWBIEq.s 			page 22


  74:Thaumazein.cpp ****     if (touched_count > 0) {
 635              		.loc 1 74 11 view .LVU191
 636 00fe DFED066A 		vldr.32	s13, .L28+20
 637 0102 D6E7     		b	.L17
 638              	.L29:
 639              		.align	2
 640              	.L28:
 641 0104 00000000 		.word	touch_sensor
 642 0108 00000000 		.word	.LANCHOR0
 643 010c 00000000 		.word	.LANCHOR1
 644 0110 00000000 		.word	.LANCHOR2
 645 0114 3333733F 		.word	1064514355
 646 0118 00000000 		.word	0
 647 011c 00001643 		.word	1125515264
 648              		.cfi_endproc
 649              	.LFE5344:
 651              		.section	.rodata.main.str1.1,"aMS",%progbits,1
 652              	.LC9:
 653 0000 484200   		.ascii	"HB\000"
 654              		.section	.text.startup.main,"ax",%progbits
 655              		.align	1
 656              		.global	main
 657              		.syntax unified
 658              		.thumb
 659              		.thumb_func
 661              	main:
 662              	.LFB5348:
 100:Thaumazein.cpp **** 
 101:Thaumazein.cpp **** int main(void) {
 663              		.loc 1 101 16 is_stmt 1 view -0
 664              		.cfi_startproc
 665              		@ args = 0, pretend = 0, frame = 0
 666              		@ frame_needed = 0, uses_anonymous_args = 0
 102:Thaumazein.cpp ****     InitializeSynth();
 667              		.loc 1 102 5 view .LVU193
 101:Thaumazein.cpp ****     InitializeSynth();
 668              		.loc 1 101 16 is_stmt 0 view .LVU194
 669 0000 10B5     		push	{r4, lr}
 670              		.cfi_def_cfa_offset 8
 671              		.cfi_offset 4, -8
 672              		.cfi_offset 14, -4
 673              		.loc 1 102 20 view .LVU195
 674 0002 FFF7FEFF 		bl	_Z15InitializeSynthv
 675              	.LVL44:
 103:Thaumazein.cpp ****     // Check bootloader condition once at startup
 104:Thaumazein.cpp ****     Bootload();
 676              		.loc 1 104 5 is_stmt 1 view .LVU196
 677              		.loc 1 104 13 is_stmt 0 view .LVU197
 678 0006 FFF7FEFF 		bl	_Z8Bootloadv
 679              	.LVL45:
 105:Thaumazein.cpp ****     
 106:Thaumazein.cpp ****     uint32_t lastPoll = hw.system.GetNow();  // Track last poll time
 680              		.loc 1 106 5 is_stmt 1 view .LVU198
 681              		.loc 1 106 41 is_stmt 0 view .LVU199
 682 000a FFF7FEFF 		bl	_ZN5daisy6System6GetNowEv
 683              	.LVL46:
 684 000e 0446     		mov	r4, r0
ARM GAS  /var/folders/9s/8rp0_f2s1n31qbztm3b5_fdh0000gn/T//ccsWBIEq.s 			page 23


 685              	.LVL47:
 686              	.L34:
 107:Thaumazein.cpp ****     
 108:Thaumazein.cpp ****     // Main Loop 
 109:Thaumazein.cpp ****     while (1) {
 687              		.loc 1 109 5 is_stmt 1 view .LVU200
 688              	.LBB136:
 110:Thaumazein.cpp ****         UpdateLED();
 689              		.loc 1 110 9 view .LVU201
 690              		.loc 1 110 18 is_stmt 0 view .LVU202
 691 0010 FFF7FEFF 		bl	_Z9UpdateLEDv
 692              	.LVL48:
 111:Thaumazein.cpp ****         
 112:Thaumazein.cpp ****         // Check bootloader condition anytime during operation
 113:Thaumazein.cpp ****         Bootload();
 693              		.loc 1 113 9 is_stmt 1 view .LVU203
 694              		.loc 1 113 17 is_stmt 0 view .LVU204
 695 0014 FFF7FEFF 		bl	_Z8Bootloadv
 696              	.LVL49:
 114:Thaumazein.cpp ****         
 115:Thaumazein.cpp ****         // Heartbeat log every ~500 ms
 116:Thaumazein.cpp ****         static int hb_counter = 0;
 697              		.loc 1 116 9 is_stmt 1 view .LVU205
 117:Thaumazein.cpp ****         if (++hb_counter >= 500) {
 698              		.loc 1 117 9 view .LVU206
 699              		.loc 1 117 13 is_stmt 0 view .LVU207
 700 0018 0E4A     		ldr	r2, .L35
 701 001a 1368     		ldr	r3, [r2]
 702 001c 0133     		adds	r3, r3, #1
 703              		.loc 1 117 9 view .LVU208
 704 001e B3F5FA7F 		cmp	r3, #500
 705 0022 10DA     		bge	.L31
 706              		.loc 1 117 26 view .LVU209
 707 0024 1360     		str	r3, [r2]
 708              	.L32:
 118:Thaumazein.cpp ****             hb_counter = 0;
 119:Thaumazein.cpp ****             hw.PrintLine("HB");
 120:Thaumazein.cpp ****         }
 121:Thaumazein.cpp ****         
 122:Thaumazein.cpp ****         UpdateDisplay();
 709              		.loc 1 122 9 is_stmt 1 view .LVU210
 710              		.loc 1 122 22 is_stmt 0 view .LVU211
 711 0026 FFF7FEFF 		bl	_Z13UpdateDisplayv
 712              	.LVL50:
 123:Thaumazein.cpp ****         
 124:Thaumazein.cpp ****         // Poll touch sensor every 5 ms (200 Hz)
 125:Thaumazein.cpp ****         if (hw.system.GetNow() - lastPoll >= 5) {
 713              		.loc 1 125 9 is_stmt 1 view .LVU212
 714              		.loc 1 125 29 is_stmt 0 view .LVU213
 715 002a FFF7FEFF 		bl	_ZN5daisy6System6GetNowEv
 716              	.LVL51:
 717              		.loc 1 125 32 view .LVU214
 718 002e 001B     		subs	r0, r0, r4
 719              		.loc 1 125 9 view .LVU215
 720 0030 0428     		cmp	r0, #4
 721 0032 04D9     		bls	.L33
 126:Thaumazein.cpp ****             lastPoll = hw.system.GetNow();
ARM GAS  /var/folders/9s/8rp0_f2s1n31qbztm3b5_fdh0000gn/T//ccsWBIEq.s 			page 24


 722              		.loc 1 126 13 is_stmt 1 view .LVU216
 723              		.loc 1 126 40 is_stmt 0 view .LVU217
 724 0034 FFF7FEFF 		bl	_ZN5daisy6System6GetNowEv
 725              	.LVL52:
 726 0038 0446     		mov	r4, r0
 727              	.LVL53:
 127:Thaumazein.cpp ****             PollTouchSensor(); 
 728              		.loc 1 127 13 is_stmt 1 view .LVU218
 729              		.loc 1 127 28 is_stmt 0 view .LVU219
 730 003a FFF7FEFF 		bl	_Z15PollTouchSensorv
 731              	.LVL54:
 732              	.L33:
 128:Thaumazein.cpp ****         }
 129:Thaumazein.cpp ****         
 130:Thaumazein.cpp ****         // Yield for system tasks, adjusted for polling interval
 131:Thaumazein.cpp ****         System::Delay(1); // Shorter delay to allow more frequent polling checks
 733              		.loc 1 131 9 is_stmt 1 view .LVU220
 734              		.loc 1 131 22 is_stmt 0 view .LVU221
 735 003e 0120     		movs	r0, #1
 736 0040 FFF7FEFF 		bl	_ZN5daisy6System5DelayEm
 737              	.LVL55:
 738              	.LBE136:
 109:Thaumazein.cpp ****         UpdateLED();
 739              		.loc 1 109 5 is_stmt 1 view .LVU222
 132:Thaumazein.cpp ****     }
 740              		.loc 1 132 5 is_stmt 0 view .LVU223
 741 0044 E4E7     		b	.L34
 742              	.L31:
 743              	.LBB141:
 118:Thaumazein.cpp ****             hw.PrintLine("HB");
 744              		.loc 1 118 13 is_stmt 1 view .LVU224
 118:Thaumazein.cpp ****             hw.PrintLine("HB");
 745              		.loc 1 118 24 is_stmt 0 view .LVU225
 746 0046 0023     		movs	r3, #0
 747              	.LBB137:
 748              	.LBB138:
 749              		.loc 3 121 23 view .LVU226
 750 0048 0348     		ldr	r0, .L35+4
 751              	.LBE138:
 752              	.LBE137:
 118:Thaumazein.cpp ****             hw.PrintLine("HB");
 753              		.loc 1 118 24 view .LVU227
 754 004a 1360     		str	r3, [r2]
 119:Thaumazein.cpp ****         }
 755              		.loc 1 119 13 is_stmt 1 view .LVU228
 756              	.LVL56:
 757              	.LBB140:
 758              	.LBI137:
 119:lib/libdaisy/src/daisy_seed.h ****     {
 759              		.loc 3 119 17 view .LVU229
 760              	.LBB139:
 761              		.loc 3 121 23 is_stmt 0 view .LVU230
 762 004c FFF7FEFF 		bl	_ZN5daisy6LoggerILNS_17LoggerDestinationE1EE9PrintLineEPKcz
 763              	.LVL57:
 122:lib/libdaisy/src/daisy_seed.h ****     }
 764              		.loc 3 122 5 view .LVU231
 765 0050 E9E7     		b	.L32
ARM GAS  /var/folders/9s/8rp0_f2s1n31qbztm3b5_fdh0000gn/T//ccsWBIEq.s 			page 25


 766              	.L36:
 767 0052 00BF     		.align	2
 768              	.L35:
 769 0054 00000000 		.word	.LANCHOR3
 770 0058 00000000 		.word	.LC9
 771              	.LBE139:
 772              	.LBE140:
 773              	.LBE141:
 774              		.cfi_endproc
 775              	.LFE5348:
 777              		.global	touch_cv_value
 778              		.global	current_touch_state
 779              		.section	.rodata
 780              		.set	.LANCHOR0,. + 0
 781              	.LC0:
 782 0000 01       		.byte	1
 783 0001 08       		.byte	8
 784              	.LC1:
 785 0002 01       		.byte	1
 786 0003 09       		.byte	9
 787              		.section	.bss._ZZ4mainE10hb_counter,"aw",%nobits
 788              		.align	2
 789              		.set	.LANCHOR3,. + 0
 792              	_ZZ4mainE10hb_counter:
 793 0000 00000000 		.space	4
 794              		.section	.bss.current_touch_state,"aw",%nobits
 795              		.align	1
 796              		.set	.LANCHOR1,. + 0
 799              	current_touch_state:
 800 0000 0000     		.space	2
 801              		.section	.bss.touch_cv_value,"aw",%nobits
 802              		.align	2
 803              		.set	.LANCHOR2,. + 0
 806              	touch_cv_value:
 807 0000 00000000 		.space	4
 808              		.text
 809              	.Letext0:
 810              		.file 7 "/Library/DaisyToolchain/0.2.0/arm/arm-none-eabi/include/machine/_default_types.h"
 811              		.file 8 "/Library/DaisyToolchain/0.2.0/arm/arm-none-eabi/include/sys/_stdint.h"
 812              		.file 9 "/Library/DaisyToolchain/0.2.0/arm/arm-none-eabi/include/stdint.h"
 813              		.file 10 "/Library/DaisyToolchain/0.2.0/arm/lib/gcc/arm-none-eabi/10.3.1/include/stddef.h"
 814              		.file 11 "/Library/DaisyToolchain/0.2.0/arm/arm-none-eabi/include/c++/10.3.1/cmath"
 815              		.file 12 "/Library/DaisyToolchain/0.2.0/arm/arm-none-eabi/include/c++/10.3.1/bits/std_abs.h"
 816              		.file 13 "/Library/DaisyToolchain/0.2.0/arm/arm-none-eabi/include/c++/10.3.1/cstdlib"
 817              		.file 14 "/Library/DaisyToolchain/0.2.0/arm/arm-none-eabi/include/c++/10.3.1/cstdint"
 818              		.file 15 "/Library/DaisyToolchain/0.2.0/arm/arm-none-eabi/include/c++/10.3.1/type_traits"
 819              		.file 16 "/Library/DaisyToolchain/0.2.0/arm/arm-none-eabi/include/c++/10.3.1/debug/debug.h"
 820              		.file 17 "/Library/DaisyToolchain/0.2.0/arm/arm-none-eabi/include/c++/10.3.1/arm-none-eabi/thumb/v
 821              		.file 18 "/Library/DaisyToolchain/0.2.0/arm/arm-none-eabi/include/c++/10.3.1/bits/algorithmfwd.h"
 822              		.file 19 "/Library/DaisyToolchain/0.2.0/arm/arm-none-eabi/include/c++/10.3.1/bits/stl_pair.h"
 823              		.file 20 "/Library/DaisyToolchain/0.2.0/arm/arm-none-eabi/include/c++/10.3.1/bits/exception_ptr.h"
 824              		.file 21 "/Library/DaisyToolchain/0.2.0/arm/arm-none-eabi/include/c++/10.3.1/cstdarg"
 825              		.file 22 "/Library/DaisyToolchain/0.2.0/arm/arm-none-eabi/include/c++/10.3.1/cstdio"
 826              		.file 23 "/Library/DaisyToolchain/0.2.0/arm/arm-none-eabi/include/c++/10.3.1/cstring"
 827              		.file 24 "/Library/DaisyToolchain/0.2.0/arm/arm-none-eabi/include/c++/10.3.1/cwchar"
 828              		.file 25 "/Library/DaisyToolchain/0.2.0/arm/arm-none-eabi/include/c++/10.3.1/clocale"
 829              		.file 26 "/Library/DaisyToolchain/0.2.0/arm/arm-none-eabi/include/c++/10.3.1/bits/basic_string.h"
ARM GAS  /var/folders/9s/8rp0_f2s1n31qbztm3b5_fdh0000gn/T//ccsWBIEq.s 			page 26


 830              		.file 27 "/Library/DaisyToolchain/0.2.0/arm/arm-none-eabi/include/c++/10.3.1/bits/stl_iterator.h"
 831              		.file 28 "/Library/DaisyToolchain/0.2.0/arm/arm-none-eabi/include/c++/10.3.1/bits/uses_allocator.h
 832              		.file 29 "/Library/DaisyToolchain/0.2.0/arm/arm-none-eabi/include/c++/10.3.1/tuple"
 833              		.file 30 "/Library/DaisyToolchain/0.2.0/arm/arm-none-eabi/include/c++/10.3.1/functional"
 834              		.file 31 "/Library/DaisyToolchain/0.2.0/arm/arm-none-eabi/include/c++/10.3.1/bits/predefined_ops.h
 835              		.file 32 "/Library/DaisyToolchain/0.2.0/arm/arm-none-eabi/include/sys/_types.h"
 836              		.file 33 "/Library/DaisyToolchain/0.2.0/arm/arm-none-eabi/include/sys/reent.h"
 837              		.file 34 "/Library/DaisyToolchain/0.2.0/arm/arm-none-eabi/include/sys/lock.h"
 838              		.file 35 "/Library/DaisyToolchain/0.2.0/arm/arm-none-eabi/include/math.h"
 839              		.file 36 "/Library/DaisyToolchain/0.2.0/arm/arm-none-eabi/include/stdlib.h"
 840              		.file 37 "/Library/DaisyToolchain/0.2.0/arm/arm-none-eabi/include/c++/10.3.1/math.h"
 841              		.file 38 "/Library/DaisyToolchain/0.2.0/arm/arm-none-eabi/include/c++/10.3.1/stdlib.h"
 842              		.file 39 "lib/libdaisy/src/daisy_core.h"
 843              		.file 40 "lib/libdaisy/src/per/tim.h"
 844              		.file 41 "lib/libdaisy/src/sys/system.h"
 845              		.file 42 "lib/libdaisy/src/per/qspi.h"
 846              		.file 43 "lib/libdaisy/src/per/dac.h"
 847              		.file 44 "lib/libdaisy/src/per/sai.h"
 848              		.file 45 "lib/libdaisy/src/hid/audio.h"
 849              		.file 46 "lib/libdaisy/src/per/adc.h"
 850              		.file 47 "lib/libdaisy/src/hid/usb.h"
 851              		.file 48 "lib/libdaisy/src/hid/logger_impl.h"
 852              		.file 49 "lib/libdaisy/src/util/wav_format.h"
 853              		.file 50 "lib/libdaisy/src/hid/logger.h"
 854              		.file 51 "lib/libdaisy/src/per/gpio.h"
 855              		.file 52 "lib/libdaisy/src/dev/sdram.h"
 856              		.file 53 "/Library/DaisyToolchain/0.2.0/arm/lib/gcc/arm-none-eabi/10.3.1/include/stdarg.h"
 857              		.file 54 "/Library/DaisyToolchain/0.2.0/arm/arm-none-eabi/include/stdio.h"
 858              		.file 55 "/Library/DaisyToolchain/0.2.0/arm/arm-none-eabi/include/string.h"
 859              		.file 56 "lib/DaisySP/Source/Control/adenv.h"
 860              		.file 57 "/Library/DaisyToolchain/0.2.0/arm/arm-none-eabi/include/wchar.h"
 861              		.file 58 "/Library/DaisyToolchain/0.2.0/arm/arm-none-eabi/include/locale.h"
 862              		.file 59 "eurorack/stmlib/stmlib.h"
 863              		.file 60 "eurorack/plaits/dsp/dsp.h"
 864              		.file 61 "eurorack/plaits/dsp/engine/additive_engine.h"
 865              		.file 62 "eurorack/plaits/dsp/oscillator/oscillator.h"
 866              		.file 63 "eurorack/plaits/dsp/engine/chord_engine.h"
 867              		.file 64 "eurorack/plaits/dsp/physical_modelling/resonator.h"
 868              		.file 65 "eurorack/plaits/dsp/engine/particle_engine.h"
 869              		.file 66 "eurorack/plaits/dsp/physical_modelling/string.h"
 870              		.file 67 "eurorack/plaits/dsp/engine/string_engine.h"
 871              		.file 68 "eurorack/plaits/dsp/engine/swarm_engine.h"
 872              		.file 69 "eurorack/plaits/dsp/oscillator/variable_saw_oscillator.h"
 873              		.file 70 "eurorack/plaits/dsp/voice.h"
 874              		.file 71 "Effects/BiquadFilters.h"
 875              		.file 72 "Arpeggiator.h"
 876              		.file 73 "Thaumazein.h"
 877              		.file 74 "lib/libdaisy/src/dev/sr_595.h"
 878              		.file 75 "<built-in>"
ARM GAS  /var/folders/9s/8rp0_f2s1n31qbztm3b5_fdh0000gn/T//ccsWBIEq.s 			page 27


DEFINED SYMBOLS
                            *ABS*:0000000000000000 Thaumazein.cpp
/var/folders/9s/8rp0_f2s1n31qbztm3b5_fdh0000gn/T//ccsWBIEq.s:34     .text._Z13UpdateDisplayv:0000000000000000 $t
/var/folders/9s/8rp0_f2s1n31qbztm3b5_fdh0000gn/T//ccsWBIEq.s:40     .text._Z13UpdateDisplayv:0000000000000000 _Z13UpdateDisplayv
/var/folders/9s/8rp0_f2s1n31qbztm3b5_fdh0000gn/T//ccsWBIEq.s:283    .text._Z13UpdateDisplayv:00000000000000c8 $d
/var/folders/9s/8rp0_f2s1n31qbztm3b5_fdh0000gn/T//ccsWBIEq.s:301    .text._Z15PollTouchSensorv:0000000000000000 $t
/var/folders/9s/8rp0_f2s1n31qbztm3b5_fdh0000gn/T//ccsWBIEq.s:307    .text._Z15PollTouchSensorv:0000000000000000 _Z15PollTouchSensorv
/var/folders/9s/8rp0_f2s1n31qbztm3b5_fdh0000gn/T//ccsWBIEq.s:641    .text._Z15PollTouchSensorv:0000000000000104 $d
/var/folders/9s/8rp0_f2s1n31qbztm3b5_fdh0000gn/T//ccsWBIEq.s:655    .text.startup.main:0000000000000000 $t
/var/folders/9s/8rp0_f2s1n31qbztm3b5_fdh0000gn/T//ccsWBIEq.s:661    .text.startup.main:0000000000000000 main
/var/folders/9s/8rp0_f2s1n31qbztm3b5_fdh0000gn/T//ccsWBIEq.s:769    .text.startup.main:0000000000000054 $d
/var/folders/9s/8rp0_f2s1n31qbztm3b5_fdh0000gn/T//ccsWBIEq.s:806    .bss.touch_cv_value:0000000000000000 touch_cv_value
/var/folders/9s/8rp0_f2s1n31qbztm3b5_fdh0000gn/T//ccsWBIEq.s:799    .bss.current_touch_state:0000000000000000 current_touch_state
/var/folders/9s/8rp0_f2s1n31qbztm3b5_fdh0000gn/T//ccsWBIEq.s:788    .bss._ZZ4mainE10hb_counter:0000000000000000 $d
/var/folders/9s/8rp0_f2s1n31qbztm3b5_fdh0000gn/T//ccsWBIEq.s:792    .bss._ZZ4mainE10hb_counter:0000000000000000 _ZZ4mainE10hb_counter
/var/folders/9s/8rp0_f2s1n31qbztm3b5_fdh0000gn/T//ccsWBIEq.s:795    .bss.current_touch_state:0000000000000000 $d
/var/folders/9s/8rp0_f2s1n31qbztm3b5_fdh0000gn/T//ccsWBIEq.s:802    .bss.touch_cv_value:0000000000000000 $d

UNDEFINED SYMBOLS
sprintf
_ZN5daisy6LoggerILNS_17LoggerDestinationE1EE9PrintLineEPKcz
update_display
cpu_meter
current_engine_index
smoothed_output_level
adc_raw_values
_ZNK6Mpr1218HasErrorEv
_ZN6Mpr12110ClearErrorEv
_ZN6Mpr1214InitERKNS_6ConfigE
_ZN6Mpr12113SetThresholdsEhh
_ZN6Mpr1217TouchedEv
_ZN6Mpr12120GetBaselineDeviationEh
touch_sensor
_Z15InitializeSynthv
_Z8Bootloadv
_ZN5daisy6System6GetNowEv
_Z9UpdateLEDv
_ZN5daisy6System5DelayEm
