ARM GAS  /var/folders/9s/8rp0_f2s1n31qbztm3b5_fdh0000gn/T//ccSTbMRq.s 			page 1


   1              		.cpu cortex-m7
   2              		.arch armv7e-m
   3              		.fpu fpv5-d16
   4              		.eabi_attribute 28, 1
   5              		.eabi_attribute 20, 1
   6              		.eabi_attribute 21, 1
   7              		.eabi_attribute 23, 3
   8              		.eabi_attribute 24, 1
   9              		.eabi_attribute 25, 1
  10              		.eabi_attribute 26, 1
  11              		.eabi_attribute 30, 4
  12              		.eabi_attribute 34, 1
  13              		.eabi_attribute 18, 4
  14              		.file	"virtual_analog_engine.cc"
  15              		.text
  16              	.Ltext0:
  17              		.cfi_sections	.debug_frame
  18              		.section	.text._ZN6plaits19VirtualAnalogEngine5ResetEv,"ax",%progbits
  19              		.align	1
  20              		.global	_ZN6plaits19VirtualAnalogEngine5ResetEv
  21              		.syntax unified
  22              		.thumb
  23              		.thumb_func
  25              	_ZN6plaits19VirtualAnalogEngine5ResetEv:
  26              	.LVL0:
  27              	.LFB1496:
  28              		.file 1 "eurorack/plaits/dsp/engine/virtual_analog_engine.cc"
   1:eurorack/plaits/dsp/engine/virtual_analog_engine.cc **** // Copyright 2016 Emilie Gillet.
   2:eurorack/plaits/dsp/engine/virtual_analog_engine.cc **** //
   3:eurorack/plaits/dsp/engine/virtual_analog_engine.cc **** // Author: Emilie Gillet (emilie.o.gillet@gmail.com)
   4:eurorack/plaits/dsp/engine/virtual_analog_engine.cc **** //
   5:eurorack/plaits/dsp/engine/virtual_analog_engine.cc **** // Permission is hereby granted, free of charge, to any person obtaining a copy
   6:eurorack/plaits/dsp/engine/virtual_analog_engine.cc **** // of this software and associated documentation files (the "Software"), to deal
   7:eurorack/plaits/dsp/engine/virtual_analog_engine.cc **** // in the Software without restriction, including without limitation the rights
   8:eurorack/plaits/dsp/engine/virtual_analog_engine.cc **** // to use, copy, modify, merge, publish, distribute, sublicense, and/or sell
   9:eurorack/plaits/dsp/engine/virtual_analog_engine.cc **** // copies of the Software, and to permit persons to whom the Software is
  10:eurorack/plaits/dsp/engine/virtual_analog_engine.cc **** // furnished to do so, subject to the following conditions:
  11:eurorack/plaits/dsp/engine/virtual_analog_engine.cc **** // 
  12:eurorack/plaits/dsp/engine/virtual_analog_engine.cc **** // The above copyright notice and this permission notice shall be included in
  13:eurorack/plaits/dsp/engine/virtual_analog_engine.cc **** // all copies or substantial portions of the Software.
  14:eurorack/plaits/dsp/engine/virtual_analog_engine.cc **** // 
  15:eurorack/plaits/dsp/engine/virtual_analog_engine.cc **** // THE SOFTWARE IS PROVIDED "AS IS", WITHOUT WARRANTY OF ANY KIND, EXPRESS OR
  16:eurorack/plaits/dsp/engine/virtual_analog_engine.cc **** // IMPLIED, INCLUDING BUT NOT LIMITED TO THE WARRANTIES OF MERCHANTABILITY,
  17:eurorack/plaits/dsp/engine/virtual_analog_engine.cc **** // FITNESS FOR A PARTICULAR PURPOSE AND NONINFRINGEMENT. IN NO EVENT SHALL THE
  18:eurorack/plaits/dsp/engine/virtual_analog_engine.cc **** // AUTHORS OR COPYRIGHT HOLDERS BE LIABLE FOR ANY CLAIM, DAMAGES OR OTHER
  19:eurorack/plaits/dsp/engine/virtual_analog_engine.cc **** // LIABILITY, WHETHER IN AN ACTION OF CONTRACT, TORT OR OTHERWISE, ARISING FROM,
  20:eurorack/plaits/dsp/engine/virtual_analog_engine.cc **** // OUT OF OR IN CONNECTION WITH THE SOFTWARE OR THE USE OR OTHER DEALINGS IN
  21:eurorack/plaits/dsp/engine/virtual_analog_engine.cc **** // THE SOFTWARE.
  22:eurorack/plaits/dsp/engine/virtual_analog_engine.cc **** // 
  23:eurorack/plaits/dsp/engine/virtual_analog_engine.cc **** // See http://creativecommons.org/licenses/MIT/ for more information.
  24:eurorack/plaits/dsp/engine/virtual_analog_engine.cc **** //
  25:eurorack/plaits/dsp/engine/virtual_analog_engine.cc **** // -----------------------------------------------------------------------------
  26:eurorack/plaits/dsp/engine/virtual_analog_engine.cc **** //
  27:eurorack/plaits/dsp/engine/virtual_analog_engine.cc **** // 2 variable shape oscillators with sync, FM and crossfading.
  28:eurorack/plaits/dsp/engine/virtual_analog_engine.cc **** 
  29:eurorack/plaits/dsp/engine/virtual_analog_engine.cc **** #include "plaits/dsp/engine/virtual_analog_engine.h"
  30:eurorack/plaits/dsp/engine/virtual_analog_engine.cc **** 
ARM GAS  /var/folders/9s/8rp0_f2s1n31qbztm3b5_fdh0000gn/T//ccSTbMRq.s 			page 2


  31:eurorack/plaits/dsp/engine/virtual_analog_engine.cc **** #include <algorithm>
  32:eurorack/plaits/dsp/engine/virtual_analog_engine.cc **** 
  33:eurorack/plaits/dsp/engine/virtual_analog_engine.cc **** #include "stmlib/dsp/parameter_interpolator.h"
  34:eurorack/plaits/dsp/engine/virtual_analog_engine.cc **** 
  35:eurorack/plaits/dsp/engine/virtual_analog_engine.cc **** namespace plaits {
  36:eurorack/plaits/dsp/engine/virtual_analog_engine.cc **** 
  37:eurorack/plaits/dsp/engine/virtual_analog_engine.cc **** using namespace std;
  38:eurorack/plaits/dsp/engine/virtual_analog_engine.cc **** using namespace stmlib;
  39:eurorack/plaits/dsp/engine/virtual_analog_engine.cc **** 
  40:eurorack/plaits/dsp/engine/virtual_analog_engine.cc **** void VirtualAnalogEngine::Init(BufferAllocator* allocator) {
  41:eurorack/plaits/dsp/engine/virtual_analog_engine.cc ****   primary_.Init();
  42:eurorack/plaits/dsp/engine/virtual_analog_engine.cc ****   auxiliary_.Init();
  43:eurorack/plaits/dsp/engine/virtual_analog_engine.cc ****   sync_.Init();
  44:eurorack/plaits/dsp/engine/virtual_analog_engine.cc ****   variable_saw_.Init();
  45:eurorack/plaits/dsp/engine/virtual_analog_engine.cc ****   
  46:eurorack/plaits/dsp/engine/virtual_analog_engine.cc ****   auxiliary_amount_ = 0.0f;
  47:eurorack/plaits/dsp/engine/virtual_analog_engine.cc ****   xmod_amount_ = 0.0f;
  48:eurorack/plaits/dsp/engine/virtual_analog_engine.cc ****   
  49:eurorack/plaits/dsp/engine/virtual_analog_engine.cc ****   temp_buffer_ = allocator->Allocate<float>(kMaxBlockSize);
  50:eurorack/plaits/dsp/engine/virtual_analog_engine.cc **** }
  51:eurorack/plaits/dsp/engine/virtual_analog_engine.cc **** 
  52:eurorack/plaits/dsp/engine/virtual_analog_engine.cc **** void VirtualAnalogEngine::Reset() {
  29              		.loc 1 52 35 view -0
  30              		.cfi_startproc
  31              		@ args = 0, pretend = 0, frame = 0
  32              		@ frame_needed = 0, uses_anonymous_args = 0
  33              		@ link register save eliminated.
  53:eurorack/plaits/dsp/engine/virtual_analog_engine.cc ****   
  54:eurorack/plaits/dsp/engine/virtual_analog_engine.cc **** }
  34              		.loc 1 54 1 is_stmt 0 view .LVU1
  35 0000 7047     		bx	lr
  36              		.cfi_endproc
  37              	.LFE1496:
  39              		.section	.text._ZN6plaits19VirtualAnalogEngine4InitEPN6stmlib15BufferAllocatorE,"ax",%progbits
  40              		.align	1
  41              		.global	_ZN6plaits19VirtualAnalogEngine4InitEPN6stmlib15BufferAllocatorE
  42              		.syntax unified
  43              		.thumb
  44              		.thumb_func
  46              	_ZN6plaits19VirtualAnalogEngine4InitEPN6stmlib15BufferAllocatorE:
  47              	.LVL1:
  48              	.LFB1495:
  40:eurorack/plaits/dsp/engine/virtual_analog_engine.cc ****   primary_.Init();
  49              		.loc 1 40 60 is_stmt 1 view -0
  50              		.cfi_startproc
  51              		@ args = 0, pretend = 0, frame = 0
  52              		@ frame_needed = 0, uses_anonymous_args = 0
  41:eurorack/plaits/dsp/engine/virtual_analog_engine.cc ****   auxiliary_.Init();
  53              		.loc 1 41 3 view .LVU3
  54              	.LBB129:
  55              	.LBI129:
  56              		.file 2 "eurorack/plaits/dsp/oscillator/variable_shape_oscillator.h"
   1:eurorack/plaits/dsp/oscillator/variable_shape_oscillator.h **** // Copyright 2016 Emilie Gillet.
   2:eurorack/plaits/dsp/oscillator/variable_shape_oscillator.h **** //
   3:eurorack/plaits/dsp/oscillator/variable_shape_oscillator.h **** // Author: Emilie Gillet (emilie.o.gillet@gmail.com)
   4:eurorack/plaits/dsp/oscillator/variable_shape_oscillator.h **** //
   5:eurorack/plaits/dsp/oscillator/variable_shape_oscillator.h **** // Permission is hereby granted, free of charge, to any person obtaining a copy
ARM GAS  /var/folders/9s/8rp0_f2s1n31qbztm3b5_fdh0000gn/T//ccSTbMRq.s 			page 3


   6:eurorack/plaits/dsp/oscillator/variable_shape_oscillator.h **** // of this software and associated documentation files (the "Software"), to deal
   7:eurorack/plaits/dsp/oscillator/variable_shape_oscillator.h **** // in the Software without restriction, including without limitation the rights
   8:eurorack/plaits/dsp/oscillator/variable_shape_oscillator.h **** // to use, copy, modify, merge, publish, distribute, sublicense, and/or sell
   9:eurorack/plaits/dsp/oscillator/variable_shape_oscillator.h **** // copies of the Software, and to permit persons to whom the Software is
  10:eurorack/plaits/dsp/oscillator/variable_shape_oscillator.h **** // furnished to do so, subject to the following conditions:
  11:eurorack/plaits/dsp/oscillator/variable_shape_oscillator.h **** // 
  12:eurorack/plaits/dsp/oscillator/variable_shape_oscillator.h **** // The above copyright notice and this permission notice shall be included in
  13:eurorack/plaits/dsp/oscillator/variable_shape_oscillator.h **** // all copies or substantial portions of the Software.
  14:eurorack/plaits/dsp/oscillator/variable_shape_oscillator.h **** // 
  15:eurorack/plaits/dsp/oscillator/variable_shape_oscillator.h **** // THE SOFTWARE IS PROVIDED "AS IS", WITHOUT WARRANTY OF ANY KIND, EXPRESS OR
  16:eurorack/plaits/dsp/oscillator/variable_shape_oscillator.h **** // IMPLIED, INCLUDING BUT NOT LIMITED TO THE WARRANTIES OF MERCHANTABILITY,
  17:eurorack/plaits/dsp/oscillator/variable_shape_oscillator.h **** // FITNESS FOR A PARTICULAR PURPOSE AND NONINFRINGEMENT. IN NO EVENT SHALL THE
  18:eurorack/plaits/dsp/oscillator/variable_shape_oscillator.h **** // AUTHORS OR COPYRIGHT HOLDERS BE LIABLE FOR ANY CLAIM, DAMAGES OR OTHER
  19:eurorack/plaits/dsp/oscillator/variable_shape_oscillator.h **** // LIABILITY, WHETHER IN AN ACTION OF CONTRACT, TORT OR OTHERWISE, ARISING FROM,
  20:eurorack/plaits/dsp/oscillator/variable_shape_oscillator.h **** // OUT OF OR IN CONNECTION WITH THE SOFTWARE OR THE USE OR OTHER DEALINGS IN
  21:eurorack/plaits/dsp/oscillator/variable_shape_oscillator.h **** // THE SOFTWARE.
  22:eurorack/plaits/dsp/oscillator/variable_shape_oscillator.h **** // 
  23:eurorack/plaits/dsp/oscillator/variable_shape_oscillator.h **** // See http://creativecommons.org/licenses/MIT/ for more information.
  24:eurorack/plaits/dsp/oscillator/variable_shape_oscillator.h **** //
  25:eurorack/plaits/dsp/oscillator/variable_shape_oscillator.h **** // -----------------------------------------------------------------------------
  26:eurorack/plaits/dsp/oscillator/variable_shape_oscillator.h **** //
  27:eurorack/plaits/dsp/oscillator/variable_shape_oscillator.h **** // Continuously variable waveform: triangle > saw > square. Both square and
  28:eurorack/plaits/dsp/oscillator/variable_shape_oscillator.h **** // triangle have variable slope / pulse-width. Additionally, the phase resets
  29:eurorack/plaits/dsp/oscillator/variable_shape_oscillator.h **** // can be locked to a master frequency.
  30:eurorack/plaits/dsp/oscillator/variable_shape_oscillator.h **** 
  31:eurorack/plaits/dsp/oscillator/variable_shape_oscillator.h **** #ifndef PLAITS_DSP_OSCILLATOR_VARIABLE_SHAPE_OSCILLATOR_H_
  32:eurorack/plaits/dsp/oscillator/variable_shape_oscillator.h **** #define PLAITS_DSP_OSCILLATOR_VARIABLE_SHAPE_OSCILLATOR_H_
  33:eurorack/plaits/dsp/oscillator/variable_shape_oscillator.h **** 
  34:eurorack/plaits/dsp/oscillator/variable_shape_oscillator.h **** #include "stmlib/dsp/dsp.h"
  35:eurorack/plaits/dsp/oscillator/variable_shape_oscillator.h **** #include "stmlib/dsp/parameter_interpolator.h"
  36:eurorack/plaits/dsp/oscillator/variable_shape_oscillator.h **** #include "stmlib/dsp/polyblep.h"
  37:eurorack/plaits/dsp/oscillator/variable_shape_oscillator.h **** 
  38:eurorack/plaits/dsp/oscillator/variable_shape_oscillator.h **** #include <algorithm>
  39:eurorack/plaits/dsp/oscillator/variable_shape_oscillator.h **** 
  40:eurorack/plaits/dsp/oscillator/variable_shape_oscillator.h **** namespace plaits {
  41:eurorack/plaits/dsp/oscillator/variable_shape_oscillator.h **** 
  42:eurorack/plaits/dsp/oscillator/variable_shape_oscillator.h **** class VariableShapeOscillator {
  43:eurorack/plaits/dsp/oscillator/variable_shape_oscillator.h ****  public:
  44:eurorack/plaits/dsp/oscillator/variable_shape_oscillator.h ****   VariableShapeOscillator() { }
  45:eurorack/plaits/dsp/oscillator/variable_shape_oscillator.h ****   ~VariableShapeOscillator() { }
  46:eurorack/plaits/dsp/oscillator/variable_shape_oscillator.h **** 
  47:eurorack/plaits/dsp/oscillator/variable_shape_oscillator.h ****   void Init() {
  57              		.loc 2 47 8 view .LVU4
  58              	.LBB130:
  48:eurorack/plaits/dsp/oscillator/variable_shape_oscillator.h ****     master_phase_ = 0.0f;
  59              		.loc 2 48 5 view .LVU5
  60              		.loc 2 48 19 is_stmt 0 view .LVU6
  61 0000 0023     		movs	r3, #0
  49:eurorack/plaits/dsp/oscillator/variable_shape_oscillator.h ****     slave_phase_ = 0.0f;
  50:eurorack/plaits/dsp/oscillator/variable_shape_oscillator.h ****     next_sample_ = 0.0f;
  51:eurorack/plaits/dsp/oscillator/variable_shape_oscillator.h ****     previous_pw_ = 0.5f;
  52:eurorack/plaits/dsp/oscillator/variable_shape_oscillator.h ****     high_ = false;
  62              		.loc 2 52 11 view .LVU7
  63 0002 0022     		movs	r2, #0
  64              	.LBE130:
  65              	.LBE129:
  40:eurorack/plaits/dsp/engine/virtual_analog_engine.cc ****   primary_.Init();
ARM GAS  /var/folders/9s/8rp0_f2s1n31qbztm3b5_fdh0000gn/T//ccSTbMRq.s 			page 4


  66              		.loc 1 40 60 view .LVU8
  67 0004 30B5     		push	{r4, r5, lr}
  68              		.cfi_def_cfa_offset 12
  69              		.cfi_offset 4, -12
  70              		.cfi_offset 5, -8
  71              		.cfi_offset 14, -4
  72              	.LBB133:
  73              	.LBB131:
  51:eurorack/plaits/dsp/oscillator/variable_shape_oscillator.h ****     high_ = false;
  74              		.loc 2 51 18 view .LVU9
  75 0006 4FF07C54 		mov	r4, #1056964608
  53:eurorack/plaits/dsp/oscillator/variable_shape_oscillator.h ****   
  54:eurorack/plaits/dsp/oscillator/variable_shape_oscillator.h ****     master_frequency_ = 0.0f;
  55:eurorack/plaits/dsp/oscillator/variable_shape_oscillator.h ****     slave_frequency_ = 0.01f;
  76              		.loc 2 55 22 view .LVU10
  77 000a 1E4D     		ldr	r5, .L5
  48:eurorack/plaits/dsp/oscillator/variable_shape_oscillator.h ****     slave_phase_ = 0.0f;
  78              		.loc 2 48 19 view .LVU11
  79 000c 0361     		str	r3, [r0, #16]	@ float
  49:eurorack/plaits/dsp/oscillator/variable_shape_oscillator.h ****     next_sample_ = 0.0f;
  80              		.loc 2 49 5 is_stmt 1 view .LVU12
  49:eurorack/plaits/dsp/oscillator/variable_shape_oscillator.h ****     next_sample_ = 0.0f;
  81              		.loc 2 49 18 is_stmt 0 view .LVU13
  82 000e 4361     		str	r3, [r0, #20]	@ float
  50:eurorack/plaits/dsp/oscillator/variable_shape_oscillator.h ****     previous_pw_ = 0.5f;
  83              		.loc 2 50 5 is_stmt 1 view .LVU14
  50:eurorack/plaits/dsp/oscillator/variable_shape_oscillator.h ****     previous_pw_ = 0.5f;
  84              		.loc 2 50 18 is_stmt 0 view .LVU15
  85 0010 8361     		str	r3, [r0, #24]	@ float
  51:eurorack/plaits/dsp/oscillator/variable_shape_oscillator.h ****     high_ = false;
  86              		.loc 2 51 5 is_stmt 1 view .LVU16
  54:eurorack/plaits/dsp/oscillator/variable_shape_oscillator.h ****     slave_frequency_ = 0.01f;
  87              		.loc 2 54 23 is_stmt 0 view .LVU17
  88 0012 4362     		str	r3, [r0, #36]	@ float
  56:eurorack/plaits/dsp/oscillator/variable_shape_oscillator.h ****     pw_ = 0.5f;
  57:eurorack/plaits/dsp/oscillator/variable_shape_oscillator.h ****     waveshape_ = 0.0f;
  89              		.loc 2 57 16 view .LVU18
  90 0014 0363     		str	r3, [r0, #48]	@ float
  91              	.LBE131:
  92              	.LBE133:
  93              	.LBB134:
  94              	.LBB135:
  48:eurorack/plaits/dsp/oscillator/variable_shape_oscillator.h ****     slave_phase_ = 0.0f;
  95              		.loc 2 48 19 view .LVU19
  96 0016 4363     		str	r3, [r0, #52]	@ float
  49:eurorack/plaits/dsp/oscillator/variable_shape_oscillator.h ****     next_sample_ = 0.0f;
  97              		.loc 2 49 18 view .LVU20
  98 0018 8363     		str	r3, [r0, #56]	@ float
  50:eurorack/plaits/dsp/oscillator/variable_shape_oscillator.h ****     previous_pw_ = 0.5f;
  99              		.loc 2 50 18 view .LVU21
 100 001a C363     		str	r3, [r0, #60]	@ float
  54:eurorack/plaits/dsp/oscillator/variable_shape_oscillator.h ****     slave_frequency_ = 0.01f;
 101              		.loc 2 54 23 view .LVU22
 102 001c 8364     		str	r3, [r0, #72]	@ float
 103              		.loc 2 57 16 view .LVU23
 104 001e 4365     		str	r3, [r0, #84]	@ float
 105              	.LBE135:
ARM GAS  /var/folders/9s/8rp0_f2s1n31qbztm3b5_fdh0000gn/T//ccSTbMRq.s 			page 5


 106              	.LBE134:
 107              	.LBB137:
 108              	.LBB138:
  48:eurorack/plaits/dsp/oscillator/variable_shape_oscillator.h ****     slave_phase_ = 0.0f;
 109              		.loc 2 48 19 view .LVU24
 110 0020 8365     		str	r3, [r0, #88]	@ float
  49:eurorack/plaits/dsp/oscillator/variable_shape_oscillator.h ****     next_sample_ = 0.0f;
 111              		.loc 2 49 18 view .LVU25
 112 0022 C365     		str	r3, [r0, #92]	@ float
  50:eurorack/plaits/dsp/oscillator/variable_shape_oscillator.h ****     previous_pw_ = 0.5f;
 113              		.loc 2 50 18 view .LVU26
 114 0024 0366     		str	r3, [r0, #96]	@ float
  54:eurorack/plaits/dsp/oscillator/variable_shape_oscillator.h ****     slave_frequency_ = 0.01f;
 115              		.loc 2 54 23 view .LVU27
 116 0026 C366     		str	r3, [r0, #108]	@ float
 117              		.loc 2 57 16 view .LVU28
 118 0028 8367     		str	r3, [r0, #120]	@ float
 119              	.LBE138:
 120              	.LBE137:
 121              	.LBB140:
 122              	.LBB141:
 123              		.file 3 "eurorack/plaits/dsp/oscillator/variable_saw_oscillator.h"
   1:eurorack/plaits/dsp/oscillator/variable_saw_oscillator.h **** // Copyright 2016 Emilie Gillet.
   2:eurorack/plaits/dsp/oscillator/variable_saw_oscillator.h **** //
   3:eurorack/plaits/dsp/oscillator/variable_saw_oscillator.h **** // Author: Emilie Gillet (emilie.o.gillet@gmail.com)
   4:eurorack/plaits/dsp/oscillator/variable_saw_oscillator.h **** //
   5:eurorack/plaits/dsp/oscillator/variable_saw_oscillator.h **** // Permission is hereby granted, free of charge, to any person obtaining a copy
   6:eurorack/plaits/dsp/oscillator/variable_saw_oscillator.h **** // of this software and associated documentation files (the "Software"), to deal
   7:eurorack/plaits/dsp/oscillator/variable_saw_oscillator.h **** // in the Software without restriction, including without limitation the rights
   8:eurorack/plaits/dsp/oscillator/variable_saw_oscillator.h **** // to use, copy, modify, merge, publish, distribute, sublicense, and/or sell
   9:eurorack/plaits/dsp/oscillator/variable_saw_oscillator.h **** // copies of the Software, and to permit persons to whom the Software is
  10:eurorack/plaits/dsp/oscillator/variable_saw_oscillator.h **** // furnished to do so, subject to the following conditions:
  11:eurorack/plaits/dsp/oscillator/variable_saw_oscillator.h **** // 
  12:eurorack/plaits/dsp/oscillator/variable_saw_oscillator.h **** // The above copyright notice and this permission notice shall be included in
  13:eurorack/plaits/dsp/oscillator/variable_saw_oscillator.h **** // all copies or substantial portions of the Software.
  14:eurorack/plaits/dsp/oscillator/variable_saw_oscillator.h **** // 
  15:eurorack/plaits/dsp/oscillator/variable_saw_oscillator.h **** // THE SOFTWARE IS PROVIDED "AS IS", WITHOUT WARRANTY OF ANY KIND, EXPRESS OR
  16:eurorack/plaits/dsp/oscillator/variable_saw_oscillator.h **** // IMPLIED, INCLUDING BUT NOT LIMITED TO THE WARRANTIES OF MERCHANTABILITY,
  17:eurorack/plaits/dsp/oscillator/variable_saw_oscillator.h **** // FITNESS FOR A PARTICULAR PURPOSE AND NONINFRINGEMENT. IN NO EVENT SHALL THE
  18:eurorack/plaits/dsp/oscillator/variable_saw_oscillator.h **** // AUTHORS OR COPYRIGHT HOLDERS BE LIABLE FOR ANY CLAIM, DAMAGES OR OTHER
  19:eurorack/plaits/dsp/oscillator/variable_saw_oscillator.h **** // LIABILITY, WHETHER IN AN ACTION OF CONTRACT, TORT OR OTHERWISE, ARISING FROM,
  20:eurorack/plaits/dsp/oscillator/variable_saw_oscillator.h **** // OUT OF OR IN CONNECTION WITH THE SOFTWARE OR THE USE OR OTHER DEALINGS IN
  21:eurorack/plaits/dsp/oscillator/variable_saw_oscillator.h **** // THE SOFTWARE.
  22:eurorack/plaits/dsp/oscillator/variable_saw_oscillator.h **** // 
  23:eurorack/plaits/dsp/oscillator/variable_saw_oscillator.h **** // See http://creativecommons.org/licenses/MIT/ for more information.
  24:eurorack/plaits/dsp/oscillator/variable_saw_oscillator.h **** //
  25:eurorack/plaits/dsp/oscillator/variable_saw_oscillator.h **** // -----------------------------------------------------------------------------
  26:eurorack/plaits/dsp/oscillator/variable_saw_oscillator.h **** //
  27:eurorack/plaits/dsp/oscillator/variable_saw_oscillator.h **** // Saw with variable slope or notch
  28:eurorack/plaits/dsp/oscillator/variable_saw_oscillator.h **** 
  29:eurorack/plaits/dsp/oscillator/variable_saw_oscillator.h **** #ifndef PLAITS_DSP_OSCILLATOR_VARIABLE_SAW_OSCILLATOR_H_
  30:eurorack/plaits/dsp/oscillator/variable_saw_oscillator.h **** #define PLAITS_DSP_OSCILLATOR_VARIABLE_SAW_OSCILLATOR_H_
  31:eurorack/plaits/dsp/oscillator/variable_saw_oscillator.h **** 
  32:eurorack/plaits/dsp/oscillator/variable_saw_oscillator.h **** #include "stmlib/dsp/dsp.h"
  33:eurorack/plaits/dsp/oscillator/variable_saw_oscillator.h **** #include "stmlib/dsp/parameter_interpolator.h"
  34:eurorack/plaits/dsp/oscillator/variable_saw_oscillator.h **** #include "stmlib/dsp/polyblep.h"
  35:eurorack/plaits/dsp/oscillator/variable_saw_oscillator.h **** 
ARM GAS  /var/folders/9s/8rp0_f2s1n31qbztm3b5_fdh0000gn/T//ccSTbMRq.s 			page 6


  36:eurorack/plaits/dsp/oscillator/variable_saw_oscillator.h **** #include <algorithm>
  37:eurorack/plaits/dsp/oscillator/variable_saw_oscillator.h **** 
  38:eurorack/plaits/dsp/oscillator/variable_saw_oscillator.h **** #include "plaits/dsp/oscillator/oscillator.h"
  39:eurorack/plaits/dsp/oscillator/variable_saw_oscillator.h **** 
  40:eurorack/plaits/dsp/oscillator/variable_saw_oscillator.h **** namespace plaits {
  41:eurorack/plaits/dsp/oscillator/variable_saw_oscillator.h **** 
  42:eurorack/plaits/dsp/oscillator/variable_saw_oscillator.h **** const float kVariableSawNotchDepth = 0.2f;
  43:eurorack/plaits/dsp/oscillator/variable_saw_oscillator.h **** 
  44:eurorack/plaits/dsp/oscillator/variable_saw_oscillator.h **** class VariableSawOscillator {
  45:eurorack/plaits/dsp/oscillator/variable_saw_oscillator.h ****  public:
  46:eurorack/plaits/dsp/oscillator/variable_saw_oscillator.h ****   VariableSawOscillator() { }
  47:eurorack/plaits/dsp/oscillator/variable_saw_oscillator.h ****   ~VariableSawOscillator() { }
  48:eurorack/plaits/dsp/oscillator/variable_saw_oscillator.h **** 
  49:eurorack/plaits/dsp/oscillator/variable_saw_oscillator.h ****   void Init() {
  50:eurorack/plaits/dsp/oscillator/variable_saw_oscillator.h ****     phase_ = 0.0f;
 124              		.loc 3 50 12 view .LVU29
 125 002a C367     		str	r3, [r0, #124]	@ float
  51:eurorack/plaits/dsp/oscillator/variable_saw_oscillator.h ****     next_sample_ = 0.0f;
 126              		.loc 3 51 18 view .LVU30
 127 002c C0F88030 		str	r3, [r0, #128]	@ float
 128              	.LBE141:
 129              	.LBE140:
 130              	.LBB144:
 131              	.LBB132:
  51:eurorack/plaits/dsp/oscillator/variable_shape_oscillator.h ****     high_ = false;
 132              		.loc 2 51 18 view .LVU31
 133 0030 C461     		str	r4, [r0, #28]	@ float
  52:eurorack/plaits/dsp/oscillator/variable_shape_oscillator.h ****   
 134              		.loc 2 52 5 is_stmt 1 view .LVU32
  52:eurorack/plaits/dsp/oscillator/variable_shape_oscillator.h ****   
 135              		.loc 2 52 11 is_stmt 0 view .LVU33
 136 0032 80F82020 		strb	r2, [r0, #32]
  54:eurorack/plaits/dsp/oscillator/variable_shape_oscillator.h ****     slave_frequency_ = 0.01f;
 137              		.loc 2 54 5 is_stmt 1 view .LVU34
  55:eurorack/plaits/dsp/oscillator/variable_shape_oscillator.h ****     pw_ = 0.5f;
 138              		.loc 2 55 5 view .LVU35
  55:eurorack/plaits/dsp/oscillator/variable_shape_oscillator.h ****     pw_ = 0.5f;
 139              		.loc 2 55 22 is_stmt 0 view .LVU36
 140 0036 8562     		str	r5, [r0, #40]	@ float
  56:eurorack/plaits/dsp/oscillator/variable_shape_oscillator.h ****     waveshape_ = 0.0f;
 141              		.loc 2 56 5 is_stmt 1 view .LVU37
  56:eurorack/plaits/dsp/oscillator/variable_shape_oscillator.h ****     waveshape_ = 0.0f;
 142              		.loc 2 56 9 is_stmt 0 view .LVU38
 143 0038 C462     		str	r4, [r0, #44]	@ float
 144              		.loc 2 57 5 is_stmt 1 view .LVU39
 145              	.LVL2:
 146              		.loc 2 57 5 is_stmt 0 view .LVU40
 147              	.LBE132:
 148              	.LBE144:
  42:eurorack/plaits/dsp/engine/virtual_analog_engine.cc ****   sync_.Init();
 149              		.loc 1 42 3 is_stmt 1 view .LVU41
 150              	.LBB145:
 151              	.LBI134:
  47:eurorack/plaits/dsp/oscillator/variable_shape_oscillator.h ****     master_phase_ = 0.0f;
 152              		.loc 2 47 8 view .LVU42
 153              	.LBB136:
  48:eurorack/plaits/dsp/oscillator/variable_shape_oscillator.h ****     slave_phase_ = 0.0f;
ARM GAS  /var/folders/9s/8rp0_f2s1n31qbztm3b5_fdh0000gn/T//ccSTbMRq.s 			page 7


 154              		.loc 2 48 5 view .LVU43
  49:eurorack/plaits/dsp/oscillator/variable_shape_oscillator.h ****     next_sample_ = 0.0f;
 155              		.loc 2 49 5 view .LVU44
  50:eurorack/plaits/dsp/oscillator/variable_shape_oscillator.h ****     previous_pw_ = 0.5f;
 156              		.loc 2 50 5 view .LVU45
  51:eurorack/plaits/dsp/oscillator/variable_shape_oscillator.h ****     high_ = false;
 157              		.loc 2 51 5 view .LVU46
  51:eurorack/plaits/dsp/oscillator/variable_shape_oscillator.h ****     high_ = false;
 158              		.loc 2 51 18 is_stmt 0 view .LVU47
 159 003a 0464     		str	r4, [r0, #64]	@ float
  52:eurorack/plaits/dsp/oscillator/variable_shape_oscillator.h ****   
 160              		.loc 2 52 5 is_stmt 1 view .LVU48
  52:eurorack/plaits/dsp/oscillator/variable_shape_oscillator.h ****   
 161              		.loc 2 52 11 is_stmt 0 view .LVU49
 162 003c 80F84420 		strb	r2, [r0, #68]
  54:eurorack/plaits/dsp/oscillator/variable_shape_oscillator.h ****     slave_frequency_ = 0.01f;
 163              		.loc 2 54 5 is_stmt 1 view .LVU50
  55:eurorack/plaits/dsp/oscillator/variable_shape_oscillator.h ****     pw_ = 0.5f;
 164              		.loc 2 55 5 view .LVU51
  55:eurorack/plaits/dsp/oscillator/variable_shape_oscillator.h ****     pw_ = 0.5f;
 165              		.loc 2 55 22 is_stmt 0 view .LVU52
 166 0040 C564     		str	r5, [r0, #76]	@ float
  56:eurorack/plaits/dsp/oscillator/variable_shape_oscillator.h ****     waveshape_ = 0.0f;
 167              		.loc 2 56 5 is_stmt 1 view .LVU53
  56:eurorack/plaits/dsp/oscillator/variable_shape_oscillator.h ****     waveshape_ = 0.0f;
 168              		.loc 2 56 9 is_stmt 0 view .LVU54
 169 0042 0465     		str	r4, [r0, #80]	@ float
 170              		.loc 2 57 5 is_stmt 1 view .LVU55
 171              	.LVL3:
 172              		.loc 2 57 5 is_stmt 0 view .LVU56
 173              	.LBE136:
 174              	.LBE145:
  43:eurorack/plaits/dsp/engine/virtual_analog_engine.cc ****   variable_saw_.Init();
 175              		.loc 1 43 3 is_stmt 1 view .LVU57
 176              	.LBB146:
 177              	.LBI137:
  47:eurorack/plaits/dsp/oscillator/variable_shape_oscillator.h ****     master_phase_ = 0.0f;
 178              		.loc 2 47 8 view .LVU58
 179              	.LBB139:
  48:eurorack/plaits/dsp/oscillator/variable_shape_oscillator.h ****     slave_phase_ = 0.0f;
 180              		.loc 2 48 5 view .LVU59
  49:eurorack/plaits/dsp/oscillator/variable_shape_oscillator.h ****     next_sample_ = 0.0f;
 181              		.loc 2 49 5 view .LVU60
  50:eurorack/plaits/dsp/oscillator/variable_shape_oscillator.h ****     previous_pw_ = 0.5f;
 182              		.loc 2 50 5 view .LVU61
  51:eurorack/plaits/dsp/oscillator/variable_shape_oscillator.h ****     high_ = false;
 183              		.loc 2 51 5 view .LVU62
  51:eurorack/plaits/dsp/oscillator/variable_shape_oscillator.h ****     high_ = false;
 184              		.loc 2 51 18 is_stmt 0 view .LVU63
 185 0044 4466     		str	r4, [r0, #100]	@ float
  52:eurorack/plaits/dsp/oscillator/variable_shape_oscillator.h ****   
 186              		.loc 2 52 5 is_stmt 1 view .LVU64
  52:eurorack/plaits/dsp/oscillator/variable_shape_oscillator.h ****   
 187              		.loc 2 52 11 is_stmt 0 view .LVU65
 188 0046 80F86820 		strb	r2, [r0, #104]
  54:eurorack/plaits/dsp/oscillator/variable_shape_oscillator.h ****     slave_frequency_ = 0.01f;
 189              		.loc 2 54 5 is_stmt 1 view .LVU66
ARM GAS  /var/folders/9s/8rp0_f2s1n31qbztm3b5_fdh0000gn/T//ccSTbMRq.s 			page 8


  55:eurorack/plaits/dsp/oscillator/variable_shape_oscillator.h ****     pw_ = 0.5f;
 190              		.loc 2 55 5 view .LVU67
  55:eurorack/plaits/dsp/oscillator/variable_shape_oscillator.h ****     pw_ = 0.5f;
 191              		.loc 2 55 22 is_stmt 0 view .LVU68
 192 004a 0567     		str	r5, [r0, #112]	@ float
  56:eurorack/plaits/dsp/oscillator/variable_shape_oscillator.h ****     waveshape_ = 0.0f;
 193              		.loc 2 56 5 is_stmt 1 view .LVU69
  56:eurorack/plaits/dsp/oscillator/variable_shape_oscillator.h ****     waveshape_ = 0.0f;
 194              		.loc 2 56 9 is_stmt 0 view .LVU70
 195 004c 4467     		str	r4, [r0, #116]	@ float
 196              		.loc 2 57 5 is_stmt 1 view .LVU71
 197              	.LVL4:
 198              		.loc 2 57 5 is_stmt 0 view .LVU72
 199              	.LBE139:
 200              	.LBE146:
  44:eurorack/plaits/dsp/engine/virtual_analog_engine.cc ****   
 201              		.loc 1 44 3 is_stmt 1 view .LVU73
 202              	.LBB147:
 203              	.LBI140:
  49:eurorack/plaits/dsp/oscillator/variable_saw_oscillator.h ****     phase_ = 0.0f;
 204              		.loc 3 49 8 view .LVU74
 205              	.LBB142:
  50:eurorack/plaits/dsp/oscillator/variable_saw_oscillator.h ****     next_sample_ = 0.0f;
 206              		.loc 3 50 5 view .LVU75
 207              		.loc 3 51 5 view .LVU76
  52:eurorack/plaits/dsp/oscillator/variable_saw_oscillator.h ****     previous_pw_ = 0.5f;
 208              		.loc 3 52 5 view .LVU77
 209              		.loc 3 52 18 is_stmt 0 view .LVU78
 210 004e C0F88440 		str	r4, [r0, #132]	@ float
  53:eurorack/plaits/dsp/oscillator/variable_saw_oscillator.h ****     high_ = false;
 211              		.loc 3 53 5 is_stmt 1 view .LVU79
 212              		.loc 3 53 11 is_stmt 0 view .LVU80
 213 0052 80F88820 		strb	r2, [r0, #136]
  54:eurorack/plaits/dsp/oscillator/variable_saw_oscillator.h ****   
  55:eurorack/plaits/dsp/oscillator/variable_saw_oscillator.h ****     frequency_ = 0.01f;
 214              		.loc 3 55 5 is_stmt 1 view .LVU81
 215              		.loc 3 55 16 is_stmt 0 view .LVU82
 216 0056 C0F88C50 		str	r5, [r0, #140]	@ float
  56:eurorack/plaits/dsp/oscillator/variable_saw_oscillator.h ****     pw_ = 0.5f;
 217              		.loc 3 56 5 is_stmt 1 view .LVU83
  57:eurorack/plaits/dsp/oscillator/variable_saw_oscillator.h ****     waveshape_ = 0.0f;
 218              		.loc 3 57 16 is_stmt 0 view .LVU84
 219 005a C0F89430 		str	r3, [r0, #148]	@ float
 220              	.LBE142:
 221              	.LBE147:
  46:eurorack/plaits/dsp/engine/virtual_analog_engine.cc ****   xmod_amount_ = 0.0f;
 222              		.loc 1 46 21 view .LVU85
 223 005e C0F89830 		str	r3, [r0, #152]	@ float
  47:eurorack/plaits/dsp/engine/virtual_analog_engine.cc ****   
 224              		.loc 1 47 16 view .LVU86
 225 0062 C0F89C30 		str	r3, [r0, #156]	@ float
 226              	.LBB148:
 227              	.LBB149:
 228              	.LBB150:
 229              		.file 4 "eurorack/stmlib/utils/buffer_allocator.h"
   1:eurorack/stmlib/utils/buffer_allocator.h **** // Copyright 2014 Emilie Gillet.
   2:eurorack/stmlib/utils/buffer_allocator.h **** //
ARM GAS  /var/folders/9s/8rp0_f2s1n31qbztm3b5_fdh0000gn/T//ccSTbMRq.s 			page 9


   3:eurorack/stmlib/utils/buffer_allocator.h **** // Author: Emilie Gillet (emilie.o.gillet@gmail.com)
   4:eurorack/stmlib/utils/buffer_allocator.h **** //
   5:eurorack/stmlib/utils/buffer_allocator.h **** // Permission is hereby granted, free of charge, to any person obtaining a copy
   6:eurorack/stmlib/utils/buffer_allocator.h **** // of this software and associated documentation files (the "Software"), to deal
   7:eurorack/stmlib/utils/buffer_allocator.h **** // in the Software without restriction, including without limitation the rights
   8:eurorack/stmlib/utils/buffer_allocator.h **** // to use, copy, modify, merge, publish, distribute, sublicense, and/or sell
   9:eurorack/stmlib/utils/buffer_allocator.h **** // copies of the Software, and to permit persons to whom the Software is
  10:eurorack/stmlib/utils/buffer_allocator.h **** // furnished to do so, subject to the following conditions:
  11:eurorack/stmlib/utils/buffer_allocator.h **** // 
  12:eurorack/stmlib/utils/buffer_allocator.h **** // The above copyright notice and this permission notice shall be included in
  13:eurorack/stmlib/utils/buffer_allocator.h **** // all copies or substantial portions of the Software.
  14:eurorack/stmlib/utils/buffer_allocator.h **** // 
  15:eurorack/stmlib/utils/buffer_allocator.h **** // THE SOFTWARE IS PROVIDED "AS IS", WITHOUT WARRANTY OF ANY KIND, EXPRESS OR
  16:eurorack/stmlib/utils/buffer_allocator.h **** // IMPLIED, INCLUDING BUT NOT LIMITED TO THE WARRANTIES OF MERCHANTABILITY,
  17:eurorack/stmlib/utils/buffer_allocator.h **** // FITNESS FOR A PARTICULAR PURPOSE AND NONINFRINGEMENT. IN NO EVENT SHALL THE
  18:eurorack/stmlib/utils/buffer_allocator.h **** // AUTHORS OR COPYRIGHT HOLDERS BE LIABLE FOR ANY CLAIM, DAMAGES OR OTHER
  19:eurorack/stmlib/utils/buffer_allocator.h **** // LIABILITY, WHETHER IN AN ACTION OF CONTRACT, TORT OR OTHERWISE, ARISING FROM,
  20:eurorack/stmlib/utils/buffer_allocator.h **** // OUT OF OR IN CONNECTION WITH THE SOFTWARE OR THE USE OR OTHER DEALINGS IN
  21:eurorack/stmlib/utils/buffer_allocator.h **** // THE SOFTWARE.
  22:eurorack/stmlib/utils/buffer_allocator.h **** // 
  23:eurorack/stmlib/utils/buffer_allocator.h **** // See http://creativecommons.org/licenses/MIT/ for more information.
  24:eurorack/stmlib/utils/buffer_allocator.h **** //
  25:eurorack/stmlib/utils/buffer_allocator.h **** // -----------------------------------------------------------------------------
  26:eurorack/stmlib/utils/buffer_allocator.h **** //
  27:eurorack/stmlib/utils/buffer_allocator.h **** // Stream buffer for serialization.
  28:eurorack/stmlib/utils/buffer_allocator.h **** 
  29:eurorack/stmlib/utils/buffer_allocator.h **** #ifndef STMLIB_UTILS_BUFFER_ALLOCATOR_H_
  30:eurorack/stmlib/utils/buffer_allocator.h **** #define STMLIB_UTILS_BUFFER_ALLOCATOR_H_
  31:eurorack/stmlib/utils/buffer_allocator.h **** 
  32:eurorack/stmlib/utils/buffer_allocator.h **** #include "stmlib/stmlib.h"
  33:eurorack/stmlib/utils/buffer_allocator.h **** 
  34:eurorack/stmlib/utils/buffer_allocator.h **** namespace stmlib {
  35:eurorack/stmlib/utils/buffer_allocator.h **** 
  36:eurorack/stmlib/utils/buffer_allocator.h **** class BufferAllocator {
  37:eurorack/stmlib/utils/buffer_allocator.h ****  public:
  38:eurorack/stmlib/utils/buffer_allocator.h ****   BufferAllocator() { }
  39:eurorack/stmlib/utils/buffer_allocator.h ****   ~BufferAllocator() { }
  40:eurorack/stmlib/utils/buffer_allocator.h ****   
  41:eurorack/stmlib/utils/buffer_allocator.h ****   BufferAllocator(void* buffer, size_t size) {
  42:eurorack/stmlib/utils/buffer_allocator.h ****     Init(buffer, size);
  43:eurorack/stmlib/utils/buffer_allocator.h ****   }
  44:eurorack/stmlib/utils/buffer_allocator.h ****   
  45:eurorack/stmlib/utils/buffer_allocator.h ****   inline void Init(void* buffer, size_t size) {
  46:eurorack/stmlib/utils/buffer_allocator.h ****     buffer_ = static_cast<uint8_t*>(buffer);
  47:eurorack/stmlib/utils/buffer_allocator.h ****     size_ = size;
  48:eurorack/stmlib/utils/buffer_allocator.h ****     Free();
  49:eurorack/stmlib/utils/buffer_allocator.h ****   }
  50:eurorack/stmlib/utils/buffer_allocator.h **** 
  51:eurorack/stmlib/utils/buffer_allocator.h ****   template<typename T>
  52:eurorack/stmlib/utils/buffer_allocator.h ****   inline T* Allocate() {
  53:eurorack/stmlib/utils/buffer_allocator.h ****     return Allocate<T>(1);
  54:eurorack/stmlib/utils/buffer_allocator.h ****   }
  55:eurorack/stmlib/utils/buffer_allocator.h ****   
  56:eurorack/stmlib/utils/buffer_allocator.h ****   template<typename T>
  57:eurorack/stmlib/utils/buffer_allocator.h ****   inline T* Allocate(size_t size) {
  58:eurorack/stmlib/utils/buffer_allocator.h ****     size_t size_bytes = sizeof(T) * size;
  59:eurorack/stmlib/utils/buffer_allocator.h ****     if (size_bytes <= free_) {
ARM GAS  /var/folders/9s/8rp0_f2s1n31qbztm3b5_fdh0000gn/T//ccSTbMRq.s 			page 10


 230              		.loc 4 59 23 view .LVU87
 231 0066 8B68     		ldr	r3, [r1, #8]
 232              	.LBE150:
 233              	.LBE149:
 234              	.LBE148:
 235              	.LBB154:
 236              	.LBB143:
  56:eurorack/plaits/dsp/oscillator/variable_saw_oscillator.h ****     waveshape_ = 0.0f;
 237              		.loc 3 56 9 view .LVU88
 238 0068 C0F89040 		str	r4, [r0, #144]	@ float
 239              		.loc 3 57 5 is_stmt 1 view .LVU89
 240              	.LVL5:
 241              		.loc 3 57 5 is_stmt 0 view .LVU90
 242              	.LBE143:
 243              	.LBE154:
  46:eurorack/plaits/dsp/engine/virtual_analog_engine.cc ****   xmod_amount_ = 0.0f;
 244              		.loc 1 46 3 is_stmt 1 view .LVU91
  47:eurorack/plaits/dsp/engine/virtual_analog_engine.cc ****   
 245              		.loc 1 47 3 view .LVU92
  49:eurorack/plaits/dsp/engine/virtual_analog_engine.cc **** }
 246              		.loc 1 49 3 view .LVU93
 247              	.LBB155:
 248              	.LBI148:
  57:eurorack/stmlib/utils/buffer_allocator.h ****     size_t size_bytes = sizeof(T) * size;
 249              		.loc 4 57 13 view .LVU94
 250              	.LBB153:
 251              	.LBB152:
 252              		.loc 4 59 5 is_stmt 0 view .LVU95
 253 006c 5F2B     		cmp	r3, #95
 254 006e 05D9     		bls	.L3
 255              	.LBB151:
  60:eurorack/stmlib/utils/buffer_allocator.h ****       T* start = static_cast<T*>(static_cast<void*>(next_));
 256              		.loc 4 60 10 view .LVU96
 257 0070 0A68     		ldr	r2, [r1]
 258              	.LVL6:
  61:eurorack/stmlib/utils/buffer_allocator.h ****       next_ += size_bytes;
  62:eurorack/stmlib/utils/buffer_allocator.h ****       free_ -= size_bytes;
 259              		.loc 4 62 13 view .LVU97
 260 0072 603B     		subs	r3, r3, #96
  61:eurorack/stmlib/utils/buffer_allocator.h ****       next_ += size_bytes;
 261              		.loc 4 61 13 view .LVU98
 262 0074 02F16004 		add	r4, r2, #96
 263              		.loc 4 62 13 view .LVU99
 264 0078 8B60     		str	r3, [r1, #8]
  61:eurorack/stmlib/utils/buffer_allocator.h ****       next_ += size_bytes;
 265              		.loc 4 61 13 view .LVU100
 266 007a 0C60     		str	r4, [r1]
 267              	.LVL7:
 268              	.L3:
  61:eurorack/stmlib/utils/buffer_allocator.h ****       next_ += size_bytes;
 269              		.loc 4 61 13 view .LVU101
 270              	.LBE151:
 271              	.LBE152:
 272              	.LBE153:
 273              	.LBE155:
  49:eurorack/plaits/dsp/engine/virtual_analog_engine.cc **** }
 274              		.loc 1 49 16 view .LVU102
ARM GAS  /var/folders/9s/8rp0_f2s1n31qbztm3b5_fdh0000gn/T//ccSTbMRq.s 			page 11


 275 007c C0F8A020 		str	r2, [r0, #160]
  50:eurorack/plaits/dsp/engine/virtual_analog_engine.cc **** 
 276              		.loc 1 50 1 view .LVU103
 277 0080 30BD     		pop	{r4, r5, pc}
 278              	.L6:
 279 0082 00BF     		.align	2
 280              	.L5:
 281 0084 0AD7233C 		.word	1008981770
 282              		.cfi_endproc
 283              	.LFE1495:
 285              		.section	.text._ZN6plaits15NoteToFrequencyEf,"axG",%progbits,_ZN6plaits15NoteToFrequencyEf,comdat
 286              		.align	1
 287              		.weak	_ZN6plaits15NoteToFrequencyEf
 288              		.syntax unified
 289              		.thumb
 290              		.thumb_func
 292              	_ZN6plaits15NoteToFrequencyEf:
 293              	.LVL8:
 294              	.LFB590:
 295              		.file 5 "eurorack/plaits/dsp/engine/engine.h"
   1:eurorack/plaits/dsp/engine/engine.h **** // Copyright 2016 Emilie Gillet.
   2:eurorack/plaits/dsp/engine/engine.h **** //
   3:eurorack/plaits/dsp/engine/engine.h **** // Author: Emilie Gillet (emilie.o.gillet@gmail.com)
   4:eurorack/plaits/dsp/engine/engine.h **** //
   5:eurorack/plaits/dsp/engine/engine.h **** // Permission is hereby granted, free of charge, to any person obtaining a copy
   6:eurorack/plaits/dsp/engine/engine.h **** // of this software and associated documentation files (the "Software"), to deal
   7:eurorack/plaits/dsp/engine/engine.h **** // in the Software without restriction, including without limitation the rights
   8:eurorack/plaits/dsp/engine/engine.h **** // to use, copy, modify, merge, publish, distribute, sublicense, and/or sell
   9:eurorack/plaits/dsp/engine/engine.h **** // copies of the Software, and to permit persons to whom the Software is
  10:eurorack/plaits/dsp/engine/engine.h **** // furnished to do so, subject to the following conditions:
  11:eurorack/plaits/dsp/engine/engine.h **** // 
  12:eurorack/plaits/dsp/engine/engine.h **** // The above copyright notice and this permission notice shall be included in
  13:eurorack/plaits/dsp/engine/engine.h **** // all copies or substantial portions of the Software.
  14:eurorack/plaits/dsp/engine/engine.h **** // 
  15:eurorack/plaits/dsp/engine/engine.h **** // THE SOFTWARE IS PROVIDED "AS IS", WITHOUT WARRANTY OF ANY KIND, EXPRESS OR
  16:eurorack/plaits/dsp/engine/engine.h **** // IMPLIED, INCLUDING BUT NOT LIMITED TO THE WARRANTIES OF MERCHANTABILITY,
  17:eurorack/plaits/dsp/engine/engine.h **** // FITNESS FOR A PARTICULAR PURPOSE AND NONINFRINGEMENT. IN NO EVENT SHALL THE
  18:eurorack/plaits/dsp/engine/engine.h **** // AUTHORS OR COPYRIGHT HOLDERS BE LIABLE FOR ANY CLAIM, DAMAGES OR OTHER
  19:eurorack/plaits/dsp/engine/engine.h **** // LIABILITY, WHETHER IN AN ACTION OF CONTRACT, TORT OR OTHERWISE, ARISING FROM,
  20:eurorack/plaits/dsp/engine/engine.h **** // OUT OF OR IN CONNECTION WITH THE SOFTWARE OR THE USE OR OTHER DEALINGS IN
  21:eurorack/plaits/dsp/engine/engine.h **** // THE SOFTWARE.
  22:eurorack/plaits/dsp/engine/engine.h **** // 
  23:eurorack/plaits/dsp/engine/engine.h **** // See http://creativecommons.org/licenses/MIT/ for more information.
  24:eurorack/plaits/dsp/engine/engine.h **** //
  25:eurorack/plaits/dsp/engine/engine.h **** // -----------------------------------------------------------------------------
  26:eurorack/plaits/dsp/engine/engine.h **** //
  27:eurorack/plaits/dsp/engine/engine.h **** // Base class for all engines.
  28:eurorack/plaits/dsp/engine/engine.h **** 
  29:eurorack/plaits/dsp/engine/engine.h **** #ifndef PLAITS_DSP_ENGINE_ENGINE_H_
  30:eurorack/plaits/dsp/engine/engine.h **** #define PLAITS_DSP_ENGINE_ENGINE_H_
  31:eurorack/plaits/dsp/engine/engine.h **** 
  32:eurorack/plaits/dsp/engine/engine.h **** #include "plaits/dsp/dsp.h"
  33:eurorack/plaits/dsp/engine/engine.h **** 
  34:eurorack/plaits/dsp/engine/engine.h **** #include "stmlib/dsp/units.h"
  35:eurorack/plaits/dsp/engine/engine.h **** #include "stmlib/utils/buffer_allocator.h"
  36:eurorack/plaits/dsp/engine/engine.h **** 
  37:eurorack/plaits/dsp/engine/engine.h **** namespace plaits {
ARM GAS  /var/folders/9s/8rp0_f2s1n31qbztm3b5_fdh0000gn/T//ccSTbMRq.s 			page 12


  38:eurorack/plaits/dsp/engine/engine.h **** 
  39:eurorack/plaits/dsp/engine/engine.h **** inline float NoteToFrequency(float midi_note) {
 296              		.loc 5 39 47 is_stmt 1 view -0
 297              		.cfi_startproc
 298              		@ args = 0, pretend = 0, frame = 0
 299              		@ frame_needed = 0, uses_anonymous_args = 0
 300              		@ link register save eliminated.
  40:eurorack/plaits/dsp/engine/engine.h ****   midi_note -= 9.0f;
 301              		.loc 5 40 3 view .LVU105
 302              		.loc 5 40 13 is_stmt 0 view .LVU106
 303 0000 F2EE027A 		vmov.f32	s15, #9.0e+0
 304 0004 30EE670A 		vsub.f32	s0, s0, s15
 305              	.LVL9:
  41:eurorack/plaits/dsp/engine/engine.h ****   CONSTRAIN(midi_note, -128.0f, 127.0f);
 306              		.loc 5 41 3 is_stmt 1 view .LVU107
 307 0008 DFED197A 		vldr.32	s15, .L12
 308 000c B4EEE70A 		vcmpe.f32	s0, s15
 309 0010 F1EE10FA 		vmrs	APSR_nzcv, FPSCR
 310 0014 28D4     		bmi	.L10
 311              		.loc 5 41 3 discriminator 2 view .LVU108
 312 0016 DFED177A 		vldr.32	s15, .L12+4
 313 001a B4EE670A 		vcmp.f32	s0, s15
 314 001e F1EE10FA 		vmrs	APSR_nzcv, FPSCR
 315 0022 37FE800A 		vselgt.f32	s0, s15, s0
 316              	.LVL10:
 317              	.L8:
 318              		.loc 5 41 40 discriminator 6 view .LVU109
  42:eurorack/plaits/dsp/engine/engine.h ****   return a0 * 0.25f * stmlib::SemitonesToRatio(midi_note);
 319              		.loc 5 42 3 discriminator 6 view .LVU110
 320              	.LBB158:
 321              	.LBI158:
 322              		.file 6 "eurorack/stmlib/dsp/units.h"
   1:eurorack/stmlib/dsp/units.h **** // Copyright 2014 Emilie Gillet.
   2:eurorack/stmlib/dsp/units.h **** //
   3:eurorack/stmlib/dsp/units.h **** // Author: Emilie Gillet (emilie.o.gillet@gmail.com)
   4:eurorack/stmlib/dsp/units.h **** //
   5:eurorack/stmlib/dsp/units.h **** // Permission is hereby granted, free of charge, to any person obtaining a copy
   6:eurorack/stmlib/dsp/units.h **** // of this software and associated documentation files (the "Software"), to deal
   7:eurorack/stmlib/dsp/units.h **** // in the Software without restriction, including without limitation the rights
   8:eurorack/stmlib/dsp/units.h **** // to use, copy, modify, merge, publish, distribute, sublicense, and/or sell
   9:eurorack/stmlib/dsp/units.h **** // copies of the Software, and to permit persons to whom the Software is
  10:eurorack/stmlib/dsp/units.h **** // furnished to do so, subject to the following conditions:
  11:eurorack/stmlib/dsp/units.h **** // 
  12:eurorack/stmlib/dsp/units.h **** // The above copyright notice and this permission notice shall be included in
  13:eurorack/stmlib/dsp/units.h **** // all copies or substantial portions of the Software.
  14:eurorack/stmlib/dsp/units.h **** // 
  15:eurorack/stmlib/dsp/units.h **** // THE SOFTWARE IS PROVIDED "AS IS", WITHOUT WARRANTY OF ANY KIND, EXPRESS OR
  16:eurorack/stmlib/dsp/units.h **** // IMPLIED, INCLUDING BUT NOT LIMITED TO THE WARRANTIES OF MERCHANTABILITY,
  17:eurorack/stmlib/dsp/units.h **** // FITNESS FOR A PARTICULAR PURPOSE AND NONINFRINGEMENT. IN NO EVENT SHALL THE
  18:eurorack/stmlib/dsp/units.h **** // AUTHORS OR COPYRIGHT HOLDERS BE LIABLE FOR ANY CLAIM, DAMAGES OR OTHER
  19:eurorack/stmlib/dsp/units.h **** // LIABILITY, WHETHER IN AN ACTION OF CONTRACT, TORT OR OTHERWISE, ARISING FROM,
  20:eurorack/stmlib/dsp/units.h **** // OUT OF OR IN CONNECTION WITH THE SOFTWARE OR THE USE OR OTHER DEALINGS IN
  21:eurorack/stmlib/dsp/units.h **** // THE SOFTWARE.
  22:eurorack/stmlib/dsp/units.h **** // 
  23:eurorack/stmlib/dsp/units.h **** // See http://creativecommons.org/licenses/MIT/ for more information.
  24:eurorack/stmlib/dsp/units.h **** //
  25:eurorack/stmlib/dsp/units.h **** // -----------------------------------------------------------------------------
ARM GAS  /var/folders/9s/8rp0_f2s1n31qbztm3b5_fdh0000gn/T//ccSTbMRq.s 			page 13


  26:eurorack/stmlib/dsp/units.h **** //
  27:eurorack/stmlib/dsp/units.h **** // Conversion from semitones to frequency ratio.
  28:eurorack/stmlib/dsp/units.h **** 
  29:eurorack/stmlib/dsp/units.h **** #ifndef STMLIB_DSP_UNITS_H_
  30:eurorack/stmlib/dsp/units.h **** #define STMLIB_DSP_UNITS_H_
  31:eurorack/stmlib/dsp/units.h **** 
  32:eurorack/stmlib/dsp/units.h **** #include "stmlib/stmlib.h"
  33:eurorack/stmlib/dsp/units.h **** #include "stmlib/dsp/dsp.h"
  34:eurorack/stmlib/dsp/units.h **** 
  35:eurorack/stmlib/dsp/units.h **** namespace stmlib {
  36:eurorack/stmlib/dsp/units.h **** 
  37:eurorack/stmlib/dsp/units.h **** extern const float lut_pitch_ratio_high[257];
  38:eurorack/stmlib/dsp/units.h **** extern const float lut_pitch_ratio_low[257];
  39:eurorack/stmlib/dsp/units.h **** 
  40:eurorack/stmlib/dsp/units.h **** inline float SemitonesToRatio(float semitones) {
 323              		.loc 6 40 14 discriminator 6 view .LVU111
 324              	.LBB159:
  41:eurorack/stmlib/dsp/units.h ****   float pitch = semitones + 128.0f;
 325              		.loc 6 41 3 discriminator 6 view .LVU112
 326              		.loc 6 41 9 is_stmt 0 discriminator 6 view .LVU113
 327 0026 DFED147A 		vldr.32	s15, .L12+8
  42:eurorack/stmlib/dsp/units.h ****   MAKE_INTEGRAL_FRACTIONAL(pitch)
  43:eurorack/stmlib/dsp/units.h **** 
  44:eurorack/stmlib/dsp/units.h ****   return lut_pitch_ratio_high[pitch_integral] * \
  45:eurorack/stmlib/dsp/units.h ****       lut_pitch_ratio_low[static_cast<int32_t>(pitch_fractional * 256.0f)];
 328              		.loc 6 45 74 discriminator 6 view .LVU114
 329 002a 144A     		ldr	r2, .L12+12
  41:eurorack/stmlib/dsp/units.h ****   float pitch = semitones + 128.0f;
 330              		.loc 6 41 9 discriminator 6 view .LVU115
 331 002c 30EE270A 		vadd.f32	s0, s0, s15
 332              	.LVL11:
  42:eurorack/stmlib/dsp/units.h ****   MAKE_INTEGRAL_FRACTIONAL(pitch)
 333              		.loc 6 42 3 is_stmt 1 discriminator 6 view .LVU116
 334 0030 FDEEC07A 		vcvt.s32.f32	s15, s0
 335              	.LVL12:
  42:eurorack/stmlib/dsp/units.h ****   MAKE_INTEGRAL_FRACTIONAL(pitch)
 336              		.loc 6 42 3 discriminator 6 view .LVU117
  44:eurorack/stmlib/dsp/units.h ****       lut_pitch_ratio_low[static_cast<int32_t>(pitch_fractional * 256.0f)];
 337              		.loc 6 44 3 discriminator 6 view .LVU118
  42:eurorack/stmlib/dsp/units.h ****   MAKE_INTEGRAL_FRACTIONAL(pitch)
 338              		.loc 6 42 3 is_stmt 0 discriminator 6 view .LVU119
 339 0034 B8EEE77A 		vcvt.f32.s32	s14, s15
  44:eurorack/stmlib/dsp/units.h ****       lut_pitch_ratio_low[static_cast<int32_t>(pitch_fractional * 256.0f)];
 340              		.loc 6 44 45 discriminator 6 view .LVU120
 341 0038 17EE901A 		vmov	r1, s15	@ int
  42:eurorack/stmlib/dsp/units.h ****   MAKE_INTEGRAL_FRACTIONAL(pitch)
 342              		.loc 6 42 3 discriminator 6 view .LVU121
 343 003c 30EE470A 		vsub.f32	s0, s0, s14
 344              		.loc 6 45 27 discriminator 6 view .LVU122
 345 0040 BEEECC0A 		vcvt.s32.f32	s0, s0, #8
 346              		.loc 6 45 74 discriminator 6 view .LVU123
 347 0044 10EE103A 		vmov	r3, s0	@ int
 348 0048 02EB8302 		add	r2, r2, r3, lsl #2
  44:eurorack/stmlib/dsp/units.h ****       lut_pitch_ratio_low[static_cast<int32_t>(pitch_fractional * 256.0f)];
 349              		.loc 6 44 45 discriminator 6 view .LVU124
 350 004c 0C4B     		ldr	r3, .L12+16
 351 004e 03EB8103 		add	r3, r3, r1, lsl #2
ARM GAS  /var/folders/9s/8rp0_f2s1n31qbztm3b5_fdh0000gn/T//ccSTbMRq.s 			page 14


 352              		.loc 6 45 74 discriminator 6 view .LVU125
 353 0052 D2ED007A 		vldr.32	s15, [r2]
 354 0056 93ED000A 		vldr.32	s0, [r3]
 355 005a 67EE807A 		vmul.f32	s15, s15, s0
 356              	.LBE159:
 357              	.LBE158:
  43:eurorack/plaits/dsp/engine/engine.h **** }
 358              		.loc 5 43 1 discriminator 6 view .LVU126
 359 005e 9FED090A 		vldr.32	s0, .L12+20
 360 0062 27EE800A 		vmul.f32	s0, s15, s0
 361 0066 7047     		bx	lr
 362              	.LVL13:
 363              	.L10:
  41:eurorack/plaits/dsp/engine/engine.h ****   return a0 * 0.25f * stmlib::SemitonesToRatio(midi_note);
 364              		.loc 5 41 3 view .LVU127
 365 0068 B0EE670A 		vmov.f32	s0, s15
 366              	.LVL14:
  41:eurorack/plaits/dsp/engine/engine.h ****   return a0 * 0.25f * stmlib::SemitonesToRatio(midi_note);
 367              		.loc 5 41 3 view .LVU128
 368 006c DBE7     		b	.L8
 369              	.L13:
 370 006e 00BF     		.align	2
 371              	.L12:
 372 0070 000000C3 		.word	-1023410176
 373 0074 0000FE42 		.word	1123942400
 374 0078 00000043 		.word	1124073472
 375 007c 00000000 		.word	_ZN6stmlib19lut_pitch_ratio_lowE
 376 0080 00000000 		.word	_ZN6stmlib20lut_pitch_ratio_highE
 377 0084 51969639 		.word	966170193
 378              		.cfi_endproc
 379              	.LFE590:
 381              		.section	.text._ZN6stmlib24NextIntegratedBlepSampleEf,"axG",%progbits,_ZN6stmlib24NextIntegratedBl
 382              		.align	1
 383              		.weak	_ZN6stmlib24NextIntegratedBlepSampleEf
 384              		.syntax unified
 385              		.thumb
 386              		.thumb_func
 388              	_ZN6stmlib24NextIntegratedBlepSampleEf:
 389              	.LVL15:
 390              	.LFB620:
 391              		.file 7 "eurorack/stmlib/dsp/polyblep.h"
   1:eurorack/stmlib/dsp/polyblep.h **** // Copyright 2017 Emilie Gillet.
   2:eurorack/stmlib/dsp/polyblep.h **** //
   3:eurorack/stmlib/dsp/polyblep.h **** // Author: Emilie Gillet (emilie.o.gillet@gmail.com)
   4:eurorack/stmlib/dsp/polyblep.h **** //
   5:eurorack/stmlib/dsp/polyblep.h **** // Permission is hereby granted, free of charge, to any person obtaining a copy
   6:eurorack/stmlib/dsp/polyblep.h **** // of this software and associated documentation files (the "Software"), to deal
   7:eurorack/stmlib/dsp/polyblep.h **** // in the Software without restriction, including without limitation the rights
   8:eurorack/stmlib/dsp/polyblep.h **** // to use, copy, modify, merge, publish, distribute, sublicense, and/or sell
   9:eurorack/stmlib/dsp/polyblep.h **** // copies of the Software, and to permit persons to whom the Software is
  10:eurorack/stmlib/dsp/polyblep.h **** // furnished to do so, subject to the following conditions:
  11:eurorack/stmlib/dsp/polyblep.h **** // 
  12:eurorack/stmlib/dsp/polyblep.h **** // The above copyright notice and this permission notice shall be included in
  13:eurorack/stmlib/dsp/polyblep.h **** // all copies or substantial portions of the Software.
  14:eurorack/stmlib/dsp/polyblep.h **** // 
  15:eurorack/stmlib/dsp/polyblep.h **** // THE SOFTWARE IS PROVIDED "AS IS", WITHOUT WARRANTY OF ANY KIND, EXPRESS OR
  16:eurorack/stmlib/dsp/polyblep.h **** // IMPLIED, INCLUDING BUT NOT LIMITED TO THE WARRANTIES OF MERCHANTABILITY,
ARM GAS  /var/folders/9s/8rp0_f2s1n31qbztm3b5_fdh0000gn/T//ccSTbMRq.s 			page 15


  17:eurorack/stmlib/dsp/polyblep.h **** // FITNESS FOR A PARTICULAR PURPOSE AND NONINFRINGEMENT. IN NO EVENT SHALL THE
  18:eurorack/stmlib/dsp/polyblep.h **** // AUTHORS OR COPYRIGHT HOLDERS BE LIABLE FOR ANY CLAIM, DAMAGES OR OTHER
  19:eurorack/stmlib/dsp/polyblep.h **** // LIABILITY, WHETHER IN AN ACTION OF CONTRACT, TORT OR OTHERWISE, ARISING FROM,
  20:eurorack/stmlib/dsp/polyblep.h **** // OUT OF OR IN CONNECTION WITH THE SOFTWARE OR THE USE OR OTHER DEALINGS IN
  21:eurorack/stmlib/dsp/polyblep.h **** // THE SOFTWARE.
  22:eurorack/stmlib/dsp/polyblep.h **** // 
  23:eurorack/stmlib/dsp/polyblep.h **** // See http://creativecommons.org/licenses/MIT/ for more information.
  24:eurorack/stmlib/dsp/polyblep.h **** //
  25:eurorack/stmlib/dsp/polyblep.h **** // -----------------------------------------------------------------------------
  26:eurorack/stmlib/dsp/polyblep.h **** //
  27:eurorack/stmlib/dsp/polyblep.h **** // Polynomial approximation of band-limited step for band-limited waveform
  28:eurorack/stmlib/dsp/polyblep.h **** // synthesis.
  29:eurorack/stmlib/dsp/polyblep.h **** 
  30:eurorack/stmlib/dsp/polyblep.h **** #ifndef STMLIB_DSP_POLYBLEP_H_
  31:eurorack/stmlib/dsp/polyblep.h **** #define STMLIB_DSP_POLYBLEP_H_
  32:eurorack/stmlib/dsp/polyblep.h **** 
  33:eurorack/stmlib/dsp/polyblep.h **** #include "stmlib/stmlib.h"
  34:eurorack/stmlib/dsp/polyblep.h **** 
  35:eurorack/stmlib/dsp/polyblep.h **** namespace stmlib {
  36:eurorack/stmlib/dsp/polyblep.h **** 
  37:eurorack/stmlib/dsp/polyblep.h **** inline float ThisBlepSample(float t) {
  38:eurorack/stmlib/dsp/polyblep.h ****   return 0.5f * t * t;
  39:eurorack/stmlib/dsp/polyblep.h **** }
  40:eurorack/stmlib/dsp/polyblep.h **** 
  41:eurorack/stmlib/dsp/polyblep.h **** inline float NextBlepSample(float t) {
  42:eurorack/stmlib/dsp/polyblep.h ****   t = 1.0f - t;
  43:eurorack/stmlib/dsp/polyblep.h ****   return -0.5f * t * t;
  44:eurorack/stmlib/dsp/polyblep.h **** }
  45:eurorack/stmlib/dsp/polyblep.h **** 
  46:eurorack/stmlib/dsp/polyblep.h **** inline float NextIntegratedBlepSample(float t) {
 392              		.loc 7 46 48 is_stmt 1 view -0
 393              		.cfi_startproc
 394              		@ args = 0, pretend = 0, frame = 0
 395              		@ frame_needed = 0, uses_anonymous_args = 0
 396              		@ link register save eliminated.
  47:eurorack/stmlib/dsp/polyblep.h ****   const float t1 = 0.5f * t;
 397              		.loc 7 47 3 view .LVU130
 398              		.loc 7 47 15 is_stmt 0 view .LVU131
 399 0000 F6EE007A 		vmov.f32	s15, #5.0e-1
 400 0004 60EE277A 		vmul.f32	s15, s0, s15
 401              	.LVL16:
  48:eurorack/stmlib/dsp/polyblep.h ****   const float t2 = t1 * t1;
 402              		.loc 7 48 3 is_stmt 1 view .LVU132
  49:eurorack/stmlib/dsp/polyblep.h ****   const float t4 = t2 * t2;
  50:eurorack/stmlib/dsp/polyblep.h ****   return 0.1875f - t1 + 1.5f * t2 - t4;
 403              		.loc 7 50 18 is_stmt 0 view .LVU133
 404 0008 B4EE080A 		vmov.f32	s0, #1.875e-1
 405              	.LVL17:
  48:eurorack/stmlib/dsp/polyblep.h ****   const float t2 = t1 * t1;
 406              		.loc 7 48 15 view .LVU134
 407 000c 27EEA77A 		vmul.f32	s14, s15, s15
 408              	.LVL18:
  49:eurorack/stmlib/dsp/polyblep.h ****   const float t4 = t2 * t2;
 409              		.loc 7 49 3 is_stmt 1 view .LVU135
 410              		.loc 7 50 3 view .LVU136
 411              		.loc 7 50 18 is_stmt 0 view .LVU137
 412 0010 30EE670A 		vsub.f32	s0, s0, s15
ARM GAS  /var/folders/9s/8rp0_f2s1n31qbztm3b5_fdh0000gn/T//ccSTbMRq.s 			page 16


 413              		.loc 7 50 23 view .LVU138
 414 0014 F7EE087A 		vmov.f32	s15, #1.5e+0
 415              	.LVL19:
 416              		.loc 7 50 23 view .LVU139
 417 0018 A7EE270A 		vfma.f32	s0, s14, s15
  51:eurorack/stmlib/dsp/polyblep.h **** }
 418              		.loc 7 51 1 view .LVU140
 419 001c A7EE470A 		vfms.f32	s0, s14, s14
 420 0020 7047     		bx	lr
 421              		.cfi_endproc
 422              	.LFE620:
 424              		.section	.text._ZN6plaits21VariableSawOscillator6RenderEfffPfj,"axG",%progbits,_ZN6plaits21Variabl
 425              		.align	1
 426              		.weak	_ZN6plaits21VariableSawOscillator6RenderEfffPfj
 427              		.syntax unified
 428              		.thumb
 429              		.thumb_func
 431              	_ZN6plaits21VariableSawOscillator6RenderEfffPfj:
 432              	.LVL20:
 433              	.LFB1478:
  58:eurorack/plaits/dsp/oscillator/variable_saw_oscillator.h ****   }
  59:eurorack/plaits/dsp/oscillator/variable_saw_oscillator.h ****   
  60:eurorack/plaits/dsp/oscillator/variable_saw_oscillator.h ****   void Render(
 434              		.loc 3 60 8 is_stmt 1 view -0
 435              		.cfi_startproc
 436              		@ args = 0, pretend = 0, frame = 0
 437              		@ frame_needed = 0, uses_anonymous_args = 0
  61:eurorack/plaits/dsp/oscillator/variable_saw_oscillator.h ****       float frequency,
  62:eurorack/plaits/dsp/oscillator/variable_saw_oscillator.h ****       float pw,
  63:eurorack/plaits/dsp/oscillator/variable_saw_oscillator.h ****       float waveshape,
  64:eurorack/plaits/dsp/oscillator/variable_saw_oscillator.h ****       float* out,
  65:eurorack/plaits/dsp/oscillator/variable_saw_oscillator.h ****       size_t size) {
  66:eurorack/plaits/dsp/oscillator/variable_saw_oscillator.h ****     if (frequency >= kMaxFrequency) {
 438              		.loc 3 66 5 view .LVU142
 439 0000 F5EE007A 		vmov.f32	s15, #2.5e-1
  60:eurorack/plaits/dsp/oscillator/variable_saw_oscillator.h ****       float frequency,
 440              		.loc 3 60 8 is_stmt 0 view .LVU143
 441 0004 70B5     		push	{r4, r5, r6, lr}
 442              		.cfi_def_cfa_offset 16
 443              		.cfi_offset 4, -16
 444              		.cfi_offset 5, -12
 445              		.cfi_offset 6, -8
 446              		.cfi_offset 14, -4
 447              		.loc 3 66 5 view .LVU144
 448 0006 B4EEE70A 		vcmpe.f32	s0, s15
  60:eurorack/plaits/dsp/oscillator/variable_saw_oscillator.h ****       float frequency,
 449              		.loc 3 60 8 view .LVU145
 450 000a 0446     		mov	r4, r0
 451 000c 0E46     		mov	r6, r1
 452 000e 1546     		mov	r5, r2
 453              		.loc 3 66 5 view .LVU146
 454 0010 F1EE10FA 		vmrs	APSR_nzcv, FPSCR
  60:eurorack/plaits/dsp/oscillator/variable_saw_oscillator.h ****       float frequency,
 455              		.loc 3 60 8 view .LVU147
 456 0014 2DED108B 		vpush.64	{d8, d9, d10, d11, d12, d13, d14, d15}
 457              		.cfi_def_cfa_offset 80
 458              		.cfi_offset 80, -80
ARM GAS  /var/folders/9s/8rp0_f2s1n31qbztm3b5_fdh0000gn/T//ccSTbMRq.s 			page 17


 459              		.cfi_offset 81, -76
 460              		.cfi_offset 82, -72
 461              		.cfi_offset 83, -68
 462              		.cfi_offset 84, -64
 463              		.cfi_offset 85, -60
 464              		.cfi_offset 86, -56
 465              		.cfi_offset 87, -52
 466              		.cfi_offset 88, -48
 467              		.cfi_offset 89, -44
 468              		.cfi_offset 90, -40
 469              		.cfi_offset 91, -36
 470              		.cfi_offset 92, -32
 471              		.cfi_offset 93, -28
 472              		.cfi_offset 94, -24
 473              		.cfi_offset 95, -20
 474              		.loc 3 66 5 view .LVU148
 475 0018 80F2A780 		bge	.L27
  67:eurorack/plaits/dsp/oscillator/variable_saw_oscillator.h ****       frequency = kMaxFrequency;
  68:eurorack/plaits/dsp/oscillator/variable_saw_oscillator.h ****     }
  69:eurorack/plaits/dsp/oscillator/variable_saw_oscillator.h ****     
  70:eurorack/plaits/dsp/oscillator/variable_saw_oscillator.h ****     if (frequency >= 0.25f) {
 476              		.loc 3 70 5 is_stmt 1 view .LVU149
  71:eurorack/plaits/dsp/oscillator/variable_saw_oscillator.h ****       pw = 0.5f;
  72:eurorack/plaits/dsp/oscillator/variable_saw_oscillator.h ****     } else {
  73:eurorack/plaits/dsp/oscillator/variable_saw_oscillator.h ****       CONSTRAIN(pw, frequency * 2.0f, 1.0f - 2.0f * frequency);
 477              		.loc 3 73 7 view .LVU150
 478 001c 70EE007A 		vadd.f32	s15, s0, s0
 479 0020 F4EEE07A 		vcmpe.f32	s15, s1
 480 0024 F1EE10FA 		vmrs	APSR_nzcv, FPSCR
 481 0028 0ADC     		bgt	.L16
 482              		.loc 3 73 7 discriminator 2 view .LVU151
 483 002a B7EE007A 		vmov.f32	s14, #1.0e+0
 484 002e 77EE677A 		vsub.f32	s15, s14, s15
 485 0032 F4EEE07A 		vcmpe.f32	s15, s1
 486 0036 F1EE10FA 		vmrs	APSR_nzcv, FPSCR
 487 003a 58BF     		it	pl
 488 003c F0EE607A 		vmovpl.f32	s15, s1
 489              	.LVL21:
 490              	.L16:
 491              		.loc 3 73 63 discriminator 6 view .LVU152
  74:eurorack/plaits/dsp/oscillator/variable_saw_oscillator.h ****     }
  75:eurorack/plaits/dsp/oscillator/variable_saw_oscillator.h **** 
  76:eurorack/plaits/dsp/oscillator/variable_saw_oscillator.h ****     stmlib::ParameterInterpolator fm(&frequency_, frequency, size);
 492              		.loc 3 76 5 discriminator 6 view .LVU153
 493              	.LBB206:
 494              	.LBI206:
 495              		.file 8 "eurorack/stmlib/dsp/parameter_interpolator.h"
   1:eurorack/stmlib/dsp/parameter_interpolator.h **** // Copyright 2015 Emilie Gillet.
   2:eurorack/stmlib/dsp/parameter_interpolator.h **** //
   3:eurorack/stmlib/dsp/parameter_interpolator.h **** // Author: Emilie Gillet (emilie.o.gillet@gmail.com)
   4:eurorack/stmlib/dsp/parameter_interpolator.h **** //
   5:eurorack/stmlib/dsp/parameter_interpolator.h **** // Permission is hereby granted, free of charge, to any person obtaining a copy
   6:eurorack/stmlib/dsp/parameter_interpolator.h **** // of this software and associated documentation files (the "Software"), to deal
   7:eurorack/stmlib/dsp/parameter_interpolator.h **** // in the Software without restriction, including without limitation the rights
   8:eurorack/stmlib/dsp/parameter_interpolator.h **** // to use, copy, modify, merge, publish, distribute, sublicense, and/or sell
   9:eurorack/stmlib/dsp/parameter_interpolator.h **** // copies of the Software, and to permit persons to whom the Software is
  10:eurorack/stmlib/dsp/parameter_interpolator.h **** // furnished to do so, subject to the following conditions:
ARM GAS  /var/folders/9s/8rp0_f2s1n31qbztm3b5_fdh0000gn/T//ccSTbMRq.s 			page 18


  11:eurorack/stmlib/dsp/parameter_interpolator.h **** // 
  12:eurorack/stmlib/dsp/parameter_interpolator.h **** // The above copyright notice and this permission notice shall be included in
  13:eurorack/stmlib/dsp/parameter_interpolator.h **** // all copies or substantial portions of the Software.
  14:eurorack/stmlib/dsp/parameter_interpolator.h **** // 
  15:eurorack/stmlib/dsp/parameter_interpolator.h **** // THE SOFTWARE IS PROVIDED "AS IS", WITHOUT WARRANTY OF ANY KIND, EXPRESS OR
  16:eurorack/stmlib/dsp/parameter_interpolator.h **** // IMPLIED, INCLUDING BUT NOT LIMITED TO THE WARRANTIES OF MERCHANTABILITY,
  17:eurorack/stmlib/dsp/parameter_interpolator.h **** // FITNESS FOR A PARTICULAR PURPOSE AND NONINFRINGEMENT. IN NO EVENT SHALL THE
  18:eurorack/stmlib/dsp/parameter_interpolator.h **** // AUTHORS OR COPYRIGHT HOLDERS BE LIABLE FOR ANY CLAIM, DAMAGES OR OTHER
  19:eurorack/stmlib/dsp/parameter_interpolator.h **** // LIABILITY, WHETHER IN AN ACTION OF CONTRACT, TORT OR OTHERWISE, ARISING FROM,
  20:eurorack/stmlib/dsp/parameter_interpolator.h **** // OUT OF OR IN CONNECTION WITH THE SOFTWARE OR THE USE OR OTHER DEALINGS IN
  21:eurorack/stmlib/dsp/parameter_interpolator.h **** // THE SOFTWARE.
  22:eurorack/stmlib/dsp/parameter_interpolator.h **** // 
  23:eurorack/stmlib/dsp/parameter_interpolator.h **** // See http://creativecommons.org/licenses/MIT/ for more information.
  24:eurorack/stmlib/dsp/parameter_interpolator.h **** //
  25:eurorack/stmlib/dsp/parameter_interpolator.h **** // -----------------------------------------------------------------------------
  26:eurorack/stmlib/dsp/parameter_interpolator.h **** //
  27:eurorack/stmlib/dsp/parameter_interpolator.h **** // Linear interpolation of parameters in rendering loops.
  28:eurorack/stmlib/dsp/parameter_interpolator.h **** 
  29:eurorack/stmlib/dsp/parameter_interpolator.h **** #ifndef STMLIB_DSP_PARAMETER_INTERPOLATOR_H_
  30:eurorack/stmlib/dsp/parameter_interpolator.h **** #define STMLIB_DSP_PARAMETER_INTERPOLATOR_H_
  31:eurorack/stmlib/dsp/parameter_interpolator.h **** 
  32:eurorack/stmlib/dsp/parameter_interpolator.h **** #include "stmlib/stmlib.h"
  33:eurorack/stmlib/dsp/parameter_interpolator.h **** 
  34:eurorack/stmlib/dsp/parameter_interpolator.h **** namespace stmlib {
  35:eurorack/stmlib/dsp/parameter_interpolator.h **** 
  36:eurorack/stmlib/dsp/parameter_interpolator.h **** class ParameterInterpolator {
  37:eurorack/stmlib/dsp/parameter_interpolator.h ****  public:
  38:eurorack/stmlib/dsp/parameter_interpolator.h ****   ParameterInterpolator() { }
  39:eurorack/stmlib/dsp/parameter_interpolator.h ****   ParameterInterpolator(float* state, float new_value, size_t size) {
 496              		.loc 8 39 3 discriminator 6 view .LVU154
 497              	.LBE206:
  40:eurorack/stmlib/dsp/parameter_interpolator.h ****     Init(state, new_value, size);
 498              		.loc 8 40 5 discriminator 6 view .LVU155
 499              	.LBB213:
 500              	.LBB207:
 501              	.LBI207:
  41:eurorack/stmlib/dsp/parameter_interpolator.h ****   }
  42:eurorack/stmlib/dsp/parameter_interpolator.h **** 
  43:eurorack/stmlib/dsp/parameter_interpolator.h ****   ParameterInterpolator(float* state, float new_value, float step) {
  44:eurorack/stmlib/dsp/parameter_interpolator.h ****     state_ = state;
  45:eurorack/stmlib/dsp/parameter_interpolator.h ****     value_ = *state;
  46:eurorack/stmlib/dsp/parameter_interpolator.h ****     increment_ = (new_value - *state) * step;
  47:eurorack/stmlib/dsp/parameter_interpolator.h ****   }
  48:eurorack/stmlib/dsp/parameter_interpolator.h **** 
  49:eurorack/stmlib/dsp/parameter_interpolator.h ****   ~ParameterInterpolator() {
  50:eurorack/stmlib/dsp/parameter_interpolator.h ****     *state_ = value_;
  51:eurorack/stmlib/dsp/parameter_interpolator.h ****   }
  52:eurorack/stmlib/dsp/parameter_interpolator.h ****   
  53:eurorack/stmlib/dsp/parameter_interpolator.h ****   inline void Init(float* state, float new_value, size_t size) {
 502              		.loc 8 53 15 discriminator 6 view .LVU156
 503              	.LBB208:
  54:eurorack/stmlib/dsp/parameter_interpolator.h ****     state_ = state;
 504              		.loc 8 54 5 discriminator 6 view .LVU157
  55:eurorack/stmlib/dsp/parameter_interpolator.h ****     value_ = *state;
 505              		.loc 8 55 5 discriminator 6 view .LVU158
 506              		.loc 8 55 14 is_stmt 0 discriminator 6 view .LVU159
 507 0040 D4ED04BA 		vldr.32	s23, [r4, #16]
ARM GAS  /var/folders/9s/8rp0_f2s1n31qbztm3b5_fdh0000gn/T//ccSTbMRq.s 			page 19


 508              	.LVL22:
  56:eurorack/stmlib/dsp/parameter_interpolator.h ****     increment_ = (new_value - *state) / static_cast<float>(size);
 509              		.loc 8 56 5 is_stmt 1 discriminator 6 view .LVU160
 510              		.loc 8 56 39 is_stmt 0 discriminator 6 view .LVU161
 511 0044 07EE105A 		vmov	s14, r5	@ int
 512              	.LBE208:
 513              	.LBE207:
 514              	.LBE213:
 515              	.LBB214:
 516              	.LBB215:
 517              	.LBB216:
  55:eurorack/stmlib/dsp/parameter_interpolator.h ****     value_ = *state;
 518              		.loc 8 55 14 discriminator 6 view .LVU162
 519 0048 D4ED058A 		vldr.32	s17, [r4, #20]
 520              	.LBE216:
 521              	.LBE215:
 522              	.LBE214:
 523              	.LBB221:
 524              	.LBB222:
 525              	.LBB223:
 526 004c 94ED06CA 		vldr.32	s24, [r4, #24]
 527              	.LBE223:
 528              	.LBE222:
 529              	.LBE221:
 530              	.LBB228:
 531              	.LBB211:
 532              	.LBB209:
 533              		.loc 8 56 39 discriminator 6 view .LVU163
 534 0050 B8EE477A 		vcvt.f32.u32	s14, s14
 535              		.loc 8 56 29 discriminator 6 view .LVU164
 536 0054 30EE6B0A 		vsub.f32	s0, s0, s23
 537              	.LVL23:
 538              		.loc 8 56 29 discriminator 6 view .LVU165
 539              	.LBE209:
 540              	.LBE211:
 541              	.LBE228:
  77:eurorack/plaits/dsp/oscillator/variable_saw_oscillator.h ****     stmlib::ParameterInterpolator pwm(&pw_, pw, size);
  78:eurorack/plaits/dsp/oscillator/variable_saw_oscillator.h ****     stmlib::ParameterInterpolator waveshape_modulation(
  79:eurorack/plaits/dsp/oscillator/variable_saw_oscillator.h ****         &waveshape_, waveshape, size);
  80:eurorack/plaits/dsp/oscillator/variable_saw_oscillator.h **** 
  81:eurorack/plaits/dsp/oscillator/variable_saw_oscillator.h ****     float next_sample = next_sample_;
 542              		.loc 3 81 11 discriminator 6 view .LVU166
 543 0058 94ED019A 		vldr.32	s18, [r4, #4]
 544              	.LBB229:
 545              	.LBB219:
 546              	.LBB217:
 547              		.loc 8 56 29 discriminator 6 view .LVU167
 548 005c 77EEE87A 		vsub.f32	s15, s15, s17
 549              	.LVL24:
 550              		.loc 8 56 29 discriminator 6 view .LVU168
 551              	.LBE217:
 552              	.LBE219:
 553              	.LBE229:
 554              	.LBB230:
 555              	.LBB226:
 556              	.LBB224:
 557 0060 31EE4C1A 		vsub.f32	s2, s2, s24
ARM GAS  /var/folders/9s/8rp0_f2s1n31qbztm3b5_fdh0000gn/T//ccSTbMRq.s 			page 20


 558              	.LVL25:
 559              		.loc 8 56 29 discriminator 6 view .LVU169
 560              	.LBE224:
 561              	.LBE226:
 562              	.LBE230:
 563              	.LBB231:
 564              	.LBB212:
 565              	.LBB210:
 566              		.loc 8 56 39 discriminator 6 view .LVU170
 567 0064 80EE07BA 		vdiv.f32	s22, s0, s14
 568              	.LVL26:
 569              		.loc 8 56 39 discriminator 6 view .LVU171
 570              	.LBE210:
 571              	.LBE212:
 572              	.LBE231:
  77:eurorack/plaits/dsp/oscillator/variable_saw_oscillator.h ****     stmlib::ParameterInterpolator pwm(&pw_, pw, size);
 573              		.loc 3 77 5 is_stmt 1 discriminator 6 view .LVU172
 574              	.LBB232:
 575              	.LBI214:
  39:eurorack/stmlib/dsp/parameter_interpolator.h ****     Init(state, new_value, size);
 576              		.loc 8 39 3 discriminator 6 view .LVU173
 577              	.LBE232:
  40:eurorack/stmlib/dsp/parameter_interpolator.h ****   }
 578              		.loc 8 40 5 discriminator 6 view .LVU174
 579              	.LBB233:
 580              	.LBB220:
 581              	.LBI215:
  53:eurorack/stmlib/dsp/parameter_interpolator.h ****     state_ = state;
 582              		.loc 8 53 15 discriminator 6 view .LVU175
 583              	.LBB218:
  54:eurorack/stmlib/dsp/parameter_interpolator.h ****     value_ = *state;
 584              		.loc 8 54 5 discriminator 6 view .LVU176
  55:eurorack/stmlib/dsp/parameter_interpolator.h ****     increment_ = (new_value - *state) / static_cast<float>(size);
 585              		.loc 8 55 5 discriminator 6 view .LVU177
 586              		.loc 8 56 5 discriminator 6 view .LVU178
 587              		.loc 8 56 39 is_stmt 0 discriminator 6 view .LVU179
 588 0068 C7EE87AA 		vdiv.f32	s21, s15, s14
 589              	.LVL27:
 590              		.loc 8 56 39 discriminator 6 view .LVU180
 591              	.LBE218:
 592              	.LBE220:
 593              	.LBE233:
  78:eurorack/plaits/dsp/oscillator/variable_saw_oscillator.h ****         &waveshape_, waveshape, size);
 594              		.loc 3 78 5 is_stmt 1 discriminator 6 view .LVU181
 595              	.LBB234:
 596              	.LBI221:
  39:eurorack/stmlib/dsp/parameter_interpolator.h ****     Init(state, new_value, size);
 597              		.loc 8 39 3 discriminator 6 view .LVU182
 598              	.LBE234:
  40:eurorack/stmlib/dsp/parameter_interpolator.h ****   }
 599              		.loc 8 40 5 discriminator 6 view .LVU183
 600              	.LBB235:
 601              	.LBB227:
 602              	.LBI222:
  53:eurorack/stmlib/dsp/parameter_interpolator.h ****     state_ = state;
 603              		.loc 8 53 15 discriminator 6 view .LVU184
 604              	.LBB225:
ARM GAS  /var/folders/9s/8rp0_f2s1n31qbztm3b5_fdh0000gn/T//ccSTbMRq.s 			page 21


  54:eurorack/stmlib/dsp/parameter_interpolator.h ****     value_ = *state;
 605              		.loc 8 54 5 discriminator 6 view .LVU185
  55:eurorack/stmlib/dsp/parameter_interpolator.h ****     increment_ = (new_value - *state) / static_cast<float>(size);
 606              		.loc 8 55 5 discriminator 6 view .LVU186
 607              		.loc 8 56 5 discriminator 6 view .LVU187
 608              		.loc 8 56 39 is_stmt 0 discriminator 6 view .LVU188
 609 006c 81EE07AA 		vdiv.f32	s20, s2, s14
 610              	.LVL28:
 611              		.loc 8 56 39 discriminator 6 view .LVU189
 612              	.LBE225:
 613              	.LBE227:
 614              	.LBE235:
 615              		.loc 3 81 5 is_stmt 1 discriminator 6 view .LVU190
 616              	.L26:
  82:eurorack/plaits/dsp/oscillator/variable_saw_oscillator.h ****     
  83:eurorack/plaits/dsp/oscillator/variable_saw_oscillator.h ****     while (size--) {
 617              		.loc 3 83 5 view .LVU191
 618              		.loc 3 83 16 view .LVU192
 619 0070 013D     		subs	r5, r5, #1
 620              	.LVL29:
 621              		.loc 3 83 16 is_stmt 0 view .LVU193
 622 0072 C0F0B780 		bcc	.L18
 623              	.LBB236:
  84:eurorack/plaits/dsp/oscillator/variable_saw_oscillator.h ****       float this_sample = next_sample;
 624              		.loc 3 84 7 is_stmt 1 view .LVU194
 625              	.LVL30:
  85:eurorack/plaits/dsp/oscillator/variable_saw_oscillator.h ****       next_sample = 0.0f;
 626              		.loc 3 85 7 view .LVU195
  86:eurorack/plaits/dsp/oscillator/variable_saw_oscillator.h ****     
  87:eurorack/plaits/dsp/oscillator/variable_saw_oscillator.h ****       const float frequency = fm.Next();
 627              		.loc 3 87 7 view .LVU196
 628              	.LBB237:
 629              	.LBI237:
  57:eurorack/stmlib/dsp/parameter_interpolator.h ****   }
  58:eurorack/stmlib/dsp/parameter_interpolator.h **** 
  59:eurorack/stmlib/dsp/parameter_interpolator.h ****   inline float Next() {
 630              		.loc 8 59 16 view .LVU197
 631              	.LBB238:
  60:eurorack/stmlib/dsp/parameter_interpolator.h ****     value_ += increment_;
 632              		.loc 8 60 5 view .LVU198
 633              	.LBE238:
 634              	.LBE237:
 635              	.LBB240:
  88:eurorack/plaits/dsp/oscillator/variable_saw_oscillator.h ****       const float pw = pwm.Next();
  89:eurorack/plaits/dsp/oscillator/variable_saw_oscillator.h ****       const float waveshape = waveshape_modulation.Next();
  90:eurorack/plaits/dsp/oscillator/variable_saw_oscillator.h ****       const float triangle_amount = waveshape;
  91:eurorack/plaits/dsp/oscillator/variable_saw_oscillator.h ****       const float notch_amount = 1.0f - waveshape;
  92:eurorack/plaits/dsp/oscillator/variable_saw_oscillator.h ****       const float slope_up = 1.0f / (pw);
  93:eurorack/plaits/dsp/oscillator/variable_saw_oscillator.h ****       const float slope_down = 1.0f / (1.0f - pw);
  94:eurorack/plaits/dsp/oscillator/variable_saw_oscillator.h **** 
  95:eurorack/plaits/dsp/oscillator/variable_saw_oscillator.h ****       phase_ += frequency;
  96:eurorack/plaits/dsp/oscillator/variable_saw_oscillator.h ****       
  97:eurorack/plaits/dsp/oscillator/variable_saw_oscillator.h ****       if (!high_ && phase_ >= pw) {
 636              		.loc 3 97 7 is_stmt 0 view .LVU199
 637 0076 237B     		ldrb	r3, [r4, #12]	@ zero_extendqisi2
 638              	.LBE240:
  91:eurorack/plaits/dsp/oscillator/variable_saw_oscillator.h ****       const float slope_up = 1.0f / (pw);
ARM GAS  /var/folders/9s/8rp0_f2s1n31qbztm3b5_fdh0000gn/T//ccSTbMRq.s 			page 22


 639              		.loc 3 91 19 view .LVU200
 640 0078 B7EE008A 		vmov.f32	s16, #1.0e+0
 641 007c DFED5FDA 		vldr.32	s27, .L36
 642              	.LBB270:
 643              	.LBB271:
 644              		.loc 8 60 12 view .LVU201
 645 0080 78EEAA8A 		vadd.f32	s17, s17, s21
 646              	.LVL31:
 647              		.loc 8 60 12 view .LVU202
 648 0084 9FED5E7A 		vldr.32	s14, .L36+4
 649              	.LBE271:
 650              	.LBE270:
 651              	.LBB273:
 652              	.LBB239:
 653 0088 7BEE8BBA 		vadd.f32	s23, s23, s22
 654              	.LVL32:
  61:eurorack/stmlib/dsp/parameter_interpolator.h ****     return value_;
 655              		.loc 8 61 5 is_stmt 1 view .LVU203
 656              		.loc 8 61 5 is_stmt 0 view .LVU204
 657              	.LBE239:
 658              	.LBE273:
  88:eurorack/plaits/dsp/oscillator/variable_saw_oscillator.h ****       const float pw = pwm.Next();
 659              		.loc 3 88 7 is_stmt 1 view .LVU205
 660              	.LBB274:
 661              	.LBI270:
  59:eurorack/stmlib/dsp/parameter_interpolator.h ****     value_ += increment_;
 662              		.loc 8 59 16 view .LVU206
 663              	.LBB272:
  60:eurorack/stmlib/dsp/parameter_interpolator.h ****     return value_;
 664              		.loc 8 60 5 view .LVU207
 665              		.loc 8 61 5 view .LVU208
 666              		.loc 8 61 5 is_stmt 0 view .LVU209
 667              	.LBE272:
 668              	.LBE274:
  89:eurorack/plaits/dsp/oscillator/variable_saw_oscillator.h ****       const float triangle_amount = waveshape;
 669              		.loc 3 89 7 is_stmt 1 view .LVU210
 670              	.LBB275:
 671              	.LBI275:
  59:eurorack/stmlib/dsp/parameter_interpolator.h ****     value_ += increment_;
 672              		.loc 8 59 16 view .LVU211
 673              	.LBB276:
  60:eurorack/stmlib/dsp/parameter_interpolator.h ****     return value_;
 674              		.loc 8 60 5 view .LVU212
  60:eurorack/stmlib/dsp/parameter_interpolator.h ****     return value_;
 675              		.loc 8 60 12 is_stmt 0 view .LVU213
 676 008c 3CEE0ACA 		vadd.f32	s24, s24, s20
 677              	.LVL33:
 678              		.loc 8 61 5 is_stmt 1 view .LVU214
 679              		.loc 8 61 5 is_stmt 0 view .LVU215
 680              	.LBE276:
 681              	.LBE275:
  90:eurorack/plaits/dsp/oscillator/variable_saw_oscillator.h ****       const float notch_amount = 1.0f - waveshape;
 682              		.loc 3 90 7 is_stmt 1 view .LVU216
  91:eurorack/plaits/dsp/oscillator/variable_saw_oscillator.h ****       const float slope_up = 1.0f / (pw);
 683              		.loc 3 91 7 view .LVU217
  93:eurorack/plaits/dsp/oscillator/variable_saw_oscillator.h **** 
 684              		.loc 3 93 45 is_stmt 0 view .LVU218
ARM GAS  /var/folders/9s/8rp0_f2s1n31qbztm3b5_fdh0000gn/T//ccSTbMRq.s 			page 23


 685 0090 78EE687A 		vsub.f32	s15, s16, s17
  92:eurorack/plaits/dsp/oscillator/variable_saw_oscillator.h ****       const float slope_down = 1.0f / (1.0f - pw);
 686              		.loc 3 92 19 view .LVU219
 687 0094 C8EE28EA 		vdiv.f32	s29, s16, s17
  93:eurorack/plaits/dsp/oscillator/variable_saw_oscillator.h **** 
 688              		.loc 3 93 19 view .LVU220
 689 0098 88EE27EA 		vdiv.f32	s28, s16, s15
  95:eurorack/plaits/dsp/oscillator/variable_saw_oscillator.h ****       
 690              		.loc 3 95 14 view .LVU221
 691 009c D4ED007A 		vldr.32	s15, [r4]
 692 00a0 7BEEA77A 		vadd.f32	s15, s23, s15
  91:eurorack/plaits/dsp/oscillator/variable_saw_oscillator.h ****       const float slope_up = 1.0f / (pw);
 693              		.loc 3 91 19 view .LVU222
 694 00a4 38EE4CDA 		vsub.f32	s26, s16, s24
 695              	.LVL34:
  92:eurorack/plaits/dsp/oscillator/variable_saw_oscillator.h ****       const float slope_down = 1.0f / (1.0f - pw);
 696              		.loc 3 92 7 is_stmt 1 view .LVU223
  93:eurorack/plaits/dsp/oscillator/variable_saw_oscillator.h **** 
 697              		.loc 3 93 7 view .LVU224
  95:eurorack/plaits/dsp/oscillator/variable_saw_oscillator.h ****       
 698              		.loc 3 95 7 view .LVU225
  95:eurorack/plaits/dsp/oscillator/variable_saw_oscillator.h ****       
 699              		.loc 3 95 14 is_stmt 0 view .LVU226
 700 00a8 C4ED007A 		vstr.32	s15, [r4]
 701              		.loc 3 97 7 is_stmt 1 view .LVU227
 702              	.LBB277:
 703 00ac 002B     		cmp	r3, #0
 704 00ae 61D1     		bne	.L19
 705              		.loc 3 97 18 is_stmt 0 discriminator 1 view .LVU228
 706 00b0 F4EEE87A 		vcmpe.f32	s15, s17
 707 00b4 F1EE10FA 		vmrs	APSR_nzcv, FPSCR
 708 00b8 5CDB     		blt	.L19
 709              	.LBB241:
  98:eurorack/plaits/dsp/oscillator/variable_saw_oscillator.h ****         const float triangle_step = (slope_up + slope_down) * frequency * triangle_amount;
 710              		.loc 3 98 9 is_stmt 1 view .LVU229
  99:eurorack/plaits/dsp/oscillator/variable_saw_oscillator.h ****         const float notch = (kVariableSawNotchDepth + 1.0f - pw) * notch_amount;
 100:eurorack/plaits/dsp/oscillator/variable_saw_oscillator.h ****         const float t = (phase_ - pw) / (previous_pw_ - pw + frequency);
 711              		.loc 3 100 55 is_stmt 0 view .LVU230
 712 00ba D4ED026A 		vldr.32	s13, [r4, #8]
 713              		.loc 3 100 33 view .LVU231
 714 00be 77EEE87A 		vsub.f32	s15, s15, s17
  99:eurorack/plaits/dsp/oscillator/variable_saw_oscillator.h ****         const float notch = (kVariableSawNotchDepth + 1.0f - pw) * notch_amount;
 715              		.loc 3 99 60 view .LVU232
 716 00c2 3DEEE86A 		vsub.f32	s12, s27, s17
 717              		.loc 3 100 55 view .LVU233
 718 00c6 76EEE86A 		vsub.f32	s13, s13, s17
  98:eurorack/plaits/dsp/oscillator/variable_saw_oscillator.h ****         const float triangle_step = (slope_up + slope_down) * frequency * triangle_amount;
 719              		.loc 3 98 47 view .LVU234
 720 00ca 7EEE8ECA 		vadd.f32	s25, s29, s28
  99:eurorack/plaits/dsp/oscillator/variable_saw_oscillator.h ****         const float notch = (kVariableSawNotchDepth + 1.0f - pw) * notch_amount;
 721              		.loc 3 99 21 view .LVU235
 722 00ce 26EE0D6A 		vmul.f32	s12, s12, s26
 723              		.loc 3 100 60 view .LVU236
 724 00d2 76EEAB6A 		vadd.f32	s13, s13, s23
  98:eurorack/plaits/dsp/oscillator/variable_saw_oscillator.h ****         const float triangle_step = (slope_up + slope_down) * frequency * triangle_amount;
 725              		.loc 3 98 61 view .LVU237
 726 00d6 6CEEABCA 		vmul.f32	s25, s25, s23
ARM GAS  /var/folders/9s/8rp0_f2s1n31qbztm3b5_fdh0000gn/T//ccSTbMRq.s 			page 24


 727              		.loc 3 100 21 view .LVU238
 728 00da 87EEA6FA 		vdiv.f32	s30, s15, s13
 729              	.LBB242:
 730              	.LBB243:
  38:eurorack/stmlib/dsp/polyblep.h **** }
 731              		.loc 7 38 15 view .LVU239
 732 00de F6EE007A 		vmov.f32	s15, #5.0e-1
 733              	.LBE243:
 734              	.LBE242:
  98:eurorack/plaits/dsp/oscillator/variable_saw_oscillator.h ****         const float triangle_step = (slope_up + slope_down) * frequency * triangle_amount;
 735              		.loc 3 98 21 view .LVU240
 736 00e2 6CEE8CCA 		vmul.f32	s25, s25, s24
 737              	.LVL35:
  99:eurorack/plaits/dsp/oscillator/variable_saw_oscillator.h ****         const float notch = (kVariableSawNotchDepth + 1.0f - pw) * notch_amount;
 738              		.loc 3 99 9 is_stmt 1 view .LVU241
 739              		.loc 3 100 9 view .LVU242
 101:eurorack/plaits/dsp/oscillator/variable_saw_oscillator.h ****         this_sample += notch * stmlib::ThisBlepSample(t);
 740              		.loc 3 101 9 view .LVU243
 741              	.LBB246:
 742              	.LBI242:
  37:eurorack/stmlib/dsp/polyblep.h ****   return 0.5f * t * t;
 743              		.loc 7 37 14 view .LVU244
 744              	.LBB244:
  38:eurorack/stmlib/dsp/polyblep.h **** }
 745              		.loc 7 38 3 view .LVU245
  38:eurorack/stmlib/dsp/polyblep.h **** }
 746              		.loc 7 38 15 is_stmt 0 view .LVU246
 747 00e6 6FEE277A 		vmul.f32	s15, s30, s15
 748              	.LBE244:
 749              	.LBE246:
 750              	.LBB247:
 751              	.LBB248:
  42:eurorack/stmlib/dsp/polyblep.h ****   return -0.5f * t * t;
 752              		.loc 7 42 5 view .LVU247
 753 00ea 38EE4F0A 		vsub.f32	s0, s16, s30
 754              	.LBE248:
 755              	.LBE247:
 756              	.LBB250:
 757              	.LBB245:
  38:eurorack/stmlib/dsp/polyblep.h **** }
 758              		.loc 7 38 21 view .LVU248
 759 00ee 67EE8F7A 		vmul.f32	s15, s15, s30
 760              	.LBE245:
 761              	.LBE250:
 762              		.loc 3 101 21 view .LVU249
 763 00f2 A6EE279A 		vfma.f32	s18, s12, s15
 764              	.LVL36:
 102:eurorack/plaits/dsp/oscillator/variable_saw_oscillator.h ****         next_sample += notch * stmlib::NextBlepSample(t);
 765              		.loc 3 102 9 is_stmt 1 view .LVU250
 766              	.LBB251:
 767              	.LBI247:
  41:eurorack/stmlib/dsp/polyblep.h ****   t = 1.0f - t;
 768              		.loc 7 41 14 view .LVU251
 769              	.LBB249:
  42:eurorack/stmlib/dsp/polyblep.h ****   return -0.5f * t * t;
 770              		.loc 7 42 3 view .LVU252
  43:eurorack/stmlib/dsp/polyblep.h **** }
ARM GAS  /var/folders/9s/8rp0_f2s1n31qbztm3b5_fdh0000gn/T//ccSTbMRq.s 			page 25


 771              		.loc 7 43 3 view .LVU253
  43:eurorack/stmlib/dsp/polyblep.h **** }
 772              		.loc 7 43 16 is_stmt 0 view .LVU254
 773 00f6 FEEE007A 		vmov.f32	s15, #-5.0e-1
 774 00fa 60EE277A 		vmul.f32	s15, s0, s15
  43:eurorack/stmlib/dsp/polyblep.h **** }
 775              		.loc 7 43 22 view .LVU255
 776 00fe 67EE807A 		vmul.f32	s15, s15, s0
 777              	.LBE249:
 778              	.LBE251:
 779              		.loc 3 102 21 view .LVU256
 780 0102 A6EE277A 		vfma.f32	s14, s12, s15
 781 0106 F0EE479A 		vmov.f32	s19, s14
 782              	.LVL37:
 103:eurorack/plaits/dsp/oscillator/variable_saw_oscillator.h ****         this_sample -= triangle_step * stmlib::ThisIntegratedBlepSample(t);
 783              		.loc 3 103 9 is_stmt 1 view .LVU257
 784              	.LBB252:
 785              	.LBI252:
  52:eurorack/stmlib/dsp/polyblep.h **** 
  53:eurorack/stmlib/dsp/polyblep.h **** inline float ThisIntegratedBlepSample(float t) {
 786              		.loc 7 53 14 view .LVU258
 787              	.LBB253:
  54:eurorack/stmlib/dsp/polyblep.h ****   return NextIntegratedBlepSample(1.0f - t);
 788              		.loc 7 54 3 view .LVU259
 789              		.loc 7 54 34 is_stmt 0 view .LVU260
 790 010a FFF7FEFF 		bl	_ZN6stmlib24NextIntegratedBlepSampleEf
 791              	.LVL38:
 792              		.loc 7 54 34 view .LVU261
 793              	.LBE253:
 794              	.LBE252:
 795              		.loc 3 103 21 view .LVU262
 796 010e ACEEC09A 		vfms.f32	s18, s25, s0
 797              	.LVL39:
 104:eurorack/plaits/dsp/oscillator/variable_saw_oscillator.h ****         next_sample -= triangle_step * stmlib::NextIntegratedBlepSample(t);
 798              		.loc 3 104 9 is_stmt 1 view .LVU263
 799              		.loc 3 104 72 is_stmt 0 view .LVU264
 800 0112 B0EE4F0A 		vmov.f32	s0, s30
 801 0116 FFF7FEFF 		bl	_ZN6stmlib24NextIntegratedBlepSampleEf
 802              	.LVL40:
 803              		.loc 3 104 21 view .LVU265
 804 011a F0EE697A 		vmov.f32	s15, s19
 105:eurorack/plaits/dsp/oscillator/variable_saw_oscillator.h ****         high_ = true;
 805              		.loc 3 105 15 view .LVU266
 806 011e 0123     		movs	r3, #1
 104:eurorack/plaits/dsp/oscillator/variable_saw_oscillator.h ****         next_sample -= triangle_step * stmlib::NextIntegratedBlepSample(t);
 807              		.loc 3 104 21 view .LVU267
 808 0120 E0EE6C7A 		vfms.f32	s15, s0, s25
 809              	.LVL41:
 810              		.loc 3 105 9 is_stmt 1 view .LVU268
 811              	.L35:
 812              		.loc 3 105 9 is_stmt 0 view .LVU269
 813              	.LBE241:
 814              	.LBB254:
 815              	.LBB255:
 106:eurorack/plaits/dsp/oscillator/variable_saw_oscillator.h ****       } else if (phase_ >= 1.0f) {
 107:eurorack/plaits/dsp/oscillator/variable_saw_oscillator.h ****         phase_ -= 1.0f;
 108:eurorack/plaits/dsp/oscillator/variable_saw_oscillator.h ****         const float triangle_step = (slope_up + slope_down) * frequency * triangle_amount;
ARM GAS  /var/folders/9s/8rp0_f2s1n31qbztm3b5_fdh0000gn/T//ccSTbMRq.s 			page 26


 109:eurorack/plaits/dsp/oscillator/variable_saw_oscillator.h ****         const float notch = (kVariableSawNotchDepth + 1.0f) * notch_amount;
 110:eurorack/plaits/dsp/oscillator/variable_saw_oscillator.h ****         const float t = phase_ / frequency;
 111:eurorack/plaits/dsp/oscillator/variable_saw_oscillator.h ****         this_sample -= notch * stmlib::ThisBlepSample(t);
 112:eurorack/plaits/dsp/oscillator/variable_saw_oscillator.h ****         next_sample -= notch * stmlib::NextBlepSample(t);
 113:eurorack/plaits/dsp/oscillator/variable_saw_oscillator.h ****         this_sample += triangle_step * stmlib::ThisIntegratedBlepSample(t);
 114:eurorack/plaits/dsp/oscillator/variable_saw_oscillator.h ****         next_sample += triangle_step * stmlib::NextIntegratedBlepSample(t);
 115:eurorack/plaits/dsp/oscillator/variable_saw_oscillator.h ****         high_ = false;
 816              		.loc 3 115 15 view .LVU270
 817 0124 2373     		strb	r3, [r4, #12]
 818              	.LVL42:
 819              	.L21:
 820              		.loc 3 115 15 view .LVU271
 821              	.LBE255:
 822              	.LBE254:
 823              	.LBE277:
 116:eurorack/plaits/dsp/oscillator/variable_saw_oscillator.h ****       }
 117:eurorack/plaits/dsp/oscillator/variable_saw_oscillator.h ****     
 118:eurorack/plaits/dsp/oscillator/variable_saw_oscillator.h ****       next_sample += ComputeNaiveSample(
 824              		.loc 3 118 7 is_stmt 1 view .LVU272
 825              		.loc 3 118 40 is_stmt 0 view .LVU273
 826 0126 94ED007A 		vldr.32	s14, [r4]
 827              	.LVL43:
 828              	.LBB278:
 829              	.LBI278:
 119:eurorack/plaits/dsp/oscillator/variable_saw_oscillator.h ****           phase_,
 120:eurorack/plaits/dsp/oscillator/variable_saw_oscillator.h ****           pw,
 121:eurorack/plaits/dsp/oscillator/variable_saw_oscillator.h ****           slope_up,
 122:eurorack/plaits/dsp/oscillator/variable_saw_oscillator.h ****           slope_down,
 123:eurorack/plaits/dsp/oscillator/variable_saw_oscillator.h ****           triangle_amount,
 124:eurorack/plaits/dsp/oscillator/variable_saw_oscillator.h ****           notch_amount);
 125:eurorack/plaits/dsp/oscillator/variable_saw_oscillator.h ****       previous_pw_ = pw;
 126:eurorack/plaits/dsp/oscillator/variable_saw_oscillator.h **** 
 127:eurorack/plaits/dsp/oscillator/variable_saw_oscillator.h ****       *out++ = (2.0f * this_sample - 1.0f) / (1.0f + kVariableSawNotchDepth);
 128:eurorack/plaits/dsp/oscillator/variable_saw_oscillator.h ****     }
 129:eurorack/plaits/dsp/oscillator/variable_saw_oscillator.h ****     
 130:eurorack/plaits/dsp/oscillator/variable_saw_oscillator.h ****     next_sample_ = next_sample;
 131:eurorack/plaits/dsp/oscillator/variable_saw_oscillator.h ****   }
 132:eurorack/plaits/dsp/oscillator/variable_saw_oscillator.h **** 
 133:eurorack/plaits/dsp/oscillator/variable_saw_oscillator.h **** 
 134:eurorack/plaits/dsp/oscillator/variable_saw_oscillator.h ****  private:
 135:eurorack/plaits/dsp/oscillator/variable_saw_oscillator.h ****   inline float ComputeNaiveSample(
 830              		.loc 3 135 16 is_stmt 1 view .LVU274
 831              	.LBB279:
 136:eurorack/plaits/dsp/oscillator/variable_saw_oscillator.h ****       float phase,
 137:eurorack/plaits/dsp/oscillator/variable_saw_oscillator.h ****       float pw,
 138:eurorack/plaits/dsp/oscillator/variable_saw_oscillator.h ****       float slope_up,
 139:eurorack/plaits/dsp/oscillator/variable_saw_oscillator.h ****       float slope_down,
 140:eurorack/plaits/dsp/oscillator/variable_saw_oscillator.h ****       float triangle_amount,
 141:eurorack/plaits/dsp/oscillator/variable_saw_oscillator.h ****       float notch_amount) const {
 142:eurorack/plaits/dsp/oscillator/variable_saw_oscillator.h ****     float notch_saw = phase < pw ? phase : 1.0f + kVariableSawNotchDepth;
 832              		.loc 3 142 5 view .LVU275
 833              	.LBE279:
 834              	.LBE278:
 127:eurorack/plaits/dsp/oscillator/variable_saw_oscillator.h ****     }
 835              		.loc 3 127 36 is_stmt 0 view .LVU276
 836 012a F0EE006A 		vmov.f32	s13, #2.0e+0
 125:eurorack/plaits/dsp/oscillator/variable_saw_oscillator.h **** 
ARM GAS  /var/folders/9s/8rp0_f2s1n31qbztm3b5_fdh0000gn/T//ccSTbMRq.s 			page 27


 837              		.loc 3 125 20 view .LVU277
 838 012e C4ED028A 		vstr.32	s17, [r4, #8]
 839              	.LBB281:
 840              	.LBB280:
 841              		.loc 3 142 34 view .LVU278
 842 0132 B4EEE87A 		vcmpe.f32	s14, s17
 843 0136 F1EE10FA 		vmrs	APSR_nzcv, FPSCR
 844              	.LVL44:
 143:eurorack/plaits/dsp/oscillator/variable_saw_oscillator.h ****     float triangle = phase < pw
 144:eurorack/plaits/dsp/oscillator/variable_saw_oscillator.h ****         ? phase * slope_up
 145:eurorack/plaits/dsp/oscillator/variable_saw_oscillator.h ****         : 1.0f - (phase - pw) * slope_down;
 845              		.loc 3 145 25 view .LVU279
 846 013a 57BF     		itett	pl
 847 013c 37EE687A 		vsubpl.f32	s14, s14, s17
 848              	.LVL45:
 144:eurorack/plaits/dsp/oscillator/variable_saw_oscillator.h ****         : 1.0f - (phase - pw) * slope_down;
 849              		.loc 3 144 9 view .LVU280
 850 0140 27EE2E8A 		vmulmi.f32	s16, s14, s29
 851              	.LVL46:
 143:eurorack/plaits/dsp/oscillator/variable_saw_oscillator.h ****     float triangle = phase < pw
 852              		.loc 3 143 5 is_stmt 1 view .LVU281
 144:eurorack/plaits/dsp/oscillator/variable_saw_oscillator.h ****         : 1.0f - (phase - pw) * slope_down;
 853              		.loc 3 144 9 is_stmt 0 view .LVU282
 854 0144 AEEE478A 		vfmspl.f32	s16, s28, s14
 142:eurorack/plaits/dsp/oscillator/variable_saw_oscillator.h ****     float triangle = phase < pw
 855              		.loc 3 142 34 view .LVU283
 856 0148 9FED2C7A 		vldrpl.32	s14, .L36
 857              	.LVL47:
 146:eurorack/plaits/dsp/oscillator/variable_saw_oscillator.h ****     return notch_saw * notch_amount + triangle * triangle_amount;
 858              		.loc 3 146 5 is_stmt 1 view .LVU284
 859              		.loc 3 146 48 is_stmt 0 view .LVU285
 860 014c 2CEE088A 		vmul.f32	s16, s24, s16
 861              	.LVL48:
 862              		.loc 3 146 50 view .LVU286
 863 0150 ADEE078A 		vfma.f32	s16, s26, s14
 864              	.LVL49:
 865              		.loc 3 146 50 view .LVU287
 866              	.LBE280:
 867              	.LBE281:
 125:eurorack/plaits/dsp/oscillator/variable_saw_oscillator.h **** 
 868              		.loc 3 125 7 is_stmt 1 view .LVU288
 127:eurorack/plaits/dsp/oscillator/variable_saw_oscillator.h ****     }
 869              		.loc 3 127 7 view .LVU289
 127:eurorack/plaits/dsp/oscillator/variable_saw_oscillator.h ****     }
 870              		.loc 3 127 36 is_stmt 0 view .LVU290
 871 0154 BFEE007A 		vmov.f32	s14, #-1.0e+0
 872 0158 A9EE267A 		vfma.f32	s14, s18, s13
 873              	.LVL50:
 118:eurorack/plaits/dsp/oscillator/variable_saw_oscillator.h ****           phase_,
 874              		.loc 3 118 19 view .LVU291
 875 015c 37EE889A 		vadd.f32	s18, s15, s16
 876              	.LVL51:
 127:eurorack/plaits/dsp/oscillator/variable_saw_oscillator.h ****     }
 877              		.loc 3 127 44 view .LVU292
 878 0160 C7EE2D6A 		vdiv.f32	s13, s14, s27
 127:eurorack/plaits/dsp/oscillator/variable_saw_oscillator.h ****     }
 879              		.loc 3 127 14 view .LVU293
ARM GAS  /var/folders/9s/8rp0_f2s1n31qbztm3b5_fdh0000gn/T//ccSTbMRq.s 			page 28


 880 0164 E6EC016A 		vstmia.32	r6!, {s13}
 881              	.LVL52:
 127:eurorack/plaits/dsp/oscillator/variable_saw_oscillator.h ****     }
 882              		.loc 3 127 14 view .LVU294
 883              	.LBE236:
  83:eurorack/plaits/dsp/oscillator/variable_saw_oscillator.h ****       float this_sample = next_sample;
 884              		.loc 3 83 5 view .LVU295
 885 0168 82E7     		b	.L26
 886              	.LVL53:
 887              	.L27:
  67:eurorack/plaits/dsp/oscillator/variable_saw_oscillator.h ****     }
 888              		.loc 3 67 17 view .LVU296
 889 016a B0EE670A 		vmov.f32	s0, s15
 890              	.LVL54:
  71:eurorack/plaits/dsp/oscillator/variable_saw_oscillator.h ****     } else {
 891              		.loc 3 71 10 view .LVU297
 892 016e F6EE007A 		vmov.f32	s15, #5.0e-1
 893 0172 65E7     		b	.L16
 894              	.LVL55:
 895              	.L19:
 106:eurorack/plaits/dsp/oscillator/variable_saw_oscillator.h ****         phase_ -= 1.0f;
 896              		.loc 3 106 14 is_stmt 1 view .LVU298
 897              	.LBB283:
 898              	.LBB282:
 899              	.LBB269:
 900 0174 F4EEC87A 		vcmpe.f32	s15, s16
 901 0178 F1EE10FA 		vmrs	APSR_nzcv, FPSCR
 902 017c 2FDB     		blt	.L33
 903              	.LBB268:
 107:eurorack/plaits/dsp/oscillator/variable_saw_oscillator.h ****         const float triangle_step = (slope_up + slope_down) * frequency * triangle_amount;
 904              		.loc 3 107 9 view .LVU299
 107:eurorack/plaits/dsp/oscillator/variable_saw_oscillator.h ****         const float triangle_step = (slope_up + slope_down) * frequency * triangle_amount;
 905              		.loc 3 107 16 is_stmt 0 view .LVU300
 906 017e 77EEC87A 		vsub.f32	s15, s15, s16
 111:eurorack/plaits/dsp/oscillator/variable_saw_oscillator.h ****         next_sample -= notch * stmlib::NextBlepSample(t);
 907              		.loc 3 111 21 view .LVU301
 908 0182 6DEECD6A 		vnmul.f32	s13, s27, s26
 108:eurorack/plaits/dsp/oscillator/variable_saw_oscillator.h ****         const float notch = (kVariableSawNotchDepth + 1.0f) * notch_amount;
 909              		.loc 3 108 47 view .LVU302
 910 0186 7EEE8ECA 		vadd.f32	s25, s29, s28
 110:eurorack/plaits/dsp/oscillator/variable_saw_oscillator.h ****         this_sample -= notch * stmlib::ThisBlepSample(t);
 911              		.loc 3 110 21 view .LVU303
 912 018a 87EEABFA 		vdiv.f32	s30, s15, s23
 107:eurorack/plaits/dsp/oscillator/variable_saw_oscillator.h ****         const float triangle_step = (slope_up + slope_down) * frequency * triangle_amount;
 913              		.loc 3 107 16 view .LVU304
 914 018e C4ED007A 		vstr.32	s15, [r4]
 108:eurorack/plaits/dsp/oscillator/variable_saw_oscillator.h ****         const float notch = (kVariableSawNotchDepth + 1.0f) * notch_amount;
 915              		.loc 3 108 9 is_stmt 1 view .LVU305
 916              	.LBB256:
 917              	.LBB257:
  38:eurorack/stmlib/dsp/polyblep.h **** }
 918              		.loc 7 38 15 is_stmt 0 view .LVU306
 919 0192 F6EE007A 		vmov.f32	s15, #5.0e-1
 920              	.LBE257:
 921              	.LBE256:
 108:eurorack/plaits/dsp/oscillator/variable_saw_oscillator.h ****         const float notch = (kVariableSawNotchDepth + 1.0f) * notch_amount;
 922              		.loc 3 108 61 view .LVU307
ARM GAS  /var/folders/9s/8rp0_f2s1n31qbztm3b5_fdh0000gn/T//ccSTbMRq.s 			page 29


 923 0196 6CEEABCA 		vmul.f32	s25, s25, s23
 108:eurorack/plaits/dsp/oscillator/variable_saw_oscillator.h ****         const float notch = (kVariableSawNotchDepth + 1.0f) * notch_amount;
 924              		.loc 3 108 21 view .LVU308
 925 019a 6CEE8CCA 		vmul.f32	s25, s25, s24
 926              	.LVL56:
 109:eurorack/plaits/dsp/oscillator/variable_saw_oscillator.h ****         const float t = phase_ / frequency;
 927              		.loc 3 109 9 is_stmt 1 view .LVU309
 110:eurorack/plaits/dsp/oscillator/variable_saw_oscillator.h ****         this_sample -= notch * stmlib::ThisBlepSample(t);
 928              		.loc 3 110 9 view .LVU310
 111:eurorack/plaits/dsp/oscillator/variable_saw_oscillator.h ****         next_sample -= notch * stmlib::NextBlepSample(t);
 929              		.loc 3 111 9 view .LVU311
 930              	.LBB260:
 931              	.LBI256:
  37:eurorack/stmlib/dsp/polyblep.h ****   return 0.5f * t * t;
 932              		.loc 7 37 14 view .LVU312
 933              	.LBB258:
  38:eurorack/stmlib/dsp/polyblep.h **** }
 934              		.loc 7 38 3 view .LVU313
  38:eurorack/stmlib/dsp/polyblep.h **** }
 935              		.loc 7 38 15 is_stmt 0 view .LVU314
 936 019e 6FEE277A 		vmul.f32	s15, s30, s15
 937              	.LBE258:
 938              	.LBE260:
 939              	.LBB261:
 940              	.LBB262:
  42:eurorack/stmlib/dsp/polyblep.h ****   return -0.5f * t * t;
 941              		.loc 7 42 5 view .LVU315
 942 01a2 38EE4F0A 		vsub.f32	s0, s16, s30
 943              	.LBE262:
 944              	.LBE261:
 945              	.LBB264:
 946              	.LBB259:
  38:eurorack/stmlib/dsp/polyblep.h **** }
 947              		.loc 7 38 21 view .LVU316
 948 01a6 67EE8F7A 		vmul.f32	s15, s15, s30
 949              	.LBE259:
 950              	.LBE264:
 111:eurorack/plaits/dsp/oscillator/variable_saw_oscillator.h ****         next_sample -= notch * stmlib::NextBlepSample(t);
 951              		.loc 3 111 21 view .LVU317
 952 01aa A6EEA79A 		vfma.f32	s18, s13, s15
 953              	.LVL57:
 112:eurorack/plaits/dsp/oscillator/variable_saw_oscillator.h ****         this_sample += triangle_step * stmlib::ThisIntegratedBlepSample(t);
 954              		.loc 3 112 9 is_stmt 1 view .LVU318
 955              	.LBB265:
 956              	.LBI261:
  41:eurorack/stmlib/dsp/polyblep.h ****   t = 1.0f - t;
 957              		.loc 7 41 14 view .LVU319
 958              	.LBB263:
  42:eurorack/stmlib/dsp/polyblep.h ****   return -0.5f * t * t;
 959              		.loc 7 42 3 view .LVU320
  43:eurorack/stmlib/dsp/polyblep.h **** }
 960              		.loc 7 43 3 view .LVU321
  43:eurorack/stmlib/dsp/polyblep.h **** }
 961              		.loc 7 43 16 is_stmt 0 view .LVU322
 962 01ae FEEE007A 		vmov.f32	s15, #-5.0e-1
 963 01b2 60EE277A 		vmul.f32	s15, s0, s15
  43:eurorack/stmlib/dsp/polyblep.h **** }
ARM GAS  /var/folders/9s/8rp0_f2s1n31qbztm3b5_fdh0000gn/T//ccSTbMRq.s 			page 30


 964              		.loc 7 43 22 view .LVU323
 965 01b6 67EE807A 		vmul.f32	s15, s15, s0
 966              	.LBE263:
 967              	.LBE265:
 112:eurorack/plaits/dsp/oscillator/variable_saw_oscillator.h ****         this_sample += triangle_step * stmlib::ThisIntegratedBlepSample(t);
 968              		.loc 3 112 21 view .LVU324
 969 01ba A6EEA77A 		vfma.f32	s14, s13, s15
 970 01be F0EE479A 		vmov.f32	s19, s14
 971              	.LVL58:
 113:eurorack/plaits/dsp/oscillator/variable_saw_oscillator.h ****         next_sample += triangle_step * stmlib::NextIntegratedBlepSample(t);
 972              		.loc 3 113 9 is_stmt 1 view .LVU325
 973              	.LBB266:
 974              	.LBI266:
  53:eurorack/stmlib/dsp/polyblep.h ****   return NextIntegratedBlepSample(1.0f - t);
 975              		.loc 7 53 14 view .LVU326
 976              	.LBB267:
 977              		.loc 7 54 3 view .LVU327
 978              		.loc 7 54 34 is_stmt 0 view .LVU328
 979 01c2 FFF7FEFF 		bl	_ZN6stmlib24NextIntegratedBlepSampleEf
 980              	.LVL59:
 981              		.loc 7 54 34 view .LVU329
 982              	.LBE267:
 983              	.LBE266:
 113:eurorack/plaits/dsp/oscillator/variable_saw_oscillator.h ****         next_sample += triangle_step * stmlib::NextIntegratedBlepSample(t);
 984              		.loc 3 113 21 view .LVU330
 985 01c6 ACEE809A 		vfma.f32	s18, s25, s0
 986              	.LVL60:
 114:eurorack/plaits/dsp/oscillator/variable_saw_oscillator.h ****         high_ = false;
 987              		.loc 3 114 9 is_stmt 1 view .LVU331
 114:eurorack/plaits/dsp/oscillator/variable_saw_oscillator.h ****         high_ = false;
 988              		.loc 3 114 72 is_stmt 0 view .LVU332
 989 01ca B0EE4F0A 		vmov.f32	s0, s30
 990 01ce FFF7FEFF 		bl	_ZN6stmlib24NextIntegratedBlepSampleEf
 991              	.LVL61:
 114:eurorack/plaits/dsp/oscillator/variable_saw_oscillator.h ****         high_ = false;
 992              		.loc 3 114 21 view .LVU333
 993 01d2 F0EE697A 		vmov.f32	s15, s19
 115:eurorack/plaits/dsp/oscillator/variable_saw_oscillator.h ****       }
 994              		.loc 3 115 15 view .LVU334
 995 01d6 0023     		movs	r3, #0
 114:eurorack/plaits/dsp/oscillator/variable_saw_oscillator.h ****         high_ = false;
 996              		.loc 3 114 21 view .LVU335
 997 01d8 E0EE2C7A 		vfma.f32	s15, s0, s25
 998              	.LVL62:
 115:eurorack/plaits/dsp/oscillator/variable_saw_oscillator.h ****       }
 999              		.loc 3 115 9 is_stmt 1 view .LVU336
 1000 01dc A2E7     		b	.L35
 1001              	.LVL63:
 1002              	.L33:
 115:eurorack/plaits/dsp/oscillator/variable_saw_oscillator.h ****       }
 1003              		.loc 3 115 9 is_stmt 0 view .LVU337
 1004              	.LBE268:
 1005              	.LBE269:
 1006              	.LBE282:
  85:eurorack/plaits/dsp/oscillator/variable_saw_oscillator.h ****     
 1007              		.loc 3 85 19 view .LVU338
 1008 01de DFED087A 		vldr.32	s15, .L36+4
ARM GAS  /var/folders/9s/8rp0_f2s1n31qbztm3b5_fdh0000gn/T//ccSTbMRq.s 			page 31


 1009 01e2 A0E7     		b	.L21
 1010              	.LVL64:
 1011              	.L18:
  85:eurorack/plaits/dsp/oscillator/variable_saw_oscillator.h ****     
 1012              		.loc 3 85 19 view .LVU339
 1013              	.LBE283:
 130:eurorack/plaits/dsp/oscillator/variable_saw_oscillator.h ****   }
 1014              		.loc 3 130 5 is_stmt 1 view .LVU340
 130:eurorack/plaits/dsp/oscillator/variable_saw_oscillator.h ****   }
 1015              		.loc 3 130 18 is_stmt 0 view .LVU341
 1016 01e4 84ED019A 		vstr.32	s18, [r4, #4]
 1017              	.LVL65:
 1018              	.LBB284:
 1019              	.LBI284:
  49:eurorack/stmlib/dsp/parameter_interpolator.h ****     *state_ = value_;
 1020              		.loc 8 49 3 is_stmt 1 view .LVU342
 1021              	.LBB285:
  50:eurorack/stmlib/dsp/parameter_interpolator.h ****   }
 1022              		.loc 8 50 5 view .LVU343
  50:eurorack/stmlib/dsp/parameter_interpolator.h ****   }
 1023              		.loc 8 50 13 is_stmt 0 view .LVU344
 1024 01e8 84ED06CA 		vstr.32	s24, [r4, #24]
 1025              	.LVL66:
  50:eurorack/stmlib/dsp/parameter_interpolator.h ****   }
 1026              		.loc 8 50 13 view .LVU345
 1027              	.LBE285:
 1028              	.LBE284:
 1029              	.LBB286:
 1030              	.LBI286:
  49:eurorack/stmlib/dsp/parameter_interpolator.h ****     *state_ = value_;
 1031              		.loc 8 49 3 is_stmt 1 view .LVU346
 1032              	.LBB287:
  50:eurorack/stmlib/dsp/parameter_interpolator.h ****   }
 1033              		.loc 8 50 5 view .LVU347
  50:eurorack/stmlib/dsp/parameter_interpolator.h ****   }
 1034              		.loc 8 50 13 is_stmt 0 view .LVU348
 1035 01ec C4ED058A 		vstr.32	s17, [r4, #20]
 1036              	.LVL67:
  50:eurorack/stmlib/dsp/parameter_interpolator.h ****   }
 1037              		.loc 8 50 13 view .LVU349
 1038              	.LBE287:
 1039              	.LBE286:
 1040              	.LBB288:
 1041              	.LBI288:
  49:eurorack/stmlib/dsp/parameter_interpolator.h ****     *state_ = value_;
 1042              		.loc 8 49 3 is_stmt 1 view .LVU350
 1043              	.LBB289:
  50:eurorack/stmlib/dsp/parameter_interpolator.h ****   }
 1044              		.loc 8 50 5 view .LVU351
  50:eurorack/stmlib/dsp/parameter_interpolator.h ****   }
 1045              		.loc 8 50 13 is_stmt 0 view .LVU352
 1046 01f0 C4ED04BA 		vstr.32	s23, [r4, #16]
 1047              	.LVL68:
  50:eurorack/stmlib/dsp/parameter_interpolator.h ****   }
 1048              		.loc 8 50 13 view .LVU353
 1049              	.LBE289:
 1050              	.LBE288:
ARM GAS  /var/folders/9s/8rp0_f2s1n31qbztm3b5_fdh0000gn/T//ccSTbMRq.s 			page 32


 131:eurorack/plaits/dsp/oscillator/variable_saw_oscillator.h **** 
 1051              		.loc 3 131 3 view .LVU354
 1052 01f4 BDEC108B 		vldm	sp!, {d8-d15}
 1053              		.cfi_restore 94
 1054              		.cfi_restore 95
 1055              		.cfi_restore 92
 1056              		.cfi_restore 93
 1057              		.cfi_restore 90
 1058              		.cfi_restore 91
 1059              		.cfi_restore 88
 1060              		.cfi_restore 89
 1061              		.cfi_restore 86
 1062              		.cfi_restore 87
 1063              		.cfi_restore 84
 1064              		.cfi_restore 85
 1065              		.cfi_restore 82
 1066              		.cfi_restore 83
 1067              		.cfi_restore 80
 1068              		.cfi_restore 81
 1069              		.cfi_def_cfa_offset 16
 1070              	.LVL69:
 131:eurorack/plaits/dsp/oscillator/variable_saw_oscillator.h **** 
 1071              		.loc 3 131 3 view .LVU355
 1072 01f8 70BD     		pop	{r4, r5, r6, pc}
 1073              	.LVL70:
 1074              	.L37:
 131:eurorack/plaits/dsp/oscillator/variable_saw_oscillator.h **** 
 1075              		.loc 3 131 3 view .LVU356
 1076 01fa 00BF     		.align	2
 1077              	.L36:
 1078 01fc 9A99993F 		.word	1067030938
 1079 0200 00000000 		.word	0
 1080              		.cfi_endproc
 1081              	.LFE1478:
 1083              		.section	.text._ZNK6plaits19VirtualAnalogEngine15ComputeDetuningEf,"ax",%progbits
 1084              		.align	1
 1085              		.global	_ZNK6plaits19VirtualAnalogEngine15ComputeDetuningEf
 1086              		.syntax unified
 1087              		.thumb
 1088              		.thumb_func
 1090              	_ZNK6plaits19VirtualAnalogEngine15ComputeDetuningEf:
 1091              	.LVL71:
 1092              	.LFB1498:
  55:eurorack/plaits/dsp/engine/virtual_analog_engine.cc **** 
  56:eurorack/plaits/dsp/engine/virtual_analog_engine.cc **** const float intervals[5] = {
  57:eurorack/plaits/dsp/engine/virtual_analog_engine.cc ****   0.0f, 7.01f, 12.01f, 19.01f, 24.01f
  58:eurorack/plaits/dsp/engine/virtual_analog_engine.cc **** };
  59:eurorack/plaits/dsp/engine/virtual_analog_engine.cc **** 
  60:eurorack/plaits/dsp/engine/virtual_analog_engine.cc **** inline float Squash(float x) {
  61:eurorack/plaits/dsp/engine/virtual_analog_engine.cc ****   return x * x * (3.0f - 2.0f * x);
  62:eurorack/plaits/dsp/engine/virtual_analog_engine.cc **** }
  63:eurorack/plaits/dsp/engine/virtual_analog_engine.cc **** 
  64:eurorack/plaits/dsp/engine/virtual_analog_engine.cc **** float VirtualAnalogEngine::ComputeDetuning(float detune) const {
 1093              		.loc 1 64 64 is_stmt 1 view -0
 1094              		.cfi_startproc
 1095              		@ args = 0, pretend = 0, frame = 0
 1096              		@ frame_needed = 0, uses_anonymous_args = 0
ARM GAS  /var/folders/9s/8rp0_f2s1n31qbztm3b5_fdh0000gn/T//ccSTbMRq.s 			page 33


 1097              		@ link register save eliminated.
  65:eurorack/plaits/dsp/engine/virtual_analog_engine.cc ****   detune = 2.05f * detune - 1.025f;
 1098              		.loc 1 65 3 view .LVU358
 1099              		.loc 1 65 10 is_stmt 0 view .LVU359
 1100 0000 9FED287A 		vldr.32	s14, .L44
 1101 0004 DFED287A 		vldr.32	s15, .L44+4
 1102 0008 E0EE077A 		vfma.f32	s15, s0, s14
 1103              	.LVL72:
  66:eurorack/plaits/dsp/engine/virtual_analog_engine.cc ****   CONSTRAIN(detune, -1.0f, 1.0f);
 1104              		.loc 1 66 3 is_stmt 1 view .LVU360
 1105 000c BFEE007A 		vmov.f32	s14, #-1.0e+0
 1106 0010 F4EEC77A 		vcmpe.f32	s15, s14
 1107 0014 F1EE10FA 		vmrs	APSR_nzcv, FPSCR
 1108 0018 3BD4     		bmi	.L40
 1109              		.loc 1 66 3 discriminator 2 view .LVU361
 1110 001a B7EE000A 		vmov.f32	s0, #1.0e+0
 1111 001e F4EEC07A 		vcmpe.f32	s15, s0
 1112 0022 F1EE10FA 		vmrs	APSR_nzcv, FPSCR
 1113 0026 39DC     		bgt	.L41
 1114              		.loc 1 66 33 discriminator 6 view .LVU362
  67:eurorack/plaits/dsp/engine/virtual_analog_engine.cc ****   
  68:eurorack/plaits/dsp/engine/virtual_analog_engine.cc ****   float sign = detune < 0.0f ? -1.0f : 1.0f;
 1115              		.loc 1 68 3 discriminator 6 view .LVU363
 1116              		.loc 1 68 30 is_stmt 0 discriminator 6 view .LVU364
 1117 0028 F5EEC07A 		vcmpe.f32	s15, #0
 1118 002c F1EE10FA 		vmrs	APSR_nzcv, FPSCR
 1119 0030 58BF     		it	pl
 1120 0032 B0EE407A 		vmovpl.f32	s14, s0
 1121              	.LVL73:
 1122              	.L39:
  69:eurorack/plaits/dsp/engine/virtual_analog_engine.cc ****   detune = detune * sign * 3.9999f;
 1123              		.loc 1 69 3 is_stmt 1 discriminator 4 view .LVU365
 1124              		.loc 1 69 19 is_stmt 0 discriminator 4 view .LVU366
 1125 0036 67EE277A 		vmul.f32	s15, s14, s15
 1126              		.loc 1 69 10 discriminator 4 view .LVU367
 1127 003a DFED1C6A 		vldr.32	s13, .L44+8
 1128              	.LBB294:
 1129              	.LBB295:
  61:eurorack/plaits/dsp/engine/virtual_analog_engine.cc **** }
 1130              		.loc 1 61 24 discriminator 4 view .LVU368
 1131 003e B0EE086A 		vmov.f32	s12, #3.0e+0
 1132              	.LBE295:
 1133              	.LBE294:
  70:eurorack/plaits/dsp/engine/virtual_analog_engine.cc ****   MAKE_INTEGRAL_FRACTIONAL(detune);
  71:eurorack/plaits/dsp/engine/virtual_analog_engine.cc ****   
  72:eurorack/plaits/dsp/engine/virtual_analog_engine.cc ****   float a = intervals[detune_integral];
 1134              		.loc 1 72 9 discriminator 4 view .LVU369
 1135 0042 1B4B     		ldr	r3, .L44+12
 1136              	.LBB300:
 1137              	.LBB296:
  61:eurorack/plaits/dsp/engine/virtual_analog_engine.cc **** }
 1138              		.loc 1 61 24 discriminator 4 view .LVU370
 1139 0044 B0EE005A 		vmov.f32	s10, #2.0e+0
 1140              	.LBE296:
 1141              	.LBE300:
  69:eurorack/plaits/dsp/engine/virtual_analog_engine.cc ****   MAKE_INTEGRAL_FRACTIONAL(detune);
 1142              		.loc 1 69 10 discriminator 4 view .LVU371
ARM GAS  /var/folders/9s/8rp0_f2s1n31qbztm3b5_fdh0000gn/T//ccSTbMRq.s 			page 34


 1143 0048 67EEA67A 		vmul.f32	s15, s15, s13
 1144              	.LVL74:
  70:eurorack/plaits/dsp/engine/virtual_analog_engine.cc ****   MAKE_INTEGRAL_FRACTIONAL(detune);
 1145              		.loc 1 70 3 is_stmt 1 discriminator 4 view .LVU372
 1146              	.LBB301:
 1147              	.LBB297:
  61:eurorack/plaits/dsp/engine/virtual_analog_engine.cc **** }
 1148              		.loc 1 61 24 is_stmt 0 discriminator 4 view .LVU373
 1149 004c F0EE464A 		vmov.f32	s9, s12
 1150              	.LBE297:
 1151              	.LBE301:
  70:eurorack/plaits/dsp/engine/virtual_analog_engine.cc ****   MAKE_INTEGRAL_FRACTIONAL(detune);
 1152              		.loc 1 70 3 discriminator 4 view .LVU374
 1153 0050 FDEEE76A 		vcvt.s32.f32	s13, s15
 1154 0054 16EE902A 		vmov	r2, s13	@ int
 1155              	.LVL75:
  70:eurorack/plaits/dsp/engine/virtual_analog_engine.cc ****   MAKE_INTEGRAL_FRACTIONAL(detune);
 1156              		.loc 1 70 3 is_stmt 1 discriminator 4 view .LVU375
 1157 0058 F8EEE66A 		vcvt.f32.s32	s13, s13
 1158              		.loc 1 72 9 is_stmt 0 discriminator 4 view .LVU376
 1159 005c 03EB8201 		add	r1, r3, r2, lsl #2
  70:eurorack/plaits/dsp/engine/virtual_analog_engine.cc ****   MAKE_INTEGRAL_FRACTIONAL(detune);
 1160              		.loc 1 70 3 discriminator 4 view .LVU377
 1161 0060 77EEE67A 		vsub.f32	s15, s15, s13
 1162              	.LVL76:
  70:eurorack/plaits/dsp/engine/virtual_analog_engine.cc ****   MAKE_INTEGRAL_FRACTIONAL(detune);
 1163              		.loc 1 70 35 is_stmt 1 discriminator 4 view .LVU378
 1164              		.loc 1 72 3 discriminator 4 view .LVU379
 1165              		.loc 1 72 9 is_stmt 0 discriminator 4 view .LVU380
 1166 0064 91ED000A 		vldr.32	s0, [r1]
 1167              	.LVL77:
  73:eurorack/plaits/dsp/engine/virtual_analog_engine.cc ****   float b = intervals[detune_integral + 1];
 1168              		.loc 1 73 3 is_stmt 1 discriminator 4 view .LVU381
  74:eurorack/plaits/dsp/engine/virtual_analog_engine.cc ****   return (a + (b - a) * Squash(Squash(detune_fractional))) * sign;
 1169              		.loc 1 74 3 discriminator 4 view .LVU382
 1170              		.loc 1 74 18 is_stmt 0 discriminator 4 view .LVU383
 1171 0068 D1ED015A 		vldr.32	s11, [r1, #4]
 1172              	.LBB302:
 1173              	.LBB298:
  61:eurorack/plaits/dsp/engine/virtual_analog_engine.cc **** }
 1174              		.loc 1 61 24 discriminator 4 view .LVU384
 1175 006c E7EEC54A 		vfms.f32	s9, s15, s10
  61:eurorack/plaits/dsp/engine/virtual_analog_engine.cc **** }
 1176              		.loc 1 61 12 discriminator 4 view .LVU385
 1177 0070 67EEA76A 		vmul.f32	s13, s15, s15
 1178              	.LBE298:
 1179              	.LBE302:
 1180              		.loc 1 74 18 discriminator 4 view .LVU386
 1181 0074 75EEC05A 		vsub.f32	s11, s11, s0
 1182              	.LVL78:
 1183              	.LBB303:
 1184              	.LBI294:
  60:eurorack/plaits/dsp/engine/virtual_analog_engine.cc ****   return x * x * (3.0f - 2.0f * x);
 1185              		.loc 1 60 14 is_stmt 1 discriminator 4 view .LVU387
 1186              	.LBB299:
  61:eurorack/plaits/dsp/engine/virtual_analog_engine.cc **** }
 1187              		.loc 1 61 3 discriminator 4 view .LVU388
ARM GAS  /var/folders/9s/8rp0_f2s1n31qbztm3b5_fdh0000gn/T//ccSTbMRq.s 			page 35


  61:eurorack/plaits/dsp/engine/virtual_analog_engine.cc **** }
 1188              		.loc 1 61 34 is_stmt 0 discriminator 4 view .LVU389
 1189 0078 66EEA47A 		vmul.f32	s15, s13, s9
 1190              	.LVL79:
  61:eurorack/plaits/dsp/engine/virtual_analog_engine.cc **** }
 1191              		.loc 1 61 34 discriminator 4 view .LVU390
 1192              	.LBE299:
 1193              	.LBE303:
 1194              	.LBB304:
 1195              	.LBI304:
  60:eurorack/plaits/dsp/engine/virtual_analog_engine.cc ****   return x * x * (3.0f - 2.0f * x);
 1196              		.loc 1 60 14 is_stmt 1 discriminator 4 view .LVU391
 1197              	.LBB305:
  61:eurorack/plaits/dsp/engine/virtual_analog_engine.cc **** }
 1198              		.loc 1 61 3 discriminator 4 view .LVU392
  61:eurorack/plaits/dsp/engine/virtual_analog_engine.cc **** }
 1199              		.loc 1 61 24 is_stmt 0 discriminator 4 view .LVU393
 1200 007c A7EEC56A 		vfms.f32	s12, s15, s10
 1201              	.LVL80:
  61:eurorack/plaits/dsp/engine/virtual_analog_engine.cc **** }
 1202              		.loc 1 61 12 discriminator 4 view .LVU394
 1203 0080 67EEA76A 		vmul.f32	s13, s15, s15
  61:eurorack/plaits/dsp/engine/virtual_analog_engine.cc **** }
 1204              		.loc 1 61 34 discriminator 4 view .LVU395
 1205 0084 26EE866A 		vmul.f32	s12, s13, s12
 1206              	.LBE305:
 1207              	.LBE304:
 1208              		.loc 1 74 13 discriminator 4 view .LVU396
 1209 0088 A5EE860A 		vfma.f32	s0, s11, s12
 1210              	.LVL81:
  75:eurorack/plaits/dsp/engine/virtual_analog_engine.cc **** }
 1211              		.loc 1 75 1 discriminator 4 view .LVU397
 1212 008c 20EE070A 		vmul.f32	s0, s0, s14
 1213 0090 7047     		bx	lr
 1214              	.LVL82:
 1215              	.L40:
  66:eurorack/plaits/dsp/engine/virtual_analog_engine.cc ****   
 1216              		.loc 1 66 3 view .LVU398
 1217 0092 F0EE477A 		vmov.f32	s15, s14
 1218              	.LVL83:
 1219              	.L43:
  68:eurorack/plaits/dsp/engine/virtual_analog_engine.cc ****   detune = detune * sign * 3.9999f;
 1220              		.loc 1 68 30 view .LVU399
 1221 0096 B0EE677A 		vmov.f32	s14, s15
 1222 009a CCE7     		b	.L39
 1223              	.LVL84:
 1224              	.L41:
  66:eurorack/plaits/dsp/engine/virtual_analog_engine.cc ****   
 1225              		.loc 1 66 3 view .LVU400
 1226 009c F0EE407A 		vmov.f32	s15, s0
 1227              	.LVL85:
  66:eurorack/plaits/dsp/engine/virtual_analog_engine.cc ****   
 1228              		.loc 1 66 3 view .LVU401
 1229 00a0 F9E7     		b	.L43
 1230              	.L45:
 1231 00a2 00BF     		.align	2
 1232              	.L44:
ARM GAS  /var/folders/9s/8rp0_f2s1n31qbztm3b5_fdh0000gn/T//ccSTbMRq.s 			page 36


 1233 00a4 33330340 		.word	1073951539
 1234 00a8 333383BF 		.word	-1081920717
 1235 00ac 5DFE7F40 		.word	1082130013
 1236 00b0 00000000 		.word	.LANCHOR0
 1237              		.cfi_endproc
 1238              	.LFE1498:
 1240              		.section	.text._ZN6plaits23VariableShapeOscillator6RenderILb1EEEvffffPfj,"axG",%progbits,_ZN6plait
 1241              		.align	1
 1242              		.weak	_ZN6plaits23VariableShapeOscillator6RenderILb1EEEvffffPfj
 1243              		.syntax unified
 1244              		.thumb
 1245              		.thumb_func
 1247              	_ZN6plaits23VariableShapeOscillator6RenderILb1EEEvffffPfj:
 1248              	.LVL86:
 1249              	.LFB1503:
  58:eurorack/plaits/dsp/oscillator/variable_shape_oscillator.h ****   }
  59:eurorack/plaits/dsp/oscillator/variable_shape_oscillator.h ****   
  60:eurorack/plaits/dsp/oscillator/variable_shape_oscillator.h ****   template<bool enable_sync>
  61:eurorack/plaits/dsp/oscillator/variable_shape_oscillator.h ****   void Render(
 1250              		.loc 2 61 8 is_stmt 1 view -0
 1251              		.cfi_startproc
 1252              		@ args = 0, pretend = 0, frame = 24
 1253              		@ frame_needed = 0, uses_anonymous_args = 0
  62:eurorack/plaits/dsp/oscillator/variable_shape_oscillator.h ****       float master_frequency,
  63:eurorack/plaits/dsp/oscillator/variable_shape_oscillator.h ****       float frequency,
  64:eurorack/plaits/dsp/oscillator/variable_shape_oscillator.h ****       float pw,
  65:eurorack/plaits/dsp/oscillator/variable_shape_oscillator.h ****       float waveshape,
  66:eurorack/plaits/dsp/oscillator/variable_shape_oscillator.h ****       float* out,
  67:eurorack/plaits/dsp/oscillator/variable_shape_oscillator.h ****       size_t size) {
  68:eurorack/plaits/dsp/oscillator/variable_shape_oscillator.h ****     if (master_frequency >= kMaxFrequency) {
 1254              		.loc 2 68 5 is_stmt 0 view .LVU403
 1255 0000 F5EE007A 		vmov.f32	s15, #2.5e-1
  61:eurorack/plaits/dsp/oscillator/variable_shape_oscillator.h ****       float master_frequency,
 1256              		.loc 2 61 8 view .LVU404
 1257 0004 2DE9F041 		push	{r4, r5, r6, r7, r8, lr}
 1258              		.cfi_def_cfa_offset 24
 1259              		.cfi_offset 4, -24
 1260              		.cfi_offset 5, -20
 1261              		.cfi_offset 6, -16
 1262              		.cfi_offset 7, -12
 1263              		.cfi_offset 8, -8
 1264              		.cfi_offset 14, -4
  69:eurorack/plaits/dsp/oscillator/variable_shape_oscillator.h ****       master_frequency = kMaxFrequency;
 1265              		.loc 2 69 24 view .LVU405
 1266 0008 B4EE670A 		vcmp.f32	s0, s15
  61:eurorack/plaits/dsp/oscillator/variable_shape_oscillator.h ****       float master_frequency,
 1267              		.loc 2 61 8 view .LVU406
 1268 000c 0446     		mov	r4, r0
 1269 000e 0F46     		mov	r7, r1
 1270 0010 1546     		mov	r5, r2
 1271              		.loc 2 69 24 view .LVU407
 1272 0012 F1EE10FA 		vmrs	APSR_nzcv, FPSCR
  70:eurorack/plaits/dsp/oscillator/variable_shape_oscillator.h ****     }
  71:eurorack/plaits/dsp/oscillator/variable_shape_oscillator.h ****     if (frequency >= kMaxFrequency) {
 1273              		.loc 2 71 5 view .LVU408
 1274 0016 F4EEE70A 		vcmpe.f32	s1, s15
  69:eurorack/plaits/dsp/oscillator/variable_shape_oscillator.h ****       master_frequency = kMaxFrequency;
ARM GAS  /var/folders/9s/8rp0_f2s1n31qbztm3b5_fdh0000gn/T//ccSTbMRq.s 			page 37


 1275              		.loc 2 69 24 view .LVU409
 1276 001a 27FE800A 		vselge.f32	s0, s15, s0
 1277              	.LVL87:
  61:eurorack/plaits/dsp/oscillator/variable_shape_oscillator.h ****       float master_frequency,
 1278              		.loc 2 61 8 view .LVU410
 1279 001e 2DED108B 		vpush.64	{d8, d9, d10, d11, d12, d13, d14, d15}
 1280              		.cfi_def_cfa_offset 88
 1281              		.cfi_offset 80, -88
 1282              		.cfi_offset 81, -84
 1283              		.cfi_offset 82, -80
 1284              		.cfi_offset 83, -76
 1285              		.cfi_offset 84, -72
 1286              		.cfi_offset 85, -68
 1287              		.cfi_offset 86, -64
 1288              		.cfi_offset 87, -60
 1289              		.cfi_offset 88, -56
 1290              		.cfi_offset 89, -52
 1291              		.cfi_offset 90, -48
 1292              		.cfi_offset 91, -44
 1293              		.cfi_offset 92, -40
 1294              		.cfi_offset 93, -36
 1295              		.cfi_offset 94, -32
 1296              		.cfi_offset 95, -28
 1297              		.loc 2 71 5 view .LVU411
 1298 0022 F1EE10FA 		vmrs	APSR_nzcv, FPSCR
  61:eurorack/plaits/dsp/oscillator/variable_shape_oscillator.h ****       float master_frequency,
 1299              		.loc 2 61 8 view .LVU412
 1300 0026 86B0     		sub	sp, sp, #24
 1301              		.cfi_def_cfa_offset 112
 1302              		.loc 2 71 5 view .LVU413
 1303 0028 80F23881 		bge	.L74
  72:eurorack/plaits/dsp/oscillator/variable_shape_oscillator.h ****       frequency = kMaxFrequency;
  73:eurorack/plaits/dsp/oscillator/variable_shape_oscillator.h ****     }
  74:eurorack/plaits/dsp/oscillator/variable_shape_oscillator.h ****     
  75:eurorack/plaits/dsp/oscillator/variable_shape_oscillator.h ****     if (frequency >= 0.25f) {
  76:eurorack/plaits/dsp/oscillator/variable_shape_oscillator.h ****       pw = 0.5f;
  77:eurorack/plaits/dsp/oscillator/variable_shape_oscillator.h ****     } else {
  78:eurorack/plaits/dsp/oscillator/variable_shape_oscillator.h ****       CONSTRAIN(pw, frequency * 2.0f, 1.0f - 2.0f * frequency);
 1304              		.loc 2 78 7 view .LVU414
 1305 002c 70EEA07A 		vadd.f32	s15, s1, s1
 1306 0030 F4EEC17A 		vcmpe.f32	s15, s2
 1307 0034 F1EE10FA 		vmrs	APSR_nzcv, FPSCR
 1308 0038 0ADC     		bgt	.L49
 1309              		.loc 2 78 7 discriminator 2 view .LVU415
 1310 003a B7EE007A 		vmov.f32	s14, #1.0e+0
 1311 003e 77EE677A 		vsub.f32	s15, s14, s15
 1312 0042 F4EEC17A 		vcmpe.f32	s15, s2
 1313 0046 F1EE10FA 		vmrs	APSR_nzcv, FPSCR
 1314 004a 58BF     		it	pl
 1315 004c F0EE417A 		vmovpl.f32	s15, s2
 1316              	.LVL88:
 1317              	.L49:
 1318              	.LBB374:
 1319              	.LBI374:
  39:eurorack/stmlib/dsp/parameter_interpolator.h ****     Init(state, new_value, size);
 1320              		.loc 8 39 3 is_stmt 1 view .LVU416
 1321              	.LBE374:
ARM GAS  /var/folders/9s/8rp0_f2s1n31qbztm3b5_fdh0000gn/T//ccSTbMRq.s 			page 38


  40:eurorack/stmlib/dsp/parameter_interpolator.h ****   }
 1322              		.loc 8 40 5 view .LVU417
 1323              	.LBB385:
 1324              	.LBB375:
 1325              	.LBI375:
  53:eurorack/stmlib/dsp/parameter_interpolator.h ****     state_ = state;
 1326              		.loc 8 53 15 view .LVU418
 1327              	.LBB376:
  54:eurorack/stmlib/dsp/parameter_interpolator.h ****     value_ = *state;
 1328              		.loc 8 54 5 view .LVU419
  55:eurorack/stmlib/dsp/parameter_interpolator.h ****     increment_ = (new_value - *state) / static_cast<float>(size);
 1329              		.loc 8 55 5 view .LVU420
  55:eurorack/stmlib/dsp/parameter_interpolator.h ****     increment_ = (new_value - *state) / static_cast<float>(size);
 1330              		.loc 8 55 14 is_stmt 0 view .LVU421
 1331 0050 D4ED05EA 		vldr.32	s29, [r4, #20]
 1332              	.LVL89:
  56:eurorack/stmlib/dsp/parameter_interpolator.h ****   }
 1333              		.loc 8 56 5 is_stmt 1 view .LVU422
  56:eurorack/stmlib/dsp/parameter_interpolator.h ****   }
 1334              		.loc 8 56 39 is_stmt 0 view .LVU423
 1335 0054 07EE105A 		vmov	s14, r5	@ int
 1336              	.LBE376:
 1337              	.LBE375:
 1338              	.LBE385:
 1339              	.LBB386:
 1340              	.LBB387:
 1341              	.LBB388:
  55:eurorack/stmlib/dsp/parameter_interpolator.h ****     increment_ = (new_value - *state) / static_cast<float>(size);
 1342              		.loc 8 55 14 view .LVU424
 1343 0058 D4ED06DA 		vldr.32	s27, [r4, #24]
 1344              	.LBE388:
 1345              	.LBE387:
 1346              	.LBE386:
 1347              	.LBB395:
 1348              	.LBB381:
 1349              	.LBB377:
  56:eurorack/stmlib/dsp/parameter_interpolator.h ****   }
 1350              		.loc 8 56 39 view .LVU425
 1351 005c B8EE477A 		vcvt.f32.u32	s14, s14
 1352              	.LBE377:
 1353              	.LBE381:
 1354              	.LBE395:
 1355              	.LBB396:
 1356              	.LBB397:
 1357              	.LBB398:
  55:eurorack/stmlib/dsp/parameter_interpolator.h ****     increment_ = (new_value - *state) / static_cast<float>(size);
 1358              		.loc 8 55 14 view .LVU426
 1359 0060 D4ED078A 		vldr.32	s17, [r4, #28]
 1360              	.LBE398:
 1361              	.LBE397:
 1362              	.LBE396:
 1363              	.LBB407:
 1364              	.LBB382:
 1365              	.LBB378:
  56:eurorack/stmlib/dsp/parameter_interpolator.h ****   }
 1366              		.loc 8 56 29 view .LVU427
 1367 0064 30EE6E0A 		vsub.f32	s0, s0, s29
ARM GAS  /var/folders/9s/8rp0_f2s1n31qbztm3b5_fdh0000gn/T//ccSTbMRq.s 			page 39


 1368              	.LVL90:
  56:eurorack/stmlib/dsp/parameter_interpolator.h ****   }
 1369              		.loc 8 56 29 view .LVU428
 1370              	.LBE378:
 1371              	.LBE382:
 1372              	.LBE407:
 1373              	.LBB408:
 1374              	.LBB409:
 1375              	.LBB410:
  55:eurorack/stmlib/dsp/parameter_interpolator.h ****     increment_ = (new_value - *state) / static_cast<float>(size);
 1376              		.loc 8 55 14 view .LVU429
 1377 0068 D4ED08FA 		vldr.32	s31, [r4, #32]
 1378              	.LBE410:
 1379              	.LBE409:
 1380              	.LBE408:
 1381              	.LBB417:
 1382              	.LBB392:
 1383              	.LBB389:
  56:eurorack/stmlib/dsp/parameter_interpolator.h ****   }
 1384              		.loc 8 56 29 view .LVU430
 1385 006c 70EEED0A 		vsub.f32	s1, s1, s27
 1386              	.LBE389:
 1387              	.LBE392:
 1388              	.LBE417:
  79:eurorack/plaits/dsp/oscillator/variable_shape_oscillator.h ****     }
  80:eurorack/plaits/dsp/oscillator/variable_shape_oscillator.h **** 
  81:eurorack/plaits/dsp/oscillator/variable_shape_oscillator.h ****     stmlib::ParameterInterpolator master_fm(
  82:eurorack/plaits/dsp/oscillator/variable_shape_oscillator.h ****         &master_frequency_, master_frequency, size);
  83:eurorack/plaits/dsp/oscillator/variable_shape_oscillator.h ****     stmlib::ParameterInterpolator fm(&slave_frequency_, frequency, size);
  84:eurorack/plaits/dsp/oscillator/variable_shape_oscillator.h ****     stmlib::ParameterInterpolator pwm(&pw_, pw, size);
  85:eurorack/plaits/dsp/oscillator/variable_shape_oscillator.h ****     stmlib::ParameterInterpolator waveshape_modulation(
  86:eurorack/plaits/dsp/oscillator/variable_shape_oscillator.h ****         &waveshape_, waveshape, size);
  87:eurorack/plaits/dsp/oscillator/variable_shape_oscillator.h **** 
  88:eurorack/plaits/dsp/oscillator/variable_shape_oscillator.h ****     float next_sample = next_sample_;
 1389              		.loc 2 88 11 view .LVU431
 1390 0070 94ED029A 		vldr.32	s18, [r4, #8]
 1391              	.LBB418:
 1392              	.LBB403:
 1393              	.LBB399:
  56:eurorack/stmlib/dsp/parameter_interpolator.h ****   }
 1394              		.loc 8 56 29 view .LVU432
 1395 0074 77EEE87A 		vsub.f32	s15, s15, s17
 1396              	.LVL91:
  56:eurorack/stmlib/dsp/parameter_interpolator.h ****   }
 1397              		.loc 8 56 29 view .LVU433
 1398              	.LBE399:
 1399              	.LBE403:
 1400              	.LBE418:
 1401              	.LBB419:
 1402              	.LBB383:
 1403              	.LBB379:
  56:eurorack/stmlib/dsp/parameter_interpolator.h ****   }
 1404              		.loc 8 56 39 view .LVU434
 1405 0078 C0EE076A 		vdiv.f32	s13, s0, s14
 1406              	.LBE379:
 1407              	.LBE383:
 1408              	.LBE419:
ARM GAS  /var/folders/9s/8rp0_f2s1n31qbztm3b5_fdh0000gn/T//ccSTbMRq.s 			page 40


 1409              	.LBB420:
 1410              	.LBB414:
 1411              	.LBB411:
  56:eurorack/stmlib/dsp/parameter_interpolator.h ****   }
 1412              		.loc 8 56 29 view .LVU435
 1413 007c 71EEEF1A 		vsub.f32	s3, s3, s31
 1414              	.LVL92:
  56:eurorack/stmlib/dsp/parameter_interpolator.h ****   }
 1415              		.loc 8 56 29 view .LVU436
 1416              	.LBE411:
 1417              	.LBE414:
 1418              	.LBE420:
 1419              	.LBB421:
 1420              	.LBB404:
 1421              	.LBB400:
  56:eurorack/stmlib/dsp/parameter_interpolator.h ****   }
 1422              		.loc 8 56 39 view .LVU437
 1423 0080 C7EE877A 		vdiv.f32	s15, s15, s14
 1424              	.LBE400:
 1425              	.LBE404:
 1426              	.LBE421:
 1427              	.LBB422:
 1428              	.LBB415:
 1429              	.LBB412:
 1430 0084 81EE87CA 		vdiv.f32	s24, s3, s14
 1431              	.LBE412:
 1432              	.LBE415:
 1433              	.LBE422:
 1434              	.LBB423:
 1435              	.LBB384:
 1436              	.LBB380:
 1437 0088 CDED036A 		vstr.32	s13, [sp, #12]
 1438              	.LVL93:
  56:eurorack/stmlib/dsp/parameter_interpolator.h ****   }
 1439              		.loc 8 56 39 view .LVU438
 1440              	.LBE380:
 1441              	.LBE384:
 1442              	.LBE423:
 1443              	.LBB424:
 1444              	.LBI386:
  39:eurorack/stmlib/dsp/parameter_interpolator.h ****     Init(state, new_value, size);
 1445              		.loc 8 39 3 is_stmt 1 view .LVU439
 1446              	.LBE424:
  40:eurorack/stmlib/dsp/parameter_interpolator.h ****   }
 1447              		.loc 8 40 5 view .LVU440
 1448              	.LBB425:
 1449              	.LBB393:
 1450              	.LBI387:
  53:eurorack/stmlib/dsp/parameter_interpolator.h ****     state_ = state;
 1451              		.loc 8 53 15 view .LVU441
 1452              	.LBB390:
  54:eurorack/stmlib/dsp/parameter_interpolator.h ****     value_ = *state;
 1453              		.loc 8 54 5 view .LVU442
  55:eurorack/stmlib/dsp/parameter_interpolator.h ****     increment_ = (new_value - *state) / static_cast<float>(size);
 1454              		.loc 8 55 5 view .LVU443
  56:eurorack/stmlib/dsp/parameter_interpolator.h ****   }
 1455              		.loc 8 56 5 view .LVU444
ARM GAS  /var/folders/9s/8rp0_f2s1n31qbztm3b5_fdh0000gn/T//ccSTbMRq.s 			page 41


  56:eurorack/stmlib/dsp/parameter_interpolator.h ****   }
 1456              		.loc 8 56 39 is_stmt 0 view .LVU445
 1457 008c C0EE876A 		vdiv.f32	s13, s1, s14
 1458              	.LBE390:
 1459              	.LBE393:
 1460              	.LBE425:
 1461              	.LBB426:
 1462              	.LBB405:
 1463              	.LBB401:
 1464 0090 CDED017A 		vstr.32	s15, [sp, #4]
 1465              	.LBE401:
 1466              	.LBE405:
 1467              	.LBE426:
 1468              	.LBB427:
 1469              	.LBB394:
 1470              	.LBB391:
 1471 0094 CDED026A 		vstr.32	s13, [sp, #8]
 1472              	.LVL94:
  56:eurorack/stmlib/dsp/parameter_interpolator.h ****   }
 1473              		.loc 8 56 39 view .LVU446
 1474              	.LBE391:
 1475              	.LBE394:
 1476              	.LBE427:
 1477              	.LBB428:
 1478              	.LBI396:
  39:eurorack/stmlib/dsp/parameter_interpolator.h ****     Init(state, new_value, size);
 1479              		.loc 8 39 3 is_stmt 1 view .LVU447
 1480              	.LBE428:
  40:eurorack/stmlib/dsp/parameter_interpolator.h ****   }
 1481              		.loc 8 40 5 view .LVU448
 1482              	.LBB429:
 1483              	.LBB406:
 1484              	.LBI397:
  53:eurorack/stmlib/dsp/parameter_interpolator.h ****     state_ = state;
 1485              		.loc 8 53 15 view .LVU449
 1486              	.LBB402:
  54:eurorack/stmlib/dsp/parameter_interpolator.h ****     value_ = *state;
 1487              		.loc 8 54 5 view .LVU450
  55:eurorack/stmlib/dsp/parameter_interpolator.h ****     increment_ = (new_value - *state) / static_cast<float>(size);
 1488              		.loc 8 55 5 view .LVU451
  56:eurorack/stmlib/dsp/parameter_interpolator.h ****   }
 1489              		.loc 8 56 5 view .LVU452
  56:eurorack/stmlib/dsp/parameter_interpolator.h ****   }
 1490              		.loc 8 56 5 is_stmt 0 view .LVU453
 1491              	.LBE402:
 1492              	.LBE406:
 1493              	.LBE429:
 1494              	.LBB430:
 1495              	.LBI408:
  39:eurorack/stmlib/dsp/parameter_interpolator.h ****     Init(state, new_value, size);
 1496              		.loc 8 39 3 is_stmt 1 view .LVU454
 1497              	.LBE430:
  40:eurorack/stmlib/dsp/parameter_interpolator.h ****   }
 1498              		.loc 8 40 5 view .LVU455
 1499              	.LBB431:
 1500              	.LBB416:
 1501              	.LBI409:
ARM GAS  /var/folders/9s/8rp0_f2s1n31qbztm3b5_fdh0000gn/T//ccSTbMRq.s 			page 42


  53:eurorack/stmlib/dsp/parameter_interpolator.h ****     state_ = state;
 1502              		.loc 8 53 15 view .LVU456
 1503              	.LBB413:
  54:eurorack/stmlib/dsp/parameter_interpolator.h ****     value_ = *state;
 1504              		.loc 8 54 5 view .LVU457
  55:eurorack/stmlib/dsp/parameter_interpolator.h ****     increment_ = (new_value - *state) / static_cast<float>(size);
 1505              		.loc 8 55 5 view .LVU458
  56:eurorack/stmlib/dsp/parameter_interpolator.h ****   }
 1506              		.loc 8 56 5 view .LVU459
 1507              	.L72:
  56:eurorack/stmlib/dsp/parameter_interpolator.h ****   }
 1508              		.loc 8 56 5 is_stmt 0 view .LVU460
 1509              	.LBE413:
 1510              	.LBE416:
 1511              	.LBE431:
  89:eurorack/plaits/dsp/oscillator/variable_shape_oscillator.h ****     
  90:eurorack/plaits/dsp/oscillator/variable_shape_oscillator.h ****     while (size--) {
 1512              		.loc 2 90 5 is_stmt 1 view .LVU461
 1513 0098 013D     		subs	r5, r5, #1
 1514              	.LVL95:
 1515              		.loc 2 90 5 is_stmt 0 view .LVU462
 1516 009a C0F03A81 		bcc	.L51
 1517              	.LVL96:
 1518              	.LBB432:
 1519              	.LBB433:
 1520              	.LBI433:
  59:eurorack/stmlib/dsp/parameter_interpolator.h ****     value_ += increment_;
 1521              		.loc 8 59 16 is_stmt 1 view .LVU463
 1522              	.LBB434:
  60:eurorack/stmlib/dsp/parameter_interpolator.h ****     return value_;
 1523              		.loc 8 60 5 view .LVU464
  60:eurorack/stmlib/dsp/parameter_interpolator.h ****     return value_;
 1524              		.loc 8 60 12 is_stmt 0 view .LVU465
 1525 009e DDED037A 		vldr.32	s15, [sp, #12]
 1526              	.LBE434:
 1527              	.LBE433:
 1528              	.LBB436:
 1529              	.LBB437:
 1530 00a2 7FEE8CFA 		vadd.f32	s31, s31, s24
 1531              	.LVL97:
  60:eurorack/stmlib/dsp/parameter_interpolator.h ****     return value_;
 1532              		.loc 8 60 12 view .LVU466
 1533              	.LBE437:
 1534              	.LBE436:
  91:eurorack/plaits/dsp/oscillator/variable_shape_oscillator.h ****       bool reset = false;
  92:eurorack/plaits/dsp/oscillator/variable_shape_oscillator.h ****       bool transition_during_reset = false;
  93:eurorack/plaits/dsp/oscillator/variable_shape_oscillator.h ****       float reset_time = 0.0f;
  94:eurorack/plaits/dsp/oscillator/variable_shape_oscillator.h **** 
  95:eurorack/plaits/dsp/oscillator/variable_shape_oscillator.h ****       float this_sample = next_sample;
  96:eurorack/plaits/dsp/oscillator/variable_shape_oscillator.h ****       next_sample = 0.0f;
  97:eurorack/plaits/dsp/oscillator/variable_shape_oscillator.h ****     
  98:eurorack/plaits/dsp/oscillator/variable_shape_oscillator.h ****       const float master_frequency = master_fm.Next();
  99:eurorack/plaits/dsp/oscillator/variable_shape_oscillator.h ****       const float slave_frequency = fm.Next();
 100:eurorack/plaits/dsp/oscillator/variable_shape_oscillator.h ****       const float pw = pwm.Next();
 101:eurorack/plaits/dsp/oscillator/variable_shape_oscillator.h ****       const float waveshape = waveshape_modulation.Next();
 102:eurorack/plaits/dsp/oscillator/variable_shape_oscillator.h ****       const float square_amount = std::max(waveshape - 0.5f, 0.0f) * 2.0f;
 1535              		.loc 2 102 54 view .LVU467
ARM GAS  /var/folders/9s/8rp0_f2s1n31qbztm3b5_fdh0000gn/T//ccSTbMRq.s 			page 43


 1536 00a6 F6EE00BA 		vmov.f32	s23, #5.0e-1
 1537 00aa 9FEDA17A 		vldr.32	s14, .L95
 1538              	.LBB439:
 1539              	.LBB435:
  60:eurorack/stmlib/dsp/parameter_interpolator.h ****     return value_;
 1540              		.loc 8 60 12 view .LVU468
 1541 00ae 7EEEA7EA 		vadd.f32	s29, s29, s15
 1542              	.LVL98:
 1543              		.loc 8 61 5 is_stmt 1 view .LVU469
 1544              		.loc 8 61 5 is_stmt 0 view .LVU470
 1545              	.LBE435:
 1546              	.LBE439:
 1547              	.LBB440:
 1548              	.LBI440:
  59:eurorack/stmlib/dsp/parameter_interpolator.h ****     value_ += increment_;
 1549              		.loc 8 59 16 is_stmt 1 view .LVU471
 1550              	.LBB441:
  60:eurorack/stmlib/dsp/parameter_interpolator.h ****     return value_;
 1551              		.loc 8 60 5 view .LVU472
  60:eurorack/stmlib/dsp/parameter_interpolator.h ****     return value_;
 1552              		.loc 8 60 12 is_stmt 0 view .LVU473
 1553 00b2 DDED027A 		vldr.32	s15, [sp, #8]
 1554              	.LBE441:
 1555              	.LBE440:
 103:eurorack/plaits/dsp/oscillator/variable_shape_oscillator.h ****       const float triangle_amount = std::max(1.0f - waveshape * 2.0f, 0.0f);
 1556              		.loc 2 103 51 view .LVU474
 1557 00b6 B7EE008A 		vmov.f32	s16, #1.0e+0
 1558              	.LBB443:
 1559              	.LBB444:
 1560              	.LBB445:
 104:eurorack/plaits/dsp/oscillator/variable_shape_oscillator.h ****       const float slope_up = 1.0f / (pw);
 105:eurorack/plaits/dsp/oscillator/variable_shape_oscillator.h ****       const float slope_down = 1.0f / (1.0f - pw);
 106:eurorack/plaits/dsp/oscillator/variable_shape_oscillator.h **** 
 107:eurorack/plaits/dsp/oscillator/variable_shape_oscillator.h ****       if (enable_sync) {
 108:eurorack/plaits/dsp/oscillator/variable_shape_oscillator.h ****         master_phase_ += master_frequency;
 109:eurorack/plaits/dsp/oscillator/variable_shape_oscillator.h ****         if (master_phase_ >= 1.0f) {
 110:eurorack/plaits/dsp/oscillator/variable_shape_oscillator.h ****           master_phase_ -= 1.0f;
 111:eurorack/plaits/dsp/oscillator/variable_shape_oscillator.h ****           reset_time = master_phase_ / master_frequency;
 112:eurorack/plaits/dsp/oscillator/variable_shape_oscillator.h ****       
 113:eurorack/plaits/dsp/oscillator/variable_shape_oscillator.h ****           float slave_phase_at_reset = slave_phase_ + \
 1561              		.loc 2 113 40 view .LVU475
 1562 00ba D4ED014A 		vldr.32	s9, [r4, #4]
 1563              	.LBE445:
 1564              	.LBE444:
 1565              	.LBE443:
 1566              	.LBB459:
 1567              	.LBB442:
  60:eurorack/stmlib/dsp/parameter_interpolator.h ****     return value_;
 1568              		.loc 8 60 12 view .LVU476
 1569 00be 7DEEA7DA 		vadd.f32	s27, s27, s15
 1570              	.LVL99:
 1571              		.loc 8 61 5 is_stmt 1 view .LVU477
 1572              		.loc 8 61 5 is_stmt 0 view .LVU478
 1573              	.LBE442:
 1574              	.LBE459:
 1575              	.LBB460:
 1576              	.LBI460:
ARM GAS  /var/folders/9s/8rp0_f2s1n31qbztm3b5_fdh0000gn/T//ccSTbMRq.s 			page 44


  59:eurorack/stmlib/dsp/parameter_interpolator.h ****     value_ += increment_;
 1577              		.loc 8 59 16 is_stmt 1 view .LVU479
 1578              	.LBB461:
  60:eurorack/stmlib/dsp/parameter_interpolator.h ****     return value_;
 1579              		.loc 8 60 5 view .LVU480
  60:eurorack/stmlib/dsp/parameter_interpolator.h ****     return value_;
 1580              		.loc 8 60 12 is_stmt 0 view .LVU481
 1581 00c2 DDED017A 		vldr.32	s15, [sp, #4]
 1582              	.LBE461:
 1583              	.LBE460:
 103:eurorack/plaits/dsp/oscillator/variable_shape_oscillator.h ****       const float slope_up = 1.0f / (pw);
 1584              		.loc 2 103 51 view .LVU482
 1585 00c6 B0EE00BA 		vmov.f32	s22, #2.0e+0
 1586              	.LBB463:
 1587              	.LBB462:
  60:eurorack/stmlib/dsp/parameter_interpolator.h ****     return value_;
 1588              		.loc 8 60 12 view .LVU483
 1589 00ca 78EEA78A 		vadd.f32	s17, s17, s15
 1590              	.LVL100:
 1591              		.loc 8 61 5 is_stmt 1 view .LVU484
 1592              		.loc 8 61 5 is_stmt 0 view .LVU485
 1593              	.LBE462:
 1594              	.LBE463:
 1595              	.LBB464:
 1596              	.LBI436:
  59:eurorack/stmlib/dsp/parameter_interpolator.h ****     value_ += increment_;
 1597              		.loc 8 59 16 is_stmt 1 view .LVU486
 1598              	.LBB438:
  60:eurorack/stmlib/dsp/parameter_interpolator.h ****     return value_;
 1599              		.loc 8 60 5 view .LVU487
 1600              		.loc 8 61 5 view .LVU488
 1601              		.loc 8 61 5 is_stmt 0 view .LVU489
 1602              	.LBE438:
 1603              	.LBE464:
 102:eurorack/plaits/dsp/oscillator/variable_shape_oscillator.h ****       const float triangle_amount = std::max(1.0f - waveshape * 2.0f, 0.0f);
 1604              		.loc 2 102 54 view .LVU490
 1605 00ce 7FEEEB7A 		vsub.f32	s15, s31, s23
 1606              	.LVL101:
 1607              	.LBB465:
 1608              	.LBI465:
 1609              		.file 9 "/Library/DaisyToolchain/0.2.0/arm/arm-none-eabi/include/c++/10.3.1/bits/stl_algobase.h"
   1:/Library/DaisyToolchain/0.2.0/arm/arm-none-eabi/include/c++/10.3.1/bits/stl_algobase.h **** // Core algorithmic facilities -*- C++ -*-
   2:/Library/DaisyToolchain/0.2.0/arm/arm-none-eabi/include/c++/10.3.1/bits/stl_algobase.h **** 
   3:/Library/DaisyToolchain/0.2.0/arm/arm-none-eabi/include/c++/10.3.1/bits/stl_algobase.h **** // Copyright (C) 2001-2020 Free Software Foundation, Inc.
   4:/Library/DaisyToolchain/0.2.0/arm/arm-none-eabi/include/c++/10.3.1/bits/stl_algobase.h **** //
   5:/Library/DaisyToolchain/0.2.0/arm/arm-none-eabi/include/c++/10.3.1/bits/stl_algobase.h **** // This file is part of the GNU ISO C++ Library.  This library is free
   6:/Library/DaisyToolchain/0.2.0/arm/arm-none-eabi/include/c++/10.3.1/bits/stl_algobase.h **** // software; you can redistribute it and/or modify it under the
   7:/Library/DaisyToolchain/0.2.0/arm/arm-none-eabi/include/c++/10.3.1/bits/stl_algobase.h **** // terms of the GNU General Public License as published by the
   8:/Library/DaisyToolchain/0.2.0/arm/arm-none-eabi/include/c++/10.3.1/bits/stl_algobase.h **** // Free Software Foundation; either version 3, or (at your option)
   9:/Library/DaisyToolchain/0.2.0/arm/arm-none-eabi/include/c++/10.3.1/bits/stl_algobase.h **** // any later version.
  10:/Library/DaisyToolchain/0.2.0/arm/arm-none-eabi/include/c++/10.3.1/bits/stl_algobase.h **** 
  11:/Library/DaisyToolchain/0.2.0/arm/arm-none-eabi/include/c++/10.3.1/bits/stl_algobase.h **** // This library is distributed in the hope that it will be useful,
  12:/Library/DaisyToolchain/0.2.0/arm/arm-none-eabi/include/c++/10.3.1/bits/stl_algobase.h **** // but WITHOUT ANY WARRANTY; without even the implied warranty of
  13:/Library/DaisyToolchain/0.2.0/arm/arm-none-eabi/include/c++/10.3.1/bits/stl_algobase.h **** // MERCHANTABILITY or FITNESS FOR A PARTICULAR PURPOSE.  See the
  14:/Library/DaisyToolchain/0.2.0/arm/arm-none-eabi/include/c++/10.3.1/bits/stl_algobase.h **** // GNU General Public License for more details.
  15:/Library/DaisyToolchain/0.2.0/arm/arm-none-eabi/include/c++/10.3.1/bits/stl_algobase.h **** 
  16:/Library/DaisyToolchain/0.2.0/arm/arm-none-eabi/include/c++/10.3.1/bits/stl_algobase.h **** // Under Section 7 of GPL version 3, you are granted additional
ARM GAS  /var/folders/9s/8rp0_f2s1n31qbztm3b5_fdh0000gn/T//ccSTbMRq.s 			page 45


  17:/Library/DaisyToolchain/0.2.0/arm/arm-none-eabi/include/c++/10.3.1/bits/stl_algobase.h **** // permissions described in the GCC Runtime Library Exception, version
  18:/Library/DaisyToolchain/0.2.0/arm/arm-none-eabi/include/c++/10.3.1/bits/stl_algobase.h **** // 3.1, as published by the Free Software Foundation.
  19:/Library/DaisyToolchain/0.2.0/arm/arm-none-eabi/include/c++/10.3.1/bits/stl_algobase.h **** 
  20:/Library/DaisyToolchain/0.2.0/arm/arm-none-eabi/include/c++/10.3.1/bits/stl_algobase.h **** // You should have received a copy of the GNU General Public License and
  21:/Library/DaisyToolchain/0.2.0/arm/arm-none-eabi/include/c++/10.3.1/bits/stl_algobase.h **** // a copy of the GCC Runtime Library Exception along with this program;
  22:/Library/DaisyToolchain/0.2.0/arm/arm-none-eabi/include/c++/10.3.1/bits/stl_algobase.h **** // see the files COPYING3 and COPYING.RUNTIME respectively.  If not, see
  23:/Library/DaisyToolchain/0.2.0/arm/arm-none-eabi/include/c++/10.3.1/bits/stl_algobase.h **** // <http://www.gnu.org/licenses/>.
  24:/Library/DaisyToolchain/0.2.0/arm/arm-none-eabi/include/c++/10.3.1/bits/stl_algobase.h **** 
  25:/Library/DaisyToolchain/0.2.0/arm/arm-none-eabi/include/c++/10.3.1/bits/stl_algobase.h **** /*
  26:/Library/DaisyToolchain/0.2.0/arm/arm-none-eabi/include/c++/10.3.1/bits/stl_algobase.h ****  *
  27:/Library/DaisyToolchain/0.2.0/arm/arm-none-eabi/include/c++/10.3.1/bits/stl_algobase.h ****  * Copyright (c) 1994
  28:/Library/DaisyToolchain/0.2.0/arm/arm-none-eabi/include/c++/10.3.1/bits/stl_algobase.h ****  * Hewlett-Packard Company
  29:/Library/DaisyToolchain/0.2.0/arm/arm-none-eabi/include/c++/10.3.1/bits/stl_algobase.h ****  *
  30:/Library/DaisyToolchain/0.2.0/arm/arm-none-eabi/include/c++/10.3.1/bits/stl_algobase.h ****  * Permission to use, copy, modify, distribute and sell this software
  31:/Library/DaisyToolchain/0.2.0/arm/arm-none-eabi/include/c++/10.3.1/bits/stl_algobase.h ****  * and its documentation for any purpose is hereby granted without fee,
  32:/Library/DaisyToolchain/0.2.0/arm/arm-none-eabi/include/c++/10.3.1/bits/stl_algobase.h ****  * provided that the above copyright notice appear in all copies and
  33:/Library/DaisyToolchain/0.2.0/arm/arm-none-eabi/include/c++/10.3.1/bits/stl_algobase.h ****  * that both that copyright notice and this permission notice appear
  34:/Library/DaisyToolchain/0.2.0/arm/arm-none-eabi/include/c++/10.3.1/bits/stl_algobase.h ****  * in supporting documentation.  Hewlett-Packard Company makes no
  35:/Library/DaisyToolchain/0.2.0/arm/arm-none-eabi/include/c++/10.3.1/bits/stl_algobase.h ****  * representations about the suitability of this software for any
  36:/Library/DaisyToolchain/0.2.0/arm/arm-none-eabi/include/c++/10.3.1/bits/stl_algobase.h ****  * purpose.  It is provided "as is" without express or implied warranty.
  37:/Library/DaisyToolchain/0.2.0/arm/arm-none-eabi/include/c++/10.3.1/bits/stl_algobase.h ****  *
  38:/Library/DaisyToolchain/0.2.0/arm/arm-none-eabi/include/c++/10.3.1/bits/stl_algobase.h ****  *
  39:/Library/DaisyToolchain/0.2.0/arm/arm-none-eabi/include/c++/10.3.1/bits/stl_algobase.h ****  * Copyright (c) 1996-1998
  40:/Library/DaisyToolchain/0.2.0/arm/arm-none-eabi/include/c++/10.3.1/bits/stl_algobase.h ****  * Silicon Graphics Computer Systems, Inc.
  41:/Library/DaisyToolchain/0.2.0/arm/arm-none-eabi/include/c++/10.3.1/bits/stl_algobase.h ****  *
  42:/Library/DaisyToolchain/0.2.0/arm/arm-none-eabi/include/c++/10.3.1/bits/stl_algobase.h ****  * Permission to use, copy, modify, distribute and sell this software
  43:/Library/DaisyToolchain/0.2.0/arm/arm-none-eabi/include/c++/10.3.1/bits/stl_algobase.h ****  * and its documentation for any purpose is hereby granted without fee,
  44:/Library/DaisyToolchain/0.2.0/arm/arm-none-eabi/include/c++/10.3.1/bits/stl_algobase.h ****  * provided that the above copyright notice appear in all copies and
  45:/Library/DaisyToolchain/0.2.0/arm/arm-none-eabi/include/c++/10.3.1/bits/stl_algobase.h ****  * that both that copyright notice and this permission notice appear
  46:/Library/DaisyToolchain/0.2.0/arm/arm-none-eabi/include/c++/10.3.1/bits/stl_algobase.h ****  * in supporting documentation.  Silicon Graphics makes no
  47:/Library/DaisyToolchain/0.2.0/arm/arm-none-eabi/include/c++/10.3.1/bits/stl_algobase.h ****  * representations about the suitability of this software for any
  48:/Library/DaisyToolchain/0.2.0/arm/arm-none-eabi/include/c++/10.3.1/bits/stl_algobase.h ****  * purpose.  It is provided "as is" without express or implied warranty.
  49:/Library/DaisyToolchain/0.2.0/arm/arm-none-eabi/include/c++/10.3.1/bits/stl_algobase.h ****  */
  50:/Library/DaisyToolchain/0.2.0/arm/arm-none-eabi/include/c++/10.3.1/bits/stl_algobase.h **** 
  51:/Library/DaisyToolchain/0.2.0/arm/arm-none-eabi/include/c++/10.3.1/bits/stl_algobase.h **** /** @file bits/stl_algobase.h
  52:/Library/DaisyToolchain/0.2.0/arm/arm-none-eabi/include/c++/10.3.1/bits/stl_algobase.h ****  *  This is an internal header file, included by other library headers.
  53:/Library/DaisyToolchain/0.2.0/arm/arm-none-eabi/include/c++/10.3.1/bits/stl_algobase.h ****  *  Do not attempt to use it directly. @headername{algorithm}
  54:/Library/DaisyToolchain/0.2.0/arm/arm-none-eabi/include/c++/10.3.1/bits/stl_algobase.h ****  */
  55:/Library/DaisyToolchain/0.2.0/arm/arm-none-eabi/include/c++/10.3.1/bits/stl_algobase.h **** 
  56:/Library/DaisyToolchain/0.2.0/arm/arm-none-eabi/include/c++/10.3.1/bits/stl_algobase.h **** #ifndef _STL_ALGOBASE_H
  57:/Library/DaisyToolchain/0.2.0/arm/arm-none-eabi/include/c++/10.3.1/bits/stl_algobase.h **** #define _STL_ALGOBASE_H 1
  58:/Library/DaisyToolchain/0.2.0/arm/arm-none-eabi/include/c++/10.3.1/bits/stl_algobase.h **** 
  59:/Library/DaisyToolchain/0.2.0/arm/arm-none-eabi/include/c++/10.3.1/bits/stl_algobase.h **** #include <bits/c++config.h>
  60:/Library/DaisyToolchain/0.2.0/arm/arm-none-eabi/include/c++/10.3.1/bits/stl_algobase.h **** #include <bits/functexcept.h>
  61:/Library/DaisyToolchain/0.2.0/arm/arm-none-eabi/include/c++/10.3.1/bits/stl_algobase.h **** #include <bits/cpp_type_traits.h>
  62:/Library/DaisyToolchain/0.2.0/arm/arm-none-eabi/include/c++/10.3.1/bits/stl_algobase.h **** #include <ext/type_traits.h>
  63:/Library/DaisyToolchain/0.2.0/arm/arm-none-eabi/include/c++/10.3.1/bits/stl_algobase.h **** #include <ext/numeric_traits.h>
  64:/Library/DaisyToolchain/0.2.0/arm/arm-none-eabi/include/c++/10.3.1/bits/stl_algobase.h **** #include <bits/stl_pair.h>
  65:/Library/DaisyToolchain/0.2.0/arm/arm-none-eabi/include/c++/10.3.1/bits/stl_algobase.h **** #include <bits/stl_iterator_base_types.h>
  66:/Library/DaisyToolchain/0.2.0/arm/arm-none-eabi/include/c++/10.3.1/bits/stl_algobase.h **** #include <bits/stl_iterator_base_funcs.h>
  67:/Library/DaisyToolchain/0.2.0/arm/arm-none-eabi/include/c++/10.3.1/bits/stl_algobase.h **** #include <bits/stl_iterator.h>
  68:/Library/DaisyToolchain/0.2.0/arm/arm-none-eabi/include/c++/10.3.1/bits/stl_algobase.h **** #include <bits/concept_check.h>
  69:/Library/DaisyToolchain/0.2.0/arm/arm-none-eabi/include/c++/10.3.1/bits/stl_algobase.h **** #include <debug/debug.h>
  70:/Library/DaisyToolchain/0.2.0/arm/arm-none-eabi/include/c++/10.3.1/bits/stl_algobase.h **** #include <bits/move.h> // For std::swap
  71:/Library/DaisyToolchain/0.2.0/arm/arm-none-eabi/include/c++/10.3.1/bits/stl_algobase.h **** #include <bits/predefined_ops.h>
  72:/Library/DaisyToolchain/0.2.0/arm/arm-none-eabi/include/c++/10.3.1/bits/stl_algobase.h **** #if __cplusplus >= 201103L
  73:/Library/DaisyToolchain/0.2.0/arm/arm-none-eabi/include/c++/10.3.1/bits/stl_algobase.h **** # include <type_traits>
ARM GAS  /var/folders/9s/8rp0_f2s1n31qbztm3b5_fdh0000gn/T//ccSTbMRq.s 			page 46


  74:/Library/DaisyToolchain/0.2.0/arm/arm-none-eabi/include/c++/10.3.1/bits/stl_algobase.h **** #endif
  75:/Library/DaisyToolchain/0.2.0/arm/arm-none-eabi/include/c++/10.3.1/bits/stl_algobase.h **** #if __cplusplus > 201703L
  76:/Library/DaisyToolchain/0.2.0/arm/arm-none-eabi/include/c++/10.3.1/bits/stl_algobase.h **** # include <compare>
  77:/Library/DaisyToolchain/0.2.0/arm/arm-none-eabi/include/c++/10.3.1/bits/stl_algobase.h **** #endif
  78:/Library/DaisyToolchain/0.2.0/arm/arm-none-eabi/include/c++/10.3.1/bits/stl_algobase.h **** 
  79:/Library/DaisyToolchain/0.2.0/arm/arm-none-eabi/include/c++/10.3.1/bits/stl_algobase.h **** namespace std _GLIBCXX_VISIBILITY(default)
  80:/Library/DaisyToolchain/0.2.0/arm/arm-none-eabi/include/c++/10.3.1/bits/stl_algobase.h **** {
  81:/Library/DaisyToolchain/0.2.0/arm/arm-none-eabi/include/c++/10.3.1/bits/stl_algobase.h **** _GLIBCXX_BEGIN_NAMESPACE_VERSION
  82:/Library/DaisyToolchain/0.2.0/arm/arm-none-eabi/include/c++/10.3.1/bits/stl_algobase.h **** 
  83:/Library/DaisyToolchain/0.2.0/arm/arm-none-eabi/include/c++/10.3.1/bits/stl_algobase.h ****   /*
  84:/Library/DaisyToolchain/0.2.0/arm/arm-none-eabi/include/c++/10.3.1/bits/stl_algobase.h ****    * A constexpr wrapper for __builtin_memcmp.
  85:/Library/DaisyToolchain/0.2.0/arm/arm-none-eabi/include/c++/10.3.1/bits/stl_algobase.h ****    * @param __num The number of elements of type _Tp (not bytes).
  86:/Library/DaisyToolchain/0.2.0/arm/arm-none-eabi/include/c++/10.3.1/bits/stl_algobase.h ****    */
  87:/Library/DaisyToolchain/0.2.0/arm/arm-none-eabi/include/c++/10.3.1/bits/stl_algobase.h ****   template<typename _Tp, typename _Up>
  88:/Library/DaisyToolchain/0.2.0/arm/arm-none-eabi/include/c++/10.3.1/bits/stl_algobase.h ****     _GLIBCXX14_CONSTEXPR
  89:/Library/DaisyToolchain/0.2.0/arm/arm-none-eabi/include/c++/10.3.1/bits/stl_algobase.h ****     inline int
  90:/Library/DaisyToolchain/0.2.0/arm/arm-none-eabi/include/c++/10.3.1/bits/stl_algobase.h ****     __memcmp(const _Tp* __first1, const _Up* __first2, size_t __num)
  91:/Library/DaisyToolchain/0.2.0/arm/arm-none-eabi/include/c++/10.3.1/bits/stl_algobase.h ****     {
  92:/Library/DaisyToolchain/0.2.0/arm/arm-none-eabi/include/c++/10.3.1/bits/stl_algobase.h **** #if __cplusplus >= 201103L
  93:/Library/DaisyToolchain/0.2.0/arm/arm-none-eabi/include/c++/10.3.1/bits/stl_algobase.h ****       static_assert(sizeof(_Tp) == sizeof(_Up), "can be compared with memcmp");
  94:/Library/DaisyToolchain/0.2.0/arm/arm-none-eabi/include/c++/10.3.1/bits/stl_algobase.h **** #endif
  95:/Library/DaisyToolchain/0.2.0/arm/arm-none-eabi/include/c++/10.3.1/bits/stl_algobase.h **** #ifdef __cpp_lib_is_constant_evaluated
  96:/Library/DaisyToolchain/0.2.0/arm/arm-none-eabi/include/c++/10.3.1/bits/stl_algobase.h ****       if (std::is_constant_evaluated())
  97:/Library/DaisyToolchain/0.2.0/arm/arm-none-eabi/include/c++/10.3.1/bits/stl_algobase.h **** 	{
  98:/Library/DaisyToolchain/0.2.0/arm/arm-none-eabi/include/c++/10.3.1/bits/stl_algobase.h **** 	  for(; __num > 0; ++__first1, ++__first2, --__num)
  99:/Library/DaisyToolchain/0.2.0/arm/arm-none-eabi/include/c++/10.3.1/bits/stl_algobase.h **** 	    if (*__first1 != *__first2)
 100:/Library/DaisyToolchain/0.2.0/arm/arm-none-eabi/include/c++/10.3.1/bits/stl_algobase.h **** 	      return *__first1 < *__first2 ? -1 : 1;
 101:/Library/DaisyToolchain/0.2.0/arm/arm-none-eabi/include/c++/10.3.1/bits/stl_algobase.h **** 	  return 0;
 102:/Library/DaisyToolchain/0.2.0/arm/arm-none-eabi/include/c++/10.3.1/bits/stl_algobase.h **** 	}
 103:/Library/DaisyToolchain/0.2.0/arm/arm-none-eabi/include/c++/10.3.1/bits/stl_algobase.h ****       else
 104:/Library/DaisyToolchain/0.2.0/arm/arm-none-eabi/include/c++/10.3.1/bits/stl_algobase.h **** #endif
 105:/Library/DaisyToolchain/0.2.0/arm/arm-none-eabi/include/c++/10.3.1/bits/stl_algobase.h **** 	return __builtin_memcmp(__first1, __first2, sizeof(_Tp) * __num);
 106:/Library/DaisyToolchain/0.2.0/arm/arm-none-eabi/include/c++/10.3.1/bits/stl_algobase.h ****     }
 107:/Library/DaisyToolchain/0.2.0/arm/arm-none-eabi/include/c++/10.3.1/bits/stl_algobase.h **** 
 108:/Library/DaisyToolchain/0.2.0/arm/arm-none-eabi/include/c++/10.3.1/bits/stl_algobase.h **** #if __cplusplus < 201103L
 109:/Library/DaisyToolchain/0.2.0/arm/arm-none-eabi/include/c++/10.3.1/bits/stl_algobase.h ****   // See http://gcc.gnu.org/ml/libstdc++/2004-08/msg00167.html: in a
 110:/Library/DaisyToolchain/0.2.0/arm/arm-none-eabi/include/c++/10.3.1/bits/stl_algobase.h ****   // nutshell, we are partially implementing the resolution of DR 187,
 111:/Library/DaisyToolchain/0.2.0/arm/arm-none-eabi/include/c++/10.3.1/bits/stl_algobase.h ****   // when it's safe, i.e., the value_types are equal.
 112:/Library/DaisyToolchain/0.2.0/arm/arm-none-eabi/include/c++/10.3.1/bits/stl_algobase.h ****   template<bool _BoolType>
 113:/Library/DaisyToolchain/0.2.0/arm/arm-none-eabi/include/c++/10.3.1/bits/stl_algobase.h ****     struct __iter_swap
 114:/Library/DaisyToolchain/0.2.0/arm/arm-none-eabi/include/c++/10.3.1/bits/stl_algobase.h ****     {
 115:/Library/DaisyToolchain/0.2.0/arm/arm-none-eabi/include/c++/10.3.1/bits/stl_algobase.h ****       template<typename _ForwardIterator1, typename _ForwardIterator2>
 116:/Library/DaisyToolchain/0.2.0/arm/arm-none-eabi/include/c++/10.3.1/bits/stl_algobase.h **** 	static void
 117:/Library/DaisyToolchain/0.2.0/arm/arm-none-eabi/include/c++/10.3.1/bits/stl_algobase.h **** 	iter_swap(_ForwardIterator1 __a, _ForwardIterator2 __b)
 118:/Library/DaisyToolchain/0.2.0/arm/arm-none-eabi/include/c++/10.3.1/bits/stl_algobase.h **** 	{
 119:/Library/DaisyToolchain/0.2.0/arm/arm-none-eabi/include/c++/10.3.1/bits/stl_algobase.h **** 	  typedef typename iterator_traits<_ForwardIterator1>::value_type
 120:/Library/DaisyToolchain/0.2.0/arm/arm-none-eabi/include/c++/10.3.1/bits/stl_algobase.h **** 	    _ValueType1;
 121:/Library/DaisyToolchain/0.2.0/arm/arm-none-eabi/include/c++/10.3.1/bits/stl_algobase.h **** 	  _ValueType1 __tmp = *__a;
 122:/Library/DaisyToolchain/0.2.0/arm/arm-none-eabi/include/c++/10.3.1/bits/stl_algobase.h **** 	  *__a = *__b;
 123:/Library/DaisyToolchain/0.2.0/arm/arm-none-eabi/include/c++/10.3.1/bits/stl_algobase.h **** 	  *__b = __tmp;
 124:/Library/DaisyToolchain/0.2.0/arm/arm-none-eabi/include/c++/10.3.1/bits/stl_algobase.h **** 	}
 125:/Library/DaisyToolchain/0.2.0/arm/arm-none-eabi/include/c++/10.3.1/bits/stl_algobase.h ****     };
 126:/Library/DaisyToolchain/0.2.0/arm/arm-none-eabi/include/c++/10.3.1/bits/stl_algobase.h **** 
 127:/Library/DaisyToolchain/0.2.0/arm/arm-none-eabi/include/c++/10.3.1/bits/stl_algobase.h ****   template<>
 128:/Library/DaisyToolchain/0.2.0/arm/arm-none-eabi/include/c++/10.3.1/bits/stl_algobase.h ****     struct __iter_swap<true>
 129:/Library/DaisyToolchain/0.2.0/arm/arm-none-eabi/include/c++/10.3.1/bits/stl_algobase.h ****     {
 130:/Library/DaisyToolchain/0.2.0/arm/arm-none-eabi/include/c++/10.3.1/bits/stl_algobase.h ****       template<typename _ForwardIterator1, typename _ForwardIterator2>
ARM GAS  /var/folders/9s/8rp0_f2s1n31qbztm3b5_fdh0000gn/T//ccSTbMRq.s 			page 47


 131:/Library/DaisyToolchain/0.2.0/arm/arm-none-eabi/include/c++/10.3.1/bits/stl_algobase.h **** 	static void
 132:/Library/DaisyToolchain/0.2.0/arm/arm-none-eabi/include/c++/10.3.1/bits/stl_algobase.h **** 	iter_swap(_ForwardIterator1 __a, _ForwardIterator2 __b)
 133:/Library/DaisyToolchain/0.2.0/arm/arm-none-eabi/include/c++/10.3.1/bits/stl_algobase.h **** 	{
 134:/Library/DaisyToolchain/0.2.0/arm/arm-none-eabi/include/c++/10.3.1/bits/stl_algobase.h **** 	  swap(*__a, *__b);
 135:/Library/DaisyToolchain/0.2.0/arm/arm-none-eabi/include/c++/10.3.1/bits/stl_algobase.h **** 	}
 136:/Library/DaisyToolchain/0.2.0/arm/arm-none-eabi/include/c++/10.3.1/bits/stl_algobase.h ****     };
 137:/Library/DaisyToolchain/0.2.0/arm/arm-none-eabi/include/c++/10.3.1/bits/stl_algobase.h **** #endif // C++03
 138:/Library/DaisyToolchain/0.2.0/arm/arm-none-eabi/include/c++/10.3.1/bits/stl_algobase.h **** 
 139:/Library/DaisyToolchain/0.2.0/arm/arm-none-eabi/include/c++/10.3.1/bits/stl_algobase.h ****   /**
 140:/Library/DaisyToolchain/0.2.0/arm/arm-none-eabi/include/c++/10.3.1/bits/stl_algobase.h ****    *  @brief Swaps the contents of two iterators.
 141:/Library/DaisyToolchain/0.2.0/arm/arm-none-eabi/include/c++/10.3.1/bits/stl_algobase.h ****    *  @ingroup mutating_algorithms
 142:/Library/DaisyToolchain/0.2.0/arm/arm-none-eabi/include/c++/10.3.1/bits/stl_algobase.h ****    *  @param  __a  An iterator.
 143:/Library/DaisyToolchain/0.2.0/arm/arm-none-eabi/include/c++/10.3.1/bits/stl_algobase.h ****    *  @param  __b  Another iterator.
 144:/Library/DaisyToolchain/0.2.0/arm/arm-none-eabi/include/c++/10.3.1/bits/stl_algobase.h ****    *  @return   Nothing.
 145:/Library/DaisyToolchain/0.2.0/arm/arm-none-eabi/include/c++/10.3.1/bits/stl_algobase.h ****    *
 146:/Library/DaisyToolchain/0.2.0/arm/arm-none-eabi/include/c++/10.3.1/bits/stl_algobase.h ****    *  This function swaps the values pointed to by two iterators, not the
 147:/Library/DaisyToolchain/0.2.0/arm/arm-none-eabi/include/c++/10.3.1/bits/stl_algobase.h ****    *  iterators themselves.
 148:/Library/DaisyToolchain/0.2.0/arm/arm-none-eabi/include/c++/10.3.1/bits/stl_algobase.h ****   */
 149:/Library/DaisyToolchain/0.2.0/arm/arm-none-eabi/include/c++/10.3.1/bits/stl_algobase.h ****   template<typename _ForwardIterator1, typename _ForwardIterator2>
 150:/Library/DaisyToolchain/0.2.0/arm/arm-none-eabi/include/c++/10.3.1/bits/stl_algobase.h ****     _GLIBCXX20_CONSTEXPR
 151:/Library/DaisyToolchain/0.2.0/arm/arm-none-eabi/include/c++/10.3.1/bits/stl_algobase.h ****     inline void
 152:/Library/DaisyToolchain/0.2.0/arm/arm-none-eabi/include/c++/10.3.1/bits/stl_algobase.h ****     iter_swap(_ForwardIterator1 __a, _ForwardIterator2 __b)
 153:/Library/DaisyToolchain/0.2.0/arm/arm-none-eabi/include/c++/10.3.1/bits/stl_algobase.h ****     {
 154:/Library/DaisyToolchain/0.2.0/arm/arm-none-eabi/include/c++/10.3.1/bits/stl_algobase.h ****       // concept requirements
 155:/Library/DaisyToolchain/0.2.0/arm/arm-none-eabi/include/c++/10.3.1/bits/stl_algobase.h ****       __glibcxx_function_requires(_Mutable_ForwardIteratorConcept<
 156:/Library/DaisyToolchain/0.2.0/arm/arm-none-eabi/include/c++/10.3.1/bits/stl_algobase.h **** 				  _ForwardIterator1>)
 157:/Library/DaisyToolchain/0.2.0/arm/arm-none-eabi/include/c++/10.3.1/bits/stl_algobase.h ****       __glibcxx_function_requires(_Mutable_ForwardIteratorConcept<
 158:/Library/DaisyToolchain/0.2.0/arm/arm-none-eabi/include/c++/10.3.1/bits/stl_algobase.h **** 				  _ForwardIterator2>)
 159:/Library/DaisyToolchain/0.2.0/arm/arm-none-eabi/include/c++/10.3.1/bits/stl_algobase.h **** 
 160:/Library/DaisyToolchain/0.2.0/arm/arm-none-eabi/include/c++/10.3.1/bits/stl_algobase.h **** #if __cplusplus < 201103L
 161:/Library/DaisyToolchain/0.2.0/arm/arm-none-eabi/include/c++/10.3.1/bits/stl_algobase.h ****       typedef typename iterator_traits<_ForwardIterator1>::value_type
 162:/Library/DaisyToolchain/0.2.0/arm/arm-none-eabi/include/c++/10.3.1/bits/stl_algobase.h **** 	_ValueType1;
 163:/Library/DaisyToolchain/0.2.0/arm/arm-none-eabi/include/c++/10.3.1/bits/stl_algobase.h ****       typedef typename iterator_traits<_ForwardIterator2>::value_type
 164:/Library/DaisyToolchain/0.2.0/arm/arm-none-eabi/include/c++/10.3.1/bits/stl_algobase.h **** 	_ValueType2;
 165:/Library/DaisyToolchain/0.2.0/arm/arm-none-eabi/include/c++/10.3.1/bits/stl_algobase.h **** 
 166:/Library/DaisyToolchain/0.2.0/arm/arm-none-eabi/include/c++/10.3.1/bits/stl_algobase.h ****       __glibcxx_function_requires(_ConvertibleConcept<_ValueType1,
 167:/Library/DaisyToolchain/0.2.0/arm/arm-none-eabi/include/c++/10.3.1/bits/stl_algobase.h **** 				  _ValueType2>)
 168:/Library/DaisyToolchain/0.2.0/arm/arm-none-eabi/include/c++/10.3.1/bits/stl_algobase.h ****       __glibcxx_function_requires(_ConvertibleConcept<_ValueType2,
 169:/Library/DaisyToolchain/0.2.0/arm/arm-none-eabi/include/c++/10.3.1/bits/stl_algobase.h **** 				  _ValueType1>)
 170:/Library/DaisyToolchain/0.2.0/arm/arm-none-eabi/include/c++/10.3.1/bits/stl_algobase.h **** 
 171:/Library/DaisyToolchain/0.2.0/arm/arm-none-eabi/include/c++/10.3.1/bits/stl_algobase.h ****       typedef typename iterator_traits<_ForwardIterator1>::reference
 172:/Library/DaisyToolchain/0.2.0/arm/arm-none-eabi/include/c++/10.3.1/bits/stl_algobase.h **** 	_ReferenceType1;
 173:/Library/DaisyToolchain/0.2.0/arm/arm-none-eabi/include/c++/10.3.1/bits/stl_algobase.h ****       typedef typename iterator_traits<_ForwardIterator2>::reference
 174:/Library/DaisyToolchain/0.2.0/arm/arm-none-eabi/include/c++/10.3.1/bits/stl_algobase.h **** 	_ReferenceType2;
 175:/Library/DaisyToolchain/0.2.0/arm/arm-none-eabi/include/c++/10.3.1/bits/stl_algobase.h ****       std::__iter_swap<__are_same<_ValueType1, _ValueType2>::__value
 176:/Library/DaisyToolchain/0.2.0/arm/arm-none-eabi/include/c++/10.3.1/bits/stl_algobase.h **** 	&& __are_same<_ValueType1&, _ReferenceType1>::__value
 177:/Library/DaisyToolchain/0.2.0/arm/arm-none-eabi/include/c++/10.3.1/bits/stl_algobase.h **** 	&& __are_same<_ValueType2&, _ReferenceType2>::__value>::
 178:/Library/DaisyToolchain/0.2.0/arm/arm-none-eabi/include/c++/10.3.1/bits/stl_algobase.h **** 	iter_swap(__a, __b);
 179:/Library/DaisyToolchain/0.2.0/arm/arm-none-eabi/include/c++/10.3.1/bits/stl_algobase.h **** #else
 180:/Library/DaisyToolchain/0.2.0/arm/arm-none-eabi/include/c++/10.3.1/bits/stl_algobase.h ****       // _GLIBCXX_RESOLVE_LIB_DEFECTS
 181:/Library/DaisyToolchain/0.2.0/arm/arm-none-eabi/include/c++/10.3.1/bits/stl_algobase.h ****       // 187. iter_swap underspecified
 182:/Library/DaisyToolchain/0.2.0/arm/arm-none-eabi/include/c++/10.3.1/bits/stl_algobase.h ****       swap(*__a, *__b);
 183:/Library/DaisyToolchain/0.2.0/arm/arm-none-eabi/include/c++/10.3.1/bits/stl_algobase.h **** #endif
 184:/Library/DaisyToolchain/0.2.0/arm/arm-none-eabi/include/c++/10.3.1/bits/stl_algobase.h ****     }
 185:/Library/DaisyToolchain/0.2.0/arm/arm-none-eabi/include/c++/10.3.1/bits/stl_algobase.h **** 
 186:/Library/DaisyToolchain/0.2.0/arm/arm-none-eabi/include/c++/10.3.1/bits/stl_algobase.h ****   /**
 187:/Library/DaisyToolchain/0.2.0/arm/arm-none-eabi/include/c++/10.3.1/bits/stl_algobase.h ****    *  @brief Swap the elements of two sequences.
ARM GAS  /var/folders/9s/8rp0_f2s1n31qbztm3b5_fdh0000gn/T//ccSTbMRq.s 			page 48


 188:/Library/DaisyToolchain/0.2.0/arm/arm-none-eabi/include/c++/10.3.1/bits/stl_algobase.h ****    *  @ingroup mutating_algorithms
 189:/Library/DaisyToolchain/0.2.0/arm/arm-none-eabi/include/c++/10.3.1/bits/stl_algobase.h ****    *  @param  __first1  A forward iterator.
 190:/Library/DaisyToolchain/0.2.0/arm/arm-none-eabi/include/c++/10.3.1/bits/stl_algobase.h ****    *  @param  __last1   A forward iterator.
 191:/Library/DaisyToolchain/0.2.0/arm/arm-none-eabi/include/c++/10.3.1/bits/stl_algobase.h ****    *  @param  __first2  A forward iterator.
 192:/Library/DaisyToolchain/0.2.0/arm/arm-none-eabi/include/c++/10.3.1/bits/stl_algobase.h ****    *  @return   An iterator equal to @p first2+(last1-first1).
 193:/Library/DaisyToolchain/0.2.0/arm/arm-none-eabi/include/c++/10.3.1/bits/stl_algobase.h ****    *
 194:/Library/DaisyToolchain/0.2.0/arm/arm-none-eabi/include/c++/10.3.1/bits/stl_algobase.h ****    *  Swaps each element in the range @p [first1,last1) with the
 195:/Library/DaisyToolchain/0.2.0/arm/arm-none-eabi/include/c++/10.3.1/bits/stl_algobase.h ****    *  corresponding element in the range @p [first2,(last1-first1)).
 196:/Library/DaisyToolchain/0.2.0/arm/arm-none-eabi/include/c++/10.3.1/bits/stl_algobase.h ****    *  The ranges must not overlap.
 197:/Library/DaisyToolchain/0.2.0/arm/arm-none-eabi/include/c++/10.3.1/bits/stl_algobase.h ****   */
 198:/Library/DaisyToolchain/0.2.0/arm/arm-none-eabi/include/c++/10.3.1/bits/stl_algobase.h ****   template<typename _ForwardIterator1, typename _ForwardIterator2>
 199:/Library/DaisyToolchain/0.2.0/arm/arm-none-eabi/include/c++/10.3.1/bits/stl_algobase.h ****     _GLIBCXX20_CONSTEXPR
 200:/Library/DaisyToolchain/0.2.0/arm/arm-none-eabi/include/c++/10.3.1/bits/stl_algobase.h ****     _ForwardIterator2
 201:/Library/DaisyToolchain/0.2.0/arm/arm-none-eabi/include/c++/10.3.1/bits/stl_algobase.h ****     swap_ranges(_ForwardIterator1 __first1, _ForwardIterator1 __last1,
 202:/Library/DaisyToolchain/0.2.0/arm/arm-none-eabi/include/c++/10.3.1/bits/stl_algobase.h **** 		_ForwardIterator2 __first2)
 203:/Library/DaisyToolchain/0.2.0/arm/arm-none-eabi/include/c++/10.3.1/bits/stl_algobase.h ****     {
 204:/Library/DaisyToolchain/0.2.0/arm/arm-none-eabi/include/c++/10.3.1/bits/stl_algobase.h ****       // concept requirements
 205:/Library/DaisyToolchain/0.2.0/arm/arm-none-eabi/include/c++/10.3.1/bits/stl_algobase.h ****       __glibcxx_function_requires(_Mutable_ForwardIteratorConcept<
 206:/Library/DaisyToolchain/0.2.0/arm/arm-none-eabi/include/c++/10.3.1/bits/stl_algobase.h **** 				  _ForwardIterator1>)
 207:/Library/DaisyToolchain/0.2.0/arm/arm-none-eabi/include/c++/10.3.1/bits/stl_algobase.h ****       __glibcxx_function_requires(_Mutable_ForwardIteratorConcept<
 208:/Library/DaisyToolchain/0.2.0/arm/arm-none-eabi/include/c++/10.3.1/bits/stl_algobase.h **** 				  _ForwardIterator2>)
 209:/Library/DaisyToolchain/0.2.0/arm/arm-none-eabi/include/c++/10.3.1/bits/stl_algobase.h ****       __glibcxx_requires_valid_range(__first1, __last1);
 210:/Library/DaisyToolchain/0.2.0/arm/arm-none-eabi/include/c++/10.3.1/bits/stl_algobase.h **** 
 211:/Library/DaisyToolchain/0.2.0/arm/arm-none-eabi/include/c++/10.3.1/bits/stl_algobase.h ****       for (; __first1 != __last1; ++__first1, (void)++__first2)
 212:/Library/DaisyToolchain/0.2.0/arm/arm-none-eabi/include/c++/10.3.1/bits/stl_algobase.h **** 	std::iter_swap(__first1, __first2);
 213:/Library/DaisyToolchain/0.2.0/arm/arm-none-eabi/include/c++/10.3.1/bits/stl_algobase.h ****       return __first2;
 214:/Library/DaisyToolchain/0.2.0/arm/arm-none-eabi/include/c++/10.3.1/bits/stl_algobase.h ****     }
 215:/Library/DaisyToolchain/0.2.0/arm/arm-none-eabi/include/c++/10.3.1/bits/stl_algobase.h **** 
 216:/Library/DaisyToolchain/0.2.0/arm/arm-none-eabi/include/c++/10.3.1/bits/stl_algobase.h ****   /**
 217:/Library/DaisyToolchain/0.2.0/arm/arm-none-eabi/include/c++/10.3.1/bits/stl_algobase.h ****    *  @brief This does what you think it does.
 218:/Library/DaisyToolchain/0.2.0/arm/arm-none-eabi/include/c++/10.3.1/bits/stl_algobase.h ****    *  @ingroup sorting_algorithms
 219:/Library/DaisyToolchain/0.2.0/arm/arm-none-eabi/include/c++/10.3.1/bits/stl_algobase.h ****    *  @param  __a  A thing of arbitrary type.
 220:/Library/DaisyToolchain/0.2.0/arm/arm-none-eabi/include/c++/10.3.1/bits/stl_algobase.h ****    *  @param  __b  Another thing of arbitrary type.
 221:/Library/DaisyToolchain/0.2.0/arm/arm-none-eabi/include/c++/10.3.1/bits/stl_algobase.h ****    *  @return   The lesser of the parameters.
 222:/Library/DaisyToolchain/0.2.0/arm/arm-none-eabi/include/c++/10.3.1/bits/stl_algobase.h ****    *
 223:/Library/DaisyToolchain/0.2.0/arm/arm-none-eabi/include/c++/10.3.1/bits/stl_algobase.h ****    *  This is the simple classic generic implementation.  It will work on
 224:/Library/DaisyToolchain/0.2.0/arm/arm-none-eabi/include/c++/10.3.1/bits/stl_algobase.h ****    *  temporary expressions, since they are only evaluated once, unlike a
 225:/Library/DaisyToolchain/0.2.0/arm/arm-none-eabi/include/c++/10.3.1/bits/stl_algobase.h ****    *  preprocessor macro.
 226:/Library/DaisyToolchain/0.2.0/arm/arm-none-eabi/include/c++/10.3.1/bits/stl_algobase.h ****   */
 227:/Library/DaisyToolchain/0.2.0/arm/arm-none-eabi/include/c++/10.3.1/bits/stl_algobase.h ****   template<typename _Tp>
 228:/Library/DaisyToolchain/0.2.0/arm/arm-none-eabi/include/c++/10.3.1/bits/stl_algobase.h ****     _GLIBCXX14_CONSTEXPR
 229:/Library/DaisyToolchain/0.2.0/arm/arm-none-eabi/include/c++/10.3.1/bits/stl_algobase.h ****     inline const _Tp&
 230:/Library/DaisyToolchain/0.2.0/arm/arm-none-eabi/include/c++/10.3.1/bits/stl_algobase.h ****     min(const _Tp& __a, const _Tp& __b)
 231:/Library/DaisyToolchain/0.2.0/arm/arm-none-eabi/include/c++/10.3.1/bits/stl_algobase.h ****     {
 232:/Library/DaisyToolchain/0.2.0/arm/arm-none-eabi/include/c++/10.3.1/bits/stl_algobase.h ****       // concept requirements
 233:/Library/DaisyToolchain/0.2.0/arm/arm-none-eabi/include/c++/10.3.1/bits/stl_algobase.h ****       __glibcxx_function_requires(_LessThanComparableConcept<_Tp>)
 234:/Library/DaisyToolchain/0.2.0/arm/arm-none-eabi/include/c++/10.3.1/bits/stl_algobase.h ****       //return __b < __a ? __b : __a;
 235:/Library/DaisyToolchain/0.2.0/arm/arm-none-eabi/include/c++/10.3.1/bits/stl_algobase.h ****       if (__b < __a)
 236:/Library/DaisyToolchain/0.2.0/arm/arm-none-eabi/include/c++/10.3.1/bits/stl_algobase.h **** 	return __b;
 237:/Library/DaisyToolchain/0.2.0/arm/arm-none-eabi/include/c++/10.3.1/bits/stl_algobase.h ****       return __a;
 238:/Library/DaisyToolchain/0.2.0/arm/arm-none-eabi/include/c++/10.3.1/bits/stl_algobase.h ****     }
 239:/Library/DaisyToolchain/0.2.0/arm/arm-none-eabi/include/c++/10.3.1/bits/stl_algobase.h **** 
 240:/Library/DaisyToolchain/0.2.0/arm/arm-none-eabi/include/c++/10.3.1/bits/stl_algobase.h ****   /**
 241:/Library/DaisyToolchain/0.2.0/arm/arm-none-eabi/include/c++/10.3.1/bits/stl_algobase.h ****    *  @brief This does what you think it does.
 242:/Library/DaisyToolchain/0.2.0/arm/arm-none-eabi/include/c++/10.3.1/bits/stl_algobase.h ****    *  @ingroup sorting_algorithms
 243:/Library/DaisyToolchain/0.2.0/arm/arm-none-eabi/include/c++/10.3.1/bits/stl_algobase.h ****    *  @param  __a  A thing of arbitrary type.
 244:/Library/DaisyToolchain/0.2.0/arm/arm-none-eabi/include/c++/10.3.1/bits/stl_algobase.h ****    *  @param  __b  Another thing of arbitrary type.
ARM GAS  /var/folders/9s/8rp0_f2s1n31qbztm3b5_fdh0000gn/T//ccSTbMRq.s 			page 49


 245:/Library/DaisyToolchain/0.2.0/arm/arm-none-eabi/include/c++/10.3.1/bits/stl_algobase.h ****    *  @return   The greater of the parameters.
 246:/Library/DaisyToolchain/0.2.0/arm/arm-none-eabi/include/c++/10.3.1/bits/stl_algobase.h ****    *
 247:/Library/DaisyToolchain/0.2.0/arm/arm-none-eabi/include/c++/10.3.1/bits/stl_algobase.h ****    *  This is the simple classic generic implementation.  It will work on
 248:/Library/DaisyToolchain/0.2.0/arm/arm-none-eabi/include/c++/10.3.1/bits/stl_algobase.h ****    *  temporary expressions, since they are only evaluated once, unlike a
 249:/Library/DaisyToolchain/0.2.0/arm/arm-none-eabi/include/c++/10.3.1/bits/stl_algobase.h ****    *  preprocessor macro.
 250:/Library/DaisyToolchain/0.2.0/arm/arm-none-eabi/include/c++/10.3.1/bits/stl_algobase.h ****   */
 251:/Library/DaisyToolchain/0.2.0/arm/arm-none-eabi/include/c++/10.3.1/bits/stl_algobase.h ****   template<typename _Tp>
 252:/Library/DaisyToolchain/0.2.0/arm/arm-none-eabi/include/c++/10.3.1/bits/stl_algobase.h ****     _GLIBCXX14_CONSTEXPR
 253:/Library/DaisyToolchain/0.2.0/arm/arm-none-eabi/include/c++/10.3.1/bits/stl_algobase.h ****     inline const _Tp&
 254:/Library/DaisyToolchain/0.2.0/arm/arm-none-eabi/include/c++/10.3.1/bits/stl_algobase.h ****     max(const _Tp& __a, const _Tp& __b)
 1610              		.loc 9 254 5 is_stmt 1 view .LVU491
 1611              	.LBE465:
 103:eurorack/plaits/dsp/oscillator/variable_shape_oscillator.h ****       const float slope_up = 1.0f / (pw);
 1612              		.loc 2 103 51 is_stmt 0 view .LVU492
 1613 00d2 B0EE48EA 		vmov.f32	s28, s16
 104:eurorack/plaits/dsp/oscillator/variable_shape_oscillator.h ****       const float slope_down = 1.0f / (1.0f - pw);
 1614              		.loc 2 104 19 view .LVU493
 1615 00d6 88EE28AA 		vdiv.f32	s20, s16, s17
 1616              	.LBB468:
 1617              	.LBB466:
 255:/Library/DaisyToolchain/0.2.0/arm/arm-none-eabi/include/c++/10.3.1/bits/stl_algobase.h ****     {
 256:/Library/DaisyToolchain/0.2.0/arm/arm-none-eabi/include/c++/10.3.1/bits/stl_algobase.h ****       // concept requirements
 257:/Library/DaisyToolchain/0.2.0/arm/arm-none-eabi/include/c++/10.3.1/bits/stl_algobase.h ****       __glibcxx_function_requires(_LessThanComparableConcept<_Tp>)
 258:/Library/DaisyToolchain/0.2.0/arm/arm-none-eabi/include/c++/10.3.1/bits/stl_algobase.h ****       //return  __a < __b ? __b : __a;
 259:/Library/DaisyToolchain/0.2.0/arm/arm-none-eabi/include/c++/10.3.1/bits/stl_algobase.h ****       if (__a < __b)
 260:/Library/DaisyToolchain/0.2.0/arm/arm-none-eabi/include/c++/10.3.1/bits/stl_algobase.h **** 	return __b;
 1618              		.loc 9 260 9 view .LVU494
 1619 00da F4EE477A 		vcmp.f32	s15, s14
 1620              	.LBE466:
 1621              	.LBE468:
 103:eurorack/plaits/dsp/oscillator/variable_shape_oscillator.h ****       const float slope_up = 1.0f / (pw);
 1622              		.loc 2 103 51 view .LVU495
 1623 00de AFEECBEA 		vfms.f32	s28, s31, s22
 1624              	.LBB469:
 1625              	.LBB467:
 1626              		.loc 9 260 9 view .LVU496
 1627 00e2 F1EE10FA 		vmrs	APSR_nzcv, FPSCR
 1628 00e6 48BF     		it	mi
 1629 00e8 F0EE477A 		vmovmi.f32	s15, s14
 1630              	.LVL102:
 1631              		.loc 9 260 9 view .LVU497
 1632              	.LBE467:
 1633              	.LBE469:
 1634              	.LBB470:
 1635              	.LBB471:
 259:/Library/DaisyToolchain/0.2.0/arm/arm-none-eabi/include/c++/10.3.1/bits/stl_algobase.h **** 	return __b;
 1636              		.loc 9 259 7 view .LVU498
 1637 00ec B4EEC7EA 		vcmpe.f32	s28, s14
 1638              	.LBE471:
 1639              	.LBE470:
 102:eurorack/plaits/dsp/oscillator/variable_shape_oscillator.h ****       const float triangle_amount = std::max(1.0f - waveshape * 2.0f, 0.0f);
 1640              		.loc 2 102 19 view .LVU499
 1641 00f0 37EEA7DA 		vadd.f32	s26, s15, s15
 1642              	.LVL103:
 1643              	.LBB474:
 1644              	.LBI470:
 254:/Library/DaisyToolchain/0.2.0/arm/arm-none-eabi/include/c++/10.3.1/bits/stl_algobase.h ****     {
ARM GAS  /var/folders/9s/8rp0_f2s1n31qbztm3b5_fdh0000gn/T//ccSTbMRq.s 			page 50


 1645              		.loc 9 254 5 is_stmt 1 view .LVU500
 1646              	.LBE474:
 105:eurorack/plaits/dsp/oscillator/variable_shape_oscillator.h **** 
 1647              		.loc 2 105 45 is_stmt 0 view .LVU501
 1648 00f4 78EE687A 		vsub.f32	s15, s16, s17
 1649              	.LBB475:
 1650              	.LBB472:
 259:/Library/DaisyToolchain/0.2.0/arm/arm-none-eabi/include/c++/10.3.1/bits/stl_algobase.h **** 	return __b;
 1651              		.loc 9 259 7 view .LVU502
 1652 00f8 F1EE10FA 		vmrs	APSR_nzcv, FPSCR
 1653              	.LBE472:
 1654              	.LBE475:
 105:eurorack/plaits/dsp/oscillator/variable_shape_oscillator.h **** 
 1655              		.loc 2 105 19 view .LVU503
 1656 00fc C8EE27AA 		vdiv.f32	s21, s16, s15
 1657              	.LBB476:
 108:eurorack/plaits/dsp/oscillator/variable_shape_oscillator.h ****         if (master_phase_ >= 1.0f) {
 1658              		.loc 2 108 23 view .LVU504
 1659 0100 D4ED007A 		vldr.32	s15, [r4]
 1660 0104 7EEEA77A 		vadd.f32	s15, s29, s15
 1661              	.LBE476:
 1662              	.LBB477:
 1663              	.LBB473:
 1664              		.loc 9 260 9 view .LVU505
 1665 0108 48BF     		it	mi
 1666 010a B0EE47EA 		vmovmi.f32	s28, s14
 1667              	.LVL104:
 1668              		.loc 9 260 9 view .LVU506
 1669              	.LBE473:
 1670              	.LBE477:
 1671              	.LBB478:
 1672              	.LBB456:
 109:eurorack/plaits/dsp/oscillator/variable_shape_oscillator.h ****           master_phase_ -= 1.0f;
 1673              		.loc 2 109 9 view .LVU507
 1674 010e F4EEC87A 		vcmpe.f32	s15, s16
 1675              	.LBE456:
 108:eurorack/plaits/dsp/oscillator/variable_shape_oscillator.h ****         if (master_phase_ >= 1.0f) {
 1676              		.loc 2 108 23 view .LVU508
 1677 0112 C4ED007A 		vstr.32	s15, [r4]
 1678              	.LBB457:
 109:eurorack/plaits/dsp/oscillator/variable_shape_oscillator.h ****           master_phase_ -= 1.0f;
 1679              		.loc 2 109 9 view .LVU509
 1680 0116 F1EE10FA 		vmrs	APSR_nzcv, FPSCR
 1681 011a C0F2C480 		blt	.L89
 1682              	.LBB454:
 110:eurorack/plaits/dsp/oscillator/variable_shape_oscillator.h ****           reset_time = master_phase_ / master_frequency;
 1683              		.loc 2 110 25 view .LVU510
 1684 011e 77EEC87A 		vsub.f32	s15, s15, s16
 114:eurorack/plaits/dsp/oscillator/variable_shape_oscillator.h ****               (1.0f - reset_time) * slave_frequency;
 115:eurorack/plaits/dsp/oscillator/variable_shape_oscillator.h ****           reset = true;
 116:eurorack/plaits/dsp/oscillator/variable_shape_oscillator.h ****           if (slave_phase_at_reset >= 1.0f) {
 117:eurorack/plaits/dsp/oscillator/variable_shape_oscillator.h ****             slave_phase_at_reset -= 1.0f;
 118:eurorack/plaits/dsp/oscillator/variable_shape_oscillator.h ****             transition_during_reset = true;
 119:eurorack/plaits/dsp/oscillator/variable_shape_oscillator.h ****           }
 120:eurorack/plaits/dsp/oscillator/variable_shape_oscillator.h ****           if (!high_ && slave_phase_at_reset >= pw) {
 1685              		.loc 2 120 11 view .LVU511
 1686 0122 237C     		ldrb	r3, [r4, #16]	@ zero_extendqisi2
ARM GAS  /var/folders/9s/8rp0_f2s1n31qbztm3b5_fdh0000gn/T//ccSTbMRq.s 			page 51


 111:eurorack/plaits/dsp/oscillator/variable_shape_oscillator.h ****       
 1687              		.loc 2 111 22 view .LVU512
 1688 0124 C7EEAE9A 		vdiv.f32	s19, s15, s29
 1689              	.LVL105:
 110:eurorack/plaits/dsp/oscillator/variable_shape_oscillator.h ****           reset_time = master_phase_ / master_frequency;
 1690              		.loc 2 110 25 view .LVU513
 1691 0128 C4ED007A 		vstr.32	s15, [r4]
 113:eurorack/plaits/dsp/oscillator/variable_shape_oscillator.h ****               (1.0f - reset_time) * slave_frequency;
 1692              		.loc 2 113 17 view .LVU514
 1693 012c F0EE647A 		vmov.f32	s15, s9
 114:eurorack/plaits/dsp/oscillator/variable_shape_oscillator.h ****               (1.0f - reset_time) * slave_frequency;
 1694              		.loc 2 114 21 view .LVU515
 1695 0130 38EE695A 		vsub.f32	s10, s16, s19
 113:eurorack/plaits/dsp/oscillator/variable_shape_oscillator.h ****               (1.0f - reset_time) * slave_frequency;
 1696              		.loc 2 113 17 view .LVU516
 1697 0134 E5EE2D7A 		vfma.f32	s15, s10, s27
 1698              	.LVL106:
 116:eurorack/plaits/dsp/oscillator/variable_shape_oscillator.h ****             slave_phase_at_reset -= 1.0f;
 1699              		.loc 2 116 11 view .LVU517
 1700 0138 F4EEC87A 		vcmpe.f32	s15, s16
 1701 013c F1EE10FA 		vmrs	APSR_nzcv, FPSCR
 117:eurorack/plaits/dsp/oscillator/variable_shape_oscillator.h ****             transition_during_reset = true;
 1702              		.loc 2 117 34 view .LVU518
 1703 0140 A6BF     		itte	ge
 1704 0142 77EEC87A 		vsubge.f32	s15, s15, s16
 1705              	.LVL107:
 118:eurorack/plaits/dsp/oscillator/variable_shape_oscillator.h ****           }
 1706              		.loc 2 118 37 view .LVU519
 1707 0146 0126     		movge	r6, #1
 1708              	.LBE454:
 1709              	.LBE457:
 1710              	.LBE478:
  92:eurorack/plaits/dsp/oscillator/variable_shape_oscillator.h ****       float reset_time = 0.0f;
 1711              		.loc 2 92 12 view .LVU520
 1712 0148 0026     		movlt	r6, #0
 1713              	.LVL108:
 1714              	.LBB479:
 1715              	.LBB458:
 1716              	.LBB455:
 1717              		.loc 2 120 11 view .LVU521
 1718 014a 2BB9     		cbnz	r3, .L58
 121:eurorack/plaits/dsp/oscillator/variable_shape_oscillator.h ****             transition_during_reset = true;
 1719              		.loc 2 121 37 discriminator 1 view .LVU522
 1720 014c F4EE687A 		vcmp.f32	s15, s17
 1721 0150 F1EE10FA 		vmrs	APSR_nzcv, FPSCR
 1722 0154 A8BF     		it	ge
 1723 0156 0126     		movge	r6, #1
 1724              	.LVL109:
 1725              	.L58:
 1726              	.LBB446:
 1727              	.LBI446:
 122:eurorack/plaits/dsp/oscillator/variable_shape_oscillator.h ****           }
 123:eurorack/plaits/dsp/oscillator/variable_shape_oscillator.h ****           float value = ComputeNaiveSample(
 124:eurorack/plaits/dsp/oscillator/variable_shape_oscillator.h ****               slave_phase_at_reset,
 125:eurorack/plaits/dsp/oscillator/variable_shape_oscillator.h ****               pw,
 126:eurorack/plaits/dsp/oscillator/variable_shape_oscillator.h ****               slope_up,
 127:eurorack/plaits/dsp/oscillator/variable_shape_oscillator.h ****               slope_down,
ARM GAS  /var/folders/9s/8rp0_f2s1n31qbztm3b5_fdh0000gn/T//ccSTbMRq.s 			page 52


 128:eurorack/plaits/dsp/oscillator/variable_shape_oscillator.h ****               triangle_amount,
 129:eurorack/plaits/dsp/oscillator/variable_shape_oscillator.h ****               square_amount);
 130:eurorack/plaits/dsp/oscillator/variable_shape_oscillator.h ****           this_sample -= value * stmlib::ThisBlepSample(reset_time);
 131:eurorack/plaits/dsp/oscillator/variable_shape_oscillator.h ****           next_sample -= value * stmlib::NextBlepSample(reset_time);
 132:eurorack/plaits/dsp/oscillator/variable_shape_oscillator.h ****         }
 133:eurorack/plaits/dsp/oscillator/variable_shape_oscillator.h ****       }
 134:eurorack/plaits/dsp/oscillator/variable_shape_oscillator.h ****       
 135:eurorack/plaits/dsp/oscillator/variable_shape_oscillator.h ****       slave_phase_ += slave_frequency;
 136:eurorack/plaits/dsp/oscillator/variable_shape_oscillator.h ****       while (transition_during_reset || !reset) {
 137:eurorack/plaits/dsp/oscillator/variable_shape_oscillator.h ****         if (!high_) {
 138:eurorack/plaits/dsp/oscillator/variable_shape_oscillator.h ****           if (slave_phase_ < pw) {
 139:eurorack/plaits/dsp/oscillator/variable_shape_oscillator.h ****             break;
 140:eurorack/plaits/dsp/oscillator/variable_shape_oscillator.h ****           }
 141:eurorack/plaits/dsp/oscillator/variable_shape_oscillator.h ****           float t = (slave_phase_ - pw) / (previous_pw_ - pw + slave_frequency);
 142:eurorack/plaits/dsp/oscillator/variable_shape_oscillator.h ****           float triangle_step = (slope_up + slope_down) * slave_frequency;
 143:eurorack/plaits/dsp/oscillator/variable_shape_oscillator.h ****           triangle_step *= triangle_amount;
 144:eurorack/plaits/dsp/oscillator/variable_shape_oscillator.h ****           
 145:eurorack/plaits/dsp/oscillator/variable_shape_oscillator.h ****           this_sample += square_amount * stmlib::ThisBlepSample(t);
 146:eurorack/plaits/dsp/oscillator/variable_shape_oscillator.h ****           next_sample += square_amount * stmlib::NextBlepSample(t);
 147:eurorack/plaits/dsp/oscillator/variable_shape_oscillator.h ****           this_sample -= triangle_step * stmlib::ThisIntegratedBlepSample(t);
 148:eurorack/plaits/dsp/oscillator/variable_shape_oscillator.h ****           next_sample -= triangle_step * stmlib::NextIntegratedBlepSample(t);
 149:eurorack/plaits/dsp/oscillator/variable_shape_oscillator.h ****           high_ = true;
 150:eurorack/plaits/dsp/oscillator/variable_shape_oscillator.h ****         }
 151:eurorack/plaits/dsp/oscillator/variable_shape_oscillator.h ****       
 152:eurorack/plaits/dsp/oscillator/variable_shape_oscillator.h ****         if (high_) {
 153:eurorack/plaits/dsp/oscillator/variable_shape_oscillator.h ****           if (slave_phase_ < 1.0f) {
 154:eurorack/plaits/dsp/oscillator/variable_shape_oscillator.h ****             break;
 155:eurorack/plaits/dsp/oscillator/variable_shape_oscillator.h ****           }
 156:eurorack/plaits/dsp/oscillator/variable_shape_oscillator.h ****           slave_phase_ -= 1.0f;
 157:eurorack/plaits/dsp/oscillator/variable_shape_oscillator.h ****           float t = slave_phase_ / slave_frequency;
 158:eurorack/plaits/dsp/oscillator/variable_shape_oscillator.h ****           float triangle_step = (slope_up + slope_down) * slave_frequency;
 159:eurorack/plaits/dsp/oscillator/variable_shape_oscillator.h ****           triangle_step *= triangle_amount;
 160:eurorack/plaits/dsp/oscillator/variable_shape_oscillator.h **** 
 161:eurorack/plaits/dsp/oscillator/variable_shape_oscillator.h ****           this_sample -= (1.0f - triangle_amount) * stmlib::ThisBlepSample(t);
 162:eurorack/plaits/dsp/oscillator/variable_shape_oscillator.h ****           next_sample -= (1.0f - triangle_amount) * stmlib::NextBlepSample(t);
 163:eurorack/plaits/dsp/oscillator/variable_shape_oscillator.h ****           this_sample += triangle_step * stmlib::ThisIntegratedBlepSample(t);
 164:eurorack/plaits/dsp/oscillator/variable_shape_oscillator.h ****           next_sample += triangle_step * stmlib::NextIntegratedBlepSample(t);
 165:eurorack/plaits/dsp/oscillator/variable_shape_oscillator.h ****           high_ = false;
 166:eurorack/plaits/dsp/oscillator/variable_shape_oscillator.h ****         }
 167:eurorack/plaits/dsp/oscillator/variable_shape_oscillator.h ****       }
 168:eurorack/plaits/dsp/oscillator/variable_shape_oscillator.h ****     
 169:eurorack/plaits/dsp/oscillator/variable_shape_oscillator.h ****       if (enable_sync && reset) {
 170:eurorack/plaits/dsp/oscillator/variable_shape_oscillator.h ****         slave_phase_ = reset_time * slave_frequency;
 171:eurorack/plaits/dsp/oscillator/variable_shape_oscillator.h ****         high_ = false;
 172:eurorack/plaits/dsp/oscillator/variable_shape_oscillator.h ****       }
 173:eurorack/plaits/dsp/oscillator/variable_shape_oscillator.h ****     
 174:eurorack/plaits/dsp/oscillator/variable_shape_oscillator.h ****       next_sample += ComputeNaiveSample(
 175:eurorack/plaits/dsp/oscillator/variable_shape_oscillator.h ****           slave_phase_,
 176:eurorack/plaits/dsp/oscillator/variable_shape_oscillator.h ****           pw,
 177:eurorack/plaits/dsp/oscillator/variable_shape_oscillator.h ****           slope_up,
 178:eurorack/plaits/dsp/oscillator/variable_shape_oscillator.h ****           slope_down,
 179:eurorack/plaits/dsp/oscillator/variable_shape_oscillator.h ****           triangle_amount,
 180:eurorack/plaits/dsp/oscillator/variable_shape_oscillator.h ****           square_amount);
 181:eurorack/plaits/dsp/oscillator/variable_shape_oscillator.h ****       previous_pw_ = pw;
 182:eurorack/plaits/dsp/oscillator/variable_shape_oscillator.h **** 
 183:eurorack/plaits/dsp/oscillator/variable_shape_oscillator.h ****       *out++ = (2.0f * this_sample - 1.0f);
 184:eurorack/plaits/dsp/oscillator/variable_shape_oscillator.h ****     }
ARM GAS  /var/folders/9s/8rp0_f2s1n31qbztm3b5_fdh0000gn/T//ccSTbMRq.s 			page 53


 185:eurorack/plaits/dsp/oscillator/variable_shape_oscillator.h ****     
 186:eurorack/plaits/dsp/oscillator/variable_shape_oscillator.h ****     next_sample_ = next_sample;
 187:eurorack/plaits/dsp/oscillator/variable_shape_oscillator.h ****   }
 188:eurorack/plaits/dsp/oscillator/variable_shape_oscillator.h **** 
 189:eurorack/plaits/dsp/oscillator/variable_shape_oscillator.h **** 
 190:eurorack/plaits/dsp/oscillator/variable_shape_oscillator.h ****  private:
 191:eurorack/plaits/dsp/oscillator/variable_shape_oscillator.h ****   inline float ComputeNaiveSample(
 1728              		.loc 2 191 16 is_stmt 1 view .LVU523
 1729              	.LBB447:
 192:eurorack/plaits/dsp/oscillator/variable_shape_oscillator.h ****       float phase,
 193:eurorack/plaits/dsp/oscillator/variable_shape_oscillator.h ****       float pw,
 194:eurorack/plaits/dsp/oscillator/variable_shape_oscillator.h ****       float slope_up,
 195:eurorack/plaits/dsp/oscillator/variable_shape_oscillator.h ****       float slope_down,
 196:eurorack/plaits/dsp/oscillator/variable_shape_oscillator.h ****       float triangle_amount,
 197:eurorack/plaits/dsp/oscillator/variable_shape_oscillator.h ****       float square_amount) const {
 198:eurorack/plaits/dsp/oscillator/variable_shape_oscillator.h ****     float saw = phase;
 1730              		.loc 2 198 5 view .LVU524
 199:eurorack/plaits/dsp/oscillator/variable_shape_oscillator.h ****     float square = phase < pw ? 0.0f : 1.0f;
 1731              		.loc 2 199 5 view .LVU525
 1732              		.loc 2 199 31 is_stmt 0 view .LVU526
 1733 0158 F4EEE87A 		vcmpe.f32	s15, s17
 1734              	.LBE447:
 1735              	.LBE446:
 115:eurorack/plaits/dsp/oscillator/variable_shape_oscillator.h ****           if (slave_phase_at_reset >= 1.0f) {
 1736              		.loc 2 115 17 view .LVU527
 1737 015c 4FF00108 		mov	r8, #1
 1738              	.LBB449:
 1739              	.LBB448:
 1740              		.loc 2 199 31 view .LVU528
 1741 0160 F1EE10FA 		vmrs	APSR_nzcv, FPSCR
 1742              	.LVL110:
 200:eurorack/plaits/dsp/oscillator/variable_shape_oscillator.h ****     float triangle = phase < pw
 201:eurorack/plaits/dsp/oscillator/variable_shape_oscillator.h ****         ? phase * slope_up
 202:eurorack/plaits/dsp/oscillator/variable_shape_oscillator.h ****         : 1.0f - (phase - pw) * slope_down;
 1743              		.loc 2 202 25 view .LVU529
 1744 0164 55BF     		itete	pl
 1745 0166 77EEE83A 		vsubpl.f32	s7, s15, s17
 1746 016a DFED713A 		vldrmi.32	s7, .L95
 1747              	.LVL111:
 200:eurorack/plaits/dsp/oscillator/variable_shape_oscillator.h ****     float triangle = phase < pw
 1748              		.loc 2 200 5 is_stmt 1 view .LVU530
 201:eurorack/plaits/dsp/oscillator/variable_shape_oscillator.h ****         : 1.0f - (phase - pw) * slope_down;
 1749              		.loc 2 201 9 is_stmt 0 view .LVU531
 1750 016e B0EE484A 		vmovpl.f32	s8, s16
 1751 0172 27EE8A4A 		vmulmi.f32	s8, s15, s20
 1752 0176 5CBF     		itt	pl
 1753 0178 AAEEE34A 		vfmspl.f32	s8, s21, s7
 199:eurorack/plaits/dsp/oscillator/variable_shape_oscillator.h ****     float triangle = phase < pw
 1754              		.loc 2 199 31 view .LVU532
 1755 017c F7EE003A 		vmovpl.f32	s7, #1.0e+0
 1756              	.LVL112:
 203:eurorack/plaits/dsp/oscillator/variable_shape_oscillator.h ****     saw += (square - saw) * square_amount;
 1757              		.loc 2 203 5 is_stmt 1 view .LVU533
 1758              		.loc 2 203 20 is_stmt 0 view .LVU534
 1759 0180 73EEE73A 		vsub.f32	s7, s7, s15
 1760              		.loc 2 203 9 view .LVU535
 1761 0184 EDEE237A 		vfma.f32	s15, s26, s7
ARM GAS  /var/folders/9s/8rp0_f2s1n31qbztm3b5_fdh0000gn/T//ccSTbMRq.s 			page 54


 1762              	.LVL113:
 204:eurorack/plaits/dsp/oscillator/variable_shape_oscillator.h ****     saw += (triangle - saw) * triangle_amount;
 1763              		.loc 2 204 5 is_stmt 1 view .LVU536
 1764              		.loc 2 204 22 is_stmt 0 view .LVU537
 1765 0188 34EE674A 		vsub.f32	s8, s8, s15
 1766              	.LVL114:
 1767              		.loc 2 204 9 view .LVU538
 1768 018c EEEE047A 		vfma.f32	s15, s28, s8
 1769              	.LVL115:
 205:eurorack/plaits/dsp/oscillator/variable_shape_oscillator.h ****     return saw;
 1770              		.loc 2 205 5 is_stmt 1 view .LVU539
 1771              		.loc 2 205 5 is_stmt 0 view .LVU540
 1772              	.LBE448:
 1773              	.LBE449:
 1774              	.LBB450:
 1775              	.LBI450:
  37:eurorack/stmlib/dsp/polyblep.h ****   return 0.5f * t * t;
 1776              		.loc 7 37 14 is_stmt 1 view .LVU541
 1777              	.LBB451:
  38:eurorack/stmlib/dsp/polyblep.h **** }
 1778              		.loc 7 38 3 view .LVU542
  38:eurorack/stmlib/dsp/polyblep.h **** }
 1779              		.loc 7 38 15 is_stmt 0 view .LVU543
 1780 0190 29EEAB4A 		vmul.f32	s8, s19, s23
 1781              	.LBE451:
 1782              	.LBE450:
 130:eurorack/plaits/dsp/oscillator/variable_shape_oscillator.h ****           next_sample -= value * stmlib::NextBlepSample(reset_time);
 1783              		.loc 2 130 23 view .LVU544
 1784 0194 29EEC44A 		vnmul.f32	s8, s19, s8
 1785 0198 A4EE279A 		vfma.f32	s18, s8, s15
 1786              	.LVL116:
 1787              	.LBB452:
 1788              	.LBI452:
  41:eurorack/stmlib/dsp/polyblep.h ****   t = 1.0f - t;
 1789              		.loc 7 41 14 is_stmt 1 view .LVU545
 1790              	.LBB453:
  42:eurorack/stmlib/dsp/polyblep.h ****   return -0.5f * t * t;
 1791              		.loc 7 42 3 view .LVU546
  43:eurorack/stmlib/dsp/polyblep.h **** }
 1792              		.loc 7 43 3 view .LVU547
  43:eurorack/stmlib/dsp/polyblep.h **** }
 1793              		.loc 7 43 16 is_stmt 0 view .LVU548
 1794 019c BEEE004A 		vmov.f32	s8, #-5.0e-1
 1795 01a0 25EE044A 		vmul.f32	s8, s10, s8
 1796              	.LBE453:
 1797              	.LBE452:
 131:eurorack/plaits/dsp/oscillator/variable_shape_oscillator.h ****         }
 1798              		.loc 2 131 23 view .LVU549
 1799 01a4 25EE445A 		vnmul.f32	s10, s10, s8
 1800              	.LVL117:
 131:eurorack/plaits/dsp/oscillator/variable_shape_oscillator.h ****         }
 1801              		.loc 2 131 23 view .LVU550
 1802 01a8 A5EE277A 		vfma.f32	s14, s10, s15
 1803              	.LVL118:
 1804              	.L54:
 131:eurorack/plaits/dsp/oscillator/variable_shape_oscillator.h ****         }
 1805              		.loc 2 131 23 view .LVU551
ARM GAS  /var/folders/9s/8rp0_f2s1n31qbztm3b5_fdh0000gn/T//ccSTbMRq.s 			page 55


 1806              	.LBE455:
 1807              	.LBE458:
 1808              	.LBE479:
 135:eurorack/plaits/dsp/oscillator/variable_shape_oscillator.h ****       while (transition_during_reset || !reset) {
 1809              		.loc 2 135 20 view .LVU552
 1810 01ac 74EEAD4A 		vadd.f32	s9, s9, s27
 1811 01b0 C4ED014A 		vstr.32	s9, [r4, #4]
 1812              	.L67:
 136:eurorack/plaits/dsp/oscillator/variable_shape_oscillator.h ****         if (!high_) {
 1813              		.loc 2 136 38 is_stmt 1 view .LVU553
 1814 01b4 16B9     		cbnz	r6, .L63
 136:eurorack/plaits/dsp/oscillator/variable_shape_oscillator.h ****         if (!high_) {
 1815              		.loc 2 136 38 is_stmt 0 discriminator 1 view .LVU554
 1816 01b6 B8F1000F 		cmp	r8, #0
 1817 01ba 44D1     		bne	.L64
 1818              	.L63:
 1819              	.LBB480:
 137:eurorack/plaits/dsp/oscillator/variable_shape_oscillator.h ****           if (slave_phase_ < pw) {
 1820              		.loc 2 137 9 view .LVU555
 1821 01bc 237C     		ldrb	r3, [r4, #16]	@ zero_extendqisi2
 1822              	.LBB481:
 138:eurorack/plaits/dsp/oscillator/variable_shape_oscillator.h ****             break;
 1823              		.loc 2 138 15 view .LVU556
 1824 01be D4ED01CA 		vldr.32	s25, [r4, #4]
 1825              	.LBE481:
 137:eurorack/plaits/dsp/oscillator/variable_shape_oscillator.h ****           if (slave_phase_ < pw) {
 1826              		.loc 2 137 9 view .LVU557
 1827 01c2 C3BB     		cbnz	r3, .L65
 1828              	.LBB492:
 138:eurorack/plaits/dsp/oscillator/variable_shape_oscillator.h ****             break;
 1829              		.loc 2 138 11 view .LVU558
 1830 01c4 F4EEE8CA 		vcmpe.f32	s25, s17
 1831 01c8 F1EE10FA 		vmrs	APSR_nzcv, FPSCR
 1832 01cc 38D4     		bmi	.L66
 141:eurorack/plaits/dsp/oscillator/variable_shape_oscillator.h ****           float triangle_step = (slope_up + slope_down) * slave_frequency;
 1833              		.loc 2 141 57 view .LVU559
 1834 01ce D4ED037A 		vldr.32	s15, [r4, #12]
 141:eurorack/plaits/dsp/oscillator/variable_shape_oscillator.h ****           float triangle_step = (slope_up + slope_down) * slave_frequency;
 1835              		.loc 2 141 35 view .LVU560
 1836 01d2 7CEEE84A 		vsub.f32	s9, s25, s17
 142:eurorack/plaits/dsp/oscillator/variable_shape_oscillator.h ****           triangle_step *= triangle_amount;
 1837              		.loc 2 142 43 view .LVU561
 1838 01d6 3AEE2AFA 		vadd.f32	s30, s20, s21
 141:eurorack/plaits/dsp/oscillator/variable_shape_oscillator.h ****           float triangle_step = (slope_up + slope_down) * slave_frequency;
 1839              		.loc 2 141 57 view .LVU562
 1840 01da 77EEE87A 		vsub.f32	s15, s15, s17
 142:eurorack/plaits/dsp/oscillator/variable_shape_oscillator.h ****           triangle_step *= triangle_amount;
 1841              		.loc 2 142 17 view .LVU563
 1842 01de 2FEE2DFA 		vmul.f32	s30, s30, s27
 141:eurorack/plaits/dsp/oscillator/variable_shape_oscillator.h ****           float triangle_step = (slope_up + slope_down) * slave_frequency;
 1843              		.loc 2 141 62 view .LVU564
 1844 01e2 77EEAD7A 		vadd.f32	s15, s15, s27
 143:eurorack/plaits/dsp/oscillator/variable_shape_oscillator.h ****           
 1845              		.loc 2 143 25 view .LVU565
 1846 01e6 2EEE0FFA 		vmul.f32	s30, s28, s30
 141:eurorack/plaits/dsp/oscillator/variable_shape_oscillator.h ****           float triangle_step = (slope_up + slope_down) * slave_frequency;
 1847              		.loc 2 141 17 view .LVU566
ARM GAS  /var/folders/9s/8rp0_f2s1n31qbztm3b5_fdh0000gn/T//ccSTbMRq.s 			page 56


 1848 01ea 84EEA75A 		vdiv.f32	s10, s9, s15
 1849              	.LVL119:
 1850              	.LBB482:
 1851              	.LBI482:
  37:eurorack/stmlib/dsp/polyblep.h ****   return 0.5f * t * t;
 1852              		.loc 7 37 14 is_stmt 1 view .LVU567
 1853              	.LBB483:
  38:eurorack/stmlib/dsp/polyblep.h **** }
 1854              		.loc 7 38 3 view .LVU568
  38:eurorack/stmlib/dsp/polyblep.h **** }
 1855              		.loc 7 38 15 is_stmt 0 view .LVU569
 1856 01ee 65EE2B7A 		vmul.f32	s15, s10, s23
 1857              	.LBE483:
 1858              	.LBE482:
 1859              	.LBB485:
 1860              	.LBB486:
  42:eurorack/stmlib/dsp/polyblep.h ****   return -0.5f * t * t;
 1861              		.loc 7 42 5 view .LVU570
 1862 01f2 8DED055A 		vstr.32	s10, [sp, #20]	@ int
 1863 01f6 38EE450A 		vsub.f32	s0, s16, s10
 1864              	.LBE486:
 1865              	.LBE485:
 1866              	.LBB488:
 1867              	.LBB484:
  38:eurorack/stmlib/dsp/polyblep.h **** }
 1868              		.loc 7 38 21 view .LVU571
 1869 01fa 67EE857A 		vmul.f32	s15, s15, s10
 1870              	.LBE484:
 1871              	.LBE488:
 145:eurorack/plaits/dsp/oscillator/variable_shape_oscillator.h ****           next_sample += square_amount * stmlib::NextBlepSample(t);
 1872              		.loc 2 145 23 view .LVU572
 1873 01fe ADEE279A 		vfma.f32	s18, s26, s15
 1874              	.LVL120:
 1875              	.LBB489:
 1876              	.LBI485:
  41:eurorack/stmlib/dsp/polyblep.h ****   t = 1.0f - t;
 1877              		.loc 7 41 14 is_stmt 1 view .LVU573
 1878              	.LBB487:
  42:eurorack/stmlib/dsp/polyblep.h ****   return -0.5f * t * t;
 1879              		.loc 7 42 3 view .LVU574
  43:eurorack/stmlib/dsp/polyblep.h **** }
 1880              		.loc 7 43 3 view .LVU575
  43:eurorack/stmlib/dsp/polyblep.h **** }
 1881              		.loc 7 43 16 is_stmt 0 view .LVU576
 1882 0202 FEEE007A 		vmov.f32	s15, #-5.0e-1
 1883 0206 60EE277A 		vmul.f32	s15, s0, s15
  43:eurorack/stmlib/dsp/polyblep.h **** }
 1884              		.loc 7 43 22 view .LVU577
 1885 020a 67EE807A 		vmul.f32	s15, s15, s0
 1886              	.LBE487:
 1887              	.LBE489:
 146:eurorack/plaits/dsp/oscillator/variable_shape_oscillator.h ****           this_sample -= triangle_step * stmlib::ThisIntegratedBlepSample(t);
 1888              		.loc 2 146 23 view .LVU578
 1889 020e ADEE277A 		vfma.f32	s14, s26, s15
 1890              	.LVL121:
 146:eurorack/plaits/dsp/oscillator/variable_shape_oscillator.h ****           this_sample -= triangle_step * stmlib::ThisIntegratedBlepSample(t);
 1891              		.loc 2 146 23 view .LVU579
ARM GAS  /var/folders/9s/8rp0_f2s1n31qbztm3b5_fdh0000gn/T//ccSTbMRq.s 			page 57


 1892 0212 8DED047A 		vstr.32	s14, [sp, #16]	@ int
 1893              	.LVL122:
 1894              	.LBB490:
 1895              	.LBI490:
  53:eurorack/stmlib/dsp/polyblep.h ****   return NextIntegratedBlepSample(1.0f - t);
 1896              		.loc 7 53 14 is_stmt 1 view .LVU580
 1897              	.LBB491:
 1898              		.loc 7 54 3 view .LVU581
 1899              		.loc 7 54 34 is_stmt 0 view .LVU582
 1900 0216 FFF7FEFF 		bl	_ZN6stmlib24NextIntegratedBlepSampleEf
 1901              	.LVL123:
 1902              		.loc 7 54 34 view .LVU583
 1903              	.LBE491:
 1904              	.LBE490:
 148:eurorack/plaits/dsp/oscillator/variable_shape_oscillator.h ****           high_ = true;
 1905              		.loc 2 148 74 view .LVU584
 1906 021a 9DED055A 		vldr.32	s10, [sp, #20]	@ int
 147:eurorack/plaits/dsp/oscillator/variable_shape_oscillator.h ****           next_sample -= triangle_step * stmlib::NextIntegratedBlepSample(t);
 1907              		.loc 2 147 23 view .LVU585
 1908 021e AFEE409A 		vfms.f32	s18, s30, s0
 1909              	.LVL124:
 148:eurorack/plaits/dsp/oscillator/variable_shape_oscillator.h ****           high_ = true;
 1910              		.loc 2 148 74 view .LVU586
 1911 0222 B0EE450A 		vmov.f32	s0, s10
 1912 0226 FFF7FEFF 		bl	_ZN6stmlib24NextIntegratedBlepSampleEf
 1913              	.LVL125:
 148:eurorack/plaits/dsp/oscillator/variable_shape_oscillator.h ****           high_ = true;
 1914              		.loc 2 148 23 view .LVU587
 1915 022a 9DED047A 		vldr.32	s14, [sp, #16]	@ int
 149:eurorack/plaits/dsp/oscillator/variable_shape_oscillator.h ****         }
 1916              		.loc 2 149 17 view .LVU588
 1917 022e 0123     		movs	r3, #1
 148:eurorack/plaits/dsp/oscillator/variable_shape_oscillator.h ****           high_ = true;
 1918              		.loc 2 148 23 view .LVU589
 1919 0230 A0EE4F7A 		vfms.f32	s14, s0, s30
 1920              	.LVL126:
 149:eurorack/plaits/dsp/oscillator/variable_shape_oscillator.h ****         }
 1921              		.loc 2 149 17 view .LVU590
 1922 0234 2374     		strb	r3, [r4, #16]
 1923              	.LVL127:
 1924              	.L65:
 149:eurorack/plaits/dsp/oscillator/variable_shape_oscillator.h ****         }
 1925              		.loc 2 149 17 view .LVU591
 1926              	.LBE492:
 1927              	.LBE480:
 1928              	.LBB493:
 1929              	.LBB494:
 153:eurorack/plaits/dsp/oscillator/variable_shape_oscillator.h ****             break;
 1930              		.loc 2 153 11 view .LVU592
 1931 0236 F4EEC8CA 		vcmpe.f32	s25, s16
 1932 023a F1EE10FA 		vmrs	APSR_nzcv, FPSCR
 1933 023e 39D5     		bpl	.L94
 1934              	.L66:
 153:eurorack/plaits/dsp/oscillator/variable_shape_oscillator.h ****             break;
 1935              		.loc 2 153 11 view .LVU593
 1936              	.LBE494:
 1937              	.LBE493:
ARM GAS  /var/folders/9s/8rp0_f2s1n31qbztm3b5_fdh0000gn/T//ccSTbMRq.s 			page 58


 169:eurorack/plaits/dsp/oscillator/variable_shape_oscillator.h ****         slave_phase_ = reset_time * slave_frequency;
 1938              		.loc 2 169 7 view .LVU594
 1939 0240 B8F1000F 		cmp	r8, #0
 1940 0244 05D0     		beq	.L68
 1941              	.L64:
 170:eurorack/plaits/dsp/oscillator/variable_shape_oscillator.h ****         high_ = false;
 1942              		.loc 2 170 35 view .LVU595
 1943 0246 69EEAD9A 		vmul.f32	s19, s19, s27
 1944              	.LVL128:
 171:eurorack/plaits/dsp/oscillator/variable_shape_oscillator.h ****       }
 1945              		.loc 2 171 15 view .LVU596
 1946 024a 0023     		movs	r3, #0
 1947 024c 2374     		strb	r3, [r4, #16]
 170:eurorack/plaits/dsp/oscillator/variable_shape_oscillator.h ****         high_ = false;
 1948              		.loc 2 170 22 view .LVU597
 1949 024e C4ED019A 		vstr.32	s19, [r4, #4]
 1950              	.L68:
 174:eurorack/plaits/dsp/oscillator/variable_shape_oscillator.h ****           slave_phase_,
 1951              		.loc 2 174 40 view .LVU598
 1952 0252 D4ED017A 		vldr.32	s15, [r4, #4]
 1953              	.LVL129:
 1954              	.LBB506:
 1955              	.LBI506:
 191:eurorack/plaits/dsp/oscillator/variable_shape_oscillator.h ****       float phase,
 1956              		.loc 2 191 16 is_stmt 1 view .LVU599
 1957              	.LBB507:
 198:eurorack/plaits/dsp/oscillator/variable_shape_oscillator.h ****     float square = phase < pw ? 0.0f : 1.0f;
 1958              		.loc 2 198 5 view .LVU600
 199:eurorack/plaits/dsp/oscillator/variable_shape_oscillator.h ****     float triangle = phase < pw
 1959              		.loc 2 199 5 view .LVU601
 1960              	.LBE507:
 1961              	.LBE506:
 181:eurorack/plaits/dsp/oscillator/variable_shape_oscillator.h **** 
 1962              		.loc 2 181 20 is_stmt 0 view .LVU602
 1963 0256 C4ED038A 		vstr.32	s17, [r4, #12]
 1964              	.LBB510:
 1965              	.LBB508:
 199:eurorack/plaits/dsp/oscillator/variable_shape_oscillator.h ****     float triangle = phase < pw
 1966              		.loc 2 199 31 view .LVU603
 1967 025a F4EEE87A 		vcmpe.f32	s15, s17
 1968 025e F1EE10FA 		vmrs	APSR_nzcv, FPSCR
 1969              	.LVL130:
 202:eurorack/plaits/dsp/oscillator/variable_shape_oscillator.h ****     saw += (square - saw) * square_amount;
 1970              		.loc 2 202 25 view .LVU604
 1971 0262 53BF     		iteet	pl
 1972 0264 77EEE86A 		vsubpl.f32	s13, s15, s17
 1973 0268 DFED316A 		vldrmi.32	s13, .L95
 1974              	.LVL131:
 200:eurorack/plaits/dsp/oscillator/variable_shape_oscillator.h ****         ? phase * slope_up
 1975              		.loc 2 200 5 is_stmt 1 view .LVU605
 201:eurorack/plaits/dsp/oscillator/variable_shape_oscillator.h ****         : 1.0f - (phase - pw) * slope_down;
 1976              		.loc 2 201 9 is_stmt 0 view .LVU606
 1977 026c 27EE8A8A 		vmulmi.f32	s16, s15, s20
 1978 0270 AAEEE68A 		vfmspl.f32	s16, s21, s13
 199:eurorack/plaits/dsp/oscillator/variable_shape_oscillator.h ****     float triangle = phase < pw
 1979              		.loc 2 199 31 view .LVU607
 1980 0274 58BF     		it	pl
ARM GAS  /var/folders/9s/8rp0_f2s1n31qbztm3b5_fdh0000gn/T//ccSTbMRq.s 			page 59


 1981 0276 F7EE006A 		vmovpl.f32	s13, #1.0e+0
 1982              	.LVL132:
 203:eurorack/plaits/dsp/oscillator/variable_shape_oscillator.h ****     saw += (triangle - saw) * triangle_amount;
 1983              		.loc 2 203 5 is_stmt 1 view .LVU608
 203:eurorack/plaits/dsp/oscillator/variable_shape_oscillator.h ****     saw += (triangle - saw) * triangle_amount;
 1984              		.loc 2 203 20 is_stmt 0 view .LVU609
 1985 027a 76EEE76A 		vsub.f32	s13, s13, s15
 203:eurorack/plaits/dsp/oscillator/variable_shape_oscillator.h ****     saw += (triangle - saw) * triangle_amount;
 1986              		.loc 2 203 9 view .LVU610
 1987 027e EDEE267A 		vfma.f32	s15, s26, s13
 1988              	.LVL133:
 204:eurorack/plaits/dsp/oscillator/variable_shape_oscillator.h ****     return saw;
 1989              		.loc 2 204 5 is_stmt 1 view .LVU611
 1990              	.LBE508:
 1991              	.LBE510:
 183:eurorack/plaits/dsp/oscillator/variable_shape_oscillator.h ****     }
 1992              		.loc 2 183 36 is_stmt 0 view .LVU612
 1993 0282 FFEE006A 		vmov.f32	s13, #-1.0e+0
 1994 0286 E9EE0B6A 		vfma.f32	s13, s18, s22
 1995              	.LBB511:
 1996              	.LBB509:
 204:eurorack/plaits/dsp/oscillator/variable_shape_oscillator.h ****     return saw;
 1997              		.loc 2 204 22 view .LVU613
 1998 028a 38EE678A 		vsub.f32	s16, s16, s15
 1999              	.LVL134:
 204:eurorack/plaits/dsp/oscillator/variable_shape_oscillator.h ****     return saw;
 2000              		.loc 2 204 9 view .LVU614
 2001 028e EEEE087A 		vfma.f32	s15, s28, s16
 2002              	.LVL135:
 2003              		.loc 2 205 5 is_stmt 1 view .LVU615
 2004              		.loc 2 205 5 is_stmt 0 view .LVU616
 2005              	.LBE509:
 2006              	.LBE511:
 183:eurorack/plaits/dsp/oscillator/variable_shape_oscillator.h ****     }
 2007              		.loc 2 183 14 view .LVU617
 2008 0292 E7EC016A 		vstmia.32	r7!, {s13}
 2009              	.LVL136:
 174:eurorack/plaits/dsp/oscillator/variable_shape_oscillator.h ****           slave_phase_,
 2010              		.loc 2 174 19 view .LVU618
 2011 0296 37EE879A 		vadd.f32	s18, s15, s14
 2012              	.LVL137:
 174:eurorack/plaits/dsp/oscillator/variable_shape_oscillator.h ****           slave_phase_,
 2013              		.loc 2 174 19 view .LVU619
 2014              	.LBE432:
  90:eurorack/plaits/dsp/oscillator/variable_shape_oscillator.h ****       bool reset = false;
 2015              		.loc 2 90 5 view .LVU620
 2016 029a FDE6     		b	.L72
 2017              	.LVL138:
 2018              	.L74:
  72:eurorack/plaits/dsp/oscillator/variable_shape_oscillator.h ****     }
 2019              		.loc 2 72 17 view .LVU621
 2020 029c F0EE670A 		vmov.f32	s1, s15
 2021              	.LVL139:
  76:eurorack/plaits/dsp/oscillator/variable_shape_oscillator.h ****     } else {
 2022              		.loc 2 76 10 view .LVU622
 2023 02a0 F6EE007A 		vmov.f32	s15, #5.0e-1
 2024 02a4 D4E6     		b	.L49
ARM GAS  /var/folders/9s/8rp0_f2s1n31qbztm3b5_fdh0000gn/T//ccSTbMRq.s 			page 60


 2025              	.LVL140:
 2026              	.L89:
 2027              	.LBB513:
  93:eurorack/plaits/dsp/oscillator/variable_shape_oscillator.h **** 
 2028              		.loc 2 93 13 view .LVU623
 2029 02a6 DFED229A 		vldr.32	s19, .L95
  92:eurorack/plaits/dsp/oscillator/variable_shape_oscillator.h ****       float reset_time = 0.0f;
 2030              		.loc 2 92 12 view .LVU624
 2031 02aa 0026     		movs	r6, #0
  96:eurorack/plaits/dsp/oscillator/variable_shape_oscillator.h ****     
 2032              		.loc 2 96 19 view .LVU625
 2033 02ac B0EE697A 		vmov.f32	s14, s19
  91:eurorack/plaits/dsp/oscillator/variable_shape_oscillator.h ****       bool transition_during_reset = false;
 2034              		.loc 2 91 12 view .LVU626
 2035 02b0 B046     		mov	r8, r6
 2036 02b2 7BE7     		b	.L54
 2037              	.LVL141:
 2038              	.L94:
 2039              	.LBB512:
 2040              	.LBB505:
 156:eurorack/plaits/dsp/oscillator/variable_shape_oscillator.h ****           float t = slave_phase_ / slave_frequency;
 2041              		.loc 2 156 24 view .LVU627
 2042 02b4 7CEEC8CA 		vsub.f32	s25, s25, s16
 161:eurorack/plaits/dsp/oscillator/variable_shape_oscillator.h ****           next_sample -= (1.0f - triangle_amount) * stmlib::NextBlepSample(t);
 2043              		.loc 2 161 32 view .LVU628
 2044 02b8 38EE4E5A 		vsub.f32	s10, s16, s28
 157:eurorack/plaits/dsp/oscillator/variable_shape_oscillator.h ****           float triangle_step = (slope_up + slope_down) * slave_frequency;
 2045              		.loc 2 157 17 view .LVU629
 2046 02bc 8CEEADFA 		vdiv.f32	s30, s25, s27
 2047              	.LVL142:
 156:eurorack/plaits/dsp/oscillator/variable_shape_oscillator.h ****           float t = slave_phase_ / slave_frequency;
 2048              		.loc 2 156 24 view .LVU630
 2049 02c0 C4ED01CA 		vstr.32	s25, [r4, #4]
 158:eurorack/plaits/dsp/oscillator/variable_shape_oscillator.h ****           triangle_step *= triangle_amount;
 2050              		.loc 2 158 43 view .LVU631
 2051 02c4 7AEE2ACA 		vadd.f32	s25, s20, s21
 158:eurorack/plaits/dsp/oscillator/variable_shape_oscillator.h ****           triangle_step *= triangle_amount;
 2052              		.loc 2 158 17 view .LVU632
 2053 02c8 6CEEADCA 		vmul.f32	s25, s25, s27
 2054              	.LVL143:
 159:eurorack/plaits/dsp/oscillator/variable_shape_oscillator.h **** 
 2055              		.loc 2 159 25 view .LVU633
 2056 02cc 6EEE2CCA 		vmul.f32	s25, s28, s25
 2057              	.LVL144:
 2058              	.LBB495:
 2059              	.LBI495:
  37:eurorack/stmlib/dsp/polyblep.h ****   return 0.5f * t * t;
 2060              		.loc 7 37 14 is_stmt 1 view .LVU634
 2061              	.LBB496:
  38:eurorack/stmlib/dsp/polyblep.h **** }
 2062              		.loc 7 38 3 view .LVU635
  38:eurorack/stmlib/dsp/polyblep.h **** }
 2063              		.loc 7 38 15 is_stmt 0 view .LVU636
 2064 02d0 6FEE2B7A 		vmul.f32	s15, s30, s23
 2065              	.LBE496:
 2066              	.LBE495:
 2067              	.LBB498:
ARM GAS  /var/folders/9s/8rp0_f2s1n31qbztm3b5_fdh0000gn/T//ccSTbMRq.s 			page 61


 2068              	.LBB499:
  42:eurorack/stmlib/dsp/polyblep.h ****   return -0.5f * t * t;
 2069              		.loc 7 42 5 view .LVU637
 2070 02d4 38EE4F0A 		vsub.f32	s0, s16, s30
 2071              	.LBE499:
 2072              	.LBE498:
 2073              	.LBB501:
 2074              	.LBB497:
  38:eurorack/stmlib/dsp/polyblep.h **** }
 2075              		.loc 7 38 21 view .LVU638
 2076 02d8 67EE8F7A 		vmul.f32	s15, s15, s30
 2077              	.LBE497:
 2078              	.LBE501:
 161:eurorack/plaits/dsp/oscillator/variable_shape_oscillator.h ****           next_sample -= (1.0f - triangle_amount) * stmlib::NextBlepSample(t);
 2079              		.loc 2 161 23 view .LVU639
 2080 02dc A5EE679A 		vfms.f32	s18, s10, s15
 2081              	.LVL145:
 2082              	.LBB502:
 2083              	.LBI498:
  41:eurorack/stmlib/dsp/polyblep.h ****   t = 1.0f - t;
 2084              		.loc 7 41 14 is_stmt 1 view .LVU640
 2085              	.LBB500:
  42:eurorack/stmlib/dsp/polyblep.h ****   return -0.5f * t * t;
 2086              		.loc 7 42 3 view .LVU641
  43:eurorack/stmlib/dsp/polyblep.h **** }
 2087              		.loc 7 43 3 view .LVU642
  43:eurorack/stmlib/dsp/polyblep.h **** }
 2088              		.loc 7 43 16 is_stmt 0 view .LVU643
 2089 02e0 FEEE007A 		vmov.f32	s15, #-5.0e-1
 2090 02e4 60EE277A 		vmul.f32	s15, s0, s15
  43:eurorack/stmlib/dsp/polyblep.h **** }
 2091              		.loc 7 43 22 view .LVU644
 2092 02e8 67EE807A 		vmul.f32	s15, s15, s0
 2093              	.LBE500:
 2094              	.LBE502:
 162:eurorack/plaits/dsp/oscillator/variable_shape_oscillator.h ****           this_sample += triangle_step * stmlib::ThisIntegratedBlepSample(t);
 2095              		.loc 2 162 23 view .LVU645
 2096 02ec A5EE677A 		vfms.f32	s14, s10, s15
 2097              	.LVL146:
 162:eurorack/plaits/dsp/oscillator/variable_shape_oscillator.h ****           this_sample += triangle_step * stmlib::ThisIntegratedBlepSample(t);
 2098              		.loc 2 162 23 view .LVU646
 2099 02f0 8DED047A 		vstr.32	s14, [sp, #16]	@ int
 2100              	.LVL147:
 2101              	.LBB503:
 2102              	.LBI503:
  53:eurorack/stmlib/dsp/polyblep.h ****   return NextIntegratedBlepSample(1.0f - t);
 2103              		.loc 7 53 14 is_stmt 1 view .LVU647
 2104              	.LBB504:
 2105              		.loc 7 54 3 view .LVU648
 2106              		.loc 7 54 34 is_stmt 0 view .LVU649
 2107 02f4 FFF7FEFF 		bl	_ZN6stmlib24NextIntegratedBlepSampleEf
 2108              	.LVL148:
 2109              		.loc 7 54 34 view .LVU650
 2110              	.LBE504:
 2111              	.LBE503:
 163:eurorack/plaits/dsp/oscillator/variable_shape_oscillator.h ****           next_sample += triangle_step * stmlib::NextIntegratedBlepSample(t);
 2112              		.loc 2 163 23 view .LVU651
ARM GAS  /var/folders/9s/8rp0_f2s1n31qbztm3b5_fdh0000gn/T//ccSTbMRq.s 			page 62


 2113 02f8 ACEE809A 		vfma.f32	s18, s25, s0
 2114              	.LVL149:
 164:eurorack/plaits/dsp/oscillator/variable_shape_oscillator.h ****           high_ = false;
 2115              		.loc 2 164 74 view .LVU652
 2116 02fc B0EE4F0A 		vmov.f32	s0, s30
 2117 0300 FFF7FEFF 		bl	_ZN6stmlib24NextIntegratedBlepSampleEf
 2118              	.LVL150:
 164:eurorack/plaits/dsp/oscillator/variable_shape_oscillator.h ****           high_ = false;
 2119              		.loc 2 164 23 view .LVU653
 2120 0304 9DED047A 		vldr.32	s14, [sp, #16]	@ int
 165:eurorack/plaits/dsp/oscillator/variable_shape_oscillator.h ****         }
 2121              		.loc 2 165 17 view .LVU654
 2122 0308 0023     		movs	r3, #0
 164:eurorack/plaits/dsp/oscillator/variable_shape_oscillator.h ****           high_ = false;
 2123              		.loc 2 164 23 view .LVU655
 2124 030a A0EE2C7A 		vfma.f32	s14, s0, s25
 2125              	.LVL151:
 165:eurorack/plaits/dsp/oscillator/variable_shape_oscillator.h ****         }
 2126              		.loc 2 165 17 view .LVU656
 2127 030e 2374     		strb	r3, [r4, #16]
 2128              	.LBE505:
 2129 0310 50E7     		b	.L67
 2130              	.LVL152:
 2131              	.L51:
 165:eurorack/plaits/dsp/oscillator/variable_shape_oscillator.h ****         }
 2132              		.loc 2 165 17 view .LVU657
 2133              	.LBE512:
 2134              	.LBE513:
 186:eurorack/plaits/dsp/oscillator/variable_shape_oscillator.h ****   }
 2135              		.loc 2 186 18 view .LVU658
 2136 0312 84ED029A 		vstr.32	s18, [r4, #8]
 2137              	.LVL153:
 2138              	.LBB514:
 2139              	.LBI514:
  49:eurorack/stmlib/dsp/parameter_interpolator.h ****     *state_ = value_;
 2140              		.loc 8 49 3 is_stmt 1 view .LVU659
 2141              	.LBB515:
  50:eurorack/stmlib/dsp/parameter_interpolator.h ****   }
 2142              		.loc 8 50 5 view .LVU660
  50:eurorack/stmlib/dsp/parameter_interpolator.h ****   }
 2143              		.loc 8 50 13 is_stmt 0 view .LVU661
 2144 0316 C4ED08FA 		vstr.32	s31, [r4, #32]
 2145              	.LVL154:
  50:eurorack/stmlib/dsp/parameter_interpolator.h ****   }
 2146              		.loc 8 50 13 view .LVU662
 2147              	.LBE515:
 2148              	.LBE514:
 2149              	.LBB516:
 2150              	.LBI516:
  49:eurorack/stmlib/dsp/parameter_interpolator.h ****     *state_ = value_;
 2151              		.loc 8 49 3 is_stmt 1 view .LVU663
 2152              	.LBB517:
  50:eurorack/stmlib/dsp/parameter_interpolator.h ****   }
 2153              		.loc 8 50 5 view .LVU664
  50:eurorack/stmlib/dsp/parameter_interpolator.h ****   }
 2154              		.loc 8 50 13 is_stmt 0 view .LVU665
 2155 031a C4ED078A 		vstr.32	s17, [r4, #28]
ARM GAS  /var/folders/9s/8rp0_f2s1n31qbztm3b5_fdh0000gn/T//ccSTbMRq.s 			page 63


 2156              	.LVL155:
  50:eurorack/stmlib/dsp/parameter_interpolator.h ****   }
 2157              		.loc 8 50 13 view .LVU666
 2158              	.LBE517:
 2159              	.LBE516:
 2160              	.LBB518:
 2161              	.LBI518:
  49:eurorack/stmlib/dsp/parameter_interpolator.h ****     *state_ = value_;
 2162              		.loc 8 49 3 is_stmt 1 view .LVU667
 2163              	.LBB519:
  50:eurorack/stmlib/dsp/parameter_interpolator.h ****   }
 2164              		.loc 8 50 5 view .LVU668
  50:eurorack/stmlib/dsp/parameter_interpolator.h ****   }
 2165              		.loc 8 50 13 is_stmt 0 view .LVU669
 2166 031e C4ED06DA 		vstr.32	s27, [r4, #24]
 2167              	.LVL156:
  50:eurorack/stmlib/dsp/parameter_interpolator.h ****   }
 2168              		.loc 8 50 13 view .LVU670
 2169              	.LBE519:
 2170              	.LBE518:
 2171              	.LBB520:
 2172              	.LBI520:
  49:eurorack/stmlib/dsp/parameter_interpolator.h ****     *state_ = value_;
 2173              		.loc 8 49 3 is_stmt 1 view .LVU671
 2174              	.LBB521:
  50:eurorack/stmlib/dsp/parameter_interpolator.h ****   }
 2175              		.loc 8 50 5 view .LVU672
  50:eurorack/stmlib/dsp/parameter_interpolator.h ****   }
 2176              		.loc 8 50 13 is_stmt 0 view .LVU673
 2177 0322 C4ED05EA 		vstr.32	s29, [r4, #20]
 2178              	.LVL157:
  50:eurorack/stmlib/dsp/parameter_interpolator.h ****   }
 2179              		.loc 8 50 13 view .LVU674
 2180              	.LBE521:
 2181              	.LBE520:
 187:eurorack/plaits/dsp/oscillator/variable_shape_oscillator.h **** 
 2182              		.loc 2 187 3 view .LVU675
 2183 0326 06B0     		add	sp, sp, #24
 2184              		.cfi_def_cfa_offset 88
 2185              		@ sp needed
 2186 0328 BDEC108B 		vldm	sp!, {d8-d15}
 2187              		.cfi_restore 94
 2188              		.cfi_restore 95
 2189              		.cfi_restore 92
 2190              		.cfi_restore 93
 2191              		.cfi_restore 90
 2192              		.cfi_restore 91
 2193              		.cfi_restore 88
 2194              		.cfi_restore 89
 2195              		.cfi_restore 86
 2196              		.cfi_restore 87
 2197              		.cfi_restore 84
 2198              		.cfi_restore 85
 2199              		.cfi_restore 82
 2200              		.cfi_restore 83
 2201              		.cfi_restore 80
 2202              		.cfi_restore 81
ARM GAS  /var/folders/9s/8rp0_f2s1n31qbztm3b5_fdh0000gn/T//ccSTbMRq.s 			page 64


 2203              		.cfi_def_cfa_offset 24
 2204              	.LVL158:
 187:eurorack/plaits/dsp/oscillator/variable_shape_oscillator.h **** 
 2205              		.loc 2 187 3 view .LVU676
 2206 032c BDE8F081 		pop	{r4, r5, r6, r7, r8, pc}
 2207              	.LVL159:
 2208              	.L96:
 187:eurorack/plaits/dsp/oscillator/variable_shape_oscillator.h **** 
 2209              		.loc 2 187 3 view .LVU677
 2210              		.align	2
 2211              	.L95:
 2212 0330 00000000 		.word	0
 2213              		.cfi_endproc
 2214              	.LFE1503:
 2216              		.section	.text._ZN6plaits19VirtualAnalogEngine6RenderERKNS_16EngineParametersEPfS4_jPb,"ax",%progb
 2217              		.align	1
 2218              		.global	_ZN6plaits19VirtualAnalogEngine6RenderERKNS_16EngineParametersEPfS4_jPb
 2219              		.syntax unified
 2220              		.thumb
 2221              		.thumb_func
 2223              	_ZN6plaits19VirtualAnalogEngine6RenderERKNS_16EngineParametersEPfS4_jPb:
 2224              	.LVL160:
 2225              	.LFB1499:
  76:eurorack/plaits/dsp/engine/virtual_analog_engine.cc **** 
  77:eurorack/plaits/dsp/engine/virtual_analog_engine.cc **** void VirtualAnalogEngine::Render(
  78:eurorack/plaits/dsp/engine/virtual_analog_engine.cc ****     const EngineParameters& parameters,
  79:eurorack/plaits/dsp/engine/virtual_analog_engine.cc ****     float* out,
  80:eurorack/plaits/dsp/engine/virtual_analog_engine.cc ****     float* aux,
  81:eurorack/plaits/dsp/engine/virtual_analog_engine.cc ****     size_t size,
  82:eurorack/plaits/dsp/engine/virtual_analog_engine.cc ****     bool* already_enveloped) {
 2226              		.loc 1 82 30 is_stmt 1 view -0
 2227              		.cfi_startproc
 2228              		@ args = 8, pretend = 0, frame = 8
 2229              		@ frame_needed = 0, uses_anonymous_args = 0
 2230              		.loc 1 82 30 is_stmt 0 view .LVU679
 2231 0000 2DE9F041 		push	{r4, r5, r6, r7, r8, lr}
 2232              		.cfi_def_cfa_offset 24
 2233              		.cfi_offset 4, -24
 2234              		.cfi_offset 5, -20
 2235              		.cfi_offset 6, -16
 2236              		.cfi_offset 7, -12
 2237              		.cfi_offset 8, -8
 2238              		.cfi_offset 14, -4
  83:eurorack/plaits/dsp/engine/virtual_analog_engine.cc **** 
  84:eurorack/plaits/dsp/engine/virtual_analog_engine.cc **** #if VA_VARIANT == 0
  85:eurorack/plaits/dsp/engine/virtual_analog_engine.cc ****   
  86:eurorack/plaits/dsp/engine/virtual_analog_engine.cc ****   // 1 = variable waveshape controlled by TIMBRE.
  87:eurorack/plaits/dsp/engine/virtual_analog_engine.cc ****   // 2 = variable waveshape controlled by MORPH, detuned by HARMONICS.
  88:eurorack/plaits/dsp/engine/virtual_analog_engine.cc ****   // OUT = 1 + 2.
  89:eurorack/plaits/dsp/engine/virtual_analog_engine.cc ****   // AUX = 1 + sync 2.
  90:eurorack/plaits/dsp/engine/virtual_analog_engine.cc ****   const float auxiliary_detune = ComputeDetuning(parameters.harmonics);
  91:eurorack/plaits/dsp/engine/virtual_analog_engine.cc ****   const float primary_f = NoteToFrequency(parameters.note);
  92:eurorack/plaits/dsp/engine/virtual_analog_engine.cc ****   const float auxiliary_f = NoteToFrequency(parameters.note + auxiliary_detune);
  93:eurorack/plaits/dsp/engine/virtual_analog_engine.cc ****   const float sync_f = NoteToFrequency(
  94:eurorack/plaits/dsp/engine/virtual_analog_engine.cc ****       parameters.note + parameters.harmonics * 48.0f);
  95:eurorack/plaits/dsp/engine/virtual_analog_engine.cc **** 
  96:eurorack/plaits/dsp/engine/virtual_analog_engine.cc ****   float shape_1 = parameters.timbre * 1.5f;
ARM GAS  /var/folders/9s/8rp0_f2s1n31qbztm3b5_fdh0000gn/T//ccSTbMRq.s 			page 65


  97:eurorack/plaits/dsp/engine/virtual_analog_engine.cc ****   CONSTRAIN(shape_1, 0.0f, 1.0f);
  98:eurorack/plaits/dsp/engine/virtual_analog_engine.cc **** 
  99:eurorack/plaits/dsp/engine/virtual_analog_engine.cc ****   float pw_1 = 0.5f + (parameters.timbre - 0.66f) * 1.4f;
 100:eurorack/plaits/dsp/engine/virtual_analog_engine.cc ****   CONSTRAIN(pw_1, 0.5f, 0.99f);
 101:eurorack/plaits/dsp/engine/virtual_analog_engine.cc **** 
 102:eurorack/plaits/dsp/engine/virtual_analog_engine.cc ****   float shape_2 = parameters.morph * 1.5f;
 103:eurorack/plaits/dsp/engine/virtual_analog_engine.cc ****   CONSTRAIN(shape_2, 0.0f, 1.0f);
 104:eurorack/plaits/dsp/engine/virtual_analog_engine.cc **** 
 105:eurorack/plaits/dsp/engine/virtual_analog_engine.cc ****   float pw_2 = 0.5f + (parameters.morph - 0.66f) * 1.4f;
 106:eurorack/plaits/dsp/engine/virtual_analog_engine.cc ****   CONSTRAIN(pw_2, 0.5f, 0.99f);
 107:eurorack/plaits/dsp/engine/virtual_analog_engine.cc ****   
 108:eurorack/plaits/dsp/engine/virtual_analog_engine.cc ****   primary_.Render<false>(
 109:eurorack/plaits/dsp/engine/virtual_analog_engine.cc ****       primary_f, primary_f, pw_1, shape_1, temp_buffer_, size);
 110:eurorack/plaits/dsp/engine/virtual_analog_engine.cc ****   auxiliary_.Render<false>(auxiliary_f, auxiliary_f, pw_2, shape_2, aux, size);
 111:eurorack/plaits/dsp/engine/virtual_analog_engine.cc ****   for (size_t i = 0; i < size; ++i) {
 112:eurorack/plaits/dsp/engine/virtual_analog_engine.cc ****     out[i] = (aux[i] + temp_buffer_[i]) * 0.5f;
 113:eurorack/plaits/dsp/engine/virtual_analog_engine.cc ****   }
 114:eurorack/plaits/dsp/engine/virtual_analog_engine.cc ****   
 115:eurorack/plaits/dsp/engine/virtual_analog_engine.cc ****   sync_.Render<true>(primary_f, sync_f, pw_2, shape_2, aux, size);
 116:eurorack/plaits/dsp/engine/virtual_analog_engine.cc ****   for (size_t i = 0; i < size; ++i) {
 117:eurorack/plaits/dsp/engine/virtual_analog_engine.cc ****     aux[i] = (aux[i] + temp_buffer_[i]) * 0.5f;
 118:eurorack/plaits/dsp/engine/virtual_analog_engine.cc ****   }
 119:eurorack/plaits/dsp/engine/virtual_analog_engine.cc **** 
 120:eurorack/plaits/dsp/engine/virtual_analog_engine.cc **** #elif VA_VARIANT == 1
 121:eurorack/plaits/dsp/engine/virtual_analog_engine.cc ****   
 122:eurorack/plaits/dsp/engine/virtual_analog_engine.cc ****   // 1 = variable waveshape controlled by MORPH.
 123:eurorack/plaits/dsp/engine/virtual_analog_engine.cc ****   // 2 = variable waveshape controlled by MORPH.
 124:eurorack/plaits/dsp/engine/virtual_analog_engine.cc ****   // OUT = crossfade between 1 + 2, 1, 1 sync 2 controlled by TIMBRE.
 125:eurorack/plaits/dsp/engine/virtual_analog_engine.cc ****   // AUX = 2.
 126:eurorack/plaits/dsp/engine/virtual_analog_engine.cc ****   
 127:eurorack/plaits/dsp/engine/virtual_analog_engine.cc ****   float auxiliary_amount = max(0.5f - parameters.timbre, 0.0f) * 2.0f;
 128:eurorack/plaits/dsp/engine/virtual_analog_engine.cc ****   auxiliary_amount *= auxiliary_amount * 0.5f;
 129:eurorack/plaits/dsp/engine/virtual_analog_engine.cc **** 
 130:eurorack/plaits/dsp/engine/virtual_analog_engine.cc ****   const float xmod_amount = max(parameters.timbre - 0.5f, 0.0f) * 2.0f;
 131:eurorack/plaits/dsp/engine/virtual_analog_engine.cc ****   const float squashed_xmod_amount = xmod_amount * (2.0f - xmod_amount);
 132:eurorack/plaits/dsp/engine/virtual_analog_engine.cc **** 
 133:eurorack/plaits/dsp/engine/virtual_analog_engine.cc ****   const float auxiliary_detune = ComputeDetuning(parameters.harmonics);
 134:eurorack/plaits/dsp/engine/virtual_analog_engine.cc ****   const float primary_f = NoteToFrequency(parameters.note);
 135:eurorack/plaits/dsp/engine/virtual_analog_engine.cc ****   const float auxiliary_f = NoteToFrequency(parameters.note + auxiliary_detune);
 136:eurorack/plaits/dsp/engine/virtual_analog_engine.cc ****   const float sync_f = primary_f * SemitonesToRatio(
 137:eurorack/plaits/dsp/engine/virtual_analog_engine.cc ****       xmod_amount * (auxiliary_detune + 36.0f));
 138:eurorack/plaits/dsp/engine/virtual_analog_engine.cc **** 
 139:eurorack/plaits/dsp/engine/virtual_analog_engine.cc ****   float shape = parameters.morph * 1.5f;
 140:eurorack/plaits/dsp/engine/virtual_analog_engine.cc ****   CONSTRAIN(shape, 0.0f, 1.0f);
 141:eurorack/plaits/dsp/engine/virtual_analog_engine.cc **** 
 142:eurorack/plaits/dsp/engine/virtual_analog_engine.cc ****   float pw = 0.5f + (parameters.morph - 0.66f) * 1.4f;
 143:eurorack/plaits/dsp/engine/virtual_analog_engine.cc ****   CONSTRAIN(pw, 0.5f, 0.99f);
 144:eurorack/plaits/dsp/engine/virtual_analog_engine.cc **** 
 145:eurorack/plaits/dsp/engine/virtual_analog_engine.cc ****   primary_.Render<false>(primary_f, primary_f, pw, shape, out, size);
 146:eurorack/plaits/dsp/engine/virtual_analog_engine.cc ****   sync_.Render<true>(primary_f, sync_f, pw, shape, aux, size);
 147:eurorack/plaits/dsp/engine/virtual_analog_engine.cc **** 
 148:eurorack/plaits/dsp/engine/virtual_analog_engine.cc ****   ParameterInterpolator xmod_amount_modulation(
 149:eurorack/plaits/dsp/engine/virtual_analog_engine.cc ****       &xmod_amount_,
 150:eurorack/plaits/dsp/engine/virtual_analog_engine.cc ****       squashed_xmod_amount * (2.0f - squashed_xmod_amount),
 151:eurorack/plaits/dsp/engine/virtual_analog_engine.cc ****       size);
 152:eurorack/plaits/dsp/engine/virtual_analog_engine.cc ****   for (size_t i = 0; i < size; ++i) {
 153:eurorack/plaits/dsp/engine/virtual_analog_engine.cc ****     out[i] += (aux[i] - out[i]) * xmod_amount_modulation.Next();
ARM GAS  /var/folders/9s/8rp0_f2s1n31qbztm3b5_fdh0000gn/T//ccSTbMRq.s 			page 66


 154:eurorack/plaits/dsp/engine/virtual_analog_engine.cc ****   }
 155:eurorack/plaits/dsp/engine/virtual_analog_engine.cc **** 
 156:eurorack/plaits/dsp/engine/virtual_analog_engine.cc ****   auxiliary_.Render<false>(auxiliary_f, auxiliary_f, pw, shape, aux, size);
 157:eurorack/plaits/dsp/engine/virtual_analog_engine.cc **** 
 158:eurorack/plaits/dsp/engine/virtual_analog_engine.cc ****   ParameterInterpolator auxiliary_amount_modulation(
 159:eurorack/plaits/dsp/engine/virtual_analog_engine.cc ****       &auxiliary_amount_,
 160:eurorack/plaits/dsp/engine/virtual_analog_engine.cc ****       auxiliary_amount,
 161:eurorack/plaits/dsp/engine/virtual_analog_engine.cc ****       size);
 162:eurorack/plaits/dsp/engine/virtual_analog_engine.cc ****   for (size_t i = 0; i < size; ++i) {
 163:eurorack/plaits/dsp/engine/virtual_analog_engine.cc ****     out[i] += (aux[i] - out[i]) * auxiliary_amount_modulation.Next();
 164:eurorack/plaits/dsp/engine/virtual_analog_engine.cc ****   }
 165:eurorack/plaits/dsp/engine/virtual_analog_engine.cc ****   
 166:eurorack/plaits/dsp/engine/virtual_analog_engine.cc **** #elif VA_VARIANT == 2
 167:eurorack/plaits/dsp/engine/virtual_analog_engine.cc **** 
 168:eurorack/plaits/dsp/engine/virtual_analog_engine.cc ****   // 1 = variable square controlled by TIMBRE.
 169:eurorack/plaits/dsp/engine/virtual_analog_engine.cc ****   // 2 = variable saw controlled by MORPH.
 170:eurorack/plaits/dsp/engine/virtual_analog_engine.cc ****   // OUT = 1 + 2.
 171:eurorack/plaits/dsp/engine/virtual_analog_engine.cc ****   // AUX = dual variable waveshape controlled by MORPH, self sync by TIMBRE.
 172:eurorack/plaits/dsp/engine/virtual_analog_engine.cc ****   
 173:eurorack/plaits/dsp/engine/virtual_analog_engine.cc ****   const float sync_amount = parameters.timbre * parameters.timbre;
 174:eurorack/plaits/dsp/engine/virtual_analog_engine.cc ****   const float auxiliary_detune = ComputeDetuning(parameters.harmonics);
 2239              		.loc 1 174 49 view .LVU680
 2240 0004 91ED040A 		vldr.32	s0, [r1, #16]
  82:eurorack/plaits/dsp/engine/virtual_analog_engine.cc **** 
 2241              		.loc 1 82 30 view .LVU681
 2242 0008 0F46     		mov	r7, r1
 2243 000a 9046     		mov	r8, r2
 2244 000c 1D46     		mov	r5, r3
 2245 000e 0646     		mov	r6, r0
 2246 0010 2DED0A8B 		vpush.64	{d8, d9, d10, d11, d12}
 2247              		.cfi_def_cfa_offset 64
 2248              		.cfi_offset 80, -64
 2249              		.cfi_offset 81, -60
 2250              		.cfi_offset 82, -56
 2251              		.cfi_offset 83, -52
 2252              		.cfi_offset 84, -48
 2253              		.cfi_offset 85, -44
 2254              		.cfi_offset 86, -40
 2255              		.cfi_offset 87, -36
 2256              		.cfi_offset 88, -32
 2257              		.cfi_offset 89, -28
 2258 0014 82B0     		sub	sp, sp, #8
 2259              		.cfi_def_cfa_offset 72
 173:eurorack/plaits/dsp/engine/virtual_analog_engine.cc ****   const float auxiliary_detune = ComputeDetuning(parameters.harmonics);
 2260              		.loc 1 173 3 is_stmt 1 view .LVU682
 173:eurorack/plaits/dsp/engine/virtual_analog_engine.cc ****   const float auxiliary_detune = ComputeDetuning(parameters.harmonics);
 2261              		.loc 1 173 40 is_stmt 0 view .LVU683
 2262 0016 D1ED028A 		vldr.32	s17, [r1, #8]
 2263              		.loc 1 174 49 view .LVU684
 2264 001a FFF7FEFF 		bl	_ZNK6plaits19VirtualAnalogEngine15ComputeDetuningEf
 2265              	.LVL161:
 2266              		.loc 1 174 49 view .LVU685
 2267 001e B0EE408A 		vmov.f32	s16, s0
 175:eurorack/plaits/dsp/engine/virtual_analog_engine.cc ****   const float primary_f = NoteToFrequency(parameters.note);
 2268              		.loc 1 175 54 view .LVU686
 2269 0022 97ED019A 		vldr.32	s18, [r7, #4]
 173:eurorack/plaits/dsp/engine/virtual_analog_engine.cc ****   const float auxiliary_detune = ComputeDetuning(parameters.harmonics);
ARM GAS  /var/folders/9s/8rp0_f2s1n31qbztm3b5_fdh0000gn/T//ccSTbMRq.s 			page 67


 2270              		.loc 1 173 15 view .LVU687
 2271 0026 68EEA88A 		vmul.f32	s17, s17, s17
 2272              	.LVL162:
 174:eurorack/plaits/dsp/engine/virtual_analog_engine.cc ****   const float primary_f = NoteToFrequency(parameters.note);
 2273              		.loc 1 174 3 is_stmt 1 view .LVU688
 2274              		.loc 1 175 3 view .LVU689
 176:eurorack/plaits/dsp/engine/virtual_analog_engine.cc ****   const float auxiliary_f = NoteToFrequency(parameters.note + auxiliary_detune);
 177:eurorack/plaits/dsp/engine/virtual_analog_engine.cc ****   const float primary_sync_f = NoteToFrequency(
 2275              		.loc 1 177 47 is_stmt 0 view .LVU690
 2276 002a DFEDBA9A 		vldr.32	s19, .L139
 176:eurorack/plaits/dsp/engine/virtual_analog_engine.cc ****   const float auxiliary_f = NoteToFrequency(parameters.note + auxiliary_detune);
 2277              		.loc 1 176 44 view .LVU691
 2278 002e 39EE088A 		vadd.f32	s16, s18, s16
  82:eurorack/plaits/dsp/engine/virtual_analog_engine.cc **** 
 2279              		.loc 1 82 30 view .LVU692
 2280 0032 129C     		ldr	r4, [sp, #72]
 175:eurorack/plaits/dsp/engine/virtual_analog_engine.cc ****   const float auxiliary_f = NoteToFrequency(parameters.note + auxiliary_detune);
 2281              		.loc 1 175 42 view .LVU693
 2282 0034 B0EE490A 		vmov.f32	s0, s18
 2283              	.LVL163:
 175:eurorack/plaits/dsp/engine/virtual_analog_engine.cc ****   const float auxiliary_f = NoteToFrequency(parameters.note + auxiliary_detune);
 2284              		.loc 1 175 42 view .LVU694
 2285 0038 FFF7FEFF 		bl	_ZN6plaits15NoteToFrequencyEf
 2286              	.LVL164:
 175:eurorack/plaits/dsp/engine/virtual_analog_engine.cc ****   const float auxiliary_f = NoteToFrequency(parameters.note + auxiliary_detune);
 2287              		.loc 1 175 42 view .LVU695
 2288 003c B0EE40BA 		vmov.f32	s22, s0
 2289              	.LVL165:
 176:eurorack/plaits/dsp/engine/virtual_analog_engine.cc ****   const float auxiliary_f = NoteToFrequency(parameters.note + auxiliary_detune);
 2290              		.loc 1 176 3 is_stmt 1 view .LVU696
 176:eurorack/plaits/dsp/engine/virtual_analog_engine.cc ****   const float auxiliary_f = NoteToFrequency(parameters.note + auxiliary_detune);
 2291              		.loc 1 176 44 is_stmt 0 view .LVU697
 2292 0040 B0EE480A 		vmov.f32	s0, s16
 2293              	.LVL166:
 176:eurorack/plaits/dsp/engine/virtual_analog_engine.cc ****   const float auxiliary_f = NoteToFrequency(parameters.note + auxiliary_detune);
 2294              		.loc 1 176 44 view .LVU698
 2295 0044 FFF7FEFF 		bl	_ZN6plaits15NoteToFrequencyEf
 2296              	.LVL167:
 2297 0048 F0EE40AA 		vmov.f32	s21, s0
 2298              	.LVL168:
 2299              		.loc 1 177 3 is_stmt 1 view .LVU699
 2300              		.loc 1 177 47 is_stmt 0 view .LVU700
 2301 004c B0EE490A 		vmov.f32	s0, s18
 2302              	.LVL169:
 2303              		.loc 1 177 47 view .LVU701
 2304 0050 A8EEA90A 		vfma.f32	s0, s17, s19
 2305 0054 FFF7FEFF 		bl	_ZN6plaits15NoteToFrequencyEf
 2306              	.LVL170:
 2307 0058 8DED010A 		vstr.32	s0, [sp, #4]	@ int
 2308              	.LVL171:
 178:eurorack/plaits/dsp/engine/virtual_analog_engine.cc ****       parameters.note + sync_amount * 48.0f);
 179:eurorack/plaits/dsp/engine/virtual_analog_engine.cc ****   const float auxiliary_sync_f = NoteToFrequency(
 2309              		.loc 1 179 3 is_stmt 1 view .LVU702
 2310              		.loc 1 179 49 is_stmt 0 view .LVU703
 2311 005c B0EE480A 		vmov.f32	s0, s16
 2312 0060 A8EEA90A 		vfma.f32	s0, s17, s19
 180:eurorack/plaits/dsp/engine/virtual_analog_engine.cc ****       parameters.note + auxiliary_detune + sync_amount * 48.0f);
ARM GAS  /var/folders/9s/8rp0_f2s1n31qbztm3b5_fdh0000gn/T//ccSTbMRq.s 			page 68


 181:eurorack/plaits/dsp/engine/virtual_analog_engine.cc **** 
 182:eurorack/plaits/dsp/engine/virtual_analog_engine.cc ****   float shape = parameters.morph * 1.5f;
 2313              		.loc 1 182 9 view .LVU704
 2314 0064 F7EE088A 		vmov.f32	s17, #1.5e+0
 2315              	.LVL172:
 179:eurorack/plaits/dsp/engine/virtual_analog_engine.cc ****       parameters.note + auxiliary_detune + sync_amount * 48.0f);
 2316              		.loc 1 179 49 view .LVU705
 2317 0068 FFF7FEFF 		bl	_ZN6plaits15NoteToFrequencyEf
 2318              	.LVL173:
 2319              		.loc 1 182 28 view .LVU706
 2320 006c D7ED037A 		vldr.32	s15, [r7, #12]
 179:eurorack/plaits/dsp/engine/virtual_analog_engine.cc ****       parameters.note + auxiliary_detune + sync_amount * 48.0f);
 2321              		.loc 1 179 49 view .LVU707
 2322 0070 B0EE408A 		vmov.f32	s16, s0
 2323              	.LVL174:
 2324              		.loc 1 182 3 is_stmt 1 view .LVU708
 183:eurorack/plaits/dsp/engine/virtual_analog_engine.cc ****   CONSTRAIN(shape, 0.0f, 1.0f);
 2325              		.loc 1 183 3 is_stmt 0 view .LVU709
