ARM GAS  /var/folders/9s/8rp0_f2s1n31qbztm3b5_fdh0000gn/T//ccY1wZnf.s 			page 1


   1              		.cpu cortex-m7
   2              		.arch armv7e-m
   3              		.fpu fpv5-d16
   4              		.eabi_attribute 28, 1
   5              		.eabi_attribute 20, 1
   6              		.eabi_attribute 21, 1
   7              		.eabi_attribute 23, 3
   8              		.eabi_attribute 24, 1
   9              		.eabi_attribute 25, 1
  10              		.eabi_attribute 26, 1
  11              		.eabi_attribute 30, 4
  12              		.eabi_attribute 34, 1
  13              		.eabi_attribute 18, 4
  14              		.file	"voice.cc"
  15              		.text
  16              	.Ltext0:
  17              		.cfi_sections	.debug_frame
  18              		.section	.text._ZN6stmlib16SemitonesToRatioEf,"axG",%progbits,_ZN6stmlib16SemitonesToRatioEf,comda
  19              		.align	1
  20              		.weak	_ZN6stmlib16SemitonesToRatioEf
  21              		.syntax unified
  22              		.thumb
  23              		.thumb_func
  25              	_ZN6stmlib16SemitonesToRatioEf:
  26              	.LVL0:
  27              	.LFB1515:
  28              		.file 1 "eurorack/stmlib/dsp/units.h"
   1:eurorack/stmlib/dsp/units.h **** // Copyright 2014 Emilie Gillet.
   2:eurorack/stmlib/dsp/units.h **** //
   3:eurorack/stmlib/dsp/units.h **** // Author: Emilie Gillet (emilie.o.gillet@gmail.com)
   4:eurorack/stmlib/dsp/units.h **** //
   5:eurorack/stmlib/dsp/units.h **** // Permission is hereby granted, free of charge, to any person obtaining a copy
   6:eurorack/stmlib/dsp/units.h **** // of this software and associated documentation files (the "Software"), to deal
   7:eurorack/stmlib/dsp/units.h **** // in the Software without restriction, including without limitation the rights
   8:eurorack/stmlib/dsp/units.h **** // to use, copy, modify, merge, publish, distribute, sublicense, and/or sell
   9:eurorack/stmlib/dsp/units.h **** // copies of the Software, and to permit persons to whom the Software is
  10:eurorack/stmlib/dsp/units.h **** // furnished to do so, subject to the following conditions:
  11:eurorack/stmlib/dsp/units.h **** // 
  12:eurorack/stmlib/dsp/units.h **** // The above copyright notice and this permission notice shall be included in
  13:eurorack/stmlib/dsp/units.h **** // all copies or substantial portions of the Software.
  14:eurorack/stmlib/dsp/units.h **** // 
  15:eurorack/stmlib/dsp/units.h **** // THE SOFTWARE IS PROVIDED "AS IS", WITHOUT WARRANTY OF ANY KIND, EXPRESS OR
  16:eurorack/stmlib/dsp/units.h **** // IMPLIED, INCLUDING BUT NOT LIMITED TO THE WARRANTIES OF MERCHANTABILITY,
  17:eurorack/stmlib/dsp/units.h **** // FITNESS FOR A PARTICULAR PURPOSE AND NONINFRINGEMENT. IN NO EVENT SHALL THE
  18:eurorack/stmlib/dsp/units.h **** // AUTHORS OR COPYRIGHT HOLDERS BE LIABLE FOR ANY CLAIM, DAMAGES OR OTHER
  19:eurorack/stmlib/dsp/units.h **** // LIABILITY, WHETHER IN AN ACTION OF CONTRACT, TORT OR OTHERWISE, ARISING FROM,
  20:eurorack/stmlib/dsp/units.h **** // OUT OF OR IN CONNECTION WITH THE SOFTWARE OR THE USE OR OTHER DEALINGS IN
  21:eurorack/stmlib/dsp/units.h **** // THE SOFTWARE.
  22:eurorack/stmlib/dsp/units.h **** // 
  23:eurorack/stmlib/dsp/units.h **** // See http://creativecommons.org/licenses/MIT/ for more information.
  24:eurorack/stmlib/dsp/units.h **** //
  25:eurorack/stmlib/dsp/units.h **** // -----------------------------------------------------------------------------
  26:eurorack/stmlib/dsp/units.h **** //
  27:eurorack/stmlib/dsp/units.h **** // Conversion from semitones to frequency ratio.
  28:eurorack/stmlib/dsp/units.h **** 
  29:eurorack/stmlib/dsp/units.h **** #ifndef STMLIB_DSP_UNITS_H_
  30:eurorack/stmlib/dsp/units.h **** #define STMLIB_DSP_UNITS_H_
ARM GAS  /var/folders/9s/8rp0_f2s1n31qbztm3b5_fdh0000gn/T//ccY1wZnf.s 			page 2


  31:eurorack/stmlib/dsp/units.h **** 
  32:eurorack/stmlib/dsp/units.h **** #include "stmlib/stmlib.h"
  33:eurorack/stmlib/dsp/units.h **** #include "stmlib/dsp/dsp.h"
  34:eurorack/stmlib/dsp/units.h **** 
  35:eurorack/stmlib/dsp/units.h **** namespace stmlib {
  36:eurorack/stmlib/dsp/units.h **** 
  37:eurorack/stmlib/dsp/units.h **** extern const float lut_pitch_ratio_high[257];
  38:eurorack/stmlib/dsp/units.h **** extern const float lut_pitch_ratio_low[257];
  39:eurorack/stmlib/dsp/units.h **** 
  40:eurorack/stmlib/dsp/units.h **** inline float SemitonesToRatio(float semitones) {
  29              		.loc 1 40 48 view -0
  30              		.cfi_startproc
  31              		@ args = 0, pretend = 0, frame = 0
  32              		@ frame_needed = 0, uses_anonymous_args = 0
  33              		@ link register save eliminated.
  41:eurorack/stmlib/dsp/units.h ****   float pitch = semitones + 128.0f;
  34              		.loc 1 41 3 view .LVU1
  35              		.loc 1 41 9 is_stmt 0 view .LVU2
  36 0000 DFED0E7A 		vldr.32	s15, .L2
  42:eurorack/stmlib/dsp/units.h ****   MAKE_INTEGRAL_FRACTIONAL(pitch)
  43:eurorack/stmlib/dsp/units.h **** 
  44:eurorack/stmlib/dsp/units.h ****   return lut_pitch_ratio_high[pitch_integral] * \
  45:eurorack/stmlib/dsp/units.h ****       lut_pitch_ratio_low[static_cast<int32_t>(pitch_fractional * 256.0f)];
  37              		.loc 1 45 74 view .LVU3
  38 0004 0E4A     		ldr	r2, .L2+4
  41:eurorack/stmlib/dsp/units.h ****   float pitch = semitones + 128.0f;
  39              		.loc 1 41 9 view .LVU4
  40 0006 30EE270A 		vadd.f32	s0, s0, s15
  41              	.LVL1:
  42:eurorack/stmlib/dsp/units.h ****   MAKE_INTEGRAL_FRACTIONAL(pitch)
  42              		.loc 1 42 3 is_stmt 1 view .LVU5
  43 000a FDEEC07A 		vcvt.s32.f32	s15, s0
  44              	.LVL2:
  42:eurorack/stmlib/dsp/units.h ****   MAKE_INTEGRAL_FRACTIONAL(pitch)
  45              		.loc 1 42 3 view .LVU6
  44:eurorack/stmlib/dsp/units.h ****       lut_pitch_ratio_low[static_cast<int32_t>(pitch_fractional * 256.0f)];
  46              		.loc 1 44 3 view .LVU7
  42:eurorack/stmlib/dsp/units.h ****   MAKE_INTEGRAL_FRACTIONAL(pitch)
  47              		.loc 1 42 3 is_stmt 0 view .LVU8
  48 000e B8EEE77A 		vcvt.f32.s32	s14, s15
  44:eurorack/stmlib/dsp/units.h ****       lut_pitch_ratio_low[static_cast<int32_t>(pitch_fractional * 256.0f)];
  49              		.loc 1 44 45 view .LVU9
  50 0012 17EE901A 		vmov	r1, s15	@ int
  42:eurorack/stmlib/dsp/units.h ****   MAKE_INTEGRAL_FRACTIONAL(pitch)
  51              		.loc 1 42 3 view .LVU10
  52 0016 30EE470A 		vsub.f32	s0, s0, s14
  53              	.LVL3:
  54              		.loc 1 45 27 view .LVU11
  55 001a BEEECC0A 		vcvt.s32.f32	s0, s0, #8
  56              	.LVL4:
  57              		.loc 1 45 74 view .LVU12
  58 001e 10EE103A 		vmov	r3, s0	@ int
  59 0022 02EB8302 		add	r2, r2, r3, lsl #2
  44:eurorack/stmlib/dsp/units.h ****       lut_pitch_ratio_low[static_cast<int32_t>(pitch_fractional * 256.0f)];
  60              		.loc 1 44 45 view .LVU13
  61 0026 074B     		ldr	r3, .L2+8
  62 0028 03EB8103 		add	r3, r3, r1, lsl #2
ARM GAS  /var/folders/9s/8rp0_f2s1n31qbztm3b5_fdh0000gn/T//ccY1wZnf.s 			page 3


  63              		.loc 1 45 74 view .LVU14
  64 002c 92ED000A 		vldr.32	s0, [r2]
  65 0030 D3ED007A 		vldr.32	s15, [r3]
  66              	.LVL5:
  46:eurorack/stmlib/dsp/units.h **** }
  67              		.loc 1 46 1 view .LVU15
  68 0034 20EE270A 		vmul.f32	s0, s0, s15
  69 0038 7047     		bx	lr
  70              	.L3:
  71 003a 00BF     		.align	2
  72              	.L2:
  73 003c 00000043 		.word	1124073472
  74 0040 00000000 		.word	_ZN6stmlib19lut_pitch_ratio_lowE
  75 0044 00000000 		.word	_ZN6stmlib20lut_pitch_ratio_highE
  76              		.cfi_endproc
  77              	.LFE1515:
  79              		.section	.text._ZN6plaits11LPGEnvelope9ProcessLPEffff,"axG",%progbits,_ZN6plaits11LPGEnvelope9Proc
  80              		.align	1
  81              		.weak	_ZN6plaits11LPGEnvelope9ProcessLPEffff
  82              		.syntax unified
  83              		.thumb
  84              		.thumb_func
  86              	_ZN6plaits11LPGEnvelope9ProcessLPEffff:
  87              	.LVL6:
  88              	.LFB2002:
  89              		.file 2 "eurorack/plaits/dsp/envelope.h"
   1:eurorack/plaits/dsp/envelope.h **** // Copyright 2016 Emilie Gillet.
   2:eurorack/plaits/dsp/envelope.h **** //
   3:eurorack/plaits/dsp/envelope.h **** // Author: Emilie Gillet (emilie.o.gillet@gmail.com)
   4:eurorack/plaits/dsp/envelope.h **** //
   5:eurorack/plaits/dsp/envelope.h **** // Permission is hereby granted, free of charge, to any person obtaining a copy
   6:eurorack/plaits/dsp/envelope.h **** // of this software and associated documentation files (the "Software"), to deal
   7:eurorack/plaits/dsp/envelope.h **** // in the Software without restriction, including without limitation the rights
   8:eurorack/plaits/dsp/envelope.h **** // to use, copy, modify, merge, publish, distribute, sublicense, and/or sell
   9:eurorack/plaits/dsp/envelope.h **** // copies of the Software, and to permit persons to whom the Software is
  10:eurorack/plaits/dsp/envelope.h **** // furnished to do so, subject to the following conditions:
  11:eurorack/plaits/dsp/envelope.h **** // 
  12:eurorack/plaits/dsp/envelope.h **** // The above copyright notice and this permission notice shall be included in
  13:eurorack/plaits/dsp/envelope.h **** // all copies or substantial portions of the Software.
  14:eurorack/plaits/dsp/envelope.h **** // 
  15:eurorack/plaits/dsp/envelope.h **** // THE SOFTWARE IS PROVIDED "AS IS", WITHOUT WARRANTY OF ANY KIND, EXPRESS OR
  16:eurorack/plaits/dsp/envelope.h **** // IMPLIED, INCLUDING BUT NOT LIMITED TO THE WARRANTIES OF MERCHANTABILITY,
  17:eurorack/plaits/dsp/envelope.h **** // FITNESS FOR A PARTICULAR PURPOSE AND NONINFRINGEMENT. IN NO EVENT SHALL THE
  18:eurorack/plaits/dsp/envelope.h **** // AUTHORS OR COPYRIGHT HOLDERS BE LIABLE FOR ANY CLAIM, DAMAGES OR OTHER
  19:eurorack/plaits/dsp/envelope.h **** // LIABILITY, WHETHER IN AN ACTION OF CONTRACT, TORT OR OTHERWISE, ARISING FROM,
  20:eurorack/plaits/dsp/envelope.h **** // OUT OF OR IN CONNECTION WITH THE SOFTWARE OR THE USE OR OTHER DEALINGS IN
  21:eurorack/plaits/dsp/envelope.h **** // THE SOFTWARE.
  22:eurorack/plaits/dsp/envelope.h **** // 
  23:eurorack/plaits/dsp/envelope.h **** // See http://creativecommons.org/licenses/MIT/ for more information.
  24:eurorack/plaits/dsp/envelope.h **** //
  25:eurorack/plaits/dsp/envelope.h **** // -----------------------------------------------------------------------------
  26:eurorack/plaits/dsp/envelope.h **** //
  27:eurorack/plaits/dsp/envelope.h **** // Envelope for the internal LPG.
  28:eurorack/plaits/dsp/envelope.h **** 
  29:eurorack/plaits/dsp/envelope.h **** #ifndef PLAITS_DSP_ENVELOPE_H_
  30:eurorack/plaits/dsp/envelope.h **** #define PLAITS_DSP_ENVELOPE_H_
  31:eurorack/plaits/dsp/envelope.h **** 
ARM GAS  /var/folders/9s/8rp0_f2s1n31qbztm3b5_fdh0000gn/T//ccY1wZnf.s 			page 4


  32:eurorack/plaits/dsp/envelope.h **** #include "stmlib/stmlib.h"
  33:eurorack/plaits/dsp/envelope.h **** 
  34:eurorack/plaits/dsp/envelope.h **** namespace plaits {
  35:eurorack/plaits/dsp/envelope.h **** 
  36:eurorack/plaits/dsp/envelope.h **** class LPGEnvelope {
  37:eurorack/plaits/dsp/envelope.h ****  public:
  38:eurorack/plaits/dsp/envelope.h ****   LPGEnvelope() { }
  39:eurorack/plaits/dsp/envelope.h ****   ~LPGEnvelope() { }
  40:eurorack/plaits/dsp/envelope.h ****   
  41:eurorack/plaits/dsp/envelope.h ****   inline void Init() {
  42:eurorack/plaits/dsp/envelope.h ****     vactrol_state_ = 0.0f;
  43:eurorack/plaits/dsp/envelope.h ****     gain_ = 1.0f;
  44:eurorack/plaits/dsp/envelope.h ****     frequency_ = 0.5f;
  45:eurorack/plaits/dsp/envelope.h ****     hf_bleed_ = 0.0f;
  46:eurorack/plaits/dsp/envelope.h ****   }
  47:eurorack/plaits/dsp/envelope.h ****   
  48:eurorack/plaits/dsp/envelope.h ****   inline void Trigger() {
  49:eurorack/plaits/dsp/envelope.h ****     ramp_up_ = true;
  50:eurorack/plaits/dsp/envelope.h ****   }
  51:eurorack/plaits/dsp/envelope.h ****   
  52:eurorack/plaits/dsp/envelope.h ****   inline void ProcessPing(
  53:eurorack/plaits/dsp/envelope.h ****       float attack,
  54:eurorack/plaits/dsp/envelope.h ****       float short_decay,
  55:eurorack/plaits/dsp/envelope.h ****       float decay_tail,
  56:eurorack/plaits/dsp/envelope.h ****       float hf) {
  57:eurorack/plaits/dsp/envelope.h ****     if (ramp_up_) {
  58:eurorack/plaits/dsp/envelope.h ****       vactrol_state_ += attack;
  59:eurorack/plaits/dsp/envelope.h ****       if (vactrol_state_ >= 1.0f) {
  60:eurorack/plaits/dsp/envelope.h ****         vactrol_state_ = 1.0f;
  61:eurorack/plaits/dsp/envelope.h ****         ramp_up_ = false;
  62:eurorack/plaits/dsp/envelope.h ****       }
  63:eurorack/plaits/dsp/envelope.h ****     }
  64:eurorack/plaits/dsp/envelope.h ****     ProcessLP(ramp_up_ ? vactrol_state_ : 0.0f, short_decay, decay_tail, hf);
  65:eurorack/plaits/dsp/envelope.h ****   }
  66:eurorack/plaits/dsp/envelope.h ****   
  67:eurorack/plaits/dsp/envelope.h ****   inline void ProcessLP(
  90              		.loc 2 67 15 is_stmt 1 view -0
  91              		.cfi_startproc
  92              		@ args = 0, pretend = 0, frame = 0
  93              		@ frame_needed = 0, uses_anonymous_args = 0
  94              		@ link register save eliminated.
  68:eurorack/plaits/dsp/envelope.h ****       float level,
  69:eurorack/plaits/dsp/envelope.h ****       float short_decay,
  70:eurorack/plaits/dsp/envelope.h ****       float decay_tail,
  71:eurorack/plaits/dsp/envelope.h ****       float hf) {
  72:eurorack/plaits/dsp/envelope.h ****     float vactrol_input = level;
  95              		.loc 2 72 5 view .LVU17
  73:eurorack/plaits/dsp/envelope.h ****     float vactrol_error = (vactrol_input - vactrol_state_);
  96              		.loc 2 73 5 view .LVU18
  97              		.loc 2 73 44 is_stmt 0 view .LVU19
  98 0000 90ED007A 		vldr.32	s14, [r0]
  74:eurorack/plaits/dsp/envelope.h ****     float vactrol_state_2 = vactrol_state_ * vactrol_state_;
  75:eurorack/plaits/dsp/envelope.h ****     float vactrol_state_4 = vactrol_state_2 * vactrol_state_2;
  76:eurorack/plaits/dsp/envelope.h ****     float tail = 1.0f - vactrol_state_;
  99              		.loc 2 76 11 view .LVU20
 100 0004 F7EE006A 		vmov.f32	s13, #1.0e+0
  73:eurorack/plaits/dsp/envelope.h ****     float vactrol_error = (vactrol_input - vactrol_state_);
ARM GAS  /var/folders/9s/8rp0_f2s1n31qbztm3b5_fdh0000gn/T//ccY1wZnf.s 			page 5


 101              		.loc 2 73 11 view .LVU21
 102 0008 30EE470A 		vsub.f32	s0, s0, s14
 103              	.LVL7:
  74:eurorack/plaits/dsp/envelope.h ****     float vactrol_state_2 = vactrol_state_ * vactrol_state_;
 104              		.loc 2 74 5 is_stmt 1 view .LVU22
  74:eurorack/plaits/dsp/envelope.h ****     float vactrol_state_2 = vactrol_state_ * vactrol_state_;
 105              		.loc 2 74 11 is_stmt 0 view .LVU23
 106 000c 27EE076A 		vmul.f32	s12, s14, s14
 107              	.LVL8:
  75:eurorack/plaits/dsp/envelope.h ****     float tail = 1.0f - vactrol_state_;
 108              		.loc 2 75 5 is_stmt 1 view .LVU24
 109              		.loc 2 76 11 is_stmt 0 view .LVU25
 110 0010 76EEC77A 		vsub.f32	s15, s13, s14
  77:eurorack/plaits/dsp/envelope.h ****     float tail_2 = tail * tail;
  78:eurorack/plaits/dsp/envelope.h ****     float vactrol_coefficient = (vactrol_error > 0.0f)
  79:eurorack/plaits/dsp/envelope.h ****         ? 0.6f
 111              		.loc 2 79 9 view .LVU26
 112 0014 B5EEC00A 		vcmpe.f32	s0, #0
  75:eurorack/plaits/dsp/envelope.h ****     float tail = 1.0f - vactrol_state_;
 113              		.loc 2 75 11 view .LVU27
 114 0018 26EE066A 		vmul.f32	s12, s12, s12
 115              	.LVL9:
  76:eurorack/plaits/dsp/envelope.h ****     float tail_2 = tail * tail;
 116              		.loc 2 76 5 is_stmt 1 view .LVU28
  77:eurorack/plaits/dsp/envelope.h ****     float tail_2 = tail * tail;
 117              		.loc 2 77 5 view .LVU29
  77:eurorack/plaits/dsp/envelope.h ****     float tail_2 = tail * tail;
 118              		.loc 2 77 11 is_stmt 0 view .LVU30
 119 001c 67EEA77A 		vmul.f32	s15, s15, s15
 120              	.LVL10:
  78:eurorack/plaits/dsp/envelope.h ****         ? 0.6f
 121              		.loc 2 78 5 is_stmt 1 view .LVU31
 122              		.loc 2 79 9 is_stmt 0 view .LVU32
 123 0020 F1EE10FA 		vmrs	APSR_nzcv, FPSCR
  80:eurorack/plaits/dsp/envelope.h ****         : short_decay + (1.0f - vactrol_state_4) * decay_tail;
 124              		.loc 2 80 31 view .LVU33
 125 0024 D4BF     		ite	le
 126 0026 76EEC65A 		vsuble.f32	s11, s13, s12
  79:eurorack/plaits/dsp/envelope.h ****         : short_decay + (1.0f - vactrol_state_4) * decay_tail;
 127              		.loc 2 79 9 view .LVU34
 128 002a DFED110A 		vldrgt.32	s1, .L7
 129              	.LVL11:
  81:eurorack/plaits/dsp/envelope.h ****     vactrol_state_ += vactrol_coefficient * vactrol_error;
  82:eurorack/plaits/dsp/envelope.h ****     
  83:eurorack/plaits/dsp/envelope.h ****     gain_ = vactrol_state_;
  84:eurorack/plaits/dsp/envelope.h ****     frequency_ = 0.003f + 0.3f * vactrol_state_4 + hf * 0.04f;
  85:eurorack/plaits/dsp/envelope.h ****     hf_bleed_ = (tail_2 + (1.0f - tail_2) * hf) * hf * hf;
 130              		.loc 2 85 33 view .LVU35
 131 002e 76EEE76A 		vsub.f32	s13, s13, s15
 132              	.LVL12:
  79:eurorack/plaits/dsp/envelope.h ****         : short_decay + (1.0f - vactrol_state_4) * decay_tail;
 133              		.loc 2 79 9 view .LVU36
 134 0032 D8BF     		it	le
 135 0034 E5EE810A 		vfmale.f32	s1, s11, s2
 136              	.LVL13:
  81:eurorack/plaits/dsp/envelope.h ****     vactrol_state_ += vactrol_coefficient * vactrol_error;
 137              		.loc 2 81 5 is_stmt 1 view .LVU37
ARM GAS  /var/folders/9s/8rp0_f2s1n31qbztm3b5_fdh0000gn/T//ccY1wZnf.s 			page 6


  84:eurorack/plaits/dsp/envelope.h ****     hf_bleed_ = (tail_2 + (1.0f - tail_2) * hf) * hf * hf;
 138              		.loc 2 84 25 is_stmt 0 view .LVU38
 139 0038 DFED0E5A 		vldr.32	s11, .L7+4
 140              		.loc 2 85 25 view .LVU39
 141 003c E6EEA17A 		vfma.f32	s15, s13, s3
 142              	.LVL14:
  81:eurorack/plaits/dsp/envelope.h ****     vactrol_state_ += vactrol_coefficient * vactrol_error;
 143              		.loc 2 81 20 view .LVU40
 144 0040 A0EE807A 		vfma.f32	s14, s1, s0
 145              	.LVL15:
  81:eurorack/plaits/dsp/envelope.h ****     vactrol_state_ += vactrol_coefficient * vactrol_error;
 146              		.loc 2 81 20 view .LVU41
 147 0044 80ED007A 		vstr.32	s14, [r0]
 148              	.LVL16:
  83:eurorack/plaits/dsp/envelope.h ****     frequency_ = 0.003f + 0.3f * vactrol_state_4 + hf * 0.04f;
 149              		.loc 2 83 5 is_stmt 1 view .LVU42
  83:eurorack/plaits/dsp/envelope.h ****     frequency_ = 0.003f + 0.3f * vactrol_state_4 + hf * 0.04f;
 150              		.loc 2 83 11 is_stmt 0 view .LVU43
 151 0048 80ED017A 		vstr.32	s14, [r0, #4]
  84:eurorack/plaits/dsp/envelope.h ****     hf_bleed_ = (tail_2 + (1.0f - tail_2) * hf) * hf * hf;
 152              		.loc 2 84 5 is_stmt 1 view .LVU44
  84:eurorack/plaits/dsp/envelope.h ****     hf_bleed_ = (tail_2 + (1.0f - tail_2) * hf) * hf * hf;
 153              		.loc 2 84 25 is_stmt 0 view .LVU45
 154 004c 9FED0A7A 		vldr.32	s14, .L7+8
 155 0050 A6EE257A 		vfma.f32	s14, s12, s11
  84:eurorack/plaits/dsp/envelope.h ****     hf_bleed_ = (tail_2 + (1.0f - tail_2) * hf) * hf * hf;
 156              		.loc 2 84 50 view .LVU46
 157 0054 9FED096A 		vldr.32	s12, .L7+12
 158              	.LVL17:
  84:eurorack/plaits/dsp/envelope.h ****     hf_bleed_ = (tail_2 + (1.0f - tail_2) * hf) * hf * hf;
 159              		.loc 2 84 50 view .LVU47
 160 0058 A1EE867A 		vfma.f32	s14, s3, s12
  84:eurorack/plaits/dsp/envelope.h ****     hf_bleed_ = (tail_2 + (1.0f - tail_2) * hf) * hf * hf;
 161              		.loc 2 84 16 view .LVU48
 162 005c 80ED027A 		vstr.32	s14, [r0, #8]
 163              		.loc 2 85 5 is_stmt 1 view .LVU49
 164              		.loc 2 85 49 is_stmt 0 view .LVU50
 165 0060 27EEA17A 		vmul.f32	s14, s15, s3
 166              		.loc 2 85 54 view .LVU51
 167 0064 67EE217A 		vmul.f32	s15, s14, s3
 168              		.loc 2 85 15 view .LVU52
 169 0068 C0ED037A 		vstr.32	s15, [r0, #12]
  86:eurorack/plaits/dsp/envelope.h ****   }
 170              		.loc 2 86 3 view .LVU53
 171 006c 7047     		bx	lr
 172              	.L8:
 173 006e 00BF     		.align	2
 174              	.L7:
 175 0070 9A99193F 		.word	1058642330
 176 0074 9A99993E 		.word	1050253722
 177 0078 A69B443B 		.word	994352038
 178 007c 0AD7233D 		.word	1025758986
 179              		.cfi_endproc
 180              	.LFE2002:
 182              		.section	.text._ZN6plaits20ChannelPostProcessor4InitEv,"axG",%progbits,_ZN6plaits20ChannelPostProc
 183              		.align	1
 184              		.weak	_ZN6plaits20ChannelPostProcessor4InitEv
ARM GAS  /var/folders/9s/8rp0_f2s1n31qbztm3b5_fdh0000gn/T//ccY1wZnf.s 			page 7


 185              		.syntax unified
 186              		.thumb
 187              		.thumb_func
 189              	_ZN6plaits20ChannelPostProcessor4InitEv:
 190              	.LVL18:
 191              	.LFB2031:
 192              		.file 3 "eurorack/plaits/dsp/voice.h"
   1:eurorack/plaits/dsp/voice.h **** // Copyright 2016 Emilie Gillet.
   2:eurorack/plaits/dsp/voice.h **** //
   3:eurorack/plaits/dsp/voice.h **** // Author: Emilie Gillet (emilie.o.gillet@gmail.com)
   4:eurorack/plaits/dsp/voice.h **** //
   5:eurorack/plaits/dsp/voice.h **** // Permission is hereby granted, free of charge, to any person obtaining a copy
   6:eurorack/plaits/dsp/voice.h **** // of this software and associated documentation files (the "Software"), to deal
   7:eurorack/plaits/dsp/voice.h **** // in the Software without restriction, including without limitation the rights
   8:eurorack/plaits/dsp/voice.h **** // to use, copy, modify, merge, publish, distribute, sublicense, and/or sell
   9:eurorack/plaits/dsp/voice.h **** // copies of the Software, and to permit persons to whom the Software is
  10:eurorack/plaits/dsp/voice.h **** // furnished to do so, subject to the following conditions:
  11:eurorack/plaits/dsp/voice.h **** // 
  12:eurorack/plaits/dsp/voice.h **** // The above copyright notice and this permission notice shall be included in
  13:eurorack/plaits/dsp/voice.h **** // all copies or substantial portions of the Software.
  14:eurorack/plaits/dsp/voice.h **** // 
  15:eurorack/plaits/dsp/voice.h **** // THE SOFTWARE IS PROVIDED "AS IS", WITHOUT WARRANTY OF ANY KIND, EXPRESS OR
  16:eurorack/plaits/dsp/voice.h **** // IMPLIED, INCLUDING BUT NOT LIMITED TO THE WARRANTIES OF MERCHANTABILITY,
  17:eurorack/plaits/dsp/voice.h **** // FITNESS FOR A PARTICULAR PURPOSE AND NONINFRINGEMENT. IN NO EVENT SHALL THE
  18:eurorack/plaits/dsp/voice.h **** // AUTHORS OR COPYRIGHT HOLDERS BE LIABLE FOR ANY CLAIM, DAMAGES OR OTHER
  19:eurorack/plaits/dsp/voice.h **** // LIABILITY, WHETHER IN AN ACTION OF CONTRACT, TORT OR OTHERWISE, ARISING FROM,
  20:eurorack/plaits/dsp/voice.h **** // OUT OF OR IN CONNECTION WITH THE SOFTWARE OR THE USE OR OTHER DEALINGS IN
  21:eurorack/plaits/dsp/voice.h **** // THE SOFTWARE.
  22:eurorack/plaits/dsp/voice.h **** // 
  23:eurorack/plaits/dsp/voice.h **** // See http://creativecommons.org/licenses/MIT/ for more information.
  24:eurorack/plaits/dsp/voice.h **** //
  25:eurorack/plaits/dsp/voice.h **** // -----------------------------------------------------------------------------
  26:eurorack/plaits/dsp/voice.h **** //
  27:eurorack/plaits/dsp/voice.h **** // Main synthesis voice.
  28:eurorack/plaits/dsp/voice.h **** 
  29:eurorack/plaits/dsp/voice.h **** #ifndef PLAITS_DSP_VOICE_H_
  30:eurorack/plaits/dsp/voice.h **** #define PLAITS_DSP_VOICE_H_
  31:eurorack/plaits/dsp/voice.h **** 
  32:eurorack/plaits/dsp/voice.h **** #include "stmlib/stmlib.h"
  33:eurorack/plaits/dsp/voice.h **** 
  34:eurorack/plaits/dsp/voice.h **** #include "stmlib/dsp/filter.h"
  35:eurorack/plaits/dsp/voice.h **** #include "stmlib/dsp/limiter.h"
  36:eurorack/plaits/dsp/voice.h **** #include "stmlib/utils/buffer_allocator.h"
  37:eurorack/plaits/dsp/voice.h **** 
  38:eurorack/plaits/dsp/voice.h **** #include "plaits/dsp/engine/additive_engine.h"
  39:eurorack/plaits/dsp/voice.h **** #include "plaits/dsp/engine/bass_drum_engine.h"
  40:eurorack/plaits/dsp/voice.h **** #include "plaits/dsp/engine/chord_engine.h"
  41:eurorack/plaits/dsp/voice.h **** #include "plaits/dsp/engine/engine.h"
  42:eurorack/plaits/dsp/voice.h **** #include "plaits/dsp/engine/fm_engine.h"
  43:eurorack/plaits/dsp/voice.h **** #include "plaits/dsp/engine/grain_engine.h"
  44:eurorack/plaits/dsp/voice.h **** #include "plaits/dsp/engine/hi_hat_engine.h"
  45:eurorack/plaits/dsp/voice.h **** #include "plaits/dsp/engine/modal_engine.h"
  46:eurorack/plaits/dsp/voice.h **** #include "plaits/dsp/engine/noise_engine.h"
  47:eurorack/plaits/dsp/voice.h **** #include "plaits/dsp/engine/particle_engine.h"
  48:eurorack/plaits/dsp/voice.h **** #include "plaits/dsp/engine/snare_drum_engine.h"
  49:eurorack/plaits/dsp/voice.h **** // #include "plaits/dsp/engine/speech_engine.h"
  50:eurorack/plaits/dsp/voice.h **** #include "plaits/dsp/engine/string_engine.h"
ARM GAS  /var/folders/9s/8rp0_f2s1n31qbztm3b5_fdh0000gn/T//ccY1wZnf.s 			page 8


  51:eurorack/plaits/dsp/voice.h **** #include "plaits/dsp/engine/swarm_engine.h"
  52:eurorack/plaits/dsp/voice.h **** #include "plaits/dsp/engine/virtual_analog_engine.h"
  53:eurorack/plaits/dsp/voice.h **** #include "plaits/dsp/engine/waveshaping_engine.h"
  54:eurorack/plaits/dsp/voice.h **** // #include "plaits/dsp/engine/wavetable_engine.h"
  55:eurorack/plaits/dsp/voice.h **** 
  56:eurorack/plaits/dsp/voice.h **** #include "plaits/dsp/envelope.h"
  57:eurorack/plaits/dsp/voice.h **** 
  58:eurorack/plaits/dsp/voice.h **** #include "plaits/dsp/fx/low_pass_gate.h"
  59:eurorack/plaits/dsp/voice.h **** 
  60:eurorack/plaits/dsp/voice.h **** namespace plaits {
  61:eurorack/plaits/dsp/voice.h **** 
  62:eurorack/plaits/dsp/voice.h **** const int kMaxEngines = 16;
  63:eurorack/plaits/dsp/voice.h **** const int kMaxTriggerDelay = 8;
  64:eurorack/plaits/dsp/voice.h **** const int kTriggerDelay = 5;
  65:eurorack/plaits/dsp/voice.h **** 
  66:eurorack/plaits/dsp/voice.h **** class ChannelPostProcessor {
  67:eurorack/plaits/dsp/voice.h ****  public:
  68:eurorack/plaits/dsp/voice.h ****   ChannelPostProcessor() { }
  69:eurorack/plaits/dsp/voice.h ****   ~ChannelPostProcessor() { }
  70:eurorack/plaits/dsp/voice.h ****   
  71:eurorack/plaits/dsp/voice.h ****   void Init() {
 193              		.loc 3 71 8 is_stmt 1 view -0
 194              		.cfi_startproc
 195              		@ args = 0, pretend = 0, frame = 0
 196              		@ frame_needed = 0, uses_anonymous_args = 0
 197              		@ link register save eliminated.
  72:eurorack/plaits/dsp/voice.h ****     lpg_.Init();
 198              		.loc 3 72 5 view .LVU55
 199              	.LBB104:
 200              	.LBI104:
 201              		.file 4 "eurorack/plaits/dsp/fx/low_pass_gate.h"
   1:eurorack/plaits/dsp/fx/low_pass_gate.h **** // Copyright 2014 Emilie Gillet.
   2:eurorack/plaits/dsp/fx/low_pass_gate.h **** //
   3:eurorack/plaits/dsp/fx/low_pass_gate.h **** // Author: Emilie Gillet (emilie.o.gillet@gmail.com)
   4:eurorack/plaits/dsp/fx/low_pass_gate.h **** //
   5:eurorack/plaits/dsp/fx/low_pass_gate.h **** // Permission is hereby granted, free of charge, to any person obtaining a copy
   6:eurorack/plaits/dsp/fx/low_pass_gate.h **** // of this software and associated documentation files (the "Software"), to deal
   7:eurorack/plaits/dsp/fx/low_pass_gate.h **** // in the Software without restriction, including without limitation the rights
   8:eurorack/plaits/dsp/fx/low_pass_gate.h **** // to use, copy, modify, merge, publish, distribute, sublicense, and/or sell
   9:eurorack/plaits/dsp/fx/low_pass_gate.h **** // copies of the Software, and to permit persons to whom the Software is
  10:eurorack/plaits/dsp/fx/low_pass_gate.h **** // furnished to do so, subject to the following conditions:
  11:eurorack/plaits/dsp/fx/low_pass_gate.h **** // 
  12:eurorack/plaits/dsp/fx/low_pass_gate.h **** // The above copyright notice and this permission notice shall be included in
  13:eurorack/plaits/dsp/fx/low_pass_gate.h **** // all copies or substantial portions of the Software.
  14:eurorack/plaits/dsp/fx/low_pass_gate.h **** // 
  15:eurorack/plaits/dsp/fx/low_pass_gate.h **** // THE SOFTWARE IS PROVIDED "AS IS", WITHOUT WARRANTY OF ANY KIND, EXPRESS OR
  16:eurorack/plaits/dsp/fx/low_pass_gate.h **** // IMPLIED, INCLUDING BUT NOT LIMITED TO THE WARRANTIES OF MERCHANTABILITY,
  17:eurorack/plaits/dsp/fx/low_pass_gate.h **** // FITNESS FOR A PARTICULAR PURPOSE AND NONINFRINGEMENT. IN NO EVENT SHALL THE
  18:eurorack/plaits/dsp/fx/low_pass_gate.h **** // AUTHORS OR COPYRIGHT HOLDERS BE LIABLE FOR ANY CLAIM, DAMAGES OR OTHER
  19:eurorack/plaits/dsp/fx/low_pass_gate.h **** // LIABILITY, WHETHER IN AN ACTION OF CONTRACT, TORT OR OTHERWISE, ARISING FROM,
  20:eurorack/plaits/dsp/fx/low_pass_gate.h **** // OUT OF OR IN CONNECTION WITH THE SOFTWARE OR THE USE OR OTHER DEALINGS IN
  21:eurorack/plaits/dsp/fx/low_pass_gate.h **** // THE SOFTWARE.
  22:eurorack/plaits/dsp/fx/low_pass_gate.h **** // 
  23:eurorack/plaits/dsp/fx/low_pass_gate.h **** // See http://creativecommons.org/licenses/MIT/ for more information.
  24:eurorack/plaits/dsp/fx/low_pass_gate.h **** //
  25:eurorack/plaits/dsp/fx/low_pass_gate.h **** // -----------------------------------------------------------------------------
  26:eurorack/plaits/dsp/fx/low_pass_gate.h **** //
ARM GAS  /var/folders/9s/8rp0_f2s1n31qbztm3b5_fdh0000gn/T//ccY1wZnf.s 			page 9


  27:eurorack/plaits/dsp/fx/low_pass_gate.h **** // Approximative low pass gate.
  28:eurorack/plaits/dsp/fx/low_pass_gate.h **** 
  29:eurorack/plaits/dsp/fx/low_pass_gate.h **** #ifndef PLAITS_DSP_FX_LOW_PASS_GATE_H_
  30:eurorack/plaits/dsp/fx/low_pass_gate.h **** #define PLAITS_DSP_FX_LOW_PASS_GATE_H_
  31:eurorack/plaits/dsp/fx/low_pass_gate.h **** 
  32:eurorack/plaits/dsp/fx/low_pass_gate.h **** #include <algorithm>
  33:eurorack/plaits/dsp/fx/low_pass_gate.h **** 
  34:eurorack/plaits/dsp/fx/low_pass_gate.h **** #include "stmlib/dsp/dsp.h"
  35:eurorack/plaits/dsp/fx/low_pass_gate.h **** #include "stmlib/dsp/filter.h"
  36:eurorack/plaits/dsp/fx/low_pass_gate.h **** #include "stmlib/dsp/parameter_interpolator.h"
  37:eurorack/plaits/dsp/fx/low_pass_gate.h **** 
  38:eurorack/plaits/dsp/fx/low_pass_gate.h **** namespace plaits {
  39:eurorack/plaits/dsp/fx/low_pass_gate.h ****   
  40:eurorack/plaits/dsp/fx/low_pass_gate.h **** class LowPassGate {
  41:eurorack/plaits/dsp/fx/low_pass_gate.h ****  public:
  42:eurorack/plaits/dsp/fx/low_pass_gate.h ****   LowPassGate() { }
  43:eurorack/plaits/dsp/fx/low_pass_gate.h ****   ~LowPassGate() { }
  44:eurorack/plaits/dsp/fx/low_pass_gate.h ****   
  45:eurorack/plaits/dsp/fx/low_pass_gate.h ****   void Init() {
 202              		.loc 4 45 8 view .LVU56
 203              	.LBB105:
  46:eurorack/plaits/dsp/fx/low_pass_gate.h ****     previous_gain_ = 0.0f;
 204              		.loc 4 46 5 view .LVU57
 205              	.LBB106:
 206              	.LBB107:
 207              	.LBB108:
 208              		.file 5 "eurorack/stmlib/dsp/filter.h"
   1:eurorack/stmlib/dsp/filter.h **** // Copyright 2014 Emilie Gillet.
   2:eurorack/stmlib/dsp/filter.h **** //
   3:eurorack/stmlib/dsp/filter.h **** // Author: Emilie Gillet (emilie.o.gillet@gmail.com)
   4:eurorack/stmlib/dsp/filter.h **** //
   5:eurorack/stmlib/dsp/filter.h **** // Permission is hereby granted, free of charge, to any person obtaining a copy
   6:eurorack/stmlib/dsp/filter.h **** // of this software and associated documentation files (the "Software"), to deal
   7:eurorack/stmlib/dsp/filter.h **** // in the Software without restriction, including without limitation the rights
   8:eurorack/stmlib/dsp/filter.h **** // to use, copy, modify, merge, publish, distribute, sublicense, and/or sell
   9:eurorack/stmlib/dsp/filter.h **** // copies of the Software, and to permit persons to whom the Software is
  10:eurorack/stmlib/dsp/filter.h **** // furnished to do so, subject to the following conditions:
  11:eurorack/stmlib/dsp/filter.h **** // 
  12:eurorack/stmlib/dsp/filter.h **** // The above copyright notice and this permission notice shall be included in
  13:eurorack/stmlib/dsp/filter.h **** // all copies or substantial portions of the Software.
  14:eurorack/stmlib/dsp/filter.h **** // 
  15:eurorack/stmlib/dsp/filter.h **** // THE SOFTWARE IS PROVIDED "AS IS", WITHOUT WARRANTY OF ANY KIND, EXPRESS OR
  16:eurorack/stmlib/dsp/filter.h **** // IMPLIED, INCLUDING BUT NOT LIMITED TO THE WARRANTIES OF MERCHANTABILITY,
  17:eurorack/stmlib/dsp/filter.h **** // FITNESS FOR A PARTICULAR PURPOSE AND NONINFRINGEMENT. IN NO EVENT SHALL THE
  18:eurorack/stmlib/dsp/filter.h **** // AUTHORS OR COPYRIGHT HOLDERS BE LIABLE FOR ANY CLAIM, DAMAGES OR OTHER
  19:eurorack/stmlib/dsp/filter.h **** // LIABILITY, WHETHER IN AN ACTION OF CONTRACT, TORT OR OTHERWISE, ARISING FROM,
  20:eurorack/stmlib/dsp/filter.h **** // OUT OF OR IN CONNECTION WITH THE SOFTWARE OR THE USE OR OTHER DEALINGS IN
  21:eurorack/stmlib/dsp/filter.h **** // THE SOFTWARE.
  22:eurorack/stmlib/dsp/filter.h **** // 
  23:eurorack/stmlib/dsp/filter.h **** // See http://creativecommons.org/licenses/MIT/ for more information.
  24:eurorack/stmlib/dsp/filter.h **** //
  25:eurorack/stmlib/dsp/filter.h **** // -----------------------------------------------------------------------------
  26:eurorack/stmlib/dsp/filter.h **** //
  27:eurorack/stmlib/dsp/filter.h **** // Zero-delay-feedback filters (one pole and SVF).
  28:eurorack/stmlib/dsp/filter.h **** // Naive SVF.
  29:eurorack/stmlib/dsp/filter.h **** 
  30:eurorack/stmlib/dsp/filter.h **** #ifndef STMLIB_DSP_FILTER_H_
ARM GAS  /var/folders/9s/8rp0_f2s1n31qbztm3b5_fdh0000gn/T//ccY1wZnf.s 			page 10


  31:eurorack/stmlib/dsp/filter.h **** #define STMLIB_DSP_FILTER_H_
  32:eurorack/stmlib/dsp/filter.h **** 
  33:eurorack/stmlib/dsp/filter.h **** #include "stmlib/stmlib.h"
  34:eurorack/stmlib/dsp/filter.h **** 
  35:eurorack/stmlib/dsp/filter.h **** #include <cmath>
  36:eurorack/stmlib/dsp/filter.h **** #include <algorithm>
  37:eurorack/stmlib/dsp/filter.h **** 
  38:eurorack/stmlib/dsp/filter.h **** namespace stmlib {
  39:eurorack/stmlib/dsp/filter.h **** 
  40:eurorack/stmlib/dsp/filter.h **** enum FilterMode {
  41:eurorack/stmlib/dsp/filter.h ****   FILTER_MODE_LOW_PASS,
  42:eurorack/stmlib/dsp/filter.h ****   FILTER_MODE_BAND_PASS,
  43:eurorack/stmlib/dsp/filter.h ****   FILTER_MODE_BAND_PASS_NORMALIZED,
  44:eurorack/stmlib/dsp/filter.h ****   FILTER_MODE_HIGH_PASS
  45:eurorack/stmlib/dsp/filter.h **** };
  46:eurorack/stmlib/dsp/filter.h **** 
  47:eurorack/stmlib/dsp/filter.h **** enum FrequencyApproximation {
  48:eurorack/stmlib/dsp/filter.h ****   FREQUENCY_EXACT,
  49:eurorack/stmlib/dsp/filter.h ****   FREQUENCY_ACCURATE,
  50:eurorack/stmlib/dsp/filter.h ****   FREQUENCY_FAST,
  51:eurorack/stmlib/dsp/filter.h ****   FREQUENCY_DIRTY
  52:eurorack/stmlib/dsp/filter.h **** };
  53:eurorack/stmlib/dsp/filter.h **** 
  54:eurorack/stmlib/dsp/filter.h **** #define M_PI_F float(M_PI)
  55:eurorack/stmlib/dsp/filter.h **** #define M_PI_POW_2 M_PI * M_PI
  56:eurorack/stmlib/dsp/filter.h **** #define M_PI_POW_3 M_PI_POW_2 * M_PI
  57:eurorack/stmlib/dsp/filter.h **** #define M_PI_POW_5 M_PI_POW_3 * M_PI_POW_2
  58:eurorack/stmlib/dsp/filter.h **** #define M_PI_POW_7 M_PI_POW_5 * M_PI_POW_2
  59:eurorack/stmlib/dsp/filter.h **** #define M_PI_POW_9 M_PI_POW_7 * M_PI_POW_2
  60:eurorack/stmlib/dsp/filter.h **** #define M_PI_POW_11 M_PI_POW_9 * M_PI_POW_2
  61:eurorack/stmlib/dsp/filter.h **** 
  62:eurorack/stmlib/dsp/filter.h **** class DCBlocker {
  63:eurorack/stmlib/dsp/filter.h ****  public:
  64:eurorack/stmlib/dsp/filter.h ****   DCBlocker() { }
  65:eurorack/stmlib/dsp/filter.h ****   ~DCBlocker() { }
  66:eurorack/stmlib/dsp/filter.h ****   
  67:eurorack/stmlib/dsp/filter.h ****   void Init(float pole) {
  68:eurorack/stmlib/dsp/filter.h ****     x_ = 0.0f;
  69:eurorack/stmlib/dsp/filter.h ****     y_ = 0.0f;
  70:eurorack/stmlib/dsp/filter.h ****     pole_ = pole;
  71:eurorack/stmlib/dsp/filter.h ****   }
  72:eurorack/stmlib/dsp/filter.h ****   
  73:eurorack/stmlib/dsp/filter.h ****   inline void Process(float* in_out, size_t size) {
  74:eurorack/stmlib/dsp/filter.h ****     float x = x_;
  75:eurorack/stmlib/dsp/filter.h ****     float y = y_;
  76:eurorack/stmlib/dsp/filter.h ****     const float pole = pole_;
  77:eurorack/stmlib/dsp/filter.h ****     while (size--) {
  78:eurorack/stmlib/dsp/filter.h ****       float old_x = x;
  79:eurorack/stmlib/dsp/filter.h ****       x = *in_out;
  80:eurorack/stmlib/dsp/filter.h ****       *in_out++ = y = y * pole + x - old_x;
  81:eurorack/stmlib/dsp/filter.h ****     }
  82:eurorack/stmlib/dsp/filter.h ****     x_ = x;
  83:eurorack/stmlib/dsp/filter.h ****     y_ = y;
  84:eurorack/stmlib/dsp/filter.h ****   }
  85:eurorack/stmlib/dsp/filter.h ****   
  86:eurorack/stmlib/dsp/filter.h ****  private:
  87:eurorack/stmlib/dsp/filter.h ****   float pole_;
ARM GAS  /var/folders/9s/8rp0_f2s1n31qbztm3b5_fdh0000gn/T//ccY1wZnf.s 			page 11


  88:eurorack/stmlib/dsp/filter.h ****   float x_;
  89:eurorack/stmlib/dsp/filter.h ****   float y_;
  90:eurorack/stmlib/dsp/filter.h **** };
  91:eurorack/stmlib/dsp/filter.h **** 
  92:eurorack/stmlib/dsp/filter.h **** class OnePole {
  93:eurorack/stmlib/dsp/filter.h ****  public:
  94:eurorack/stmlib/dsp/filter.h ****   OnePole() { }
  95:eurorack/stmlib/dsp/filter.h ****   ~OnePole() { }
  96:eurorack/stmlib/dsp/filter.h ****   
  97:eurorack/stmlib/dsp/filter.h ****   void Init() {
  98:eurorack/stmlib/dsp/filter.h ****     set_f<FREQUENCY_DIRTY>(0.01f);
  99:eurorack/stmlib/dsp/filter.h ****     Reset();
 100:eurorack/stmlib/dsp/filter.h ****   }
 101:eurorack/stmlib/dsp/filter.h ****   
 102:eurorack/stmlib/dsp/filter.h ****   void Reset() {
 103:eurorack/stmlib/dsp/filter.h ****     state_ = 0.0f;
 104:eurorack/stmlib/dsp/filter.h ****   }
 105:eurorack/stmlib/dsp/filter.h ****   
 106:eurorack/stmlib/dsp/filter.h ****   template<FrequencyApproximation approximation>
 107:eurorack/stmlib/dsp/filter.h ****   static inline float tan(float f) {
 108:eurorack/stmlib/dsp/filter.h ****     if (approximation == FREQUENCY_EXACT) {
 109:eurorack/stmlib/dsp/filter.h ****       // Clip coefficient to about 100.
 110:eurorack/stmlib/dsp/filter.h ****       f = f < 0.497f ? f : 0.497f;
 111:eurorack/stmlib/dsp/filter.h ****       return tanf(M_PI_F * f);
 112:eurorack/stmlib/dsp/filter.h ****     } else if (approximation == FREQUENCY_DIRTY) {
 113:eurorack/stmlib/dsp/filter.h ****       // Optimized for frequencies below 8kHz.
 114:eurorack/stmlib/dsp/filter.h ****       const float a = 3.736e-01f * M_PI_POW_3;
 115:eurorack/stmlib/dsp/filter.h ****       return f * (M_PI_F + a * f * f);
 116:eurorack/stmlib/dsp/filter.h ****     } else if (approximation == FREQUENCY_FAST) {
 117:eurorack/stmlib/dsp/filter.h ****       // The usual tangent approximation uses 3.1755e-01 and 2.033e-01, but
 118:eurorack/stmlib/dsp/filter.h ****       // the coefficients used here are optimized to minimize error for the
 119:eurorack/stmlib/dsp/filter.h ****       // 16Hz to 16kHz range, with a sample rate of 48kHz.
 120:eurorack/stmlib/dsp/filter.h ****       const float a = 3.260e-01f * M_PI_POW_3;
 121:eurorack/stmlib/dsp/filter.h ****       const float b = 1.823e-01f * M_PI_POW_5;
 122:eurorack/stmlib/dsp/filter.h ****       float f2 = f * f;
 123:eurorack/stmlib/dsp/filter.h ****       return f * (M_PI_F + f2 * (a + b * f2));
 124:eurorack/stmlib/dsp/filter.h ****     } else if (approximation == FREQUENCY_ACCURATE) {
 125:eurorack/stmlib/dsp/filter.h ****       // These coefficients don't need to be tweaked for the audio range.
 126:eurorack/stmlib/dsp/filter.h ****       const float a = 3.333314036e-01f * M_PI_POW_3;
 127:eurorack/stmlib/dsp/filter.h ****       const float b = 1.333923995e-01f * M_PI_POW_5;
 128:eurorack/stmlib/dsp/filter.h ****       const float c = 5.33740603e-02f * M_PI_POW_7;
 129:eurorack/stmlib/dsp/filter.h ****       const float d = 2.900525e-03f * M_PI_POW_9;
 130:eurorack/stmlib/dsp/filter.h ****       const float e = 9.5168091e-03f * M_PI_POW_11;
 131:eurorack/stmlib/dsp/filter.h ****       float f2 = f * f;
 132:eurorack/stmlib/dsp/filter.h ****       return f * (M_PI_F + f2 * (a + f2 * (b + f2 * (c + f2 * (d + f2 * e)))));
 133:eurorack/stmlib/dsp/filter.h ****     }
 134:eurorack/stmlib/dsp/filter.h ****   }
 135:eurorack/stmlib/dsp/filter.h ****   
 136:eurorack/stmlib/dsp/filter.h ****   // Set frequency and resonance from true units. Various approximations
 137:eurorack/stmlib/dsp/filter.h ****   // are available to avoid the cost of tanf.
 138:eurorack/stmlib/dsp/filter.h ****   template<FrequencyApproximation approximation>
 139:eurorack/stmlib/dsp/filter.h ****   inline void set_f(float f) {
 140:eurorack/stmlib/dsp/filter.h ****     g_ = tan<approximation>(f);
 141:eurorack/stmlib/dsp/filter.h ****     gi_ = 1.0f / (1.0f + g_);
 142:eurorack/stmlib/dsp/filter.h ****   }
 143:eurorack/stmlib/dsp/filter.h ****   
 144:eurorack/stmlib/dsp/filter.h ****   template<FilterMode mode>
ARM GAS  /var/folders/9s/8rp0_f2s1n31qbztm3b5_fdh0000gn/T//ccY1wZnf.s 			page 12


 145:eurorack/stmlib/dsp/filter.h ****   inline float Process(float in) {
 146:eurorack/stmlib/dsp/filter.h ****     float lp;
 147:eurorack/stmlib/dsp/filter.h ****     lp = (g_ * in + state_) * gi_;
 148:eurorack/stmlib/dsp/filter.h ****     state_ = g_ * (in - lp) + lp;
 149:eurorack/stmlib/dsp/filter.h **** 
 150:eurorack/stmlib/dsp/filter.h ****     if (mode == FILTER_MODE_LOW_PASS) {
 151:eurorack/stmlib/dsp/filter.h ****       return lp;
 152:eurorack/stmlib/dsp/filter.h ****     } else if (mode == FILTER_MODE_HIGH_PASS) {
 153:eurorack/stmlib/dsp/filter.h ****       return in - lp;
 154:eurorack/stmlib/dsp/filter.h ****     } else {
 155:eurorack/stmlib/dsp/filter.h ****       return 0.0f;
 156:eurorack/stmlib/dsp/filter.h ****     }
 157:eurorack/stmlib/dsp/filter.h ****   }
 158:eurorack/stmlib/dsp/filter.h ****   
 159:eurorack/stmlib/dsp/filter.h ****   template<FilterMode mode>
 160:eurorack/stmlib/dsp/filter.h ****   inline void Process(float* in_out, size_t size) {
 161:eurorack/stmlib/dsp/filter.h ****     while (size--) {
 162:eurorack/stmlib/dsp/filter.h ****       *in_out = Process<mode>(*in_out);
 163:eurorack/stmlib/dsp/filter.h ****       ++in_out;
 164:eurorack/stmlib/dsp/filter.h ****     }
 165:eurorack/stmlib/dsp/filter.h ****   }
 166:eurorack/stmlib/dsp/filter.h ****   
 167:eurorack/stmlib/dsp/filter.h ****  private:
 168:eurorack/stmlib/dsp/filter.h ****   float g_;
 169:eurorack/stmlib/dsp/filter.h ****   float gi_;
 170:eurorack/stmlib/dsp/filter.h ****   float state_;
 171:eurorack/stmlib/dsp/filter.h ****   
 172:eurorack/stmlib/dsp/filter.h ****   DISALLOW_COPY_AND_ASSIGN(OnePole);
 173:eurorack/stmlib/dsp/filter.h **** };
 174:eurorack/stmlib/dsp/filter.h **** 
 175:eurorack/stmlib/dsp/filter.h **** 
 176:eurorack/stmlib/dsp/filter.h **** 
 177:eurorack/stmlib/dsp/filter.h **** class Svf {
 178:eurorack/stmlib/dsp/filter.h ****  public:
 179:eurorack/stmlib/dsp/filter.h ****   Svf() { }
 180:eurorack/stmlib/dsp/filter.h ****   ~Svf() { }
 181:eurorack/stmlib/dsp/filter.h ****   
 182:eurorack/stmlib/dsp/filter.h ****   void Init() {
 183:eurorack/stmlib/dsp/filter.h ****     set_f_q<FREQUENCY_DIRTY>(0.01f, 100.0f);
 184:eurorack/stmlib/dsp/filter.h ****     Reset();
 185:eurorack/stmlib/dsp/filter.h ****   }
 186:eurorack/stmlib/dsp/filter.h ****   
 187:eurorack/stmlib/dsp/filter.h ****   void Reset() {
 188:eurorack/stmlib/dsp/filter.h ****     state_1_ = state_2_ = 0.0f;
 189:eurorack/stmlib/dsp/filter.h ****   }
 190:eurorack/stmlib/dsp/filter.h ****   
 191:eurorack/stmlib/dsp/filter.h ****   // Copy settings from another filter.
 192:eurorack/stmlib/dsp/filter.h ****   inline void set(const Svf& f) {
 193:eurorack/stmlib/dsp/filter.h ****     g_ = f.g();
 194:eurorack/stmlib/dsp/filter.h ****     r_ = f.r();
 195:eurorack/stmlib/dsp/filter.h ****     h_ = f.h();
 196:eurorack/stmlib/dsp/filter.h ****   }
 197:eurorack/stmlib/dsp/filter.h **** 
 198:eurorack/stmlib/dsp/filter.h ****   // Set all parameters from LUT.
 199:eurorack/stmlib/dsp/filter.h ****   inline void set_g_r_h(float g, float r, float h) {
 200:eurorack/stmlib/dsp/filter.h ****     g_ = g;
 201:eurorack/stmlib/dsp/filter.h ****     r_ = r;
ARM GAS  /var/folders/9s/8rp0_f2s1n31qbztm3b5_fdh0000gn/T//ccY1wZnf.s 			page 13


 202:eurorack/stmlib/dsp/filter.h ****     h_ = h;
 203:eurorack/stmlib/dsp/filter.h ****   }
 204:eurorack/stmlib/dsp/filter.h ****   
 205:eurorack/stmlib/dsp/filter.h ****   // Set frequency and resonance coefficients from LUT, adjust remaining
 206:eurorack/stmlib/dsp/filter.h ****   // parameter.
 207:eurorack/stmlib/dsp/filter.h ****   inline void set_g_r(float g, float r) {
 208:eurorack/stmlib/dsp/filter.h ****     g_ = g;
 209:eurorack/stmlib/dsp/filter.h ****     r_ = r;
 210:eurorack/stmlib/dsp/filter.h ****     h_ = 1.0f / (1.0f + r_ * g_ + g_ * g_);
 211:eurorack/stmlib/dsp/filter.h ****   }
 212:eurorack/stmlib/dsp/filter.h **** 
 213:eurorack/stmlib/dsp/filter.h ****   // Set frequency from LUT, resonance in true units, adjust the rest.
 214:eurorack/stmlib/dsp/filter.h ****   inline void set_g_q(float g, float resonance) {
 215:eurorack/stmlib/dsp/filter.h ****     g_ = g;
 216:eurorack/stmlib/dsp/filter.h ****     r_ = 1.0f / resonance;
 217:eurorack/stmlib/dsp/filter.h ****     h_ = 1.0f / (1.0f + r_ * g_ + g_ * g_);
 218:eurorack/stmlib/dsp/filter.h ****   }
 219:eurorack/stmlib/dsp/filter.h **** 
 220:eurorack/stmlib/dsp/filter.h ****   // Set frequency and resonance from true units. Various approximations
 221:eurorack/stmlib/dsp/filter.h ****   // are available to avoid the cost of tanf.
 222:eurorack/stmlib/dsp/filter.h ****   template<FrequencyApproximation approximation>
 223:eurorack/stmlib/dsp/filter.h ****   inline void set_f_q(float f, float resonance) {
 224:eurorack/stmlib/dsp/filter.h ****     g_ = OnePole::tan<approximation>(f);
 209              		.loc 5 224 8 is_stmt 0 view .LVU58
 210 0000 064A     		ldr	r2, .L10
 211              	.LBE108:
 212              	.LBE107:
 213              	.LBE106:
 214              		.loc 4 46 20 view .LVU59
 215 0002 0023     		movs	r3, #0
 216              	.LBB123:
 217              	.LBB113:
 218              	.LBB109:
 219              		.loc 5 224 8 view .LVU60
 220 0004 8260     		str	r2, [r0, #8]	@ float
 225:eurorack/stmlib/dsp/filter.h ****     r_ = 1.0f / resonance;
 221              		.loc 5 225 8 view .LVU61
 222 0006 064A     		ldr	r2, .L10+4
 223              	.LBE109:
 224              	.LBE113:
 225              	.LBE123:
 226              		.loc 4 46 20 view .LVU62
 227 0008 4360     		str	r3, [r0, #4]	@ float
  47:eurorack/plaits/dsp/fx/low_pass_gate.h ****     filter_.Init();
 228              		.loc 4 47 5 is_stmt 1 view .LVU63
 229              	.LVL19:
 230              	.LBB124:
 231              	.LBI106:
 182:eurorack/stmlib/dsp/filter.h ****     set_f_q<FREQUENCY_DIRTY>(0.01f, 100.0f);
 232              		.loc 5 182 8 view .LVU64
 233              	.LBE124:
 234              	.LBE105:
 235              	.LBE104:
 183:eurorack/stmlib/dsp/filter.h ****     Reset();
 236              		.loc 5 183 5 view .LVU65
 237              	.LBB131:
 238              	.LBB128:
ARM GAS  /var/folders/9s/8rp0_f2s1n31qbztm3b5_fdh0000gn/T//ccY1wZnf.s 			page 14


 239              	.LBB125:
 240              	.LBB114:
 241              	.LBI107:
 223:eurorack/stmlib/dsp/filter.h ****     g_ = OnePole::tan<approximation>(f);
 242              		.loc 5 223 15 view .LVU66
 243              	.LBB110:
 244              		.loc 5 225 8 is_stmt 0 view .LVU67
 245 000a C260     		str	r2, [r0, #12]	@ float
 246              	.LBE110:
 247              	.LBE114:
 248              	.LBB115:
 249              	.LBB116:
 188:eurorack/stmlib/dsp/filter.h ****   }
 250              		.loc 5 188 25 view .LVU68
 251 000c 8361     		str	r3, [r0, #24]	@ float
 252              	.LBE116:
 253              	.LBE115:
 254              	.LBB119:
 255              	.LBB111:
 226:eurorack/stmlib/dsp/filter.h ****     h_ = 1.0f / (1.0f + r_ * g_ + g_ * g_);
 256              		.loc 5 226 8 view .LVU69
 257 000e 054A     		ldr	r2, .L10+8
 258              	.LBE111:
 259              	.LBE119:
 260              	.LBB120:
 261              	.LBB117:
 188:eurorack/stmlib/dsp/filter.h ****   }
 262              		.loc 5 188 14 view .LVU70
 263 0010 4361     		str	r3, [r0, #20]	@ float
 264              	.LBE117:
 265              	.LBE120:
 266              	.LBE125:
 267              	.LBE128:
 268              	.LBE131:
 269              	.LBB132:
 270              	.LBB133:
 271              	.LBB134:
 272              		.file 6 "eurorack/stmlib/dsp/limiter.h"
   1:eurorack/stmlib/dsp/limiter.h **** // Copyright 2015 Emilie Gillet.
   2:eurorack/stmlib/dsp/limiter.h **** //
   3:eurorack/stmlib/dsp/limiter.h **** // Author: Emilie Gillet (emilie.o.gillet@gmail.com)
   4:eurorack/stmlib/dsp/limiter.h **** //
   5:eurorack/stmlib/dsp/limiter.h **** // Permission is hereby granted, free of charge, to any person obtaining a copy
   6:eurorack/stmlib/dsp/limiter.h **** // of this software and associated documentation files (the "Software"), to deal
   7:eurorack/stmlib/dsp/limiter.h **** // in the Software without restriction, including without limitation the rights
   8:eurorack/stmlib/dsp/limiter.h **** // to use, copy, modify, merge, publish, distribute, sublicense, and/or sell
   9:eurorack/stmlib/dsp/limiter.h **** // copies of the Software, and to permit persons to whom the Software is
  10:eurorack/stmlib/dsp/limiter.h **** // furnished to do so, subject to the following conditions:
  11:eurorack/stmlib/dsp/limiter.h **** // 
  12:eurorack/stmlib/dsp/limiter.h **** // The above copyright notice and this permission notice shall be included in
  13:eurorack/stmlib/dsp/limiter.h **** // all copies or substantial portions of the Software.
  14:eurorack/stmlib/dsp/limiter.h **** // 
  15:eurorack/stmlib/dsp/limiter.h **** // THE SOFTWARE IS PROVIDED "AS IS", WITHOUT WARRANTY OF ANY KIND, EXPRESS OR
  16:eurorack/stmlib/dsp/limiter.h **** // IMPLIED, INCLUDING BUT NOT LIMITED TO THE WARRANTIES OF MERCHANTABILITY,
  17:eurorack/stmlib/dsp/limiter.h **** // FITNESS FOR A PARTICULAR PURPOSE AND NONINFRINGEMENT. IN NO EVENT SHALL THE
  18:eurorack/stmlib/dsp/limiter.h **** // AUTHORS OR COPYRIGHT HOLDERS BE LIABLE FOR ANY CLAIM, DAMAGES OR OTHER
  19:eurorack/stmlib/dsp/limiter.h **** // LIABILITY, WHETHER IN AN ACTION OF CONTRACT, TORT OR OTHERWISE, ARISING FROM,
ARM GAS  /var/folders/9s/8rp0_f2s1n31qbztm3b5_fdh0000gn/T//ccY1wZnf.s 			page 15


  20:eurorack/stmlib/dsp/limiter.h **** // OUT OF OR IN CONNECTION WITH THE SOFTWARE OR THE USE OR OTHER DEALINGS IN
  21:eurorack/stmlib/dsp/limiter.h **** // THE SOFTWARE.
  22:eurorack/stmlib/dsp/limiter.h **** // 
  23:eurorack/stmlib/dsp/limiter.h **** // See http://creativecommons.org/licenses/MIT/ for more information.
  24:eurorack/stmlib/dsp/limiter.h **** //
  25:eurorack/stmlib/dsp/limiter.h **** // -----------------------------------------------------------------------------
  26:eurorack/stmlib/dsp/limiter.h **** //
  27:eurorack/stmlib/dsp/limiter.h **** // Limiter.
  28:eurorack/stmlib/dsp/limiter.h **** 
  29:eurorack/stmlib/dsp/limiter.h **** #ifndef STMLIB_DSP_LIMITER_H_
  30:eurorack/stmlib/dsp/limiter.h **** #define STMLIB_DSP_LIMITER_H_
  31:eurorack/stmlib/dsp/limiter.h **** 
  32:eurorack/stmlib/dsp/limiter.h **** #include "stmlib/stmlib.h"
  33:eurorack/stmlib/dsp/limiter.h **** 
  34:eurorack/stmlib/dsp/limiter.h **** #include <algorithm>
  35:eurorack/stmlib/dsp/limiter.h **** 
  36:eurorack/stmlib/dsp/limiter.h **** #include "stmlib/dsp/dsp.h"
  37:eurorack/stmlib/dsp/limiter.h **** #include "stmlib/dsp/filter.h"
  38:eurorack/stmlib/dsp/limiter.h **** 
  39:eurorack/stmlib/dsp/limiter.h **** namespace stmlib {
  40:eurorack/stmlib/dsp/limiter.h **** 
  41:eurorack/stmlib/dsp/limiter.h **** class Limiter {
  42:eurorack/stmlib/dsp/limiter.h ****  public:
  43:eurorack/stmlib/dsp/limiter.h ****   Limiter() { }
  44:eurorack/stmlib/dsp/limiter.h ****   ~Limiter() { }
  45:eurorack/stmlib/dsp/limiter.h **** 
  46:eurorack/stmlib/dsp/limiter.h ****   void Init() {
  47:eurorack/stmlib/dsp/limiter.h ****     peak_ = 0.5f;
 273              		.loc 6 47 11 view .LVU71
 274 0012 4FF07C53 		mov	r3, #1056964608
 275              	.LBE134:
 276              	.LBE133:
 277              	.LBE132:
 278              	.LBB137:
 279              	.LBB129:
 280              	.LBB126:
 281              	.LBB121:
 282              	.LBB112:
 283              		.loc 5 226 8 view .LVU72
 284 0016 0261     		str	r2, [r0, #16]	@ float
 285              	.LVL20:
 286              		.loc 5 226 8 view .LVU73
 287              	.LBE112:
 288              	.LBE121:
 289              	.LBE126:
 290              	.LBE129:
 291              	.LBE137:
 184:eurorack/stmlib/dsp/filter.h ****   }
 292              		.loc 5 184 5 is_stmt 1 view .LVU74
 293              	.LBB138:
 294              	.LBB130:
 295              	.LBB127:
 296              	.LBB122:
 297              	.LBI115:
 187:eurorack/stmlib/dsp/filter.h ****     state_1_ = state_2_ = 0.0f;
 298              		.loc 5 187 8 view .LVU75
 299              	.LBB118:
ARM GAS  /var/folders/9s/8rp0_f2s1n31qbztm3b5_fdh0000gn/T//ccY1wZnf.s 			page 16


 188:eurorack/stmlib/dsp/filter.h ****   }
 300              		.loc 5 188 5 view .LVU76
 188:eurorack/stmlib/dsp/filter.h ****   }
 301              		.loc 5 188 5 is_stmt 0 view .LVU77
 302              	.LBE118:
 303              	.LBE122:
 304              	.LBE127:
 305              	.LBE130:
 306              	.LBE138:
  73:eurorack/plaits/dsp/voice.h ****     Reset();
 307              		.loc 3 73 5 is_stmt 1 view .LVU78
 308              	.LBB139:
 309              	.LBI132:
  74:eurorack/plaits/dsp/voice.h ****   }
  75:eurorack/plaits/dsp/voice.h ****   
  76:eurorack/plaits/dsp/voice.h ****   void Reset() {
 310              		.loc 3 76 8 view .LVU79
 311              	.LBE139:
  77:eurorack/plaits/dsp/voice.h ****     limiter_.Init();
 312              		.loc 3 77 5 view .LVU80
 313              	.LBB140:
 314              	.LBB136:
 315              	.LBI133:
  46:eurorack/stmlib/dsp/limiter.h ****     peak_ = 0.5f;
 316              		.loc 6 46 8 view .LVU81
 317              	.LBB135:
 318              		.loc 6 47 5 view .LVU82
 319              		.loc 6 47 11 is_stmt 0 view .LVU83
 320 0018 0360     		str	r3, [r0]	@ float
 321              	.LVL21:
 322              		.loc 6 47 11 view .LVU84
 323              	.LBE135:
 324              	.LBE136:
 325              	.LBE140:
  74:eurorack/plaits/dsp/voice.h ****   }
 326              		.loc 3 74 3 view .LVU85
 327 001a 7047     		bx	lr
 328              	.L11:
 329              		.align	2
 330              	.L10:
 331 001c 22BA003D 		.word	1023457826
 332 0020 0AD7233C 		.word	1008981770
 333 0024 CAAA7F3F 		.word	1065331402
 334              		.cfi_endproc
 335              	.LFE2031:
 337              		.section	.text._ZN6plaits20ChannelPostProcessor7ProcessEfbfffPfPsjj,"axG",%progbits,_ZN6plaits20Ch
 338              		.align	1
 339              		.weak	_ZN6plaits20ChannelPostProcessor7ProcessEfbfffPfPsjj
 340              		.syntax unified
 341              		.thumb
 342              		.thumb_func
 344              	_ZN6plaits20ChannelPostProcessor7ProcessEfbfffPfPsjj:
 345              	.LVL22:
 346              	.LFB2033:
  78:eurorack/plaits/dsp/voice.h ****   }
  79:eurorack/plaits/dsp/voice.h ****   
  80:eurorack/plaits/dsp/voice.h ****   void Process(
ARM GAS  /var/folders/9s/8rp0_f2s1n31qbztm3b5_fdh0000gn/T//ccY1wZnf.s 			page 17


 347              		.loc 3 80 8 is_stmt 1 view -0
 348              		.cfi_startproc
 349              		@ args = 8, pretend = 0, frame = 0
 350              		@ frame_needed = 0, uses_anonymous_args = 0
  81:eurorack/plaits/dsp/voice.h ****       float gain,
  82:eurorack/plaits/dsp/voice.h ****       bool bypass_lpg,
  83:eurorack/plaits/dsp/voice.h ****       float low_pass_gate_gain,
  84:eurorack/plaits/dsp/voice.h ****       float low_pass_gate_frequency,
  85:eurorack/plaits/dsp/voice.h ****       float low_pass_gate_hf_bleed,
  86:eurorack/plaits/dsp/voice.h ****       float* in,
  87:eurorack/plaits/dsp/voice.h ****       short* out,
  88:eurorack/plaits/dsp/voice.h ****       size_t size,
  89:eurorack/plaits/dsp/voice.h ****       size_t stride) {
  90:eurorack/plaits/dsp/voice.h ****     if (gain < 0.0f) {
 351              		.loc 3 90 5 is_stmt 0 view .LVU87
 352 0000 B5EEC00A 		vcmpe.f32	s0, #0
  80:eurorack/plaits/dsp/voice.h ****       float gain,
 353              		.loc 3 80 8 view .LVU88
 354 0004 70B5     		push	{r4, r5, r6, lr}
 355              		.cfi_def_cfa_offset 16
 356              		.cfi_offset 4, -16
 357              		.cfi_offset 5, -12
 358              		.cfi_offset 6, -8
 359              		.cfi_offset 14, -4
 360              		.loc 3 90 5 view .LVU89
 361 0006 F1EE10FA 		vmrs	APSR_nzcv, FPSCR
  80:eurorack/plaits/dsp/voice.h ****       float gain,
 362              		.loc 3 80 8 view .LVU90
 363 000a 049C     		ldr	r4, [sp, #16]
 364              		.loc 3 90 5 is_stmt 1 view .LVU91
 365 000c 34D5     		bpl	.L13
  91:eurorack/plaits/dsp/voice.h ****       limiter_.Process(-gain, in, size);
 366              		.loc 3 91 7 view .LVU92
 367              		.loc 3 91 23 is_stmt 0 view .LVU93
 368 000e F1EE405A 		vneg.f32	s11, s0
 369              	.LVL23:
 370              	.LBB168:
 371              	.LBI168:
  48:eurorack/stmlib/dsp/limiter.h ****   }
  49:eurorack/stmlib/dsp/limiter.h **** 
  50:eurorack/stmlib/dsp/limiter.h ****   void Process(float pre_gain, float* in_out, size_t size) {
 372              		.loc 6 50 8 is_stmt 1 view .LVU94
 373              	.LBE168:
 374              		.loc 3 91 23 is_stmt 0 view .LVU95
 375 0012 2646     		mov	r6, r4
 376 0014 1546     		mov	r5, r2
 377              	.LVL24:
 378              	.L17:
 379              	.LBB174:
 380              	.LBB169:
  51:eurorack/stmlib/dsp/limiter.h ****     while (size--) {
 381              		.loc 6 51 5 is_stmt 1 view .LVU96
 382              		.loc 6 51 16 view .LVU97
 383 0016 013E     		subs	r6, r6, #1
 384              	.LVL25:
 385              		.loc 6 51 16 is_stmt 0 view .LVU98
 386 0018 B7EE000A 		vmov.f32	s0, #1.0e+0
ARM GAS  /var/folders/9s/8rp0_f2s1n31qbztm3b5_fdh0000gn/T//ccY1wZnf.s 			page 18


 387 001c B6F1FF3F 		cmp	r6, #-1
 388 0020 2AD0     		beq	.L13
 389              	.LBB170:
  52:eurorack/stmlib/dsp/limiter.h ****       float s = *in_out * pre_gain;
 390              		.loc 6 52 7 is_stmt 1 view .LVU99
 391              		.loc 6 52 13 is_stmt 0 view .LVU100
 392 0022 D5ED007A 		vldr.32	s15, [r5]
 393              	.LBB171:
  53:eurorack/stmlib/dsp/limiter.h ****       SLOPE(peak_, fabsf(s), 0.05f, 0.00002f);
 394              		.loc 6 53 7 view .LVU101
 395 0026 90ED007A 		vldr.32	s14, [r0]
 396              	.LBE171:
  52:eurorack/stmlib/dsp/limiter.h ****       float s = *in_out * pre_gain;
 397              		.loc 6 52 13 view .LVU102
 398 002a 65EEA77A 		vmul.f32	s15, s11, s15
 399              	.LVL26:
 400              		.loc 6 53 7 is_stmt 1 view .LVU103
 401              	.LBB172:
 402              		.loc 6 53 7 view .LVU104
 403 002e 9FED4E6A 		vldr.32	s12, .L33
 404 0032 9FED4E5A 		vldr.32	s10, .L33+4
 405 0036 F0EEE76A 		vabs.f32	s13, s15
 406 003a 76EEC76A 		vsub.f32	s13, s13, s14
 407              	.LVL27:
 408              		.loc 6 53 7 view .LVU105
 409 003e F5EEC06A 		vcmpe.f32	s13, #0
 410 0042 F1EE10FA 		vmrs	APSR_nzcv, FPSCR
 411 0046 36FE056A 		vselgt.f32	s12, s12, s10
 412 004a A6EE867A 		vfma.f32	s14, s13, s12
 413              	.LBE172:
  54:eurorack/stmlib/dsp/limiter.h ****       float gain = (peak_ <= 1.0f ? 1.0f : 1.0f / peak_);
 414              		.loc 6 54 35 is_stmt 0 view .LVU106
 415 004e B4EEC07A 		vcmpe.f32	s14, s0
 416              	.LBB173:
  53:eurorack/stmlib/dsp/limiter.h ****       SLOPE(peak_, fabsf(s), 0.05f, 0.00002f);
 417              		.loc 6 53 7 view .LVU107
 418 0052 80ED007A 		vstr.32	s14, [r0]
 419              	.LBE173:
  53:eurorack/stmlib/dsp/limiter.h ****       SLOPE(peak_, fabsf(s), 0.05f, 0.00002f);
 420              		.loc 6 53 46 is_stmt 1 view .LVU108
 421              		.loc 6 54 7 view .LVU109
 422              		.loc 6 54 35 is_stmt 0 view .LVU110
 423 0056 F1EE10FA 		vmrs	APSR_nzcv, FPSCR
 424 005a 88BF     		it	hi
 425 005c C0EE076A 		vdivhi.f32	s13, s0, s14
 426              	.LVL28:
  55:eurorack/stmlib/dsp/limiter.h ****       *in_out++ = s * gain * 0.8f;
 427              		.loc 6 55 28 view .LVU111
 428 0060 9FED437A 		vldr.32	s14, .L33+8
  54:eurorack/stmlib/dsp/limiter.h ****       float gain = (peak_ <= 1.0f ? 1.0f : 1.0f / peak_);
 429              		.loc 6 54 35 view .LVU112
 430 0064 98BF     		it	ls
 431 0066 F0EE406A 		vmovls.f32	s13, s0
 432              	.LVL29:
 433              		.loc 6 55 7 is_stmt 1 view .LVU113
 434              		.loc 6 55 21 is_stmt 0 view .LVU114
 435 006a 67EEA67A 		vmul.f32	s15, s15, s13
ARM GAS  /var/folders/9s/8rp0_f2s1n31qbztm3b5_fdh0000gn/T//ccY1wZnf.s 			page 19


 436              	.LVL30:
 437              		.loc 6 55 28 view .LVU115
 438 006e 67EE877A 		vmul.f32	s15, s15, s14
 439              		.loc 6 55 17 view .LVU116
 440 0072 E5EC017A 		vstmia.32	r5!, {s15}
 441              	.LVL31:
 442              		.loc 6 55 17 view .LVU117
 443              	.LBE170:
  51:eurorack/stmlib/dsp/limiter.h ****       float s = *in_out * pre_gain;
 444              		.loc 6 51 5 view .LVU118
 445 0076 CEE7     		b	.L17
 446              	.LVL32:
 447              	.L13:
  51:eurorack/stmlib/dsp/limiter.h ****       float s = *in_out * pre_gain;
 448              		.loc 6 51 5 view .LVU119
 449              	.LBE169:
 450              	.LBE174:
  92:eurorack/plaits/dsp/voice.h ****     }
  93:eurorack/plaits/dsp/voice.h ****     const float post_gain = (gain < 0.0f ? 1.0f : gain) * -32767.0f;
 451              		.loc 3 93 17 discriminator 4 view .LVU120
 452 0078 DFED3E7A 		vldr.32	s15, .L33+12
 453              	.LBB175:
 454              	.LBB176:
 455              	.LBB177:
  48:eurorack/plaits/dsp/fx/low_pass_gate.h ****   }
  49:eurorack/plaits/dsp/fx/low_pass_gate.h ****   
  50:eurorack/plaits/dsp/fx/low_pass_gate.h ****   void Process(
  51:eurorack/plaits/dsp/fx/low_pass_gate.h ****       float gain,
  52:eurorack/plaits/dsp/fx/low_pass_gate.h ****       float frequency,
  53:eurorack/plaits/dsp/fx/low_pass_gate.h ****       float hf_bleed,
  54:eurorack/plaits/dsp/fx/low_pass_gate.h ****       float* in_out,
  55:eurorack/plaits/dsp/fx/low_pass_gate.h ****       size_t size) {
  56:eurorack/plaits/dsp/fx/low_pass_gate.h ****     stmlib::ParameterInterpolator gain_modulation(&previous_gain_, gain, size);
  57:eurorack/plaits/dsp/fx/low_pass_gate.h ****     filter_.set_f_q<stmlib::FREQUENCY_DIRTY>(frequency, 0.4f);
  58:eurorack/plaits/dsp/fx/low_pass_gate.h ****     while (size--) {
  59:eurorack/plaits/dsp/fx/low_pass_gate.h ****       const float s = *in_out * gain_modulation.Next();
  60:eurorack/plaits/dsp/fx/low_pass_gate.h ****       const float lp = filter_.Process<stmlib::FILTER_MODE_LOW_PASS>(s);
  61:eurorack/plaits/dsp/fx/low_pass_gate.h ****       *in_out++ = lp + (s - lp) * hf_bleed;
  62:eurorack/plaits/dsp/fx/low_pass_gate.h ****     }
  63:eurorack/plaits/dsp/fx/low_pass_gate.h ****   }
  64:eurorack/plaits/dsp/fx/low_pass_gate.h ****   
  65:eurorack/plaits/dsp/fx/low_pass_gate.h ****   void Process(
  66:eurorack/plaits/dsp/fx/low_pass_gate.h ****       float gain,
  67:eurorack/plaits/dsp/fx/low_pass_gate.h ****       float frequency,
  68:eurorack/plaits/dsp/fx/low_pass_gate.h ****       float hf_bleed,
  69:eurorack/plaits/dsp/fx/low_pass_gate.h ****       float* in,
  70:eurorack/plaits/dsp/fx/low_pass_gate.h ****       short* out,
  71:eurorack/plaits/dsp/fx/low_pass_gate.h ****       size_t size,
  72:eurorack/plaits/dsp/fx/low_pass_gate.h ****       size_t stride) {
  73:eurorack/plaits/dsp/fx/low_pass_gate.h ****     stmlib::ParameterInterpolator gain_modulation(&previous_gain_, gain, size);
  74:eurorack/plaits/dsp/fx/low_pass_gate.h ****     filter_.set_f_q<stmlib::FREQUENCY_DIRTY>(frequency, 0.4f);
  75:eurorack/plaits/dsp/fx/low_pass_gate.h ****     while (size--) {
  76:eurorack/plaits/dsp/fx/low_pass_gate.h ****       const float s = *in++ * gain_modulation.Next();
  77:eurorack/plaits/dsp/fx/low_pass_gate.h ****       const float lp = filter_.Process<stmlib::FILTER_MODE_LOW_PASS>(s);
  78:eurorack/plaits/dsp/fx/low_pass_gate.h ****       *out = stmlib::Clip16(1 + static_cast<int32_t>(lp + (s - lp) * hf_bleed));
  79:eurorack/plaits/dsp/fx/low_pass_gate.h ****       out += stride;
 456              		.loc 4 79 11 discriminator 4 view .LVU121
ARM GAS  /var/folders/9s/8rp0_f2s1n31qbztm3b5_fdh0000gn/T//ccY1wZnf.s 			page 20


 457 007c 059D     		ldr	r5, [sp, #20]
 458              	.LBE177:
 459              	.LBE176:
 460              	.LBE175:
 461              		.loc 3 93 17 discriminator 4 view .LVU122
 462 007e 20EE270A 		vmul.f32	s0, s0, s15
 463              	.LVL33:
  94:eurorack/plaits/dsp/voice.h ****     if (!bypass_lpg) {
 464              		.loc 3 94 5 is_stmt 1 discriminator 4 view .LVU123
 465              	.LBB217:
 466              	.LBB214:
 467              	.LBB190:
 468              		.loc 4 79 11 is_stmt 0 discriminator 4 view .LVU124
 469 0082 6D00     		lsls	r5, r5, #1
 470              	.LBE190:
 471              	.LBE214:
 472              	.LBE217:
 473              		.loc 3 94 5 discriminator 4 view .LVU125
 474 0084 0029     		cmp	r1, #0
 475 0086 5ED1     		bne	.L18
  95:eurorack/plaits/dsp/voice.h ****       lpg_.Process(
 476              		.loc 3 95 7 is_stmt 1 view .LVU126
 477              	.LVL34:
 478              	.LBB218:
 479              	.LBI175:
  65:eurorack/plaits/dsp/fx/low_pass_gate.h ****       float gain,
 480              		.loc 4 65 8 view .LVU127
 481              	.LBB215:
  73:eurorack/plaits/dsp/fx/low_pass_gate.h ****     filter_.set_f_q<stmlib::FREQUENCY_DIRTY>(frequency, 0.4f);
 482              		.loc 4 73 5 view .LVU128
 483              	.LBB191:
 484              	.LBI191:
 485              		.file 7 "eurorack/stmlib/dsp/parameter_interpolator.h"
   1:eurorack/stmlib/dsp/parameter_interpolator.h **** // Copyright 2015 Emilie Gillet.
   2:eurorack/stmlib/dsp/parameter_interpolator.h **** //
   3:eurorack/stmlib/dsp/parameter_interpolator.h **** // Author: Emilie Gillet (emilie.o.gillet@gmail.com)
   4:eurorack/stmlib/dsp/parameter_interpolator.h **** //
   5:eurorack/stmlib/dsp/parameter_interpolator.h **** // Permission is hereby granted, free of charge, to any person obtaining a copy
   6:eurorack/stmlib/dsp/parameter_interpolator.h **** // of this software and associated documentation files (the "Software"), to deal
   7:eurorack/stmlib/dsp/parameter_interpolator.h **** // in the Software without restriction, including without limitation the rights
   8:eurorack/stmlib/dsp/parameter_interpolator.h **** // to use, copy, modify, merge, publish, distribute, sublicense, and/or sell
   9:eurorack/stmlib/dsp/parameter_interpolator.h **** // copies of the Software, and to permit persons to whom the Software is
  10:eurorack/stmlib/dsp/parameter_interpolator.h **** // furnished to do so, subject to the following conditions:
  11:eurorack/stmlib/dsp/parameter_interpolator.h **** // 
  12:eurorack/stmlib/dsp/parameter_interpolator.h **** // The above copyright notice and this permission notice shall be included in
  13:eurorack/stmlib/dsp/parameter_interpolator.h **** // all copies or substantial portions of the Software.
  14:eurorack/stmlib/dsp/parameter_interpolator.h **** // 
  15:eurorack/stmlib/dsp/parameter_interpolator.h **** // THE SOFTWARE IS PROVIDED "AS IS", WITHOUT WARRANTY OF ANY KIND, EXPRESS OR
  16:eurorack/stmlib/dsp/parameter_interpolator.h **** // IMPLIED, INCLUDING BUT NOT LIMITED TO THE WARRANTIES OF MERCHANTABILITY,
  17:eurorack/stmlib/dsp/parameter_interpolator.h **** // FITNESS FOR A PARTICULAR PURPOSE AND NONINFRINGEMENT. IN NO EVENT SHALL THE
  18:eurorack/stmlib/dsp/parameter_interpolator.h **** // AUTHORS OR COPYRIGHT HOLDERS BE LIABLE FOR ANY CLAIM, DAMAGES OR OTHER
  19:eurorack/stmlib/dsp/parameter_interpolator.h **** // LIABILITY, WHETHER IN AN ACTION OF CONTRACT, TORT OR OTHERWISE, ARISING FROM,
  20:eurorack/stmlib/dsp/parameter_interpolator.h **** // OUT OF OR IN CONNECTION WITH THE SOFTWARE OR THE USE OR OTHER DEALINGS IN
  21:eurorack/stmlib/dsp/parameter_interpolator.h **** // THE SOFTWARE.
  22:eurorack/stmlib/dsp/parameter_interpolator.h **** // 
  23:eurorack/stmlib/dsp/parameter_interpolator.h **** // See http://creativecommons.org/licenses/MIT/ for more information.
  24:eurorack/stmlib/dsp/parameter_interpolator.h **** //
ARM GAS  /var/folders/9s/8rp0_f2s1n31qbztm3b5_fdh0000gn/T//ccY1wZnf.s 			page 21


  25:eurorack/stmlib/dsp/parameter_interpolator.h **** // -----------------------------------------------------------------------------
  26:eurorack/stmlib/dsp/parameter_interpolator.h **** //
  27:eurorack/stmlib/dsp/parameter_interpolator.h **** // Linear interpolation of parameters in rendering loops.
  28:eurorack/stmlib/dsp/parameter_interpolator.h **** 
  29:eurorack/stmlib/dsp/parameter_interpolator.h **** #ifndef STMLIB_DSP_PARAMETER_INTERPOLATOR_H_
  30:eurorack/stmlib/dsp/parameter_interpolator.h **** #define STMLIB_DSP_PARAMETER_INTERPOLATOR_H_
  31:eurorack/stmlib/dsp/parameter_interpolator.h **** 
  32:eurorack/stmlib/dsp/parameter_interpolator.h **** #include "stmlib/stmlib.h"
  33:eurorack/stmlib/dsp/parameter_interpolator.h **** 
  34:eurorack/stmlib/dsp/parameter_interpolator.h **** namespace stmlib {
  35:eurorack/stmlib/dsp/parameter_interpolator.h **** 
  36:eurorack/stmlib/dsp/parameter_interpolator.h **** class ParameterInterpolator {
  37:eurorack/stmlib/dsp/parameter_interpolator.h ****  public:
  38:eurorack/stmlib/dsp/parameter_interpolator.h ****   ParameterInterpolator() { }
  39:eurorack/stmlib/dsp/parameter_interpolator.h ****   ParameterInterpolator(float* state, float new_value, size_t size) {
 486              		.loc 7 39 3 view .LVU129
 487              	.LBE191:
 488              	.LBE215:
 489              	.LBE218:
  40:eurorack/stmlib/dsp/parameter_interpolator.h ****     Init(state, new_value, size);
 490              		.loc 7 40 5 view .LVU130
 491              	.LBB219:
 492              	.LBB216:
 493              	.LBB198:
 494              	.LBB192:
 495              	.LBI192:
  41:eurorack/stmlib/dsp/parameter_interpolator.h ****   }
  42:eurorack/stmlib/dsp/parameter_interpolator.h **** 
  43:eurorack/stmlib/dsp/parameter_interpolator.h ****   ParameterInterpolator(float* state, float new_value, float step) {
  44:eurorack/stmlib/dsp/parameter_interpolator.h ****     state_ = state;
  45:eurorack/stmlib/dsp/parameter_interpolator.h ****     value_ = *state;
  46:eurorack/stmlib/dsp/parameter_interpolator.h ****     increment_ = (new_value - *state) * step;
  47:eurorack/stmlib/dsp/parameter_interpolator.h ****   }
  48:eurorack/stmlib/dsp/parameter_interpolator.h **** 
  49:eurorack/stmlib/dsp/parameter_interpolator.h ****   ~ParameterInterpolator() {
  50:eurorack/stmlib/dsp/parameter_interpolator.h ****     *state_ = value_;
  51:eurorack/stmlib/dsp/parameter_interpolator.h ****   }
  52:eurorack/stmlib/dsp/parameter_interpolator.h ****   
  53:eurorack/stmlib/dsp/parameter_interpolator.h ****   inline void Init(float* state, float new_value, size_t size) {
 496              		.loc 7 53 15 view .LVU131
 497              	.LBB193:
  54:eurorack/stmlib/dsp/parameter_interpolator.h ****     state_ = state;
 498              		.loc 7 54 5 view .LVU132
  55:eurorack/stmlib/dsp/parameter_interpolator.h ****     value_ = *state;
 499              		.loc 7 55 5 view .LVU133
 500              		.loc 7 55 14 is_stmt 0 view .LVU134
 501 0088 90ED016A 		vldr.32	s12, [r0, #4]
 502              	.LVL35:
  56:eurorack/stmlib/dsp/parameter_interpolator.h ****     increment_ = (new_value - *state) / static_cast<float>(size);
 503              		.loc 7 56 5 is_stmt 1 view .LVU135
 504              		.loc 7 56 41 is_stmt 0 view .LVU136
 505 008c 07EE904A 		vmov	s15, r4	@ int
 506              	.LBE193:
 507              	.LBE192:
 508              	.LBE198:
 509              	.LBB199:
 510              	.LBB200:
ARM GAS  /var/folders/9s/8rp0_f2s1n31qbztm3b5_fdh0000gn/T//ccY1wZnf.s 			page 22


 225:eurorack/stmlib/dsp/filter.h ****     h_ = 1.0f / (1.0f + r_ * g_ + g_ * g_);
 511              		.loc 5 225 8 view .LVU137
 512 0090 F0EE045A 		vmov.f32	s11, #2.5e+0
 513              	.LBE200:
 514              	.LBE199:
 515              	.LBB207:
 516              	.LBB196:
 517              	.LBB194:
 518              		.loc 7 56 29 view .LVU138
 519 0094 B0EE467A 		vmov.f32	s14, s12
 520              		.loc 7 56 41 view .LVU139
 521 0098 F8EE677A 		vcvt.f32.u32	s15, s15
 522              	.LBE194:
 523              	.LBE196:
 524              	.LBE207:
 525              	.LBB208:
 526              	.LBB205:
 225:eurorack/stmlib/dsp/filter.h ****     h_ = 1.0f / (1.0f + r_ * g_ + g_ * g_);
 527              		.loc 5 225 8 view .LVU140
 528 009c C0ED035A 		vstr.32	s11, [r0, #12]
 529              	.LBE205:
 530              	.LBE208:
 531              	.LBB209:
 532              	.LBB197:
 533              	.LBB195:
 534              		.loc 7 56 29 view .LVU141
 535 00a0 90EE207A 		vfnms.f32	s14, s0, s1
 536              		.loc 7 56 39 view .LVU142
 537 00a4 C7EE273A 		vdiv.f32	s7, s14, s15
 538              	.LVL36:
 539              		.loc 7 56 39 view .LVU143
 540              	.LBE195:
 541              	.LBE197:
 542              	.LBE209:
  74:eurorack/plaits/dsp/fx/low_pass_gate.h ****     while (size--) {
 543              		.loc 4 74 5 is_stmt 1 view .LVU144
 544              	.LBB210:
 545              	.LBI199:
 223:eurorack/stmlib/dsp/filter.h ****     g_ = OnePole::tan<approximation>(f);
 546              		.loc 5 223 15 view .LVU145
 547              	.LBB206:
 548              	.LBB201:
 549              	.LBI201:
 107:eurorack/stmlib/dsp/filter.h ****     if (approximation == FREQUENCY_EXACT) {
 550              		.loc 5 107 23 view .LVU146
 551              	.LBB202:
 115:eurorack/stmlib/dsp/filter.h ****     } else if (approximation == FREQUENCY_FAST) {
 552              		.loc 5 115 30 is_stmt 0 view .LVU147
 553 00a8 9FED337A 		vldr.32	s14, .L33+16
 115:eurorack/stmlib/dsp/filter.h ****     } else if (approximation == FREQUENCY_FAST) {
 554              		.loc 5 115 26 view .LVU148
 555 00ac DFED337A 		vldr.32	s15, .L33+20
 115:eurorack/stmlib/dsp/filter.h ****     } else if (approximation == FREQUENCY_FAST) {
 556              		.loc 5 115 30 view .LVU149
 557 00b0 21EE077A 		vmul.f32	s14, s2, s14
 115:eurorack/stmlib/dsp/filter.h ****     } else if (approximation == FREQUENCY_FAST) {
 558              		.loc 5 115 26 view .LVU150
ARM GAS  /var/folders/9s/8rp0_f2s1n31qbztm3b5_fdh0000gn/T//ccY1wZnf.s 			page 23


 559 00b4 E1EE077A 		vfma.f32	s15, s2, s14
 560              	.LBE202:
 561              	.LBE201:
 562              		.loc 5 226 23 view .LVU151
 563 00b8 B7EE007A 		vmov.f32	s14, #1.0e+0
 564              	.LBB204:
 565              	.LBB203:
 115:eurorack/stmlib/dsp/filter.h ****     } else if (approximation == FREQUENCY_FAST) {
 566              		.loc 5 115 37 view .LVU152
 567 00bc 21EE271A 		vmul.f32	s2, s2, s15
 568              	.LVL37:
 115:eurorack/stmlib/dsp/filter.h ****     } else if (approximation == FREQUENCY_FAST) {
 569              		.loc 5 115 37 view .LVU153
 570              	.LBE203:
 571              	.LBE204:
 572              		.loc 5 226 23 view .LVU154
 573 00c0 F0EE477A 		vmov.f32	s15, s14
 224:eurorack/stmlib/dsp/filter.h ****     r_ = 1.0f / resonance;
 574              		.loc 5 224 8 view .LVU155
 575 00c4 80ED021A 		vstr.32	s2, [r0, #8]
 576              		.loc 5 226 23 view .LVU156
 577 00c8 E1EE257A 		vfma.f32	s15, s2, s11
 578              		.loc 5 226 33 view .LVU157
 579 00cc E1EE017A 		vfma.f32	s15, s2, s2
 580              		.loc 5 226 15 view .LVU158
 581 00d0 C7EE274A 		vdiv.f32	s9, s14, s15
 582              		.loc 5 226 8 view .LVU159
 583 00d4 C0ED044A 		vstr.32	s9, [r0, #16]
 584              	.LVL38:
 585              	.L20:
 586              		.loc 5 226 8 view .LVU160
 587              	.LBE206:
 588              	.LBE210:
  75:eurorack/plaits/dsp/fx/low_pass_gate.h ****       const float s = *in++ * gain_modulation.Next();
 589              		.loc 4 75 5 is_stmt 1 view .LVU161
  75:eurorack/plaits/dsp/fx/low_pass_gate.h ****       const float s = *in++ * gain_modulation.Next();
 590              		.loc 4 75 16 view .LVU162
 591 00d8 013C     		subs	r4, r4, #1
 592              	.LVL39:
  75:eurorack/plaits/dsp/fx/low_pass_gate.h ****       const float s = *in++ * gain_modulation.Next();
 593              		.loc 4 75 16 is_stmt 0 view .LVU163
 594 00da 31D3     		bcc	.L19
 595              	.LBB211:
  76:eurorack/plaits/dsp/fx/low_pass_gate.h ****       const float lp = filter_.Process<stmlib::FILTER_MODE_LOW_PASS>(s);
 596              		.loc 4 76 7 is_stmt 1 view .LVU164
 597              	.LVL40:
 598              	.LBB178:
 599              	.LBB179:
 227:eurorack/stmlib/dsp/filter.h ****   }
 228:eurorack/stmlib/dsp/filter.h ****   
 229:eurorack/stmlib/dsp/filter.h ****   template<FilterMode mode>
 230:eurorack/stmlib/dsp/filter.h ****   inline float Process(float in) {
 231:eurorack/stmlib/dsp/filter.h ****     float hp, bp, lp;
 232:eurorack/stmlib/dsp/filter.h ****     hp = (in - r_ * state_1_ - g_ * state_1_ - state_2_) * h_;
 600              		.loc 5 232 21 is_stmt 0 view .LVU165
 601 00dc D0ED056A 		vldr.32	s13, [r0, #20]
 602              	.LBE179:
ARM GAS  /var/folders/9s/8rp0_f2s1n31qbztm3b5_fdh0000gn/T//ccY1wZnf.s 			page 24


 603              	.LBE178:
 604              	.LBB181:
 605              	.LBB182:
  57:eurorack/stmlib/dsp/parameter_interpolator.h ****   }
  58:eurorack/stmlib/dsp/parameter_interpolator.h **** 
  59:eurorack/stmlib/dsp/parameter_interpolator.h ****   inline float Next() {
  60:eurorack/stmlib/dsp/parameter_interpolator.h ****     value_ += increment_;
 606              		.loc 7 60 12 view .LVU166
 607 00e0 36EE236A 		vadd.f32	s12, s12, s7
 608              	.LVL41:
 609              		.loc 7 60 12 view .LVU167
 610              	.LBE182:
 611              	.LBE181:
  76:eurorack/plaits/dsp/fx/low_pass_gate.h ****       const float lp = filter_.Process<stmlib::FILTER_MODE_LOW_PASS>(s);
 612              		.loc 4 76 23 view .LVU168
 613 00e4 B2EC015A 		vldmia.32	r2!, {s10}
 614              	.LVL42:
 615              	.LBB184:
 616              	.LBI181:
  59:eurorack/stmlib/dsp/parameter_interpolator.h ****     value_ += increment_;
 617              		.loc 7 59 16 is_stmt 1 view .LVU169
 618              	.LBB183:
 619              		.loc 7 60 5 view .LVU170
  61:eurorack/stmlib/dsp/parameter_interpolator.h ****     return value_;
 620              		.loc 7 61 5 view .LVU171
 621              		.loc 7 61 5 is_stmt 0 view .LVU172
 622              	.LBE183:
 623              	.LBE184:
  77:eurorack/plaits/dsp/fx/low_pass_gate.h ****       *out = stmlib::Clip16(1 + static_cast<int32_t>(lp + (s - lp) * hf_bleed));
 624              		.loc 4 77 7 is_stmt 1 view .LVU173
 625              	.LBB185:
 626              	.LBI178:
 230:eurorack/stmlib/dsp/filter.h ****     float hp, bp, lp;
 627              		.loc 5 230 16 view .LVU174
 628              	.LBB180:
 629              		.loc 5 232 14 is_stmt 0 view .LVU175
 630 00e8 25EEE67A 		vnmul.f32	s14, s11, s13
 631              		.loc 5 232 48 view .LVU176
 632 00ec D0ED067A 		vldr.32	s15, [r0, #24]
 633              		.loc 5 232 14 view .LVU177
 634 00f0 A5EE067A 		vfma.f32	s14, s10, s12
 635              		.loc 5 232 30 view .LVU178
 636 00f4 A1EE667A 		vfms.f32	s14, s2, s13
 637              		.loc 5 232 46 view .LVU179
 638 00f8 37EE677A 		vsub.f32	s14, s14, s15
 639              		.loc 5 232 8 view .LVU180
 640 00fc 27EE247A 		vmul.f32	s14, s14, s9
 641              	.LVL43:
 233:eurorack/stmlib/dsp/filter.h ****     bp = g_ * hp + state_1_;
 642              		.loc 5 233 8 view .LVU181
 643 0100 E1EE076A 		vfma.f32	s13, s2, s14
 644              	.LVL44:
 234:eurorack/stmlib/dsp/filter.h ****     state_1_ = g_ * hp + bp;
 235:eurorack/stmlib/dsp/filter.h ****     lp = g_ * bp + state_2_;
 645              		.loc 5 235 8 view .LVU182
 646 0104 E1EE267A 		vfma.f32	s15, s2, s13
 647              	.LVL45:
ARM GAS  /var/folders/9s/8rp0_f2s1n31qbztm3b5_fdh0000gn/T//ccY1wZnf.s 			page 25


 234:eurorack/stmlib/dsp/filter.h ****     state_1_ = g_ * hp + bp;
 648              		.loc 5 234 24 view .LVU183
 649 0108 B0EE664A 		vmov.f32	s8, s13
 650 010c A1EE074A 		vfma.f32	s8, s2, s14
 236:eurorack/stmlib/dsp/filter.h ****     state_2_ = g_ * bp + lp;
 651              		.loc 5 236 24 view .LVU184
 652 0110 B0EE677A 		vmov.f32	s14, s15
 653              	.LVL46:
 654              		.loc 5 236 24 view .LVU185
 655 0114 A1EE267A 		vfma.f32	s14, s2, s13
 234:eurorack/stmlib/dsp/filter.h ****     state_1_ = g_ * hp + bp;
 656              		.loc 5 234 14 view .LVU186
 657 0118 80ED054A 		vstr.32	s8, [r0, #20]
 658              	.LVL47:
 659              		.loc 5 236 14 view .LVU187
 660 011c 80ED067A 		vstr.32	s14, [r0, #24]
 661              	.LVL48:
 662              		.loc 5 236 14 view .LVU188
 663              	.LBE180:
 664              	.LBE185:
  78:eurorack/plaits/dsp/fx/low_pass_gate.h ****       out += stride;
 665              		.loc 4 78 7 is_stmt 1 view .LVU189
  78:eurorack/plaits/dsp/fx/low_pass_gate.h ****       out += stride;
 666              		.loc 4 78 62 is_stmt 0 view .LVU190
 667 0120 B0EE677A 		vmov.f32	s14, s15
 668 0124 95EE067A 		vfnms.f32	s14, s10, s12
  78:eurorack/plaits/dsp/fx/low_pass_gate.h ****       out += stride;
 669              		.loc 4 78 57 view .LVU191
 670 0128 E1EE877A 		vfma.f32	s15, s3, s14
 671              	.LVL49:
 672              	.LBB186:
 673              	.LBI186:
 674              		.file 8 "eurorack/stmlib/dsp/dsp.h"
   1:eurorack/stmlib/dsp/dsp.h **** // Copyright 2012 Emilie Gillet.
   2:eurorack/stmlib/dsp/dsp.h **** //
   3:eurorack/stmlib/dsp/dsp.h **** // Author: Emilie Gillet (emilie.o.gillet@gmail.com)
   4:eurorack/stmlib/dsp/dsp.h **** //
   5:eurorack/stmlib/dsp/dsp.h **** // Permission is hereby granted, free of charge, to any person obtaining a copy
   6:eurorack/stmlib/dsp/dsp.h **** // of this software and associated documentation files (the "Software"), to deal
   7:eurorack/stmlib/dsp/dsp.h **** // in the Software without restriction, including without limitation the rights
   8:eurorack/stmlib/dsp/dsp.h **** // to use, copy, modify, merge, publish, distribute, sublicense, and/or sell
   9:eurorack/stmlib/dsp/dsp.h **** // copies of the Software, and to permit persons to whom the Software is
  10:eurorack/stmlib/dsp/dsp.h **** // furnished to do so, subject to the following conditions:
  11:eurorack/stmlib/dsp/dsp.h **** // 
  12:eurorack/stmlib/dsp/dsp.h **** // The above copyright notice and this permission notice shall be included in
  13:eurorack/stmlib/dsp/dsp.h **** // all copies or substantial portions of the Software.
  14:eurorack/stmlib/dsp/dsp.h **** // 
  15:eurorack/stmlib/dsp/dsp.h **** // THE SOFTWARE IS PROVIDED "AS IS", WITHOUT WARRANTY OF ANY KIND, EXPRESS OR
  16:eurorack/stmlib/dsp/dsp.h **** // IMPLIED, INCLUDING BUT NOT LIMITED TO THE WARRANTIES OF MERCHANTABILITY,
  17:eurorack/stmlib/dsp/dsp.h **** // FITNESS FOR A PARTICULAR PURPOSE AND NONINFRINGEMENT. IN NO EVENT SHALL THE
  18:eurorack/stmlib/dsp/dsp.h **** // AUTHORS OR COPYRIGHT HOLDERS BE LIABLE FOR ANY CLAIM, DAMAGES OR OTHER
  19:eurorack/stmlib/dsp/dsp.h **** // LIABILITY, WHETHER IN AN ACTION OF CONTRACT, TORT OR OTHERWISE, ARISING FROM,
  20:eurorack/stmlib/dsp/dsp.h **** // OUT OF OR IN CONNECTION WITH THE SOFTWARE OR THE USE OR OTHER DEALINGS IN
  21:eurorack/stmlib/dsp/dsp.h **** // THE SOFTWARE.
  22:eurorack/stmlib/dsp/dsp.h **** // 
  23:eurorack/stmlib/dsp/dsp.h **** // See http://creativecommons.org/licenses/MIT/ for more information.
  24:eurorack/stmlib/dsp/dsp.h **** //
ARM GAS  /var/folders/9s/8rp0_f2s1n31qbztm3b5_fdh0000gn/T//ccY1wZnf.s 			page 26


  25:eurorack/stmlib/dsp/dsp.h **** // -----------------------------------------------------------------------------
  26:eurorack/stmlib/dsp/dsp.h **** //
  27:eurorack/stmlib/dsp/dsp.h **** // DSP utility routines.
  28:eurorack/stmlib/dsp/dsp.h **** 
  29:eurorack/stmlib/dsp/dsp.h **** #ifndef STMLIB_UTILS_DSP_DSP_H_
  30:eurorack/stmlib/dsp/dsp.h **** #define STMLIB_UTILS_DSP_DSP_H_
  31:eurorack/stmlib/dsp/dsp.h **** 
  32:eurorack/stmlib/dsp/dsp.h **** #include "stmlib/stmlib.h"
  33:eurorack/stmlib/dsp/dsp.h **** 
  34:eurorack/stmlib/dsp/dsp.h **** #include <cmath>
  35:eurorack/stmlib/dsp/dsp.h **** #include <math.h>
  36:eurorack/stmlib/dsp/dsp.h **** 
  37:eurorack/stmlib/dsp/dsp.h **** namespace stmlib {
  38:eurorack/stmlib/dsp/dsp.h **** 
  39:eurorack/stmlib/dsp/dsp.h **** #define MAKE_INTEGRAL_FRACTIONAL(x) \
  40:eurorack/stmlib/dsp/dsp.h ****   int32_t x ## _integral = static_cast<int32_t>(x); \
  41:eurorack/stmlib/dsp/dsp.h ****   float x ## _fractional = x - static_cast<float>(x ## _integral);
  42:eurorack/stmlib/dsp/dsp.h **** 
  43:eurorack/stmlib/dsp/dsp.h **** inline float Interpolate(const float* table, float index, float size) {
  44:eurorack/stmlib/dsp/dsp.h ****   index *= size;
  45:eurorack/stmlib/dsp/dsp.h ****   MAKE_INTEGRAL_FRACTIONAL(index)
  46:eurorack/stmlib/dsp/dsp.h ****   float a = table[index_integral];
  47:eurorack/stmlib/dsp/dsp.h ****   float b = table[index_integral + 1];
  48:eurorack/stmlib/dsp/dsp.h ****   return a + (b - a) * index_fractional;
  49:eurorack/stmlib/dsp/dsp.h **** }
  50:eurorack/stmlib/dsp/dsp.h **** 
  51:eurorack/stmlib/dsp/dsp.h **** 
  52:eurorack/stmlib/dsp/dsp.h **** inline float InterpolateHermite(const float* table, float index, float size) {
  53:eurorack/stmlib/dsp/dsp.h ****   index *= size;
  54:eurorack/stmlib/dsp/dsp.h ****   MAKE_INTEGRAL_FRACTIONAL(index)
  55:eurorack/stmlib/dsp/dsp.h ****   const float xm1 = table[index_integral - 1];
  56:eurorack/stmlib/dsp/dsp.h ****   const float x0 = table[index_integral + 0];
  57:eurorack/stmlib/dsp/dsp.h ****   const float x1 = table[index_integral + 1];
  58:eurorack/stmlib/dsp/dsp.h ****   const float x2 = table[index_integral + 2];
  59:eurorack/stmlib/dsp/dsp.h ****   const float c = (x1 - xm1) * 0.5f;
  60:eurorack/stmlib/dsp/dsp.h ****   const float v = x0 - x1;
  61:eurorack/stmlib/dsp/dsp.h ****   const float w = c + v;
  62:eurorack/stmlib/dsp/dsp.h ****   const float a = w + v + (x2 - x0) * 0.5f;
  63:eurorack/stmlib/dsp/dsp.h ****   const float b_neg = w + a;
  64:eurorack/stmlib/dsp/dsp.h ****   const float f = index_fractional;
  65:eurorack/stmlib/dsp/dsp.h ****   return (((a * f) - b_neg) * f + c) * f + x0;
  66:eurorack/stmlib/dsp/dsp.h **** }
  67:eurorack/stmlib/dsp/dsp.h **** 
  68:eurorack/stmlib/dsp/dsp.h **** inline float InterpolateWrap(const float* table, float index, float size) {
  69:eurorack/stmlib/dsp/dsp.h ****   index -= static_cast<float>(static_cast<int32_t>(index));
  70:eurorack/stmlib/dsp/dsp.h ****   index *= size;
  71:eurorack/stmlib/dsp/dsp.h ****   MAKE_INTEGRAL_FRACTIONAL(index)
  72:eurorack/stmlib/dsp/dsp.h ****   float a = table[index_integral];
  73:eurorack/stmlib/dsp/dsp.h ****   float b = table[index_integral + 1];
  74:eurorack/stmlib/dsp/dsp.h ****   return a + (b - a) * index_fractional;
  75:eurorack/stmlib/dsp/dsp.h **** }
  76:eurorack/stmlib/dsp/dsp.h **** 
  77:eurorack/stmlib/dsp/dsp.h **** inline float SmoothStep(float value) {
  78:eurorack/stmlib/dsp/dsp.h ****   return value * value * (3.0f - 2.0f * value);
  79:eurorack/stmlib/dsp/dsp.h **** }
  80:eurorack/stmlib/dsp/dsp.h **** 
  81:eurorack/stmlib/dsp/dsp.h **** #define ONE_POLE(out, in, coefficient) out += (coefficient) * ((in) - out);
ARM GAS  /var/folders/9s/8rp0_f2s1n31qbztm3b5_fdh0000gn/T//ccY1wZnf.s 			page 27


  82:eurorack/stmlib/dsp/dsp.h **** #define SLOPE(out, in, positive, negative) { \
  83:eurorack/stmlib/dsp/dsp.h ****   float error = (in) - out; \
  84:eurorack/stmlib/dsp/dsp.h ****   out += (error > 0 ? positive : negative) * error; \
  85:eurorack/stmlib/dsp/dsp.h **** }
  86:eurorack/stmlib/dsp/dsp.h **** #define SLEW(out, in, delta) { \
  87:eurorack/stmlib/dsp/dsp.h ****   float error = (in) - out; \
  88:eurorack/stmlib/dsp/dsp.h ****   float d = (delta); \
  89:eurorack/stmlib/dsp/dsp.h ****   if (error > d) { \
  90:eurorack/stmlib/dsp/dsp.h ****     error = d; \
  91:eurorack/stmlib/dsp/dsp.h ****   } else if (error < -d) { \
  92:eurorack/stmlib/dsp/dsp.h ****     error = -d; \
  93:eurorack/stmlib/dsp/dsp.h ****   } \
  94:eurorack/stmlib/dsp/dsp.h ****   out += error; \
  95:eurorack/stmlib/dsp/dsp.h **** }
  96:eurorack/stmlib/dsp/dsp.h **** 
  97:eurorack/stmlib/dsp/dsp.h **** inline float Crossfade(float a, float b, float fade) {
  98:eurorack/stmlib/dsp/dsp.h ****   return a + (b - a) * fade;
  99:eurorack/stmlib/dsp/dsp.h **** }
 100:eurorack/stmlib/dsp/dsp.h **** 
 101:eurorack/stmlib/dsp/dsp.h **** inline float SoftLimit(float x) {
 102:eurorack/stmlib/dsp/dsp.h ****   return x * (27.0f + x * x) / (27.0f + 9.0f * x * x);
 103:eurorack/stmlib/dsp/dsp.h **** }
 104:eurorack/stmlib/dsp/dsp.h **** 
 105:eurorack/stmlib/dsp/dsp.h **** inline float SoftClip(float x) {
 106:eurorack/stmlib/dsp/dsp.h ****   if (x < -3.0f) {
 107:eurorack/stmlib/dsp/dsp.h ****     return -1.0f;
 108:eurorack/stmlib/dsp/dsp.h ****   } else if (x > 3.0f) {
 109:eurorack/stmlib/dsp/dsp.h ****     return 1.0f;
 110:eurorack/stmlib/dsp/dsp.h ****   } else {
 111:eurorack/stmlib/dsp/dsp.h ****     return SoftLimit(x);
 112:eurorack/stmlib/dsp/dsp.h ****   }
 113:eurorack/stmlib/dsp/dsp.h **** }
 114:eurorack/stmlib/dsp/dsp.h **** 
 115:eurorack/stmlib/dsp/dsp.h **** #ifdef TEST
 116:eurorack/stmlib/dsp/dsp.h ****   inline int32_t Clip16(int32_t x) {
 117:eurorack/stmlib/dsp/dsp.h ****     if (x < -32768) {
 118:eurorack/stmlib/dsp/dsp.h ****       return -32768;
 119:eurorack/stmlib/dsp/dsp.h ****     } else if (x > 32767) {
 120:eurorack/stmlib/dsp/dsp.h ****       return 32767;
 121:eurorack/stmlib/dsp/dsp.h ****     } else {
 122:eurorack/stmlib/dsp/dsp.h ****       return x;
 123:eurorack/stmlib/dsp/dsp.h ****     }
 124:eurorack/stmlib/dsp/dsp.h ****   }
 125:eurorack/stmlib/dsp/dsp.h ****   inline uint16_t ClipU16(int32_t x) {
 126:eurorack/stmlib/dsp/dsp.h ****     if (x < 0) {
 127:eurorack/stmlib/dsp/dsp.h ****       return 0;
 128:eurorack/stmlib/dsp/dsp.h ****     } else if (x > 65535) {
 129:eurorack/stmlib/dsp/dsp.h ****       return 65535;
 130:eurorack/stmlib/dsp/dsp.h ****     } else {
 131:eurorack/stmlib/dsp/dsp.h ****       return x;
 132:eurorack/stmlib/dsp/dsp.h ****     }
 133:eurorack/stmlib/dsp/dsp.h ****   }
 134:eurorack/stmlib/dsp/dsp.h **** #else
 135:eurorack/stmlib/dsp/dsp.h ****   inline int32_t Clip16(int32_t x) {
 675              		.loc 8 135 18 is_stmt 1 view .LVU192
 676              	.LBB187:
 136:eurorack/stmlib/dsp/dsp.h ****     int32_t result;
ARM GAS  /var/folders/9s/8rp0_f2s1n31qbztm3b5_fdh0000gn/T//ccY1wZnf.s 			page 28


 677              		.loc 8 136 5 view .LVU193
 137:eurorack/stmlib/dsp/dsp.h ****     __asm ("ssat %0, %1, %2" : "=r" (result) :  "I" (16), "r" (x) );
 678              		.loc 8 137 5 view .LVU194
 679              	.LBE187:
 680              	.LBE186:
  78:eurorack/plaits/dsp/fx/low_pass_gate.h ****       out += stride;
 681              		.loc 4 78 33 is_stmt 0 view .LVU195
 682 012c FDEEE77A 		vcvt.s32.f32	s15, s15
 683              	.LVL50:
  78:eurorack/plaits/dsp/fx/low_pass_gate.h ****       out += stride;
 684              		.loc 4 78 33 view .LVU196
 685 0130 17EE901A 		vmov	r1, s15	@ int
  78:eurorack/plaits/dsp/fx/low_pass_gate.h ****       out += stride;
 686              		.loc 4 78 28 view .LVU197
 687 0134 0131     		adds	r1, r1, #1
 688              	.LBB189:
 689              	.LBB188:
 690              		.loc 8 137 5 view .LVU198
 691              		.syntax unified
 692              	@ 137 "eurorack/stmlib/dsp/dsp.h" 1
 693 0136 01F30F01 		ssat r1, #16, r1
 694              	@ 0 "" 2
 695              	.LVL51:
 138:eurorack/stmlib/dsp/dsp.h ****     return result;
 696              		.loc 8 138 5 is_stmt 1 view .LVU199
 697              		.loc 8 138 5 is_stmt 0 view .LVU200
 698              		.thumb
 699              		.syntax unified
 700              	.LBE188:
 701              	.LBE189:
  78:eurorack/plaits/dsp/fx/low_pass_gate.h ****       out += stride;
 702              		.loc 4 78 12 view .LVU201
 703 013a 1980     		strh	r1, [r3]	@ movhi
 704              		.loc 4 79 7 is_stmt 1 view .LVU202
 705              		.loc 4 79 11 is_stmt 0 view .LVU203
 706 013c 2B44     		add	r3, r3, r5
 707              	.LVL52:
 708              		.loc 4 79 11 view .LVU204
 709              	.LBE211:
  75:eurorack/plaits/dsp/fx/low_pass_gate.h ****       const float s = *in++ * gain_modulation.Next();
 710              		.loc 4 75 5 view .LVU205
 711 013e CBE7     		b	.L20
 712              	.LVL53:
 713              	.L19:
 714              	.LBB212:
 715              	.LBI212:
  49:eurorack/stmlib/dsp/parameter_interpolator.h ****     *state_ = value_;
 716              		.loc 7 49 3 is_stmt 1 view .LVU206
 717              	.LBB213:
  50:eurorack/stmlib/dsp/parameter_interpolator.h ****   }
 718              		.loc 7 50 5 view .LVU207
  50:eurorack/stmlib/dsp/parameter_interpolator.h ****   }
 719              		.loc 7 50 13 is_stmt 0 view .LVU208
 720 0140 80ED016A 		vstr.32	s12, [r0, #4]
 721              	.LVL54:
 722              	.L12:
  50:eurorack/stmlib/dsp/parameter_interpolator.h ****   }
ARM GAS  /var/folders/9s/8rp0_f2s1n31qbztm3b5_fdh0000gn/T//ccY1wZnf.s 			page 29


 723              		.loc 7 50 13 view .LVU209
 724              	.LBE213:
 725              	.LBE212:
 726              	.LBE216:
 727              	.LBE219:
  96:eurorack/plaits/dsp/voice.h ****           post_gain * low_pass_gate_gain,
  97:eurorack/plaits/dsp/voice.h ****           low_pass_gate_frequency,
  98:eurorack/plaits/dsp/voice.h ****           low_pass_gate_hf_bleed,
  99:eurorack/plaits/dsp/voice.h ****           in,
 100:eurorack/plaits/dsp/voice.h ****           out,
 101:eurorack/plaits/dsp/voice.h ****           size,
 102:eurorack/plaits/dsp/voice.h ****           stride);
 103:eurorack/plaits/dsp/voice.h ****     } else {
 104:eurorack/plaits/dsp/voice.h ****       while (size--) {
 105:eurorack/plaits/dsp/voice.h ****         *out = stmlib::Clip16(1 + static_cast<int32_t>(*in++ * post_gain));
 106:eurorack/plaits/dsp/voice.h ****         out += stride;
 107:eurorack/plaits/dsp/voice.h ****       }
 108:eurorack/plaits/dsp/voice.h ****     }
 109:eurorack/plaits/dsp/voice.h ****   }
 728              		.loc 3 109 3 view .LVU210
 729 0144 70BD     		pop	{r4, r5, r6, pc}
 730              	.LVL55:
 731              	.L18:
 104:eurorack/plaits/dsp/voice.h ****         *out = stmlib::Clip16(1 + static_cast<int32_t>(*in++ * post_gain));
 732              		.loc 3 104 7 is_stmt 1 view .LVU211
 104:eurorack/plaits/dsp/voice.h ****         *out = stmlib::Clip16(1 + static_cast<int32_t>(*in++ * post_gain));
 733              		.loc 3 104 18 view .LVU212
 734 0146 013C     		subs	r4, r4, #1
 735              	.LVL56:
 104:eurorack/plaits/dsp/voice.h ****         *out = stmlib::Clip16(1 + static_cast<int32_t>(*in++ * post_gain));
 736              		.loc 3 104 18 is_stmt 0 view .LVU213
 737 0148 FCD3     		bcc	.L12
 105:eurorack/plaits/dsp/voice.h ****         out += stride;
 738              		.loc 3 105 9 is_stmt 1 view .LVU214
 739              	.LVL57:
 740              	.LBB220:
 741              	.LBI220:
 135:eurorack/stmlib/dsp/dsp.h ****     int32_t result;
 742              		.loc 8 135 18 view .LVU215
 743              	.LBB221:
 136:eurorack/stmlib/dsp/dsp.h ****     __asm ("ssat %0, %1, %2" : "=r" (result) :  "I" (16), "r" (x) );
 744              		.loc 8 136 5 view .LVU216
 137:eurorack/stmlib/dsp/dsp.h ****     return result;
 745              		.loc 8 137 5 view .LVU217
 746              	.LBE221:
 747              	.LBE220:
 105:eurorack/plaits/dsp/voice.h ****         out += stride;
 748              		.loc 3 105 62 is_stmt 0 view .LVU218
 749 014a F2EC017A 		vldmia.32	r2!, {s15}
 750              	.LVL58:
 105:eurorack/plaits/dsp/voice.h ****         out += stride;
 751              		.loc 3 105 62 view .LVU219
 752 014e 60EE277A 		vmul.f32	s15, s0, s15
 105:eurorack/plaits/dsp/voice.h ****         out += stride;
 753              		.loc 3 105 35 view .LVU220
 754 0152 FDEEE77A 		vcvt.s32.f32	s15, s15
 755 0156 17EE901A 		vmov	r1, s15	@ int
ARM GAS  /var/folders/9s/8rp0_f2s1n31qbztm3b5_fdh0000gn/T//ccY1wZnf.s 			page 30


 105:eurorack/plaits/dsp/voice.h ****         out += stride;
 756              		.loc 3 105 30 view .LVU221
 757 015a 0131     		adds	r1, r1, #1
 758              	.LBB223:
 759              	.LBB222:
 137:eurorack/stmlib/dsp/dsp.h ****     return result;
 760              		.loc 8 137 5 view .LVU222
 761              		.syntax unified
 762              	@ 137 "eurorack/stmlib/dsp/dsp.h" 1
 763 015c 01F30F01 		ssat r1, #16, r1
 764              	@ 0 "" 2
 765              	.LVL59:
 766              		.loc 8 138 5 is_stmt 1 view .LVU223
 767              		.loc 8 138 5 is_stmt 0 view .LVU224
 768              		.thumb
 769              		.syntax unified
 770              	.LBE222:
 771              	.LBE223:
 105:eurorack/plaits/dsp/voice.h ****         out += stride;
 772              		.loc 3 105 14 view .LVU225
 773 0160 1980     		strh	r1, [r3]	@ movhi
 106:eurorack/plaits/dsp/voice.h ****       }
 774              		.loc 3 106 9 is_stmt 1 view .LVU226
 106:eurorack/plaits/dsp/voice.h ****       }
 775              		.loc 3 106 13 is_stmt 0 view .LVU227
 776 0162 2B44     		add	r3, r3, r5
 777              	.LVL60:
 104:eurorack/plaits/dsp/voice.h ****         *out = stmlib::Clip16(1 + static_cast<int32_t>(*in++ * post_gain));
 778              		.loc 3 104 7 view .LVU228
 779 0164 EFE7     		b	.L18
 780              	.L34:
 781 0166 00BF     		.align	2
 782              	.L33:
 783 0168 CDCC4C3D 		.word	1028443341
 784 016c ACC5A737 		.word	933741996
 785 0170 CDCC4C3F 		.word	1061997773
 786 0174 00FEFFC6 		.word	-956301824
 787 0178 D7573941 		.word	1094277079
 788 017c DB0F4940 		.word	1078530011
 789              		.cfi_endproc
 790              	.LFE2033:
 792              		.section	.text._ZN6plaits5Voice6RenderERKNS_5PatchERKNS_11ModulationsEPNS0_5FrameEj,"ax",%progbits
 793              		.align	1
 794              		.global	_ZN6plaits5Voice6RenderERKNS_5PatchERKNS_11ModulationsEPNS0_5FrameEj
 795              		.syntax unified
 796              		.thumb
 797              		.thumb_func
 799              	_ZN6plaits5Voice6RenderERKNS_5PatchERKNS_11ModulationsEPNS0_5FrameEj:
 800              	.LVL61:
 801              	.LFB2044:
 802              		.file 9 "eurorack/plaits/dsp/voice.cc"
   1:eurorack/plaits/dsp/voice.cc **** // Copyright 2016 Emilie Gillet.
   2:eurorack/plaits/dsp/voice.cc **** //
   3:eurorack/plaits/dsp/voice.cc **** // Author: Emilie Gillet (emilie.o.gillet@gmail.com)
   4:eurorack/plaits/dsp/voice.cc **** //
   5:eurorack/plaits/dsp/voice.cc **** // Permission is hereby granted, free of charge, to any person obtaining a copy
   6:eurorack/plaits/dsp/voice.cc **** // of this software and associated documentation files (the "Software"), to deal
ARM GAS  /var/folders/9s/8rp0_f2s1n31qbztm3b5_fdh0000gn/T//ccY1wZnf.s 			page 31


   7:eurorack/plaits/dsp/voice.cc **** // in the Software without restriction, including without limitation the rights
   8:eurorack/plaits/dsp/voice.cc **** // to use, copy, modify, merge, publish, distribute, sublicense, and/or sell
   9:eurorack/plaits/dsp/voice.cc **** // copies of the Software, and to permit persons to whom the Software is
  10:eurorack/plaits/dsp/voice.cc **** // furnished to do so, subject to the following conditions:
  11:eurorack/plaits/dsp/voice.cc **** // 
  12:eurorack/plaits/dsp/voice.cc **** // The above copyright notice and this permission notice shall be included in
  13:eurorack/plaits/dsp/voice.cc **** // all copies or substantial portions of the Software.
  14:eurorack/plaits/dsp/voice.cc **** // 
  15:eurorack/plaits/dsp/voice.cc **** // THE SOFTWARE IS PROVIDED "AS IS", WITHOUT WARRANTY OF ANY KIND, EXPRESS OR
  16:eurorack/plaits/dsp/voice.cc **** // IMPLIED, INCLUDING BUT NOT LIMITED TO THE WARRANTIES OF MERCHANTABILITY,
  17:eurorack/plaits/dsp/voice.cc **** // FITNESS FOR A PARTICULAR PURPOSE AND NONINFRINGEMENT. IN NO EVENT SHALL THE
  18:eurorack/plaits/dsp/voice.cc **** // AUTHORS OR COPYRIGHT HOLDERS BE LIABLE FOR ANY CLAIM, DAMAGES OR OTHER
  19:eurorack/plaits/dsp/voice.cc **** // LIABILITY, WHETHER IN AN ACTION OF CONTRACT, TORT OR OTHERWISE, ARISING FROM,
  20:eurorack/plaits/dsp/voice.cc **** // OUT OF OR IN CONNECTION WITH THE SOFTWARE OR THE USE OR OTHER DEALINGS IN
  21:eurorack/plaits/dsp/voice.cc **** // THE SOFTWARE.
  22:eurorack/plaits/dsp/voice.cc **** // 
  23:eurorack/plaits/dsp/voice.cc **** // See http://creativecommons.org/licenses/MIT/ for more information.
  24:eurorack/plaits/dsp/voice.cc **** //
  25:eurorack/plaits/dsp/voice.cc **** // -----------------------------------------------------------------------------
  26:eurorack/plaits/dsp/voice.cc **** //
  27:eurorack/plaits/dsp/voice.cc **** // Main synthesis voice.
  28:eurorack/plaits/dsp/voice.cc **** 
  29:eurorack/plaits/dsp/voice.cc **** #include "plaits/dsp/voice.h"
  30:eurorack/plaits/dsp/voice.cc **** 
  31:eurorack/plaits/dsp/voice.cc **** namespace plaits {
  32:eurorack/plaits/dsp/voice.cc **** 
  33:eurorack/plaits/dsp/voice.cc **** using namespace std;
  34:eurorack/plaits/dsp/voice.cc **** using namespace stmlib;
  35:eurorack/plaits/dsp/voice.cc **** 
  36:eurorack/plaits/dsp/voice.cc **** void Voice::Init(BufferAllocator* allocator) {
  37:eurorack/plaits/dsp/voice.cc ****   engines_.Init();
  38:eurorack/plaits/dsp/voice.cc ****   engines_.RegisterInstance(&virtual_analog_engine_, false, 0.8f, 0.8f);
  39:eurorack/plaits/dsp/voice.cc ****   engines_.RegisterInstance(&waveshaping_engine_, false, 0.7f, 0.6f);
  40:eurorack/plaits/dsp/voice.cc ****   engines_.RegisterInstance(&fm_engine_, false, 0.6f, 0.6f);
  41:eurorack/plaits/dsp/voice.cc ****   engines_.RegisterInstance(&grain_engine_, false, 0.7f, 0.6f);
  42:eurorack/plaits/dsp/voice.cc ****   engines_.RegisterInstance(&additive_engine_, false, 0.8f, 0.8f);
  43:eurorack/plaits/dsp/voice.cc ****   //engines_.RegisterInstance(&wavetable_engine_, false, 0.6f, 0.6f);  // bad
  44:eurorack/plaits/dsp/voice.cc ****   //engines_.RegisterInstance(&chord_engine_, false, 0.8f, 0.8f);       // bad
  45:eurorack/plaits/dsp/voice.cc ****   //engines_.RegisterInstance(&speech_engine_, false, -0.7f, 0.8f);
  46:eurorack/plaits/dsp/voice.cc **** 
  47:eurorack/plaits/dsp/voice.cc ****   engines_.RegisterInstance(&swarm_engine_, false, -3.0f, 1.0f);
  48:eurorack/plaits/dsp/voice.cc ****   engines_.RegisterInstance(&noise_engine_, false, -1.0f, -1.0f);
  49:eurorack/plaits/dsp/voice.cc ****   engines_.RegisterInstance(&particle_engine_, false, -2.0f, 1.0f);
  50:eurorack/plaits/dsp/voice.cc ****   engines_.RegisterInstance(&string_engine_, true, -1.0f, 0.8f);
  51:eurorack/plaits/dsp/voice.cc ****   engines_.RegisterInstance(&modal_engine_, true, -1.0f, 0.8f);
  52:eurorack/plaits/dsp/voice.cc ****   engines_.RegisterInstance(&bass_drum_engine_, true, 0.8f, 0.8f);
  53:eurorack/plaits/dsp/voice.cc ****   engines_.RegisterInstance(&snare_drum_engine_, true, 0.8f, 0.8f);
  54:eurorack/plaits/dsp/voice.cc ****   engines_.RegisterInstance(&hi_hat_engine_, true, 0.8f, 0.8f);
  55:eurorack/plaits/dsp/voice.cc ****   for (int i = 0; i < engines_.size(); ++i) {
  56:eurorack/plaits/dsp/voice.cc ****     // All engines will share the same RAM space.
  57:eurorack/plaits/dsp/voice.cc ****     allocator->Free();
  58:eurorack/plaits/dsp/voice.cc ****     engines_.get(i)->Init(allocator);
  59:eurorack/plaits/dsp/voice.cc ****   }
  60:eurorack/plaits/dsp/voice.cc ****   
  61:eurorack/plaits/dsp/voice.cc ****   engine_quantizer_.Init();
  62:eurorack/plaits/dsp/voice.cc ****   previous_engine_index_ = -1;
  63:eurorack/plaits/dsp/voice.cc ****   engine_cv_ = 0.0f;
ARM GAS  /var/folders/9s/8rp0_f2s1n31qbztm3b5_fdh0000gn/T//ccY1wZnf.s 			page 32


  64:eurorack/plaits/dsp/voice.cc ****   
  65:eurorack/plaits/dsp/voice.cc ****   out_post_processor_.Init();
  66:eurorack/plaits/dsp/voice.cc ****   aux_post_processor_.Init();
  67:eurorack/plaits/dsp/voice.cc **** 
  68:eurorack/plaits/dsp/voice.cc ****   decay_envelope_.Init();
  69:eurorack/plaits/dsp/voice.cc ****   lpg_envelope_.Init();
  70:eurorack/plaits/dsp/voice.cc ****   
  71:eurorack/plaits/dsp/voice.cc ****   trigger_state_ = false;
  72:eurorack/plaits/dsp/voice.cc ****   previous_note_ = 0.0f;
  73:eurorack/plaits/dsp/voice.cc ****   
  74:eurorack/plaits/dsp/voice.cc ****   trigger_delay_.Init(trigger_delay_line_);
  75:eurorack/plaits/dsp/voice.cc **** }
  76:eurorack/plaits/dsp/voice.cc **** 
  77:eurorack/plaits/dsp/voice.cc **** void Voice::Render(
  78:eurorack/plaits/dsp/voice.cc ****     const Patch& patch,
  79:eurorack/plaits/dsp/voice.cc ****     const Modulations& modulations,
  80:eurorack/plaits/dsp/voice.cc ****     Frame* frames,
  81:eurorack/plaits/dsp/voice.cc ****     size_t size) {
 803              		.loc 9 81 18 is_stmt 1 view -0
 804              		.cfi_startproc
 805              		@ args = 4, pretend = 0, frame = 48
 806              		@ frame_needed = 0, uses_anonymous_args = 0
  82:eurorack/plaits/dsp/voice.cc ****   // Trigger, LPG, internal envelope.
  83:eurorack/plaits/dsp/voice.cc ****       
  84:eurorack/plaits/dsp/voice.cc ****   // Delay trigger by 1ms to deal with sequencers or MIDI interfaces whose
  85:eurorack/plaits/dsp/voice.cc ****   // CV out lags behind the GATE out.
  86:eurorack/plaits/dsp/voice.cc ****   trigger_delay_.Write(modulations.trigger);
 807              		.loc 9 86 3 view .LVU230
  81:eurorack/plaits/dsp/voice.cc ****   // Trigger, LPG, internal envelope.
 808              		.loc 9 81 18 is_stmt 0 view .LVU231
 809 0000 2DE9F04F 		push	{r4, r5, r6, r7, r8, r9, r10, fp, lr}
 810              		.cfi_def_cfa_offset 36
 811              		.cfi_offset 4, -36
 812              		.cfi_offset 5, -32
 813              		.cfi_offset 6, -28
 814              		.cfi_offset 7, -24
 815              		.cfi_offset 8, -20
 816              		.cfi_offset 9, -16
 817              		.cfi_offset 10, -12
 818              		.cfi_offset 11, -8
 819              		.cfi_offset 14, -4
 820 0004 0446     		mov	r4, r0
 821 0006 1546     		mov	r5, r2
 822              		.loc 9 86 36 view .LVU232
 823 0008 9069     		ldr	r0, [r2, #24]	@ float
 824              	.LVL62:
 825              	.LBB276:
 826              	.LBI276:
 827              		.file 10 "eurorack/plaits/dsp/physical_modelling/delay_line.h"
   1:eurorack/plaits/dsp/physical_modelling/delay_line.h **** // Copyright 2014 Emilie Gillet.
   2:eurorack/plaits/dsp/physical_modelling/delay_line.h **** //
   3:eurorack/plaits/dsp/physical_modelling/delay_line.h **** // Author: Emilie Gillet (emilie.o.gillet@gmail.com)
   4:eurorack/plaits/dsp/physical_modelling/delay_line.h **** //
   5:eurorack/plaits/dsp/physical_modelling/delay_line.h **** // Permission is hereby granted, free of charge, to any person obtaining a copy
   6:eurorack/plaits/dsp/physical_modelling/delay_line.h **** // of this software and associated documentation files (the "Software"), to deal
   7:eurorack/plaits/dsp/physical_modelling/delay_line.h **** // in the Software without restriction, including without limitation the rights
   8:eurorack/plaits/dsp/physical_modelling/delay_line.h **** // to use, copy, modify, merge, publish, distribute, sublicense, and/or sell
ARM GAS  /var/folders/9s/8rp0_f2s1n31qbztm3b5_fdh0000gn/T//ccY1wZnf.s 			page 33


   9:eurorack/plaits/dsp/physical_modelling/delay_line.h **** // copies of the Software, and to permit persons to whom the Software is
  10:eurorack/plaits/dsp/physical_modelling/delay_line.h **** // furnished to do so, subject to the following conditions:
  11:eurorack/plaits/dsp/physical_modelling/delay_line.h **** // 
  12:eurorack/plaits/dsp/physical_modelling/delay_line.h **** // The above copyright notice and this permission notice shall be included in
  13:eurorack/plaits/dsp/physical_modelling/delay_line.h **** // all copies or substantial portions of the Software.
  14:eurorack/plaits/dsp/physical_modelling/delay_line.h **** // 
  15:eurorack/plaits/dsp/physical_modelling/delay_line.h **** // THE SOFTWARE IS PROVIDED "AS IS", WITHOUT WARRANTY OF ANY KIND, EXPRESS OR
  16:eurorack/plaits/dsp/physical_modelling/delay_line.h **** // IMPLIED, INCLUDING BUT NOT LIMITED TO THE WARRANTIES OF MERCHANTABILITY,
  17:eurorack/plaits/dsp/physical_modelling/delay_line.h **** // FITNESS FOR A PARTICULAR PURPOSE AND NONINFRINGEMENT. IN NO EVENT SHALL THE
  18:eurorack/plaits/dsp/physical_modelling/delay_line.h **** // AUTHORS OR COPYRIGHT HOLDERS BE LIABLE FOR ANY CLAIM, DAMAGES OR OTHER
  19:eurorack/plaits/dsp/physical_modelling/delay_line.h **** // LIABILITY, WHETHER IN AN ACTION OF CONTRACT, TORT OR OTHERWISE, ARISING FROM,
  20:eurorack/plaits/dsp/physical_modelling/delay_line.h **** // OUT OF OR IN CONNECTION WITH THE SOFTWARE OR THE USE OR OTHER DEALINGS IN
  21:eurorack/plaits/dsp/physical_modelling/delay_line.h **** // THE SOFTWARE.
  22:eurorack/plaits/dsp/physical_modelling/delay_line.h **** // 
  23:eurorack/plaits/dsp/physical_modelling/delay_line.h **** // See http://creativecommons.org/licenses/MIT/ for more information.
  24:eurorack/plaits/dsp/physical_modelling/delay_line.h **** //
  25:eurorack/plaits/dsp/physical_modelling/delay_line.h **** // -----------------------------------------------------------------------------
  26:eurorack/plaits/dsp/physical_modelling/delay_line.h **** //
  27:eurorack/plaits/dsp/physical_modelling/delay_line.h **** // Delay line (same implementation as from stmlib, but does not own its buffer).
  28:eurorack/plaits/dsp/physical_modelling/delay_line.h **** 
  29:eurorack/plaits/dsp/physical_modelling/delay_line.h **** #ifndef PLAITS_DSP_PHYSICAL_MODELLING_DELAY_LINE_H_
  30:eurorack/plaits/dsp/physical_modelling/delay_line.h **** #define PLAITS_DSP_PHYSICAL_MODELLING_DELAY_LINE_H_
  31:eurorack/plaits/dsp/physical_modelling/delay_line.h **** 
  32:eurorack/plaits/dsp/physical_modelling/delay_line.h **** #include <algorithm>
  33:eurorack/plaits/dsp/physical_modelling/delay_line.h **** 
  34:eurorack/plaits/dsp/physical_modelling/delay_line.h **** #include "stmlib/dsp/dsp.h"
  35:eurorack/plaits/dsp/physical_modelling/delay_line.h **** 
  36:eurorack/plaits/dsp/physical_modelling/delay_line.h **** namespace plaits {
  37:eurorack/plaits/dsp/physical_modelling/delay_line.h **** 
  38:eurorack/plaits/dsp/physical_modelling/delay_line.h **** template<typename T, size_t max_delay>
  39:eurorack/plaits/dsp/physical_modelling/delay_line.h **** class DelayLine {
  40:eurorack/plaits/dsp/physical_modelling/delay_line.h ****  public:
  41:eurorack/plaits/dsp/physical_modelling/delay_line.h ****   DelayLine() { }
  42:eurorack/plaits/dsp/physical_modelling/delay_line.h ****   ~DelayLine() { }
  43:eurorack/plaits/dsp/physical_modelling/delay_line.h ****   
  44:eurorack/plaits/dsp/physical_modelling/delay_line.h ****   void Init(float* buffer) {
  45:eurorack/plaits/dsp/physical_modelling/delay_line.h ****     line_ = buffer;
  46:eurorack/plaits/dsp/physical_modelling/delay_line.h ****     Reset();
  47:eurorack/plaits/dsp/physical_modelling/delay_line.h ****   }
  48:eurorack/plaits/dsp/physical_modelling/delay_line.h ****   
  49:eurorack/plaits/dsp/physical_modelling/delay_line.h ****   void Reset() {
  50:eurorack/plaits/dsp/physical_modelling/delay_line.h ****     std::fill(&line_[0], &line_[max_delay], T(0));
  51:eurorack/plaits/dsp/physical_modelling/delay_line.h ****     write_ptr_ = 0;
  52:eurorack/plaits/dsp/physical_modelling/delay_line.h ****   }
  53:eurorack/plaits/dsp/physical_modelling/delay_line.h ****   
  54:eurorack/plaits/dsp/physical_modelling/delay_line.h ****   inline void Write(const T sample) {
 828              		.loc 10 54 15 is_stmt 1 view .LVU233
 829              	.LBE276:
  81:eurorack/plaits/dsp/voice.cc ****   // Trigger, LPG, internal envelope.
 830              		.loc 9 81 18 is_stmt 0 view .LVU234
 831 000a 0E46     		mov	r6, r1
 832              	.LBB280:
 833              	.LBB277:
  55:eurorack/plaits/dsp/physical_modelling/delay_line.h ****     line_[write_ptr_] = sample;
 834              		.loc 10 55 5 view .LVU235
 835 000c D4F8702C 		ldr	r2, [r4, #3184]
 836              	.LVL63:
ARM GAS  /var/folders/9s/8rp0_f2s1n31qbztm3b5_fdh0000gn/T//ccY1wZnf.s 			page 34


 837              		.loc 10 55 5 view .LVU236
 838 0010 04F6344A 		addw	r10, r4, #3124
 839              	.LBE277:
 840              	.LBE280:
  87:eurorack/plaits/dsp/voice.cc ****   float trigger_value = trigger_delay_.Read(kTriggerDelay);
  88:eurorack/plaits/dsp/voice.cc ****   
  89:eurorack/plaits/dsp/voice.cc ****   bool previous_trigger_state = trigger_state_;
 841              		.loc 9 89 8 view .LVU237
 842 0014 94F8309C 		ldrb	r9, [r4, #3120]	@ zero_extendqisi2
  81:eurorack/plaits/dsp/voice.cc ****   // Trigger, LPG, internal envelope.
 843              		.loc 9 81 18 view .LVU238
 844 0018 2DED0A8B 		vpush.64	{d8, d9, d10, d11, d12}
 845              		.cfi_def_cfa_offset 76
 846              		.cfi_offset 80, -76
 847              		.cfi_offset 81, -72
 848              		.cfi_offset 82, -68
 849              		.cfi_offset 83, -64
 850              		.cfi_offset 84, -60
 851              		.cfi_offset 85, -56
 852              		.cfi_offset 86, -52
 853              		.cfi_offset 87, -48
 854              		.cfi_offset 88, -44
 855              		.cfi_offset 89, -40
 856 001c 8FB0     		sub	sp, sp, #60
 857              		.cfi_def_cfa_offset 136
 858              	.LBB281:
 859              	.LBB282:
  56:eurorack/plaits/dsp/physical_modelling/delay_line.h ****     write_ptr_ = (write_ptr_ - 1 + max_delay) % max_delay;
  57:eurorack/plaits/dsp/physical_modelling/delay_line.h ****   }
  58:eurorack/plaits/dsp/physical_modelling/delay_line.h ****   
  59:eurorack/plaits/dsp/physical_modelling/delay_line.h ****   inline const T Allpass(const T sample, size_t delay, const T coefficient) {
  60:eurorack/plaits/dsp/physical_modelling/delay_line.h ****     T read = line_[(write_ptr_ + delay) % max_delay];
  61:eurorack/plaits/dsp/physical_modelling/delay_line.h ****     T write = sample + coefficient * read;
  62:eurorack/plaits/dsp/physical_modelling/delay_line.h ****     Write(write);
  63:eurorack/plaits/dsp/physical_modelling/delay_line.h ****     return -write * coefficient + read;
  64:eurorack/plaits/dsp/physical_modelling/delay_line.h ****   }
  65:eurorack/plaits/dsp/physical_modelling/delay_line.h **** 
  66:eurorack/plaits/dsp/physical_modelling/delay_line.h ****   inline const T WriteRead(const T sample, float delay) {
  67:eurorack/plaits/dsp/physical_modelling/delay_line.h ****     Write(sample);
  68:eurorack/plaits/dsp/physical_modelling/delay_line.h ****     return Read(delay);
  69:eurorack/plaits/dsp/physical_modelling/delay_line.h ****   }
  70:eurorack/plaits/dsp/physical_modelling/delay_line.h ****   
  71:eurorack/plaits/dsp/physical_modelling/delay_line.h ****   inline const T Read(float delay) const {
  72:eurorack/plaits/dsp/physical_modelling/delay_line.h ****     MAKE_INTEGRAL_FRACTIONAL(delay)
  73:eurorack/plaits/dsp/physical_modelling/delay_line.h ****     const T a = line_[(write_ptr_ + delay_integral) % max_delay];
  74:eurorack/plaits/dsp/physical_modelling/delay_line.h ****     const T b = line_[(write_ptr_ + delay_integral + 1) % max_delay];
  75:eurorack/plaits/dsp/physical_modelling/delay_line.h ****     return a + (b - a) * T(delay_fractional);
 860              		.loc 10 75 44 view .LVU239
 861 001e 9FEDE3CA 		vldr.32	s24, .L115+64
 862 0022 F7EE008A 		vmov.f32	s17, #1.0e+0
 863 0026 DFEDD1BA 		vldr.32	s23, .L115
 864              	.LBE282:
 865              	.LBE281:
  81:eurorack/plaits/dsp/voice.cc ****   // Trigger, LPG, internal envelope.
 866              		.loc 9 81 18 view .LVU240
 867 002a 0293     		str	r3, [sp, #8]
 868              	.LBB285:
ARM GAS  /var/folders/9s/8rp0_f2s1n31qbztm3b5_fdh0000gn/T//ccY1wZnf.s 			page 35


 869              	.LBB278:
  55:eurorack/plaits/dsp/physical_modelling/delay_line.h ****     write_ptr_ = (write_ptr_ - 1 + max_delay) % max_delay;
 870              		.loc 10 55 11 view .LVU241
 871 002c D4F86C3C 		ldr	r3, [r4, #3180]
 872              	.LVL64:
  55:eurorack/plaits/dsp/physical_modelling/delay_line.h ****     write_ptr_ = (write_ptr_ - 1 + max_delay) % max_delay;
 873              		.loc 10 55 23 view .LVU242
 874 0030 02EB8301 		add	r1, r2, r3, lsl #2
 875              	.LVL65:
  56:eurorack/plaits/dsp/physical_modelling/delay_line.h ****     write_ptr_ = (write_ptr_ - 1 + max_delay) % max_delay;
 876              		.loc 10 56 34 view .LVU243
 877 0034 0733     		adds	r3, r3, #7
  56:eurorack/plaits/dsp/physical_modelling/delay_line.h ****     write_ptr_ = (write_ptr_ - 1 + max_delay) % max_delay;
 878              		.loc 10 56 47 view .LVU244
 879 0036 03F00703 		and	r3, r3, #7
  55:eurorack/plaits/dsp/physical_modelling/delay_line.h ****     write_ptr_ = (write_ptr_ - 1 + max_delay) % max_delay;
 880              		.loc 10 55 23 view .LVU245
 881 003a 0860     		str	r0, [r1]	@ float
 882              	.LBE278:
 883              	.LBE285:
 884              	.LBB286:
 885              	.LBB283:
  73:eurorack/plaits/dsp/physical_modelling/delay_line.h ****     const T b = line_[(write_ptr_ + delay_integral + 1) % max_delay];
 886              		.loc 10 73 35 view .LVU246
 887 003c 591D     		adds	r1, r3, #5
 888              	.LBE283:
 889              	.LBE286:
 890              	.LBB287:
 891              	.LBB279:
  56:eurorack/plaits/dsp/physical_modelling/delay_line.h ****     write_ptr_ = (write_ptr_ - 1 + max_delay) % max_delay;
 892              		.loc 10 56 16 view .LVU247
 893 003e C4F86C3C 		str	r3, [r4, #3180]
 894              	.LVL66:
  56:eurorack/plaits/dsp/physical_modelling/delay_line.h ****     write_ptr_ = (write_ptr_ - 1 + max_delay) % max_delay;
 895              		.loc 10 56 16 view .LVU248
 896              	.LBE279:
 897              	.LBE287:
  87:eurorack/plaits/dsp/voice.cc ****   
 898              		.loc 9 87 3 is_stmt 1 view .LVU249
 899              	.LBB288:
 900              	.LBI281:
  71:eurorack/plaits/dsp/physical_modelling/delay_line.h ****     MAKE_INTEGRAL_FRACTIONAL(delay)
 901              		.loc 10 71 18 view .LVU250
 902              	.LBB284:
  74:eurorack/plaits/dsp/physical_modelling/delay_line.h ****     return a + (b - a) * T(delay_fractional);
 903              		.loc 10 74 52 is_stmt 0 view .LVU251
 904 0042 0633     		adds	r3, r3, #6
  73:eurorack/plaits/dsp/physical_modelling/delay_line.h ****     const T b = line_[(write_ptr_ + delay_integral + 1) % max_delay];
 905              		.loc 10 73 53 view .LVU252
 906 0044 01F00701 		and	r1, r1, #7
  74:eurorack/plaits/dsp/physical_modelling/delay_line.h ****     return a + (b - a) * T(delay_fractional);
 907              		.loc 10 74 57 view .LVU253
 908 0048 03F00703 		and	r3, r3, #7
  73:eurorack/plaits/dsp/physical_modelling/delay_line.h ****     const T b = line_[(write_ptr_ + delay_integral + 1) % max_delay];
 909              		.loc 10 73 13 view .LVU254
 910 004c 02EB8101 		add	r1, r2, r1, lsl #2
  74:eurorack/plaits/dsp/physical_modelling/delay_line.h ****     return a + (b - a) * T(delay_fractional);
ARM GAS  /var/folders/9s/8rp0_f2s1n31qbztm3b5_fdh0000gn/T//ccY1wZnf.s 			page 36


 911              		.loc 10 74 13 view .LVU255
 912 0050 02EB8303 		add	r3, r2, r3, lsl #2
  73:eurorack/plaits/dsp/physical_modelling/delay_line.h ****     const T b = line_[(write_ptr_ + delay_integral + 1) % max_delay];
 913              		.loc 10 73 13 view .LVU256
 914 0054 D1ED007A 		vldr.32	s15, [r1]
 915              	.LVL67:
 916              		.loc 10 75 19 view .LVU257
 917 0058 93ED007A 		vldr.32	s14, [r3]
 918 005c 04F62843 		addw	r3, r4, #3112
 919 0060 37EE677A 		vsub.f32	s14, s14, s15
 920              		.loc 10 75 44 view .LVU258
 921 0064 E7EE0C7A 		vfma.f32	s15, s14, s24
 922              	.LVL68:
 923              		.loc 10 75 44 view .LVU259
 924              	.LBE284:
 925              	.LBE288:
 926              		.loc 9 89 3 is_stmt 1 view .LVU260
  90:eurorack/plaits/dsp/voice.cc ****   if (!previous_trigger_state) {
 927              		.loc 9 90 3 view .LVU261
 928 0068 B9F1000F 		cmp	r9, #0
 929 006c 40F01782 		bne	.L36
  91:eurorack/plaits/dsp/voice.cc ****     if (trigger_value > 0.3f) {
 930              		.loc 9 91 5 view .LVU262
 931 0070 F4EEEB7A 		vcmpe.f32	s15, s23
 932 0074 F1EE10FA 		vmrs	APSR_nzcv, FPSCR
 933 0078 0BDD     		ble	.L37
  92:eurorack/plaits/dsp/voice.cc ****       trigger_state_ = true;
 934              		.loc 9 92 7 view .LVU263
 935              		.loc 9 92 22 is_stmt 0 view .LVU264
 936 007a 0122     		movs	r2, #1
  93:eurorack/plaits/dsp/voice.cc ****       if (!modulations.level_patched) {
 937              		.loc 9 93 7 view .LVU265
 938 007c 95F82410 		ldrb	r1, [r5, #36]	@ zero_extendqisi2
  92:eurorack/plaits/dsp/voice.cc ****       trigger_state_ = true;
 939              		.loc 9 92 22 view .LVU266
 940 0080 84F8302C 		strb	r2, [r4, #3120]
 941              		.loc 9 93 7 is_stmt 1 view .LVU267
 942 0084 09B9     		cbnz	r1, .L39
  94:eurorack/plaits/dsp/voice.cc ****         lpg_envelope_.Trigger();
 943              		.loc 9 94 9 view .LVU268
 944              	.LVL69:
 945              	.LBB289:
 946              	.LBI289:
  48:eurorack/plaits/dsp/envelope.h ****     ramp_up_ = true;
 947              		.loc 2 48 15 view .LVU269
 948              	.LBB290:
  49:eurorack/plaits/dsp/envelope.h ****   }
 949              		.loc 2 49 5 view .LVU270
  49:eurorack/plaits/dsp/envelope.h ****   }
 950              		.loc 2 49 14 is_stmt 0 view .LVU271
 951 0086 84F8482C 		strb	r2, [r4, #3144]
 952              	.LVL70:
 953              	.L39:
  49:eurorack/plaits/dsp/envelope.h ****   }
 954              		.loc 2 49 14 view .LVU272
 955              	.LBE290:
 956              	.LBE289:
ARM GAS  /var/folders/9s/8rp0_f2s1n31qbztm3b5_fdh0000gn/T//ccY1wZnf.s 			page 37


  95:eurorack/plaits/dsp/voice.cc ****       }
  96:eurorack/plaits/dsp/voice.cc ****       decay_envelope_.Trigger();
 957              		.loc 9 96 7 is_stmt 1 view .LVU273
 958              	.LBB291:
 959              	.LBI291:
  87:eurorack/plaits/dsp/envelope.h ****   
  88:eurorack/plaits/dsp/envelope.h ****   inline float gain() const { return gain_; }
  89:eurorack/plaits/dsp/envelope.h ****   inline float frequency() const { return frequency_; }
  90:eurorack/plaits/dsp/envelope.h ****   inline float hf_bleed() const { return hf_bleed_; }
  91:eurorack/plaits/dsp/envelope.h ****   
  92:eurorack/plaits/dsp/envelope.h ****  private:
  93:eurorack/plaits/dsp/envelope.h ****   float vactrol_state_;
  94:eurorack/plaits/dsp/envelope.h ****   float gain_;
  95:eurorack/plaits/dsp/envelope.h ****   float frequency_;
  96:eurorack/plaits/dsp/envelope.h ****   float hf_bleed_;
  97:eurorack/plaits/dsp/envelope.h ****   bool ramp_up_;
  98:eurorack/plaits/dsp/envelope.h ****   
  99:eurorack/plaits/dsp/envelope.h ****   DISALLOW_COPY_AND_ASSIGN(LPGEnvelope);
 100:eurorack/plaits/dsp/envelope.h **** };
 101:eurorack/plaits/dsp/envelope.h **** 
 102:eurorack/plaits/dsp/envelope.h **** class DecayEnvelope {
 103:eurorack/plaits/dsp/envelope.h ****  public:
 104:eurorack/plaits/dsp/envelope.h ****   DecayEnvelope() { }
 105:eurorack/plaits/dsp/envelope.h ****   ~DecayEnvelope() { }
 106:eurorack/plaits/dsp/envelope.h ****   
 107:eurorack/plaits/dsp/envelope.h ****   inline void Init() {
 108:eurorack/plaits/dsp/envelope.h ****     value_ = 0.0f;
 109:eurorack/plaits/dsp/envelope.h ****   }
 110:eurorack/plaits/dsp/envelope.h ****   
 111:eurorack/plaits/dsp/envelope.h ****   inline void Trigger() {
 960              		.loc 2 111 15 view .LVU274
 961              	.LBB292:
 112:eurorack/plaits/dsp/envelope.h ****     value_ = 1.0f;
 962              		.loc 2 112 5 view .LVU275
 963              	.LBE292:
 964              	.LBE291:
  97:eurorack/plaits/dsp/voice.cc ****       engine_cv_ = modulations.engine;
 965              		.loc 9 97 18 is_stmt 0 view .LVU276
 966 008a 2A68     		ldr	r2, [r5]	@ float
 967              	.LBB294:
 968              	.LBB293:
 969              		.loc 2 112 12 view .LVU277
 970 008c CAED008A 		vstr.32	s17, [r10]
 971              	.LVL71:
 972              		.loc 2 112 12 view .LVU278
 973              	.LBE293:
 974              	.LBE294:
 975              		.loc 9 97 7 is_stmt 1 view .LVU279
 976              		.loc 9 97 18 is_stmt 0 view .LVU280
 977 0090 1A60     		str	r2, [r3]	@ float
 978              	.L37:
  98:eurorack/plaits/dsp/voice.cc ****     }
  99:eurorack/plaits/dsp/voice.cc ****   } else {
 100:eurorack/plaits/dsp/voice.cc ****     if (trigger_value < 0.1f) {
 101:eurorack/plaits/dsp/voice.cc ****       trigger_state_ = false;
 102:eurorack/plaits/dsp/voice.cc ****     }
 103:eurorack/plaits/dsp/voice.cc ****   }
ARM GAS  /var/folders/9s/8rp0_f2s1n31qbztm3b5_fdh0000gn/T//ccY1wZnf.s 			page 38


 104:eurorack/plaits/dsp/voice.cc ****   if (!modulations.trigger_patched) {
 979              		.loc 9 104 3 is_stmt 1 view .LVU281
 980 0092 95F82320 		ldrb	r2, [r5, #35]	@ zero_extendqisi2
 981 0096 0AB9     		cbnz	r2, .L41
 105:eurorack/plaits/dsp/voice.cc ****     engine_cv_ = modulations.engine;
 982              		.loc 9 105 5 view .LVU282
 983              		.loc 9 105 16 is_stmt 0 view .LVU283
 984 0098 2A68     		ldr	r2, [r5]	@ float
 985 009a 1A60     		str	r2, [r3]	@ float
 986              	.L41:
 106:eurorack/plaits/dsp/voice.cc ****   }
 107:eurorack/plaits/dsp/voice.cc **** 
 108:eurorack/plaits/dsp/voice.cc ****   // Engine selection.
 109:eurorack/plaits/dsp/voice.cc ****   int engine_index = engine_quantizer_.Process(
 987              		.loc 9 109 3 is_stmt 1 view .LVU284
 988              	.LVL72:
 989              	.LBB295:
 990              	.LBI295:
 991              		.file 11 "eurorack/plaits/dsp/engine/engine.h"
   1:eurorack/plaits/dsp/engine/engine.h **** // Copyright 2016 Emilie Gillet.
   2:eurorack/plaits/dsp/engine/engine.h **** //
   3:eurorack/plaits/dsp/engine/engine.h **** // Author: Emilie Gillet (emilie.o.gillet@gmail.com)
   4:eurorack/plaits/dsp/engine/engine.h **** //
   5:eurorack/plaits/dsp/engine/engine.h **** // Permission is hereby granted, free of charge, to any person obtaining a copy
   6:eurorack/plaits/dsp/engine/engine.h **** // of this software and associated documentation files (the "Software"), to deal
   7:eurorack/plaits/dsp/engine/engine.h **** // in the Software without restriction, including without limitation the rights
   8:eurorack/plaits/dsp/engine/engine.h **** // to use, copy, modify, merge, publish, distribute, sublicense, and/or sell
   9:eurorack/plaits/dsp/engine/engine.h **** // copies of the Software, and to permit persons to whom the Software is
  10:eurorack/plaits/dsp/engine/engine.h **** // furnished to do so, subject to the following conditions:
  11:eurorack/plaits/dsp/engine/engine.h **** // 
  12:eurorack/plaits/dsp/engine/engine.h **** // The above copyright notice and this permission notice shall be included in
  13:eurorack/plaits/dsp/engine/engine.h **** // all copies or substantial portions of the Software.
  14:eurorack/plaits/dsp/engine/engine.h **** // 
  15:eurorack/plaits/dsp/engine/engine.h **** // THE SOFTWARE IS PROVIDED "AS IS", WITHOUT WARRANTY OF ANY KIND, EXPRESS OR
  16:eurorack/plaits/dsp/engine/engine.h **** // IMPLIED, INCLUDING BUT NOT LIMITED TO THE WARRANTIES OF MERCHANTABILITY,
  17:eurorack/plaits/dsp/engine/engine.h **** // FITNESS FOR A PARTICULAR PURPOSE AND NONINFRINGEMENT. IN NO EVENT SHALL THE
  18:eurorack/plaits/dsp/engine/engine.h **** // AUTHORS OR COPYRIGHT HOLDERS BE LIABLE FOR ANY CLAIM, DAMAGES OR OTHER
  19:eurorack/plaits/dsp/engine/engine.h **** // LIABILITY, WHETHER IN AN ACTION OF CONTRACT, TORT OR OTHERWISE, ARISING FROM,
  20:eurorack/plaits/dsp/engine/engine.h **** // OUT OF OR IN CONNECTION WITH THE SOFTWARE OR THE USE OR OTHER DEALINGS IN
  21:eurorack/plaits/dsp/engine/engine.h **** // THE SOFTWARE.
  22:eurorack/plaits/dsp/engine/engine.h **** // 
  23:eurorack/plaits/dsp/engine/engine.h **** // See http://creativecommons.org/licenses/MIT/ for more information.
  24:eurorack/plaits/dsp/engine/engine.h **** //
  25:eurorack/plaits/dsp/engine/engine.h **** // -----------------------------------------------------------------------------
  26:eurorack/plaits/dsp/engine/engine.h **** //
  27:eurorack/plaits/dsp/engine/engine.h **** // Base class for all engines.
  28:eurorack/plaits/dsp/engine/engine.h **** 
  29:eurorack/plaits/dsp/engine/engine.h **** #ifndef PLAITS_DSP_ENGINE_ENGINE_H_
  30:eurorack/plaits/dsp/engine/engine.h **** #define PLAITS_DSP_ENGINE_ENGINE_H_
  31:eurorack/plaits/dsp/engine/engine.h **** 
  32:eurorack/plaits/dsp/engine/engine.h **** #include "plaits/dsp/dsp.h"
  33:eurorack/plaits/dsp/engine/engine.h **** 
  34:eurorack/plaits/dsp/engine/engine.h **** #include "stmlib/dsp/units.h"
  35:eurorack/plaits/dsp/engine/engine.h **** #include "stmlib/utils/buffer_allocator.h"
  36:eurorack/plaits/dsp/engine/engine.h **** 
  37:eurorack/plaits/dsp/engine/engine.h **** namespace plaits {
  38:eurorack/plaits/dsp/engine/engine.h **** 
ARM GAS  /var/folders/9s/8rp0_f2s1n31qbztm3b5_fdh0000gn/T//ccY1wZnf.s 			page 39


  39:eurorack/plaits/dsp/engine/engine.h **** inline float NoteToFrequency(float midi_note) {
  40:eurorack/plaits/dsp/engine/engine.h ****   midi_note -= 9.0f;
  41:eurorack/plaits/dsp/engine/engine.h ****   CONSTRAIN(midi_note, -128.0f, 127.0f);
  42:eurorack/plaits/dsp/engine/engine.h ****   return a0 * 0.25f * stmlib::SemitonesToRatio(midi_note);
  43:eurorack/plaits/dsp/engine/engine.h **** }
  44:eurorack/plaits/dsp/engine/engine.h **** 
  45:eurorack/plaits/dsp/engine/engine.h **** enum TriggerState {
  46:eurorack/plaits/dsp/engine/engine.h ****   TRIGGER_LOW = 0,
  47:eurorack/plaits/dsp/engine/engine.h ****   TRIGGER_RISING_EDGE = 1,
  48:eurorack/plaits/dsp/engine/engine.h ****   TRIGGER_UNPATCHED = 2,
  49:eurorack/plaits/dsp/engine/engine.h ****   TRIGGER_UNPATCHED_AUTOTRIGGED = 3,
  50:eurorack/plaits/dsp/engine/engine.h **** };
  51:eurorack/plaits/dsp/engine/engine.h **** 
  52:eurorack/plaits/dsp/engine/engine.h **** struct EngineParameters {
  53:eurorack/plaits/dsp/engine/engine.h ****   TriggerState trigger;
  54:eurorack/plaits/dsp/engine/engine.h ****   float note;
  55:eurorack/plaits/dsp/engine/engine.h ****   float timbre;
  56:eurorack/plaits/dsp/engine/engine.h ****   float morph;
  57:eurorack/plaits/dsp/engine/engine.h ****   float harmonics;
  58:eurorack/plaits/dsp/engine/engine.h ****   float accent;
  59:eurorack/plaits/dsp/engine/engine.h **** };
  60:eurorack/plaits/dsp/engine/engine.h **** 
  61:eurorack/plaits/dsp/engine/engine.h **** struct PostProcessingSettings {
  62:eurorack/plaits/dsp/engine/engine.h ****   // A negative value indicates that a limiter must be used.
  63:eurorack/plaits/dsp/engine/engine.h ****   float out_gain;
  64:eurorack/plaits/dsp/engine/engine.h ****   float aux_gain;
  65:eurorack/plaits/dsp/engine/engine.h ****   
  66:eurorack/plaits/dsp/engine/engine.h ****   // When this flag is set to true, the engine declares that it will 
  67:eurorack/plaits/dsp/engine/engine.h ****   // render a signal that already has an envelope (eg: modal drum, 808 kick).
  68:eurorack/plaits/dsp/engine/engine.h ****   // By reporting this information, the synthesis voice upstream will
  69:eurorack/plaits/dsp/engine/engine.h ****   // bypass the internal envelope/LPG.
  70:eurorack/plaits/dsp/engine/engine.h ****   //
  71:eurorack/plaits/dsp/engine/engine.h ****   // This parameter can be changed on a per-call basis when calling Render()
  72:eurorack/plaits/dsp/engine/engine.h ****   // This is used by the speech synthesis engine, which renders either
  73:eurorack/plaits/dsp/engine/engine.h ****   // a continuous vowel sound (which needs to be enveloped by the LPG)
  74:eurorack/plaits/dsp/engine/engine.h ****   // or a word/sentence (which is already enveloped).
  75:eurorack/plaits/dsp/engine/engine.h ****   bool already_enveloped;
  76:eurorack/plaits/dsp/engine/engine.h **** };
  77:eurorack/plaits/dsp/engine/engine.h **** 
  78:eurorack/plaits/dsp/engine/engine.h **** class Engine {
  79:eurorack/plaits/dsp/engine/engine.h ****  public:
  80:eurorack/plaits/dsp/engine/engine.h ****   Engine() { }
  81:eurorack/plaits/dsp/engine/engine.h ****   ~Engine() { }
  82:eurorack/plaits/dsp/engine/engine.h ****   virtual void Init(stmlib::BufferAllocator* allocator) = 0;
  83:eurorack/plaits/dsp/engine/engine.h ****   virtual void Reset() = 0;
  84:eurorack/plaits/dsp/engine/engine.h ****   virtual void Render(
  85:eurorack/plaits/dsp/engine/engine.h ****       const EngineParameters& parameters,
  86:eurorack/plaits/dsp/engine/engine.h ****       float* out,
  87:eurorack/plaits/dsp/engine/engine.h ****       float* aux,
  88:eurorack/plaits/dsp/engine/engine.h ****       size_t size,
  89:eurorack/plaits/dsp/engine/engine.h ****       bool* already_enveloped) = 0;
  90:eurorack/plaits/dsp/engine/engine.h ****   PostProcessingSettings post_processing_settings;
  91:eurorack/plaits/dsp/engine/engine.h **** };
  92:eurorack/plaits/dsp/engine/engine.h **** 
  93:eurorack/plaits/dsp/engine/engine.h **** template<int max_size>
  94:eurorack/plaits/dsp/engine/engine.h **** class EngineRegistry {
  95:eurorack/plaits/dsp/engine/engine.h ****  public:
ARM GAS  /var/folders/9s/8rp0_f2s1n31qbztm3b5_fdh0000gn/T//ccY1wZnf.s 			page 40


  96:eurorack/plaits/dsp/engine/engine.h ****   EngineRegistry() { }
  97:eurorack/plaits/dsp/engine/engine.h ****   ~EngineRegistry() { }
  98:eurorack/plaits/dsp/engine/engine.h ****   
  99:eurorack/plaits/dsp/engine/engine.h ****   void Init() {
 100:eurorack/plaits/dsp/engine/engine.h ****     num_engines_ = 0;
 101:eurorack/plaits/dsp/engine/engine.h ****   }
 102:eurorack/plaits/dsp/engine/engine.h **** 
 103:eurorack/plaits/dsp/engine/engine.h ****   inline Engine* get(int index) {
 104:eurorack/plaits/dsp/engine/engine.h ****     return engine_[index];
 105:eurorack/plaits/dsp/engine/engine.h ****   }
 106:eurorack/plaits/dsp/engine/engine.h ****   
 107:eurorack/plaits/dsp/engine/engine.h ****   void RegisterInstance(
 108:eurorack/plaits/dsp/engine/engine.h ****       Engine* instance,
 109:eurorack/plaits/dsp/engine/engine.h ****       bool already_enveloped,
 110:eurorack/plaits/dsp/engine/engine.h ****       float out_gain,
 111:eurorack/plaits/dsp/engine/engine.h ****       float aux_gain) {
 112:eurorack/plaits/dsp/engine/engine.h ****     if (num_engines_ >= max_size) {
 113:eurorack/plaits/dsp/engine/engine.h ****       return;
 114:eurorack/plaits/dsp/engine/engine.h ****     }
 115:eurorack/plaits/dsp/engine/engine.h ****     engine_[num_engines_] = instance;
 116:eurorack/plaits/dsp/engine/engine.h ****     PostProcessingSettings* s = &instance->post_processing_settings;
 117:eurorack/plaits/dsp/engine/engine.h ****     s->already_enveloped = already_enveloped;
 118:eurorack/plaits/dsp/engine/engine.h ****     s->out_gain = out_gain;
 119:eurorack/plaits/dsp/engine/engine.h ****     s->aux_gain = aux_gain;
 120:eurorack/plaits/dsp/engine/engine.h ****     ++num_engines_;
 121:eurorack/plaits/dsp/engine/engine.h ****   }
 122:eurorack/plaits/dsp/engine/engine.h ****   
 123:eurorack/plaits/dsp/engine/engine.h ****   inline int size() const { return num_engines_; }
 992              		.loc 11 123 14 view .LVU285
 993              	.LBB296:
 994              		.loc 11 123 36 is_stmt 0 view .LVU286
 995 009c D4F8EC1C 		ldr	r1, [r4, #3308]
 996              	.LVL73:
 997              		.loc 11 123 36 view .LVU287
 998              	.LBE296:
 999              	.LBE295:
 1000              	.LBB297:
 1001              	.LBI297:
 1002              		.file 12 "eurorack/stmlib/dsp/hysteresis_quantizer.h"
   1:eurorack/stmlib/dsp/hysteresis_quantizer.h **** // Copyright 2015 Emilie Gillet.
   2:eurorack/stmlib/dsp/hysteresis_quantizer.h **** //
   3:eurorack/stmlib/dsp/hysteresis_quantizer.h **** // Author: Emilie Gillet (emilie.o.gillet@gmail.com)
   4:eurorack/stmlib/dsp/hysteresis_quantizer.h **** //
   5:eurorack/stmlib/dsp/hysteresis_quantizer.h **** // Permission is hereby granted, free of charge, to any person obtaining a copy
   6:eurorack/stmlib/dsp/hysteresis_quantizer.h **** // of this software and associated documentation files (the "Software"), to deal
   7:eurorack/stmlib/dsp/hysteresis_quantizer.h **** // in the Software without restriction, including without limitation the rights
   8:eurorack/stmlib/dsp/hysteresis_quantizer.h **** // to use, copy, modify, merge, publish, distribute, sublicense, and/or sell
   9:eurorack/stmlib/dsp/hysteresis_quantizer.h **** // copies of the Software, and to permit persons to whom the Software is
  10:eurorack/stmlib/dsp/hysteresis_quantizer.h **** // furnished to do so, subject to the following conditions:
  11:eurorack/stmlib/dsp/hysteresis_quantizer.h **** // 
  12:eurorack/stmlib/dsp/hysteresis_quantizer.h **** // The above copyright notice and this permission notice shall be included in
  13:eurorack/stmlib/dsp/hysteresis_quantizer.h **** // all copies or substantial portions of the Software.
  14:eurorack/stmlib/dsp/hysteresis_quantizer.h **** // 
  15:eurorack/stmlib/dsp/hysteresis_quantizer.h **** // THE SOFTWARE IS PROVIDED "AS IS", WITHOUT WARRANTY OF ANY KIND, EXPRESS OR
  16:eurorack/stmlib/dsp/hysteresis_quantizer.h **** // IMPLIED, INCLUDING BUT NOT LIMITED TO THE WARRANTIES OF MERCHANTABILITY,
  17:eurorack/stmlib/dsp/hysteresis_quantizer.h **** // FITNESS FOR A PARTICULAR PURPOSE AND NONINFRINGEMENT. IN NO EVENT SHALL THE
  18:eurorack/stmlib/dsp/hysteresis_quantizer.h **** // AUTHORS OR COPYRIGHT HOLDERS BE LIABLE FOR ANY CLAIM, DAMAGES OR OTHER
ARM GAS  /var/folders/9s/8rp0_f2s1n31qbztm3b5_fdh0000gn/T//ccY1wZnf.s 			page 41


  19:eurorack/stmlib/dsp/hysteresis_quantizer.h **** // LIABILITY, WHETHER IN AN ACTION OF CONTRACT, TORT OR OTHERWISE, ARISING FROM,
  20:eurorack/stmlib/dsp/hysteresis_quantizer.h **** // OUT OF OR IN CONNECTION WITH THE SOFTWARE OR THE USE OR OTHER DEALINGS IN
  21:eurorack/stmlib/dsp/hysteresis_quantizer.h **** // THE SOFTWARE.
  22:eurorack/stmlib/dsp/hysteresis_quantizer.h **** // 
  23:eurorack/stmlib/dsp/hysteresis_quantizer.h **** // See http://creativecommons.org/licenses/MIT/ for more information.
  24:eurorack/stmlib/dsp/hysteresis_quantizer.h **** //
  25:eurorack/stmlib/dsp/hysteresis_quantizer.h **** // -----------------------------------------------------------------------------
  26:eurorack/stmlib/dsp/hysteresis_quantizer.h **** //
  27:eurorack/stmlib/dsp/hysteresis_quantizer.h **** // Quantize a float in [0, 1] to an integer in [0, num_steps[. Apply hysteresis
  28:eurorack/stmlib/dsp/hysteresis_quantizer.h **** // to prevent jumps near the decision boundary.
  29:eurorack/stmlib/dsp/hysteresis_quantizer.h **** 
  30:eurorack/stmlib/dsp/hysteresis_quantizer.h **** #ifndef STMLIB_DSP_HYSTERESIS_QUANTIZER_H_
  31:eurorack/stmlib/dsp/hysteresis_quantizer.h **** #define STMLIB_DSP_HYSTERESIS_QUANTIZER_H_
  32:eurorack/stmlib/dsp/hysteresis_quantizer.h **** 
  33:eurorack/stmlib/dsp/hysteresis_quantizer.h **** #include "stmlib/stmlib.h"
  34:eurorack/stmlib/dsp/hysteresis_quantizer.h **** 
  35:eurorack/stmlib/dsp/hysteresis_quantizer.h **** namespace stmlib {
  36:eurorack/stmlib/dsp/hysteresis_quantizer.h **** 
  37:eurorack/stmlib/dsp/hysteresis_quantizer.h **** class HysteresisQuantizer {
  38:eurorack/stmlib/dsp/hysteresis_quantizer.h ****  public:
  39:eurorack/stmlib/dsp/hysteresis_quantizer.h ****   HysteresisQuantizer() { }
  40:eurorack/stmlib/dsp/hysteresis_quantizer.h ****   ~HysteresisQuantizer() { }
  41:eurorack/stmlib/dsp/hysteresis_quantizer.h **** 
  42:eurorack/stmlib/dsp/hysteresis_quantizer.h ****   void Init() {
  43:eurorack/stmlib/dsp/hysteresis_quantizer.h ****     quantized_value_ = 0;
  44:eurorack/stmlib/dsp/hysteresis_quantizer.h ****   }
  45:eurorack/stmlib/dsp/hysteresis_quantizer.h **** 
  46:eurorack/stmlib/dsp/hysteresis_quantizer.h ****   inline int Process(float value, int num_steps) {
  47:eurorack/stmlib/dsp/hysteresis_quantizer.h ****     return Process(value, num_steps, 0.25f);
  48:eurorack/stmlib/dsp/hysteresis_quantizer.h ****   }
  49:eurorack/stmlib/dsp/hysteresis_quantizer.h **** 
  50:eurorack/stmlib/dsp/hysteresis_quantizer.h ****   inline int Process(float value, int num_steps, float hysteresis) {
  51:eurorack/stmlib/dsp/hysteresis_quantizer.h ****     return Process(0, value, num_steps, hysteresis);
  52:eurorack/stmlib/dsp/hysteresis_quantizer.h ****   }
  53:eurorack/stmlib/dsp/hysteresis_quantizer.h **** 
  54:eurorack/stmlib/dsp/hysteresis_quantizer.h ****   inline int Process(int base, float value, int num_steps, float hysteresis) {
 1003              		.loc 12 54 14 is_stmt 1 view .LVU288
 1004              	.LBB298:
  55:eurorack/stmlib/dsp/hysteresis_quantizer.h ****     value *= static_cast<float>(num_steps - 1);
 1005              		.loc 12 55 5 view .LVU289
  56:eurorack/stmlib/dsp/hysteresis_quantizer.h ****     value += static_cast<float>(base);
  57:eurorack/stmlib/dsp/hysteresis_quantizer.h ****     float hysteresis_feedback = value > static_cast<float>(quantized_value_)
  58:eurorack/stmlib/dsp/hysteresis_quantizer.h ****         ? -hysteresis
  59:eurorack/stmlib/dsp/hysteresis_quantizer.h ****         : hysteresis;
  60:eurorack/stmlib/dsp/hysteresis_quantizer.h ****     int q = static_cast<int>(value + hysteresis_feedback + 0.5f);
 1006              		.loc 12 60 58 is_stmt 0 view .LVU290
 1007 00a0 B6EE009A 		vmov.f32	s18, #5.0e-1
  56:eurorack/stmlib/dsp/hysteresis_quantizer.h ****     value += static_cast<float>(base);
 1008              		.loc 12 56 11 view .LVU291
 1009 00a4 D3ED006A 		vldr.32	s13, [r3]
  55:eurorack/stmlib/dsp/hysteresis_quantizer.h ****     value *= static_cast<float>(num_steps - 1);
 1010              		.loc 12 55 43 view .LVU292
 1011 00a8 4A1E     		subs	r2, r1, #1
 1012              	.LVL74:
  56:eurorack/stmlib/dsp/hysteresis_quantizer.h ****     value += static_cast<float>(base);
 1013              		.loc 12 56 5 is_stmt 1 view .LVU293
  57:eurorack/stmlib/dsp/hysteresis_quantizer.h ****         ? -hysteresis
ARM GAS  /var/folders/9s/8rp0_f2s1n31qbztm3b5_fdh0000gn/T//ccY1wZnf.s 			page 42


 1014              		.loc 12 57 41 is_stmt 0 view .LVU294
 1015 00aa D4F8203C 		ldr	r3, [r4, #3104]
  55:eurorack/stmlib/dsp/hysteresis_quantizer.h ****     value *= static_cast<float>(num_steps - 1);
 1016              		.loc 12 55 14 view .LVU295
 1017 00ae 07EE902A 		vmov	s15, r2	@ int
 1018              	.LVL75:
  55:eurorack/stmlib/dsp/hysteresis_quantizer.h ****     value *= static_cast<float>(num_steps - 1);
 1019              		.loc 12 55 14 view .LVU296
 1020 00b2 B8EEE77A 		vcvt.f32.s32	s14, s15
  56:eurorack/stmlib/dsp/hysteresis_quantizer.h ****     value += static_cast<float>(base);
 1021              		.loc 12 56 14 view .LVU297
 1022 00b6 D6ED077A 		vldr.32	s15, [r6, #28]	@ int
 1023 00ba F8EEE77A 		vcvt.f32.s32	s15, s15
  56:eurorack/stmlib/dsp/hysteresis_quantizer.h ****     value += static_cast<float>(base);
 1024              		.loc 12 56 11 view .LVU298
 1025 00be E6EE877A 		vfma.f32	s15, s13, s14
 1026              	.LVL76:
  57:eurorack/stmlib/dsp/hysteresis_quantizer.h ****         ? -hysteresis
 1027              		.loc 12 57 5 is_stmt 1 view .LVU299
  57:eurorack/stmlib/dsp/hysteresis_quantizer.h ****         ? -hysteresis
 1028              		.loc 12 57 41 is_stmt 0 view .LVU300
 1029 00c2 07EE103A 		vmov	s14, r3	@ int
  58:eurorack/stmlib/dsp/hysteresis_quantizer.h ****         : hysteresis;
 1030              		.loc 12 58 9 view .LVU301
 1031 00c6 F5EE006A 		vmov.f32	s13, #2.5e-1
  57:eurorack/stmlib/dsp/hysteresis_quantizer.h ****         ? -hysteresis
 1032              		.loc 12 57 41 view .LVU302
 1033 00ca B8EEC77A 		vcvt.f32.s32	s14, s14
  58:eurorack/stmlib/dsp/hysteresis_quantizer.h ****         : hysteresis;
 1034              		.loc 12 58 9 view .LVU303
 1035 00ce F4EEC77A 		vcmpe.f32	s15, s14
 1036 00d2 BDEE007A 		vmov.f32	s14, #-2.5e-1
 1037 00d6 F1EE10FA 		vmrs	APSR_nzcv, FPSCR
 1038 00da 37FE267A 		vselgt.f32	s14, s14, s13
 1039              	.LVL77:
 1040              		.loc 12 60 5 is_stmt 1 view .LVU304
 1041              		.loc 12 60 36 is_stmt 0 view .LVU305
 1042 00de 77EE877A 		vadd.f32	s15, s15, s14
 1043              	.LVL78:
 1044              		.loc 12 60 58 view .LVU306
 1045 00e2 77EE897A 		vadd.f32	s15, s15, s18
 1046              		.loc 12 60 9 view .LVU307
 1047 00e6 FDEEE77A 		vcvt.s32.f32	s15, s15
 1048 00ea 17EE907A 		vmov	r7, s15	@ int
 1049              	.LVL79:
  61:eurorack/stmlib/dsp/hysteresis_quantizer.h ****     CONSTRAIN(q, 0, num_steps - 1);
 1050              		.loc 12 61 5 is_stmt 1 view .LVU308
 1051 00ee 002F     		cmp	r7, #0
 1052 00f0 C0F2E081 		blt	.L79
 1053              		.loc 12 61 5 view .LVU309
 1054 00f4 B942     		cmp	r1, r7
 1055 00f6 D8BF     		it	le
 1056 00f8 1746     		movle	r7, r2
 1057              	.LVL80:
 1058              	.L44:
 1059              		.loc 12 61 35 view .LVU310
  62:eurorack/stmlib/dsp/hysteresis_quantizer.h ****     quantized_value_ = q;
ARM GAS  /var/folders/9s/8rp0_f2s1n31qbztm3b5_fdh0000gn/T//ccY1wZnf.s 			page 43


 1060              		.loc 12 62 5 view .LVU311
 1061              	.LBE298:
 1062              	.LBE297:
 1063              	.LBB301:
 1064              	.LBB302:
 104:eurorack/plaits/dsp/engine/engine.h ****   }
 1065              		.loc 11 104 25 is_stmt 0 view .LVU312
 1066 00fa 04EB8703 		add	r3, r4, r7, lsl #2
 1067              	.LBE302:
 1068              	.LBE301:
 1069              	.LBB304:
 1070              	.LBB299:
 1071              		.loc 12 62 22 view .LVU313
 1072 00fe C4F8207C 		str	r7, [r4, #3104]
  63:eurorack/stmlib/dsp/hysteresis_quantizer.h ****     return q;
 1073              		.loc 12 63 5 is_stmt 1 view .LVU314
 1074              	.LVL81:
 1075              		.loc 12 63 5 is_stmt 0 view .LVU315
 1076              	.LBE299:
 1077              	.LBE304:
 110:eurorack/plaits/dsp/voice.cc ****       patch.engine,
 111:eurorack/plaits/dsp/voice.cc ****       engine_cv_,
 112:eurorack/plaits/dsp/voice.cc ****       engines_.size(),
 113:eurorack/plaits/dsp/voice.cc ****       0.25f);
 114:eurorack/plaits/dsp/voice.cc ****   
 115:eurorack/plaits/dsp/voice.cc ****   Engine* e = engines_.get(engine_index);
 1078              		.loc 9 115 3 is_stmt 1 view .LVU316
 1079              	.LBB305:
 1080              	.LBI301:
 103:eurorack/plaits/dsp/engine/engine.h ****     return engine_[index];
 1081              		.loc 11 103 18 view .LVU317
 1082              	.LBB303:
 104:eurorack/plaits/dsp/engine/engine.h ****   }
 1083              		.loc 11 104 25 is_stmt 0 view .LVU318
 1084 0102 D3F8AC8C 		ldr	r8, [r3, #3244]
 1085              	.LVL82:
 104:eurorack/plaits/dsp/engine/engine.h ****   }
 1086              		.loc 11 104 25 view .LVU319
 1087              	.LBE303:
 1088              	.LBE305:
 116:eurorack/plaits/dsp/voice.cc ****   
 117:eurorack/plaits/dsp/voice.cc ****   if (engine_index != previous_engine_index_) {
 1089              		.loc 9 117 3 is_stmt 1 view .LVU320
 1090 0106 D4F8243C 		ldr	r3, [r4, #3108]
 1091 010a BB42     		cmp	r3, r7
 1092 010c 04F67443 		addw	r3, r4, #3188
 1093 0110 0393     		str	r3, [sp, #12]
 1094 0112 09D0     		beq	.L45
 118:eurorack/plaits/dsp/voice.cc ****     e->Reset();
 1095              		.loc 9 118 5 view .LVU321
 1096              		.loc 9 118 14 is_stmt 0 view .LVU322
 1097 0114 D8F80030 		ldr	r3, [r8]
 1098              		.loc 9 118 13 view .LVU323
 1099 0118 4046     		mov	r0, r8
 1100 011a 5B68     		ldr	r3, [r3, #4]
 1101 011c 9847     		blx	r3
 1102              	.LVL83:
ARM GAS  /var/folders/9s/8rp0_f2s1n31qbztm3b5_fdh0000gn/T//ccY1wZnf.s 			page 44


 119:eurorack/plaits/dsp/voice.cc ****     out_post_processor_.Reset();
 1103              		.loc 9 119 5 is_stmt 1 view .LVU324
 1104              	.LBB306:
 1105              	.LBI306:
  76:eurorack/plaits/dsp/voice.h ****     limiter_.Init();
 1106              		.loc 3 76 8 view .LVU325
 1107              	.LBE306:
  77:eurorack/plaits/dsp/voice.h ****   }
 1108              		.loc 3 77 5 view .LVU326
 1109              	.LBB309:
 1110              	.LBB307:
 1111              	.LBI307:
  46:eurorack/stmlib/dsp/limiter.h ****     peak_ = 0.5f;
 1112              		.loc 6 46 8 view .LVU327
 1113              	.LBB308:
  47:eurorack/stmlib/dsp/limiter.h ****   }
 1114              		.loc 6 47 5 view .LVU328
  47:eurorack/stmlib/dsp/limiter.h ****   }
 1115              		.loc 6 47 11 is_stmt 0 view .LVU329
 1116 011e 039B     		ldr	r3, [sp, #12]
 1117 0120 83ED009A 		vstr.32	s18, [r3]
 1118              	.LVL84:
  47:eurorack/stmlib/dsp/limiter.h ****   }
 1119              		.loc 6 47 11 view .LVU330
 1120              	.LBE308:
 1121              	.LBE307:
 1122              	.LBE309:
 120:eurorack/plaits/dsp/voice.cc ****     previous_engine_index_ = engine_index;
 1123              		.loc 9 120 5 is_stmt 1 view .LVU331
 1124              		.loc 9 120 28 is_stmt 0 view .LVU332
 1125 0124 C4F8247C 		str	r7, [r4, #3108]
 1126              	.L45:
 121:eurorack/plaits/dsp/voice.cc ****   }
 122:eurorack/plaits/dsp/voice.cc ****   EngineParameters p;
 1127              		.loc 9 122 3 is_stmt 1 view .LVU333
 123:eurorack/plaits/dsp/voice.cc **** 
 124:eurorack/plaits/dsp/voice.cc ****   bool rising_edge = trigger_state_ && !previous_trigger_state;
 1128              		.loc 9 124 3 view .LVU334
 1129              		.loc 9 124 22 is_stmt 0 view .LVU335
 1130 0128 94F8303C 		ldrb	r3, [r4, #3120]	@ zero_extendqisi2
 1131              		.loc 9 124 37 view .LVU336
 1132 012c 0BB1     		cbz	r3, .L46
 1133              		.loc 9 124 37 discriminator 1 view .LVU337
 1134 012e 89F00103 		eor	r3, r9, #1
 1135              	.L46:
 1136              	.LVL85:
 125:eurorack/plaits/dsp/voice.cc ****   float note = (modulations.note + previous_note_) * 0.5f;
 1137              		.loc 9 125 3 is_stmt 1 discriminator 6 view .LVU338
 1138              		.loc 9 125 36 is_stmt 0 discriminator 6 view .LVU339
 1139 0132 04F62C42 		addw	r2, r4, #3116
 1140              		.loc 9 125 29 discriminator 6 view .LVU340
 1141 0136 D5ED017A 		vldr.32	s15, [r5, #4]
 126:eurorack/plaits/dsp/voice.cc ****   previous_note_ = modulations.note;
 127:eurorack/plaits/dsp/voice.cc ****   const PostProcessingSettings& pp_s = e->post_processing_settings;
 128:eurorack/plaits/dsp/voice.cc **** 
 129:eurorack/plaits/dsp/voice.cc ****   if (modulations.trigger_patched) {
 1142              		.loc 9 129 19 discriminator 6 view .LVU341
ARM GAS  /var/folders/9s/8rp0_f2s1n31qbztm3b5_fdh0000gn/T//ccY1wZnf.s 			page 45


 1143 013a 95F82390 		ldrb	r9, [r5, #35]	@ zero_extendqisi2
 1144              	.LVL86:
 125:eurorack/plaits/dsp/voice.cc ****   float note = (modulations.note + previous_note_) * 0.5f;
 1145              		.loc 9 125 34 discriminator 6 view .LVU342
 1146 013e 92ED008A 		vldr.32	s16, [r2]
 126:eurorack/plaits/dsp/voice.cc ****   previous_note_ = modulations.note;
 1147              		.loc 9 126 18 discriminator 6 view .LVU343
 1148 0142 C2ED007A 		vstr.32	s15, [r2]
 125:eurorack/plaits/dsp/voice.cc ****   float note = (modulations.note + previous_note_) * 0.5f;
 1149              		.loc 9 125 34 discriminator 6 view .LVU344
 1150 0146 37EE888A 		vadd.f32	s16, s15, s16
 125:eurorack/plaits/dsp/voice.cc ****   float note = (modulations.note + previous_note_) * 0.5f;
 1151              		.loc 9 125 9 discriminator 6 view .LVU345
 1152 014a 28EE098A 		vmul.f32	s16, s16, s18
 1153              	.LVL87:
 126:eurorack/plaits/dsp/voice.cc ****   previous_note_ = modulations.note;
 1154              		.loc 9 126 3 is_stmt 1 discriminator 6 view .LVU346
 127:eurorack/plaits/dsp/voice.cc **** 
 1155              		.loc 9 127 3 discriminator 6 view .LVU347
 1156              		.loc 9 129 3 discriminator 6 view .LVU348
 1157 014e B9F1000F 		cmp	r9, #0
 1158 0152 00F0B181 		beq	.L47
 1159              	.LVL88:
 1160              	.L114:
 130:eurorack/plaits/dsp/voice.cc ****     p.trigger = rising_edge ? TRIGGER_RISING_EDGE : TRIGGER_LOW;
 131:eurorack/plaits/dsp/voice.cc ****   } else {
 132:eurorack/plaits/dsp/voice.cc ****     p.trigger = TRIGGER_UNPATCHED;
 133:eurorack/plaits/dsp/voice.cc ****   }
 134:eurorack/plaits/dsp/voice.cc ****   
 135:eurorack/plaits/dsp/voice.cc ****   const float short_decay = (200.0f * size) / kSampleRate *
 1161              		.loc 9 135 37 is_stmt 0 view .LVU349
 1162 0156 DDED227A 		vldr.32	s15, [sp, #136]	@ int
 1163              	.LBB310:
 1164              	.LBB311:
 113:eurorack/plaits/dsp/envelope.h ****   }
 114:eurorack/plaits/dsp/envelope.h ****   
 115:eurorack/plaits/dsp/envelope.h ****   inline void Process(float decay) {
 116:eurorack/plaits/dsp/envelope.h ****     value_ *= (1.0f - decay);
 1165              		.loc 2 116 21 view .LVU350
 1166 015a B0EE009A 		vmov.f32	s18, #2.0e+0
 1167              	.LBE311:
 1168              	.LBE310:
 136:eurorack/plaits/dsp/voice.cc ****       SemitonesToRatio(-96.0f * patch.decay);
 1169              		.loc 9 136 23 view .LVU351
 1170 015e 96ED080A 		vldr.32	s0, [r6, #32]
 135:eurorack/plaits/dsp/voice.cc ****       SemitonesToRatio(-96.0f * patch.decay);
 1171              		.loc 9 135 37 view .LVU352
 1172 0162 F8EE679A 		vcvt.f32.u32	s19, s15
 1173              		.loc 9 136 23 view .LVU353
 1174 0166 DFED827A 		vldr.32	s15, .L115+4
 132:eurorack/plaits/dsp/voice.cc ****   }
 1175              		.loc 9 132 15 view .LVU354
 1176 016a 8DF82030 		strb	r3, [sp, #32]
 135:eurorack/plaits/dsp/voice.cc ****       SemitonesToRatio(-96.0f * patch.decay);
 1177              		.loc 9 135 3 is_stmt 1 view .LVU355
 1178              		.loc 9 136 23 is_stmt 0 view .LVU356
 1179 016e 20EE270A 		vmul.f32	s0, s0, s15
ARM GAS  /var/folders/9s/8rp0_f2s1n31qbztm3b5_fdh0000gn/T//ccY1wZnf.s 			page 46


 135:eurorack/plaits/dsp/voice.cc ****       SemitonesToRatio(-96.0f * patch.decay);
 1180              		.loc 9 135 45 view .LVU357
 1181 0172 DFED80AA 		vldr.32	s21, .L115+8
 1182              		.loc 9 136 23 view .LVU358
 1183 0176 FFF7FEFF 		bl	_ZN6stmlib16SemitonesToRatioEf
 1184              	.LVL89:
 135:eurorack/plaits/dsp/voice.cc ****       SemitonesToRatio(-96.0f * patch.decay);
 1185              		.loc 9 135 37 view .LVU359
 1186 017a DFED7F7A 		vldr.32	s15, .L115+12
 1187              	.LBB316:
 1188              	.LBB312:
 1189              		.loc 2 116 21 view .LVU360
 1190 017e B0EE685A 		vmov.f32	s10, s17
 1191              	.LBE312:
 1192              	.LBE316:
 137:eurorack/plaits/dsp/voice.cc **** 
 138:eurorack/plaits/dsp/voice.cc ****   decay_envelope_.Process(short_decay * 2.0f);
 139:eurorack/plaits/dsp/voice.cc **** 
 140:eurorack/plaits/dsp/voice.cc ****   const float compressed_level = max(
 141:eurorack/plaits/dsp/voice.cc ****       1.3f * modulations.level / (0.3f + fabsf(modulations.level)),
 1193              		.loc 9 141 12 view .LVU361
 1194 0182 9FED7E7A 		vldr.32	s14, .L115+16
 135:eurorack/plaits/dsp/voice.cc ****       SemitonesToRatio(-96.0f * patch.decay);
 1195              		.loc 9 135 37 view .LVU362
 1196 0186 69EEA77A 		vmul.f32	s15, s19, s15
 142:eurorack/plaits/dsp/voice.cc ****       0.0f);
 143:eurorack/plaits/dsp/voice.cc ****   p.accent = modulations.level_patched ? compressed_level : 0.8f;
 1197              		.loc 9 143 40 view .LVU363
 1198 018a 95F82430 		ldrb	r3, [r5, #36]	@ zero_extendqisi2
 135:eurorack/plaits/dsp/voice.cc ****       SemitonesToRatio(-96.0f * patch.decay);
 1199              		.loc 9 135 45 view .LVU364
 1200 018e 87EEAABA 		vdiv.f32	s22, s15, s21
 1201              	.LBB317:
 1202              	.LBB313:
 1203              		.loc 2 116 12 view .LVU365
 1204 0192 DAED007A 		vldr.32	s15, [r10]
 1205              	.LBE313:
 1206              	.LBE317:
 136:eurorack/plaits/dsp/voice.cc **** 
 1207              		.loc 9 136 44 view .LVU366
 1208 0196 2BEE00BA 		vmul.f32	s22, s22, s0
 1209              	.LVL90:
 138:eurorack/plaits/dsp/voice.cc **** 
 1210              		.loc 9 138 3 is_stmt 1 view .LVU367
 1211              	.LBB318:
 1212              	.LBI310:
 115:eurorack/plaits/dsp/envelope.h ****     value_ *= (1.0f - decay);
 1213              		.loc 2 115 15 view .LVU368
 1214              	.LBB314:
 1215              		.loc 2 116 5 view .LVU369
 1216              		.loc 2 116 21 is_stmt 0 view .LVU370
 1217 019a ABEE495A 		vfms.f32	s10, s22, s18
 1218 019e B1EE4BAA 		vneg.f32	s20, s22
 1219              		.loc 2 116 12 view .LVU371
 1220 01a2 25EE275A 		vmul.f32	s10, s10, s15
 1221              	.LBE314:
 1222              	.LBE318:
ARM GAS  /var/folders/9s/8rp0_f2s1n31qbztm3b5_fdh0000gn/T//ccY1wZnf.s 			page 47


 141:eurorack/plaits/dsp/voice.cc ****       0.0f);
 1223              		.loc 9 141 26 view .LVU372
 1224 01a6 D5ED077A 		vldr.32	s15, [r5, #28]
 141:eurorack/plaits/dsp/voice.cc ****       0.0f);
 1225              		.loc 9 141 12 view .LVU373
 1226 01aa 27EE877A 		vmul.f32	s14, s15, s14
 141:eurorack/plaits/dsp/voice.cc ****       0.0f);
 1227              		.loc 9 141 47 view .LVU374
 1228 01ae F0EEE77A 		vabs.f32	s15, s15
 1229              	.LBB319:
 1230              	.LBB315:
 1231              		.loc 2 116 12 view .LVU375
 1232 01b2 8AED005A 		vstr.32	s10, [r10]
 1233              	.LVL91:
 1234              		.loc 2 116 12 view .LVU376
 1235              	.LBE315:
 1236              	.LBE319:
 140:eurorack/plaits/dsp/voice.cc ****       1.3f * modulations.level / (0.3f + fabsf(modulations.level)),
 1237              		.loc 9 140 3 is_stmt 1 view .LVU377
 141:eurorack/plaits/dsp/voice.cc ****       0.0f);
 1238              		.loc 9 141 40 is_stmt 0 view .LVU378
 1239 01b6 77EEAB7A 		vadd.f32	s15, s15, s23
 141:eurorack/plaits/dsp/voice.cc ****       0.0f);
 1240              		.loc 9 141 32 view .LVU379
 1241 01ba C7EE27BA 		vdiv.f32	s23, s14, s15
 1242              	.LVL92:
 1243              	.LBB320:
 1244              	.LBI320:
 1245              		.file 13 "/Library/DaisyToolchain/0.2.0/arm/arm-none-eabi/include/c++/10.3.1/bits/stl_algobase.h"
   1:/Library/DaisyToolchain/0.2.0/arm/arm-none-eabi/include/c++/10.3.1/bits/stl_algobase.h **** // Core algorithmic facilities -*- C++ -*-
   2:/Library/DaisyToolchain/0.2.0/arm/arm-none-eabi/include/c++/10.3.1/bits/stl_algobase.h **** 
   3:/Library/DaisyToolchain/0.2.0/arm/arm-none-eabi/include/c++/10.3.1/bits/stl_algobase.h **** // Copyright (C) 2001-2020 Free Software Foundation, Inc.
   4:/Library/DaisyToolchain/0.2.0/arm/arm-none-eabi/include/c++/10.3.1/bits/stl_algobase.h **** //
   5:/Library/DaisyToolchain/0.2.0/arm/arm-none-eabi/include/c++/10.3.1/bits/stl_algobase.h **** // This file is part of the GNU ISO C++ Library.  This library is free
   6:/Library/DaisyToolchain/0.2.0/arm/arm-none-eabi/include/c++/10.3.1/bits/stl_algobase.h **** // software; you can redistribute it and/or modify it under the
   7:/Library/DaisyToolchain/0.2.0/arm/arm-none-eabi/include/c++/10.3.1/bits/stl_algobase.h **** // terms of the GNU General Public License as published by the
   8:/Library/DaisyToolchain/0.2.0/arm/arm-none-eabi/include/c++/10.3.1/bits/stl_algobase.h **** // Free Software Foundation; either version 3, or (at your option)
   9:/Library/DaisyToolchain/0.2.0/arm/arm-none-eabi/include/c++/10.3.1/bits/stl_algobase.h **** // any later version.
  10:/Library/DaisyToolchain/0.2.0/arm/arm-none-eabi/include/c++/10.3.1/bits/stl_algobase.h **** 
  11:/Library/DaisyToolchain/0.2.0/arm/arm-none-eabi/include/c++/10.3.1/bits/stl_algobase.h **** // This library is distributed in the hope that it will be useful,
  12:/Library/DaisyToolchain/0.2.0/arm/arm-none-eabi/include/c++/10.3.1/bits/stl_algobase.h **** // but WITHOUT ANY WARRANTY; without even the implied warranty of
  13:/Library/DaisyToolchain/0.2.0/arm/arm-none-eabi/include/c++/10.3.1/bits/stl_algobase.h **** // MERCHANTABILITY or FITNESS FOR A PARTICULAR PURPOSE.  See the
  14:/Library/DaisyToolchain/0.2.0/arm/arm-none-eabi/include/c++/10.3.1/bits/stl_algobase.h **** // GNU General Public License for more details.
  15:/Library/DaisyToolchain/0.2.0/arm/arm-none-eabi/include/c++/10.3.1/bits/stl_algobase.h **** 
  16:/Library/DaisyToolchain/0.2.0/arm/arm-none-eabi/include/c++/10.3.1/bits/stl_algobase.h **** // Under Section 7 of GPL version 3, you are granted additional
  17:/Library/DaisyToolchain/0.2.0/arm/arm-none-eabi/include/c++/10.3.1/bits/stl_algobase.h **** // permissions described in the GCC Runtime Library Exception, version
  18:/Library/DaisyToolchain/0.2.0/arm/arm-none-eabi/include/c++/10.3.1/bits/stl_algobase.h **** // 3.1, as published by the Free Software Foundation.
  19:/Library/DaisyToolchain/0.2.0/arm/arm-none-eabi/include/c++/10.3.1/bits/stl_algobase.h **** 
  20:/Library/DaisyToolchain/0.2.0/arm/arm-none-eabi/include/c++/10.3.1/bits/stl_algobase.h **** // You should have received a copy of the GNU General Public License and
  21:/Library/DaisyToolchain/0.2.0/arm/arm-none-eabi/include/c++/10.3.1/bits/stl_algobase.h **** // a copy of the GCC Runtime Library Exception along with this program;
  22:/Library/DaisyToolchain/0.2.0/arm/arm-none-eabi/include/c++/10.3.1/bits/stl_algobase.h **** // see the files COPYING3 and COPYING.RUNTIME respectively.  If not, see
  23:/Library/DaisyToolchain/0.2.0/arm/arm-none-eabi/include/c++/10.3.1/bits/stl_algobase.h **** // <http://www.gnu.org/licenses/>.
  24:/Library/DaisyToolchain/0.2.0/arm/arm-none-eabi/include/c++/10.3.1/bits/stl_algobase.h **** 
  25:/Library/DaisyToolchain/0.2.0/arm/arm-none-eabi/include/c++/10.3.1/bits/stl_algobase.h **** /*
  26:/Library/DaisyToolchain/0.2.0/arm/arm-none-eabi/include/c++/10.3.1/bits/stl_algobase.h ****  *
  27:/Library/DaisyToolchain/0.2.0/arm/arm-none-eabi/include/c++/10.3.1/bits/stl_algobase.h ****  * Copyright (c) 1994
  28:/Library/DaisyToolchain/0.2.0/arm/arm-none-eabi/include/c++/10.3.1/bits/stl_algobase.h ****  * Hewlett-Packard Company
ARM GAS  /var/folders/9s/8rp0_f2s1n31qbztm3b5_fdh0000gn/T//ccY1wZnf.s 			page 48


  29:/Library/DaisyToolchain/0.2.0/arm/arm-none-eabi/include/c++/10.3.1/bits/stl_algobase.h ****  *
  30:/Library/DaisyToolchain/0.2.0/arm/arm-none-eabi/include/c++/10.3.1/bits/stl_algobase.h ****  * Permission to use, copy, modify, distribute and sell this software
  31:/Library/DaisyToolchain/0.2.0/arm/arm-none-eabi/include/c++/10.3.1/bits/stl_algobase.h ****  * and its documentation for any purpose is hereby granted without fee,
  32:/Library/DaisyToolchain/0.2.0/arm/arm-none-eabi/include/c++/10.3.1/bits/stl_algobase.h ****  * provided that the above copyright notice appear in all copies and
  33:/Library/DaisyToolchain/0.2.0/arm/arm-none-eabi/include/c++/10.3.1/bits/stl_algobase.h ****  * that both that copyright notice and this permission notice appear
  34:/Library/DaisyToolchain/0.2.0/arm/arm-none-eabi/include/c++/10.3.1/bits/stl_algobase.h ****  * in supporting documentation.  Hewlett-Packard Company makes no
  35:/Library/DaisyToolchain/0.2.0/arm/arm-none-eabi/include/c++/10.3.1/bits/stl_algobase.h ****  * representations about the suitability of this software for any
  36:/Library/DaisyToolchain/0.2.0/arm/arm-none-eabi/include/c++/10.3.1/bits/stl_algobase.h ****  * purpose.  It is provided "as is" without express or implied warranty.
  37:/Library/DaisyToolchain/0.2.0/arm/arm-none-eabi/include/c++/10.3.1/bits/stl_algobase.h ****  *
  38:/Library/DaisyToolchain/0.2.0/arm/arm-none-eabi/include/c++/10.3.1/bits/stl_algobase.h ****  *
  39:/Library/DaisyToolchain/0.2.0/arm/arm-none-eabi/include/c++/10.3.1/bits/stl_algobase.h ****  * Copyright (c) 1996-1998
  40:/Library/DaisyToolchain/0.2.0/arm/arm-none-eabi/include/c++/10.3.1/bits/stl_algobase.h ****  * Silicon Graphics Computer Systems, Inc.
  41:/Library/DaisyToolchain/0.2.0/arm/arm-none-eabi/include/c++/10.3.1/bits/stl_algobase.h ****  *
  42:/Library/DaisyToolchain/0.2.0/arm/arm-none-eabi/include/c++/10.3.1/bits/stl_algobase.h ****  * Permission to use, copy, modify, distribute and sell this software
  43:/Library/DaisyToolchain/0.2.0/arm/arm-none-eabi/include/c++/10.3.1/bits/stl_algobase.h ****  * and its documentation for any purpose is hereby granted without fee,
  44:/Library/DaisyToolchain/0.2.0/arm/arm-none-eabi/include/c++/10.3.1/bits/stl_algobase.h ****  * provided that the above copyright notice appear in all copies and
  45:/Library/DaisyToolchain/0.2.0/arm/arm-none-eabi/include/c++/10.3.1/bits/stl_algobase.h ****  * that both that copyright notice and this permission notice appear
  46:/Library/DaisyToolchain/0.2.0/arm/arm-none-eabi/include/c++/10.3.1/bits/stl_algobase.h ****  * in supporting documentation.  Silicon Graphics makes no
  47:/Library/DaisyToolchain/0.2.0/arm/arm-none-eabi/include/c++/10.3.1/bits/stl_algobase.h ****  * representations about the suitability of this software for any
  48:/Library/DaisyToolchain/0.2.0/arm/arm-none-eabi/include/c++/10.3.1/bits/stl_algobase.h ****  * purpose.  It is provided "as is" without express or implied warranty.
  49:/Library/DaisyToolchain/0.2.0/arm/arm-none-eabi/include/c++/10.3.1/bits/stl_algobase.h ****  */
  50:/Library/DaisyToolchain/0.2.0/arm/arm-none-eabi/include/c++/10.3.1/bits/stl_algobase.h **** 
  51:/Library/DaisyToolchain/0.2.0/arm/arm-none-eabi/include/c++/10.3.1/bits/stl_algobase.h **** /** @file bits/stl_algobase.h
  52:/Library/DaisyToolchain/0.2.0/arm/arm-none-eabi/include/c++/10.3.1/bits/stl_algobase.h ****  *  This is an internal header file, included by other library headers.
  53:/Library/DaisyToolchain/0.2.0/arm/arm-none-eabi/include/c++/10.3.1/bits/stl_algobase.h ****  *  Do not attempt to use it directly. @headername{algorithm}
  54:/Library/DaisyToolchain/0.2.0/arm/arm-none-eabi/include/c++/10.3.1/bits/stl_algobase.h ****  */
  55:/Library/DaisyToolchain/0.2.0/arm/arm-none-eabi/include/c++/10.3.1/bits/stl_algobase.h **** 
  56:/Library/DaisyToolchain/0.2.0/arm/arm-none-eabi/include/c++/10.3.1/bits/stl_algobase.h **** #ifndef _STL_ALGOBASE_H
  57:/Library/DaisyToolchain/0.2.0/arm/arm-none-eabi/include/c++/10.3.1/bits/stl_algobase.h **** #define _STL_ALGOBASE_H 1
  58:/Library/DaisyToolchain/0.2.0/arm/arm-none-eabi/include/c++/10.3.1/bits/stl_algobase.h **** 
  59:/Library/DaisyToolchain/0.2.0/arm/arm-none-eabi/include/c++/10.3.1/bits/stl_algobase.h **** #include <bits/c++config.h>
  60:/Library/DaisyToolchain/0.2.0/arm/arm-none-eabi/include/c++/10.3.1/bits/stl_algobase.h **** #include <bits/functexcept.h>
  61:/Library/DaisyToolchain/0.2.0/arm/arm-none-eabi/include/c++/10.3.1/bits/stl_algobase.h **** #include <bits/cpp_type_traits.h>
  62:/Library/DaisyToolchain/0.2.0/arm/arm-none-eabi/include/c++/10.3.1/bits/stl_algobase.h **** #include <ext/type_traits.h>
  63:/Library/DaisyToolchain/0.2.0/arm/arm-none-eabi/include/c++/10.3.1/bits/stl_algobase.h **** #include <ext/numeric_traits.h>
  64:/Library/DaisyToolchain/0.2.0/arm/arm-none-eabi/include/c++/10.3.1/bits/stl_algobase.h **** #include <bits/stl_pair.h>
  65:/Library/DaisyToolchain/0.2.0/arm/arm-none-eabi/include/c++/10.3.1/bits/stl_algobase.h **** #include <bits/stl_iterator_base_types.h>
  66:/Library/DaisyToolchain/0.2.0/arm/arm-none-eabi/include/c++/10.3.1/bits/stl_algobase.h **** #include <bits/stl_iterator_base_funcs.h>
  67:/Library/DaisyToolchain/0.2.0/arm/arm-none-eabi/include/c++/10.3.1/bits/stl_algobase.h **** #include <bits/stl_iterator.h>
  68:/Library/DaisyToolchain/0.2.0/arm/arm-none-eabi/include/c++/10.3.1/bits/stl_algobase.h **** #include <bits/concept_check.h>
  69:/Library/DaisyToolchain/0.2.0/arm/arm-none-eabi/include/c++/10.3.1/bits/stl_algobase.h **** #include <debug/debug.h>
  70:/Library/DaisyToolchain/0.2.0/arm/arm-none-eabi/include/c++/10.3.1/bits/stl_algobase.h **** #include <bits/move.h> // For std::swap
  71:/Library/DaisyToolchain/0.2.0/arm/arm-none-eabi/include/c++/10.3.1/bits/stl_algobase.h **** #include <bits/predefined_ops.h>
  72:/Library/DaisyToolchain/0.2.0/arm/arm-none-eabi/include/c++/10.3.1/bits/stl_algobase.h **** #if __cplusplus >= 201103L
  73:/Library/DaisyToolchain/0.2.0/arm/arm-none-eabi/include/c++/10.3.1/bits/stl_algobase.h **** # include <type_traits>
  74:/Library/DaisyToolchain/0.2.0/arm/arm-none-eabi/include/c++/10.3.1/bits/stl_algobase.h **** #endif
  75:/Library/DaisyToolchain/0.2.0/arm/arm-none-eabi/include/c++/10.3.1/bits/stl_algobase.h **** #if __cplusplus > 201703L
  76:/Library/DaisyToolchain/0.2.0/arm/arm-none-eabi/include/c++/10.3.1/bits/stl_algobase.h **** # include <compare>
  77:/Library/DaisyToolchain/0.2.0/arm/arm-none-eabi/include/c++/10.3.1/bits/stl_algobase.h **** #endif
  78:/Library/DaisyToolchain/0.2.0/arm/arm-none-eabi/include/c++/10.3.1/bits/stl_algobase.h **** 
  79:/Library/DaisyToolchain/0.2.0/arm/arm-none-eabi/include/c++/10.3.1/bits/stl_algobase.h **** namespace std _GLIBCXX_VISIBILITY(default)
  80:/Library/DaisyToolchain/0.2.0/arm/arm-none-eabi/include/c++/10.3.1/bits/stl_algobase.h **** {
  81:/Library/DaisyToolchain/0.2.0/arm/arm-none-eabi/include/c++/10.3.1/bits/stl_algobase.h **** _GLIBCXX_BEGIN_NAMESPACE_VERSION
  82:/Library/DaisyToolchain/0.2.0/arm/arm-none-eabi/include/c++/10.3.1/bits/stl_algobase.h **** 
  83:/Library/DaisyToolchain/0.2.0/arm/arm-none-eabi/include/c++/10.3.1/bits/stl_algobase.h ****   /*
  84:/Library/DaisyToolchain/0.2.0/arm/arm-none-eabi/include/c++/10.3.1/bits/stl_algobase.h ****    * A constexpr wrapper for __builtin_memcmp.
  85:/Library/DaisyToolchain/0.2.0/arm/arm-none-eabi/include/c++/10.3.1/bits/stl_algobase.h ****    * @param __num The number of elements of type _Tp (not bytes).
ARM GAS  /var/folders/9s/8rp0_f2s1n31qbztm3b5_fdh0000gn/T//ccY1wZnf.s 			page 49


  86:/Library/DaisyToolchain/0.2.0/arm/arm-none-eabi/include/c++/10.3.1/bits/stl_algobase.h ****    */
  87:/Library/DaisyToolchain/0.2.0/arm/arm-none-eabi/include/c++/10.3.1/bits/stl_algobase.h ****   template<typename _Tp, typename _Up>
  88:/Library/DaisyToolchain/0.2.0/arm/arm-none-eabi/include/c++/10.3.1/bits/stl_algobase.h ****     _GLIBCXX14_CONSTEXPR
  89:/Library/DaisyToolchain/0.2.0/arm/arm-none-eabi/include/c++/10.3.1/bits/stl_algobase.h ****     inline int
  90:/Library/DaisyToolchain/0.2.0/arm/arm-none-eabi/include/c++/10.3.1/bits/stl_algobase.h ****     __memcmp(const _Tp* __first1, const _Up* __first2, size_t __num)
  91:/Library/DaisyToolchain/0.2.0/arm/arm-none-eabi/include/c++/10.3.1/bits/stl_algobase.h ****     {
  92:/Library/DaisyToolchain/0.2.0/arm/arm-none-eabi/include/c++/10.3.1/bits/stl_algobase.h **** #if __cplusplus >= 201103L
  93:/Library/DaisyToolchain/0.2.0/arm/arm-none-eabi/include/c++/10.3.1/bits/stl_algobase.h ****       static_assert(sizeof(_Tp) == sizeof(_Up), "can be compared with memcmp");
  94:/Library/DaisyToolchain/0.2.0/arm/arm-none-eabi/include/c++/10.3.1/bits/stl_algobase.h **** #endif
  95:/Library/DaisyToolchain/0.2.0/arm/arm-none-eabi/include/c++/10.3.1/bits/stl_algobase.h **** #ifdef __cpp_lib_is_constant_evaluated
  96:/Library/DaisyToolchain/0.2.0/arm/arm-none-eabi/include/c++/10.3.1/bits/stl_algobase.h ****       if (std::is_constant_evaluated())
  97:/Library/DaisyToolchain/0.2.0/arm/arm-none-eabi/include/c++/10.3.1/bits/stl_algobase.h **** 	{
  98:/Library/DaisyToolchain/0.2.0/arm/arm-none-eabi/include/c++/10.3.1/bits/stl_algobase.h **** 	  for(; __num > 0; ++__first1, ++__first2, --__num)
  99:/Library/DaisyToolchain/0.2.0/arm/arm-none-eabi/include/c++/10.3.1/bits/stl_algobase.h **** 	    if (*__first1 != *__first2)
 100:/Library/DaisyToolchain/0.2.0/arm/arm-none-eabi/include/c++/10.3.1/bits/stl_algobase.h **** 	      return *__first1 < *__first2 ? -1 : 1;
 101:/Library/DaisyToolchain/0.2.0/arm/arm-none-eabi/include/c++/10.3.1/bits/stl_algobase.h **** 	  return 0;
 102:/Library/DaisyToolchain/0.2.0/arm/arm-none-eabi/include/c++/10.3.1/bits/stl_algobase.h **** 	}
 103:/Library/DaisyToolchain/0.2.0/arm/arm-none-eabi/include/c++/10.3.1/bits/stl_algobase.h ****       else
 104:/Library/DaisyToolchain/0.2.0/arm/arm-none-eabi/include/c++/10.3.1/bits/stl_algobase.h **** #endif
 105:/Library/DaisyToolchain/0.2.0/arm/arm-none-eabi/include/c++/10.3.1/bits/stl_algobase.h **** 	return __builtin_memcmp(__first1, __first2, sizeof(_Tp) * __num);
 106:/Library/DaisyToolchain/0.2.0/arm/arm-none-eabi/include/c++/10.3.1/bits/stl_algobase.h ****     }
 107:/Library/DaisyToolchain/0.2.0/arm/arm-none-eabi/include/c++/10.3.1/bits/stl_algobase.h **** 
 108:/Library/DaisyToolchain/0.2.0/arm/arm-none-eabi/include/c++/10.3.1/bits/stl_algobase.h **** #if __cplusplus < 201103L
 109:/Library/DaisyToolchain/0.2.0/arm/arm-none-eabi/include/c++/10.3.1/bits/stl_algobase.h ****   // See http://gcc.gnu.org/ml/libstdc++/2004-08/msg00167.html: in a
 110:/Library/DaisyToolchain/0.2.0/arm/arm-none-eabi/include/c++/10.3.1/bits/stl_algobase.h ****   // nutshell, we are partially implementing the resolution of DR 187,
 111:/Library/DaisyToolchain/0.2.0/arm/arm-none-eabi/include/c++/10.3.1/bits/stl_algobase.h ****   // when it's safe, i.e., the value_types are equal.
 112:/Library/DaisyToolchain/0.2.0/arm/arm-none-eabi/include/c++/10.3.1/bits/stl_algobase.h ****   template<bool _BoolType>
 113:/Library/DaisyToolchain/0.2.0/arm/arm-none-eabi/include/c++/10.3.1/bits/stl_algobase.h ****     struct __iter_swap
 114:/Library/DaisyToolchain/0.2.0/arm/arm-none-eabi/include/c++/10.3.1/bits/stl_algobase.h ****     {
 115:/Library/DaisyToolchain/0.2.0/arm/arm-none-eabi/include/c++/10.3.1/bits/stl_algobase.h ****       template<typename _ForwardIterator1, typename _ForwardIterator2>
 116:/Library/DaisyToolchain/0.2.0/arm/arm-none-eabi/include/c++/10.3.1/bits/stl_algobase.h **** 	static void
 117:/Library/DaisyToolchain/0.2.0/arm/arm-none-eabi/include/c++/10.3.1/bits/stl_algobase.h **** 	iter_swap(_ForwardIterator1 __a, _ForwardIterator2 __b)
 118:/Library/DaisyToolchain/0.2.0/arm/arm-none-eabi/include/c++/10.3.1/bits/stl_algobase.h **** 	{
 119:/Library/DaisyToolchain/0.2.0/arm/arm-none-eabi/include/c++/10.3.1/bits/stl_algobase.h **** 	  typedef typename iterator_traits<_ForwardIterator1>::value_type
 120:/Library/DaisyToolchain/0.2.0/arm/arm-none-eabi/include/c++/10.3.1/bits/stl_algobase.h **** 	    _ValueType1;
 121:/Library/DaisyToolchain/0.2.0/arm/arm-none-eabi/include/c++/10.3.1/bits/stl_algobase.h **** 	  _ValueType1 __tmp = *__a;
 122:/Library/DaisyToolchain/0.2.0/arm/arm-none-eabi/include/c++/10.3.1/bits/stl_algobase.h **** 	  *__a = *__b;
 123:/Library/DaisyToolchain/0.2.0/arm/arm-none-eabi/include/c++/10.3.1/bits/stl_algobase.h **** 	  *__b = __tmp;
 124:/Library/DaisyToolchain/0.2.0/arm/arm-none-eabi/include/c++/10.3.1/bits/stl_algobase.h **** 	}
 125:/Library/DaisyToolchain/0.2.0/arm/arm-none-eabi/include/c++/10.3.1/bits/stl_algobase.h ****     };
 126:/Library/DaisyToolchain/0.2.0/arm/arm-none-eabi/include/c++/10.3.1/bits/stl_algobase.h **** 
 127:/Library/DaisyToolchain/0.2.0/arm/arm-none-eabi/include/c++/10.3.1/bits/stl_algobase.h ****   template<>
 128:/Library/DaisyToolchain/0.2.0/arm/arm-none-eabi/include/c++/10.3.1/bits/stl_algobase.h ****     struct __iter_swap<true>
 129:/Library/DaisyToolchain/0.2.0/arm/arm-none-eabi/include/c++/10.3.1/bits/stl_algobase.h ****     {
 130:/Library/DaisyToolchain/0.2.0/arm/arm-none-eabi/include/c++/10.3.1/bits/stl_algobase.h ****       template<typename _ForwardIterator1, typename _ForwardIterator2>
 131:/Library/DaisyToolchain/0.2.0/arm/arm-none-eabi/include/c++/10.3.1/bits/stl_algobase.h **** 	static void
 132:/Library/DaisyToolchain/0.2.0/arm/arm-none-eabi/include/c++/10.3.1/bits/stl_algobase.h **** 	iter_swap(_ForwardIterator1 __a, _ForwardIterator2 __b)
 133:/Library/DaisyToolchain/0.2.0/arm/arm-none-eabi/include/c++/10.3.1/bits/stl_algobase.h **** 	{
 134:/Library/DaisyToolchain/0.2.0/arm/arm-none-eabi/include/c++/10.3.1/bits/stl_algobase.h **** 	  swap(*__a, *__b);
 135:/Library/DaisyToolchain/0.2.0/arm/arm-none-eabi/include/c++/10.3.1/bits/stl_algobase.h **** 	}
 136:/Library/DaisyToolchain/0.2.0/arm/arm-none-eabi/include/c++/10.3.1/bits/stl_algobase.h ****     };
 137:/Library/DaisyToolchain/0.2.0/arm/arm-none-eabi/include/c++/10.3.1/bits/stl_algobase.h **** #endif // C++03
 138:/Library/DaisyToolchain/0.2.0/arm/arm-none-eabi/include/c++/10.3.1/bits/stl_algobase.h **** 
 139:/Library/DaisyToolchain/0.2.0/arm/arm-none-eabi/include/c++/10.3.1/bits/stl_algobase.h ****   /**
 140:/Library/DaisyToolchain/0.2.0/arm/arm-none-eabi/include/c++/10.3.1/bits/stl_algobase.h ****    *  @brief Swaps the contents of two iterators.
 141:/Library/DaisyToolchain/0.2.0/arm/arm-none-eabi/include/c++/10.3.1/bits/stl_algobase.h ****    *  @ingroup mutating_algorithms
 142:/Library/DaisyToolchain/0.2.0/arm/arm-none-eabi/include/c++/10.3.1/bits/stl_algobase.h ****    *  @param  __a  An iterator.
ARM GAS  /var/folders/9s/8rp0_f2s1n31qbztm3b5_fdh0000gn/T//ccY1wZnf.s 			page 50


 143:/Library/DaisyToolchain/0.2.0/arm/arm-none-eabi/include/c++/10.3.1/bits/stl_algobase.h ****    *  @param  __b  Another iterator.
 144:/Library/DaisyToolchain/0.2.0/arm/arm-none-eabi/include/c++/10.3.1/bits/stl_algobase.h ****    *  @return   Nothing.
 145:/Library/DaisyToolchain/0.2.0/arm/arm-none-eabi/include/c++/10.3.1/bits/stl_algobase.h ****    *
 146:/Library/DaisyToolchain/0.2.0/arm/arm-none-eabi/include/c++/10.3.1/bits/stl_algobase.h ****    *  This function swaps the values pointed to by two iterators, not the
 147:/Library/DaisyToolchain/0.2.0/arm/arm-none-eabi/include/c++/10.3.1/bits/stl_algobase.h ****    *  iterators themselves.
 148:/Library/DaisyToolchain/0.2.0/arm/arm-none-eabi/include/c++/10.3.1/bits/stl_algobase.h ****   */
 149:/Library/DaisyToolchain/0.2.0/arm/arm-none-eabi/include/c++/10.3.1/bits/stl_algobase.h ****   template<typename _ForwardIterator1, typename _ForwardIterator2>
 150:/Library/DaisyToolchain/0.2.0/arm/arm-none-eabi/include/c++/10.3.1/bits/stl_algobase.h ****     _GLIBCXX20_CONSTEXPR
 151:/Library/DaisyToolchain/0.2.0/arm/arm-none-eabi/include/c++/10.3.1/bits/stl_algobase.h ****     inline void
 152:/Library/DaisyToolchain/0.2.0/arm/arm-none-eabi/include/c++/10.3.1/bits/stl_algobase.h ****     iter_swap(_ForwardIterator1 __a, _ForwardIterator2 __b)
 153:/Library/DaisyToolchain/0.2.0/arm/arm-none-eabi/include/c++/10.3.1/bits/stl_algobase.h ****     {
 154:/Library/DaisyToolchain/0.2.0/arm/arm-none-eabi/include/c++/10.3.1/bits/stl_algobase.h ****       // concept requirements
 155:/Library/DaisyToolchain/0.2.0/arm/arm-none-eabi/include/c++/10.3.1/bits/stl_algobase.h ****       __glibcxx_function_requires(_Mutable_ForwardIteratorConcept<
 156:/Library/DaisyToolchain/0.2.0/arm/arm-none-eabi/include/c++/10.3.1/bits/stl_algobase.h **** 				  _ForwardIterator1>)
 157:/Library/DaisyToolchain/0.2.0/arm/arm-none-eabi/include/c++/10.3.1/bits/stl_algobase.h ****       __glibcxx_function_requires(_Mutable_ForwardIteratorConcept<
 158:/Library/DaisyToolchain/0.2.0/arm/arm-none-eabi/include/c++/10.3.1/bits/stl_algobase.h **** 				  _ForwardIterator2>)
 159:/Library/DaisyToolchain/0.2.0/arm/arm-none-eabi/include/c++/10.3.1/bits/stl_algobase.h **** 
 160:/Library/DaisyToolchain/0.2.0/arm/arm-none-eabi/include/c++/10.3.1/bits/stl_algobase.h **** #if __cplusplus < 201103L
 161:/Library/DaisyToolchain/0.2.0/arm/arm-none-eabi/include/c++/10.3.1/bits/stl_algobase.h ****       typedef typename iterator_traits<_ForwardIterator1>::value_type
 162:/Library/DaisyToolchain/0.2.0/arm/arm-none-eabi/include/c++/10.3.1/bits/stl_algobase.h **** 	_ValueType1;
 163:/Library/DaisyToolchain/0.2.0/arm/arm-none-eabi/include/c++/10.3.1/bits/stl_algobase.h ****       typedef typename iterator_traits<_ForwardIterator2>::value_type
 164:/Library/DaisyToolchain/0.2.0/arm/arm-none-eabi/include/c++/10.3.1/bits/stl_algobase.h **** 	_ValueType2;
 165:/Library/DaisyToolchain/0.2.0/arm/arm-none-eabi/include/c++/10.3.1/bits/stl_algobase.h **** 
 166:/Library/DaisyToolchain/0.2.0/arm/arm-none-eabi/include/c++/10.3.1/bits/stl_algobase.h ****       __glibcxx_function_requires(_ConvertibleConcept<_ValueType1,
 167:/Library/DaisyToolchain/0.2.0/arm/arm-none-eabi/include/c++/10.3.1/bits/stl_algobase.h **** 				  _ValueType2>)
 168:/Library/DaisyToolchain/0.2.0/arm/arm-none-eabi/include/c++/10.3.1/bits/stl_algobase.h ****       __glibcxx_function_requires(_ConvertibleConcept<_ValueType2,
 169:/Library/DaisyToolchain/0.2.0/arm/arm-none-eabi/include/c++/10.3.1/bits/stl_algobase.h **** 				  _ValueType1>)
 170:/Library/DaisyToolchain/0.2.0/arm/arm-none-eabi/include/c++/10.3.1/bits/stl_algobase.h **** 
 171:/Library/DaisyToolchain/0.2.0/arm/arm-none-eabi/include/c++/10.3.1/bits/stl_algobase.h ****       typedef typename iterator_traits<_ForwardIterator1>::reference
 172:/Library/DaisyToolchain/0.2.0/arm/arm-none-eabi/include/c++/10.3.1/bits/stl_algobase.h **** 	_ReferenceType1;
 173:/Library/DaisyToolchain/0.2.0/arm/arm-none-eabi/include/c++/10.3.1/bits/stl_algobase.h ****       typedef typename iterator_traits<_ForwardIterator2>::reference
 174:/Library/DaisyToolchain/0.2.0/arm/arm-none-eabi/include/c++/10.3.1/bits/stl_algobase.h **** 	_ReferenceType2;
 175:/Library/DaisyToolchain/0.2.0/arm/arm-none-eabi/include/c++/10.3.1/bits/stl_algobase.h ****       std::__iter_swap<__are_same<_ValueType1, _ValueType2>::__value
 176:/Library/DaisyToolchain/0.2.0/arm/arm-none-eabi/include/c++/10.3.1/bits/stl_algobase.h **** 	&& __are_same<_ValueType1&, _ReferenceType1>::__value
 177:/Library/DaisyToolchain/0.2.0/arm/arm-none-eabi/include/c++/10.3.1/bits/stl_algobase.h **** 	&& __are_same<_ValueType2&, _ReferenceType2>::__value>::
 178:/Library/DaisyToolchain/0.2.0/arm/arm-none-eabi/include/c++/10.3.1/bits/stl_algobase.h **** 	iter_swap(__a, __b);
 179:/Library/DaisyToolchain/0.2.0/arm/arm-none-eabi/include/c++/10.3.1/bits/stl_algobase.h **** #else
 180:/Library/DaisyToolchain/0.2.0/arm/arm-none-eabi/include/c++/10.3.1/bits/stl_algobase.h ****       // _GLIBCXX_RESOLVE_LIB_DEFECTS
 181:/Library/DaisyToolchain/0.2.0/arm/arm-none-eabi/include/c++/10.3.1/bits/stl_algobase.h ****       // 187. iter_swap underspecified
 182:/Library/DaisyToolchain/0.2.0/arm/arm-none-eabi/include/c++/10.3.1/bits/stl_algobase.h ****       swap(*__a, *__b);
 183:/Library/DaisyToolchain/0.2.0/arm/arm-none-eabi/include/c++/10.3.1/bits/stl_algobase.h **** #endif
 184:/Library/DaisyToolchain/0.2.0/arm/arm-none-eabi/include/c++/10.3.1/bits/stl_algobase.h ****     }
 185:/Library/DaisyToolchain/0.2.0/arm/arm-none-eabi/include/c++/10.3.1/bits/stl_algobase.h **** 
 186:/Library/DaisyToolchain/0.2.0/arm/arm-none-eabi/include/c++/10.3.1/bits/stl_algobase.h ****   /**
 187:/Library/DaisyToolchain/0.2.0/arm/arm-none-eabi/include/c++/10.3.1/bits/stl_algobase.h ****    *  @brief Swap the elements of two sequences.
 188:/Library/DaisyToolchain/0.2.0/arm/arm-none-eabi/include/c++/10.3.1/bits/stl_algobase.h ****    *  @ingroup mutating_algorithms
 189:/Library/DaisyToolchain/0.2.0/arm/arm-none-eabi/include/c++/10.3.1/bits/stl_algobase.h ****    *  @param  __first1  A forward iterator.
 190:/Library/DaisyToolchain/0.2.0/arm/arm-none-eabi/include/c++/10.3.1/bits/stl_algobase.h ****    *  @param  __last1   A forward iterator.
 191:/Library/DaisyToolchain/0.2.0/arm/arm-none-eabi/include/c++/10.3.1/bits/stl_algobase.h ****    *  @param  __first2  A forward iterator.
 192:/Library/DaisyToolchain/0.2.0/arm/arm-none-eabi/include/c++/10.3.1/bits/stl_algobase.h ****    *  @return   An iterator equal to @p first2+(last1-first1).
 193:/Library/DaisyToolchain/0.2.0/arm/arm-none-eabi/include/c++/10.3.1/bits/stl_algobase.h ****    *
 194:/Library/DaisyToolchain/0.2.0/arm/arm-none-eabi/include/c++/10.3.1/bits/stl_algobase.h ****    *  Swaps each element in the range @p [first1,last1) with the
 195:/Library/DaisyToolchain/0.2.0/arm/arm-none-eabi/include/c++/10.3.1/bits/stl_algobase.h ****    *  corresponding element in the range @p [first2,(last1-first1)).
 196:/Library/DaisyToolchain/0.2.0/arm/arm-none-eabi/include/c++/10.3.1/bits/stl_algobase.h ****    *  The ranges must not overlap.
 197:/Library/DaisyToolchain/0.2.0/arm/arm-none-eabi/include/c++/10.3.1/bits/stl_algobase.h ****   */
 198:/Library/DaisyToolchain/0.2.0/arm/arm-none-eabi/include/c++/10.3.1/bits/stl_algobase.h ****   template<typename _ForwardIterator1, typename _ForwardIterator2>
 199:/Library/DaisyToolchain/0.2.0/arm/arm-none-eabi/include/c++/10.3.1/bits/stl_algobase.h ****     _GLIBCXX20_CONSTEXPR
ARM GAS  /var/folders/9s/8rp0_f2s1n31qbztm3b5_fdh0000gn/T//ccY1wZnf.s 			page 51


 200:/Library/DaisyToolchain/0.2.0/arm/arm-none-eabi/include/c++/10.3.1/bits/stl_algobase.h ****     _ForwardIterator2
 201:/Library/DaisyToolchain/0.2.0/arm/arm-none-eabi/include/c++/10.3.1/bits/stl_algobase.h ****     swap_ranges(_ForwardIterator1 __first1, _ForwardIterator1 __last1,
 202:/Library/DaisyToolchain/0.2.0/arm/arm-none-eabi/include/c++/10.3.1/bits/stl_algobase.h **** 		_ForwardIterator2 __first2)
 203:/Library/DaisyToolchain/0.2.0/arm/arm-none-eabi/include/c++/10.3.1/bits/stl_algobase.h ****     {
 204:/Library/DaisyToolchain/0.2.0/arm/arm-none-eabi/include/c++/10.3.1/bits/stl_algobase.h ****       // concept requirements
 205:/Library/DaisyToolchain/0.2.0/arm/arm-none-eabi/include/c++/10.3.1/bits/stl_algobase.h ****       __glibcxx_function_requires(_Mutable_ForwardIteratorConcept<
 206:/Library/DaisyToolchain/0.2.0/arm/arm-none-eabi/include/c++/10.3.1/bits/stl_algobase.h **** 				  _ForwardIterator1>)
 207:/Library/DaisyToolchain/0.2.0/arm/arm-none-eabi/include/c++/10.3.1/bits/stl_algobase.h ****       __glibcxx_function_requires(_Mutable_ForwardIteratorConcept<
 208:/Library/DaisyToolchain/0.2.0/arm/arm-none-eabi/include/c++/10.3.1/bits/stl_algobase.h **** 				  _ForwardIterator2>)
 209:/Library/DaisyToolchain/0.2.0/arm/arm-none-eabi/include/c++/10.3.1/bits/stl_algobase.h ****       __glibcxx_requires_valid_range(__first1, __last1);
 210:/Library/DaisyToolchain/0.2.0/arm/arm-none-eabi/include/c++/10.3.1/bits/stl_algobase.h **** 
 211:/Library/DaisyToolchain/0.2.0/arm/arm-none-eabi/include/c++/10.3.1/bits/stl_algobase.h ****       for (; __first1 != __last1; ++__first1, (void)++__first2)
 212:/Library/DaisyToolchain/0.2.0/arm/arm-none-eabi/include/c++/10.3.1/bits/stl_algobase.h **** 	std::iter_swap(__first1, __first2);
 213:/Library/DaisyToolchain/0.2.0/arm/arm-none-eabi/include/c++/10.3.1/bits/stl_algobase.h ****       return __first2;
 214:/Library/DaisyToolchain/0.2.0/arm/arm-none-eabi/include/c++/10.3.1/bits/stl_algobase.h ****     }
 215:/Library/DaisyToolchain/0.2.0/arm/arm-none-eabi/include/c++/10.3.1/bits/stl_algobase.h **** 
 216:/Library/DaisyToolchain/0.2.0/arm/arm-none-eabi/include/c++/10.3.1/bits/stl_algobase.h ****   /**
 217:/Library/DaisyToolchain/0.2.0/arm/arm-none-eabi/include/c++/10.3.1/bits/stl_algobase.h ****    *  @brief This does what you think it does.
 218:/Library/DaisyToolchain/0.2.0/arm/arm-none-eabi/include/c++/10.3.1/bits/stl_algobase.h ****    *  @ingroup sorting_algorithms
 219:/Library/DaisyToolchain/0.2.0/arm/arm-none-eabi/include/c++/10.3.1/bits/stl_algobase.h ****    *  @param  __a  A thing of arbitrary type.
 220:/Library/DaisyToolchain/0.2.0/arm/arm-none-eabi/include/c++/10.3.1/bits/stl_algobase.h ****    *  @param  __b  Another thing of arbitrary type.
 221:/Library/DaisyToolchain/0.2.0/arm/arm-none-eabi/include/c++/10.3.1/bits/stl_algobase.h ****    *  @return   The lesser of the parameters.
 222:/Library/DaisyToolchain/0.2.0/arm/arm-none-eabi/include/c++/10.3.1/bits/stl_algobase.h ****    *
 223:/Library/DaisyToolchain/0.2.0/arm/arm-none-eabi/include/c++/10.3.1/bits/stl_algobase.h ****    *  This is the simple classic generic implementation.  It will work on
 224:/Library/DaisyToolchain/0.2.0/arm/arm-none-eabi/include/c++/10.3.1/bits/stl_algobase.h ****    *  temporary expressions, since they are only evaluated once, unlike a
 225:/Library/DaisyToolchain/0.2.0/arm/arm-none-eabi/include/c++/10.3.1/bits/stl_algobase.h ****    *  preprocessor macro.
 226:/Library/DaisyToolchain/0.2.0/arm/arm-none-eabi/include/c++/10.3.1/bits/stl_algobase.h ****   */
 227:/Library/DaisyToolchain/0.2.0/arm/arm-none-eabi/include/c++/10.3.1/bits/stl_algobase.h ****   template<typename _Tp>
 228:/Library/DaisyToolchain/0.2.0/arm/arm-none-eabi/include/c++/10.3.1/bits/stl_algobase.h ****     _GLIBCXX14_CONSTEXPR
 229:/Library/DaisyToolchain/0.2.0/arm/arm-none-eabi/include/c++/10.3.1/bits/stl_algobase.h ****     inline const _Tp&
 230:/Library/DaisyToolchain/0.2.0/arm/arm-none-eabi/include/c++/10.3.1/bits/stl_algobase.h ****     min(const _Tp& __a, const _Tp& __b)
 231:/Library/DaisyToolchain/0.2.0/arm/arm-none-eabi/include/c++/10.3.1/bits/stl_algobase.h ****     {
 232:/Library/DaisyToolchain/0.2.0/arm/arm-none-eabi/include/c++/10.3.1/bits/stl_algobase.h ****       // concept requirements
 233:/Library/DaisyToolchain/0.2.0/arm/arm-none-eabi/include/c++/10.3.1/bits/stl_algobase.h ****       __glibcxx_function_requires(_LessThanComparableConcept<_Tp>)
 234:/Library/DaisyToolchain/0.2.0/arm/arm-none-eabi/include/c++/10.3.1/bits/stl_algobase.h ****       //return __b < __a ? __b : __a;
 235:/Library/DaisyToolchain/0.2.0/arm/arm-none-eabi/include/c++/10.3.1/bits/stl_algobase.h ****       if (__b < __a)
 236:/Library/DaisyToolchain/0.2.0/arm/arm-none-eabi/include/c++/10.3.1/bits/stl_algobase.h **** 	return __b;
 237:/Library/DaisyToolchain/0.2.0/arm/arm-none-eabi/include/c++/10.3.1/bits/stl_algobase.h ****       return __a;
 238:/Library/DaisyToolchain/0.2.0/arm/arm-none-eabi/include/c++/10.3.1/bits/stl_algobase.h ****     }
 239:/Library/DaisyToolchain/0.2.0/arm/arm-none-eabi/include/c++/10.3.1/bits/stl_algobase.h **** 
 240:/Library/DaisyToolchain/0.2.0/arm/arm-none-eabi/include/c++/10.3.1/bits/stl_algobase.h ****   /**
 241:/Library/DaisyToolchain/0.2.0/arm/arm-none-eabi/include/c++/10.3.1/bits/stl_algobase.h ****    *  @brief This does what you think it does.
 242:/Library/DaisyToolchain/0.2.0/arm/arm-none-eabi/include/c++/10.3.1/bits/stl_algobase.h ****    *  @ingroup sorting_algorithms
 243:/Library/DaisyToolchain/0.2.0/arm/arm-none-eabi/include/c++/10.3.1/bits/stl_algobase.h ****    *  @param  __a  A thing of arbitrary type.
 244:/Library/DaisyToolchain/0.2.0/arm/arm-none-eabi/include/c++/10.3.1/bits/stl_algobase.h ****    *  @param  __b  Another thing of arbitrary type.
 245:/Library/DaisyToolchain/0.2.0/arm/arm-none-eabi/include/c++/10.3.1/bits/stl_algobase.h ****    *  @return   The greater of the parameters.
 246:/Library/DaisyToolchain/0.2.0/arm/arm-none-eabi/include/c++/10.3.1/bits/stl_algobase.h ****    *
 247:/Library/DaisyToolchain/0.2.0/arm/arm-none-eabi/include/c++/10.3.1/bits/stl_algobase.h ****    *  This is the simple classic generic implementation.  It will work on
 248:/Library/DaisyToolchain/0.2.0/arm/arm-none-eabi/include/c++/10.3.1/bits/stl_algobase.h ****    *  temporary expressions, since they are only evaluated once, unlike a
 249:/Library/DaisyToolchain/0.2.0/arm/arm-none-eabi/include/c++/10.3.1/bits/stl_algobase.h ****    *  preprocessor macro.
 250:/Library/DaisyToolchain/0.2.0/arm/arm-none-eabi/include/c++/10.3.1/bits/stl_algobase.h ****   */
 251:/Library/DaisyToolchain/0.2.0/arm/arm-none-eabi/include/c++/10.3.1/bits/stl_algobase.h ****   template<typename _Tp>
 252:/Library/DaisyToolchain/0.2.0/arm/arm-none-eabi/include/c++/10.3.1/bits/stl_algobase.h ****     _GLIBCXX14_CONSTEXPR
 253:/Library/DaisyToolchain/0.2.0/arm/arm-none-eabi/include/c++/10.3.1/bits/stl_algobase.h ****     inline const _Tp&
 254:/Library/DaisyToolchain/0.2.0/arm/arm-none-eabi/include/c++/10.3.1/bits/stl_algobase.h ****     max(const _Tp& __a, const _Tp& __b)
 1246              		.loc 13 254 5 is_stmt 1 view .LVU380
 1247              	.LBE320:
ARM GAS  /var/folders/9s/8rp0_f2s1n31qbztm3b5_fdh0000gn/T//ccY1wZnf.s 			page 52


 1248              		.loc 9 143 40 is_stmt 0 view .LVU381
 1249 01be DFED707A 		vldr.32	s15, .L115+20
 144:eurorack/plaits/dsp/voice.cc **** 
 145:eurorack/plaits/dsp/voice.cc ****   bool use_internal_envelope = modulations.trigger_patched;
 146:eurorack/plaits/dsp/voice.cc **** 
 147:eurorack/plaits/dsp/voice.cc ****   // Actual synthesis parameters.
 148:eurorack/plaits/dsp/voice.cc ****   
 149:eurorack/plaits/dsp/voice.cc ****   p.harmonics = patch.harmonics + modulations.harmonics;
 1250              		.loc 9 149 33 view .LVU382
 1251 01c2 95ED037A 		vldr.32	s14, [r5, #12]
 1252              	.LBB322:
 1253              	.LBB321:
 255:/Library/DaisyToolchain/0.2.0/arm/arm-none-eabi/include/c++/10.3.1/bits/stl_algobase.h ****     {
 256:/Library/DaisyToolchain/0.2.0/arm/arm-none-eabi/include/c++/10.3.1/bits/stl_algobase.h ****       // concept requirements
 257:/Library/DaisyToolchain/0.2.0/arm/arm-none-eabi/include/c++/10.3.1/bits/stl_algobase.h ****       __glibcxx_function_requires(_LessThanComparableConcept<_Tp>)
 258:/Library/DaisyToolchain/0.2.0/arm/arm-none-eabi/include/c++/10.3.1/bits/stl_algobase.h ****       //return  __a < __b ? __b : __a;
 259:/Library/DaisyToolchain/0.2.0/arm/arm-none-eabi/include/c++/10.3.1/bits/stl_algobase.h ****       if (__a < __b)
 1254              		.loc 13 259 7 view .LVU383
 1255 01c6 F5EEC0BA 		vcmpe.f32	s23, #0
 1256 01ca F1EE10FA 		vmrs	APSR_nzcv, FPSCR
 260:/Library/DaisyToolchain/0.2.0/arm/arm-none-eabi/include/c++/10.3.1/bits/stl_algobase.h **** 	return __b;
 1257              		.loc 13 260 9 view .LVU384
 1258 01ce 48BF     		it	mi
 1259 01d0 DFED76BA 		vldrmi.32	s23, .L115+64
 1260              	.LVL93:
 1261              		.loc 13 260 9 view .LVU385
 1262              	.LBE321:
 1263              	.LBE322:
 143:eurorack/plaits/dsp/voice.cc **** 
 1264              		.loc 9 143 3 is_stmt 1 view .LVU386
 143:eurorack/plaits/dsp/voice.cc **** 
 1265              		.loc 9 143 40 is_stmt 0 view .LVU387
 1266 01d4 002B     		cmp	r3, #0
 1267 01d6 47FEAB7A 		vseleq.f32	s15, s15, s23
 143:eurorack/plaits/dsp/voice.cc **** 
 1268              		.loc 9 143 12 view .LVU388
 1269 01da CDED0D7A 		vstr.32	s15, [sp, #52]
 145:eurorack/plaits/dsp/voice.cc **** 
 1270              		.loc 9 145 3 is_stmt 1 view .LVU389
 1271              	.LVL94:
 1272              		.loc 9 149 3 view .LVU390
 1273              		.loc 9 149 33 is_stmt 0 view .LVU391
 1274 01de D6ED017A 		vldr.32	s15, [r6, #4]
 1275 01e2 77EE877A 		vadd.f32	s15, s15, s14
 150:eurorack/plaits/dsp/voice.cc ****   CONSTRAIN(p.harmonics, 0.0f, 1.0f);
 1276              		.loc 9 150 3 is_stmt 1 view .LVU392
 1277 01e6 F5EEC07A 		vcmpe.f32	s15, #0
 1278 01ea F1EE10FA 		vmrs	APSR_nzcv, FPSCR
 1279 01ee 40F16581 		bpl	.L111
 1280              		.loc 9 150 3 discriminator 1 view .LVU393
 1281 01f2 8DED0CCA 		vstr.32	s24, [sp, #48]
 1282              	.L53:
 1283              		.loc 9 150 37 discriminator 6 view .LVU394
 151:eurorack/plaits/dsp/voice.cc **** 
 152:eurorack/plaits/dsp/voice.cc ****   float internal_envelope_amplitude = 1.0f;
 1284              		.loc 9 152 3 discriminator 6 view .LVU395
 1285              	.LVL95:
ARM GAS  /var/folders/9s/8rp0_f2s1n31qbztm3b5_fdh0000gn/T//ccY1wZnf.s 			page 53


 153:eurorack/plaits/dsp/voice.cc ****   if (engine_index == 7) {
 1286              		.loc 9 153 3 discriminator 6 view .LVU396
 1287 01f6 072F     		cmp	r7, #7
 1288 01f8 40F06981 		bne	.L82
 154:eurorack/plaits/dsp/voice.cc ****     internal_envelope_amplitude = 2.0f - p.harmonics * 6.0f;
 1289              		.loc 9 154 5 view .LVU397
 1290              		.loc 9 154 33 is_stmt 0 view .LVU398
 1291 01fc F1EE087A 		vmov.f32	s15, #6.0e+0
 1292 0200 DDED0C6A 		vldr.32	s13, [sp, #48]
 1293 0204 B0EE497A 		vmov.f32	s14, s18
 1294 0208 A6EEE77A 		vfms.f32	s14, s13, s15
 1295              	.LVL96:
 155:eurorack/plaits/dsp/voice.cc ****     CONSTRAIN(internal_envelope_amplitude, 0.0f, 1.0f);
 1296              		.loc 9 155 5 is_stmt 1 view .LVU399
 1297 020c B5EEC07A 		vcmpe.f32	s14, #0
 1298 0210 F1EE10FA 		vmrs	APSR_nzcv, FPSCR
 1299 0214 00F15E81 		bmi	.L83
 1300              		.loc 9 155 5 discriminator 2 view .LVU400
 152:eurorack/plaits/dsp/voice.cc ****   if (engine_index == 7) {
 1301              		.loc 9 152 9 is_stmt 0 discriminator 2 view .LVU401
 1302 0218 B4EE687A 		vcmp.f32	s14, s17
 1303 021c F7EE007A 		vmov.f32	s15, #1.0e+0
 1304 0220 F1EE10FA 		vmrs	APSR_nzcv, FPSCR
 1305 0224 37FE877A 		vselgt.f32	s14, s15, s14
 1306              	.LVL97:
 1307              	.L55:
 156:eurorack/plaits/dsp/voice.cc ****     //speech_engine_.set_prosody_amount(
 157:eurorack/plaits/dsp/voice.cc ****     //    !modulations.trigger_patched || modulations.frequency_patched ?
 158:eurorack/plaits/dsp/voice.cc ****     //        0.0f : patch.frequency_modulation_amount);
 159:eurorack/plaits/dsp/voice.cc ****     //speech_engine_.set_speed( 
 160:eurorack/plaits/dsp/voice.cc ****     //    !modulations.trigger_patched || modulations.morph_patched ?
 161:eurorack/plaits/dsp/voice.cc ****     //        0.0f : patch.morph_modulation_amount);
 162:eurorack/plaits/dsp/voice.cc ****   }
 163:eurorack/plaits/dsp/voice.cc **** 
 164:eurorack/plaits/dsp/voice.cc ****   p.note = ApplyModulations(
 1308              		.loc 9 164 3 is_stmt 1 view .LVU402
 165:eurorack/plaits/dsp/voice.cc ****       patch.note + note,
 166:eurorack/plaits/dsp/voice.cc ****       patch.frequency_modulation_amount,
 1309              		.loc 9 166 13 is_stmt 0 view .LVU403
 1310 0228 96ED046A 		vldr.32	s12, [r6, #16]
 167:eurorack/plaits/dsp/voice.cc ****       modulations.frequency_patched,
 168:eurorack/plaits/dsp/voice.cc ****       modulations.frequency,
 169:eurorack/plaits/dsp/voice.cc ****       use_internal_envelope,
 170:eurorack/plaits/dsp/voice.cc ****       internal_envelope_amplitude * \
 1311              		.loc 9 170 35 view .LVU404
 1312 022c 67EE056A 		vmul.f32	s13, s14, s10
 1313              	.LBB323:
 1314              	.LBB324:
 110:eurorack/plaits/dsp/voice.h ****   
 111:eurorack/plaits/dsp/voice.h ****  private:
 112:eurorack/plaits/dsp/voice.h ****   stmlib::Limiter limiter_;
 113:eurorack/plaits/dsp/voice.h ****   LowPassGate lpg_;
 114:eurorack/plaits/dsp/voice.h ****   
 115:eurorack/plaits/dsp/voice.h ****   DISALLOW_COPY_AND_ASSIGN(ChannelPostProcessor);
 116:eurorack/plaits/dsp/voice.h **** };
 117:eurorack/plaits/dsp/voice.h **** 
 118:eurorack/plaits/dsp/voice.h **** struct Patch {
ARM GAS  /var/folders/9s/8rp0_f2s1n31qbztm3b5_fdh0000gn/T//ccY1wZnf.s 			page 54


 119:eurorack/plaits/dsp/voice.h ****   float note;
 120:eurorack/plaits/dsp/voice.h ****   float harmonics;
 121:eurorack/plaits/dsp/voice.h ****   float timbre;
 122:eurorack/plaits/dsp/voice.h ****   float morph;
 123:eurorack/plaits/dsp/voice.h ****   float frequency_modulation_amount;
 124:eurorack/plaits/dsp/voice.h ****   float timbre_modulation_amount;
 125:eurorack/plaits/dsp/voice.h ****   float morph_modulation_amount;
 126:eurorack/plaits/dsp/voice.h **** 
 127:eurorack/plaits/dsp/voice.h ****   int engine;
 128:eurorack/plaits/dsp/voice.h ****   float decay;
 129:eurorack/plaits/dsp/voice.h ****   float lpg_colour;
 130:eurorack/plaits/dsp/voice.h **** };
 131:eurorack/plaits/dsp/voice.h **** 
 132:eurorack/plaits/dsp/voice.h **** struct Modulations {
 133:eurorack/plaits/dsp/voice.h ****   float engine;
 134:eurorack/plaits/dsp/voice.h ****   float note;
 135:eurorack/plaits/dsp/voice.h ****   float frequency;
 136:eurorack/plaits/dsp/voice.h ****   float harmonics;
 137:eurorack/plaits/dsp/voice.h ****   float timbre;
 138:eurorack/plaits/dsp/voice.h ****   float morph;
 139:eurorack/plaits/dsp/voice.h ****   float trigger;
 140:eurorack/plaits/dsp/voice.h ****   float level;
 141:eurorack/plaits/dsp/voice.h **** 
 142:eurorack/plaits/dsp/voice.h ****   bool frequency_patched;
 143:eurorack/plaits/dsp/voice.h ****   bool timbre_patched;
 144:eurorack/plaits/dsp/voice.h ****   bool morph_patched;
 145:eurorack/plaits/dsp/voice.h ****   bool trigger_patched;
 146:eurorack/plaits/dsp/voice.h ****   bool level_patched;
 147:eurorack/plaits/dsp/voice.h **** };
 148:eurorack/plaits/dsp/voice.h **** 
 149:eurorack/plaits/dsp/voice.h **** class Voice {
 150:eurorack/plaits/dsp/voice.h ****  public:
 151:eurorack/plaits/dsp/voice.h ****   Voice() { }
 152:eurorack/plaits/dsp/voice.h ****   ~Voice() { }
 153:eurorack/plaits/dsp/voice.h ****   
 154:eurorack/plaits/dsp/voice.h ****   struct Frame {
 155:eurorack/plaits/dsp/voice.h ****     short out;
 156:eurorack/plaits/dsp/voice.h ****     short aux;
 157:eurorack/plaits/dsp/voice.h ****   };
 158:eurorack/plaits/dsp/voice.h ****   
 159:eurorack/plaits/dsp/voice.h ****   void Init(stmlib::BufferAllocator* allocator);
 160:eurorack/plaits/dsp/voice.h ****   void Render(
 161:eurorack/plaits/dsp/voice.h ****       const Patch& patch,
 162:eurorack/plaits/dsp/voice.h ****       const Modulations& modulations,
 163:eurorack/plaits/dsp/voice.h ****       Frame* frames,
 164:eurorack/plaits/dsp/voice.h ****       size_t size);
 165:eurorack/plaits/dsp/voice.h ****   inline int active_engine() const { return previous_engine_index_; }
 166:eurorack/plaits/dsp/voice.h ****   
 167:eurorack/plaits/dsp/voice.h ****   inline int GetNumEngines() const{ return engines_.size(); }
 168:eurorack/plaits/dsp/voice.h **** 
 169:eurorack/plaits/dsp/voice.h ****  private:
 170:eurorack/plaits/dsp/voice.h ****   void ComputeDecayParameters(const Patch& settings);
 171:eurorack/plaits/dsp/voice.h ****   
 172:eurorack/plaits/dsp/voice.h ****   inline float ApplyModulations(
 173:eurorack/plaits/dsp/voice.h ****       float base_value,
 174:eurorack/plaits/dsp/voice.h ****       float modulation_amount,
 175:eurorack/plaits/dsp/voice.h ****       bool use_external_modulation,
ARM GAS  /var/folders/9s/8rp0_f2s1n31qbztm3b5_fdh0000gn/T//ccY1wZnf.s 			page 55


 176:eurorack/plaits/dsp/voice.h ****       float external_modulation,
 177:eurorack/plaits/dsp/voice.h ****       bool use_internal_envelope,
 178:eurorack/plaits/dsp/voice.h ****       float envelope,
 179:eurorack/plaits/dsp/voice.h ****       float default_internal_modulation,
 180:eurorack/plaits/dsp/voice.h ****       float minimum_value,
 181:eurorack/plaits/dsp/voice.h ****       float maximum_value) {
 182:eurorack/plaits/dsp/voice.h ****     float value = base_value;
 183:eurorack/plaits/dsp/voice.h ****     modulation_amount *= std::max(fabsf(modulation_amount) - 0.05f, 0.05f);
 1315              		.loc 3 183 60 view .LVU405
 1316 0230 9FED547A 		vldr.32	s14, .L115+24
 1317              	.LVL98:
 1318              		.loc 3 183 40 view .LVU406
 1319 0234 F0EEC65A 		vabs.f32	s11, s12
 1320              	.LBE324:
 1321              	.LBE323:
 164:eurorack/plaits/dsp/voice.cc ****       patch.note + note,
 1322              		.loc 9 164 28 view .LVU407
 1323 0238 D6ED007A 		vldr.32	s15, [r6]
 1324              	.LBB332:
 1325              	.LBB327:
 184:eurorack/plaits/dsp/voice.h ****     modulation_amount *= 1.05f;
 1326              		.loc 3 184 23 view .LVU408
 1327 023c DFED523A 		vldr.32	s7, .L115+28
 1328              	.LBE327:
 1329              	.LBE332:
 167:eurorack/plaits/dsp/voice.cc ****       modulations.frequency,
 1330              		.loc 9 167 19 view .LVU409
 1331 0240 95F82030 		ldrb	r3, [r5, #32]	@ zero_extendqisi2
 164:eurorack/plaits/dsp/voice.cc ****       patch.note + note,
 1332              		.loc 9 164 28 view .LVU410
 1333 0244 78EE277A 		vadd.f32	s15, s16, s15
 1334              	.LBB333:
 1335              	.LBB328:
 183:eurorack/plaits/dsp/voice.h ****     modulation_amount *= 1.05f;
 1336              		.loc 3 183 60 view .LVU411
 1337 0248 75EEC75A 		vsub.f32	s11, s11, s14
 1338              	.LBE328:
 1339              	.LBE333:
 168:eurorack/plaits/dsp/voice.cc ****       use_internal_envelope,
 1340              		.loc 9 168 19 view .LVU412
 1341 024c D5ED024A 		vldr.32	s9, [r5, #8]
 1342              	.LVL99:
 117:eurorack/plaits/dsp/envelope.h ****   }
 118:eurorack/plaits/dsp/envelope.h ****   
 119:eurorack/plaits/dsp/envelope.h ****   inline float value() const { return value_; }
 1343              		.loc 2 119 32 is_stmt 1 view .LVU413
 1344              		.loc 2 119 32 view .LVU414
 1345              	.LBB334:
 1346              	.LBI323:
 172:eurorack/plaits/dsp/voice.h ****       float base_value,
 1347              		.loc 3 172 16 view .LVU415
 1348              	.LBB329:
 182:eurorack/plaits/dsp/voice.h ****     modulation_amount *= std::max(fabsf(modulation_amount) - 0.05f, 0.05f);
 1349              		.loc 3 182 5 view .LVU416
 183:eurorack/plaits/dsp/voice.h ****     modulation_amount *= 1.05f;
 1350              		.loc 3 183 5 view .LVU417
 1351              	.LBB325:
ARM GAS  /var/folders/9s/8rp0_f2s1n31qbztm3b5_fdh0000gn/T//ccY1wZnf.s 			page 56


 1352              	.LBI325:
 254:/Library/DaisyToolchain/0.2.0/arm/arm-none-eabi/include/c++/10.3.1/bits/stl_algobase.h ****     {
 1353              		.loc 13 254 5 view .LVU418
 1354              	.LBB326:
 1355              		.loc 13 260 9 is_stmt 0 view .LVU419
 1356 0250 F4EE475A 		vcmp.f32	s11, s14
 1357 0254 F1EE10FA 		vmrs	APSR_nzcv, FPSCR
 1358 0258 48BF     		it	mi
 1359 025a F0EE475A 		vmovmi.f32	s11, s14
 1360              	.LVL100:
 1361              		.loc 13 260 9 view .LVU420
 1362              	.LBE326:
 1363              	.LBE325:
 183:eurorack/plaits/dsp/voice.h ****     modulation_amount *= 1.05f;
 1364              		.loc 3 183 23 view .LVU421
 1365 025e 66EE255A 		vmul.f32	s11, s12, s11
 1366              	.LVL101:
 1367              		.loc 3 184 5 is_stmt 1 view .LVU422
 1368              		.loc 3 184 23 is_stmt 0 view .LVU423
 1369 0262 65EEA35A 		vmul.f32	s11, s11, s7
 1370              	.LVL102:
 185:eurorack/plaits/dsp/voice.h ****     
 186:eurorack/plaits/dsp/voice.h ****     float modulation = use_external_modulation
 1371              		.loc 3 186 5 is_stmt 1 view .LVU424
 187:eurorack/plaits/dsp/voice.h ****         ? external_modulation
 1372              		.loc 3 187 9 is_stmt 0 view .LVU425
 1373 0266 4BB9     		cbnz	r3, .L58
 188:eurorack/plaits/dsp/voice.h ****         : (use_internal_envelope ? envelope : default_internal_modulation);
 1374              		.loc 3 188 34 view .LVU426
 1375 0268 B9F1000F 		cmp	r9, #0
 1376 026c 00F03581 		beq	.L85
 1377              	.LBE329:
 1378              	.LBE334:
 171:eurorack/plaits/dsp/voice.cc ****           decay_envelope_.value() * decay_envelope_.value() * 48.0f,
 1379              		.loc 9 171 35 view .LVU427
 1380 0270 66EE854A 		vmul.f32	s9, s13, s10
 1381              	.LVL103:
 164:eurorack/plaits/dsp/voice.cc ****       patch.note + note,
 1382              		.loc 9 164 28 view .LVU428
 1383 0274 9FED456A 		vldr.32	s12, .L115+32
 1384 0278 64EE864A 		vmul.f32	s9, s9, s12
 1385              	.LVL104:
 1386              	.L58:
 1387              	.LBB335:
 1388              	.LBB330:
 189:eurorack/plaits/dsp/voice.h ****     value += modulation_amount * modulation;
 1389              		.loc 3 189 5 is_stmt 1 view .LVU429
 1390              		.loc 3 189 11 is_stmt 0 view .LVU430
 1391 027c E5EEA47A 		vfma.f32	s15, s11, s9
 1392              	.LVL105:
 190:eurorack/plaits/dsp/voice.h ****     CONSTRAIN(value, minimum_value, maximum_value);
 1393              		.loc 3 190 5 is_stmt 1 view .LVU431
 1394 0280 9FED436A 		vldr.32	s12, .L115+36
 1395 0284 F4EEC67A 		vcmpe.f32	s15, s12
 1396 0288 F1EE10FA 		vmrs	APSR_nzcv, FPSCR
 1397 028c 00F12881 		bmi	.L86
 1398              		.loc 3 190 5 view .LVU432
ARM GAS  /var/folders/9s/8rp0_f2s1n31qbztm3b5_fdh0000gn/T//ccY1wZnf.s 			page 57


 1399 0290 9FED406A 		vldr.32	s12, .L115+40
 1400 0294 F4EE467A 		vcmp.f32	s15, s12
 1401 0298 F1EE10FA 		vmrs	APSR_nzcv, FPSCR
 1402 029c 76FE277A 		vselgt.f32	s15, s12, s15
 1403              	.LVL106:
 1404              	.L59:
 1405              		.loc 3 190 51 view .LVU433
 191:eurorack/plaits/dsp/voice.h ****     return value;
 1406              		.loc 3 191 5 view .LVU434
 1407              		.loc 3 191 5 is_stmt 0 view .LVU435
 1408              	.LBE330:
 1409              	.LBE335:
 172:eurorack/plaits/dsp/voice.cc ****       1.0f,
 173:eurorack/plaits/dsp/voice.cc ****       -119.0f,
 174:eurorack/plaits/dsp/voice.cc ****       120.0f);
 175:eurorack/plaits/dsp/voice.cc **** 
 176:eurorack/plaits/dsp/voice.cc ****   p.timbre = ApplyModulations(
 177:eurorack/plaits/dsp/voice.cc ****       patch.timbre,
 178:eurorack/plaits/dsp/voice.cc ****       patch.timbre_modulation_amount,
 1410              		.loc 9 178 13 view .LVU436
 1411 02a0 D6ED055A 		vldr.32	s11, [r6, #20]
 1412              	.LBB336:
 1413              	.LBB337:
 1414              	.LBB338:
 1415              	.LBB339:
 1416              		.loc 13 260 9 view .LVU437
 1417 02a4 9FED376A 		vldr.32	s12, .L115+24
 1418              	.LBE339:
 1419              	.LBE338:
 183:eurorack/plaits/dsp/voice.h ****     modulation_amount *= 1.05f;
 1420              		.loc 3 183 40 view .LVU438
 1421 02a8 F0EEE54A 		vabs.f32	s9, s11
 1422              	.LVL107:
 183:eurorack/plaits/dsp/voice.h ****     modulation_amount *= 1.05f;
 1423              		.loc 3 183 40 view .LVU439
 1424              	.LBE337:
 1425              	.LBE336:
 179:eurorack/plaits/dsp/voice.cc ****       modulations.timbre_patched,
 1426              		.loc 9 179 19 view .LVU440
 1427 02ac 95F82130 		ldrb	r3, [r5, #33]	@ zero_extendqisi2
 164:eurorack/plaits/dsp/voice.cc ****       patch.note + note,
 1428              		.loc 9 164 10 view .LVU441
 1429 02b0 CDED097A 		vstr.32	s15, [sp, #36]
 176:eurorack/plaits/dsp/voice.cc ****       patch.timbre,
 1430              		.loc 9 176 3 is_stmt 1 view .LVU442
 180:eurorack/plaits/dsp/voice.cc ****       modulations.timbre,
 1431              		.loc 9 180 19 is_stmt 0 view .LVU443
 1432 02b4 95ED044A 		vldr.32	s8, [r5, #16]
 1433              	.LVL108:
 1434              		.loc 2 119 32 is_stmt 1 view .LVU444
 1435              	.LBB345:
 1436              	.LBB342:
 183:eurorack/plaits/dsp/voice.h ****     modulation_amount *= 1.05f;
 1437              		.loc 3 183 60 is_stmt 0 view .LVU445
 1438 02b8 74EEC74A 		vsub.f32	s9, s9, s14
 1439              	.LBE342:
 1440              	.LBE345:
ARM GAS  /var/folders/9s/8rp0_f2s1n31qbztm3b5_fdh0000gn/T//ccY1wZnf.s 			page 58


 177:eurorack/plaits/dsp/voice.cc ****       patch.timbre_modulation_amount,
 1441              		.loc 9 177 13 view .LVU446
 1442 02bc D6ED027A 		vldr.32	s15, [r6, #8]
 1443              	.LVL109:
 1444              	.LBB346:
 1445              	.LBI336:
 172:eurorack/plaits/dsp/voice.h ****       float base_value,
 1446              		.loc 3 172 16 is_stmt 1 view .LVU447
 1447              	.LBB343:
 182:eurorack/plaits/dsp/voice.h ****     modulation_amount *= std::max(fabsf(modulation_amount) - 0.05f, 0.05f);
 1448              		.loc 3 182 5 view .LVU448
 183:eurorack/plaits/dsp/voice.h ****     modulation_amount *= 1.05f;
 1449              		.loc 3 183 5 view .LVU449
 1450              	.LBB341:
 1451              	.LBI338:
 254:/Library/DaisyToolchain/0.2.0/arm/arm-none-eabi/include/c++/10.3.1/bits/stl_algobase.h ****     {
 1452              		.loc 13 254 5 view .LVU450
 1453              	.LBB340:
 1454              		.loc 13 260 9 is_stmt 0 view .LVU451
 1455 02c0 F4EE474A 		vcmp.f32	s9, s14
 1456 02c4 F1EE10FA 		vmrs	APSR_nzcv, FPSCR
 1457 02c8 48BF     		it	mi
 1458 02ca F0EE464A 		vmovmi.f32	s9, s12
 1459              	.LVL110:
 1460              		.loc 13 260 9 view .LVU452
 1461              	.LBE340:
 1462              	.LBE341:
 183:eurorack/plaits/dsp/voice.h ****     modulation_amount *= 1.05f;
 1463              		.loc 3 183 23 view .LVU453
 1464 02ce 65EEA45A 		vmul.f32	s11, s11, s9
 1465              	.LVL111:
 184:eurorack/plaits/dsp/voice.h ****     
 1466              		.loc 3 184 5 is_stmt 1 view .LVU454
 184:eurorack/plaits/dsp/voice.h ****     
 1467              		.loc 3 184 23 is_stmt 0 view .LVU455
 1468 02d2 65EEA35A 		vmul.f32	s11, s11, s7
 1469              	.LVL112:
 186:eurorack/plaits/dsp/voice.h ****         ? external_modulation
 1470              		.loc 3 186 5 is_stmt 1 view .LVU456
 187:eurorack/plaits/dsp/voice.h ****         : (use_internal_envelope ? envelope : default_internal_modulation);
 1471              		.loc 3 187 9 is_stmt 0 view .LVU457
 1472 02d6 2BB9     		cbnz	r3, .L62
 188:eurorack/plaits/dsp/voice.h ****     value += modulation_amount * modulation;
 1473              		.loc 3 188 34 view .LVU458
 1474 02d8 B9F1000F 		cmp	r9, #0
 1475 02dc 9FED334A 		vldr.32	s8, .L115+64
 1476              	.LVL113:
 188:eurorack/plaits/dsp/voice.h ****     value += modulation_amount * modulation;
 1477              		.loc 3 188 34 view .LVU459
 1478 02e0 04FE054A 		vseleq.f32	s8, s8, s10
 1479              	.L62:
 1480              	.LVL114:
 189:eurorack/plaits/dsp/voice.h ****     CONSTRAIN(value, minimum_value, maximum_value);
 1481              		.loc 3 189 5 is_stmt 1 view .LVU460
 189:eurorack/plaits/dsp/voice.h ****     CONSTRAIN(value, minimum_value, maximum_value);
 1482              		.loc 3 189 11 is_stmt 0 view .LVU461
 1483 02e4 E5EE847A 		vfma.f32	s15, s11, s8
ARM GAS  /var/folders/9s/8rp0_f2s1n31qbztm3b5_fdh0000gn/T//ccY1wZnf.s 			page 59


 1484              	.LVL115:
 190:eurorack/plaits/dsp/voice.h ****     return value;
 1485              		.loc 3 190 5 is_stmt 1 view .LVU462
 1486 02e8 F5EEC07A 		vcmpe.f32	s15, #0
 1487 02ec F1EE10FA 		vmrs	APSR_nzcv, FPSCR
 1488 02f0 00F1F980 		bmi	.L89
 190:eurorack/plaits/dsp/voice.h ****     return value;
 1489              		.loc 3 190 5 view .LVU463
 1490 02f4 F4EE687A 		vcmp.f32	s15, s17
 1491 02f8 B7EE006A 		vmov.f32	s12, #1.0e+0
 1492 02fc F1EE10FA 		vmrs	APSR_nzcv, FPSCR
 1493 0300 76FE277A 		vselgt.f32	s15, s12, s15
 1494              	.LVL116:
 1495              	.L63:
 190:eurorack/plaits/dsp/voice.h ****     return value;
 1496              		.loc 3 190 51 view .LVU464
 1497              		.loc 3 191 5 view .LVU465
 1498              		.loc 3 191 5 is_stmt 0 view .LVU466
 1499              	.LBE343:
 1500              	.LBE346:
 181:eurorack/plaits/dsp/voice.cc ****       use_internal_envelope,
 182:eurorack/plaits/dsp/voice.cc ****       decay_envelope_.value(),
 183:eurorack/plaits/dsp/voice.cc ****       0.0f,
 184:eurorack/plaits/dsp/voice.cc ****       0.0f,
 185:eurorack/plaits/dsp/voice.cc ****       1.0f);
 186:eurorack/plaits/dsp/voice.cc **** 
 187:eurorack/plaits/dsp/voice.cc ****   p.morph = ApplyModulations(
 188:eurorack/plaits/dsp/voice.cc ****       patch.morph,
 189:eurorack/plaits/dsp/voice.cc ****       patch.morph_modulation_amount,
 1501              		.loc 9 189 13 view .LVU467
 1502 0304 96ED066A 		vldr.32	s12, [r6, #24]
 190:eurorack/plaits/dsp/voice.cc ****       modulations.morph_patched,
 1503              		.loc 9 190 19 view .LVU468
 1504 0308 95F82230 		ldrb	r3, [r5, #34]	@ zero_extendqisi2
 1505              	.LBB347:
 1506              	.LBB348:
 183:eurorack/plaits/dsp/voice.h ****     modulation_amount *= 1.05f;
 1507              		.loc 3 183 40 view .LVU469
 1508 030c F0EEC65A 		vabs.f32	s11, s12
 1509              	.LBE348:
 1510              	.LBE347:
 176:eurorack/plaits/dsp/voice.cc ****       patch.timbre,
 1511              		.loc 9 176 12 view .LVU470
 1512 0310 CDED0A7A 		vstr.32	s15, [sp, #40]
 187:eurorack/plaits/dsp/voice.cc ****       patch.morph,
 1513              		.loc 9 187 3 is_stmt 1 view .LVU471
 191:eurorack/plaits/dsp/voice.cc ****       modulations.morph,
 1514              		.loc 9 191 19 is_stmt 0 view .LVU472
 1515 0314 95ED055A 		vldr.32	s10, [r5, #20]
 1516              	.LVL117:
 1517              		.loc 2 119 32 is_stmt 1 view .LVU473
 188:eurorack/plaits/dsp/voice.cc ****       patch.morph_modulation_amount,
 1518              		.loc 9 188 13 is_stmt 0 view .LVU474
 1519 0318 D6ED037A 		vldr.32	s15, [r6, #12]
 1520              	.LVL118:
 1521              	.LBB353:
 1522              	.LBI347:
ARM GAS  /var/folders/9s/8rp0_f2s1n31qbztm3b5_fdh0000gn/T//ccY1wZnf.s 			page 60


 172:eurorack/plaits/dsp/voice.h ****       float base_value,
 1523              		.loc 3 172 16 is_stmt 1 view .LVU475
 1524              	.LBB351:
 182:eurorack/plaits/dsp/voice.h ****     modulation_amount *= std::max(fabsf(modulation_amount) - 0.05f, 0.05f);
 1525              		.loc 3 182 5 view .LVU476
 183:eurorack/plaits/dsp/voice.h ****     modulation_amount *= 1.05f;
 1526              		.loc 3 183 5 view .LVU477
 183:eurorack/plaits/dsp/voice.h ****     modulation_amount *= 1.05f;
 1527              		.loc 3 183 60 is_stmt 0 view .LVU478
 1528 031c 75EEC75A 		vsub.f32	s11, s11, s14
 1529              	.LVL119:
 1530              	.LBB349:
 1531              	.LBI349:
 254:/Library/DaisyToolchain/0.2.0/arm/arm-none-eabi/include/c++/10.3.1/bits/stl_algobase.h ****     {
 1532              		.loc 13 254 5 is_stmt 1 view .LVU479
 1533              	.LBB350:
 1534              		.loc 13 260 9 is_stmt 0 view .LVU480
 1535 0320 F4EE475A 		vcmp.f32	s11, s14
 1536 0324 9FED177A 		vldr.32	s14, .L115+24
 1537 0328 F1EE10FA 		vmrs	APSR_nzcv, FPSCR
 1538 032c 48BF     		it	mi
 1539 032e F0EE475A 		vmovmi.f32	s11, s14
 1540              	.LVL120:
 1541              		.loc 13 260 9 view .LVU481
 1542              	.LBE350:
 1543              	.LBE349:
 183:eurorack/plaits/dsp/voice.h ****     modulation_amount *= 1.05f;
 1544              		.loc 3 183 23 view .LVU482
 1545 0332 26EE256A 		vmul.f32	s12, s12, s11
 1546              	.LVL121:
 184:eurorack/plaits/dsp/voice.h ****     
 1547              		.loc 3 184 5 is_stmt 1 view .LVU483
 184:eurorack/plaits/dsp/voice.h ****     
 1548              		.loc 3 184 23 is_stmt 0 view .LVU484
 1549 0336 26EE236A 		vmul.f32	s12, s12, s7
 1550              	.LVL122:
 186:eurorack/plaits/dsp/voice.h ****         ? external_modulation
 1551              		.loc 3 186 5 is_stmt 1 view .LVU485
 187:eurorack/plaits/dsp/voice.h ****         : (use_internal_envelope ? envelope : default_internal_modulation);
 1552              		.loc 3 187 9 is_stmt 0 view .LVU486
 1553 033a 2BB9     		cbnz	r3, .L66
 188:eurorack/plaits/dsp/voice.h ****     value += modulation_amount * modulation;
 1554              		.loc 3 188 34 view .LVU487
 1555 033c B9F1000F 		cmp	r9, #0
 1556 0340 9FED1A5A 		vldr.32	s10, .L115+64
 1557              	.LVL123:
 188:eurorack/plaits/dsp/voice.h ****     value += modulation_amount * modulation;
 1558              		.loc 3 188 34 view .LVU488
 1559 0344 05FE265A 		vseleq.f32	s10, s10, s13
 1560              	.L66:
 1561              	.LVL124:
 189:eurorack/plaits/dsp/voice.h ****     CONSTRAIN(value, minimum_value, maximum_value);
 1562              		.loc 3 189 5 is_stmt 1 view .LVU489
 189:eurorack/plaits/dsp/voice.h ****     CONSTRAIN(value, minimum_value, maximum_value);
 1563              		.loc 3 189 11 is_stmt 0 view .LVU490
 1564 0348 E6EE057A 		vfma.f32	s15, s12, s10
 1565              	.LVL125:
ARM GAS  /var/folders/9s/8rp0_f2s1n31qbztm3b5_fdh0000gn/T//ccY1wZnf.s 			page 61


 190:eurorack/plaits/dsp/voice.h ****     return value;
 1566              		.loc 3 190 5 is_stmt 1 view .LVU491
 1567 034c F5EEC07A 		vcmpe.f32	s15, #0
 1568 0350 F1EE10FA 		vmrs	APSR_nzcv, FPSCR
 1569 0354 00F1CA80 		bmi	.L92
 190:eurorack/plaits/dsp/voice.h ****     return value;
 1570              		.loc 3 190 5 view .LVU492
 1571 0358 F4EE687A 		vcmp.f32	s15, s17
 1572 035c B7EE007A 		vmov.f32	s14, #1.0e+0
 1573 0360 F1EE10FA 		vmrs	APSR_nzcv, FPSCR
 1574 0364 77FE277A 		vselgt.f32	s15, s14, s15
 1575 0368 22E0     		b	.L116
 1576              	.L117:
 1577 036a 00BF     		.align	2
 1578              	.L115:
 1579 036c 9A99993E 		.word	1050253722
 1580 0370 0000C0C2 		.word	-1027604480
 1581 0374 0000FA46 		.word	1190789120
 1582 0378 00004843 		.word	1128792064
 1583 037c 6666A63F 		.word	1067869798
 1584 0380 CDCC4C3F 		.word	1061997773
 1585 0384 CDCC4C3D 		.word	1028443341
 1586 0388 6666863F 		.word	1065772646
 1587 038c 00004042 		.word	1111490560
 1588 0390 0000EEC2 		.word	-1024589824
 1589 0394 0000F042 		.word	1123024896
 1590 0398 000090C2 		.word	-1030750208
 1591 039c CDCCCC3D 		.word	1036831949
 1592 03a0 000000C3 		.word	-1023410176
 1593 03a4 0000FE42 		.word	1123942400
 1594 03a8 51969639 		.word	966170193
 1595 03ac 00000000 		.word	0
 1596              	.L116:
 1597              	.LVL126:
 1598              	.L67:
 190:eurorack/plaits/dsp/voice.h ****     return value;
 1599              		.loc 3 190 51 view .LVU493
 1600              		.loc 3 191 5 view .LVU494
 1601              		.loc 3 191 5 is_stmt 0 view .LVU495
 1602              	.LBE351:
 1603              	.LBE353:
 192:eurorack/plaits/dsp/voice.cc ****       use_internal_envelope,
 193:eurorack/plaits/dsp/voice.cc ****       internal_envelope_amplitude * decay_envelope_.value(),
 194:eurorack/plaits/dsp/voice.cc ****       0.0f,
 195:eurorack/plaits/dsp/voice.cc ****       0.0f,
 196:eurorack/plaits/dsp/voice.cc ****       1.0f);
 197:eurorack/plaits/dsp/voice.cc **** 
 198:eurorack/plaits/dsp/voice.cc ****   bool already_enveloped = pp_s.already_enveloped;
 1604              		.loc 9 198 8 view .LVU496
 1605 03b0 98F80C30 		ldrb	r3, [r8, #12]	@ zero_extendqisi2
 199:eurorack/plaits/dsp/voice.cc ****   e->Render(p, out_buffer_, aux_buffer_, size, &already_enveloped);
 1606              		.loc 9 199 12 view .LVU497
 1607 03b4 0DF11F02 		add	r2, sp, #31
 1608              		.loc 9 199 16 view .LVU498
 1609 03b8 04F54F69 		add	r9, r4, #3312
 1610              	.LVL127:
 1611              		.loc 9 199 29 view .LVU499
ARM GAS  /var/folders/9s/8rp0_f2s1n31qbztm3b5_fdh0000gn/T//ccY1wZnf.s 			page 62


 1612 03bc 04F5576A 		add	r10, r4, #3440
 198:eurorack/plaits/dsp/voice.cc ****   e->Render(p, out_buffer_, aux_buffer_, size, &already_enveloped);
 1613              		.loc 9 198 8 view .LVU500
 1614 03c0 8DF81F30 		strb	r3, [sp, #31]
 1615              		.loc 9 199 12 view .LVU501
 1616 03c4 08A9     		add	r1, sp, #32
 1617              		.loc 9 199 66 view .LVU502
 1618 03c6 D8F80030 		ldr	r3, [r8]
 1619              		.loc 9 199 12 view .LVU503
 1620 03ca 4046     		mov	r0, r8
 1621 03cc 0192     		str	r2, [sp, #4]
 1622 03ce 229A     		ldr	r2, [sp, #136]
 187:eurorack/plaits/dsp/voice.cc ****       patch.morph,
 1623              		.loc 9 187 11 view .LVU504
 1624 03d0 CDED0B7A 		vstr.32	s15, [sp, #44]
 198:eurorack/plaits/dsp/voice.cc ****   e->Render(p, out_buffer_, aux_buffer_, size, &already_enveloped);
 1625              		.loc 9 198 3 is_stmt 1 view .LVU505
 1626              		.loc 9 199 3 view .LVU506
 1627              		.loc 9 199 12 is_stmt 0 view .LVU507
 1628 03d4 0092     		str	r2, [sp]
 1629 03d6 4A46     		mov	r2, r9
 1630 03d8 9F68     		ldr	r7, [r3, #8]
 1631              	.LVL128:
 1632              		.loc 9 199 12 view .LVU508
 1633 03da 5346     		mov	r3, r10
 1634 03dc B847     		blx	r7
 1635              	.LVL129:
 200:eurorack/plaits/dsp/voice.cc ****   
 201:eurorack/plaits/dsp/voice.cc ****   bool lpg_bypass = already_enveloped || \
 1636              		.loc 9 201 3 is_stmt 1 view .LVU509
 1637              		.loc 9 201 39 is_stmt 0 view .LVU510
 1638 03de 9DF81FB0 		ldrb	fp, [sp, #31]	@ zero_extendqisi2
 1639 03e2 04F63847 		addw	r7, r4, #3128
 1640 03e6 BBF1000F 		cmp	fp, #0
 1641 03ea 2ED1     		bne	.L69
 202:eurorack/plaits/dsp/voice.cc ****       (!modulations.level_patched && !modulations.trigger_patched);
 1642              		.loc 9 202 21 discriminator 2 view .LVU511
 1643 03ec 95F82430 		ldrb	r3, [r5, #36]	@ zero_extendqisi2
 201:eurorack/plaits/dsp/voice.cc ****       (!modulations.level_patched && !modulations.trigger_patched);
 1644              		.loc 9 201 39 discriminator 2 view .LVU512
 1645 03f0 23B9     		cbnz	r3, .L70
 1646              		.loc 9 202 35 view .LVU513
 1647 03f2 95F82320 		ldrb	r2, [r5, #35]	@ zero_extendqisi2
 1648 03f6 002A     		cmp	r2, #0
 1649 03f8 00F0C180 		beq	.L93
 1650              	.L70:
 1651              	.LBB354:
 203:eurorack/plaits/dsp/voice.cc ****   
 204:eurorack/plaits/dsp/voice.cc ****   // Compute LPG parameters.
 205:eurorack/plaits/dsp/voice.cc ****   if (!lpg_bypass) {
 206:eurorack/plaits/dsp/voice.cc ****     const float hf = patch.lpg_colour;
 207:eurorack/plaits/dsp/voice.cc ****     const float decay_tail = (20.0f * size) / kSampleRate *
 208:eurorack/plaits/dsp/voice.cc ****         SemitonesToRatio(-72.0f * patch.decay + 12.0f * hf) - short_decay;
 1652              		.loc 9 208 55 view .LVU514
 1653 03fc B2EE080A 		vmov.f32	s0, #1.2e+1
 206:eurorack/plaits/dsp/voice.cc ****     const float decay_tail = (20.0f * size) / kSampleRate *
 1654              		.loc 9 206 17 view .LVU515
ARM GAS  /var/folders/9s/8rp0_f2s1n31qbztm3b5_fdh0000gn/T//ccY1wZnf.s 			page 63


 1655 0400 D6ED091A 		vldr.32	s3, [r6, #36]
 1656              		.loc 9 208 25 view .LVU516
 1657 0404 96ED087A 		vldr.32	s14, [r6, #32]
 1658 0408 5FED1D7A 		vldr.32	s15, .L115+44
 1659              		.loc 9 208 55 view .LVU517
 1660 040c 21EE800A 		vmul.f32	s0, s3, s0
 1661 0410 0593     		str	r3, [sp, #20]
 1662              	.LVL130:
 1663              		.loc 9 208 55 view .LVU518
 1664              	.LBE354:
 205:eurorack/plaits/dsp/voice.cc ****     const float hf = patch.lpg_colour;
 1665              		.loc 9 205 3 is_stmt 1 view .LVU519
 1666              	.LBB385:
 206:eurorack/plaits/dsp/voice.cc ****     const float decay_tail = (20.0f * size) / kSampleRate *
 1667              		.loc 9 206 5 view .LVU520
 207:eurorack/plaits/dsp/voice.cc ****         SemitonesToRatio(-72.0f * patch.decay + 12.0f * hf) - short_decay;
 1668              		.loc 9 207 5 view .LVU521
 1669              		.loc 9 208 55 is_stmt 0 view .LVU522
 1670 0412 CDED041A 		vstr.32	s3, [sp, #16]	@ int
 1671              		.loc 9 208 25 view .LVU523
 1672 0416 A7EE270A 		vfma.f32	s0, s14, s15
 1673 041a FFF7FEFF 		bl	_ZN6stmlib16SemitonesToRatioEf
 1674              	.LVL131:
 207:eurorack/plaits/dsp/voice.cc ****         SemitonesToRatio(-72.0f * patch.decay + 12.0f * hf) - short_decay;
 1675              		.loc 9 207 37 view .LVU524
 1676 041e F3EE047A 		vmov.f32	s15, #2.0e+1
 1677              		.loc 9 208 63 view .LVU525
 1678 0422 B0EE4A1A 		vmov.f32	s2, s20
 1679              	.LBB355:
 209:eurorack/plaits/dsp/voice.cc ****     
 210:eurorack/plaits/dsp/voice.cc ****     if (modulations.level_patched) {
 1680              		.loc 9 210 5 view .LVU526
 1681 0426 059B     		ldr	r3, [sp, #20]
 1682 0428 DDED041A 		vldr.32	s3, [sp, #16]	@ int
 1683              	.LBE355:
 207:eurorack/plaits/dsp/voice.cc ****         SemitonesToRatio(-72.0f * patch.decay + 12.0f * hf) - short_decay;
 1684              		.loc 9 207 37 view .LVU527
 1685 042c 69EEA77A 		vmul.f32	s15, s19, s15
 207:eurorack/plaits/dsp/voice.cc ****         SemitonesToRatio(-72.0f * patch.decay + 12.0f * hf) - short_decay;
 1686              		.loc 9 207 45 view .LVU528
 1687 0430 87EEAA7A 		vdiv.f32	s14, s15, s21
 208:eurorack/plaits/dsp/voice.cc ****     
 1688              		.loc 9 208 63 view .LVU529
 1689 0434 A7EE001A 		vfma.f32	s2, s14, s0
 1690              	.LVL132:
 1691              		.loc 9 210 5 is_stmt 1 view .LVU530
 1692              	.LBB382:
 1693 0438 002B     		cmp	r3, #0
 1694 043a 5AD0     		beq	.L71
 1695              	.LVL133:
 211:eurorack/plaits/dsp/voice.cc ****       lpg_envelope_.ProcessLP(compressed_level, short_decay, decay_tail, hf);
 1696              		.loc 9 211 7 view .LVU531
 1697              		.loc 9 211 30 is_stmt 0 view .LVU532
 1698 043c F0EE4B0A 		vmov.f32	s1, s22
 1699 0440 3846     		mov	r0, r7
 1700 0442 B0EE6B0A 		vmov.f32	s0, s23
 1701 0446 FFF7FEFF 		bl	_ZN6plaits11LPGEnvelope9ProcessLPEffff
ARM GAS  /var/folders/9s/8rp0_f2s1n31qbztm3b5_fdh0000gn/T//ccY1wZnf.s 			page 64


 1702              	.LVL134:
 1703              	.L69:
 1704              		.loc 9 211 30 view .LVU533
 1705              	.LBE382:
 1706              	.LBE385:
 212:eurorack/plaits/dsp/voice.cc ****     } else {
 213:eurorack/plaits/dsp/voice.cc ****       const float attack = NoteToFrequency(p.note) * float(size) * 2.0f;
 214:eurorack/plaits/dsp/voice.cc ****       lpg_envelope_.ProcessPing(attack, short_decay, decay_tail, hf);
 215:eurorack/plaits/dsp/voice.cc ****     }
 216:eurorack/plaits/dsp/voice.cc ****   }
 217:eurorack/plaits/dsp/voice.cc ****   
 218:eurorack/plaits/dsp/voice.cc ****   out_post_processor_.Process(
 1707              		.loc 9 218 3 is_stmt 1 view .LVU534
 1708              	.LBB386:
 1709              	.LBI386:
  88:eurorack/plaits/dsp/envelope.h ****   inline float frequency() const { return frequency_; }
 1710              		.loc 2 88 16 view .LVU535
 1711              	.LBB387:
  88:eurorack/plaits/dsp/envelope.h ****   inline float frequency() const { return frequency_; }
 1712              		.loc 2 88 31 view .LVU536
  88:eurorack/plaits/dsp/envelope.h ****   inline float frequency() const { return frequency_; }
 1713              		.loc 2 88 31 is_stmt 0 view .LVU537
 1714              	.LBE387:
 1715              	.LBE386:
 1716              	.LBB388:
 1717              	.LBI388:
  89:eurorack/plaits/dsp/envelope.h ****   inline float hf_bleed() const { return hf_bleed_; }
 1718              		.loc 2 89 16 is_stmt 1 view .LVU538
 1719              	.LBB389:
  89:eurorack/plaits/dsp/envelope.h ****   inline float hf_bleed() const { return hf_bleed_; }
 1720              		.loc 2 89 36 view .LVU539
  89:eurorack/plaits/dsp/envelope.h ****   inline float hf_bleed() const { return hf_bleed_; }
 1721              		.loc 2 89 36 is_stmt 0 view .LVU540
 1722              	.LBE389:
 1723              	.LBE388:
 1724              	.LBB390:
 1725              	.LBI390:
  90:eurorack/plaits/dsp/envelope.h ****   
 1726              		.loc 2 90 16 is_stmt 1 view .LVU541
 1727              	.LBB391:
  90:eurorack/plaits/dsp/envelope.h ****   
 1728              		.loc 2 90 35 view .LVU542
  90:eurorack/plaits/dsp/envelope.h ****   
 1729              		.loc 2 90 35 is_stmt 0 view .LVU543
 1730              	.LBE391:
 1731              	.LBE390:
 1732              		.loc 9 218 30 view .LVU544
 1733 044a 0225     		movs	r5, #2
 1734              	.LVL135:
 1735              		.loc 9 218 30 view .LVU545
 1736 044c 229B     		ldr	r3, [sp, #136]
 1737 044e 4A46     		mov	r2, r9
 1738 0450 5946     		mov	r1, fp
 1739 0452 0093     		str	r3, [sp]
 1740 0454 0195     		str	r5, [sp, #4]
 1741 0456 029B     		ldr	r3, [sp, #8]
 1742 0458 D7ED031A 		vldr.32	s3, [r7, #12]
ARM GAS  /var/folders/9s/8rp0_f2s1n31qbztm3b5_fdh0000gn/T//ccY1wZnf.s 			page 65


 1743 045c 97ED021A 		vldr.32	s2, [r7, #8]
 1744 0460 D7ED010A 		vldr.32	s1, [r7, #4]
 1745 0464 98ED010A 		vldr.32	s0, [r8, #4]
 1746 0468 0398     		ldr	r0, [sp, #12]
 1747 046a FFF7FEFF 		bl	_ZN6plaits20ChannelPostProcessor7ProcessEfbfffPfPsjj
 1748              	.LVL136:
 219:eurorack/plaits/dsp/voice.cc ****       pp_s.out_gain,
 220:eurorack/plaits/dsp/voice.cc ****       lpg_bypass,
 221:eurorack/plaits/dsp/voice.cc ****       lpg_envelope_.gain(),
 222:eurorack/plaits/dsp/voice.cc ****       lpg_envelope_.frequency(),
 223:eurorack/plaits/dsp/voice.cc ****       lpg_envelope_.hf_bleed(),
 224:eurorack/plaits/dsp/voice.cc ****       out_buffer_,
 225:eurorack/plaits/dsp/voice.cc ****       &frames->out,
 226:eurorack/plaits/dsp/voice.cc ****       size,
 227:eurorack/plaits/dsp/voice.cc ****       2);
 228:eurorack/plaits/dsp/voice.cc **** 
 229:eurorack/plaits/dsp/voice.cc ****   aux_post_processor_.Process(
 1749              		.loc 9 229 3 is_stmt 1 view .LVU546
 1750              	.LBB392:
 1751              	.LBI392:
  88:eurorack/plaits/dsp/envelope.h ****   inline float frequency() const { return frequency_; }
 1752              		.loc 2 88 16 view .LVU547
 1753              	.LBB393:
  88:eurorack/plaits/dsp/envelope.h ****   inline float frequency() const { return frequency_; }
 1754              		.loc 2 88 31 view .LVU548
  88:eurorack/plaits/dsp/envelope.h ****   inline float frequency() const { return frequency_; }
 1755              		.loc 2 88 31 is_stmt 0 view .LVU549
 1756              	.LBE393:
 1757              	.LBE392:
 1758              	.LBB394:
 1759              	.LBI394:
  89:eurorack/plaits/dsp/envelope.h ****   inline float hf_bleed() const { return hf_bleed_; }
 1760              		.loc 2 89 16 is_stmt 1 view .LVU550
 1761              	.LBB395:
  89:eurorack/plaits/dsp/envelope.h ****   inline float hf_bleed() const { return hf_bleed_; }
 1762              		.loc 2 89 36 view .LVU551
  89:eurorack/plaits/dsp/envelope.h ****   inline float hf_bleed() const { return hf_bleed_; }
 1763              		.loc 2 89 36 is_stmt 0 view .LVU552
 1764              	.LBE395:
 1765              	.LBE394:
 1766              	.LBB396:
 1767              	.LBI396:
  90:eurorack/plaits/dsp/envelope.h ****   
 1768              		.loc 2 90 16 is_stmt 1 view .LVU553
 1769              	.LBB397:
  90:eurorack/plaits/dsp/envelope.h ****   
 1770              		.loc 2 90 35 view .LVU554
  90:eurorack/plaits/dsp/envelope.h ****   
 1771              		.loc 2 90 35 is_stmt 0 view .LVU555
 1772              	.LBE397:
 1773              	.LBE396:
 1774              		.loc 9 229 30 view .LVU556
 1775 046e 229B     		ldr	r3, [sp, #136]
 1776 0470 0195     		str	r5, [sp, #4]
 1777 0472 5246     		mov	r2, r10
 1778 0474 0093     		str	r3, [sp]
 1779 0476 5946     		mov	r1, fp
ARM GAS  /var/folders/9s/8rp0_f2s1n31qbztm3b5_fdh0000gn/T//ccY1wZnf.s 			page 66


 1780 0478 029B     		ldr	r3, [sp, #8]
 1781 047a 04F54960 		add	r0, r4, #3216
 1782 047e D7ED031A 		vldr.32	s3, [r7, #12]
 1783 0482 2B44     		add	r3, r3, r5
 1784 0484 97ED021A 		vldr.32	s2, [r7, #8]
 1785 0488 D7ED010A 		vldr.32	s1, [r7, #4]
 1786 048c 98ED020A 		vldr.32	s0, [r8, #8]
 1787 0490 FFF7FEFF 		bl	_ZN6plaits20ChannelPostProcessor7ProcessEfbfffPfPsjj
 1788              	.LVL137:
 230:eurorack/plaits/dsp/voice.cc ****       pp_s.aux_gain,
 231:eurorack/plaits/dsp/voice.cc ****       lpg_bypass,
 232:eurorack/plaits/dsp/voice.cc ****       lpg_envelope_.gain(),
 233:eurorack/plaits/dsp/voice.cc ****       lpg_envelope_.frequency(),
 234:eurorack/plaits/dsp/voice.cc ****       lpg_envelope_.hf_bleed(),
 235:eurorack/plaits/dsp/voice.cc ****       aux_buffer_,
 236:eurorack/plaits/dsp/voice.cc ****       &frames->aux,
 237:eurorack/plaits/dsp/voice.cc ****       size,
 238:eurorack/plaits/dsp/voice.cc ****       2);
 239:eurorack/plaits/dsp/voice.cc **** }
 1789              		.loc 9 239 1 view .LVU557
 1790 0494 0FB0     		add	sp, sp, #60
 1791              		.cfi_remember_state
 1792              		.cfi_def_cfa_offset 76
 1793              		@ sp needed
 1794 0496 BDEC0A8B 		vldm	sp!, {d8-d12}
 1795              		.cfi_restore 88
 1796              		.cfi_restore 89
 1797              		.cfi_restore 86
 1798              		.cfi_restore 87
 1799              		.cfi_restore 84
 1800              		.cfi_restore 85
 1801              		.cfi_restore 82
 1802              		.cfi_restore 83
 1803              		.cfi_restore 80
 1804              		.cfi_restore 81
 1805              		.cfi_def_cfa_offset 36
 1806              	.LVL138:
 1807              		.loc 9 239 1 view .LVU558
 1808 049a BDE8F08F 		pop	{r4, r5, r6, r7, r8, r9, r10, fp, pc}
 1809              	.LVL139:
 1810              	.L36:
 1811              		.cfi_restore_state
 100:eurorack/plaits/dsp/voice.cc ****       trigger_state_ = false;
 1812              		.loc 9 100 5 is_stmt 1 view .LVU559
 1813 049e 1FED417A 		vldr.32	s14, .L115+48
 1814 04a2 F4EEC77A 		vcmpe.f32	s15, s14
 1815 04a6 F1EE10FA 		vmrs	APSR_nzcv, FPSCR
 101:eurorack/plaits/dsp/voice.cc ****     }
 1816              		.loc 9 101 7 view .LVU560
 101:eurorack/plaits/dsp/voice.cc ****     }
 1817              		.loc 9 101 22 is_stmt 0 view .LVU561
 1818 04aa 44BF     		itt	mi
 1819 04ac 0022     		movmi	r2, #0
 1820 04ae 84F8302C 		strbmi	r2, [r4, #3120]
 1821 04b2 EEE5     		b	.L37
 1822              	.LVL140:
 1823              	.L79:
ARM GAS  /var/folders/9s/8rp0_f2s1n31qbztm3b5_fdh0000gn/T//ccY1wZnf.s 			page 67


 1824              	.LBB398:
 1825              	.LBB300:
  61:eurorack/stmlib/dsp/hysteresis_quantizer.h ****     quantized_value_ = q;
 1826              		.loc 12 61 5 view .LVU562
 1827 04b4 0027     		movs	r7, #0
 1828              	.LVL141:
  61:eurorack/stmlib/dsp/hysteresis_quantizer.h ****     quantized_value_ = q;
 1829              		.loc 12 61 5 view .LVU563
 1830 04b6 20E6     		b	.L44
 1831              	.LVL142:
 1832              	.L47:
  61:eurorack/stmlib/dsp/hysteresis_quantizer.h ****     quantized_value_ = q;
 1833              		.loc 12 61 5 view .LVU564
 1834              	.LBE300:
 1835              	.LBE398:
 132:eurorack/plaits/dsp/voice.cc ****   }
 1836              		.loc 9 132 5 is_stmt 1 view .LVU565
 132:eurorack/plaits/dsp/voice.cc ****   }
 1837              		.loc 9 132 15 is_stmt 0 view .LVU566
 1838 04b8 0223     		movs	r3, #2
 1839              	.LVL143:
 132:eurorack/plaits/dsp/voice.cc ****   }
 1840              		.loc 9 132 15 view .LVU567
 1841 04ba 4CE6     		b	.L114
 1842              	.LVL144:
 1843              	.L111:
 150:eurorack/plaits/dsp/voice.cc **** 
 1844              		.loc 9 150 3 is_stmt 1 discriminator 2 view .LVU568
 149:eurorack/plaits/dsp/voice.cc ****   CONSTRAIN(p.harmonics, 0.0f, 1.0f);
 1845              		.loc 9 149 15 is_stmt 0 discriminator 2 view .LVU569
 1846 04bc F4EEE87A 		vcmpe.f32	s15, s17
 1847 04c0 F1EE10FA 		vmrs	APSR_nzcv, FPSCR
 1848 04c4 78FEA77A 		vselgt.f32	s15, s17, s15
 1849 04c8 CDED0C7A 		vstr.32	s15, [sp, #48]
 1850 04cc 93E6     		b	.L53
 1851              	.LVL145:
 1852              	.L82:
 152:eurorack/plaits/dsp/voice.cc ****   if (engine_index == 7) {
 1853              		.loc 9 152 9 view .LVU570
 1854 04ce B7EE007A 		vmov.f32	s14, #1.0e+0
 1855 04d2 A9E6     		b	.L55
 1856              	.LVL146:
 1857              	.L83:
 155:eurorack/plaits/dsp/voice.cc ****     //speech_engine_.set_prosody_amount(
 1858              		.loc 9 155 5 view .LVU571
 1859 04d4 1FED4B7A 		vldr.32	s14, .L115+64
 1860              	.LVL147:
 155:eurorack/plaits/dsp/voice.cc ****     //speech_engine_.set_prosody_amount(
 1861              		.loc 9 155 5 view .LVU572
 1862 04d8 A6E6     		b	.L55
 1863              	.LVL148:
 1864              	.L85:
 1865              	.LBB399:
 1866              	.LBB331:
 188:eurorack/plaits/dsp/voice.h ****     value += modulation_amount * modulation;
 1867              		.loc 3 188 34 view .LVU573
 1868 04da F7EE004A 		vmov.f32	s9, #1.0e+0
ARM GAS  /var/folders/9s/8rp0_f2s1n31qbztm3b5_fdh0000gn/T//ccY1wZnf.s 			page 68


 1869              	.LVL149:
 188:eurorack/plaits/dsp/voice.h ****     value += modulation_amount * modulation;
 1870              		.loc 3 188 34 view .LVU574
 1871 04de CDE6     		b	.L58
 1872              	.LVL150:
 1873              	.L86:
 190:eurorack/plaits/dsp/voice.h ****     return value;
 1874              		.loc 3 190 5 view .LVU575
 1875 04e0 F0EE467A 		vmov.f32	s15, s12
 1876              	.LVL151:
 190:eurorack/plaits/dsp/voice.h ****     return value;
 1877              		.loc 3 190 5 view .LVU576
 1878 04e4 DCE6     		b	.L59
 1879              	.LVL152:
 1880              	.L89:
 190:eurorack/plaits/dsp/voice.h ****     return value;
 1881              		.loc 3 190 5 view .LVU577
 1882              	.LBE331:
 1883              	.LBE399:
 1884              	.LBB400:
 1885              	.LBB344:
 1886 04e6 5FED4F7A 		vldr.32	s15, .L115+64
 1887              	.LVL153:
 190:eurorack/plaits/dsp/voice.h ****     return value;
 1888              		.loc 3 190 5 view .LVU578
 1889 04ea 0BE7     		b	.L63
 1890              	.LVL154:
 1891              	.L92:
 190:eurorack/plaits/dsp/voice.h ****     return value;
 1892              		.loc 3 190 5 view .LVU579
 1893              	.LBE344:
 1894              	.LBE400:
 1895              	.LBB401:
 1896              	.LBB352:
 1897 04ec 5FED517A 		vldr.32	s15, .L115+64
 1898              	.LVL155:
 190:eurorack/plaits/dsp/voice.h ****     return value;
 1899              		.loc 3 190 5 view .LVU580
 1900 04f0 5EE7     		b	.L67
 1901              	.LVL156:
 1902              	.L71:
 190:eurorack/plaits/dsp/voice.h ****     return value;
 1903              		.loc 3 190 5 view .LVU581
 1904              	.LBE352:
 1905              	.LBE401:
 1906              	.LBB402:
 1907              	.LBB383:
 1908              	.LBB356:
 213:eurorack/plaits/dsp/voice.cc ****       lpg_envelope_.ProcessPing(attack, short_decay, decay_tail, hf);
 1909              		.loc 9 213 7 is_stmt 1 view .LVU582
 1910              	.LBB357:
 1911              	.LBI357:
  39:eurorack/plaits/dsp/engine/engine.h ****   midi_note -= 9.0f;
 1912              		.loc 11 39 14 view .LVU583
 1913              	.LBB358:
  40:eurorack/plaits/dsp/engine/engine.h ****   CONSTRAIN(midi_note, -128.0f, 127.0f);
 1914              		.loc 11 40 3 view .LVU584
ARM GAS  /var/folders/9s/8rp0_f2s1n31qbztm3b5_fdh0000gn/T//ccY1wZnf.s 			page 69


  40:eurorack/plaits/dsp/engine/engine.h ****   CONSTRAIN(midi_note, -128.0f, 127.0f);
 1915              		.loc 11 40 13 is_stmt 0 view .LVU585
 1916 04f2 B2EE020A 		vmov.f32	s0, #9.0e+0
 1917 04f6 DDED097A 		vldr.32	s15, [sp, #36]
 1918 04fa 37EEC00A 		vsub.f32	s0, s15, s0
 1919              	.LVL157:
  41:eurorack/plaits/dsp/engine/engine.h ****   return a0 * 0.25f * stmlib::SemitonesToRatio(midi_note);
 1920              		.loc 11 41 3 is_stmt 1 view .LVU586
 1921 04fe 5FED587A 		vldr.32	s15, .L115+52
 1922 0502 B4EEE70A 		vcmpe.f32	s0, s15
 1923 0506 F1EE10FA 		vmrs	APSR_nzcv, FPSCR
 1924 050a 2BD4     		bmi	.L94
  41:eurorack/plaits/dsp/engine/engine.h ****   return a0 * 0.25f * stmlib::SemitonesToRatio(midi_note);
 1925              		.loc 11 41 3 view .LVU587
 1926 050c 5FED5B7A 		vldr.32	s15, .L115+56
 1927 0510 B4EE670A 		vcmp.f32	s0, s15
 1928 0514 F1EE10FA 		vmrs	APSR_nzcv, FPSCR
 1929 0518 37FE800A 		vselgt.f32	s0, s15, s0
 1930              	.LVL158:
 1931              	.L72:
  41:eurorack/plaits/dsp/engine/engine.h ****   return a0 * 0.25f * stmlib::SemitonesToRatio(midi_note);
 1932              		.loc 11 41 40 view .LVU588
  42:eurorack/plaits/dsp/engine/engine.h **** }
 1933              		.loc 11 42 3 view .LVU589
  42:eurorack/plaits/dsp/engine/engine.h **** }
 1934              		.loc 11 42 3 is_stmt 0 view .LVU590
 1935              	.LBE358:
 1936              	.LBE357:
 214:eurorack/plaits/dsp/voice.cc ****     }
 1937              		.loc 9 214 7 is_stmt 1 view .LVU591
 1938              	.LBB363:
 1939              	.LBI363:
  52:eurorack/plaits/dsp/envelope.h ****       float attack,
 1940              		.loc 2 52 15 view .LVU592
 1941              	.LBB364:
  57:eurorack/plaits/dsp/envelope.h ****       vactrol_state_ += attack;
 1942              		.loc 2 57 5 view .LVU593
 1943 051c 94F8483C 		ldrb	r3, [r4, #3144]	@ zero_extendqisi2
 1944 0520 EBB1     		cbz	r3, .L74
 1945 0522 8DED051A 		vstr.32	s2, [sp, #20]	@ int
 1946 0526 CDED041A 		vstr.32	s3, [sp, #16]	@ int
 1947              	.LBE364:
 1948              	.LBE363:
 1949              	.LBB371:
 1950              	.LBB359:
  42:eurorack/plaits/dsp/engine/engine.h **** }
 1951              		.loc 11 42 47 is_stmt 0 view .LVU594
 1952 052a FFF7FEFF 		bl	_ZN6stmlib16SemitonesToRatioEf
 1953              	.LVL159:
  42:eurorack/plaits/dsp/engine/engine.h **** }
 1954              		.loc 11 42 47 view .LVU595
 1955              	.LBE359:
 1956              	.LBE371:
 1957              	.LBB372:
 1958              	.LBB365:
  58:eurorack/plaits/dsp/envelope.h ****       if (vactrol_state_ >= 1.0f) {
 1959              		.loc 2 58 7 is_stmt 1 view .LVU596
ARM GAS  /var/folders/9s/8rp0_f2s1n31qbztm3b5_fdh0000gn/T//ccY1wZnf.s 			page 70


 1960              	.LBE365:
 1961              	.LBE372:
 1962              	.LBB373:
 1963              	.LBB360:
  42:eurorack/plaits/dsp/engine/engine.h **** }
 1964              		.loc 11 42 57 is_stmt 0 view .LVU597
 1965 052e 5FED627A 		vldr.32	s15, .L115+60
 1966              	.LBE360:
 1967              	.LBE373:
 1968              	.LBB374:
 1969              	.LBB366:
  59:eurorack/plaits/dsp/envelope.h ****         vactrol_state_ = 1.0f;
 1970              		.loc 2 59 7 view .LVU598
 1971 0532 DDED041A 		vldr.32	s3, [sp, #16]	@ int
 1972              	.LBE366:
 1973              	.LBE374:
 1974              	.LBB375:
 1975              	.LBB361:
  42:eurorack/plaits/dsp/engine/engine.h **** }
 1976              		.loc 11 42 57 view .LVU599
 1977 0536 20EE270A 		vmul.f32	s0, s0, s15
 1978              	.LBE361:
 1979              	.LBE375:
 1980              	.LBB376:
 1981              	.LBB367:
  59:eurorack/plaits/dsp/envelope.h ****         vactrol_state_ = 1.0f;
 1982              		.loc 2 59 7 view .LVU600
 1983 053a 9DED051A 		vldr.32	s2, [sp, #20]	@ int
 1984              	.LBE367:
 1985              	.LBE376:
 213:eurorack/plaits/dsp/voice.cc ****       lpg_envelope_.ProcessPing(attack, short_decay, decay_tail, hf);
 1986              		.loc 9 213 52 view .LVU601
 1987 053e 60EE299A 		vmul.f32	s19, s0, s19
 1988              	.LBB377:
 1989              	.LBB368:
  58:eurorack/plaits/dsp/envelope.h ****       if (vactrol_state_ >= 1.0f) {
 1990              		.loc 2 58 22 view .LVU602
 1991 0542 97ED000A 		vldr.32	s0, [r7]
 1992 0546 A9EE890A 		vfma.f32	s0, s19, s18
  59:eurorack/plaits/dsp/envelope.h ****         vactrol_state_ = 1.0f;
 1993              		.loc 2 59 7 is_stmt 1 view .LVU603
 1994 054a B4EEE80A 		vcmpe.f32	s0, s17
 1995 054e F1EE10FA 		vmrs	APSR_nzcv, FPSCR
 1996 0552 0ADB     		blt	.L112
  60:eurorack/plaits/dsp/envelope.h ****         ramp_up_ = false;
 1997              		.loc 2 60 9 view .LVU604
  61:eurorack/plaits/dsp/envelope.h ****       }
 1998              		.loc 2 61 18 is_stmt 0 view .LVU605
 1999 0554 0023     		movs	r3, #0
  60:eurorack/plaits/dsp/envelope.h ****         ramp_up_ = false;
 2000              		.loc 2 60 24 view .LVU606
 2001 0556 C7ED008A 		vstr.32	s17, [r7]
  61:eurorack/plaits/dsp/envelope.h ****       }
 2002              		.loc 2 61 9 is_stmt 1 view .LVU607
  61:eurorack/plaits/dsp/envelope.h ****       }
 2003              		.loc 2 61 18 is_stmt 0 view .LVU608
 2004 055a 84F8483C 		strb	r3, [r4, #3144]
ARM GAS  /var/folders/9s/8rp0_f2s1n31qbztm3b5_fdh0000gn/T//ccY1wZnf.s 			page 71


 2005              	.L74:
  64:eurorack/plaits/dsp/envelope.h ****   }
 2006              		.loc 2 64 5 is_stmt 1 view .LVU609
  64:eurorack/plaits/dsp/envelope.h ****   }
 2007              		.loc 2 64 14 is_stmt 0 view .LVU610
 2008 055e 1FED6D0A 		vldr.32	s0, .L115+64
 2009 0562 04E0     		b	.L77
 2010              	.LVL160:
 2011              	.L94:
  64:eurorack/plaits/dsp/envelope.h ****   }
 2012              		.loc 2 64 14 view .LVU611
 2013              	.LBE368:
 2014              	.LBE377:
 2015              	.LBB378:
 2016              	.LBB362:
  41:eurorack/plaits/dsp/engine/engine.h ****   return a0 * 0.25f * stmlib::SemitonesToRatio(midi_note);
 2017              		.loc 11 41 3 view .LVU612
 2018 0564 B0EE670A 		vmov.f32	s0, s15
 2019              	.LVL161:
  41:eurorack/plaits/dsp/engine/engine.h ****   return a0 * 0.25f * stmlib::SemitonesToRatio(midi_note);
 2020              		.loc 11 41 3 view .LVU613
 2021 0568 D8E7     		b	.L72
 2022              	.LVL162:
 2023              	.L112:
  41:eurorack/plaits/dsp/engine/engine.h ****   return a0 * 0.25f * stmlib::SemitonesToRatio(midi_note);
 2024              		.loc 11 41 3 view .LVU614
 2025              	.LBE362:
 2026              	.LBE378:
 2027              	.LBB379:
 2028              	.LBB369:
  58:eurorack/plaits/dsp/envelope.h ****       if (vactrol_state_ >= 1.0f) {
 2029              		.loc 2 58 22 view .LVU615
 2030 056a 87ED000A 		vstr.32	s0, [r7]
 2031              	.L77:
  64:eurorack/plaits/dsp/envelope.h ****   }
 2032              		.loc 2 64 14 view .LVU616
 2033 056e F0EE4B0A 		vmov.f32	s1, s22
