ARM GAS  /var/folders/9s/8rp0_f2s1n31qbztm3b5_fdh0000gn/T//cc00qguF.s 			page 1


   1              		.cpu cortex-m7
   2              		.arch armv7e-m
   3              		.fpu fpv5-d16
   4              		.eabi_attribute 28, 1
   5              		.eabi_attribute 20, 1
   6              		.eabi_attribute 21, 1
   7              		.eabi_attribute 23, 3
   8              		.eabi_attribute 24, 1
   9              		.eabi_attribute 25, 1
  10              		.eabi_attribute 26, 1
  11              		.eabi_attribute 30, 4
  12              		.eabi_attribute 34, 1
  13              		.eabi_attribute 18, 4
  14              		.file	"voice.cc"
  15              		.text
  16              	.Ltext0:
  17              		.cfi_sections	.debug_frame
  18              		.section	.text._ZN6stmlib16SemitonesToRatioEf,"axG",%progbits,_ZN6stmlib16SemitonesToRatioEf,comda
  19              		.align	1
  20              		.weak	_ZN6stmlib16SemitonesToRatioEf
  21              		.syntax unified
  22              		.thumb
  23              		.thumb_func
  25              	_ZN6stmlib16SemitonesToRatioEf:
  26              	.LVL0:
  27              	.LFB1498:
  28              		.file 1 "eurorack/stmlib/dsp/units.h"
   1:eurorack/stmlib/dsp/units.h **** // Copyright 2014 Emilie Gillet.
   2:eurorack/stmlib/dsp/units.h **** //
   3:eurorack/stmlib/dsp/units.h **** // Author: Emilie Gillet (emilie.o.gillet@gmail.com)
   4:eurorack/stmlib/dsp/units.h **** //
   5:eurorack/stmlib/dsp/units.h **** // Permission is hereby granted, free of charge, to any person obtaining a copy
   6:eurorack/stmlib/dsp/units.h **** // of this software and associated documentation files (the "Software"), to deal
   7:eurorack/stmlib/dsp/units.h **** // in the Software without restriction, including without limitation the rights
   8:eurorack/stmlib/dsp/units.h **** // to use, copy, modify, merge, publish, distribute, sublicense, and/or sell
   9:eurorack/stmlib/dsp/units.h **** // copies of the Software, and to permit persons to whom the Software is
  10:eurorack/stmlib/dsp/units.h **** // furnished to do so, subject to the following conditions:
  11:eurorack/stmlib/dsp/units.h **** // 
  12:eurorack/stmlib/dsp/units.h **** // The above copyright notice and this permission notice shall be included in
  13:eurorack/stmlib/dsp/units.h **** // all copies or substantial portions of the Software.
  14:eurorack/stmlib/dsp/units.h **** // 
  15:eurorack/stmlib/dsp/units.h **** // THE SOFTWARE IS PROVIDED "AS IS", WITHOUT WARRANTY OF ANY KIND, EXPRESS OR
  16:eurorack/stmlib/dsp/units.h **** // IMPLIED, INCLUDING BUT NOT LIMITED TO THE WARRANTIES OF MERCHANTABILITY,
  17:eurorack/stmlib/dsp/units.h **** // FITNESS FOR A PARTICULAR PURPOSE AND NONINFRINGEMENT. IN NO EVENT SHALL THE
  18:eurorack/stmlib/dsp/units.h **** // AUTHORS OR COPYRIGHT HOLDERS BE LIABLE FOR ANY CLAIM, DAMAGES OR OTHER
  19:eurorack/stmlib/dsp/units.h **** // LIABILITY, WHETHER IN AN ACTION OF CONTRACT, TORT OR OTHERWISE, ARISING FROM,
  20:eurorack/stmlib/dsp/units.h **** // OUT OF OR IN CONNECTION WITH THE SOFTWARE OR THE USE OR OTHER DEALINGS IN
  21:eurorack/stmlib/dsp/units.h **** // THE SOFTWARE.
  22:eurorack/stmlib/dsp/units.h **** // 
  23:eurorack/stmlib/dsp/units.h **** // See http://creativecommons.org/licenses/MIT/ for more information.
  24:eurorack/stmlib/dsp/units.h **** //
  25:eurorack/stmlib/dsp/units.h **** // -----------------------------------------------------------------------------
  26:eurorack/stmlib/dsp/units.h **** //
  27:eurorack/stmlib/dsp/units.h **** // Conversion from semitones to frequency ratio.
  28:eurorack/stmlib/dsp/units.h **** 
  29:eurorack/stmlib/dsp/units.h **** #ifndef STMLIB_DSP_UNITS_H_
  30:eurorack/stmlib/dsp/units.h **** #define STMLIB_DSP_UNITS_H_
ARM GAS  /var/folders/9s/8rp0_f2s1n31qbztm3b5_fdh0000gn/T//cc00qguF.s 			page 2


  31:eurorack/stmlib/dsp/units.h **** 
  32:eurorack/stmlib/dsp/units.h **** #include "stmlib/stmlib.h"
  33:eurorack/stmlib/dsp/units.h **** #include "stmlib/dsp/dsp.h"
  34:eurorack/stmlib/dsp/units.h **** 
  35:eurorack/stmlib/dsp/units.h **** namespace stmlib {
  36:eurorack/stmlib/dsp/units.h **** 
  37:eurorack/stmlib/dsp/units.h **** extern const float lut_pitch_ratio_high[257];
  38:eurorack/stmlib/dsp/units.h **** extern const float lut_pitch_ratio_low[257];
  39:eurorack/stmlib/dsp/units.h **** 
  40:eurorack/stmlib/dsp/units.h **** inline float SemitonesToRatio(float semitones) {
  29              		.loc 1 40 48 view -0
  30              		.cfi_startproc
  31              		@ args = 0, pretend = 0, frame = 0
  32              		@ frame_needed = 0, uses_anonymous_args = 0
  33              		@ link register save eliminated.
  41:eurorack/stmlib/dsp/units.h ****   float pitch = semitones + 128.0f;
  34              		.loc 1 41 3 view .LVU1
  35              		.loc 1 41 9 is_stmt 0 view .LVU2
  36 0000 DFED0E7A 		vldr.32	s15, .L2
  42:eurorack/stmlib/dsp/units.h ****   MAKE_INTEGRAL_FRACTIONAL(pitch)
  43:eurorack/stmlib/dsp/units.h **** 
  44:eurorack/stmlib/dsp/units.h ****   return lut_pitch_ratio_high[pitch_integral] * \
  45:eurorack/stmlib/dsp/units.h ****       lut_pitch_ratio_low[static_cast<int32_t>(pitch_fractional * 256.0f)];
  37              		.loc 1 45 74 view .LVU3
  38 0004 0E4A     		ldr	r2, .L2+4
  41:eurorack/stmlib/dsp/units.h ****   float pitch = semitones + 128.0f;
  39              		.loc 1 41 9 view .LVU4
  40 0006 30EE270A 		vadd.f32	s0, s0, s15
  41              	.LVL1:
  42:eurorack/stmlib/dsp/units.h ****   MAKE_INTEGRAL_FRACTIONAL(pitch)
  42              		.loc 1 42 3 is_stmt 1 view .LVU5
  43 000a FDEEC07A 		vcvt.s32.f32	s15, s0
  44              	.LVL2:
  42:eurorack/stmlib/dsp/units.h ****   MAKE_INTEGRAL_FRACTIONAL(pitch)
  45              		.loc 1 42 3 view .LVU6
  44:eurorack/stmlib/dsp/units.h ****       lut_pitch_ratio_low[static_cast<int32_t>(pitch_fractional * 256.0f)];
  46              		.loc 1 44 3 view .LVU7
  42:eurorack/stmlib/dsp/units.h ****   MAKE_INTEGRAL_FRACTIONAL(pitch)
  47              		.loc 1 42 3 is_stmt 0 view .LVU8
  48 000e B8EEE77A 		vcvt.f32.s32	s14, s15
  44:eurorack/stmlib/dsp/units.h ****       lut_pitch_ratio_low[static_cast<int32_t>(pitch_fractional * 256.0f)];
  49              		.loc 1 44 45 view .LVU9
  50 0012 17EE901A 		vmov	r1, s15	@ int
  42:eurorack/stmlib/dsp/units.h ****   MAKE_INTEGRAL_FRACTIONAL(pitch)
  51              		.loc 1 42 3 view .LVU10
  52 0016 30EE470A 		vsub.f32	s0, s0, s14
  53              	.LVL3:
  54              		.loc 1 45 27 view .LVU11
  55 001a BEEECC0A 		vcvt.s32.f32	s0, s0, #8
  56              	.LVL4:
  57              		.loc 1 45 74 view .LVU12
  58 001e 10EE103A 		vmov	r3, s0	@ int
  59 0022 02EB8302 		add	r2, r2, r3, lsl #2
  44:eurorack/stmlib/dsp/units.h ****       lut_pitch_ratio_low[static_cast<int32_t>(pitch_fractional * 256.0f)];
  60              		.loc 1 44 45 view .LVU13
  61 0026 074B     		ldr	r3, .L2+8
  62 0028 03EB8103 		add	r3, r3, r1, lsl #2
ARM GAS  /var/folders/9s/8rp0_f2s1n31qbztm3b5_fdh0000gn/T//cc00qguF.s 			page 3


  63              		.loc 1 45 74 view .LVU14
  64 002c 92ED000A 		vldr.32	s0, [r2]
  65 0030 D3ED007A 		vldr.32	s15, [r3]
  66              	.LVL5:
  46:eurorack/stmlib/dsp/units.h **** }
  67              		.loc 1 46 1 view .LVU15
  68 0034 20EE270A 		vmul.f32	s0, s0, s15
  69 0038 7047     		bx	lr
  70              	.L3:
  71 003a 00BF     		.align	2
  72              	.L2:
  73 003c 00000043 		.word	1124073472
  74 0040 00000000 		.word	_ZN6stmlib19lut_pitch_ratio_lowE
  75 0044 00000000 		.word	_ZN6stmlib20lut_pitch_ratio_highE
  76              		.cfi_endproc
  77              	.LFE1498:
  79              		.section	.text._ZN6plaits11LPGEnvelope9ProcessLPEffff,"axG",%progbits,_ZN6plaits11LPGEnvelope9Proc
  80              		.align	1
  81              		.weak	_ZN6plaits11LPGEnvelope9ProcessLPEffff
  82              		.syntax unified
  83              		.thumb
  84              		.thumb_func
  86              	_ZN6plaits11LPGEnvelope9ProcessLPEffff:
  87              	.LVL6:
  88              	.LFB1985:
  89              		.file 2 "eurorack/plaits/dsp/envelope.h"
   1:eurorack/plaits/dsp/envelope.h **** // Copyright 2016 Emilie Gillet.
   2:eurorack/plaits/dsp/envelope.h **** //
   3:eurorack/plaits/dsp/envelope.h **** // Author: Emilie Gillet (emilie.o.gillet@gmail.com)
   4:eurorack/plaits/dsp/envelope.h **** //
   5:eurorack/plaits/dsp/envelope.h **** // Permission is hereby granted, free of charge, to any person obtaining a copy
   6:eurorack/plaits/dsp/envelope.h **** // of this software and associated documentation files (the "Software"), to deal
   7:eurorack/plaits/dsp/envelope.h **** // in the Software without restriction, including without limitation the rights
   8:eurorack/plaits/dsp/envelope.h **** // to use, copy, modify, merge, publish, distribute, sublicense, and/or sell
   9:eurorack/plaits/dsp/envelope.h **** // copies of the Software, and to permit persons to whom the Software is
  10:eurorack/plaits/dsp/envelope.h **** // furnished to do so, subject to the following conditions:
  11:eurorack/plaits/dsp/envelope.h **** // 
  12:eurorack/plaits/dsp/envelope.h **** // The above copyright notice and this permission notice shall be included in
  13:eurorack/plaits/dsp/envelope.h **** // all copies or substantial portions of the Software.
  14:eurorack/plaits/dsp/envelope.h **** // 
  15:eurorack/plaits/dsp/envelope.h **** // THE SOFTWARE IS PROVIDED "AS IS", WITHOUT WARRANTY OF ANY KIND, EXPRESS OR
  16:eurorack/plaits/dsp/envelope.h **** // IMPLIED, INCLUDING BUT NOT LIMITED TO THE WARRANTIES OF MERCHANTABILITY,
  17:eurorack/plaits/dsp/envelope.h **** // FITNESS FOR A PARTICULAR PURPOSE AND NONINFRINGEMENT. IN NO EVENT SHALL THE
  18:eurorack/plaits/dsp/envelope.h **** // AUTHORS OR COPYRIGHT HOLDERS BE LIABLE FOR ANY CLAIM, DAMAGES OR OTHER
  19:eurorack/plaits/dsp/envelope.h **** // LIABILITY, WHETHER IN AN ACTION OF CONTRACT, TORT OR OTHERWISE, ARISING FROM,
  20:eurorack/plaits/dsp/envelope.h **** // OUT OF OR IN CONNECTION WITH THE SOFTWARE OR THE USE OR OTHER DEALINGS IN
  21:eurorack/plaits/dsp/envelope.h **** // THE SOFTWARE.
  22:eurorack/plaits/dsp/envelope.h **** // 
  23:eurorack/plaits/dsp/envelope.h **** // See http://creativecommons.org/licenses/MIT/ for more information.
  24:eurorack/plaits/dsp/envelope.h **** //
  25:eurorack/plaits/dsp/envelope.h **** // -----------------------------------------------------------------------------
  26:eurorack/plaits/dsp/envelope.h **** //
  27:eurorack/plaits/dsp/envelope.h **** // Envelope for the internal LPG.
  28:eurorack/plaits/dsp/envelope.h **** 
  29:eurorack/plaits/dsp/envelope.h **** #ifndef PLAITS_DSP_ENVELOPE_H_
  30:eurorack/plaits/dsp/envelope.h **** #define PLAITS_DSP_ENVELOPE_H_
  31:eurorack/plaits/dsp/envelope.h **** 
ARM GAS  /var/folders/9s/8rp0_f2s1n31qbztm3b5_fdh0000gn/T//cc00qguF.s 			page 4


  32:eurorack/plaits/dsp/envelope.h **** #include "stmlib/stmlib.h"
  33:eurorack/plaits/dsp/envelope.h **** 
  34:eurorack/plaits/dsp/envelope.h **** namespace plaits {
  35:eurorack/plaits/dsp/envelope.h **** 
  36:eurorack/plaits/dsp/envelope.h **** class LPGEnvelope {
  37:eurorack/plaits/dsp/envelope.h ****  public:
  38:eurorack/plaits/dsp/envelope.h ****   LPGEnvelope() { }
  39:eurorack/plaits/dsp/envelope.h ****   ~LPGEnvelope() { }
  40:eurorack/plaits/dsp/envelope.h ****   
  41:eurorack/plaits/dsp/envelope.h ****   inline void Init() {
  42:eurorack/plaits/dsp/envelope.h ****     vactrol_state_ = 0.0f;
  43:eurorack/plaits/dsp/envelope.h ****     gain_ = 1.0f;
  44:eurorack/plaits/dsp/envelope.h ****     frequency_ = 0.5f;
  45:eurorack/plaits/dsp/envelope.h ****     hf_bleed_ = 0.0f;
  46:eurorack/plaits/dsp/envelope.h ****   }
  47:eurorack/plaits/dsp/envelope.h ****   
  48:eurorack/plaits/dsp/envelope.h ****   inline void Trigger() {
  49:eurorack/plaits/dsp/envelope.h ****     ramp_up_ = true;
  50:eurorack/plaits/dsp/envelope.h ****   }
  51:eurorack/plaits/dsp/envelope.h ****   
  52:eurorack/plaits/dsp/envelope.h ****   inline void ProcessPing(
  53:eurorack/plaits/dsp/envelope.h ****       float attack,
  54:eurorack/plaits/dsp/envelope.h ****       float short_decay,
  55:eurorack/plaits/dsp/envelope.h ****       float decay_tail,
  56:eurorack/plaits/dsp/envelope.h ****       float hf) {
  57:eurorack/plaits/dsp/envelope.h ****     if (ramp_up_) {
  58:eurorack/plaits/dsp/envelope.h ****       vactrol_state_ += attack;
  59:eurorack/plaits/dsp/envelope.h ****       if (vactrol_state_ >= 1.0f) {
  60:eurorack/plaits/dsp/envelope.h ****         vactrol_state_ = 1.0f;
  61:eurorack/plaits/dsp/envelope.h ****         ramp_up_ = false;
  62:eurorack/plaits/dsp/envelope.h ****       }
  63:eurorack/plaits/dsp/envelope.h ****     }
  64:eurorack/plaits/dsp/envelope.h ****     ProcessLP(ramp_up_ ? vactrol_state_ : 0.0f, short_decay, decay_tail, hf);
  65:eurorack/plaits/dsp/envelope.h ****   }
  66:eurorack/plaits/dsp/envelope.h ****   
  67:eurorack/plaits/dsp/envelope.h ****   inline void ProcessLP(
  90              		.loc 2 67 15 is_stmt 1 view -0
  91              		.cfi_startproc
  92              		@ args = 0, pretend = 0, frame = 0
  93              		@ frame_needed = 0, uses_anonymous_args = 0
  94              		@ link register save eliminated.
  68:eurorack/plaits/dsp/envelope.h ****       float level,
  69:eurorack/plaits/dsp/envelope.h ****       float short_decay,
  70:eurorack/plaits/dsp/envelope.h ****       float decay_tail,
  71:eurorack/plaits/dsp/envelope.h ****       float hf) {
  72:eurorack/plaits/dsp/envelope.h ****     float vactrol_input = level;
  95              		.loc 2 72 5 view .LVU17
  73:eurorack/plaits/dsp/envelope.h ****     float vactrol_error = (vactrol_input - vactrol_state_);
  96              		.loc 2 73 5 view .LVU18
  97              		.loc 2 73 44 is_stmt 0 view .LVU19
  98 0000 90ED007A 		vldr.32	s14, [r0]
  74:eurorack/plaits/dsp/envelope.h ****     float vactrol_state_2 = vactrol_state_ * vactrol_state_;
  75:eurorack/plaits/dsp/envelope.h ****     float vactrol_state_4 = vactrol_state_2 * vactrol_state_2;
  76:eurorack/plaits/dsp/envelope.h ****     float tail = 1.0f - vactrol_state_;
  99              		.loc 2 76 11 view .LVU20
 100 0004 F7EE006A 		vmov.f32	s13, #1.0e+0
  73:eurorack/plaits/dsp/envelope.h ****     float vactrol_error = (vactrol_input - vactrol_state_);
ARM GAS  /var/folders/9s/8rp0_f2s1n31qbztm3b5_fdh0000gn/T//cc00qguF.s 			page 5


 101              		.loc 2 73 11 view .LVU21
 102 0008 30EE470A 		vsub.f32	s0, s0, s14
 103              	.LVL7:
  74:eurorack/plaits/dsp/envelope.h ****     float vactrol_state_2 = vactrol_state_ * vactrol_state_;
 104              		.loc 2 74 5 is_stmt 1 view .LVU22
  74:eurorack/plaits/dsp/envelope.h ****     float vactrol_state_2 = vactrol_state_ * vactrol_state_;
 105              		.loc 2 74 11 is_stmt 0 view .LVU23
 106 000c 27EE076A 		vmul.f32	s12, s14, s14
 107              	.LVL8:
  75:eurorack/plaits/dsp/envelope.h ****     float tail = 1.0f - vactrol_state_;
 108              		.loc 2 75 5 is_stmt 1 view .LVU24
 109              		.loc 2 76 11 is_stmt 0 view .LVU25
 110 0010 76EEC77A 		vsub.f32	s15, s13, s14
  77:eurorack/plaits/dsp/envelope.h ****     float tail_2 = tail * tail;
  78:eurorack/plaits/dsp/envelope.h ****     float vactrol_coefficient = (vactrol_error > 0.0f)
  79:eurorack/plaits/dsp/envelope.h ****         ? 0.6f
 111              		.loc 2 79 9 view .LVU26
 112 0014 B5EEC00A 		vcmpe.f32	s0, #0
  75:eurorack/plaits/dsp/envelope.h ****     float tail = 1.0f - vactrol_state_;
 113              		.loc 2 75 11 view .LVU27
 114 0018 26EE066A 		vmul.f32	s12, s12, s12
 115              	.LVL9:
  76:eurorack/plaits/dsp/envelope.h ****     float tail_2 = tail * tail;
 116              		.loc 2 76 5 is_stmt 1 view .LVU28
  77:eurorack/plaits/dsp/envelope.h ****     float tail_2 = tail * tail;
 117              		.loc 2 77 5 view .LVU29
  77:eurorack/plaits/dsp/envelope.h ****     float tail_2 = tail * tail;
 118              		.loc 2 77 11 is_stmt 0 view .LVU30
 119 001c 67EEA77A 		vmul.f32	s15, s15, s15
 120              	.LVL10:
  78:eurorack/plaits/dsp/envelope.h ****         ? 0.6f
 121              		.loc 2 78 5 is_stmt 1 view .LVU31
 122              		.loc 2 79 9 is_stmt 0 view .LVU32
 123 0020 F1EE10FA 		vmrs	APSR_nzcv, FPSCR
  80:eurorack/plaits/dsp/envelope.h ****         : short_decay + (1.0f - vactrol_state_4) * decay_tail;
 124              		.loc 2 80 31 view .LVU33
 125 0024 D4BF     		ite	le
 126 0026 76EEC65A 		vsuble.f32	s11, s13, s12
  79:eurorack/plaits/dsp/envelope.h ****         : short_decay + (1.0f - vactrol_state_4) * decay_tail;
 127              		.loc 2 79 9 view .LVU34
 128 002a DFED110A 		vldrgt.32	s1, .L7
 129              	.LVL11:
  81:eurorack/plaits/dsp/envelope.h ****     vactrol_state_ += vactrol_coefficient * vactrol_error;
  82:eurorack/plaits/dsp/envelope.h ****     
  83:eurorack/plaits/dsp/envelope.h ****     gain_ = vactrol_state_;
  84:eurorack/plaits/dsp/envelope.h ****     frequency_ = 0.003f + 0.3f * vactrol_state_4 + hf * 0.04f;
  85:eurorack/plaits/dsp/envelope.h ****     hf_bleed_ = (tail_2 + (1.0f - tail_2) * hf) * hf * hf;
 130              		.loc 2 85 33 view .LVU35
 131 002e 76EEE76A 		vsub.f32	s13, s13, s15
 132              	.LVL12:
  79:eurorack/plaits/dsp/envelope.h ****         : short_decay + (1.0f - vactrol_state_4) * decay_tail;
 133              		.loc 2 79 9 view .LVU36
 134 0032 D8BF     		it	le
 135 0034 E5EE810A 		vfmale.f32	s1, s11, s2
 136              	.LVL13:
  81:eurorack/plaits/dsp/envelope.h ****     vactrol_state_ += vactrol_coefficient * vactrol_error;
 137              		.loc 2 81 5 is_stmt 1 view .LVU37
ARM GAS  /var/folders/9s/8rp0_f2s1n31qbztm3b5_fdh0000gn/T//cc00qguF.s 			page 6


  84:eurorack/plaits/dsp/envelope.h ****     hf_bleed_ = (tail_2 + (1.0f - tail_2) * hf) * hf * hf;
 138              		.loc 2 84 25 is_stmt 0 view .LVU38
 139 0038 DFED0E5A 		vldr.32	s11, .L7+4
 140              		.loc 2 85 25 view .LVU39
 141 003c E6EEA17A 		vfma.f32	s15, s13, s3
 142              	.LVL14:
  81:eurorack/plaits/dsp/envelope.h ****     vactrol_state_ += vactrol_coefficient * vactrol_error;
 143              		.loc 2 81 20 view .LVU40
 144 0040 A0EE807A 		vfma.f32	s14, s1, s0
 145              	.LVL15:
  81:eurorack/plaits/dsp/envelope.h ****     vactrol_state_ += vactrol_coefficient * vactrol_error;
 146              		.loc 2 81 20 view .LVU41
 147 0044 80ED007A 		vstr.32	s14, [r0]
 148              	.LVL16:
  83:eurorack/plaits/dsp/envelope.h ****     frequency_ = 0.003f + 0.3f * vactrol_state_4 + hf * 0.04f;
 149              		.loc 2 83 5 is_stmt 1 view .LVU42
  83:eurorack/plaits/dsp/envelope.h ****     frequency_ = 0.003f + 0.3f * vactrol_state_4 + hf * 0.04f;
 150              		.loc 2 83 11 is_stmt 0 view .LVU43
 151 0048 80ED017A 		vstr.32	s14, [r0, #4]
  84:eurorack/plaits/dsp/envelope.h ****     hf_bleed_ = (tail_2 + (1.0f - tail_2) * hf) * hf * hf;
 152              		.loc 2 84 5 is_stmt 1 view .LVU44
  84:eurorack/plaits/dsp/envelope.h ****     hf_bleed_ = (tail_2 + (1.0f - tail_2) * hf) * hf * hf;
 153              		.loc 2 84 25 is_stmt 0 view .LVU45
 154 004c 9FED0A7A 		vldr.32	s14, .L7+8
 155 0050 A6EE257A 		vfma.f32	s14, s12, s11
  84:eurorack/plaits/dsp/envelope.h ****     hf_bleed_ = (tail_2 + (1.0f - tail_2) * hf) * hf * hf;
 156              		.loc 2 84 50 view .LVU46
 157 0054 9FED096A 		vldr.32	s12, .L7+12
 158              	.LVL17:
  84:eurorack/plaits/dsp/envelope.h ****     hf_bleed_ = (tail_2 + (1.0f - tail_2) * hf) * hf * hf;
 159              		.loc 2 84 50 view .LVU47
 160 0058 A1EE867A 		vfma.f32	s14, s3, s12
  84:eurorack/plaits/dsp/envelope.h ****     hf_bleed_ = (tail_2 + (1.0f - tail_2) * hf) * hf * hf;
 161              		.loc 2 84 16 view .LVU48
 162 005c 80ED027A 		vstr.32	s14, [r0, #8]
 163              		.loc 2 85 5 is_stmt 1 view .LVU49
 164              		.loc 2 85 49 is_stmt 0 view .LVU50
 165 0060 27EEA17A 		vmul.f32	s14, s15, s3
 166              		.loc 2 85 54 view .LVU51
 167 0064 67EE217A 		vmul.f32	s15, s14, s3
 168              		.loc 2 85 15 view .LVU52
 169 0068 C0ED037A 		vstr.32	s15, [r0, #12]
  86:eurorack/plaits/dsp/envelope.h ****   }
 170              		.loc 2 86 3 view .LVU53
 171 006c 7047     		bx	lr
 172              	.L8:
 173 006e 00BF     		.align	2
 174              	.L7:
 175 0070 9A99193F 		.word	1058642330
 176 0074 9A99993E 		.word	1050253722
 177 0078 A69B443B 		.word	994352038
 178 007c 0AD7233D 		.word	1025758986
 179              		.cfi_endproc
 180              	.LFE1985:
 182              		.section	.text._ZN6plaits20ChannelPostProcessor4InitEv,"axG",%progbits,_ZN6plaits20ChannelPostProc
 183              		.align	1
 184              		.weak	_ZN6plaits20ChannelPostProcessor4InitEv
ARM GAS  /var/folders/9s/8rp0_f2s1n31qbztm3b5_fdh0000gn/T//cc00qguF.s 			page 7


 185              		.syntax unified
 186              		.thumb
 187              		.thumb_func
 189              	_ZN6plaits20ChannelPostProcessor4InitEv:
 190              	.LVL18:
 191              	.LFB2014:
 192              		.file 3 "eurorack/plaits/dsp/voice.h"
   1:eurorack/plaits/dsp/voice.h **** // Copyright 2016 Emilie Gillet.
   2:eurorack/plaits/dsp/voice.h **** //
   3:eurorack/plaits/dsp/voice.h **** // Author: Emilie Gillet (emilie.o.gillet@gmail.com)
   4:eurorack/plaits/dsp/voice.h **** //
   5:eurorack/plaits/dsp/voice.h **** // Permission is hereby granted, free of charge, to any person obtaining a copy
   6:eurorack/plaits/dsp/voice.h **** // of this software and associated documentation files (the "Software"), to deal
   7:eurorack/plaits/dsp/voice.h **** // in the Software without restriction, including without limitation the rights
   8:eurorack/plaits/dsp/voice.h **** // to use, copy, modify, merge, publish, distribute, sublicense, and/or sell
   9:eurorack/plaits/dsp/voice.h **** // copies of the Software, and to permit persons to whom the Software is
  10:eurorack/plaits/dsp/voice.h **** // furnished to do so, subject to the following conditions:
  11:eurorack/plaits/dsp/voice.h **** // 
  12:eurorack/plaits/dsp/voice.h **** // The above copyright notice and this permission notice shall be included in
  13:eurorack/plaits/dsp/voice.h **** // all copies or substantial portions of the Software.
  14:eurorack/plaits/dsp/voice.h **** // 
  15:eurorack/plaits/dsp/voice.h **** // THE SOFTWARE IS PROVIDED "AS IS", WITHOUT WARRANTY OF ANY KIND, EXPRESS OR
  16:eurorack/plaits/dsp/voice.h **** // IMPLIED, INCLUDING BUT NOT LIMITED TO THE WARRANTIES OF MERCHANTABILITY,
  17:eurorack/plaits/dsp/voice.h **** // FITNESS FOR A PARTICULAR PURPOSE AND NONINFRINGEMENT. IN NO EVENT SHALL THE
  18:eurorack/plaits/dsp/voice.h **** // AUTHORS OR COPYRIGHT HOLDERS BE LIABLE FOR ANY CLAIM, DAMAGES OR OTHER
  19:eurorack/plaits/dsp/voice.h **** // LIABILITY, WHETHER IN AN ACTION OF CONTRACT, TORT OR OTHERWISE, ARISING FROM,
  20:eurorack/plaits/dsp/voice.h **** // OUT OF OR IN CONNECTION WITH THE SOFTWARE OR THE USE OR OTHER DEALINGS IN
  21:eurorack/plaits/dsp/voice.h **** // THE SOFTWARE.
  22:eurorack/plaits/dsp/voice.h **** // 
  23:eurorack/plaits/dsp/voice.h **** // See http://creativecommons.org/licenses/MIT/ for more information.
  24:eurorack/plaits/dsp/voice.h **** //
  25:eurorack/plaits/dsp/voice.h **** // -----------------------------------------------------------------------------
  26:eurorack/plaits/dsp/voice.h **** //
  27:eurorack/plaits/dsp/voice.h **** // Main synthesis voice.
  28:eurorack/plaits/dsp/voice.h **** 
  29:eurorack/plaits/dsp/voice.h **** #ifndef PLAITS_DSP_VOICE_H_
  30:eurorack/plaits/dsp/voice.h **** #define PLAITS_DSP_VOICE_H_
  31:eurorack/plaits/dsp/voice.h **** 
  32:eurorack/plaits/dsp/voice.h **** #include "stmlib/stmlib.h"
  33:eurorack/plaits/dsp/voice.h **** 
  34:eurorack/plaits/dsp/voice.h **** #include "stmlib/dsp/filter.h"
  35:eurorack/plaits/dsp/voice.h **** #include "stmlib/dsp/limiter.h"
  36:eurorack/plaits/dsp/voice.h **** #include "stmlib/utils/buffer_allocator.h"
  37:eurorack/plaits/dsp/voice.h **** 
  38:eurorack/plaits/dsp/voice.h **** #include "plaits/dsp/engine/additive_engine.h"
  39:eurorack/plaits/dsp/voice.h **** #include "plaits/dsp/engine/bass_drum_engine.h"
  40:eurorack/plaits/dsp/voice.h **** #include "plaits/dsp/engine/chord_engine.h"
  41:eurorack/plaits/dsp/voice.h **** #include "plaits/dsp/engine/engine.h"
  42:eurorack/plaits/dsp/voice.h **** #include "plaits/dsp/engine/fm_engine.h"
  43:eurorack/plaits/dsp/voice.h **** #include "plaits/dsp/engine/grain_engine.h"
  44:eurorack/plaits/dsp/voice.h **** #include "plaits/dsp/engine/hi_hat_engine.h"
  45:eurorack/plaits/dsp/voice.h **** #include "plaits/dsp/engine/modal_engine.h"
  46:eurorack/plaits/dsp/voice.h **** #include "plaits/dsp/engine/noise_engine.h"
  47:eurorack/plaits/dsp/voice.h **** #include "plaits/dsp/engine/particle_engine.h"
  48:eurorack/plaits/dsp/voice.h **** #include "plaits/dsp/engine/snare_drum_engine.h"
  49:eurorack/plaits/dsp/voice.h **** // #include "plaits/dsp/engine/speech_engine.h"
  50:eurorack/plaits/dsp/voice.h **** #include "plaits/dsp/engine/string_engine.h"
ARM GAS  /var/folders/9s/8rp0_f2s1n31qbztm3b5_fdh0000gn/T//cc00qguF.s 			page 8


  51:eurorack/plaits/dsp/voice.h **** #include "plaits/dsp/engine/swarm_engine.h"
  52:eurorack/plaits/dsp/voice.h **** #include "plaits/dsp/engine/virtual_analog_engine.h"
  53:eurorack/plaits/dsp/voice.h **** #include "plaits/dsp/engine/waveshaping_engine.h"
  54:eurorack/plaits/dsp/voice.h **** // #include "plaits/dsp/engine/wavetable_engine.h"
  55:eurorack/plaits/dsp/voice.h **** 
  56:eurorack/plaits/dsp/voice.h **** #include "plaits/dsp/envelope.h"
  57:eurorack/plaits/dsp/voice.h **** 
  58:eurorack/plaits/dsp/voice.h **** #include "plaits/dsp/fx/low_pass_gate.h"
  59:eurorack/plaits/dsp/voice.h **** 
  60:eurorack/plaits/dsp/voice.h **** namespace plaits {
  61:eurorack/plaits/dsp/voice.h **** 
  62:eurorack/plaits/dsp/voice.h **** const int kMaxEngines = 16;
  63:eurorack/plaits/dsp/voice.h **** const int kMaxTriggerDelay = 8;
  64:eurorack/plaits/dsp/voice.h **** const int kTriggerDelay = 5;
  65:eurorack/plaits/dsp/voice.h **** 
  66:eurorack/plaits/dsp/voice.h **** class ChannelPostProcessor {
  67:eurorack/plaits/dsp/voice.h ****  public:
  68:eurorack/plaits/dsp/voice.h ****   ChannelPostProcessor() { }
  69:eurorack/plaits/dsp/voice.h ****   ~ChannelPostProcessor() { }
  70:eurorack/plaits/dsp/voice.h ****   
  71:eurorack/plaits/dsp/voice.h ****   void Init() {
 193              		.loc 3 71 8 is_stmt 1 view -0
 194              		.cfi_startproc
 195              		@ args = 0, pretend = 0, frame = 0
 196              		@ frame_needed = 0, uses_anonymous_args = 0
 197              		@ link register save eliminated.
  72:eurorack/plaits/dsp/voice.h ****     lpg_.Init();
 198              		.loc 3 72 5 view .LVU55
 199              	.LBB104:
 200              	.LBI104:
 201              		.file 4 "eurorack/plaits/dsp/fx/low_pass_gate.h"
   1:eurorack/plaits/dsp/fx/low_pass_gate.h **** // Copyright 2014 Emilie Gillet.
   2:eurorack/plaits/dsp/fx/low_pass_gate.h **** //
   3:eurorack/plaits/dsp/fx/low_pass_gate.h **** // Author: Emilie Gillet (emilie.o.gillet@gmail.com)
   4:eurorack/plaits/dsp/fx/low_pass_gate.h **** //
   5:eurorack/plaits/dsp/fx/low_pass_gate.h **** // Permission is hereby granted, free of charge, to any person obtaining a copy
   6:eurorack/plaits/dsp/fx/low_pass_gate.h **** // of this software and associated documentation files (the "Software"), to deal
   7:eurorack/plaits/dsp/fx/low_pass_gate.h **** // in the Software without restriction, including without limitation the rights
   8:eurorack/plaits/dsp/fx/low_pass_gate.h **** // to use, copy, modify, merge, publish, distribute, sublicense, and/or sell
   9:eurorack/plaits/dsp/fx/low_pass_gate.h **** // copies of the Software, and to permit persons to whom the Software is
  10:eurorack/plaits/dsp/fx/low_pass_gate.h **** // furnished to do so, subject to the following conditions:
  11:eurorack/plaits/dsp/fx/low_pass_gate.h **** // 
  12:eurorack/plaits/dsp/fx/low_pass_gate.h **** // The above copyright notice and this permission notice shall be included in
  13:eurorack/plaits/dsp/fx/low_pass_gate.h **** // all copies or substantial portions of the Software.
  14:eurorack/plaits/dsp/fx/low_pass_gate.h **** // 
  15:eurorack/plaits/dsp/fx/low_pass_gate.h **** // THE SOFTWARE IS PROVIDED "AS IS", WITHOUT WARRANTY OF ANY KIND, EXPRESS OR
  16:eurorack/plaits/dsp/fx/low_pass_gate.h **** // IMPLIED, INCLUDING BUT NOT LIMITED TO THE WARRANTIES OF MERCHANTABILITY,
  17:eurorack/plaits/dsp/fx/low_pass_gate.h **** // FITNESS FOR A PARTICULAR PURPOSE AND NONINFRINGEMENT. IN NO EVENT SHALL THE
  18:eurorack/plaits/dsp/fx/low_pass_gate.h **** // AUTHORS OR COPYRIGHT HOLDERS BE LIABLE FOR ANY CLAIM, DAMAGES OR OTHER
  19:eurorack/plaits/dsp/fx/low_pass_gate.h **** // LIABILITY, WHETHER IN AN ACTION OF CONTRACT, TORT OR OTHERWISE, ARISING FROM,
  20:eurorack/plaits/dsp/fx/low_pass_gate.h **** // OUT OF OR IN CONNECTION WITH THE SOFTWARE OR THE USE OR OTHER DEALINGS IN
  21:eurorack/plaits/dsp/fx/low_pass_gate.h **** // THE SOFTWARE.
  22:eurorack/plaits/dsp/fx/low_pass_gate.h **** // 
  23:eurorack/plaits/dsp/fx/low_pass_gate.h **** // See http://creativecommons.org/licenses/MIT/ for more information.
  24:eurorack/plaits/dsp/fx/low_pass_gate.h **** //
  25:eurorack/plaits/dsp/fx/low_pass_gate.h **** // -----------------------------------------------------------------------------
  26:eurorack/plaits/dsp/fx/low_pass_gate.h **** //
ARM GAS  /var/folders/9s/8rp0_f2s1n31qbztm3b5_fdh0000gn/T//cc00qguF.s 			page 9


  27:eurorack/plaits/dsp/fx/low_pass_gate.h **** // Approximative low pass gate.
  28:eurorack/plaits/dsp/fx/low_pass_gate.h **** 
  29:eurorack/plaits/dsp/fx/low_pass_gate.h **** #ifndef PLAITS_DSP_FX_LOW_PASS_GATE_H_
  30:eurorack/plaits/dsp/fx/low_pass_gate.h **** #define PLAITS_DSP_FX_LOW_PASS_GATE_H_
  31:eurorack/plaits/dsp/fx/low_pass_gate.h **** 
  32:eurorack/plaits/dsp/fx/low_pass_gate.h **** #include <algorithm>
  33:eurorack/plaits/dsp/fx/low_pass_gate.h **** 
  34:eurorack/plaits/dsp/fx/low_pass_gate.h **** #include "stmlib/dsp/dsp.h"
  35:eurorack/plaits/dsp/fx/low_pass_gate.h **** #include "stmlib/dsp/filter.h"
  36:eurorack/plaits/dsp/fx/low_pass_gate.h **** #include "stmlib/dsp/parameter_interpolator.h"
  37:eurorack/plaits/dsp/fx/low_pass_gate.h **** 
  38:eurorack/plaits/dsp/fx/low_pass_gate.h **** namespace plaits {
  39:eurorack/plaits/dsp/fx/low_pass_gate.h ****   
  40:eurorack/plaits/dsp/fx/low_pass_gate.h **** class LowPassGate {
  41:eurorack/plaits/dsp/fx/low_pass_gate.h ****  public:
  42:eurorack/plaits/dsp/fx/low_pass_gate.h ****   LowPassGate() { }
  43:eurorack/plaits/dsp/fx/low_pass_gate.h ****   ~LowPassGate() { }
  44:eurorack/plaits/dsp/fx/low_pass_gate.h ****   
  45:eurorack/plaits/dsp/fx/low_pass_gate.h ****   void Init() {
 202              		.loc 4 45 8 view .LVU56
 203              	.LBB105:
  46:eurorack/plaits/dsp/fx/low_pass_gate.h ****     previous_gain_ = 0.0f;
 204              		.loc 4 46 5 view .LVU57
 205              	.LBB106:
 206              	.LBB107:
 207              	.LBB108:
 208              		.file 5 "eurorack/stmlib/dsp/filter.h"
   1:eurorack/stmlib/dsp/filter.h **** // Copyright 2014 Emilie Gillet.
   2:eurorack/stmlib/dsp/filter.h **** //
   3:eurorack/stmlib/dsp/filter.h **** // Author: Emilie Gillet (emilie.o.gillet@gmail.com)
   4:eurorack/stmlib/dsp/filter.h **** //
   5:eurorack/stmlib/dsp/filter.h **** // Permission is hereby granted, free of charge, to any person obtaining a copy
   6:eurorack/stmlib/dsp/filter.h **** // of this software and associated documentation files (the "Software"), to deal
   7:eurorack/stmlib/dsp/filter.h **** // in the Software without restriction, including without limitation the rights
   8:eurorack/stmlib/dsp/filter.h **** // to use, copy, modify, merge, publish, distribute, sublicense, and/or sell
   9:eurorack/stmlib/dsp/filter.h **** // copies of the Software, and to permit persons to whom the Software is
  10:eurorack/stmlib/dsp/filter.h **** // furnished to do so, subject to the following conditions:
  11:eurorack/stmlib/dsp/filter.h **** // 
  12:eurorack/stmlib/dsp/filter.h **** // The above copyright notice and this permission notice shall be included in
  13:eurorack/stmlib/dsp/filter.h **** // all copies or substantial portions of the Software.
  14:eurorack/stmlib/dsp/filter.h **** // 
  15:eurorack/stmlib/dsp/filter.h **** // THE SOFTWARE IS PROVIDED "AS IS", WITHOUT WARRANTY OF ANY KIND, EXPRESS OR
  16:eurorack/stmlib/dsp/filter.h **** // IMPLIED, INCLUDING BUT NOT LIMITED TO THE WARRANTIES OF MERCHANTABILITY,
  17:eurorack/stmlib/dsp/filter.h **** // FITNESS FOR A PARTICULAR PURPOSE AND NONINFRINGEMENT. IN NO EVENT SHALL THE
  18:eurorack/stmlib/dsp/filter.h **** // AUTHORS OR COPYRIGHT HOLDERS BE LIABLE FOR ANY CLAIM, DAMAGES OR OTHER
  19:eurorack/stmlib/dsp/filter.h **** // LIABILITY, WHETHER IN AN ACTION OF CONTRACT, TORT OR OTHERWISE, ARISING FROM,
  20:eurorack/stmlib/dsp/filter.h **** // OUT OF OR IN CONNECTION WITH THE SOFTWARE OR THE USE OR OTHER DEALINGS IN
  21:eurorack/stmlib/dsp/filter.h **** // THE SOFTWARE.
  22:eurorack/stmlib/dsp/filter.h **** // 
  23:eurorack/stmlib/dsp/filter.h **** // See http://creativecommons.org/licenses/MIT/ for more information.
  24:eurorack/stmlib/dsp/filter.h **** //
  25:eurorack/stmlib/dsp/filter.h **** // -----------------------------------------------------------------------------
  26:eurorack/stmlib/dsp/filter.h **** //
  27:eurorack/stmlib/dsp/filter.h **** // Zero-delay-feedback filters (one pole and SVF).
  28:eurorack/stmlib/dsp/filter.h **** // Naive SVF.
  29:eurorack/stmlib/dsp/filter.h **** 
  30:eurorack/stmlib/dsp/filter.h **** #ifndef STMLIB_DSP_FILTER_H_
ARM GAS  /var/folders/9s/8rp0_f2s1n31qbztm3b5_fdh0000gn/T//cc00qguF.s 			page 10


  31:eurorack/stmlib/dsp/filter.h **** #define STMLIB_DSP_FILTER_H_
  32:eurorack/stmlib/dsp/filter.h **** 
  33:eurorack/stmlib/dsp/filter.h **** #include "stmlib/stmlib.h"
  34:eurorack/stmlib/dsp/filter.h **** 
  35:eurorack/stmlib/dsp/filter.h **** #include <cmath>
  36:eurorack/stmlib/dsp/filter.h **** #include <algorithm>
  37:eurorack/stmlib/dsp/filter.h **** 
  38:eurorack/stmlib/dsp/filter.h **** namespace stmlib {
  39:eurorack/stmlib/dsp/filter.h **** 
  40:eurorack/stmlib/dsp/filter.h **** enum FilterMode {
  41:eurorack/stmlib/dsp/filter.h ****   FILTER_MODE_LOW_PASS,
  42:eurorack/stmlib/dsp/filter.h ****   FILTER_MODE_BAND_PASS,
  43:eurorack/stmlib/dsp/filter.h ****   FILTER_MODE_BAND_PASS_NORMALIZED,
  44:eurorack/stmlib/dsp/filter.h ****   FILTER_MODE_HIGH_PASS
  45:eurorack/stmlib/dsp/filter.h **** };
  46:eurorack/stmlib/dsp/filter.h **** 
  47:eurorack/stmlib/dsp/filter.h **** enum FrequencyApproximation {
  48:eurorack/stmlib/dsp/filter.h ****   FREQUENCY_EXACT,
  49:eurorack/stmlib/dsp/filter.h ****   FREQUENCY_ACCURATE,
  50:eurorack/stmlib/dsp/filter.h ****   FREQUENCY_FAST,
  51:eurorack/stmlib/dsp/filter.h ****   FREQUENCY_DIRTY
  52:eurorack/stmlib/dsp/filter.h **** };
  53:eurorack/stmlib/dsp/filter.h **** 
  54:eurorack/stmlib/dsp/filter.h **** #define M_PI_F float(M_PI)
  55:eurorack/stmlib/dsp/filter.h **** #define M_PI_POW_2 M_PI * M_PI
  56:eurorack/stmlib/dsp/filter.h **** #define M_PI_POW_3 M_PI_POW_2 * M_PI
  57:eurorack/stmlib/dsp/filter.h **** #define M_PI_POW_5 M_PI_POW_3 * M_PI_POW_2
  58:eurorack/stmlib/dsp/filter.h **** #define M_PI_POW_7 M_PI_POW_5 * M_PI_POW_2
  59:eurorack/stmlib/dsp/filter.h **** #define M_PI_POW_9 M_PI_POW_7 * M_PI_POW_2
  60:eurorack/stmlib/dsp/filter.h **** #define M_PI_POW_11 M_PI_POW_9 * M_PI_POW_2
  61:eurorack/stmlib/dsp/filter.h **** 
  62:eurorack/stmlib/dsp/filter.h **** class DCBlocker {
  63:eurorack/stmlib/dsp/filter.h ****  public:
  64:eurorack/stmlib/dsp/filter.h ****   DCBlocker() { }
  65:eurorack/stmlib/dsp/filter.h ****   ~DCBlocker() { }
  66:eurorack/stmlib/dsp/filter.h ****   
  67:eurorack/stmlib/dsp/filter.h ****   void Init(float pole) {
  68:eurorack/stmlib/dsp/filter.h ****     x_ = 0.0f;
  69:eurorack/stmlib/dsp/filter.h ****     y_ = 0.0f;
  70:eurorack/stmlib/dsp/filter.h ****     pole_ = pole;
  71:eurorack/stmlib/dsp/filter.h ****   }
  72:eurorack/stmlib/dsp/filter.h ****   
  73:eurorack/stmlib/dsp/filter.h ****   inline void Process(float* in_out, size_t size) {
  74:eurorack/stmlib/dsp/filter.h ****     float x = x_;
  75:eurorack/stmlib/dsp/filter.h ****     float y = y_;
  76:eurorack/stmlib/dsp/filter.h ****     const float pole = pole_;
  77:eurorack/stmlib/dsp/filter.h ****     while (size--) {
  78:eurorack/stmlib/dsp/filter.h ****       float old_x = x;
  79:eurorack/stmlib/dsp/filter.h ****       x = *in_out;
  80:eurorack/stmlib/dsp/filter.h ****       *in_out++ = y = y * pole + x - old_x;
  81:eurorack/stmlib/dsp/filter.h ****     }
  82:eurorack/stmlib/dsp/filter.h ****     x_ = x;
  83:eurorack/stmlib/dsp/filter.h ****     y_ = y;
  84:eurorack/stmlib/dsp/filter.h ****   }
  85:eurorack/stmlib/dsp/filter.h ****   
  86:eurorack/stmlib/dsp/filter.h ****  private:
  87:eurorack/stmlib/dsp/filter.h ****   float pole_;
ARM GAS  /var/folders/9s/8rp0_f2s1n31qbztm3b5_fdh0000gn/T//cc00qguF.s 			page 11


  88:eurorack/stmlib/dsp/filter.h ****   float x_;
  89:eurorack/stmlib/dsp/filter.h ****   float y_;
  90:eurorack/stmlib/dsp/filter.h **** };
  91:eurorack/stmlib/dsp/filter.h **** 
  92:eurorack/stmlib/dsp/filter.h **** class OnePole {
  93:eurorack/stmlib/dsp/filter.h ****  public:
  94:eurorack/stmlib/dsp/filter.h ****   OnePole() { }
  95:eurorack/stmlib/dsp/filter.h ****   ~OnePole() { }
  96:eurorack/stmlib/dsp/filter.h ****   
  97:eurorack/stmlib/dsp/filter.h ****   void Init() {
  98:eurorack/stmlib/dsp/filter.h ****     set_f<FREQUENCY_DIRTY>(0.01f);
  99:eurorack/stmlib/dsp/filter.h ****     Reset();
 100:eurorack/stmlib/dsp/filter.h ****   }
 101:eurorack/stmlib/dsp/filter.h ****   
 102:eurorack/stmlib/dsp/filter.h ****   void Reset() {
 103:eurorack/stmlib/dsp/filter.h ****     state_ = 0.0f;
 104:eurorack/stmlib/dsp/filter.h ****   }
 105:eurorack/stmlib/dsp/filter.h ****   
 106:eurorack/stmlib/dsp/filter.h ****   template<FrequencyApproximation approximation>
 107:eurorack/stmlib/dsp/filter.h ****   static inline float tan(float f) {
 108:eurorack/stmlib/dsp/filter.h ****     if (approximation == FREQUENCY_EXACT) {
 109:eurorack/stmlib/dsp/filter.h ****       // Clip coefficient to about 100.
 110:eurorack/stmlib/dsp/filter.h ****       f = f < 0.497f ? f : 0.497f;
 111:eurorack/stmlib/dsp/filter.h ****       return tanf(M_PI_F * f);
 112:eurorack/stmlib/dsp/filter.h ****     } else if (approximation == FREQUENCY_DIRTY) {
 113:eurorack/stmlib/dsp/filter.h ****       // Optimized for frequencies below 8kHz.
 114:eurorack/stmlib/dsp/filter.h ****       const float a = 3.736e-01f * M_PI_POW_3;
 115:eurorack/stmlib/dsp/filter.h ****       return f * (M_PI_F + a * f * f);
 116:eurorack/stmlib/dsp/filter.h ****     } else if (approximation == FREQUENCY_FAST) {
 117:eurorack/stmlib/dsp/filter.h ****       // The usual tangent approximation uses 3.1755e-01 and 2.033e-01, but
 118:eurorack/stmlib/dsp/filter.h ****       // the coefficients used here are optimized to minimize error for the
 119:eurorack/stmlib/dsp/filter.h ****       // 16Hz to 16kHz range, with a sample rate of 48kHz.
 120:eurorack/stmlib/dsp/filter.h ****       const float a = 3.260e-01f * M_PI_POW_3;
 121:eurorack/stmlib/dsp/filter.h ****       const float b = 1.823e-01f * M_PI_POW_5;
 122:eurorack/stmlib/dsp/filter.h ****       float f2 = f * f;
 123:eurorack/stmlib/dsp/filter.h ****       return f * (M_PI_F + f2 * (a + b * f2));
 124:eurorack/stmlib/dsp/filter.h ****     } else if (approximation == FREQUENCY_ACCURATE) {
 125:eurorack/stmlib/dsp/filter.h ****       // These coefficients don't need to be tweaked for the audio range.
 126:eurorack/stmlib/dsp/filter.h ****       const float a = 3.333314036e-01f * M_PI_POW_3;
 127:eurorack/stmlib/dsp/filter.h ****       const float b = 1.333923995e-01f * M_PI_POW_5;
 128:eurorack/stmlib/dsp/filter.h ****       const float c = 5.33740603e-02f * M_PI_POW_7;
 129:eurorack/stmlib/dsp/filter.h ****       const float d = 2.900525e-03f * M_PI_POW_9;
 130:eurorack/stmlib/dsp/filter.h ****       const float e = 9.5168091e-03f * M_PI_POW_11;
 131:eurorack/stmlib/dsp/filter.h ****       float f2 = f * f;
 132:eurorack/stmlib/dsp/filter.h ****       return f * (M_PI_F + f2 * (a + f2 * (b + f2 * (c + f2 * (d + f2 * e)))));
 133:eurorack/stmlib/dsp/filter.h ****     }
 134:eurorack/stmlib/dsp/filter.h ****   }
 135:eurorack/stmlib/dsp/filter.h ****   
 136:eurorack/stmlib/dsp/filter.h ****   // Set frequency and resonance from true units. Various approximations
 137:eurorack/stmlib/dsp/filter.h ****   // are available to avoid the cost of tanf.
 138:eurorack/stmlib/dsp/filter.h ****   template<FrequencyApproximation approximation>
 139:eurorack/stmlib/dsp/filter.h ****   inline void set_f(float f) {
 140:eurorack/stmlib/dsp/filter.h ****     g_ = tan<approximation>(f);
 141:eurorack/stmlib/dsp/filter.h ****     gi_ = 1.0f / (1.0f + g_);
 142:eurorack/stmlib/dsp/filter.h ****   }
 143:eurorack/stmlib/dsp/filter.h ****   
 144:eurorack/stmlib/dsp/filter.h ****   template<FilterMode mode>
ARM GAS  /var/folders/9s/8rp0_f2s1n31qbztm3b5_fdh0000gn/T//cc00qguF.s 			page 12


 145:eurorack/stmlib/dsp/filter.h ****   inline float Process(float in) {
 146:eurorack/stmlib/dsp/filter.h ****     float lp;
 147:eurorack/stmlib/dsp/filter.h ****     lp = (g_ * in + state_) * gi_;
 148:eurorack/stmlib/dsp/filter.h ****     state_ = g_ * (in - lp) + lp;
 149:eurorack/stmlib/dsp/filter.h **** 
 150:eurorack/stmlib/dsp/filter.h ****     if (mode == FILTER_MODE_LOW_PASS) {
 151:eurorack/stmlib/dsp/filter.h ****       return lp;
 152:eurorack/stmlib/dsp/filter.h ****     } else if (mode == FILTER_MODE_HIGH_PASS) {
 153:eurorack/stmlib/dsp/filter.h ****       return in - lp;
 154:eurorack/stmlib/dsp/filter.h ****     } else {
 155:eurorack/stmlib/dsp/filter.h ****       return 0.0f;
 156:eurorack/stmlib/dsp/filter.h ****     }
 157:eurorack/stmlib/dsp/filter.h ****   }
 158:eurorack/stmlib/dsp/filter.h ****   
 159:eurorack/stmlib/dsp/filter.h ****   template<FilterMode mode>
 160:eurorack/stmlib/dsp/filter.h ****   inline void Process(float* in_out, size_t size) {
 161:eurorack/stmlib/dsp/filter.h ****     while (size--) {
 162:eurorack/stmlib/dsp/filter.h ****       *in_out = Process<mode>(*in_out);
 163:eurorack/stmlib/dsp/filter.h ****       ++in_out;
 164:eurorack/stmlib/dsp/filter.h ****     }
 165:eurorack/stmlib/dsp/filter.h ****   }
 166:eurorack/stmlib/dsp/filter.h ****   
 167:eurorack/stmlib/dsp/filter.h ****  private:
 168:eurorack/stmlib/dsp/filter.h ****   float g_;
 169:eurorack/stmlib/dsp/filter.h ****   float gi_;
 170:eurorack/stmlib/dsp/filter.h ****   float state_;
 171:eurorack/stmlib/dsp/filter.h ****   
 172:eurorack/stmlib/dsp/filter.h ****   DISALLOW_COPY_AND_ASSIGN(OnePole);
 173:eurorack/stmlib/dsp/filter.h **** };
 174:eurorack/stmlib/dsp/filter.h **** 
 175:eurorack/stmlib/dsp/filter.h **** 
 176:eurorack/stmlib/dsp/filter.h **** 
 177:eurorack/stmlib/dsp/filter.h **** class Svf {
 178:eurorack/stmlib/dsp/filter.h ****  public:
 179:eurorack/stmlib/dsp/filter.h ****   Svf() { }
 180:eurorack/stmlib/dsp/filter.h ****   ~Svf() { }
 181:eurorack/stmlib/dsp/filter.h ****   
 182:eurorack/stmlib/dsp/filter.h ****   void Init() {
 183:eurorack/stmlib/dsp/filter.h ****     set_f_q<FREQUENCY_DIRTY>(0.01f, 100.0f);
 184:eurorack/stmlib/dsp/filter.h ****     Reset();
 185:eurorack/stmlib/dsp/filter.h ****   }
 186:eurorack/stmlib/dsp/filter.h ****   
 187:eurorack/stmlib/dsp/filter.h ****   void Reset() {
 188:eurorack/stmlib/dsp/filter.h ****     state_1_ = state_2_ = 0.0f;
 189:eurorack/stmlib/dsp/filter.h ****   }
 190:eurorack/stmlib/dsp/filter.h ****   
 191:eurorack/stmlib/dsp/filter.h ****   // Copy settings from another filter.
 192:eurorack/stmlib/dsp/filter.h ****   inline void set(const Svf& f) {
 193:eurorack/stmlib/dsp/filter.h ****     g_ = f.g();
 194:eurorack/stmlib/dsp/filter.h ****     r_ = f.r();
 195:eurorack/stmlib/dsp/filter.h ****     h_ = f.h();
 196:eurorack/stmlib/dsp/filter.h ****   }
 197:eurorack/stmlib/dsp/filter.h **** 
 198:eurorack/stmlib/dsp/filter.h ****   // Set all parameters from LUT.
 199:eurorack/stmlib/dsp/filter.h ****   inline void set_g_r_h(float g, float r, float h) {
 200:eurorack/stmlib/dsp/filter.h ****     g_ = g;
 201:eurorack/stmlib/dsp/filter.h ****     r_ = r;
ARM GAS  /var/folders/9s/8rp0_f2s1n31qbztm3b5_fdh0000gn/T//cc00qguF.s 			page 13


 202:eurorack/stmlib/dsp/filter.h ****     h_ = h;
 203:eurorack/stmlib/dsp/filter.h ****   }
 204:eurorack/stmlib/dsp/filter.h ****   
 205:eurorack/stmlib/dsp/filter.h ****   // Set frequency and resonance coefficients from LUT, adjust remaining
 206:eurorack/stmlib/dsp/filter.h ****   // parameter.
 207:eurorack/stmlib/dsp/filter.h ****   inline void set_g_r(float g, float r) {
 208:eurorack/stmlib/dsp/filter.h ****     g_ = g;
 209:eurorack/stmlib/dsp/filter.h ****     r_ = r;
 210:eurorack/stmlib/dsp/filter.h ****     h_ = 1.0f / (1.0f + r_ * g_ + g_ * g_);
 211:eurorack/stmlib/dsp/filter.h ****   }
 212:eurorack/stmlib/dsp/filter.h **** 
 213:eurorack/stmlib/dsp/filter.h ****   // Set frequency from LUT, resonance in true units, adjust the rest.
 214:eurorack/stmlib/dsp/filter.h ****   inline void set_g_q(float g, float resonance) {
 215:eurorack/stmlib/dsp/filter.h ****     g_ = g;
 216:eurorack/stmlib/dsp/filter.h ****     r_ = 1.0f / resonance;
 217:eurorack/stmlib/dsp/filter.h ****     h_ = 1.0f / (1.0f + r_ * g_ + g_ * g_);
 218:eurorack/stmlib/dsp/filter.h ****   }
 219:eurorack/stmlib/dsp/filter.h **** 
 220:eurorack/stmlib/dsp/filter.h ****   // Set frequency and resonance from true units. Various approximations
 221:eurorack/stmlib/dsp/filter.h ****   // are available to avoid the cost of tanf.
 222:eurorack/stmlib/dsp/filter.h ****   template<FrequencyApproximation approximation>
 223:eurorack/stmlib/dsp/filter.h ****   inline void set_f_q(float f, float resonance) {
 224:eurorack/stmlib/dsp/filter.h ****     g_ = OnePole::tan<approximation>(f);
 209              		.loc 5 224 8 is_stmt 0 view .LVU58
 210 0000 064A     		ldr	r2, .L10
 211              	.LBE108:
 212              	.LBE107:
 213              	.LBE106:
 214              		.loc 4 46 20 view .LVU59
 215 0002 0023     		movs	r3, #0
 216              	.LBB123:
 217              	.LBB113:
 218              	.LBB109:
 219              		.loc 5 224 8 view .LVU60
 220 0004 8260     		str	r2, [r0, #8]	@ float
 225:eurorack/stmlib/dsp/filter.h ****     r_ = 1.0f / resonance;
 221              		.loc 5 225 8 view .LVU61
 222 0006 064A     		ldr	r2, .L10+4
 223              	.LBE109:
 224              	.LBE113:
 225              	.LBE123:
 226              		.loc 4 46 20 view .LVU62
 227 0008 4360     		str	r3, [r0, #4]	@ float
  47:eurorack/plaits/dsp/fx/low_pass_gate.h ****     filter_.Init();
 228              		.loc 4 47 5 is_stmt 1 view .LVU63
 229              	.LVL19:
 230              	.LBB124:
 231              	.LBI106:
 182:eurorack/stmlib/dsp/filter.h ****     set_f_q<FREQUENCY_DIRTY>(0.01f, 100.0f);
 232              		.loc 5 182 8 view .LVU64
 233              	.LBE124:
 234              	.LBE105:
 235              	.LBE104:
 183:eurorack/stmlib/dsp/filter.h ****     Reset();
 236              		.loc 5 183 5 view .LVU65
 237              	.LBB131:
 238              	.LBB128:
ARM GAS  /var/folders/9s/8rp0_f2s1n31qbztm3b5_fdh0000gn/T//cc00qguF.s 			page 14


 239              	.LBB125:
 240              	.LBB114:
 241              	.LBI107:
 223:eurorack/stmlib/dsp/filter.h ****     g_ = OnePole::tan<approximation>(f);
 242              		.loc 5 223 15 view .LVU66
 243              	.LBB110:
 244              		.loc 5 225 8 is_stmt 0 view .LVU67
 245 000a C260     		str	r2, [r0, #12]	@ float
 246              	.LBE110:
 247              	.LBE114:
 248              	.LBB115:
 249              	.LBB116:
 188:eurorack/stmlib/dsp/filter.h ****   }
 250              		.loc 5 188 25 view .LVU68
 251 000c 8361     		str	r3, [r0, #24]	@ float
 252              	.LBE116:
 253              	.LBE115:
 254              	.LBB119:
 255              	.LBB111:
 226:eurorack/stmlib/dsp/filter.h ****     h_ = 1.0f / (1.0f + r_ * g_ + g_ * g_);
 256              		.loc 5 226 8 view .LVU69
 257 000e 054A     		ldr	r2, .L10+8
 258              	.LBE111:
 259              	.LBE119:
 260              	.LBB120:
 261              	.LBB117:
 188:eurorack/stmlib/dsp/filter.h ****   }
 262              		.loc 5 188 14 view .LVU70
 263 0010 4361     		str	r3, [r0, #20]	@ float
 264              	.LBE117:
 265              	.LBE120:
 266              	.LBE125:
 267              	.LBE128:
 268              	.LBE131:
 269              	.LBB132:
 270              	.LBB133:
 271              	.LBB134:
 272              		.file 6 "eurorack/stmlib/dsp/limiter.h"
   1:eurorack/stmlib/dsp/limiter.h **** // Copyright 2015 Emilie Gillet.
   2:eurorack/stmlib/dsp/limiter.h **** //
   3:eurorack/stmlib/dsp/limiter.h **** // Author: Emilie Gillet (emilie.o.gillet@gmail.com)
   4:eurorack/stmlib/dsp/limiter.h **** //
   5:eurorack/stmlib/dsp/limiter.h **** // Permission is hereby granted, free of charge, to any person obtaining a copy
   6:eurorack/stmlib/dsp/limiter.h **** // of this software and associated documentation files (the "Software"), to deal
   7:eurorack/stmlib/dsp/limiter.h **** // in the Software without restriction, including without limitation the rights
   8:eurorack/stmlib/dsp/limiter.h **** // to use, copy, modify, merge, publish, distribute, sublicense, and/or sell
   9:eurorack/stmlib/dsp/limiter.h **** // copies of the Software, and to permit persons to whom the Software is
  10:eurorack/stmlib/dsp/limiter.h **** // furnished to do so, subject to the following conditions:
  11:eurorack/stmlib/dsp/limiter.h **** // 
  12:eurorack/stmlib/dsp/limiter.h **** // The above copyright notice and this permission notice shall be included in
  13:eurorack/stmlib/dsp/limiter.h **** // all copies or substantial portions of the Software.
  14:eurorack/stmlib/dsp/limiter.h **** // 
  15:eurorack/stmlib/dsp/limiter.h **** // THE SOFTWARE IS PROVIDED "AS IS", WITHOUT WARRANTY OF ANY KIND, EXPRESS OR
  16:eurorack/stmlib/dsp/limiter.h **** // IMPLIED, INCLUDING BUT NOT LIMITED TO THE WARRANTIES OF MERCHANTABILITY,
  17:eurorack/stmlib/dsp/limiter.h **** // FITNESS FOR A PARTICULAR PURPOSE AND NONINFRINGEMENT. IN NO EVENT SHALL THE
  18:eurorack/stmlib/dsp/limiter.h **** // AUTHORS OR COPYRIGHT HOLDERS BE LIABLE FOR ANY CLAIM, DAMAGES OR OTHER
  19:eurorack/stmlib/dsp/limiter.h **** // LIABILITY, WHETHER IN AN ACTION OF CONTRACT, TORT OR OTHERWISE, ARISING FROM,
ARM GAS  /var/folders/9s/8rp0_f2s1n31qbztm3b5_fdh0000gn/T//cc00qguF.s 			page 15


  20:eurorack/stmlib/dsp/limiter.h **** // OUT OF OR IN CONNECTION WITH THE SOFTWARE OR THE USE OR OTHER DEALINGS IN
  21:eurorack/stmlib/dsp/limiter.h **** // THE SOFTWARE.
  22:eurorack/stmlib/dsp/limiter.h **** // 
  23:eurorack/stmlib/dsp/limiter.h **** // See http://creativecommons.org/licenses/MIT/ for more information.
  24:eurorack/stmlib/dsp/limiter.h **** //
  25:eurorack/stmlib/dsp/limiter.h **** // -----------------------------------------------------------------------------
  26:eurorack/stmlib/dsp/limiter.h **** //
  27:eurorack/stmlib/dsp/limiter.h **** // Limiter.
  28:eurorack/stmlib/dsp/limiter.h **** 
  29:eurorack/stmlib/dsp/limiter.h **** #ifndef STMLIB_DSP_LIMITER_H_
  30:eurorack/stmlib/dsp/limiter.h **** #define STMLIB_DSP_LIMITER_H_
  31:eurorack/stmlib/dsp/limiter.h **** 
  32:eurorack/stmlib/dsp/limiter.h **** #include "stmlib/stmlib.h"
  33:eurorack/stmlib/dsp/limiter.h **** 
  34:eurorack/stmlib/dsp/limiter.h **** #include <algorithm>
  35:eurorack/stmlib/dsp/limiter.h **** 
  36:eurorack/stmlib/dsp/limiter.h **** #include "stmlib/dsp/dsp.h"
  37:eurorack/stmlib/dsp/limiter.h **** #include "stmlib/dsp/filter.h"
  38:eurorack/stmlib/dsp/limiter.h **** 
  39:eurorack/stmlib/dsp/limiter.h **** namespace stmlib {
  40:eurorack/stmlib/dsp/limiter.h **** 
  41:eurorack/stmlib/dsp/limiter.h **** class Limiter {
  42:eurorack/stmlib/dsp/limiter.h ****  public:
  43:eurorack/stmlib/dsp/limiter.h ****   Limiter() { }
  44:eurorack/stmlib/dsp/limiter.h ****   ~Limiter() { }
  45:eurorack/stmlib/dsp/limiter.h **** 
  46:eurorack/stmlib/dsp/limiter.h ****   void Init() {
  47:eurorack/stmlib/dsp/limiter.h ****     peak_ = 0.5f;
 273              		.loc 6 47 11 view .LVU71
 274 0012 4FF07C53 		mov	r3, #1056964608
 275              	.LBE134:
 276              	.LBE133:
 277              	.LBE132:
 278              	.LBB137:
 279              	.LBB129:
 280              	.LBB126:
 281              	.LBB121:
 282              	.LBB112:
 283              		.loc 5 226 8 view .LVU72
 284 0016 0261     		str	r2, [r0, #16]	@ float
 285              	.LVL20:
 286              		.loc 5 226 8 view .LVU73
 287              	.LBE112:
 288              	.LBE121:
 289              	.LBE126:
 290              	.LBE129:
 291              	.LBE137:
 184:eurorack/stmlib/dsp/filter.h ****   }
 292              		.loc 5 184 5 is_stmt 1 view .LVU74
 293              	.LBB138:
 294              	.LBB130:
 295              	.LBB127:
 296              	.LBB122:
 297              	.LBI115:
 187:eurorack/stmlib/dsp/filter.h ****     state_1_ = state_2_ = 0.0f;
 298              		.loc 5 187 8 view .LVU75
 299              	.LBB118:
ARM GAS  /var/folders/9s/8rp0_f2s1n31qbztm3b5_fdh0000gn/T//cc00qguF.s 			page 16


 188:eurorack/stmlib/dsp/filter.h ****   }
 300              		.loc 5 188 5 view .LVU76
 188:eurorack/stmlib/dsp/filter.h ****   }
 301              		.loc 5 188 5 is_stmt 0 view .LVU77
 302              	.LBE118:
 303              	.LBE122:
 304              	.LBE127:
 305              	.LBE130:
 306              	.LBE138:
  73:eurorack/plaits/dsp/voice.h ****     Reset();
 307              		.loc 3 73 5 is_stmt 1 view .LVU78
 308              	.LBB139:
 309              	.LBI132:
  74:eurorack/plaits/dsp/voice.h ****   }
  75:eurorack/plaits/dsp/voice.h ****   
  76:eurorack/plaits/dsp/voice.h ****   void Reset() {
 310              		.loc 3 76 8 view .LVU79
 311              	.LBE139:
  77:eurorack/plaits/dsp/voice.h ****     limiter_.Init();
 312              		.loc 3 77 5 view .LVU80
 313              	.LBB140:
 314              	.LBB136:
 315              	.LBI133:
  46:eurorack/stmlib/dsp/limiter.h ****     peak_ = 0.5f;
 316              		.loc 6 46 8 view .LVU81
 317              	.LBB135:
 318              		.loc 6 47 5 view .LVU82
 319              		.loc 6 47 11 is_stmt 0 view .LVU83
 320 0018 0360     		str	r3, [r0]	@ float
 321              	.LVL21:
 322              		.loc 6 47 11 view .LVU84
 323              	.LBE135:
 324              	.LBE136:
 325              	.LBE140:
  74:eurorack/plaits/dsp/voice.h ****   }
 326              		.loc 3 74 3 view .LVU85
 327 001a 7047     		bx	lr
 328              	.L11:
 329              		.align	2
 330              	.L10:
 331 001c 22BA003D 		.word	1023457826
 332 0020 0AD7233C 		.word	1008981770
 333 0024 CAAA7F3F 		.word	1065331402
 334              		.cfi_endproc
 335              	.LFE2014:
 337              		.section	.text._ZN6plaits20ChannelPostProcessor7ProcessEfbfffPfPsjj,"axG",%progbits,_ZN6plaits20Ch
 338              		.align	1
 339              		.weak	_ZN6plaits20ChannelPostProcessor7ProcessEfbfffPfPsjj
 340              		.syntax unified
 341              		.thumb
 342              		.thumb_func
 344              	_ZN6plaits20ChannelPostProcessor7ProcessEfbfffPfPsjj:
 345              	.LVL22:
 346              	.LFB2016:
  78:eurorack/plaits/dsp/voice.h ****   }
  79:eurorack/plaits/dsp/voice.h ****   
  80:eurorack/plaits/dsp/voice.h ****   void Process(
ARM GAS  /var/folders/9s/8rp0_f2s1n31qbztm3b5_fdh0000gn/T//cc00qguF.s 			page 17


 347              		.loc 3 80 8 is_stmt 1 view -0
 348              		.cfi_startproc
 349              		@ args = 8, pretend = 0, frame = 0
 350              		@ frame_needed = 0, uses_anonymous_args = 0
  81:eurorack/plaits/dsp/voice.h ****       float gain,
  82:eurorack/plaits/dsp/voice.h ****       bool bypass_lpg,
  83:eurorack/plaits/dsp/voice.h ****       float low_pass_gate_gain,
  84:eurorack/plaits/dsp/voice.h ****       float low_pass_gate_frequency,
  85:eurorack/plaits/dsp/voice.h ****       float low_pass_gate_hf_bleed,
  86:eurorack/plaits/dsp/voice.h ****       float* in,
  87:eurorack/plaits/dsp/voice.h ****       short* out,
  88:eurorack/plaits/dsp/voice.h ****       size_t size,
  89:eurorack/plaits/dsp/voice.h ****       size_t stride) {
  90:eurorack/plaits/dsp/voice.h ****     if (gain < 0.0f) {
 351              		.loc 3 90 5 is_stmt 0 view .LVU87
 352 0000 B5EEC00A 		vcmpe.f32	s0, #0
  80:eurorack/plaits/dsp/voice.h ****       float gain,
 353              		.loc 3 80 8 view .LVU88
 354 0004 70B5     		push	{r4, r5, r6, lr}
 355              		.cfi_def_cfa_offset 16
 356              		.cfi_offset 4, -16
 357              		.cfi_offset 5, -12
 358              		.cfi_offset 6, -8
 359              		.cfi_offset 14, -4
 360              		.loc 3 90 5 view .LVU89
 361 0006 F1EE10FA 		vmrs	APSR_nzcv, FPSCR
  80:eurorack/plaits/dsp/voice.h ****       float gain,
 362              		.loc 3 80 8 view .LVU90
 363 000a 049C     		ldr	r4, [sp, #16]
 364              		.loc 3 90 5 is_stmt 1 view .LVU91
 365 000c 34D5     		bpl	.L13
  91:eurorack/plaits/dsp/voice.h ****       limiter_.Process(-gain, in, size);
 366              		.loc 3 91 7 view .LVU92
 367              		.loc 3 91 23 is_stmt 0 view .LVU93
 368 000e F1EE405A 		vneg.f32	s11, s0
 369              	.LVL23:
 370              	.LBB168:
 371              	.LBI168:
  48:eurorack/stmlib/dsp/limiter.h ****   }
  49:eurorack/stmlib/dsp/limiter.h **** 
  50:eurorack/stmlib/dsp/limiter.h ****   void Process(float pre_gain, float* in_out, size_t size) {
 372              		.loc 6 50 8 is_stmt 1 view .LVU94
 373              	.LBE168:
 374              		.loc 3 91 23 is_stmt 0 view .LVU95
 375 0012 2646     		mov	r6, r4
 376 0014 1546     		mov	r5, r2
 377              	.LVL24:
 378              	.L17:
 379              	.LBB174:
 380              	.LBB169:
  51:eurorack/stmlib/dsp/limiter.h ****     while (size--) {
 381              		.loc 6 51 5 is_stmt 1 view .LVU96
 382              		.loc 6 51 16 view .LVU97
 383 0016 013E     		subs	r6, r6, #1
 384              	.LVL25:
 385              		.loc 6 51 16 is_stmt 0 view .LVU98
 386 0018 B7EE000A 		vmov.f32	s0, #1.0e+0
ARM GAS  /var/folders/9s/8rp0_f2s1n31qbztm3b5_fdh0000gn/T//cc00qguF.s 			page 18


 387 001c B6F1FF3F 		cmp	r6, #-1
 388 0020 2AD0     		beq	.L13
 389              	.LBB170:
  52:eurorack/stmlib/dsp/limiter.h ****       float s = *in_out * pre_gain;
 390              		.loc 6 52 7 is_stmt 1 view .LVU99
 391              		.loc 6 52 13 is_stmt 0 view .LVU100
 392 0022 D5ED007A 		vldr.32	s15, [r5]
 393              	.LBB171:
  53:eurorack/stmlib/dsp/limiter.h ****       SLOPE(peak_, fabsf(s), 0.05f, 0.00002f);
 394              		.loc 6 53 7 view .LVU101
 395 0026 90ED007A 		vldr.32	s14, [r0]
 396              	.LBE171:
  52:eurorack/stmlib/dsp/limiter.h ****       float s = *in_out * pre_gain;
 397              		.loc 6 52 13 view .LVU102
 398 002a 65EEA77A 		vmul.f32	s15, s11, s15
 399              	.LVL26:
 400              		.loc 6 53 7 is_stmt 1 view .LVU103
 401              	.LBB172:
 402              		.loc 6 53 7 view .LVU104
 403 002e 9FED4E6A 		vldr.32	s12, .L33
 404 0032 9FED4E5A 		vldr.32	s10, .L33+4
 405 0036 F0EEE76A 		vabs.f32	s13, s15
 406 003a 76EEC76A 		vsub.f32	s13, s13, s14
 407              	.LVL27:
 408              		.loc 6 53 7 view .LVU105
 409 003e F5EEC06A 		vcmpe.f32	s13, #0
 410 0042 F1EE10FA 		vmrs	APSR_nzcv, FPSCR
 411 0046 36FE056A 		vselgt.f32	s12, s12, s10
 412 004a A6EE867A 		vfma.f32	s14, s13, s12
 413              	.LBE172:
  54:eurorack/stmlib/dsp/limiter.h ****       float gain = (peak_ <= 1.0f ? 1.0f : 1.0f / peak_);
 414              		.loc 6 54 35 is_stmt 0 view .LVU106
 415 004e B4EEC07A 		vcmpe.f32	s14, s0
 416              	.LBB173:
  53:eurorack/stmlib/dsp/limiter.h ****       SLOPE(peak_, fabsf(s), 0.05f, 0.00002f);
 417              		.loc 6 53 7 view .LVU107
 418 0052 80ED007A 		vstr.32	s14, [r0]
 419              	.LBE173:
  53:eurorack/stmlib/dsp/limiter.h ****       SLOPE(peak_, fabsf(s), 0.05f, 0.00002f);
 420              		.loc 6 53 46 is_stmt 1 view .LVU108
 421              		.loc 6 54 7 view .LVU109
 422              		.loc 6 54 35 is_stmt 0 view .LVU110
 423 0056 F1EE10FA 		vmrs	APSR_nzcv, FPSCR
 424 005a 88BF     		it	hi
 425 005c C0EE076A 		vdivhi.f32	s13, s0, s14
 426              	.LVL28:
  55:eurorack/stmlib/dsp/limiter.h ****       *in_out++ = s * gain * 0.8f;
 427              		.loc 6 55 28 view .LVU111
 428 0060 9FED437A 		vldr.32	s14, .L33+8
  54:eurorack/stmlib/dsp/limiter.h ****       float gain = (peak_ <= 1.0f ? 1.0f : 1.0f / peak_);
 429              		.loc 6 54 35 view .LVU112
 430 0064 98BF     		it	ls
 431 0066 F0EE406A 		vmovls.f32	s13, s0
 432              	.LVL29:
 433              		.loc 6 55 7 is_stmt 1 view .LVU113
 434              		.loc 6 55 21 is_stmt 0 view .LVU114
 435 006a 67EEA67A 		vmul.f32	s15, s15, s13
ARM GAS  /var/folders/9s/8rp0_f2s1n31qbztm3b5_fdh0000gn/T//cc00qguF.s 			page 19


 436              	.LVL30:
 437              		.loc 6 55 28 view .LVU115
 438 006e 67EE877A 		vmul.f32	s15, s15, s14
 439              		.loc 6 55 17 view .LVU116
 440 0072 E5EC017A 		vstmia.32	r5!, {s15}
 441              	.LVL31:
 442              		.loc 6 55 17 view .LVU117
 443              	.LBE170:
  51:eurorack/stmlib/dsp/limiter.h ****       float s = *in_out * pre_gain;
 444              		.loc 6 51 5 view .LVU118
 445 0076 CEE7     		b	.L17
 446              	.LVL32:
 447              	.L13:
  51:eurorack/stmlib/dsp/limiter.h ****       float s = *in_out * pre_gain;
 448              		.loc 6 51 5 view .LVU119
 449              	.LBE169:
 450              	.LBE174:
  92:eurorack/plaits/dsp/voice.h ****     }
  93:eurorack/plaits/dsp/voice.h ****     const float post_gain = (gain < 0.0f ? 1.0f : gain) * -32767.0f;
 451              		.loc 3 93 17 discriminator 4 view .LVU120
 452 0078 DFED3E7A 		vldr.32	s15, .L33+12
 453              	.LBB175:
 454              	.LBB176:
 455              	.LBB177:
  48:eurorack/plaits/dsp/fx/low_pass_gate.h ****   }
  49:eurorack/plaits/dsp/fx/low_pass_gate.h ****   
  50:eurorack/plaits/dsp/fx/low_pass_gate.h ****   void Process(
  51:eurorack/plaits/dsp/fx/low_pass_gate.h ****       float gain,
  52:eurorack/plaits/dsp/fx/low_pass_gate.h ****       float frequency,
  53:eurorack/plaits/dsp/fx/low_pass_gate.h ****       float hf_bleed,
  54:eurorack/plaits/dsp/fx/low_pass_gate.h ****       float* in_out,
  55:eurorack/plaits/dsp/fx/low_pass_gate.h ****       size_t size) {
  56:eurorack/plaits/dsp/fx/low_pass_gate.h ****     stmlib::ParameterInterpolator gain_modulation(&previous_gain_, gain, size);
  57:eurorack/plaits/dsp/fx/low_pass_gate.h ****     filter_.set_f_q<stmlib::FREQUENCY_DIRTY>(frequency, 0.4f);
  58:eurorack/plaits/dsp/fx/low_pass_gate.h ****     while (size--) {
  59:eurorack/plaits/dsp/fx/low_pass_gate.h ****       const float s = *in_out * gain_modulation.Next();
  60:eurorack/plaits/dsp/fx/low_pass_gate.h ****       const float lp = filter_.Process<stmlib::FILTER_MODE_LOW_PASS>(s);
  61:eurorack/plaits/dsp/fx/low_pass_gate.h ****       *in_out++ = lp + (s - lp) * hf_bleed;
  62:eurorack/plaits/dsp/fx/low_pass_gate.h ****     }
  63:eurorack/plaits/dsp/fx/low_pass_gate.h ****   }
  64:eurorack/plaits/dsp/fx/low_pass_gate.h ****   
  65:eurorack/plaits/dsp/fx/low_pass_gate.h ****   void Process(
  66:eurorack/plaits/dsp/fx/low_pass_gate.h ****       float gain,
  67:eurorack/plaits/dsp/fx/low_pass_gate.h ****       float frequency,
  68:eurorack/plaits/dsp/fx/low_pass_gate.h ****       float hf_bleed,
  69:eurorack/plaits/dsp/fx/low_pass_gate.h ****       float* in,
  70:eurorack/plaits/dsp/fx/low_pass_gate.h ****       short* out,
  71:eurorack/plaits/dsp/fx/low_pass_gate.h ****       size_t size,
  72:eurorack/plaits/dsp/fx/low_pass_gate.h ****       size_t stride) {
  73:eurorack/plaits/dsp/fx/low_pass_gate.h ****     stmlib::ParameterInterpolator gain_modulation(&previous_gain_, gain, size);
  74:eurorack/plaits/dsp/fx/low_pass_gate.h ****     filter_.set_f_q<stmlib::FREQUENCY_DIRTY>(frequency, 0.4f);
  75:eurorack/plaits/dsp/fx/low_pass_gate.h ****     while (size--) {
  76:eurorack/plaits/dsp/fx/low_pass_gate.h ****       const float s = *in++ * gain_modulation.Next();
  77:eurorack/plaits/dsp/fx/low_pass_gate.h ****       const float lp = filter_.Process<stmlib::FILTER_MODE_LOW_PASS>(s);
  78:eurorack/plaits/dsp/fx/low_pass_gate.h ****       *out = stmlib::Clip16(1 + static_cast<int32_t>(lp + (s - lp) * hf_bleed));
  79:eurorack/plaits/dsp/fx/low_pass_gate.h ****       out += stride;
 456              		.loc 4 79 11 discriminator 4 view .LVU121
ARM GAS  /var/folders/9s/8rp0_f2s1n31qbztm3b5_fdh0000gn/T//cc00qguF.s 			page 20


 457 007c 059D     		ldr	r5, [sp, #20]
 458              	.LBE177:
 459              	.LBE176:
 460              	.LBE175:
 461              		.loc 3 93 17 discriminator 4 view .LVU122
 462 007e 20EE270A 		vmul.f32	s0, s0, s15
 463              	.LVL33:
  94:eurorack/plaits/dsp/voice.h ****     if (!bypass_lpg) {
 464              		.loc 3 94 5 is_stmt 1 discriminator 4 view .LVU123
 465              	.LBB217:
 466              	.LBB214:
 467              	.LBB190:
 468              		.loc 4 79 11 is_stmt 0 discriminator 4 view .LVU124
 469 0082 6D00     		lsls	r5, r5, #1
 470              	.LBE190:
 471              	.LBE214:
 472              	.LBE217:
 473              		.loc 3 94 5 discriminator 4 view .LVU125
 474 0084 0029     		cmp	r1, #0
 475 0086 5ED1     		bne	.L18
  95:eurorack/plaits/dsp/voice.h ****       lpg_.Process(
 476              		.loc 3 95 7 is_stmt 1 view .LVU126
 477              	.LVL34:
 478              	.LBB218:
 479              	.LBI175:
  65:eurorack/plaits/dsp/fx/low_pass_gate.h ****       float gain,
 480              		.loc 4 65 8 view .LVU127
 481              	.LBB215:
  73:eurorack/plaits/dsp/fx/low_pass_gate.h ****     filter_.set_f_q<stmlib::FREQUENCY_DIRTY>(frequency, 0.4f);
 482              		.loc 4 73 5 view .LVU128
 483              	.LBB191:
 484              	.LBI191:
 485              		.file 7 "eurorack/stmlib/dsp/parameter_interpolator.h"
   1:eurorack/stmlib/dsp/parameter_interpolator.h **** // Copyright 2015 Emilie Gillet.
   2:eurorack/stmlib/dsp/parameter_interpolator.h **** //
   3:eurorack/stmlib/dsp/parameter_interpolator.h **** // Author: Emilie Gillet (emilie.o.gillet@gmail.com)
   4:eurorack/stmlib/dsp/parameter_interpolator.h **** //
   5:eurorack/stmlib/dsp/parameter_interpolator.h **** // Permission is hereby granted, free of charge, to any person obtaining a copy
   6:eurorack/stmlib/dsp/parameter_interpolator.h **** // of this software and associated documentation files (the "Software"), to deal
   7:eurorack/stmlib/dsp/parameter_interpolator.h **** // in the Software without restriction, including without limitation the rights
   8:eurorack/stmlib/dsp/parameter_interpolator.h **** // to use, copy, modify, merge, publish, distribute, sublicense, and/or sell
   9:eurorack/stmlib/dsp/parameter_interpolator.h **** // copies of the Software, and to permit persons to whom the Software is
  10:eurorack/stmlib/dsp/parameter_interpolator.h **** // furnished to do so, subject to the following conditions:
  11:eurorack/stmlib/dsp/parameter_interpolator.h **** // 
  12:eurorack/stmlib/dsp/parameter_interpolator.h **** // The above copyright notice and this permission notice shall be included in
  13:eurorack/stmlib/dsp/parameter_interpolator.h **** // all copies or substantial portions of the Software.
  14:eurorack/stmlib/dsp/parameter_interpolator.h **** // 
  15:eurorack/stmlib/dsp/parameter_interpolator.h **** // THE SOFTWARE IS PROVIDED "AS IS", WITHOUT WARRANTY OF ANY KIND, EXPRESS OR
  16:eurorack/stmlib/dsp/parameter_interpolator.h **** // IMPLIED, INCLUDING BUT NOT LIMITED TO THE WARRANTIES OF MERCHANTABILITY,
  17:eurorack/stmlib/dsp/parameter_interpolator.h **** // FITNESS FOR A PARTICULAR PURPOSE AND NONINFRINGEMENT. IN NO EVENT SHALL THE
  18:eurorack/stmlib/dsp/parameter_interpolator.h **** // AUTHORS OR COPYRIGHT HOLDERS BE LIABLE FOR ANY CLAIM, DAMAGES OR OTHER
  19:eurorack/stmlib/dsp/parameter_interpolator.h **** // LIABILITY, WHETHER IN AN ACTION OF CONTRACT, TORT OR OTHERWISE, ARISING FROM,
  20:eurorack/stmlib/dsp/parameter_interpolator.h **** // OUT OF OR IN CONNECTION WITH THE SOFTWARE OR THE USE OR OTHER DEALINGS IN
  21:eurorack/stmlib/dsp/parameter_interpolator.h **** // THE SOFTWARE.
  22:eurorack/stmlib/dsp/parameter_interpolator.h **** // 
  23:eurorack/stmlib/dsp/parameter_interpolator.h **** // See http://creativecommons.org/licenses/MIT/ for more information.
  24:eurorack/stmlib/dsp/parameter_interpolator.h **** //
ARM GAS  /var/folders/9s/8rp0_f2s1n31qbztm3b5_fdh0000gn/T//cc00qguF.s 			page 21


  25:eurorack/stmlib/dsp/parameter_interpolator.h **** // -----------------------------------------------------------------------------
  26:eurorack/stmlib/dsp/parameter_interpolator.h **** //
  27:eurorack/stmlib/dsp/parameter_interpolator.h **** // Linear interpolation of parameters in rendering loops.
  28:eurorack/stmlib/dsp/parameter_interpolator.h **** 
  29:eurorack/stmlib/dsp/parameter_interpolator.h **** #ifndef STMLIB_DSP_PARAMETER_INTERPOLATOR_H_
  30:eurorack/stmlib/dsp/parameter_interpolator.h **** #define STMLIB_DSP_PARAMETER_INTERPOLATOR_H_
  31:eurorack/stmlib/dsp/parameter_interpolator.h **** 
  32:eurorack/stmlib/dsp/parameter_interpolator.h **** #include "stmlib/stmlib.h"
  33:eurorack/stmlib/dsp/parameter_interpolator.h **** 
  34:eurorack/stmlib/dsp/parameter_interpolator.h **** namespace stmlib {
  35:eurorack/stmlib/dsp/parameter_interpolator.h **** 
  36:eurorack/stmlib/dsp/parameter_interpolator.h **** class ParameterInterpolator {
  37:eurorack/stmlib/dsp/parameter_interpolator.h ****  public:
  38:eurorack/stmlib/dsp/parameter_interpolator.h ****   ParameterInterpolator() { }
  39:eurorack/stmlib/dsp/parameter_interpolator.h ****   ParameterInterpolator(float* state, float new_value, size_t size) {
 486              		.loc 7 39 3 view .LVU129
 487              	.LBE191:
 488              	.LBE215:
 489              	.LBE218:
  40:eurorack/stmlib/dsp/parameter_interpolator.h ****     Init(state, new_value, size);
 490              		.loc 7 40 5 view .LVU130
 491              	.LBB219:
 492              	.LBB216:
 493              	.LBB198:
 494              	.LBB192:
 495              	.LBI192:
  41:eurorack/stmlib/dsp/parameter_interpolator.h ****   }
  42:eurorack/stmlib/dsp/parameter_interpolator.h **** 
  43:eurorack/stmlib/dsp/parameter_interpolator.h ****   ParameterInterpolator(float* state, float new_value, float step) {
  44:eurorack/stmlib/dsp/parameter_interpolator.h ****     state_ = state;
  45:eurorack/stmlib/dsp/parameter_interpolator.h ****     value_ = *state;
  46:eurorack/stmlib/dsp/parameter_interpolator.h ****     increment_ = (new_value - *state) * step;
  47:eurorack/stmlib/dsp/parameter_interpolator.h ****   }
  48:eurorack/stmlib/dsp/parameter_interpolator.h **** 
  49:eurorack/stmlib/dsp/parameter_interpolator.h ****   ~ParameterInterpolator() {
  50:eurorack/stmlib/dsp/parameter_interpolator.h ****     *state_ = value_;
  51:eurorack/stmlib/dsp/parameter_interpolator.h ****   }
  52:eurorack/stmlib/dsp/parameter_interpolator.h ****   
  53:eurorack/stmlib/dsp/parameter_interpolator.h ****   inline void Init(float* state, float new_value, size_t size) {
 496              		.loc 7 53 15 view .LVU131
 497              	.LBB193:
  54:eurorack/stmlib/dsp/parameter_interpolator.h ****     state_ = state;
 498              		.loc 7 54 5 view .LVU132
  55:eurorack/stmlib/dsp/parameter_interpolator.h ****     value_ = *state;
 499              		.loc 7 55 5 view .LVU133
 500              		.loc 7 55 14 is_stmt 0 view .LVU134
 501 0088 90ED016A 		vldr.32	s12, [r0, #4]
 502              	.LVL35:
  56:eurorack/stmlib/dsp/parameter_interpolator.h ****     increment_ = (new_value - *state) / static_cast<float>(size);
 503              		.loc 7 56 5 is_stmt 1 view .LVU135
 504              		.loc 7 56 41 is_stmt 0 view .LVU136
 505 008c 07EE904A 		vmov	s15, r4	@ int
 506              	.LBE193:
 507              	.LBE192:
 508              	.LBE198:
 509              	.LBB199:
 510              	.LBB200:
ARM GAS  /var/folders/9s/8rp0_f2s1n31qbztm3b5_fdh0000gn/T//cc00qguF.s 			page 22


 225:eurorack/stmlib/dsp/filter.h ****     h_ = 1.0f / (1.0f + r_ * g_ + g_ * g_);
 511              		.loc 5 225 8 view .LVU137
 512 0090 F0EE045A 		vmov.f32	s11, #2.5e+0
 513              	.LBE200:
 514              	.LBE199:
 515              	.LBB207:
 516              	.LBB196:
 517              	.LBB194:
 518              		.loc 7 56 29 view .LVU138
 519 0094 B0EE467A 		vmov.f32	s14, s12
 520              		.loc 7 56 41 view .LVU139
 521 0098 F8EE677A 		vcvt.f32.u32	s15, s15
 522              	.LBE194:
 523              	.LBE196:
 524              	.LBE207:
 525              	.LBB208:
 526              	.LBB205:
 225:eurorack/stmlib/dsp/filter.h ****     h_ = 1.0f / (1.0f + r_ * g_ + g_ * g_);
 527              		.loc 5 225 8 view .LVU140
 528 009c C0ED035A 		vstr.32	s11, [r0, #12]
 529              	.LBE205:
 530              	.LBE208:
 531              	.LBB209:
 532              	.LBB197:
 533              	.LBB195:
 534              		.loc 7 56 29 view .LVU141
 535 00a0 90EE207A 		vfnms.f32	s14, s0, s1
 536              		.loc 7 56 39 view .LVU142
 537 00a4 C7EE273A 		vdiv.f32	s7, s14, s15
 538              	.LVL36:
 539              		.loc 7 56 39 view .LVU143
 540              	.LBE195:
 541              	.LBE197:
 542              	.LBE209:
  74:eurorack/plaits/dsp/fx/low_pass_gate.h ****     while (size--) {
 543              		.loc 4 74 5 is_stmt 1 view .LVU144
 544              	.LBB210:
 545              	.LBI199:
 223:eurorack/stmlib/dsp/filter.h ****     g_ = OnePole::tan<approximation>(f);
 546              		.loc 5 223 15 view .LVU145
 547              	.LBB206:
 548              	.LBB201:
 549              	.LBI201:
 107:eurorack/stmlib/dsp/filter.h ****     if (approximation == FREQUENCY_EXACT) {
 550              		.loc 5 107 23 view .LVU146
 551              	.LBB202:
 115:eurorack/stmlib/dsp/filter.h ****     } else if (approximation == FREQUENCY_FAST) {
 552              		.loc 5 115 30 is_stmt 0 view .LVU147
 553 00a8 9FED337A 		vldr.32	s14, .L33+16
 115:eurorack/stmlib/dsp/filter.h ****     } else if (approximation == FREQUENCY_FAST) {
 554              		.loc 5 115 26 view .LVU148
 555 00ac DFED337A 		vldr.32	s15, .L33+20
 115:eurorack/stmlib/dsp/filter.h ****     } else if (approximation == FREQUENCY_FAST) {
 556              		.loc 5 115 30 view .LVU149
 557 00b0 21EE077A 		vmul.f32	s14, s2, s14
 115:eurorack/stmlib/dsp/filter.h ****     } else if (approximation == FREQUENCY_FAST) {
 558              		.loc 5 115 26 view .LVU150
ARM GAS  /var/folders/9s/8rp0_f2s1n31qbztm3b5_fdh0000gn/T//cc00qguF.s 			page 23


 559 00b4 E1EE077A 		vfma.f32	s15, s2, s14
 560              	.LBE202:
 561              	.LBE201:
 562              		.loc 5 226 23 view .LVU151
 563 00b8 B7EE007A 		vmov.f32	s14, #1.0e+0
 564              	.LBB204:
 565              	.LBB203:
 115:eurorack/stmlib/dsp/filter.h ****     } else if (approximation == FREQUENCY_FAST) {
 566              		.loc 5 115 37 view .LVU152
 567 00bc 21EE271A 		vmul.f32	s2, s2, s15
 568              	.LVL37:
 115:eurorack/stmlib/dsp/filter.h ****     } else if (approximation == FREQUENCY_FAST) {
 569              		.loc 5 115 37 view .LVU153
 570              	.LBE203:
 571              	.LBE204:
 572              		.loc 5 226 23 view .LVU154
 573 00c0 F0EE477A 		vmov.f32	s15, s14
 224:eurorack/stmlib/dsp/filter.h ****     r_ = 1.0f / resonance;
 574              		.loc 5 224 8 view .LVU155
 575 00c4 80ED021A 		vstr.32	s2, [r0, #8]
 576              		.loc 5 226 23 view .LVU156
 577 00c8 E1EE257A 		vfma.f32	s15, s2, s11
 578              		.loc 5 226 33 view .LVU157
 579 00cc E1EE017A 		vfma.f32	s15, s2, s2
 580              		.loc 5 226 15 view .LVU158
 581 00d0 C7EE274A 		vdiv.f32	s9, s14, s15
 582              		.loc 5 226 8 view .LVU159
 583 00d4 C0ED044A 		vstr.32	s9, [r0, #16]
 584              	.LVL38:
 585              	.L20:
 586              		.loc 5 226 8 view .LVU160
 587              	.LBE206:
 588              	.LBE210:
  75:eurorack/plaits/dsp/fx/low_pass_gate.h ****       const float s = *in++ * gain_modulation.Next();
 589              		.loc 4 75 5 is_stmt 1 view .LVU161
  75:eurorack/plaits/dsp/fx/low_pass_gate.h ****       const float s = *in++ * gain_modulation.Next();
 590              		.loc 4 75 16 view .LVU162
 591 00d8 013C     		subs	r4, r4, #1
 592              	.LVL39:
  75:eurorack/plaits/dsp/fx/low_pass_gate.h ****       const float s = *in++ * gain_modulation.Next();
 593              		.loc 4 75 16 is_stmt 0 view .LVU163
 594 00da 31D3     		bcc	.L19
 595              	.LBB211:
  76:eurorack/plaits/dsp/fx/low_pass_gate.h ****       const float lp = filter_.Process<stmlib::FILTER_MODE_LOW_PASS>(s);
 596              		.loc 4 76 7 is_stmt 1 view .LVU164
 597              	.LVL40:
 598              	.LBB178:
 599              	.LBB179:
 227:eurorack/stmlib/dsp/filter.h ****   }
 228:eurorack/stmlib/dsp/filter.h ****   
 229:eurorack/stmlib/dsp/filter.h ****   template<FilterMode mode>
 230:eurorack/stmlib/dsp/filter.h ****   inline float Process(float in) {
 231:eurorack/stmlib/dsp/filter.h ****     float hp, bp, lp;
 232:eurorack/stmlib/dsp/filter.h ****     hp = (in - r_ * state_1_ - g_ * state_1_ - state_2_) * h_;
 600              		.loc 5 232 21 is_stmt 0 view .LVU165
 601 00dc D0ED056A 		vldr.32	s13, [r0, #20]
 602              	.LBE179:
ARM GAS  /var/folders/9s/8rp0_f2s1n31qbztm3b5_fdh0000gn/T//cc00qguF.s 			page 24


 603              	.LBE178:
 604              	.LBB181:
 605              	.LBB182:
  57:eurorack/stmlib/dsp/parameter_interpolator.h ****   }
  58:eurorack/stmlib/dsp/parameter_interpolator.h **** 
  59:eurorack/stmlib/dsp/parameter_interpolator.h ****   inline float Next() {
  60:eurorack/stmlib/dsp/parameter_interpolator.h ****     value_ += increment_;
 606              		.loc 7 60 12 view .LVU166
 607 00e0 36EE236A 		vadd.f32	s12, s12, s7
 608              	.LVL41:
 609              		.loc 7 60 12 view .LVU167
 610              	.LBE182:
 611              	.LBE181:
  76:eurorack/plaits/dsp/fx/low_pass_gate.h ****       const float lp = filter_.Process<stmlib::FILTER_MODE_LOW_PASS>(s);
 612              		.loc 4 76 23 view .LVU168
 613 00e4 B2EC015A 		vldmia.32	r2!, {s10}
 614              	.LVL42:
 615              	.LBB184:
 616              	.LBI181:
  59:eurorack/stmlib/dsp/parameter_interpolator.h ****     value_ += increment_;
 617              		.loc 7 59 16 is_stmt 1 view .LVU169
 618              	.LBB183:
 619              		.loc 7 60 5 view .LVU170
  61:eurorack/stmlib/dsp/parameter_interpolator.h ****     return value_;
 620              		.loc 7 61 5 view .LVU171
 621              		.loc 7 61 5 is_stmt 0 view .LVU172
 622              	.LBE183:
 623              	.LBE184:
  77:eurorack/plaits/dsp/fx/low_pass_gate.h ****       *out = stmlib::Clip16(1 + static_cast<int32_t>(lp + (s - lp) * hf_bleed));
 624              		.loc 4 77 7 is_stmt 1 view .LVU173
 625              	.LBB185:
 626              	.LBI178:
 230:eurorack/stmlib/dsp/filter.h ****     float hp, bp, lp;
 627              		.loc 5 230 16 view .LVU174
 628              	.LBB180:
 629              		.loc 5 232 14 is_stmt 0 view .LVU175
 630 00e8 25EEE67A 		vnmul.f32	s14, s11, s13
 631              		.loc 5 232 48 view .LVU176
 632 00ec D0ED067A 		vldr.32	s15, [r0, #24]
 633              		.loc 5 232 14 view .LVU177
 634 00f0 A5EE067A 		vfma.f32	s14, s10, s12
 635              		.loc 5 232 30 view .LVU178
 636 00f4 A1EE667A 		vfms.f32	s14, s2, s13
 637              		.loc 5 232 46 view .LVU179
 638 00f8 37EE677A 		vsub.f32	s14, s14, s15
 639              		.loc 5 232 8 view .LVU180
 640 00fc 27EE247A 		vmul.f32	s14, s14, s9
 641              	.LVL43:
 233:eurorack/stmlib/dsp/filter.h ****     bp = g_ * hp + state_1_;
 642              		.loc 5 233 8 view .LVU181
 643 0100 E1EE076A 		vfma.f32	s13, s2, s14
 644              	.LVL44:
 234:eurorack/stmlib/dsp/filter.h ****     state_1_ = g_ * hp + bp;
 235:eurorack/stmlib/dsp/filter.h ****     lp = g_ * bp + state_2_;
 645              		.loc 5 235 8 view .LVU182
 646 0104 E1EE267A 		vfma.f32	s15, s2, s13
 647              	.LVL45:
ARM GAS  /var/folders/9s/8rp0_f2s1n31qbztm3b5_fdh0000gn/T//cc00qguF.s 			page 25


 234:eurorack/stmlib/dsp/filter.h ****     state_1_ = g_ * hp + bp;
 648              		.loc 5 234 24 view .LVU183
 649 0108 B0EE664A 		vmov.f32	s8, s13
 650 010c A1EE074A 		vfma.f32	s8, s2, s14
 236:eurorack/stmlib/dsp/filter.h ****     state_2_ = g_ * bp + lp;
 651              		.loc 5 236 24 view .LVU184
 652 0110 B0EE677A 		vmov.f32	s14, s15
 653              	.LVL46:
 654              		.loc 5 236 24 view .LVU185
 655 0114 A1EE267A 		vfma.f32	s14, s2, s13
 234:eurorack/stmlib/dsp/filter.h ****     state_1_ = g_ * hp + bp;
 656              		.loc 5 234 14 view .LVU186
 657 0118 80ED054A 		vstr.32	s8, [r0, #20]
 658              	.LVL47:
 659              		.loc 5 236 14 view .LVU187
 660 011c 80ED067A 		vstr.32	s14, [r0, #24]
 661              	.LVL48:
 662              		.loc 5 236 14 view .LVU188
 663              	.LBE180:
 664              	.LBE185:
  78:eurorack/plaits/dsp/fx/low_pass_gate.h ****       out += stride;
 665              		.loc 4 78 7 is_stmt 1 view .LVU189
  78:eurorack/plaits/dsp/fx/low_pass_gate.h ****       out += stride;
 666              		.loc 4 78 62 is_stmt 0 view .LVU190
 667 0120 B0EE677A 		vmov.f32	s14, s15
 668 0124 95EE067A 		vfnms.f32	s14, s10, s12
  78:eurorack/plaits/dsp/fx/low_pass_gate.h ****       out += stride;
 669              		.loc 4 78 57 view .LVU191
 670 0128 E1EE877A 		vfma.f32	s15, s3, s14
 671              	.LVL49:
 672              	.LBB186:
 673              	.LBI186:
 674              		.file 8 "eurorack/stmlib/dsp/dsp.h"
   1:eurorack/stmlib/dsp/dsp.h **** // Copyright 2012 Emilie Gillet.
   2:eurorack/stmlib/dsp/dsp.h **** //
   3:eurorack/stmlib/dsp/dsp.h **** // Author: Emilie Gillet (emilie.o.gillet@gmail.com)
   4:eurorack/stmlib/dsp/dsp.h **** //
   5:eurorack/stmlib/dsp/dsp.h **** // Permission is hereby granted, free of charge, to any person obtaining a copy
   6:eurorack/stmlib/dsp/dsp.h **** // of this software and associated documentation files (the "Software"), to deal
   7:eurorack/stmlib/dsp/dsp.h **** // in the Software without restriction, including without limitation the rights
   8:eurorack/stmlib/dsp/dsp.h **** // to use, copy, modify, merge, publish, distribute, sublicense, and/or sell
   9:eurorack/stmlib/dsp/dsp.h **** // copies of the Software, and to permit persons to whom the Software is
  10:eurorack/stmlib/dsp/dsp.h **** // furnished to do so, subject to the following conditions:
  11:eurorack/stmlib/dsp/dsp.h **** // 
  12:eurorack/stmlib/dsp/dsp.h **** // The above copyright notice and this permission notice shall be included in
  13:eurorack/stmlib/dsp/dsp.h **** // all copies or substantial portions of the Software.
  14:eurorack/stmlib/dsp/dsp.h **** // 
  15:eurorack/stmlib/dsp/dsp.h **** // THE SOFTWARE IS PROVIDED "AS IS", WITHOUT WARRANTY OF ANY KIND, EXPRESS OR
  16:eurorack/stmlib/dsp/dsp.h **** // IMPLIED, INCLUDING BUT NOT LIMITED TO THE WARRANTIES OF MERCHANTABILITY,
  17:eurorack/stmlib/dsp/dsp.h **** // FITNESS FOR A PARTICULAR PURPOSE AND NONINFRINGEMENT. IN NO EVENT SHALL THE
  18:eurorack/stmlib/dsp/dsp.h **** // AUTHORS OR COPYRIGHT HOLDERS BE LIABLE FOR ANY CLAIM, DAMAGES OR OTHER
  19:eurorack/stmlib/dsp/dsp.h **** // LIABILITY, WHETHER IN AN ACTION OF CONTRACT, TORT OR OTHERWISE, ARISING FROM,
  20:eurorack/stmlib/dsp/dsp.h **** // OUT OF OR IN CONNECTION WITH THE SOFTWARE OR THE USE OR OTHER DEALINGS IN
  21:eurorack/stmlib/dsp/dsp.h **** // THE SOFTWARE.
  22:eurorack/stmlib/dsp/dsp.h **** // 
  23:eurorack/stmlib/dsp/dsp.h **** // See http://creativecommons.org/licenses/MIT/ for more information.
  24:eurorack/stmlib/dsp/dsp.h **** //
ARM GAS  /var/folders/9s/8rp0_f2s1n31qbztm3b5_fdh0000gn/T//cc00qguF.s 			page 26


  25:eurorack/stmlib/dsp/dsp.h **** // -----------------------------------------------------------------------------
  26:eurorack/stmlib/dsp/dsp.h **** //
  27:eurorack/stmlib/dsp/dsp.h **** // DSP utility routines.
  28:eurorack/stmlib/dsp/dsp.h **** 
  29:eurorack/stmlib/dsp/dsp.h **** #ifndef STMLIB_UTILS_DSP_DSP_H_
  30:eurorack/stmlib/dsp/dsp.h **** #define STMLIB_UTILS_DSP_DSP_H_
  31:eurorack/stmlib/dsp/dsp.h **** 
  32:eurorack/stmlib/dsp/dsp.h **** #include "stmlib/stmlib.h"
  33:eurorack/stmlib/dsp/dsp.h **** 
  34:eurorack/stmlib/dsp/dsp.h **** #include <cmath>
  35:eurorack/stmlib/dsp/dsp.h **** #include <math.h>
  36:eurorack/stmlib/dsp/dsp.h **** 
  37:eurorack/stmlib/dsp/dsp.h **** namespace stmlib {
  38:eurorack/stmlib/dsp/dsp.h **** 
  39:eurorack/stmlib/dsp/dsp.h **** #define MAKE_INTEGRAL_FRACTIONAL(x) \
  40:eurorack/stmlib/dsp/dsp.h ****   int32_t x ## _integral = static_cast<int32_t>(x); \
  41:eurorack/stmlib/dsp/dsp.h ****   float x ## _fractional = x - static_cast<float>(x ## _integral);
  42:eurorack/stmlib/dsp/dsp.h **** 
  43:eurorack/stmlib/dsp/dsp.h **** inline float Interpolate(const float* table, float index, float size) {
  44:eurorack/stmlib/dsp/dsp.h ****   index *= size;
  45:eurorack/stmlib/dsp/dsp.h ****   MAKE_INTEGRAL_FRACTIONAL(index)
  46:eurorack/stmlib/dsp/dsp.h ****   float a = table[index_integral];
  47:eurorack/stmlib/dsp/dsp.h ****   float b = table[index_integral + 1];
  48:eurorack/stmlib/dsp/dsp.h ****   return a + (b - a) * index_fractional;
  49:eurorack/stmlib/dsp/dsp.h **** }
  50:eurorack/stmlib/dsp/dsp.h **** 
  51:eurorack/stmlib/dsp/dsp.h **** 
  52:eurorack/stmlib/dsp/dsp.h **** inline float InterpolateHermite(const float* table, float index, float size) {
  53:eurorack/stmlib/dsp/dsp.h ****   index *= size;
  54:eurorack/stmlib/dsp/dsp.h ****   MAKE_INTEGRAL_FRACTIONAL(index)
  55:eurorack/stmlib/dsp/dsp.h ****   const float xm1 = table[index_integral - 1];
  56:eurorack/stmlib/dsp/dsp.h ****   const float x0 = table[index_integral + 0];
  57:eurorack/stmlib/dsp/dsp.h ****   const float x1 = table[index_integral + 1];
  58:eurorack/stmlib/dsp/dsp.h ****   const float x2 = table[index_integral + 2];
  59:eurorack/stmlib/dsp/dsp.h ****   const float c = (x1 - xm1) * 0.5f;
  60:eurorack/stmlib/dsp/dsp.h ****   const float v = x0 - x1;
  61:eurorack/stmlib/dsp/dsp.h ****   const float w = c + v;
  62:eurorack/stmlib/dsp/dsp.h ****   const float a = w + v + (x2 - x0) * 0.5f;
  63:eurorack/stmlib/dsp/dsp.h ****   const float b_neg = w + a;
  64:eurorack/stmlib/dsp/dsp.h ****   const float f = index_fractional;
  65:eurorack/stmlib/dsp/dsp.h ****   return (((a * f) - b_neg) * f + c) * f + x0;
  66:eurorack/stmlib/dsp/dsp.h **** }
  67:eurorack/stmlib/dsp/dsp.h **** 
  68:eurorack/stmlib/dsp/dsp.h **** inline float InterpolateWrap(const float* table, float index, float size) {
  69:eurorack/stmlib/dsp/dsp.h ****   index -= static_cast<float>(static_cast<int32_t>(index));
  70:eurorack/stmlib/dsp/dsp.h ****   index *= size;
  71:eurorack/stmlib/dsp/dsp.h ****   MAKE_INTEGRAL_FRACTIONAL(index)
  72:eurorack/stmlib/dsp/dsp.h ****   float a = table[index_integral];
  73:eurorack/stmlib/dsp/dsp.h ****   float b = table[index_integral + 1];
  74:eurorack/stmlib/dsp/dsp.h ****   return a + (b - a) * index_fractional;
  75:eurorack/stmlib/dsp/dsp.h **** }
  76:eurorack/stmlib/dsp/dsp.h **** 
  77:eurorack/stmlib/dsp/dsp.h **** inline float SmoothStep(float value) {
  78:eurorack/stmlib/dsp/dsp.h ****   return value * value * (3.0f - 2.0f * value);
  79:eurorack/stmlib/dsp/dsp.h **** }
  80:eurorack/stmlib/dsp/dsp.h **** 
  81:eurorack/stmlib/dsp/dsp.h **** #define ONE_POLE(out, in, coefficient) out += (coefficient) * ((in) - out);
ARM GAS  /var/folders/9s/8rp0_f2s1n31qbztm3b5_fdh0000gn/T//cc00qguF.s 			page 27


  82:eurorack/stmlib/dsp/dsp.h **** #define SLOPE(out, in, positive, negative) { \
  83:eurorack/stmlib/dsp/dsp.h ****   float error = (in) - out; \
  84:eurorack/stmlib/dsp/dsp.h ****   out += (error > 0 ? positive : negative) * error; \
  85:eurorack/stmlib/dsp/dsp.h **** }
  86:eurorack/stmlib/dsp/dsp.h **** #define SLEW(out, in, delta) { \
  87:eurorack/stmlib/dsp/dsp.h ****   float error = (in) - out; \
  88:eurorack/stmlib/dsp/dsp.h ****   float d = (delta); \
  89:eurorack/stmlib/dsp/dsp.h ****   if (error > d) { \
  90:eurorack/stmlib/dsp/dsp.h ****     error = d; \
  91:eurorack/stmlib/dsp/dsp.h ****   } else if (error < -d) { \
  92:eurorack/stmlib/dsp/dsp.h ****     error = -d; \
  93:eurorack/stmlib/dsp/dsp.h ****   } \
  94:eurorack/stmlib/dsp/dsp.h ****   out += error; \
  95:eurorack/stmlib/dsp/dsp.h **** }
  96:eurorack/stmlib/dsp/dsp.h **** 
  97:eurorack/stmlib/dsp/dsp.h **** inline float Crossfade(float a, float b, float fade) {
  98:eurorack/stmlib/dsp/dsp.h ****   return a + (b - a) * fade;
  99:eurorack/stmlib/dsp/dsp.h **** }
 100:eurorack/stmlib/dsp/dsp.h **** 
 101:eurorack/stmlib/dsp/dsp.h **** inline float SoftLimit(float x) {
 102:eurorack/stmlib/dsp/dsp.h ****   return x * (27.0f + x * x) / (27.0f + 9.0f * x * x);
 103:eurorack/stmlib/dsp/dsp.h **** }
 104:eurorack/stmlib/dsp/dsp.h **** 
 105:eurorack/stmlib/dsp/dsp.h **** inline float SoftClip(float x) {
 106:eurorack/stmlib/dsp/dsp.h ****   if (x < -3.0f) {
 107:eurorack/stmlib/dsp/dsp.h ****     return -1.0f;
 108:eurorack/stmlib/dsp/dsp.h ****   } else if (x > 3.0f) {
 109:eurorack/stmlib/dsp/dsp.h ****     return 1.0f;
 110:eurorack/stmlib/dsp/dsp.h ****   } else {
 111:eurorack/stmlib/dsp/dsp.h ****     return SoftLimit(x);
 112:eurorack/stmlib/dsp/dsp.h ****   }
 113:eurorack/stmlib/dsp/dsp.h **** }
 114:eurorack/stmlib/dsp/dsp.h **** 
 115:eurorack/stmlib/dsp/dsp.h **** #ifdef TEST
 116:eurorack/stmlib/dsp/dsp.h ****   inline int32_t Clip16(int32_t x) {
 117:eurorack/stmlib/dsp/dsp.h ****     if (x < -32768) {
 118:eurorack/stmlib/dsp/dsp.h ****       return -32768;
 119:eurorack/stmlib/dsp/dsp.h ****     } else if (x > 32767) {
 120:eurorack/stmlib/dsp/dsp.h ****       return 32767;
 121:eurorack/stmlib/dsp/dsp.h ****     } else {
 122:eurorack/stmlib/dsp/dsp.h ****       return x;
 123:eurorack/stmlib/dsp/dsp.h ****     }
 124:eurorack/stmlib/dsp/dsp.h ****   }
 125:eurorack/stmlib/dsp/dsp.h ****   inline uint16_t ClipU16(int32_t x) {
 126:eurorack/stmlib/dsp/dsp.h ****     if (x < 0) {
 127:eurorack/stmlib/dsp/dsp.h ****       return 0;
 128:eurorack/stmlib/dsp/dsp.h ****     } else if (x > 65535) {
 129:eurorack/stmlib/dsp/dsp.h ****       return 65535;
 130:eurorack/stmlib/dsp/dsp.h ****     } else {
 131:eurorack/stmlib/dsp/dsp.h ****       return x;
 132:eurorack/stmlib/dsp/dsp.h ****     }
 133:eurorack/stmlib/dsp/dsp.h ****   }
 134:eurorack/stmlib/dsp/dsp.h **** #else
 135:eurorack/stmlib/dsp/dsp.h ****   inline int32_t Clip16(int32_t x) {
 675              		.loc 8 135 18 is_stmt 1 view .LVU192
 676              	.LBB187:
 136:eurorack/stmlib/dsp/dsp.h ****     int32_t result;
ARM GAS  /var/folders/9s/8rp0_f2s1n31qbztm3b5_fdh0000gn/T//cc00qguF.s 			page 28


 677              		.loc 8 136 5 view .LVU193
 137:eurorack/stmlib/dsp/dsp.h ****     __asm ("ssat %0, %1, %2" : "=r" (result) :  "I" (16), "r" (x) );
 678              		.loc 8 137 5 view .LVU194
 679              	.LBE187:
 680              	.LBE186:
  78:eurorack/plaits/dsp/fx/low_pass_gate.h ****       out += stride;
 681              		.loc 4 78 33 is_stmt 0 view .LVU195
 682 012c FDEEE77A 		vcvt.s32.f32	s15, s15
 683              	.LVL50:
  78:eurorack/plaits/dsp/fx/low_pass_gate.h ****       out += stride;
 684              		.loc 4 78 33 view .LVU196
 685 0130 17EE901A 		vmov	r1, s15	@ int
  78:eurorack/plaits/dsp/fx/low_pass_gate.h ****       out += stride;
 686              		.loc 4 78 28 view .LVU197
 687 0134 0131     		adds	r1, r1, #1
 688              	.LBB189:
 689              	.LBB188:
 690              		.loc 8 137 5 view .LVU198
 691              		.syntax unified
 692              	@ 137 "eurorack/stmlib/dsp/dsp.h" 1
 693 0136 01F30F01 		ssat r1, #16, r1
 694              	@ 0 "" 2
 695              	.LVL51:
 138:eurorack/stmlib/dsp/dsp.h ****     return result;
 696              		.loc 8 138 5 is_stmt 1 view .LVU199
 697              		.loc 8 138 5 is_stmt 0 view .LVU200
 698              		.thumb
 699              		.syntax unified
 700              	.LBE188:
 701              	.LBE189:
  78:eurorack/plaits/dsp/fx/low_pass_gate.h ****       out += stride;
 702              		.loc 4 78 12 view .LVU201
 703 013a 1980     		strh	r1, [r3]	@ movhi
 704              		.loc 4 79 7 is_stmt 1 view .LVU202
 705              		.loc 4 79 11 is_stmt 0 view .LVU203
 706 013c 2B44     		add	r3, r3, r5
 707              	.LVL52:
 708              		.loc 4 79 11 view .LVU204
 709              	.LBE211:
  75:eurorack/plaits/dsp/fx/low_pass_gate.h ****       const float s = *in++ * gain_modulation.Next();
 710              		.loc 4 75 5 view .LVU205
 711 013e CBE7     		b	.L20
 712              	.LVL53:
 713              	.L19:
 714              	.LBB212:
 715              	.LBI212:
  49:eurorack/stmlib/dsp/parameter_interpolator.h ****     *state_ = value_;
 716              		.loc 7 49 3 is_stmt 1 view .LVU206
 717              	.LBB213:
  50:eurorack/stmlib/dsp/parameter_interpolator.h ****   }
 718              		.loc 7 50 5 view .LVU207
  50:eurorack/stmlib/dsp/parameter_interpolator.h ****   }
 719              		.loc 7 50 13 is_stmt 0 view .LVU208
 720 0140 80ED016A 		vstr.32	s12, [r0, #4]
 721              	.LVL54:
 722              	.L12:
  50:eurorack/stmlib/dsp/parameter_interpolator.h ****   }
ARM GAS  /var/folders/9s/8rp0_f2s1n31qbztm3b5_fdh0000gn/T//cc00qguF.s 			page 29


 723              		.loc 7 50 13 view .LVU209
 724              	.LBE213:
 725              	.LBE212:
 726              	.LBE216:
 727              	.LBE219:
  96:eurorack/plaits/dsp/voice.h ****           post_gain * low_pass_gate_gain,
  97:eurorack/plaits/dsp/voice.h ****           low_pass_gate_frequency,
  98:eurorack/plaits/dsp/voice.h ****           low_pass_gate_hf_bleed,
  99:eurorack/plaits/dsp/voice.h ****           in,
 100:eurorack/plaits/dsp/voice.h ****           out,
 101:eurorack/plaits/dsp/voice.h ****           size,
 102:eurorack/plaits/dsp/voice.h ****           stride);
 103:eurorack/plaits/dsp/voice.h ****     } else {
 104:eurorack/plaits/dsp/voice.h ****       while (size--) {
 105:eurorack/plaits/dsp/voice.h ****         *out = stmlib::Clip16(1 + static_cast<int32_t>(*in++ * post_gain));
 106:eurorack/plaits/dsp/voice.h ****         out += stride;
 107:eurorack/plaits/dsp/voice.h ****       }
 108:eurorack/plaits/dsp/voice.h ****     }
 109:eurorack/plaits/dsp/voice.h ****   }
 728              		.loc 3 109 3 view .LVU210
 729 0144 70BD     		pop	{r4, r5, r6, pc}
 730              	.LVL55:
 731              	.L18:
 104:eurorack/plaits/dsp/voice.h ****         *out = stmlib::Clip16(1 + static_cast<int32_t>(*in++ * post_gain));
 732              		.loc 3 104 7 is_stmt 1 view .LVU211
 104:eurorack/plaits/dsp/voice.h ****         *out = stmlib::Clip16(1 + static_cast<int32_t>(*in++ * post_gain));
 733              		.loc 3 104 18 view .LVU212
 734 0146 013C     		subs	r4, r4, #1
 735              	.LVL56:
 104:eurorack/plaits/dsp/voice.h ****         *out = stmlib::Clip16(1 + static_cast<int32_t>(*in++ * post_gain));
 736              		.loc 3 104 18 is_stmt 0 view .LVU213
 737 0148 FCD3     		bcc	.L12
 105:eurorack/plaits/dsp/voice.h ****         out += stride;
 738              		.loc 3 105 9 is_stmt 1 view .LVU214
 739              	.LVL57:
 740              	.LBB220:
 741              	.LBI220:
 135:eurorack/stmlib/dsp/dsp.h ****     int32_t result;
 742              		.loc 8 135 18 view .LVU215
 743              	.LBB221:
 136:eurorack/stmlib/dsp/dsp.h ****     __asm ("ssat %0, %1, %2" : "=r" (result) :  "I" (16), "r" (x) );
 744              		.loc 8 136 5 view .LVU216
 137:eurorack/stmlib/dsp/dsp.h ****     return result;
 745              		.loc 8 137 5 view .LVU217
 746              	.LBE221:
 747              	.LBE220:
 105:eurorack/plaits/dsp/voice.h ****         out += stride;
 748              		.loc 3 105 62 is_stmt 0 view .LVU218
 749 014a F2EC017A 		vldmia.32	r2!, {s15}
 750              	.LVL58:
 105:eurorack/plaits/dsp/voice.h ****         out += stride;
 751              		.loc 3 105 62 view .LVU219
 752 014e 60EE277A 		vmul.f32	s15, s0, s15
 105:eurorack/plaits/dsp/voice.h ****         out += stride;
 753              		.loc 3 105 35 view .LVU220
 754 0152 FDEEE77A 		vcvt.s32.f32	s15, s15
 755 0156 17EE901A 		vmov	r1, s15	@ int
ARM GAS  /var/folders/9s/8rp0_f2s1n31qbztm3b5_fdh0000gn/T//cc00qguF.s 			page 30


 105:eurorack/plaits/dsp/voice.h ****         out += stride;
 756              		.loc 3 105 30 view .LVU221
 757 015a 0131     		adds	r1, r1, #1
 758              	.LBB223:
 759              	.LBB222:
 137:eurorack/stmlib/dsp/dsp.h ****     return result;
 760              		.loc 8 137 5 view .LVU222
 761              		.syntax unified
 762              	@ 137 "eurorack/stmlib/dsp/dsp.h" 1
 763 015c 01F30F01 		ssat r1, #16, r1
 764              	@ 0 "" 2
 765              	.LVL59:
 766              		.loc 8 138 5 is_stmt 1 view .LVU223
 767              		.loc 8 138 5 is_stmt 0 view .LVU224
 768              		.thumb
 769              		.syntax unified
 770              	.LBE222:
 771              	.LBE223:
 105:eurorack/plaits/dsp/voice.h ****         out += stride;
 772              		.loc 3 105 14 view .LVU225
 773 0160 1980     		strh	r1, [r3]	@ movhi
 106:eurorack/plaits/dsp/voice.h ****       }
 774              		.loc 3 106 9 is_stmt 1 view .LVU226
 106:eurorack/plaits/dsp/voice.h ****       }
 775              		.loc 3 106 13 is_stmt 0 view .LVU227
 776 0162 2B44     		add	r3, r3, r5
 777              	.LVL60:
 104:eurorack/plaits/dsp/voice.h ****         *out = stmlib::Clip16(1 + static_cast<int32_t>(*in++ * post_gain));
 778              		.loc 3 104 7 view .LVU228
 779 0164 EFE7     		b	.L18
 780              	.L34:
 781 0166 00BF     		.align	2
 782              	.L33:
 783 0168 CDCC4C3D 		.word	1028443341
 784 016c ACC5A737 		.word	933741996
 785 0170 CDCC4C3F 		.word	1061997773
 786 0174 00FEFFC6 		.word	-956301824
 787 0178 D7573941 		.word	1094277079
 788 017c DB0F4940 		.word	1078530011
 789              		.cfi_endproc
 790              	.LFE2016:
 792              		.section	.text._ZN6plaits5Voice6RenderERKNS_5PatchERKNS_11ModulationsEPNS0_5FrameEj,"ax",%progbits
 793              		.align	1
 794              		.global	_ZN6plaits5Voice6RenderERKNS_5PatchERKNS_11ModulationsEPNS0_5FrameEj
 795              		.syntax unified
 796              		.thumb
 797              		.thumb_func
 799              	_ZN6plaits5Voice6RenderERKNS_5PatchERKNS_11ModulationsEPNS0_5FrameEj:
 800              	.LVL61:
 801              	.LFB2027:
 802              		.file 9 "eurorack/plaits/dsp/voice.cc"
   1:eurorack/plaits/dsp/voice.cc **** // Copyright 2016 Emilie Gillet.
   2:eurorack/plaits/dsp/voice.cc **** //
   3:eurorack/plaits/dsp/voice.cc **** // Author: Emilie Gillet (emilie.o.gillet@gmail.com)
   4:eurorack/plaits/dsp/voice.cc **** //
   5:eurorack/plaits/dsp/voice.cc **** // Permission is hereby granted, free of charge, to any person obtaining a copy
   6:eurorack/plaits/dsp/voice.cc **** // of this software and associated documentation files (the "Software"), to deal
ARM GAS  /var/folders/9s/8rp0_f2s1n31qbztm3b5_fdh0000gn/T//cc00qguF.s 			page 31


   7:eurorack/plaits/dsp/voice.cc **** // in the Software without restriction, including without limitation the rights
   8:eurorack/plaits/dsp/voice.cc **** // to use, copy, modify, merge, publish, distribute, sublicense, and/or sell
   9:eurorack/plaits/dsp/voice.cc **** // copies of the Software, and to permit persons to whom the Software is
  10:eurorack/plaits/dsp/voice.cc **** // furnished to do so, subject to the following conditions:
  11:eurorack/plaits/dsp/voice.cc **** // 
  12:eurorack/plaits/dsp/voice.cc **** // The above copyright notice and this permission notice shall be included in
  13:eurorack/plaits/dsp/voice.cc **** // all copies or substantial portions of the Software.
  14:eurorack/plaits/dsp/voice.cc **** // 
  15:eurorack/plaits/dsp/voice.cc **** // THE SOFTWARE IS PROVIDED "AS IS", WITHOUT WARRANTY OF ANY KIND, EXPRESS OR
  16:eurorack/plaits/dsp/voice.cc **** // IMPLIED, INCLUDING BUT NOT LIMITED TO THE WARRANTIES OF MERCHANTABILITY,
  17:eurorack/plaits/dsp/voice.cc **** // FITNESS FOR A PARTICULAR PURPOSE AND NONINFRINGEMENT. IN NO EVENT SHALL THE
  18:eurorack/plaits/dsp/voice.cc **** // AUTHORS OR COPYRIGHT HOLDERS BE LIABLE FOR ANY CLAIM, DAMAGES OR OTHER
  19:eurorack/plaits/dsp/voice.cc **** // LIABILITY, WHETHER IN AN ACTION OF CONTRACT, TORT OR OTHERWISE, ARISING FROM,
  20:eurorack/plaits/dsp/voice.cc **** // OUT OF OR IN CONNECTION WITH THE SOFTWARE OR THE USE OR OTHER DEALINGS IN
  21:eurorack/plaits/dsp/voice.cc **** // THE SOFTWARE.
  22:eurorack/plaits/dsp/voice.cc **** // 
  23:eurorack/plaits/dsp/voice.cc **** // See http://creativecommons.org/licenses/MIT/ for more information.
  24:eurorack/plaits/dsp/voice.cc **** //
  25:eurorack/plaits/dsp/voice.cc **** // -----------------------------------------------------------------------------
  26:eurorack/plaits/dsp/voice.cc **** //
  27:eurorack/plaits/dsp/voice.cc **** // Main synthesis voice.
  28:eurorack/plaits/dsp/voice.cc **** 
  29:eurorack/plaits/dsp/voice.cc **** #include "plaits/dsp/voice.h"
  30:eurorack/plaits/dsp/voice.cc **** 
  31:eurorack/plaits/dsp/voice.cc **** namespace plaits {
  32:eurorack/plaits/dsp/voice.cc **** 
  33:eurorack/plaits/dsp/voice.cc **** using namespace std;
  34:eurorack/plaits/dsp/voice.cc **** using namespace stmlib;
  35:eurorack/plaits/dsp/voice.cc **** 
  36:eurorack/plaits/dsp/voice.cc **** void Voice::Init(BufferAllocator* allocator) {
  37:eurorack/plaits/dsp/voice.cc ****   engines_.Init();
  38:eurorack/plaits/dsp/voice.cc ****   engines_.RegisterInstance(&virtual_analog_engine_, false, 0.8f, 0.8f);
  39:eurorack/plaits/dsp/voice.cc ****   engines_.RegisterInstance(&waveshaping_engine_, false, 0.7f, 0.6f);
  40:eurorack/plaits/dsp/voice.cc ****   engines_.RegisterInstance(&fm_engine_, false, 0.6f, 0.6f);
  41:eurorack/plaits/dsp/voice.cc ****   engines_.RegisterInstance(&grain_engine_, false, 0.7f, 0.6f);
  42:eurorack/plaits/dsp/voice.cc ****   engines_.RegisterInstance(&additive_engine_, false, 0.8f, 0.8f);
  43:eurorack/plaits/dsp/voice.cc ****   //engines_.RegisterInstance(&wavetable_engine_, false, 0.6f, 0.6f);  // bad
  44:eurorack/plaits/dsp/voice.cc ****   //engines_.RegisterInstance(&chord_engine_, false, 0.8f, 0.8f);       // bad
  45:eurorack/plaits/dsp/voice.cc ****   //engines_.RegisterInstance(&speech_engine_, false, -0.7f, 0.8f);
  46:eurorack/plaits/dsp/voice.cc **** 
  47:eurorack/plaits/dsp/voice.cc ****   engines_.RegisterInstance(&swarm_engine_, false, -3.0f, 1.0f);
  48:eurorack/plaits/dsp/voice.cc ****   engines_.RegisterInstance(&noise_engine_, false, -1.0f, -1.0f);
  49:eurorack/plaits/dsp/voice.cc ****   engines_.RegisterInstance(&particle_engine_, false, -2.0f, 1.0f);
  50:eurorack/plaits/dsp/voice.cc ****   engines_.RegisterInstance(&string_engine_, true, -1.0f, 0.8f);
  51:eurorack/plaits/dsp/voice.cc ****   engines_.RegisterInstance(&modal_engine_, true, -1.0f, 0.8f);
  52:eurorack/plaits/dsp/voice.cc ****   engines_.RegisterInstance(&bass_drum_engine_, true, 0.8f, 0.8f);
  53:eurorack/plaits/dsp/voice.cc ****   engines_.RegisterInstance(&snare_drum_engine_, true, 0.8f, 0.8f);
  54:eurorack/plaits/dsp/voice.cc ****   engines_.RegisterInstance(&hi_hat_engine_, true, 0.8f, 0.8f);
  55:eurorack/plaits/dsp/voice.cc ****   for (int i = 0; i < engines_.size(); ++i) {
  56:eurorack/plaits/dsp/voice.cc ****     // All engines will share the same RAM space.
  57:eurorack/plaits/dsp/voice.cc ****     allocator->Free();
  58:eurorack/plaits/dsp/voice.cc ****     engines_.get(i)->Init(allocator);
  59:eurorack/plaits/dsp/voice.cc ****   }
  60:eurorack/plaits/dsp/voice.cc ****   
  61:eurorack/plaits/dsp/voice.cc ****   engine_quantizer_.Init();
  62:eurorack/plaits/dsp/voice.cc ****   previous_engine_index_ = -1;
  63:eurorack/plaits/dsp/voice.cc ****   engine_cv_ = 0.0f;
ARM GAS  /var/folders/9s/8rp0_f2s1n31qbztm3b5_fdh0000gn/T//cc00qguF.s 			page 32


  64:eurorack/plaits/dsp/voice.cc ****   
  65:eurorack/plaits/dsp/voice.cc ****   out_post_processor_.Init();
  66:eurorack/plaits/dsp/voice.cc ****   aux_post_processor_.Init();
  67:eurorack/plaits/dsp/voice.cc **** 
  68:eurorack/plaits/dsp/voice.cc ****   decay_envelope_.Init();
  69:eurorack/plaits/dsp/voice.cc ****   lpg_envelope_.Init();
  70:eurorack/plaits/dsp/voice.cc ****   
  71:eurorack/plaits/dsp/voice.cc ****   trigger_state_ = false;
  72:eurorack/plaits/dsp/voice.cc ****   previous_note_ = 0.0f;
  73:eurorack/plaits/dsp/voice.cc ****   
  74:eurorack/plaits/dsp/voice.cc ****   trigger_delay_.Init(trigger_delay_line_);
  75:eurorack/plaits/dsp/voice.cc **** }
  76:eurorack/plaits/dsp/voice.cc **** 
  77:eurorack/plaits/dsp/voice.cc **** void Voice::Render(
  78:eurorack/plaits/dsp/voice.cc ****     const Patch& patch,
  79:eurorack/plaits/dsp/voice.cc ****     const Modulations& modulations,
  80:eurorack/plaits/dsp/voice.cc ****     Frame* frames,
  81:eurorack/plaits/dsp/voice.cc ****     size_t size) {
 803              		.loc 9 81 18 is_stmt 1 view -0
 804              		.cfi_startproc
 805              		@ args = 4, pretend = 0, frame = 48
 806              		@ frame_needed = 0, uses_anonymous_args = 0
  82:eurorack/plaits/dsp/voice.cc ****   // Trigger, LPG, internal envelope.
  83:eurorack/plaits/dsp/voice.cc ****       
  84:eurorack/plaits/dsp/voice.cc ****   // Delay trigger by 1ms to deal with sequencers or MIDI interfaces whose
  85:eurorack/plaits/dsp/voice.cc ****   // CV out lags behind the GATE out.
  86:eurorack/plaits/dsp/voice.cc ****   trigger_delay_.Write(modulations.trigger);
 807              		.loc 9 86 3 view .LVU230
  81:eurorack/plaits/dsp/voice.cc ****   // Trigger, LPG, internal envelope.
 808              		.loc 9 81 18 is_stmt 0 view .LVU231
 809 0000 2DE9F04F 		push	{r4, r5, r6, r7, r8, r9, r10, fp, lr}
 810              		.cfi_def_cfa_offset 36
 811              		.cfi_offset 4, -36
 812              		.cfi_offset 5, -32
 813              		.cfi_offset 6, -28
 814              		.cfi_offset 7, -24
 815              		.cfi_offset 8, -20
 816              		.cfi_offset 9, -16
 817              		.cfi_offset 10, -12
 818              		.cfi_offset 11, -8
 819              		.cfi_offset 14, -4
 820 0004 0446     		mov	r4, r0
 821 0006 1546     		mov	r5, r2
 822              		.loc 9 86 36 view .LVU232
 823 0008 9069     		ldr	r0, [r2, #24]	@ float
 824              	.LVL62:
 825              	.LBB276:
 826              	.LBI276:
 827              		.file 10 "eurorack/plaits/dsp/physical_modelling/delay_line.h"
   1:eurorack/plaits/dsp/physical_modelling/delay_line.h **** // Copyright 2014 Emilie Gillet.
   2:eurorack/plaits/dsp/physical_modelling/delay_line.h **** //
   3:eurorack/plaits/dsp/physical_modelling/delay_line.h **** // Author: Emilie Gillet (emilie.o.gillet@gmail.com)
   4:eurorack/plaits/dsp/physical_modelling/delay_line.h **** //
   5:eurorack/plaits/dsp/physical_modelling/delay_line.h **** // Permission is hereby granted, free of charge, to any person obtaining a copy
   6:eurorack/plaits/dsp/physical_modelling/delay_line.h **** // of this software and associated documentation files (the "Software"), to deal
   7:eurorack/plaits/dsp/physical_modelling/delay_line.h **** // in the Software without restriction, including without limitation the rights
   8:eurorack/plaits/dsp/physical_modelling/delay_line.h **** // to use, copy, modify, merge, publish, distribute, sublicense, and/or sell
ARM GAS  /var/folders/9s/8rp0_f2s1n31qbztm3b5_fdh0000gn/T//cc00qguF.s 			page 33


   9:eurorack/plaits/dsp/physical_modelling/delay_line.h **** // copies of the Software, and to permit persons to whom the Software is
  10:eurorack/plaits/dsp/physical_modelling/delay_line.h **** // furnished to do so, subject to the following conditions:
  11:eurorack/plaits/dsp/physical_modelling/delay_line.h **** // 
  12:eurorack/plaits/dsp/physical_modelling/delay_line.h **** // The above copyright notice and this permission notice shall be included in
  13:eurorack/plaits/dsp/physical_modelling/delay_line.h **** // all copies or substantial portions of the Software.
  14:eurorack/plaits/dsp/physical_modelling/delay_line.h **** // 
  15:eurorack/plaits/dsp/physical_modelling/delay_line.h **** // THE SOFTWARE IS PROVIDED "AS IS", WITHOUT WARRANTY OF ANY KIND, EXPRESS OR
  16:eurorack/plaits/dsp/physical_modelling/delay_line.h **** // IMPLIED, INCLUDING BUT NOT LIMITED TO THE WARRANTIES OF MERCHANTABILITY,
  17:eurorack/plaits/dsp/physical_modelling/delay_line.h **** // FITNESS FOR A PARTICULAR PURPOSE AND NONINFRINGEMENT. IN NO EVENT SHALL THE
  18:eurorack/plaits/dsp/physical_modelling/delay_line.h **** // AUTHORS OR COPYRIGHT HOLDERS BE LIABLE FOR ANY CLAIM, DAMAGES OR OTHER
  19:eurorack/plaits/dsp/physical_modelling/delay_line.h **** // LIABILITY, WHETHER IN AN ACTION OF CONTRACT, TORT OR OTHERWISE, ARISING FROM,
  20:eurorack/plaits/dsp/physical_modelling/delay_line.h **** // OUT OF OR IN CONNECTION WITH THE SOFTWARE OR THE USE OR OTHER DEALINGS IN
  21:eurorack/plaits/dsp/physical_modelling/delay_line.h **** // THE SOFTWARE.
  22:eurorack/plaits/dsp/physical_modelling/delay_line.h **** // 
  23:eurorack/plaits/dsp/physical_modelling/delay_line.h **** // See http://creativecommons.org/licenses/MIT/ for more information.
  24:eurorack/plaits/dsp/physical_modelling/delay_line.h **** //
  25:eurorack/plaits/dsp/physical_modelling/delay_line.h **** // -----------------------------------------------------------------------------
  26:eurorack/plaits/dsp/physical_modelling/delay_line.h **** //
  27:eurorack/plaits/dsp/physical_modelling/delay_line.h **** // Delay line (same implementation as from stmlib, but does not own its buffer).
  28:eurorack/plaits/dsp/physical_modelling/delay_line.h **** 
  29:eurorack/plaits/dsp/physical_modelling/delay_line.h **** #ifndef PLAITS_DSP_PHYSICAL_MODELLING_DELAY_LINE_H_
  30:eurorack/plaits/dsp/physical_modelling/delay_line.h **** #define PLAITS_DSP_PHYSICAL_MODELLING_DELAY_LINE_H_
  31:eurorack/plaits/dsp/physical_modelling/delay_line.h **** 
  32:eurorack/plaits/dsp/physical_modelling/delay_line.h **** #include <algorithm>
  33:eurorack/plaits/dsp/physical_modelling/delay_line.h **** 
  34:eurorack/plaits/dsp/physical_modelling/delay_line.h **** #include "stmlib/dsp/dsp.h"
  35:eurorack/plaits/dsp/physical_modelling/delay_line.h **** 
  36:eurorack/plaits/dsp/physical_modelling/delay_line.h **** namespace plaits {
  37:eurorack/plaits/dsp/physical_modelling/delay_line.h **** 
  38:eurorack/plaits/dsp/physical_modelling/delay_line.h **** template<typename T, size_t max_delay>
  39:eurorack/plaits/dsp/physical_modelling/delay_line.h **** class DelayLine {
  40:eurorack/plaits/dsp/physical_modelling/delay_line.h ****  public:
  41:eurorack/plaits/dsp/physical_modelling/delay_line.h ****   DelayLine() { }
  42:eurorack/plaits/dsp/physical_modelling/delay_line.h ****   ~DelayLine() { }
  43:eurorack/plaits/dsp/physical_modelling/delay_line.h ****   
  44:eurorack/plaits/dsp/physical_modelling/delay_line.h ****   void Init(float* buffer) {
  45:eurorack/plaits/dsp/physical_modelling/delay_line.h ****     line_ = buffer;
  46:eurorack/plaits/dsp/physical_modelling/delay_line.h ****     Reset();
  47:eurorack/plaits/dsp/physical_modelling/delay_line.h ****   }
  48:eurorack/plaits/dsp/physical_modelling/delay_line.h ****   
  49:eurorack/plaits/dsp/physical_modelling/delay_line.h ****   void Reset() {
  50:eurorack/plaits/dsp/physical_modelling/delay_line.h ****     std::fill(&line_[0], &line_[max_delay], T(0));
  51:eurorack/plaits/dsp/physical_modelling/delay_line.h ****     write_ptr_ = 0;
  52:eurorack/plaits/dsp/physical_modelling/delay_line.h ****   }
  53:eurorack/plaits/dsp/physical_modelling/delay_line.h ****   
  54:eurorack/plaits/dsp/physical_modelling/delay_line.h ****   inline void Write(const T sample) {
 828              		.loc 10 54 15 is_stmt 1 view .LVU233
 829              	.LBE276:
  81:eurorack/plaits/dsp/voice.cc ****   // Trigger, LPG, internal envelope.
 830              		.loc 9 81 18 is_stmt 0 view .LVU234
 831 000a 0E46     		mov	r6, r1
 832              	.LBB280:
 833              	.LBB277:
  55:eurorack/plaits/dsp/physical_modelling/delay_line.h ****     line_[write_ptr_] = sample;
 834              		.loc 10 55 5 view .LVU235
 835 000c D4F8702C 		ldr	r2, [r4, #3184]
 836              	.LVL63:
ARM GAS  /var/folders/9s/8rp0_f2s1n31qbztm3b5_fdh0000gn/T//cc00qguF.s 			page 34


 837              		.loc 10 55 5 view .LVU236
 838 0010 04F6344A 		addw	r10, r4, #3124
 839              	.LBE277:
 840              	.LBE280:
  87:eurorack/plaits/dsp/voice.cc ****   float trigger_value = trigger_delay_.Read(kTriggerDelay);
  88:eurorack/plaits/dsp/voice.cc ****   
  89:eurorack/plaits/dsp/voice.cc ****   bool previous_trigger_state = trigger_state_;
 841              		.loc 9 89 8 view .LVU237
 842 0014 94F8309C 		ldrb	r9, [r4, #3120]	@ zero_extendqisi2
  81:eurorack/plaits/dsp/voice.cc ****   // Trigger, LPG, internal envelope.
 843              		.loc 9 81 18 view .LVU238
 844 0018 2DED088B 		vpush.64	{d8, d9, d10, d11}
 845              		.cfi_def_cfa_offset 68
 846              		.cfi_offset 80, -68
 847              		.cfi_offset 81, -64
 848              		.cfi_offset 82, -60
 849              		.cfi_offset 83, -56
 850              		.cfi_offset 84, -52
 851              		.cfi_offset 85, -48
 852              		.cfi_offset 86, -44
 853              		.cfi_offset 87, -40
 854 001c 8FB0     		sub	sp, sp, #60
 855              		.cfi_def_cfa_offset 128
 856              	.LBB281:
 857              	.LBB282:
  56:eurorack/plaits/dsp/physical_modelling/delay_line.h ****     write_ptr_ = (write_ptr_ - 1 + max_delay) % max_delay;
  57:eurorack/plaits/dsp/physical_modelling/delay_line.h ****   }
  58:eurorack/plaits/dsp/physical_modelling/delay_line.h ****   
  59:eurorack/plaits/dsp/physical_modelling/delay_line.h ****   inline const T Allpass(const T sample, size_t delay, const T coefficient) {
  60:eurorack/plaits/dsp/physical_modelling/delay_line.h ****     T read = line_[(write_ptr_ + delay) % max_delay];
  61:eurorack/plaits/dsp/physical_modelling/delay_line.h ****     T write = sample + coefficient * read;
  62:eurorack/plaits/dsp/physical_modelling/delay_line.h ****     Write(write);
  63:eurorack/plaits/dsp/physical_modelling/delay_line.h ****     return -write * coefficient + read;
  64:eurorack/plaits/dsp/physical_modelling/delay_line.h ****   }
  65:eurorack/plaits/dsp/physical_modelling/delay_line.h **** 
  66:eurorack/plaits/dsp/physical_modelling/delay_line.h ****   inline const T WriteRead(const T sample, float delay) {
  67:eurorack/plaits/dsp/physical_modelling/delay_line.h ****     Write(sample);
  68:eurorack/plaits/dsp/physical_modelling/delay_line.h ****     return Read(delay);
  69:eurorack/plaits/dsp/physical_modelling/delay_line.h ****   }
  70:eurorack/plaits/dsp/physical_modelling/delay_line.h ****   
  71:eurorack/plaits/dsp/physical_modelling/delay_line.h ****   inline const T Read(float delay) const {
  72:eurorack/plaits/dsp/physical_modelling/delay_line.h ****     MAKE_INTEGRAL_FRACTIONAL(delay)
  73:eurorack/plaits/dsp/physical_modelling/delay_line.h ****     const T a = line_[(write_ptr_ + delay_integral) % max_delay];
  74:eurorack/plaits/dsp/physical_modelling/delay_line.h ****     const T b = line_[(write_ptr_ + delay_integral + 1) % max_delay];
  75:eurorack/plaits/dsp/physical_modelling/delay_line.h ****     return a + (b - a) * T(delay_fractional);
 858              		.loc 10 75 44 view .LVU239
 859 001e 9FEDE1BA 		vldr.32	s22, .L115
 860 0022 F7EE008A 		vmov.f32	s17, #1.0e+0
 861 0026 DFEDE0AA 		vldr.32	s21, .L115+4
 862              	.LBE282:
 863              	.LBE281:
  81:eurorack/plaits/dsp/voice.cc ****   // Trigger, LPG, internal envelope.
 864              		.loc 9 81 18 view .LVU240
 865 002a 0293     		str	r3, [sp, #8]
 866              	.LBB285:
 867              	.LBB278:
  55:eurorack/plaits/dsp/physical_modelling/delay_line.h ****     write_ptr_ = (write_ptr_ - 1 + max_delay) % max_delay;
ARM GAS  /var/folders/9s/8rp0_f2s1n31qbztm3b5_fdh0000gn/T//cc00qguF.s 			page 35


 868              		.loc 10 55 11 view .LVU241
 869 002c D4F86C3C 		ldr	r3, [r4, #3180]
 870              	.LVL64:
  55:eurorack/plaits/dsp/physical_modelling/delay_line.h ****     write_ptr_ = (write_ptr_ - 1 + max_delay) % max_delay;
 871              		.loc 10 55 23 view .LVU242
 872 0030 02EB8301 		add	r1, r2, r3, lsl #2
 873              	.LVL65:
  56:eurorack/plaits/dsp/physical_modelling/delay_line.h ****     write_ptr_ = (write_ptr_ - 1 + max_delay) % max_delay;
 874              		.loc 10 56 34 view .LVU243
 875 0034 0733     		adds	r3, r3, #7
  56:eurorack/plaits/dsp/physical_modelling/delay_line.h ****     write_ptr_ = (write_ptr_ - 1 + max_delay) % max_delay;
 876              		.loc 10 56 47 view .LVU244
 877 0036 03F00703 		and	r3, r3, #7
  55:eurorack/plaits/dsp/physical_modelling/delay_line.h ****     write_ptr_ = (write_ptr_ - 1 + max_delay) % max_delay;
 878              		.loc 10 55 23 view .LVU245
 879 003a 0860     		str	r0, [r1]	@ float
 880              	.LBE278:
 881              	.LBE285:
 882              	.LBB286:
 883              	.LBB283:
  73:eurorack/plaits/dsp/physical_modelling/delay_line.h ****     const T b = line_[(write_ptr_ + delay_integral + 1) % max_delay];
 884              		.loc 10 73 35 view .LVU246
 885 003c 591D     		adds	r1, r3, #5
 886              	.LBE283:
 887              	.LBE286:
 888              	.LBB287:
 889              	.LBB279:
  56:eurorack/plaits/dsp/physical_modelling/delay_line.h ****     write_ptr_ = (write_ptr_ - 1 + max_delay) % max_delay;
 890              		.loc 10 56 16 view .LVU247
 891 003e C4F86C3C 		str	r3, [r4, #3180]
 892              	.LVL66:
  56:eurorack/plaits/dsp/physical_modelling/delay_line.h ****     write_ptr_ = (write_ptr_ - 1 + max_delay) % max_delay;
 893              		.loc 10 56 16 view .LVU248
 894              	.LBE279:
 895              	.LBE287:
  87:eurorack/plaits/dsp/voice.cc ****   
 896              		.loc 9 87 3 is_stmt 1 view .LVU249
 897              	.LBB288:
 898              	.LBI281:
  71:eurorack/plaits/dsp/physical_modelling/delay_line.h ****     MAKE_INTEGRAL_FRACTIONAL(delay)
 899              		.loc 10 71 18 view .LVU250
 900              	.LBB284:
  74:eurorack/plaits/dsp/physical_modelling/delay_line.h ****     return a + (b - a) * T(delay_fractional);
 901              		.loc 10 74 52 is_stmt 0 view .LVU251
 902 0042 0633     		adds	r3, r3, #6
  73:eurorack/plaits/dsp/physical_modelling/delay_line.h ****     const T b = line_[(write_ptr_ + delay_integral + 1) % max_delay];
 903              		.loc 10 73 53 view .LVU252
 904 0044 01F00701 		and	r1, r1, #7
  74:eurorack/plaits/dsp/physical_modelling/delay_line.h ****     return a + (b - a) * T(delay_fractional);
 905              		.loc 10 74 57 view .LVU253
 906 0048 03F00703 		and	r3, r3, #7
  73:eurorack/plaits/dsp/physical_modelling/delay_line.h ****     const T b = line_[(write_ptr_ + delay_integral + 1) % max_delay];
 907              		.loc 10 73 13 view .LVU254
 908 004c 02EB8101 		add	r1, r2, r1, lsl #2
  74:eurorack/plaits/dsp/physical_modelling/delay_line.h ****     return a + (b - a) * T(delay_fractional);
 909              		.loc 10 74 13 view .LVU255
 910 0050 02EB8303 		add	r3, r2, r3, lsl #2
ARM GAS  /var/folders/9s/8rp0_f2s1n31qbztm3b5_fdh0000gn/T//cc00qguF.s 			page 36


  73:eurorack/plaits/dsp/physical_modelling/delay_line.h ****     const T b = line_[(write_ptr_ + delay_integral + 1) % max_delay];
 911              		.loc 10 73 13 view .LVU256
 912 0054 D1ED007A 		vldr.32	s15, [r1]
 913              	.LVL67:
 914              		.loc 10 75 19 view .LVU257
 915 0058 93ED007A 		vldr.32	s14, [r3]
 916 005c 04F62843 		addw	r3, r4, #3112
 917 0060 37EE677A 		vsub.f32	s14, s14, s15
 918              		.loc 10 75 44 view .LVU258
 919 0064 E7EE0B7A 		vfma.f32	s15, s14, s22
 920              	.LVL68:
 921              		.loc 10 75 44 view .LVU259
 922              	.LBE284:
 923              	.LBE288:
 924              		.loc 9 89 3 is_stmt 1 view .LVU260
  90:eurorack/plaits/dsp/voice.cc ****   if (!previous_trigger_state) {
 925              		.loc 9 90 3 view .LVU261
 926 0068 B9F1000F 		cmp	r9, #0
 927 006c 40F00982 		bne	.L36
  91:eurorack/plaits/dsp/voice.cc ****     if (trigger_value > 0.3f) {
 928              		.loc 9 91 5 view .LVU262
 929 0070 F4EEEA7A 		vcmpe.f32	s15, s21
 930 0074 F1EE10FA 		vmrs	APSR_nzcv, FPSCR
 931 0078 0BDD     		ble	.L37
  92:eurorack/plaits/dsp/voice.cc ****       trigger_state_ = true;
 932              		.loc 9 92 7 view .LVU263
 933              		.loc 9 92 22 is_stmt 0 view .LVU264
 934 007a 0122     		movs	r2, #1
  93:eurorack/plaits/dsp/voice.cc ****       if (!modulations.level_patched) {
 935              		.loc 9 93 7 view .LVU265
 936 007c 95F82410 		ldrb	r1, [r5, #36]	@ zero_extendqisi2
  92:eurorack/plaits/dsp/voice.cc ****       trigger_state_ = true;
 937              		.loc 9 92 22 view .LVU266
 938 0080 84F8302C 		strb	r2, [r4, #3120]
 939              		.loc 9 93 7 is_stmt 1 view .LVU267
 940 0084 09B9     		cbnz	r1, .L39
  94:eurorack/plaits/dsp/voice.cc ****         lpg_envelope_.Trigger();
 941              		.loc 9 94 9 view .LVU268
 942              	.LVL69:
 943              	.LBB289:
 944              	.LBI289:
  48:eurorack/plaits/dsp/envelope.h ****     ramp_up_ = true;
 945              		.loc 2 48 15 view .LVU269
 946              	.LBB290:
  49:eurorack/plaits/dsp/envelope.h ****   }
 947              		.loc 2 49 5 view .LVU270
  49:eurorack/plaits/dsp/envelope.h ****   }
 948              		.loc 2 49 14 is_stmt 0 view .LVU271
 949 0086 84F8482C 		strb	r2, [r4, #3144]
 950              	.LVL70:
 951              	.L39:
  49:eurorack/plaits/dsp/envelope.h ****   }
 952              		.loc 2 49 14 view .LVU272
 953              	.LBE290:
 954              	.LBE289:
  95:eurorack/plaits/dsp/voice.cc ****       }
  96:eurorack/plaits/dsp/voice.cc ****       decay_envelope_.Trigger();
ARM GAS  /var/folders/9s/8rp0_f2s1n31qbztm3b5_fdh0000gn/T//cc00qguF.s 			page 37


 955              		.loc 9 96 7 is_stmt 1 view .LVU273
 956              	.LBB291:
 957              	.LBI291:
  87:eurorack/plaits/dsp/envelope.h ****   
  88:eurorack/plaits/dsp/envelope.h ****   inline float gain() const { return gain_; }
  89:eurorack/plaits/dsp/envelope.h ****   inline float frequency() const { return frequency_; }
  90:eurorack/plaits/dsp/envelope.h ****   inline float hf_bleed() const { return hf_bleed_; }
  91:eurorack/plaits/dsp/envelope.h ****   
  92:eurorack/plaits/dsp/envelope.h ****  private:
  93:eurorack/plaits/dsp/envelope.h ****   float vactrol_state_;
  94:eurorack/plaits/dsp/envelope.h ****   float gain_;
  95:eurorack/plaits/dsp/envelope.h ****   float frequency_;
  96:eurorack/plaits/dsp/envelope.h ****   float hf_bleed_;
  97:eurorack/plaits/dsp/envelope.h ****   bool ramp_up_;
  98:eurorack/plaits/dsp/envelope.h ****   
  99:eurorack/plaits/dsp/envelope.h ****   DISALLOW_COPY_AND_ASSIGN(LPGEnvelope);
 100:eurorack/plaits/dsp/envelope.h **** };
 101:eurorack/plaits/dsp/envelope.h **** 
 102:eurorack/plaits/dsp/envelope.h **** class DecayEnvelope {
 103:eurorack/plaits/dsp/envelope.h ****  public:
 104:eurorack/plaits/dsp/envelope.h ****   DecayEnvelope() { }
 105:eurorack/plaits/dsp/envelope.h ****   ~DecayEnvelope() { }
 106:eurorack/plaits/dsp/envelope.h ****   
 107:eurorack/plaits/dsp/envelope.h ****   inline void Init() {
 108:eurorack/plaits/dsp/envelope.h ****     value_ = 0.0f;
 109:eurorack/plaits/dsp/envelope.h ****   }
 110:eurorack/plaits/dsp/envelope.h ****   
 111:eurorack/plaits/dsp/envelope.h ****   inline void Trigger() {
 958              		.loc 2 111 15 view .LVU274
 959              	.LBB292:
 112:eurorack/plaits/dsp/envelope.h ****     value_ = 1.0f;
 960              		.loc 2 112 5 view .LVU275
 961              	.LBE292:
 962              	.LBE291:
  97:eurorack/plaits/dsp/voice.cc ****       engine_cv_ = modulations.engine;
 963              		.loc 9 97 18 is_stmt 0 view .LVU276
 964 008a 2A68     		ldr	r2, [r5]	@ float
 965              	.LBB294:
 966              	.LBB293:
 967              		.loc 2 112 12 view .LVU277
 968 008c CAED008A 		vstr.32	s17, [r10]
 969              	.LVL71:
 970              		.loc 2 112 12 view .LVU278
 971              	.LBE293:
 972              	.LBE294:
 973              		.loc 9 97 7 is_stmt 1 view .LVU279
 974              		.loc 9 97 18 is_stmt 0 view .LVU280
 975 0090 1A60     		str	r2, [r3]	@ float
 976              	.L37:
  98:eurorack/plaits/dsp/voice.cc ****     }
  99:eurorack/plaits/dsp/voice.cc ****   } else {
 100:eurorack/plaits/dsp/voice.cc ****     if (trigger_value < 0.1f) {
 101:eurorack/plaits/dsp/voice.cc ****       trigger_state_ = false;
 102:eurorack/plaits/dsp/voice.cc ****     }
 103:eurorack/plaits/dsp/voice.cc ****   }
 104:eurorack/plaits/dsp/voice.cc ****   if (!modulations.trigger_patched) {
 977              		.loc 9 104 3 is_stmt 1 view .LVU281
ARM GAS  /var/folders/9s/8rp0_f2s1n31qbztm3b5_fdh0000gn/T//cc00qguF.s 			page 38


 978 0092 95F82320 		ldrb	r2, [r5, #35]	@ zero_extendqisi2
 979 0096 0AB9     		cbnz	r2, .L41
 105:eurorack/plaits/dsp/voice.cc ****     engine_cv_ = modulations.engine;
 980              		.loc 9 105 5 view .LVU282
 981              		.loc 9 105 16 is_stmt 0 view .LVU283
 982 0098 2A68     		ldr	r2, [r5]	@ float
 983 009a 1A60     		str	r2, [r3]	@ float
 984              	.L41:
 106:eurorack/plaits/dsp/voice.cc ****   }
 107:eurorack/plaits/dsp/voice.cc **** 
 108:eurorack/plaits/dsp/voice.cc ****   // Engine selection.
 109:eurorack/plaits/dsp/voice.cc ****   int engine_index = engine_quantizer_.Process(
 985              		.loc 9 109 3 is_stmt 1 view .LVU284
 986              	.LVL72:
 987              	.LBB295:
 988              	.LBI295:
 989              		.file 11 "eurorack/plaits/dsp/engine/engine.h"
   1:eurorack/plaits/dsp/engine/engine.h **** // Copyright 2016 Emilie Gillet.
   2:eurorack/plaits/dsp/engine/engine.h **** //
   3:eurorack/plaits/dsp/engine/engine.h **** // Author: Emilie Gillet (emilie.o.gillet@gmail.com)
   4:eurorack/plaits/dsp/engine/engine.h **** //
   5:eurorack/plaits/dsp/engine/engine.h **** // Permission is hereby granted, free of charge, to any person obtaining a copy
   6:eurorack/plaits/dsp/engine/engine.h **** // of this software and associated documentation files (the "Software"), to deal
   7:eurorack/plaits/dsp/engine/engine.h **** // in the Software without restriction, including without limitation the rights
   8:eurorack/plaits/dsp/engine/engine.h **** // to use, copy, modify, merge, publish, distribute, sublicense, and/or sell
   9:eurorack/plaits/dsp/engine/engine.h **** // copies of the Software, and to permit persons to whom the Software is
  10:eurorack/plaits/dsp/engine/engine.h **** // furnished to do so, subject to the following conditions:
  11:eurorack/plaits/dsp/engine/engine.h **** // 
  12:eurorack/plaits/dsp/engine/engine.h **** // The above copyright notice and this permission notice shall be included in
  13:eurorack/plaits/dsp/engine/engine.h **** // all copies or substantial portions of the Software.
  14:eurorack/plaits/dsp/engine/engine.h **** // 
  15:eurorack/plaits/dsp/engine/engine.h **** // THE SOFTWARE IS PROVIDED "AS IS", WITHOUT WARRANTY OF ANY KIND, EXPRESS OR
  16:eurorack/plaits/dsp/engine/engine.h **** // IMPLIED, INCLUDING BUT NOT LIMITED TO THE WARRANTIES OF MERCHANTABILITY,
  17:eurorack/plaits/dsp/engine/engine.h **** // FITNESS FOR A PARTICULAR PURPOSE AND NONINFRINGEMENT. IN NO EVENT SHALL THE
  18:eurorack/plaits/dsp/engine/engine.h **** // AUTHORS OR COPYRIGHT HOLDERS BE LIABLE FOR ANY CLAIM, DAMAGES OR OTHER
  19:eurorack/plaits/dsp/engine/engine.h **** // LIABILITY, WHETHER IN AN ACTION OF CONTRACT, TORT OR OTHERWISE, ARISING FROM,
  20:eurorack/plaits/dsp/engine/engine.h **** // OUT OF OR IN CONNECTION WITH THE SOFTWARE OR THE USE OR OTHER DEALINGS IN
  21:eurorack/plaits/dsp/engine/engine.h **** // THE SOFTWARE.
  22:eurorack/plaits/dsp/engine/engine.h **** // 
  23:eurorack/plaits/dsp/engine/engine.h **** // See http://creativecommons.org/licenses/MIT/ for more information.
  24:eurorack/plaits/dsp/engine/engine.h **** //
  25:eurorack/plaits/dsp/engine/engine.h **** // -----------------------------------------------------------------------------
  26:eurorack/plaits/dsp/engine/engine.h **** //
  27:eurorack/plaits/dsp/engine/engine.h **** // Base class for all engines.
  28:eurorack/plaits/dsp/engine/engine.h **** 
  29:eurorack/plaits/dsp/engine/engine.h **** #ifndef PLAITS_DSP_ENGINE_ENGINE_H_
  30:eurorack/plaits/dsp/engine/engine.h **** #define PLAITS_DSP_ENGINE_ENGINE_H_
  31:eurorack/plaits/dsp/engine/engine.h **** 
  32:eurorack/plaits/dsp/engine/engine.h **** #include "plaits/dsp/dsp.h"
  33:eurorack/plaits/dsp/engine/engine.h **** 
  34:eurorack/plaits/dsp/engine/engine.h **** #include "stmlib/dsp/units.h"
  35:eurorack/plaits/dsp/engine/engine.h **** #include "stmlib/utils/buffer_allocator.h"
  36:eurorack/plaits/dsp/engine/engine.h **** 
  37:eurorack/plaits/dsp/engine/engine.h **** namespace plaits {
  38:eurorack/plaits/dsp/engine/engine.h **** 
  39:eurorack/plaits/dsp/engine/engine.h **** inline float NoteToFrequency(float midi_note) {
  40:eurorack/plaits/dsp/engine/engine.h ****   midi_note -= 9.0f;
ARM GAS  /var/folders/9s/8rp0_f2s1n31qbztm3b5_fdh0000gn/T//cc00qguF.s 			page 39


  41:eurorack/plaits/dsp/engine/engine.h ****   CONSTRAIN(midi_note, -128.0f, 127.0f);
  42:eurorack/plaits/dsp/engine/engine.h ****   return a0 * 0.25f * stmlib::SemitonesToRatio(midi_note);
  43:eurorack/plaits/dsp/engine/engine.h **** }
  44:eurorack/plaits/dsp/engine/engine.h **** 
  45:eurorack/plaits/dsp/engine/engine.h **** enum TriggerState {
  46:eurorack/plaits/dsp/engine/engine.h ****   TRIGGER_LOW = 0,
  47:eurorack/plaits/dsp/engine/engine.h ****   TRIGGER_RISING_EDGE = 1,
  48:eurorack/plaits/dsp/engine/engine.h ****   TRIGGER_UNPATCHED = 2,
  49:eurorack/plaits/dsp/engine/engine.h ****   TRIGGER_UNPATCHED_AUTOTRIGGED = 3,
  50:eurorack/plaits/dsp/engine/engine.h **** };
  51:eurorack/plaits/dsp/engine/engine.h **** 
  52:eurorack/plaits/dsp/engine/engine.h **** struct EngineParameters {
  53:eurorack/plaits/dsp/engine/engine.h ****   TriggerState trigger;
  54:eurorack/plaits/dsp/engine/engine.h ****   float note;
  55:eurorack/plaits/dsp/engine/engine.h ****   float timbre;
  56:eurorack/plaits/dsp/engine/engine.h ****   float morph;
  57:eurorack/plaits/dsp/engine/engine.h ****   float harmonics;
  58:eurorack/plaits/dsp/engine/engine.h ****   float accent;
  59:eurorack/plaits/dsp/engine/engine.h **** };
  60:eurorack/plaits/dsp/engine/engine.h **** 
  61:eurorack/plaits/dsp/engine/engine.h **** struct PostProcessingSettings {
  62:eurorack/plaits/dsp/engine/engine.h ****   // A negative value indicates that a limiter must be used.
  63:eurorack/plaits/dsp/engine/engine.h ****   float out_gain;
  64:eurorack/plaits/dsp/engine/engine.h ****   float aux_gain;
  65:eurorack/plaits/dsp/engine/engine.h ****   
  66:eurorack/plaits/dsp/engine/engine.h ****   // When this flag is set to true, the engine declares that it will 
  67:eurorack/plaits/dsp/engine/engine.h ****   // render a signal that already has an envelope (eg: modal drum, 808 kick).
  68:eurorack/plaits/dsp/engine/engine.h ****   // By reporting this information, the synthesis voice upstream will
  69:eurorack/plaits/dsp/engine/engine.h ****   // bypass the internal envelope/LPG.
  70:eurorack/plaits/dsp/engine/engine.h ****   //
  71:eurorack/plaits/dsp/engine/engine.h ****   // This parameter can be changed on a per-call basis when calling Render()
  72:eurorack/plaits/dsp/engine/engine.h ****   // This is used by the speech synthesis engine, which renders either
  73:eurorack/plaits/dsp/engine/engine.h ****   // a continuous vowel sound (which needs to be enveloped by the LPG)
  74:eurorack/plaits/dsp/engine/engine.h ****   // or a word/sentence (which is already enveloped).
  75:eurorack/plaits/dsp/engine/engine.h ****   bool already_enveloped;
  76:eurorack/plaits/dsp/engine/engine.h **** };
  77:eurorack/plaits/dsp/engine/engine.h **** 
  78:eurorack/plaits/dsp/engine/engine.h **** class Engine {
  79:eurorack/plaits/dsp/engine/engine.h ****  public:
  80:eurorack/plaits/dsp/engine/engine.h ****   Engine() { }
  81:eurorack/plaits/dsp/engine/engine.h ****   ~Engine() { }
  82:eurorack/plaits/dsp/engine/engine.h ****   virtual void Init(stmlib::BufferAllocator* allocator) = 0;
  83:eurorack/plaits/dsp/engine/engine.h ****   virtual void Reset() = 0;
  84:eurorack/plaits/dsp/engine/engine.h ****   virtual void Render(
  85:eurorack/plaits/dsp/engine/engine.h ****       const EngineParameters& parameters,
  86:eurorack/plaits/dsp/engine/engine.h ****       float* out,
  87:eurorack/plaits/dsp/engine/engine.h ****       float* aux,
  88:eurorack/plaits/dsp/engine/engine.h ****       size_t size,
  89:eurorack/plaits/dsp/engine/engine.h ****       bool* already_enveloped) = 0;
  90:eurorack/plaits/dsp/engine/engine.h ****   PostProcessingSettings post_processing_settings;
  91:eurorack/plaits/dsp/engine/engine.h **** };
  92:eurorack/plaits/dsp/engine/engine.h **** 
  93:eurorack/plaits/dsp/engine/engine.h **** template<int max_size>
  94:eurorack/plaits/dsp/engine/engine.h **** class EngineRegistry {
  95:eurorack/plaits/dsp/engine/engine.h ****  public:
  96:eurorack/plaits/dsp/engine/engine.h ****   EngineRegistry() { }
  97:eurorack/plaits/dsp/engine/engine.h ****   ~EngineRegistry() { }
ARM GAS  /var/folders/9s/8rp0_f2s1n31qbztm3b5_fdh0000gn/T//cc00qguF.s 			page 40


  98:eurorack/plaits/dsp/engine/engine.h ****   
  99:eurorack/plaits/dsp/engine/engine.h ****   void Init() {
 100:eurorack/plaits/dsp/engine/engine.h ****     num_engines_ = 0;
 101:eurorack/plaits/dsp/engine/engine.h ****   }
 102:eurorack/plaits/dsp/engine/engine.h **** 
 103:eurorack/plaits/dsp/engine/engine.h ****   inline Engine* get(int index) {
 104:eurorack/plaits/dsp/engine/engine.h ****     return engine_[index];
 105:eurorack/plaits/dsp/engine/engine.h ****   }
 106:eurorack/plaits/dsp/engine/engine.h ****   
 107:eurorack/plaits/dsp/engine/engine.h ****   void RegisterInstance(
 108:eurorack/plaits/dsp/engine/engine.h ****       Engine* instance,
 109:eurorack/plaits/dsp/engine/engine.h ****       bool already_enveloped,
 110:eurorack/plaits/dsp/engine/engine.h ****       float out_gain,
 111:eurorack/plaits/dsp/engine/engine.h ****       float aux_gain) {
 112:eurorack/plaits/dsp/engine/engine.h ****     if (num_engines_ >= max_size) {
 113:eurorack/plaits/dsp/engine/engine.h ****       return;
 114:eurorack/plaits/dsp/engine/engine.h ****     }
 115:eurorack/plaits/dsp/engine/engine.h ****     engine_[num_engines_] = instance;
 116:eurorack/plaits/dsp/engine/engine.h ****     PostProcessingSettings* s = &instance->post_processing_settings;
 117:eurorack/plaits/dsp/engine/engine.h ****     s->already_enveloped = already_enveloped;
 118:eurorack/plaits/dsp/engine/engine.h ****     s->out_gain = out_gain;
 119:eurorack/plaits/dsp/engine/engine.h ****     s->aux_gain = aux_gain;
 120:eurorack/plaits/dsp/engine/engine.h ****     ++num_engines_;
 121:eurorack/plaits/dsp/engine/engine.h ****   }
 122:eurorack/plaits/dsp/engine/engine.h ****   
 123:eurorack/plaits/dsp/engine/engine.h ****   inline int size() const { return num_engines_; }
 990              		.loc 11 123 14 view .LVU285
 991              	.LBB296:
 992              		.loc 11 123 36 is_stmt 0 view .LVU286
 993 009c D4F8EC1C 		ldr	r1, [r4, #3308]
 994              	.LVL73:
 995              		.loc 11 123 36 view .LVU287
 996              	.LBE296:
 997              	.LBE295:
 998              	.LBB297:
 999              	.LBI297:
 1000              		.file 12 "eurorack/stmlib/dsp/hysteresis_quantizer.h"
   1:eurorack/stmlib/dsp/hysteresis_quantizer.h **** // Copyright 2015 Emilie Gillet.
   2:eurorack/stmlib/dsp/hysteresis_quantizer.h **** //
   3:eurorack/stmlib/dsp/hysteresis_quantizer.h **** // Author: Emilie Gillet (emilie.o.gillet@gmail.com)
   4:eurorack/stmlib/dsp/hysteresis_quantizer.h **** //
   5:eurorack/stmlib/dsp/hysteresis_quantizer.h **** // Permission is hereby granted, free of charge, to any person obtaining a copy
   6:eurorack/stmlib/dsp/hysteresis_quantizer.h **** // of this software and associated documentation files (the "Software"), to deal
   7:eurorack/stmlib/dsp/hysteresis_quantizer.h **** // in the Software without restriction, including without limitation the rights
   8:eurorack/stmlib/dsp/hysteresis_quantizer.h **** // to use, copy, modify, merge, publish, distribute, sublicense, and/or sell
   9:eurorack/stmlib/dsp/hysteresis_quantizer.h **** // copies of the Software, and to permit persons to whom the Software is
  10:eurorack/stmlib/dsp/hysteresis_quantizer.h **** // furnished to do so, subject to the following conditions:
  11:eurorack/stmlib/dsp/hysteresis_quantizer.h **** // 
  12:eurorack/stmlib/dsp/hysteresis_quantizer.h **** // The above copyright notice and this permission notice shall be included in
  13:eurorack/stmlib/dsp/hysteresis_quantizer.h **** // all copies or substantial portions of the Software.
  14:eurorack/stmlib/dsp/hysteresis_quantizer.h **** // 
  15:eurorack/stmlib/dsp/hysteresis_quantizer.h **** // THE SOFTWARE IS PROVIDED "AS IS", WITHOUT WARRANTY OF ANY KIND, EXPRESS OR
  16:eurorack/stmlib/dsp/hysteresis_quantizer.h **** // IMPLIED, INCLUDING BUT NOT LIMITED TO THE WARRANTIES OF MERCHANTABILITY,
  17:eurorack/stmlib/dsp/hysteresis_quantizer.h **** // FITNESS FOR A PARTICULAR PURPOSE AND NONINFRINGEMENT. IN NO EVENT SHALL THE
  18:eurorack/stmlib/dsp/hysteresis_quantizer.h **** // AUTHORS OR COPYRIGHT HOLDERS BE LIABLE FOR ANY CLAIM, DAMAGES OR OTHER
  19:eurorack/stmlib/dsp/hysteresis_quantizer.h **** // LIABILITY, WHETHER IN AN ACTION OF CONTRACT, TORT OR OTHERWISE, ARISING FROM,
  20:eurorack/stmlib/dsp/hysteresis_quantizer.h **** // OUT OF OR IN CONNECTION WITH THE SOFTWARE OR THE USE OR OTHER DEALINGS IN
ARM GAS  /var/folders/9s/8rp0_f2s1n31qbztm3b5_fdh0000gn/T//cc00qguF.s 			page 41


  21:eurorack/stmlib/dsp/hysteresis_quantizer.h **** // THE SOFTWARE.
  22:eurorack/stmlib/dsp/hysteresis_quantizer.h **** // 
  23:eurorack/stmlib/dsp/hysteresis_quantizer.h **** // See http://creativecommons.org/licenses/MIT/ for more information.
  24:eurorack/stmlib/dsp/hysteresis_quantizer.h **** //
  25:eurorack/stmlib/dsp/hysteresis_quantizer.h **** // -----------------------------------------------------------------------------
  26:eurorack/stmlib/dsp/hysteresis_quantizer.h **** //
  27:eurorack/stmlib/dsp/hysteresis_quantizer.h **** // Quantize a float in [0, 1] to an integer in [0, num_steps[. Apply hysteresis
  28:eurorack/stmlib/dsp/hysteresis_quantizer.h **** // to prevent jumps near the decision boundary.
  29:eurorack/stmlib/dsp/hysteresis_quantizer.h **** 
  30:eurorack/stmlib/dsp/hysteresis_quantizer.h **** #ifndef STMLIB_DSP_HYSTERESIS_QUANTIZER_H_
  31:eurorack/stmlib/dsp/hysteresis_quantizer.h **** #define STMLIB_DSP_HYSTERESIS_QUANTIZER_H_
  32:eurorack/stmlib/dsp/hysteresis_quantizer.h **** 
  33:eurorack/stmlib/dsp/hysteresis_quantizer.h **** #include "stmlib/stmlib.h"
  34:eurorack/stmlib/dsp/hysteresis_quantizer.h **** 
  35:eurorack/stmlib/dsp/hysteresis_quantizer.h **** namespace stmlib {
  36:eurorack/stmlib/dsp/hysteresis_quantizer.h **** 
  37:eurorack/stmlib/dsp/hysteresis_quantizer.h **** class HysteresisQuantizer {
  38:eurorack/stmlib/dsp/hysteresis_quantizer.h ****  public:
  39:eurorack/stmlib/dsp/hysteresis_quantizer.h ****   HysteresisQuantizer() { }
  40:eurorack/stmlib/dsp/hysteresis_quantizer.h ****   ~HysteresisQuantizer() { }
  41:eurorack/stmlib/dsp/hysteresis_quantizer.h **** 
  42:eurorack/stmlib/dsp/hysteresis_quantizer.h ****   void Init() {
  43:eurorack/stmlib/dsp/hysteresis_quantizer.h ****     quantized_value_ = 0;
  44:eurorack/stmlib/dsp/hysteresis_quantizer.h ****   }
  45:eurorack/stmlib/dsp/hysteresis_quantizer.h **** 
  46:eurorack/stmlib/dsp/hysteresis_quantizer.h ****   inline int Process(float value, int num_steps) {
  47:eurorack/stmlib/dsp/hysteresis_quantizer.h ****     return Process(value, num_steps, 0.25f);
  48:eurorack/stmlib/dsp/hysteresis_quantizer.h ****   }
  49:eurorack/stmlib/dsp/hysteresis_quantizer.h **** 
  50:eurorack/stmlib/dsp/hysteresis_quantizer.h ****   inline int Process(float value, int num_steps, float hysteresis) {
  51:eurorack/stmlib/dsp/hysteresis_quantizer.h ****     return Process(0, value, num_steps, hysteresis);
  52:eurorack/stmlib/dsp/hysteresis_quantizer.h ****   }
  53:eurorack/stmlib/dsp/hysteresis_quantizer.h **** 
  54:eurorack/stmlib/dsp/hysteresis_quantizer.h ****   inline int Process(int base, float value, int num_steps, float hysteresis) {
 1001              		.loc 12 54 14 is_stmt 1 view .LVU288
 1002              	.LBB298:
  55:eurorack/stmlib/dsp/hysteresis_quantizer.h ****     value *= static_cast<float>(num_steps - 1);
 1003              		.loc 12 55 5 view .LVU289
  56:eurorack/stmlib/dsp/hysteresis_quantizer.h ****     value += static_cast<float>(base);
  57:eurorack/stmlib/dsp/hysteresis_quantizer.h ****     float hysteresis_feedback = value > static_cast<float>(quantized_value_)
  58:eurorack/stmlib/dsp/hysteresis_quantizer.h ****         ? -hysteresis
  59:eurorack/stmlib/dsp/hysteresis_quantizer.h ****         : hysteresis;
  60:eurorack/stmlib/dsp/hysteresis_quantizer.h ****     int q = static_cast<int>(value + hysteresis_feedback + 0.5f);
 1004              		.loc 12 60 58 is_stmt 0 view .LVU290
 1005 00a0 B6EE009A 		vmov.f32	s18, #5.0e-1
  56:eurorack/stmlib/dsp/hysteresis_quantizer.h ****     value += static_cast<float>(base);
 1006              		.loc 12 56 11 view .LVU291
 1007 00a4 D3ED006A 		vldr.32	s13, [r3]
  55:eurorack/stmlib/dsp/hysteresis_quantizer.h ****     value *= static_cast<float>(num_steps - 1);
 1008              		.loc 12 55 43 view .LVU292
 1009 00a8 4A1E     		subs	r2, r1, #1
 1010              	.LVL74:
  56:eurorack/stmlib/dsp/hysteresis_quantizer.h ****     value += static_cast<float>(base);
 1011              		.loc 12 56 5 is_stmt 1 view .LVU293
  57:eurorack/stmlib/dsp/hysteresis_quantizer.h ****         ? -hysteresis
 1012              		.loc 12 57 41 is_stmt 0 view .LVU294
 1013 00aa D4F8203C 		ldr	r3, [r4, #3104]
ARM GAS  /var/folders/9s/8rp0_f2s1n31qbztm3b5_fdh0000gn/T//cc00qguF.s 			page 42


  55:eurorack/stmlib/dsp/hysteresis_quantizer.h ****     value *= static_cast<float>(num_steps - 1);
 1014              		.loc 12 55 14 view .LVU295
 1015 00ae 07EE902A 		vmov	s15, r2	@ int
 1016              	.LVL75:
  55:eurorack/stmlib/dsp/hysteresis_quantizer.h ****     value *= static_cast<float>(num_steps - 1);
 1017              		.loc 12 55 14 view .LVU296
 1018 00b2 B8EEE77A 		vcvt.f32.s32	s14, s15
  56:eurorack/stmlib/dsp/hysteresis_quantizer.h ****     value += static_cast<float>(base);
 1019              		.loc 12 56 14 view .LVU297
 1020 00b6 D6ED077A 		vldr.32	s15, [r6, #28]	@ int
 1021 00ba F8EEE77A 		vcvt.f32.s32	s15, s15
  56:eurorack/stmlib/dsp/hysteresis_quantizer.h ****     value += static_cast<float>(base);
 1022              		.loc 12 56 11 view .LVU298
 1023 00be E6EE877A 		vfma.f32	s15, s13, s14
 1024              	.LVL76:
  57:eurorack/stmlib/dsp/hysteresis_quantizer.h ****         ? -hysteresis
 1025              		.loc 12 57 5 is_stmt 1 view .LVU299
  57:eurorack/stmlib/dsp/hysteresis_quantizer.h ****         ? -hysteresis
 1026              		.loc 12 57 41 is_stmt 0 view .LVU300
 1027 00c2 07EE103A 		vmov	s14, r3	@ int
  58:eurorack/stmlib/dsp/hysteresis_quantizer.h ****         : hysteresis;
 1028              		.loc 12 58 9 view .LVU301
 1029 00c6 F5EE006A 		vmov.f32	s13, #2.5e-1
  57:eurorack/stmlib/dsp/hysteresis_quantizer.h ****         ? -hysteresis
 1030              		.loc 12 57 41 view .LVU302
 1031 00ca B8EEC77A 		vcvt.f32.s32	s14, s14
  58:eurorack/stmlib/dsp/hysteresis_quantizer.h ****         : hysteresis;
 1032              		.loc 12 58 9 view .LVU303
 1033 00ce F4EEC77A 		vcmpe.f32	s15, s14
 1034 00d2 BDEE007A 		vmov.f32	s14, #-2.5e-1
 1035 00d6 F1EE10FA 		vmrs	APSR_nzcv, FPSCR
 1036 00da 37FE267A 		vselgt.f32	s14, s14, s13
 1037              	.LVL77:
 1038              		.loc 12 60 5 is_stmt 1 view .LVU304
 1039              		.loc 12 60 36 is_stmt 0 view .LVU305
 1040 00de 77EE877A 		vadd.f32	s15, s15, s14
 1041              	.LVL78:
 1042              		.loc 12 60 58 view .LVU306
 1043 00e2 77EE897A 		vadd.f32	s15, s15, s18
 1044              		.loc 12 60 9 view .LVU307
 1045 00e6 FDEEE77A 		vcvt.s32.f32	s15, s15
 1046 00ea 17EE907A 		vmov	r7, s15	@ int
 1047              	.LVL79:
  61:eurorack/stmlib/dsp/hysteresis_quantizer.h ****     CONSTRAIN(q, 0, num_steps - 1);
 1048              		.loc 12 61 5 is_stmt 1 view .LVU308
 1049 00ee 002F     		cmp	r7, #0
 1050 00f0 C0F2D281 		blt	.L79
 1051              		.loc 12 61 5 view .LVU309
 1052 00f4 B942     		cmp	r1, r7
 1053 00f6 D8BF     		it	le
 1054 00f8 1746     		movle	r7, r2
 1055              	.LVL80:
 1056              	.L44:
 1057              		.loc 12 61 35 view .LVU310
  62:eurorack/stmlib/dsp/hysteresis_quantizer.h ****     quantized_value_ = q;
 1058              		.loc 12 62 5 view .LVU311
 1059              	.LBE298:
ARM GAS  /var/folders/9s/8rp0_f2s1n31qbztm3b5_fdh0000gn/T//cc00qguF.s 			page 43


 1060              	.LBE297:
 1061              	.LBB301:
 1062              	.LBB302:
 104:eurorack/plaits/dsp/engine/engine.h ****   }
 1063              		.loc 11 104 25 is_stmt 0 view .LVU312
 1064 00fa 04EB8703 		add	r3, r4, r7, lsl #2
 1065              	.LBE302:
 1066              	.LBE301:
 1067              	.LBB304:
 1068              	.LBB299:
 1069              		.loc 12 62 22 view .LVU313
 1070 00fe C4F8207C 		str	r7, [r4, #3104]
  63:eurorack/stmlib/dsp/hysteresis_quantizer.h ****     return q;
 1071              		.loc 12 63 5 is_stmt 1 view .LVU314
 1072              	.LVL81:
 1073              		.loc 12 63 5 is_stmt 0 view .LVU315
 1074              	.LBE299:
 1075              	.LBE304:
 110:eurorack/plaits/dsp/voice.cc ****       patch.engine,
 111:eurorack/plaits/dsp/voice.cc ****       engine_cv_,
 112:eurorack/plaits/dsp/voice.cc ****       engines_.size(),
 113:eurorack/plaits/dsp/voice.cc ****       0.25f);
 114:eurorack/plaits/dsp/voice.cc ****   
 115:eurorack/plaits/dsp/voice.cc ****   Engine* e = engines_.get(engine_index);
 1076              		.loc 9 115 3 is_stmt 1 view .LVU316
 1077              	.LBB305:
 1078              	.LBI301:
 103:eurorack/plaits/dsp/engine/engine.h ****     return engine_[index];
 1079              		.loc 11 103 18 view .LVU317
 1080              	.LBB303:
 104:eurorack/plaits/dsp/engine/engine.h ****   }
 1081              		.loc 11 104 25 is_stmt 0 view .LVU318
 1082 0102 D3F8AC8C 		ldr	r8, [r3, #3244]
 1083              	.LVL82:
 104:eurorack/plaits/dsp/engine/engine.h ****   }
 1084              		.loc 11 104 25 view .LVU319
 1085              	.LBE303:
 1086              	.LBE305:
 116:eurorack/plaits/dsp/voice.cc ****   
 117:eurorack/plaits/dsp/voice.cc ****   if (engine_index != previous_engine_index_) {
 1087              		.loc 9 117 3 is_stmt 1 view .LVU320
 1088 0106 D4F8243C 		ldr	r3, [r4, #3108]
 1089 010a BB42     		cmp	r3, r7
 1090 010c 04F67443 		addw	r3, r4, #3188
 1091 0110 0393     		str	r3, [sp, #12]
 1092 0112 09D0     		beq	.L45
 118:eurorack/plaits/dsp/voice.cc ****     e->Reset();
 1093              		.loc 9 118 5 view .LVU321
 1094              		.loc 9 118 14 is_stmt 0 view .LVU322
 1095 0114 D8F80030 		ldr	r3, [r8]
 1096              		.loc 9 118 13 view .LVU323
 1097 0118 4046     		mov	r0, r8
 1098 011a 5B68     		ldr	r3, [r3, #4]
 1099 011c 9847     		blx	r3
 1100              	.LVL83:
 119:eurorack/plaits/dsp/voice.cc ****     out_post_processor_.Reset();
 1101              		.loc 9 119 5 is_stmt 1 view .LVU324
ARM GAS  /var/folders/9s/8rp0_f2s1n31qbztm3b5_fdh0000gn/T//cc00qguF.s 			page 44


 1102              	.LBB306:
 1103              	.LBI306:
  76:eurorack/plaits/dsp/voice.h ****     limiter_.Init();
 1104              		.loc 3 76 8 view .LVU325
 1105              	.LBE306:
  77:eurorack/plaits/dsp/voice.h ****   }
 1106              		.loc 3 77 5 view .LVU326
 1107              	.LBB309:
 1108              	.LBB307:
 1109              	.LBI307:
  46:eurorack/stmlib/dsp/limiter.h ****     peak_ = 0.5f;
 1110              		.loc 6 46 8 view .LVU327
 1111              	.LBB308:
  47:eurorack/stmlib/dsp/limiter.h ****   }
 1112              		.loc 6 47 5 view .LVU328
  47:eurorack/stmlib/dsp/limiter.h ****   }
 1113              		.loc 6 47 11 is_stmt 0 view .LVU329
 1114 011e 039B     		ldr	r3, [sp, #12]
 1115 0120 83ED009A 		vstr.32	s18, [r3]
 1116              	.LVL84:
  47:eurorack/stmlib/dsp/limiter.h ****   }
 1117              		.loc 6 47 11 view .LVU330
 1118              	.LBE308:
 1119              	.LBE307:
 1120              	.LBE309:
 120:eurorack/plaits/dsp/voice.cc ****     previous_engine_index_ = engine_index;
 1121              		.loc 9 120 5 is_stmt 1 view .LVU331
 1122              		.loc 9 120 28 is_stmt 0 view .LVU332
 1123 0124 C4F8247C 		str	r7, [r4, #3108]
 1124              	.L45:
 121:eurorack/plaits/dsp/voice.cc ****   }
 122:eurorack/plaits/dsp/voice.cc ****   EngineParameters p;
 1125              		.loc 9 122 3 is_stmt 1 view .LVU333
 123:eurorack/plaits/dsp/voice.cc **** 
 124:eurorack/plaits/dsp/voice.cc ****   bool rising_edge = trigger_state_ && !previous_trigger_state;
 1126              		.loc 9 124 3 view .LVU334
 1127              		.loc 9 124 22 is_stmt 0 view .LVU335
 1128 0128 94F8303C 		ldrb	r3, [r4, #3120]	@ zero_extendqisi2
 1129              		.loc 9 124 37 view .LVU336
 1130 012c 0BB1     		cbz	r3, .L46
 1131              		.loc 9 124 37 discriminator 1 view .LVU337
 1132 012e 89F00103 		eor	r3, r9, #1
 1133              	.L46:
 1134              	.LVL85:
 125:eurorack/plaits/dsp/voice.cc ****   float note = (modulations.note + previous_note_) * 0.5f;
 1135              		.loc 9 125 3 is_stmt 1 discriminator 6 view .LVU338
 1136              		.loc 9 125 36 is_stmt 0 discriminator 6 view .LVU339
 1137 0132 04F62C42 		addw	r2, r4, #3116
 1138              		.loc 9 125 29 discriminator 6 view .LVU340
 1139 0136 D5ED017A 		vldr.32	s15, [r5, #4]
 126:eurorack/plaits/dsp/voice.cc ****   previous_note_ = modulations.note;
 127:eurorack/plaits/dsp/voice.cc ****   const PostProcessingSettings& pp_s = e->post_processing_settings;
 128:eurorack/plaits/dsp/voice.cc **** 
 129:eurorack/plaits/dsp/voice.cc ****   if (modulations.trigger_patched) {
 1140              		.loc 9 129 19 discriminator 6 view .LVU341
 1141 013a 95F82390 		ldrb	r9, [r5, #35]	@ zero_extendqisi2
 1142              	.LVL86:
ARM GAS  /var/folders/9s/8rp0_f2s1n31qbztm3b5_fdh0000gn/T//cc00qguF.s 			page 45


 125:eurorack/plaits/dsp/voice.cc ****   float note = (modulations.note + previous_note_) * 0.5f;
 1143              		.loc 9 125 34 discriminator 6 view .LVU342
 1144 013e 92ED008A 		vldr.32	s16, [r2]
 126:eurorack/plaits/dsp/voice.cc ****   previous_note_ = modulations.note;
 1145              		.loc 9 126 18 discriminator 6 view .LVU343
 1146 0142 C2ED007A 		vstr.32	s15, [r2]
 125:eurorack/plaits/dsp/voice.cc ****   float note = (modulations.note + previous_note_) * 0.5f;
 1147              		.loc 9 125 34 discriminator 6 view .LVU344
 1148 0146 37EE888A 		vadd.f32	s16, s15, s16
 125:eurorack/plaits/dsp/voice.cc ****   float note = (modulations.note + previous_note_) * 0.5f;
 1149              		.loc 9 125 9 discriminator 6 view .LVU345
 1150 014a 28EE098A 		vmul.f32	s16, s16, s18
 1151              	.LVL87:
 126:eurorack/plaits/dsp/voice.cc ****   previous_note_ = modulations.note;
 1152              		.loc 9 126 3 is_stmt 1 discriminator 6 view .LVU346
 127:eurorack/plaits/dsp/voice.cc **** 
 1153              		.loc 9 127 3 discriminator 6 view .LVU347
 1154              		.loc 9 129 3 discriminator 6 view .LVU348
 1155 014e B9F1000F 		cmp	r9, #0
 1156 0152 00F0A381 		beq	.L47
 1157              	.LVL88:
 1158              	.L114:
 130:eurorack/plaits/dsp/voice.cc ****     p.trigger = rising_edge ? TRIGGER_RISING_EDGE : TRIGGER_LOW;
 131:eurorack/plaits/dsp/voice.cc ****   } else {
 132:eurorack/plaits/dsp/voice.cc ****     p.trigger = TRIGGER_UNPATCHED;
 133:eurorack/plaits/dsp/voice.cc ****   }
 134:eurorack/plaits/dsp/voice.cc ****   
 135:eurorack/plaits/dsp/voice.cc ****   const float short_decay = (200.0f * kBlockSize) / kSampleRate *
 136:eurorack/plaits/dsp/voice.cc ****       SemitonesToRatio(-96.0f * patch.decay);
 1159              		.loc 9 136 23 is_stmt 0 view .LVU349
 1160 0156 DFED957A 		vldr.32	s15, .L115+8
 1161              	.LBB310:
 1162              	.LBB311:
 113:eurorack/plaits/dsp/envelope.h ****   }
 114:eurorack/plaits/dsp/envelope.h ****   
 115:eurorack/plaits/dsp/envelope.h ****   inline void Process(float decay) {
 116:eurorack/plaits/dsp/envelope.h ****     value_ *= (1.0f - decay);
 1163              		.loc 2 116 21 view .LVU350
 1164 015a B0EE009A 		vmov.f32	s18, #2.0e+0
 1165              	.LBE311:
 1166              	.LBE310:
 1167              		.loc 9 136 23 view .LVU351
 1168 015e 96ED080A 		vldr.32	s0, [r6, #32]
 132:eurorack/plaits/dsp/voice.cc ****   }
 1169              		.loc 9 132 15 view .LVU352
 1170 0162 8DF82030 		strb	r3, [sp, #32]
 135:eurorack/plaits/dsp/voice.cc ****       SemitonesToRatio(-96.0f * patch.decay);
 1171              		.loc 9 135 3 is_stmt 1 view .LVU353
 1172              		.loc 9 136 23 is_stmt 0 view .LVU354
 1173 0166 20EE270A 		vmul.f32	s0, s0, s15
 1174 016a FFF7FEFF 		bl	_ZN6stmlib16SemitonesToRatioEf
 1175              	.LVL89:
 1176              		.loc 9 136 44 view .LVU355
 1177 016e DFED906A 		vldr.32	s13, .L115+12
 1178              	.LBB316:
 1179              	.LBB312:
 1180              		.loc 2 116 21 view .LVU356
ARM GAS  /var/folders/9s/8rp0_f2s1n31qbztm3b5_fdh0000gn/T//cc00qguF.s 			page 46


 1181 0172 B0EE685A 		vmov.f32	s10, s17
 1182              		.loc 2 116 12 view .LVU357
 1183 0176 DAED007A 		vldr.32	s15, [r10]
 1184              	.LBE312:
 1185              	.LBE316:
 1186              		.loc 9 136 44 view .LVU358
 1187 017a 20EE26AA 		vmul.f32	s20, s0, s13
 1188              	.LVL90:
 137:eurorack/plaits/dsp/voice.cc **** 
 138:eurorack/plaits/dsp/voice.cc ****   decay_envelope_.Process(short_decay * 2.0f);
 1189              		.loc 9 138 3 is_stmt 1 view .LVU359
 1190              	.LBB317:
 1191              	.LBI310:
 115:eurorack/plaits/dsp/envelope.h ****     value_ *= (1.0f - decay);
 1192              		.loc 2 115 15 view .LVU360
 1193              	.LBB313:
 1194              		.loc 2 116 5 view .LVU361
 1195              	.LBE313:
 1196              	.LBE317:
 139:eurorack/plaits/dsp/voice.cc **** 
 140:eurorack/plaits/dsp/voice.cc ****   const float compressed_level = max(
 141:eurorack/plaits/dsp/voice.cc ****       1.3f * modulations.level / (0.3f + fabsf(modulations.level)),
 1197              		.loc 9 141 12 is_stmt 0 view .LVU362
 1198 017e 9FED8D7A 		vldr.32	s14, .L115+16
 142:eurorack/plaits/dsp/voice.cc ****       0.0f);
 143:eurorack/plaits/dsp/voice.cc ****   p.accent = modulations.level_patched ? compressed_level : 0.8f;
 1199              		.loc 9 143 40 view .LVU363
 1200 0182 95F82430 		ldrb	r3, [r5, #36]	@ zero_extendqisi2
 1201              	.LBB318:
 1202              	.LBB314:
 1203              		.loc 2 116 21 view .LVU364
 1204 0186 AAEE495A 		vfms.f32	s10, s20, s18
 1205 018a F1EE4A9A 		vneg.f32	s19, s20
 1206              		.loc 2 116 12 view .LVU365
 1207 018e 25EE275A 		vmul.f32	s10, s10, s15
 1208              	.LBE314:
 1209              	.LBE318:
 141:eurorack/plaits/dsp/voice.cc ****       0.0f);
 1210              		.loc 9 141 26 view .LVU366
 1211 0192 D5ED077A 		vldr.32	s15, [r5, #28]
 141:eurorack/plaits/dsp/voice.cc ****       0.0f);
 1212              		.loc 9 141 12 view .LVU367
 1213 0196 27EE877A 		vmul.f32	s14, s15, s14
 141:eurorack/plaits/dsp/voice.cc ****       0.0f);
 1214              		.loc 9 141 47 view .LVU368
 1215 019a F0EEE77A 		vabs.f32	s15, s15
 1216              	.LBB319:
 1217              	.LBB315:
 1218              		.loc 2 116 12 view .LVU369
 1219 019e 8AED005A 		vstr.32	s10, [r10]
 1220              	.LVL91:
 1221              		.loc 2 116 12 view .LVU370
 1222              	.LBE315:
 1223              	.LBE319:
 140:eurorack/plaits/dsp/voice.cc ****       1.3f * modulations.level / (0.3f + fabsf(modulations.level)),
 1224              		.loc 9 140 3 is_stmt 1 view .LVU371
 141:eurorack/plaits/dsp/voice.cc ****       0.0f);
ARM GAS  /var/folders/9s/8rp0_f2s1n31qbztm3b5_fdh0000gn/T//cc00qguF.s 			page 47


 1225              		.loc 9 141 40 is_stmt 0 view .LVU372
 1226 01a2 77EEAA7A 		vadd.f32	s15, s15, s21
 141:eurorack/plaits/dsp/voice.cc ****       0.0f);
 1227              		.loc 9 141 32 view .LVU373
 1228 01a6 C7EE27AA 		vdiv.f32	s21, s14, s15
 1229              	.LVL92:
 1230              	.LBB320:
 1231              	.LBI320:
 1232              		.file 13 "/Library/DaisyToolchain/0.2.0/arm/arm-none-eabi/include/c++/10.3.1/bits/stl_algobase.h"
   1:/Library/DaisyToolchain/0.2.0/arm/arm-none-eabi/include/c++/10.3.1/bits/stl_algobase.h **** // Core algorithmic facilities -*- C++ -*-
   2:/Library/DaisyToolchain/0.2.0/arm/arm-none-eabi/include/c++/10.3.1/bits/stl_algobase.h **** 
   3:/Library/DaisyToolchain/0.2.0/arm/arm-none-eabi/include/c++/10.3.1/bits/stl_algobase.h **** // Copyright (C) 2001-2020 Free Software Foundation, Inc.
   4:/Library/DaisyToolchain/0.2.0/arm/arm-none-eabi/include/c++/10.3.1/bits/stl_algobase.h **** //
   5:/Library/DaisyToolchain/0.2.0/arm/arm-none-eabi/include/c++/10.3.1/bits/stl_algobase.h **** // This file is part of the GNU ISO C++ Library.  This library is free
   6:/Library/DaisyToolchain/0.2.0/arm/arm-none-eabi/include/c++/10.3.1/bits/stl_algobase.h **** // software; you can redistribute it and/or modify it under the
   7:/Library/DaisyToolchain/0.2.0/arm/arm-none-eabi/include/c++/10.3.1/bits/stl_algobase.h **** // terms of the GNU General Public License as published by the
   8:/Library/DaisyToolchain/0.2.0/arm/arm-none-eabi/include/c++/10.3.1/bits/stl_algobase.h **** // Free Software Foundation; either version 3, or (at your option)
   9:/Library/DaisyToolchain/0.2.0/arm/arm-none-eabi/include/c++/10.3.1/bits/stl_algobase.h **** // any later version.
  10:/Library/DaisyToolchain/0.2.0/arm/arm-none-eabi/include/c++/10.3.1/bits/stl_algobase.h **** 
  11:/Library/DaisyToolchain/0.2.0/arm/arm-none-eabi/include/c++/10.3.1/bits/stl_algobase.h **** // This library is distributed in the hope that it will be useful,
  12:/Library/DaisyToolchain/0.2.0/arm/arm-none-eabi/include/c++/10.3.1/bits/stl_algobase.h **** // but WITHOUT ANY WARRANTY; without even the implied warranty of
  13:/Library/DaisyToolchain/0.2.0/arm/arm-none-eabi/include/c++/10.3.1/bits/stl_algobase.h **** // MERCHANTABILITY or FITNESS FOR A PARTICULAR PURPOSE.  See the
  14:/Library/DaisyToolchain/0.2.0/arm/arm-none-eabi/include/c++/10.3.1/bits/stl_algobase.h **** // GNU General Public License for more details.
  15:/Library/DaisyToolchain/0.2.0/arm/arm-none-eabi/include/c++/10.3.1/bits/stl_algobase.h **** 
  16:/Library/DaisyToolchain/0.2.0/arm/arm-none-eabi/include/c++/10.3.1/bits/stl_algobase.h **** // Under Section 7 of GPL version 3, you are granted additional
  17:/Library/DaisyToolchain/0.2.0/arm/arm-none-eabi/include/c++/10.3.1/bits/stl_algobase.h **** // permissions described in the GCC Runtime Library Exception, version
  18:/Library/DaisyToolchain/0.2.0/arm/arm-none-eabi/include/c++/10.3.1/bits/stl_algobase.h **** // 3.1, as published by the Free Software Foundation.
  19:/Library/DaisyToolchain/0.2.0/arm/arm-none-eabi/include/c++/10.3.1/bits/stl_algobase.h **** 
  20:/Library/DaisyToolchain/0.2.0/arm/arm-none-eabi/include/c++/10.3.1/bits/stl_algobase.h **** // You should have received a copy of the GNU General Public License and
  21:/Library/DaisyToolchain/0.2.0/arm/arm-none-eabi/include/c++/10.3.1/bits/stl_algobase.h **** // a copy of the GCC Runtime Library Exception along with this program;
  22:/Library/DaisyToolchain/0.2.0/arm/arm-none-eabi/include/c++/10.3.1/bits/stl_algobase.h **** // see the files COPYING3 and COPYING.RUNTIME respectively.  If not, see
  23:/Library/DaisyToolchain/0.2.0/arm/arm-none-eabi/include/c++/10.3.1/bits/stl_algobase.h **** // <http://www.gnu.org/licenses/>.
  24:/Library/DaisyToolchain/0.2.0/arm/arm-none-eabi/include/c++/10.3.1/bits/stl_algobase.h **** 
  25:/Library/DaisyToolchain/0.2.0/arm/arm-none-eabi/include/c++/10.3.1/bits/stl_algobase.h **** /*
  26:/Library/DaisyToolchain/0.2.0/arm/arm-none-eabi/include/c++/10.3.1/bits/stl_algobase.h ****  *
  27:/Library/DaisyToolchain/0.2.0/arm/arm-none-eabi/include/c++/10.3.1/bits/stl_algobase.h ****  * Copyright (c) 1994
  28:/Library/DaisyToolchain/0.2.0/arm/arm-none-eabi/include/c++/10.3.1/bits/stl_algobase.h ****  * Hewlett-Packard Company
  29:/Library/DaisyToolchain/0.2.0/arm/arm-none-eabi/include/c++/10.3.1/bits/stl_algobase.h ****  *
  30:/Library/DaisyToolchain/0.2.0/arm/arm-none-eabi/include/c++/10.3.1/bits/stl_algobase.h ****  * Permission to use, copy, modify, distribute and sell this software
  31:/Library/DaisyToolchain/0.2.0/arm/arm-none-eabi/include/c++/10.3.1/bits/stl_algobase.h ****  * and its documentation for any purpose is hereby granted without fee,
  32:/Library/DaisyToolchain/0.2.0/arm/arm-none-eabi/include/c++/10.3.1/bits/stl_algobase.h ****  * provided that the above copyright notice appear in all copies and
  33:/Library/DaisyToolchain/0.2.0/arm/arm-none-eabi/include/c++/10.3.1/bits/stl_algobase.h ****  * that both that copyright notice and this permission notice appear
  34:/Library/DaisyToolchain/0.2.0/arm/arm-none-eabi/include/c++/10.3.1/bits/stl_algobase.h ****  * in supporting documentation.  Hewlett-Packard Company makes no
  35:/Library/DaisyToolchain/0.2.0/arm/arm-none-eabi/include/c++/10.3.1/bits/stl_algobase.h ****  * representations about the suitability of this software for any
  36:/Library/DaisyToolchain/0.2.0/arm/arm-none-eabi/include/c++/10.3.1/bits/stl_algobase.h ****  * purpose.  It is provided "as is" without express or implied warranty.
  37:/Library/DaisyToolchain/0.2.0/arm/arm-none-eabi/include/c++/10.3.1/bits/stl_algobase.h ****  *
  38:/Library/DaisyToolchain/0.2.0/arm/arm-none-eabi/include/c++/10.3.1/bits/stl_algobase.h ****  *
  39:/Library/DaisyToolchain/0.2.0/arm/arm-none-eabi/include/c++/10.3.1/bits/stl_algobase.h ****  * Copyright (c) 1996-1998
  40:/Library/DaisyToolchain/0.2.0/arm/arm-none-eabi/include/c++/10.3.1/bits/stl_algobase.h ****  * Silicon Graphics Computer Systems, Inc.
  41:/Library/DaisyToolchain/0.2.0/arm/arm-none-eabi/include/c++/10.3.1/bits/stl_algobase.h ****  *
  42:/Library/DaisyToolchain/0.2.0/arm/arm-none-eabi/include/c++/10.3.1/bits/stl_algobase.h ****  * Permission to use, copy, modify, distribute and sell this software
  43:/Library/DaisyToolchain/0.2.0/arm/arm-none-eabi/include/c++/10.3.1/bits/stl_algobase.h ****  * and its documentation for any purpose is hereby granted without fee,
  44:/Library/DaisyToolchain/0.2.0/arm/arm-none-eabi/include/c++/10.3.1/bits/stl_algobase.h ****  * provided that the above copyright notice appear in all copies and
  45:/Library/DaisyToolchain/0.2.0/arm/arm-none-eabi/include/c++/10.3.1/bits/stl_algobase.h ****  * that both that copyright notice and this permission notice appear
  46:/Library/DaisyToolchain/0.2.0/arm/arm-none-eabi/include/c++/10.3.1/bits/stl_algobase.h ****  * in supporting documentation.  Silicon Graphics makes no
  47:/Library/DaisyToolchain/0.2.0/arm/arm-none-eabi/include/c++/10.3.1/bits/stl_algobase.h ****  * representations about the suitability of this software for any
  48:/Library/DaisyToolchain/0.2.0/arm/arm-none-eabi/include/c++/10.3.1/bits/stl_algobase.h ****  * purpose.  It is provided "as is" without express or implied warranty.
ARM GAS  /var/folders/9s/8rp0_f2s1n31qbztm3b5_fdh0000gn/T//cc00qguF.s 			page 48


  49:/Library/DaisyToolchain/0.2.0/arm/arm-none-eabi/include/c++/10.3.1/bits/stl_algobase.h ****  */
  50:/Library/DaisyToolchain/0.2.0/arm/arm-none-eabi/include/c++/10.3.1/bits/stl_algobase.h **** 
  51:/Library/DaisyToolchain/0.2.0/arm/arm-none-eabi/include/c++/10.3.1/bits/stl_algobase.h **** /** @file bits/stl_algobase.h
  52:/Library/DaisyToolchain/0.2.0/arm/arm-none-eabi/include/c++/10.3.1/bits/stl_algobase.h ****  *  This is an internal header file, included by other library headers.
  53:/Library/DaisyToolchain/0.2.0/arm/arm-none-eabi/include/c++/10.3.1/bits/stl_algobase.h ****  *  Do not attempt to use it directly. @headername{algorithm}
  54:/Library/DaisyToolchain/0.2.0/arm/arm-none-eabi/include/c++/10.3.1/bits/stl_algobase.h ****  */
  55:/Library/DaisyToolchain/0.2.0/arm/arm-none-eabi/include/c++/10.3.1/bits/stl_algobase.h **** 
  56:/Library/DaisyToolchain/0.2.0/arm/arm-none-eabi/include/c++/10.3.1/bits/stl_algobase.h **** #ifndef _STL_ALGOBASE_H
  57:/Library/DaisyToolchain/0.2.0/arm/arm-none-eabi/include/c++/10.3.1/bits/stl_algobase.h **** #define _STL_ALGOBASE_H 1
  58:/Library/DaisyToolchain/0.2.0/arm/arm-none-eabi/include/c++/10.3.1/bits/stl_algobase.h **** 
  59:/Library/DaisyToolchain/0.2.0/arm/arm-none-eabi/include/c++/10.3.1/bits/stl_algobase.h **** #include <bits/c++config.h>
  60:/Library/DaisyToolchain/0.2.0/arm/arm-none-eabi/include/c++/10.3.1/bits/stl_algobase.h **** #include <bits/functexcept.h>
  61:/Library/DaisyToolchain/0.2.0/arm/arm-none-eabi/include/c++/10.3.1/bits/stl_algobase.h **** #include <bits/cpp_type_traits.h>
  62:/Library/DaisyToolchain/0.2.0/arm/arm-none-eabi/include/c++/10.3.1/bits/stl_algobase.h **** #include <ext/type_traits.h>
  63:/Library/DaisyToolchain/0.2.0/arm/arm-none-eabi/include/c++/10.3.1/bits/stl_algobase.h **** #include <ext/numeric_traits.h>
  64:/Library/DaisyToolchain/0.2.0/arm/arm-none-eabi/include/c++/10.3.1/bits/stl_algobase.h **** #include <bits/stl_pair.h>
  65:/Library/DaisyToolchain/0.2.0/arm/arm-none-eabi/include/c++/10.3.1/bits/stl_algobase.h **** #include <bits/stl_iterator_base_types.h>
  66:/Library/DaisyToolchain/0.2.0/arm/arm-none-eabi/include/c++/10.3.1/bits/stl_algobase.h **** #include <bits/stl_iterator_base_funcs.h>
  67:/Library/DaisyToolchain/0.2.0/arm/arm-none-eabi/include/c++/10.3.1/bits/stl_algobase.h **** #include <bits/stl_iterator.h>
  68:/Library/DaisyToolchain/0.2.0/arm/arm-none-eabi/include/c++/10.3.1/bits/stl_algobase.h **** #include <bits/concept_check.h>
  69:/Library/DaisyToolchain/0.2.0/arm/arm-none-eabi/include/c++/10.3.1/bits/stl_algobase.h **** #include <debug/debug.h>
  70:/Library/DaisyToolchain/0.2.0/arm/arm-none-eabi/include/c++/10.3.1/bits/stl_algobase.h **** #include <bits/move.h> // For std::swap
  71:/Library/DaisyToolchain/0.2.0/arm/arm-none-eabi/include/c++/10.3.1/bits/stl_algobase.h **** #include <bits/predefined_ops.h>
  72:/Library/DaisyToolchain/0.2.0/arm/arm-none-eabi/include/c++/10.3.1/bits/stl_algobase.h **** #if __cplusplus >= 201103L
  73:/Library/DaisyToolchain/0.2.0/arm/arm-none-eabi/include/c++/10.3.1/bits/stl_algobase.h **** # include <type_traits>
  74:/Library/DaisyToolchain/0.2.0/arm/arm-none-eabi/include/c++/10.3.1/bits/stl_algobase.h **** #endif
  75:/Library/DaisyToolchain/0.2.0/arm/arm-none-eabi/include/c++/10.3.1/bits/stl_algobase.h **** #if __cplusplus > 201703L
  76:/Library/DaisyToolchain/0.2.0/arm/arm-none-eabi/include/c++/10.3.1/bits/stl_algobase.h **** # include <compare>
  77:/Library/DaisyToolchain/0.2.0/arm/arm-none-eabi/include/c++/10.3.1/bits/stl_algobase.h **** #endif
  78:/Library/DaisyToolchain/0.2.0/arm/arm-none-eabi/include/c++/10.3.1/bits/stl_algobase.h **** 
  79:/Library/DaisyToolchain/0.2.0/arm/arm-none-eabi/include/c++/10.3.1/bits/stl_algobase.h **** namespace std _GLIBCXX_VISIBILITY(default)
  80:/Library/DaisyToolchain/0.2.0/arm/arm-none-eabi/include/c++/10.3.1/bits/stl_algobase.h **** {
  81:/Library/DaisyToolchain/0.2.0/arm/arm-none-eabi/include/c++/10.3.1/bits/stl_algobase.h **** _GLIBCXX_BEGIN_NAMESPACE_VERSION
  82:/Library/DaisyToolchain/0.2.0/arm/arm-none-eabi/include/c++/10.3.1/bits/stl_algobase.h **** 
  83:/Library/DaisyToolchain/0.2.0/arm/arm-none-eabi/include/c++/10.3.1/bits/stl_algobase.h ****   /*
  84:/Library/DaisyToolchain/0.2.0/arm/arm-none-eabi/include/c++/10.3.1/bits/stl_algobase.h ****    * A constexpr wrapper for __builtin_memcmp.
  85:/Library/DaisyToolchain/0.2.0/arm/arm-none-eabi/include/c++/10.3.1/bits/stl_algobase.h ****    * @param __num The number of elements of type _Tp (not bytes).
  86:/Library/DaisyToolchain/0.2.0/arm/arm-none-eabi/include/c++/10.3.1/bits/stl_algobase.h ****    */
  87:/Library/DaisyToolchain/0.2.0/arm/arm-none-eabi/include/c++/10.3.1/bits/stl_algobase.h ****   template<typename _Tp, typename _Up>
  88:/Library/DaisyToolchain/0.2.0/arm/arm-none-eabi/include/c++/10.3.1/bits/stl_algobase.h ****     _GLIBCXX14_CONSTEXPR
  89:/Library/DaisyToolchain/0.2.0/arm/arm-none-eabi/include/c++/10.3.1/bits/stl_algobase.h ****     inline int
  90:/Library/DaisyToolchain/0.2.0/arm/arm-none-eabi/include/c++/10.3.1/bits/stl_algobase.h ****     __memcmp(const _Tp* __first1, const _Up* __first2, size_t __num)
  91:/Library/DaisyToolchain/0.2.0/arm/arm-none-eabi/include/c++/10.3.1/bits/stl_algobase.h ****     {
  92:/Library/DaisyToolchain/0.2.0/arm/arm-none-eabi/include/c++/10.3.1/bits/stl_algobase.h **** #if __cplusplus >= 201103L
  93:/Library/DaisyToolchain/0.2.0/arm/arm-none-eabi/include/c++/10.3.1/bits/stl_algobase.h ****       static_assert(sizeof(_Tp) == sizeof(_Up), "can be compared with memcmp");
  94:/Library/DaisyToolchain/0.2.0/arm/arm-none-eabi/include/c++/10.3.1/bits/stl_algobase.h **** #endif
  95:/Library/DaisyToolchain/0.2.0/arm/arm-none-eabi/include/c++/10.3.1/bits/stl_algobase.h **** #ifdef __cpp_lib_is_constant_evaluated
  96:/Library/DaisyToolchain/0.2.0/arm/arm-none-eabi/include/c++/10.3.1/bits/stl_algobase.h ****       if (std::is_constant_evaluated())
  97:/Library/DaisyToolchain/0.2.0/arm/arm-none-eabi/include/c++/10.3.1/bits/stl_algobase.h **** 	{
  98:/Library/DaisyToolchain/0.2.0/arm/arm-none-eabi/include/c++/10.3.1/bits/stl_algobase.h **** 	  for(; __num > 0; ++__first1, ++__first2, --__num)
  99:/Library/DaisyToolchain/0.2.0/arm/arm-none-eabi/include/c++/10.3.1/bits/stl_algobase.h **** 	    if (*__first1 != *__first2)
 100:/Library/DaisyToolchain/0.2.0/arm/arm-none-eabi/include/c++/10.3.1/bits/stl_algobase.h **** 	      return *__first1 < *__first2 ? -1 : 1;
 101:/Library/DaisyToolchain/0.2.0/arm/arm-none-eabi/include/c++/10.3.1/bits/stl_algobase.h **** 	  return 0;
 102:/Library/DaisyToolchain/0.2.0/arm/arm-none-eabi/include/c++/10.3.1/bits/stl_algobase.h **** 	}
 103:/Library/DaisyToolchain/0.2.0/arm/arm-none-eabi/include/c++/10.3.1/bits/stl_algobase.h ****       else
 104:/Library/DaisyToolchain/0.2.0/arm/arm-none-eabi/include/c++/10.3.1/bits/stl_algobase.h **** #endif
 105:/Library/DaisyToolchain/0.2.0/arm/arm-none-eabi/include/c++/10.3.1/bits/stl_algobase.h **** 	return __builtin_memcmp(__first1, __first2, sizeof(_Tp) * __num);
ARM GAS  /var/folders/9s/8rp0_f2s1n31qbztm3b5_fdh0000gn/T//cc00qguF.s 			page 49


 106:/Library/DaisyToolchain/0.2.0/arm/arm-none-eabi/include/c++/10.3.1/bits/stl_algobase.h ****     }
 107:/Library/DaisyToolchain/0.2.0/arm/arm-none-eabi/include/c++/10.3.1/bits/stl_algobase.h **** 
 108:/Library/DaisyToolchain/0.2.0/arm/arm-none-eabi/include/c++/10.3.1/bits/stl_algobase.h **** #if __cplusplus < 201103L
 109:/Library/DaisyToolchain/0.2.0/arm/arm-none-eabi/include/c++/10.3.1/bits/stl_algobase.h ****   // See http://gcc.gnu.org/ml/libstdc++/2004-08/msg00167.html: in a
 110:/Library/DaisyToolchain/0.2.0/arm/arm-none-eabi/include/c++/10.3.1/bits/stl_algobase.h ****   // nutshell, we are partially implementing the resolution of DR 187,
 111:/Library/DaisyToolchain/0.2.0/arm/arm-none-eabi/include/c++/10.3.1/bits/stl_algobase.h ****   // when it's safe, i.e., the value_types are equal.
 112:/Library/DaisyToolchain/0.2.0/arm/arm-none-eabi/include/c++/10.3.1/bits/stl_algobase.h ****   template<bool _BoolType>
 113:/Library/DaisyToolchain/0.2.0/arm/arm-none-eabi/include/c++/10.3.1/bits/stl_algobase.h ****     struct __iter_swap
 114:/Library/DaisyToolchain/0.2.0/arm/arm-none-eabi/include/c++/10.3.1/bits/stl_algobase.h ****     {
 115:/Library/DaisyToolchain/0.2.0/arm/arm-none-eabi/include/c++/10.3.1/bits/stl_algobase.h ****       template<typename _ForwardIterator1, typename _ForwardIterator2>
 116:/Library/DaisyToolchain/0.2.0/arm/arm-none-eabi/include/c++/10.3.1/bits/stl_algobase.h **** 	static void
 117:/Library/DaisyToolchain/0.2.0/arm/arm-none-eabi/include/c++/10.3.1/bits/stl_algobase.h **** 	iter_swap(_ForwardIterator1 __a, _ForwardIterator2 __b)
 118:/Library/DaisyToolchain/0.2.0/arm/arm-none-eabi/include/c++/10.3.1/bits/stl_algobase.h **** 	{
 119:/Library/DaisyToolchain/0.2.0/arm/arm-none-eabi/include/c++/10.3.1/bits/stl_algobase.h **** 	  typedef typename iterator_traits<_ForwardIterator1>::value_type
 120:/Library/DaisyToolchain/0.2.0/arm/arm-none-eabi/include/c++/10.3.1/bits/stl_algobase.h **** 	    _ValueType1;
 121:/Library/DaisyToolchain/0.2.0/arm/arm-none-eabi/include/c++/10.3.1/bits/stl_algobase.h **** 	  _ValueType1 __tmp = *__a;
 122:/Library/DaisyToolchain/0.2.0/arm/arm-none-eabi/include/c++/10.3.1/bits/stl_algobase.h **** 	  *__a = *__b;
 123:/Library/DaisyToolchain/0.2.0/arm/arm-none-eabi/include/c++/10.3.1/bits/stl_algobase.h **** 	  *__b = __tmp;
 124:/Library/DaisyToolchain/0.2.0/arm/arm-none-eabi/include/c++/10.3.1/bits/stl_algobase.h **** 	}
 125:/Library/DaisyToolchain/0.2.0/arm/arm-none-eabi/include/c++/10.3.1/bits/stl_algobase.h ****     };
 126:/Library/DaisyToolchain/0.2.0/arm/arm-none-eabi/include/c++/10.3.1/bits/stl_algobase.h **** 
 127:/Library/DaisyToolchain/0.2.0/arm/arm-none-eabi/include/c++/10.3.1/bits/stl_algobase.h ****   template<>
 128:/Library/DaisyToolchain/0.2.0/arm/arm-none-eabi/include/c++/10.3.1/bits/stl_algobase.h ****     struct __iter_swap<true>
 129:/Library/DaisyToolchain/0.2.0/arm/arm-none-eabi/include/c++/10.3.1/bits/stl_algobase.h ****     {
 130:/Library/DaisyToolchain/0.2.0/arm/arm-none-eabi/include/c++/10.3.1/bits/stl_algobase.h ****       template<typename _ForwardIterator1, typename _ForwardIterator2>
 131:/Library/DaisyToolchain/0.2.0/arm/arm-none-eabi/include/c++/10.3.1/bits/stl_algobase.h **** 	static void
 132:/Library/DaisyToolchain/0.2.0/arm/arm-none-eabi/include/c++/10.3.1/bits/stl_algobase.h **** 	iter_swap(_ForwardIterator1 __a, _ForwardIterator2 __b)
 133:/Library/DaisyToolchain/0.2.0/arm/arm-none-eabi/include/c++/10.3.1/bits/stl_algobase.h **** 	{
 134:/Library/DaisyToolchain/0.2.0/arm/arm-none-eabi/include/c++/10.3.1/bits/stl_algobase.h **** 	  swap(*__a, *__b);
 135:/Library/DaisyToolchain/0.2.0/arm/arm-none-eabi/include/c++/10.3.1/bits/stl_algobase.h **** 	}
 136:/Library/DaisyToolchain/0.2.0/arm/arm-none-eabi/include/c++/10.3.1/bits/stl_algobase.h ****     };
 137:/Library/DaisyToolchain/0.2.0/arm/arm-none-eabi/include/c++/10.3.1/bits/stl_algobase.h **** #endif // C++03
 138:/Library/DaisyToolchain/0.2.0/arm/arm-none-eabi/include/c++/10.3.1/bits/stl_algobase.h **** 
 139:/Library/DaisyToolchain/0.2.0/arm/arm-none-eabi/include/c++/10.3.1/bits/stl_algobase.h ****   /**
 140:/Library/DaisyToolchain/0.2.0/arm/arm-none-eabi/include/c++/10.3.1/bits/stl_algobase.h ****    *  @brief Swaps the contents of two iterators.
 141:/Library/DaisyToolchain/0.2.0/arm/arm-none-eabi/include/c++/10.3.1/bits/stl_algobase.h ****    *  @ingroup mutating_algorithms
 142:/Library/DaisyToolchain/0.2.0/arm/arm-none-eabi/include/c++/10.3.1/bits/stl_algobase.h ****    *  @param  __a  An iterator.
 143:/Library/DaisyToolchain/0.2.0/arm/arm-none-eabi/include/c++/10.3.1/bits/stl_algobase.h ****    *  @param  __b  Another iterator.
 144:/Library/DaisyToolchain/0.2.0/arm/arm-none-eabi/include/c++/10.3.1/bits/stl_algobase.h ****    *  @return   Nothing.
 145:/Library/DaisyToolchain/0.2.0/arm/arm-none-eabi/include/c++/10.3.1/bits/stl_algobase.h ****    *
 146:/Library/DaisyToolchain/0.2.0/arm/arm-none-eabi/include/c++/10.3.1/bits/stl_algobase.h ****    *  This function swaps the values pointed to by two iterators, not the
 147:/Library/DaisyToolchain/0.2.0/arm/arm-none-eabi/include/c++/10.3.1/bits/stl_algobase.h ****    *  iterators themselves.
 148:/Library/DaisyToolchain/0.2.0/arm/arm-none-eabi/include/c++/10.3.1/bits/stl_algobase.h ****   */
 149:/Library/DaisyToolchain/0.2.0/arm/arm-none-eabi/include/c++/10.3.1/bits/stl_algobase.h ****   template<typename _ForwardIterator1, typename _ForwardIterator2>
 150:/Library/DaisyToolchain/0.2.0/arm/arm-none-eabi/include/c++/10.3.1/bits/stl_algobase.h ****     _GLIBCXX20_CONSTEXPR
 151:/Library/DaisyToolchain/0.2.0/arm/arm-none-eabi/include/c++/10.3.1/bits/stl_algobase.h ****     inline void
 152:/Library/DaisyToolchain/0.2.0/arm/arm-none-eabi/include/c++/10.3.1/bits/stl_algobase.h ****     iter_swap(_ForwardIterator1 __a, _ForwardIterator2 __b)
 153:/Library/DaisyToolchain/0.2.0/arm/arm-none-eabi/include/c++/10.3.1/bits/stl_algobase.h ****     {
 154:/Library/DaisyToolchain/0.2.0/arm/arm-none-eabi/include/c++/10.3.1/bits/stl_algobase.h ****       // concept requirements
 155:/Library/DaisyToolchain/0.2.0/arm/arm-none-eabi/include/c++/10.3.1/bits/stl_algobase.h ****       __glibcxx_function_requires(_Mutable_ForwardIteratorConcept<
 156:/Library/DaisyToolchain/0.2.0/arm/arm-none-eabi/include/c++/10.3.1/bits/stl_algobase.h **** 				  _ForwardIterator1>)
 157:/Library/DaisyToolchain/0.2.0/arm/arm-none-eabi/include/c++/10.3.1/bits/stl_algobase.h ****       __glibcxx_function_requires(_Mutable_ForwardIteratorConcept<
 158:/Library/DaisyToolchain/0.2.0/arm/arm-none-eabi/include/c++/10.3.1/bits/stl_algobase.h **** 				  _ForwardIterator2>)
 159:/Library/DaisyToolchain/0.2.0/arm/arm-none-eabi/include/c++/10.3.1/bits/stl_algobase.h **** 
 160:/Library/DaisyToolchain/0.2.0/arm/arm-none-eabi/include/c++/10.3.1/bits/stl_algobase.h **** #if __cplusplus < 201103L
 161:/Library/DaisyToolchain/0.2.0/arm/arm-none-eabi/include/c++/10.3.1/bits/stl_algobase.h ****       typedef typename iterator_traits<_ForwardIterator1>::value_type
 162:/Library/DaisyToolchain/0.2.0/arm/arm-none-eabi/include/c++/10.3.1/bits/stl_algobase.h **** 	_ValueType1;
ARM GAS  /var/folders/9s/8rp0_f2s1n31qbztm3b5_fdh0000gn/T//cc00qguF.s 			page 50


 163:/Library/DaisyToolchain/0.2.0/arm/arm-none-eabi/include/c++/10.3.1/bits/stl_algobase.h ****       typedef typename iterator_traits<_ForwardIterator2>::value_type
 164:/Library/DaisyToolchain/0.2.0/arm/arm-none-eabi/include/c++/10.3.1/bits/stl_algobase.h **** 	_ValueType2;
 165:/Library/DaisyToolchain/0.2.0/arm/arm-none-eabi/include/c++/10.3.1/bits/stl_algobase.h **** 
 166:/Library/DaisyToolchain/0.2.0/arm/arm-none-eabi/include/c++/10.3.1/bits/stl_algobase.h ****       __glibcxx_function_requires(_ConvertibleConcept<_ValueType1,
 167:/Library/DaisyToolchain/0.2.0/arm/arm-none-eabi/include/c++/10.3.1/bits/stl_algobase.h **** 				  _ValueType2>)
 168:/Library/DaisyToolchain/0.2.0/arm/arm-none-eabi/include/c++/10.3.1/bits/stl_algobase.h ****       __glibcxx_function_requires(_ConvertibleConcept<_ValueType2,
 169:/Library/DaisyToolchain/0.2.0/arm/arm-none-eabi/include/c++/10.3.1/bits/stl_algobase.h **** 				  _ValueType1>)
 170:/Library/DaisyToolchain/0.2.0/arm/arm-none-eabi/include/c++/10.3.1/bits/stl_algobase.h **** 
 171:/Library/DaisyToolchain/0.2.0/arm/arm-none-eabi/include/c++/10.3.1/bits/stl_algobase.h ****       typedef typename iterator_traits<_ForwardIterator1>::reference
 172:/Library/DaisyToolchain/0.2.0/arm/arm-none-eabi/include/c++/10.3.1/bits/stl_algobase.h **** 	_ReferenceType1;
 173:/Library/DaisyToolchain/0.2.0/arm/arm-none-eabi/include/c++/10.3.1/bits/stl_algobase.h ****       typedef typename iterator_traits<_ForwardIterator2>::reference
 174:/Library/DaisyToolchain/0.2.0/arm/arm-none-eabi/include/c++/10.3.1/bits/stl_algobase.h **** 	_ReferenceType2;
 175:/Library/DaisyToolchain/0.2.0/arm/arm-none-eabi/include/c++/10.3.1/bits/stl_algobase.h ****       std::__iter_swap<__are_same<_ValueType1, _ValueType2>::__value
 176:/Library/DaisyToolchain/0.2.0/arm/arm-none-eabi/include/c++/10.3.1/bits/stl_algobase.h **** 	&& __are_same<_ValueType1&, _ReferenceType1>::__value
 177:/Library/DaisyToolchain/0.2.0/arm/arm-none-eabi/include/c++/10.3.1/bits/stl_algobase.h **** 	&& __are_same<_ValueType2&, _ReferenceType2>::__value>::
 178:/Library/DaisyToolchain/0.2.0/arm/arm-none-eabi/include/c++/10.3.1/bits/stl_algobase.h **** 	iter_swap(__a, __b);
 179:/Library/DaisyToolchain/0.2.0/arm/arm-none-eabi/include/c++/10.3.1/bits/stl_algobase.h **** #else
 180:/Library/DaisyToolchain/0.2.0/arm/arm-none-eabi/include/c++/10.3.1/bits/stl_algobase.h ****       // _GLIBCXX_RESOLVE_LIB_DEFECTS
 181:/Library/DaisyToolchain/0.2.0/arm/arm-none-eabi/include/c++/10.3.1/bits/stl_algobase.h ****       // 187. iter_swap underspecified
 182:/Library/DaisyToolchain/0.2.0/arm/arm-none-eabi/include/c++/10.3.1/bits/stl_algobase.h ****       swap(*__a, *__b);
 183:/Library/DaisyToolchain/0.2.0/arm/arm-none-eabi/include/c++/10.3.1/bits/stl_algobase.h **** #endif
 184:/Library/DaisyToolchain/0.2.0/arm/arm-none-eabi/include/c++/10.3.1/bits/stl_algobase.h ****     }
 185:/Library/DaisyToolchain/0.2.0/arm/arm-none-eabi/include/c++/10.3.1/bits/stl_algobase.h **** 
 186:/Library/DaisyToolchain/0.2.0/arm/arm-none-eabi/include/c++/10.3.1/bits/stl_algobase.h ****   /**
 187:/Library/DaisyToolchain/0.2.0/arm/arm-none-eabi/include/c++/10.3.1/bits/stl_algobase.h ****    *  @brief Swap the elements of two sequences.
 188:/Library/DaisyToolchain/0.2.0/arm/arm-none-eabi/include/c++/10.3.1/bits/stl_algobase.h ****    *  @ingroup mutating_algorithms
 189:/Library/DaisyToolchain/0.2.0/arm/arm-none-eabi/include/c++/10.3.1/bits/stl_algobase.h ****    *  @param  __first1  A forward iterator.
 190:/Library/DaisyToolchain/0.2.0/arm/arm-none-eabi/include/c++/10.3.1/bits/stl_algobase.h ****    *  @param  __last1   A forward iterator.
 191:/Library/DaisyToolchain/0.2.0/arm/arm-none-eabi/include/c++/10.3.1/bits/stl_algobase.h ****    *  @param  __first2  A forward iterator.
 192:/Library/DaisyToolchain/0.2.0/arm/arm-none-eabi/include/c++/10.3.1/bits/stl_algobase.h ****    *  @return   An iterator equal to @p first2+(last1-first1).
 193:/Library/DaisyToolchain/0.2.0/arm/arm-none-eabi/include/c++/10.3.1/bits/stl_algobase.h ****    *
 194:/Library/DaisyToolchain/0.2.0/arm/arm-none-eabi/include/c++/10.3.1/bits/stl_algobase.h ****    *  Swaps each element in the range @p [first1,last1) with the
 195:/Library/DaisyToolchain/0.2.0/arm/arm-none-eabi/include/c++/10.3.1/bits/stl_algobase.h ****    *  corresponding element in the range @p [first2,(last1-first1)).
 196:/Library/DaisyToolchain/0.2.0/arm/arm-none-eabi/include/c++/10.3.1/bits/stl_algobase.h ****    *  The ranges must not overlap.
 197:/Library/DaisyToolchain/0.2.0/arm/arm-none-eabi/include/c++/10.3.1/bits/stl_algobase.h ****   */
 198:/Library/DaisyToolchain/0.2.0/arm/arm-none-eabi/include/c++/10.3.1/bits/stl_algobase.h ****   template<typename _ForwardIterator1, typename _ForwardIterator2>
 199:/Library/DaisyToolchain/0.2.0/arm/arm-none-eabi/include/c++/10.3.1/bits/stl_algobase.h ****     _GLIBCXX20_CONSTEXPR
 200:/Library/DaisyToolchain/0.2.0/arm/arm-none-eabi/include/c++/10.3.1/bits/stl_algobase.h ****     _ForwardIterator2
 201:/Library/DaisyToolchain/0.2.0/arm/arm-none-eabi/include/c++/10.3.1/bits/stl_algobase.h ****     swap_ranges(_ForwardIterator1 __first1, _ForwardIterator1 __last1,
 202:/Library/DaisyToolchain/0.2.0/arm/arm-none-eabi/include/c++/10.3.1/bits/stl_algobase.h **** 		_ForwardIterator2 __first2)
 203:/Library/DaisyToolchain/0.2.0/arm/arm-none-eabi/include/c++/10.3.1/bits/stl_algobase.h ****     {
 204:/Library/DaisyToolchain/0.2.0/arm/arm-none-eabi/include/c++/10.3.1/bits/stl_algobase.h ****       // concept requirements
 205:/Library/DaisyToolchain/0.2.0/arm/arm-none-eabi/include/c++/10.3.1/bits/stl_algobase.h ****       __glibcxx_function_requires(_Mutable_ForwardIteratorConcept<
 206:/Library/DaisyToolchain/0.2.0/arm/arm-none-eabi/include/c++/10.3.1/bits/stl_algobase.h **** 				  _ForwardIterator1>)
 207:/Library/DaisyToolchain/0.2.0/arm/arm-none-eabi/include/c++/10.3.1/bits/stl_algobase.h ****       __glibcxx_function_requires(_Mutable_ForwardIteratorConcept<
 208:/Library/DaisyToolchain/0.2.0/arm/arm-none-eabi/include/c++/10.3.1/bits/stl_algobase.h **** 				  _ForwardIterator2>)
 209:/Library/DaisyToolchain/0.2.0/arm/arm-none-eabi/include/c++/10.3.1/bits/stl_algobase.h ****       __glibcxx_requires_valid_range(__first1, __last1);
 210:/Library/DaisyToolchain/0.2.0/arm/arm-none-eabi/include/c++/10.3.1/bits/stl_algobase.h **** 
 211:/Library/DaisyToolchain/0.2.0/arm/arm-none-eabi/include/c++/10.3.1/bits/stl_algobase.h ****       for (; __first1 != __last1; ++__first1, (void)++__first2)
 212:/Library/DaisyToolchain/0.2.0/arm/arm-none-eabi/include/c++/10.3.1/bits/stl_algobase.h **** 	std::iter_swap(__first1, __first2);
 213:/Library/DaisyToolchain/0.2.0/arm/arm-none-eabi/include/c++/10.3.1/bits/stl_algobase.h ****       return __first2;
 214:/Library/DaisyToolchain/0.2.0/arm/arm-none-eabi/include/c++/10.3.1/bits/stl_algobase.h ****     }
 215:/Library/DaisyToolchain/0.2.0/arm/arm-none-eabi/include/c++/10.3.1/bits/stl_algobase.h **** 
 216:/Library/DaisyToolchain/0.2.0/arm/arm-none-eabi/include/c++/10.3.1/bits/stl_algobase.h ****   /**
 217:/Library/DaisyToolchain/0.2.0/arm/arm-none-eabi/include/c++/10.3.1/bits/stl_algobase.h ****    *  @brief This does what you think it does.
 218:/Library/DaisyToolchain/0.2.0/arm/arm-none-eabi/include/c++/10.3.1/bits/stl_algobase.h ****    *  @ingroup sorting_algorithms
 219:/Library/DaisyToolchain/0.2.0/arm/arm-none-eabi/include/c++/10.3.1/bits/stl_algobase.h ****    *  @param  __a  A thing of arbitrary type.
ARM GAS  /var/folders/9s/8rp0_f2s1n31qbztm3b5_fdh0000gn/T//cc00qguF.s 			page 51


 220:/Library/DaisyToolchain/0.2.0/arm/arm-none-eabi/include/c++/10.3.1/bits/stl_algobase.h ****    *  @param  __b  Another thing of arbitrary type.
 221:/Library/DaisyToolchain/0.2.0/arm/arm-none-eabi/include/c++/10.3.1/bits/stl_algobase.h ****    *  @return   The lesser of the parameters.
 222:/Library/DaisyToolchain/0.2.0/arm/arm-none-eabi/include/c++/10.3.1/bits/stl_algobase.h ****    *
 223:/Library/DaisyToolchain/0.2.0/arm/arm-none-eabi/include/c++/10.3.1/bits/stl_algobase.h ****    *  This is the simple classic generic implementation.  It will work on
 224:/Library/DaisyToolchain/0.2.0/arm/arm-none-eabi/include/c++/10.3.1/bits/stl_algobase.h ****    *  temporary expressions, since they are only evaluated once, unlike a
 225:/Library/DaisyToolchain/0.2.0/arm/arm-none-eabi/include/c++/10.3.1/bits/stl_algobase.h ****    *  preprocessor macro.
 226:/Library/DaisyToolchain/0.2.0/arm/arm-none-eabi/include/c++/10.3.1/bits/stl_algobase.h ****   */
 227:/Library/DaisyToolchain/0.2.0/arm/arm-none-eabi/include/c++/10.3.1/bits/stl_algobase.h ****   template<typename _Tp>
 228:/Library/DaisyToolchain/0.2.0/arm/arm-none-eabi/include/c++/10.3.1/bits/stl_algobase.h ****     _GLIBCXX14_CONSTEXPR
 229:/Library/DaisyToolchain/0.2.0/arm/arm-none-eabi/include/c++/10.3.1/bits/stl_algobase.h ****     inline const _Tp&
 230:/Library/DaisyToolchain/0.2.0/arm/arm-none-eabi/include/c++/10.3.1/bits/stl_algobase.h ****     min(const _Tp& __a, const _Tp& __b)
 231:/Library/DaisyToolchain/0.2.0/arm/arm-none-eabi/include/c++/10.3.1/bits/stl_algobase.h ****     {
 232:/Library/DaisyToolchain/0.2.0/arm/arm-none-eabi/include/c++/10.3.1/bits/stl_algobase.h ****       // concept requirements
 233:/Library/DaisyToolchain/0.2.0/arm/arm-none-eabi/include/c++/10.3.1/bits/stl_algobase.h ****       __glibcxx_function_requires(_LessThanComparableConcept<_Tp>)
 234:/Library/DaisyToolchain/0.2.0/arm/arm-none-eabi/include/c++/10.3.1/bits/stl_algobase.h ****       //return __b < __a ? __b : __a;
 235:/Library/DaisyToolchain/0.2.0/arm/arm-none-eabi/include/c++/10.3.1/bits/stl_algobase.h ****       if (__b < __a)
 236:/Library/DaisyToolchain/0.2.0/arm/arm-none-eabi/include/c++/10.3.1/bits/stl_algobase.h **** 	return __b;
 237:/Library/DaisyToolchain/0.2.0/arm/arm-none-eabi/include/c++/10.3.1/bits/stl_algobase.h ****       return __a;
 238:/Library/DaisyToolchain/0.2.0/arm/arm-none-eabi/include/c++/10.3.1/bits/stl_algobase.h ****     }
 239:/Library/DaisyToolchain/0.2.0/arm/arm-none-eabi/include/c++/10.3.1/bits/stl_algobase.h **** 
 240:/Library/DaisyToolchain/0.2.0/arm/arm-none-eabi/include/c++/10.3.1/bits/stl_algobase.h ****   /**
 241:/Library/DaisyToolchain/0.2.0/arm/arm-none-eabi/include/c++/10.3.1/bits/stl_algobase.h ****    *  @brief This does what you think it does.
 242:/Library/DaisyToolchain/0.2.0/arm/arm-none-eabi/include/c++/10.3.1/bits/stl_algobase.h ****    *  @ingroup sorting_algorithms
 243:/Library/DaisyToolchain/0.2.0/arm/arm-none-eabi/include/c++/10.3.1/bits/stl_algobase.h ****    *  @param  __a  A thing of arbitrary type.
 244:/Library/DaisyToolchain/0.2.0/arm/arm-none-eabi/include/c++/10.3.1/bits/stl_algobase.h ****    *  @param  __b  Another thing of arbitrary type.
 245:/Library/DaisyToolchain/0.2.0/arm/arm-none-eabi/include/c++/10.3.1/bits/stl_algobase.h ****    *  @return   The greater of the parameters.
 246:/Library/DaisyToolchain/0.2.0/arm/arm-none-eabi/include/c++/10.3.1/bits/stl_algobase.h ****    *
 247:/Library/DaisyToolchain/0.2.0/arm/arm-none-eabi/include/c++/10.3.1/bits/stl_algobase.h ****    *  This is the simple classic generic implementation.  It will work on
 248:/Library/DaisyToolchain/0.2.0/arm/arm-none-eabi/include/c++/10.3.1/bits/stl_algobase.h ****    *  temporary expressions, since they are only evaluated once, unlike a
 249:/Library/DaisyToolchain/0.2.0/arm/arm-none-eabi/include/c++/10.3.1/bits/stl_algobase.h ****    *  preprocessor macro.
 250:/Library/DaisyToolchain/0.2.0/arm/arm-none-eabi/include/c++/10.3.1/bits/stl_algobase.h ****   */
 251:/Library/DaisyToolchain/0.2.0/arm/arm-none-eabi/include/c++/10.3.1/bits/stl_algobase.h ****   template<typename _Tp>
 252:/Library/DaisyToolchain/0.2.0/arm/arm-none-eabi/include/c++/10.3.1/bits/stl_algobase.h ****     _GLIBCXX14_CONSTEXPR
 253:/Library/DaisyToolchain/0.2.0/arm/arm-none-eabi/include/c++/10.3.1/bits/stl_algobase.h ****     inline const _Tp&
 254:/Library/DaisyToolchain/0.2.0/arm/arm-none-eabi/include/c++/10.3.1/bits/stl_algobase.h ****     max(const _Tp& __a, const _Tp& __b)
 1233              		.loc 13 254 5 is_stmt 1 view .LVU374
 1234              	.LBE320:
 1235              		.loc 9 143 40 is_stmt 0 view .LVU375
 1236 01aa DFED837A 		vldr.32	s15, .L115+20
 144:eurorack/plaits/dsp/voice.cc **** 
 145:eurorack/plaits/dsp/voice.cc ****   bool use_internal_envelope = modulations.trigger_patched;
 146:eurorack/plaits/dsp/voice.cc **** 
 147:eurorack/plaits/dsp/voice.cc ****   // Actual synthesis parameters.
 148:eurorack/plaits/dsp/voice.cc ****   
 149:eurorack/plaits/dsp/voice.cc ****   p.harmonics = patch.harmonics + modulations.harmonics;
 1237              		.loc 9 149 33 view .LVU376
 1238 01ae 95ED037A 		vldr.32	s14, [r5, #12]
 1239              	.LBB322:
 1240              	.LBB321:
 255:/Library/DaisyToolchain/0.2.0/arm/arm-none-eabi/include/c++/10.3.1/bits/stl_algobase.h ****     {
 256:/Library/DaisyToolchain/0.2.0/arm/arm-none-eabi/include/c++/10.3.1/bits/stl_algobase.h ****       // concept requirements
 257:/Library/DaisyToolchain/0.2.0/arm/arm-none-eabi/include/c++/10.3.1/bits/stl_algobase.h ****       __glibcxx_function_requires(_LessThanComparableConcept<_Tp>)
 258:/Library/DaisyToolchain/0.2.0/arm/arm-none-eabi/include/c++/10.3.1/bits/stl_algobase.h ****       //return  __a < __b ? __b : __a;
 259:/Library/DaisyToolchain/0.2.0/arm/arm-none-eabi/include/c++/10.3.1/bits/stl_algobase.h ****       if (__a < __b)
 1241              		.loc 13 259 7 view .LVU377
 1242 01b2 F5EEC0AA 		vcmpe.f32	s21, #0
 1243 01b6 F1EE10FA 		vmrs	APSR_nzcv, FPSCR
ARM GAS  /var/folders/9s/8rp0_f2s1n31qbztm3b5_fdh0000gn/T//cc00qguF.s 			page 52


 260:/Library/DaisyToolchain/0.2.0/arm/arm-none-eabi/include/c++/10.3.1/bits/stl_algobase.h **** 	return __b;
 1244              		.loc 13 260 9 view .LVU378
 1245 01ba 48BF     		it	mi
 1246 01bc DFED79AA 		vldrmi.32	s21, .L115
 1247              	.LVL93:
 1248              		.loc 13 260 9 view .LVU379
 1249              	.LBE321:
 1250              	.LBE322:
 143:eurorack/plaits/dsp/voice.cc **** 
 1251              		.loc 9 143 3 is_stmt 1 view .LVU380
 143:eurorack/plaits/dsp/voice.cc **** 
 1252              		.loc 9 143 40 is_stmt 0 view .LVU381
 1253 01c0 002B     		cmp	r3, #0
 1254 01c2 47FEAA7A 		vseleq.f32	s15, s15, s21
 143:eurorack/plaits/dsp/voice.cc **** 
 1255              		.loc 9 143 12 view .LVU382
 1256 01c6 CDED0D7A 		vstr.32	s15, [sp, #52]
 145:eurorack/plaits/dsp/voice.cc **** 
 1257              		.loc 9 145 3 is_stmt 1 view .LVU383
 1258              	.LVL94:
 1259              		.loc 9 149 3 view .LVU384
 1260              		.loc 9 149 33 is_stmt 0 view .LVU385
 1261 01ca D6ED017A 		vldr.32	s15, [r6, #4]
 1262 01ce 77EE877A 		vadd.f32	s15, s15, s14
 150:eurorack/plaits/dsp/voice.cc ****   CONSTRAIN(p.harmonics, 0.0f, 1.0f);
 1263              		.loc 9 150 3 is_stmt 1 view .LVU386
 1264 01d2 F5EEC07A 		vcmpe.f32	s15, #0
 1265 01d6 F1EE10FA 		vmrs	APSR_nzcv, FPSCR
 1266 01da 40F16181 		bpl	.L111
 1267              		.loc 9 150 3 discriminator 1 view .LVU387
 1268 01de 8DED0CBA 		vstr.32	s22, [sp, #48]
 1269              	.L53:
 1270              		.loc 9 150 37 discriminator 6 view .LVU388
 151:eurorack/plaits/dsp/voice.cc **** 
 152:eurorack/plaits/dsp/voice.cc ****   float internal_envelope_amplitude = 1.0f;
 1271              		.loc 9 152 3 discriminator 6 view .LVU389
 1272              	.LVL95:
 153:eurorack/plaits/dsp/voice.cc ****   if (engine_index == 7) {
 1273              		.loc 9 153 3 discriminator 6 view .LVU390
 1274 01e2 072F     		cmp	r7, #7
 1275 01e4 40F06581 		bne	.L82
 154:eurorack/plaits/dsp/voice.cc ****     internal_envelope_amplitude = 2.0f - p.harmonics * 6.0f;
 1276              		.loc 9 154 5 view .LVU391
 1277              		.loc 9 154 33 is_stmt 0 view .LVU392
 1278 01e8 F1EE087A 		vmov.f32	s15, #6.0e+0
 1279 01ec 9DED0C6A 		vldr.32	s12, [sp, #48]
 1280 01f0 B0EE497A 		vmov.f32	s14, s18
 1281 01f4 A6EE677A 		vfms.f32	s14, s12, s15
 1282              	.LVL96:
 155:eurorack/plaits/dsp/voice.cc ****     CONSTRAIN(internal_envelope_amplitude, 0.0f, 1.0f);
 1283              		.loc 9 155 5 is_stmt 1 view .LVU393
 1284 01f8 B5EEC07A 		vcmpe.f32	s14, #0
 1285 01fc F1EE10FA 		vmrs	APSR_nzcv, FPSCR
 1286 0200 00F15A81 		bmi	.L83
 1287              		.loc 9 155 5 discriminator 2 view .LVU394
 152:eurorack/plaits/dsp/voice.cc ****   if (engine_index == 7) {
 1288              		.loc 9 152 9 is_stmt 0 discriminator 2 view .LVU395
ARM GAS  /var/folders/9s/8rp0_f2s1n31qbztm3b5_fdh0000gn/T//cc00qguF.s 			page 53


 1289 0204 B4EE687A 		vcmp.f32	s14, s17
 1290 0208 F7EE007A 		vmov.f32	s15, #1.0e+0
 1291 020c F1EE10FA 		vmrs	APSR_nzcv, FPSCR
 1292 0210 37FE877A 		vselgt.f32	s14, s15, s14
 1293              	.LVL97:
 1294              	.L55:
 156:eurorack/plaits/dsp/voice.cc ****     //speech_engine_.set_prosody_amount(
 157:eurorack/plaits/dsp/voice.cc ****     //    !modulations.trigger_patched || modulations.frequency_patched ?
 158:eurorack/plaits/dsp/voice.cc ****     //        0.0f : patch.frequency_modulation_amount);
 159:eurorack/plaits/dsp/voice.cc ****     //speech_engine_.set_speed( 
 160:eurorack/plaits/dsp/voice.cc ****     //    !modulations.trigger_patched || modulations.morph_patched ?
 161:eurorack/plaits/dsp/voice.cc ****     //        0.0f : patch.morph_modulation_amount);
 162:eurorack/plaits/dsp/voice.cc ****   }
 163:eurorack/plaits/dsp/voice.cc **** 
 164:eurorack/plaits/dsp/voice.cc ****   p.note = ApplyModulations(
 1295              		.loc 9 164 3 is_stmt 1 view .LVU396
 165:eurorack/plaits/dsp/voice.cc ****       patch.note + note,
 166:eurorack/plaits/dsp/voice.cc ****       patch.frequency_modulation_amount,
 1296              		.loc 9 166 13 is_stmt 0 view .LVU397
 1297 0214 96ED046A 		vldr.32	s12, [r6, #16]
 167:eurorack/plaits/dsp/voice.cc ****       modulations.frequency_patched,
 168:eurorack/plaits/dsp/voice.cc ****       modulations.frequency,
 169:eurorack/plaits/dsp/voice.cc ****       use_internal_envelope,
 170:eurorack/plaits/dsp/voice.cc ****       internal_envelope_amplitude * \
 1298              		.loc 9 170 35 view .LVU398
 1299 0218 27EE057A 		vmul.f32	s14, s14, s10
 1300              	.LVL98:
 1301              	.LBB323:
 1302              	.LBB324:
 1303              	.LBB325:
 1304              	.LBB326:
 1305              		.loc 13 260 9 view .LVU399
 1306 021c 9FED644A 		vldr.32	s8, .L115+12
 1307              	.LBE326:
 1308              	.LBE325:
 110:eurorack/plaits/dsp/voice.h ****   
 111:eurorack/plaits/dsp/voice.h ****  private:
 112:eurorack/plaits/dsp/voice.h ****   stmlib::Limiter limiter_;
 113:eurorack/plaits/dsp/voice.h ****   LowPassGate lpg_;
 114:eurorack/plaits/dsp/voice.h ****   
 115:eurorack/plaits/dsp/voice.h ****   DISALLOW_COPY_AND_ASSIGN(ChannelPostProcessor);
 116:eurorack/plaits/dsp/voice.h **** };
 117:eurorack/plaits/dsp/voice.h **** 
 118:eurorack/plaits/dsp/voice.h **** struct Patch {
 119:eurorack/plaits/dsp/voice.h ****   float note;
 120:eurorack/plaits/dsp/voice.h ****   float harmonics;
 121:eurorack/plaits/dsp/voice.h ****   float timbre;
 122:eurorack/plaits/dsp/voice.h ****   float morph;
 123:eurorack/plaits/dsp/voice.h ****   float frequency_modulation_amount;
 124:eurorack/plaits/dsp/voice.h ****   float timbre_modulation_amount;
 125:eurorack/plaits/dsp/voice.h ****   float morph_modulation_amount;
 126:eurorack/plaits/dsp/voice.h **** 
 127:eurorack/plaits/dsp/voice.h ****   int engine;
 128:eurorack/plaits/dsp/voice.h ****   float decay;
 129:eurorack/plaits/dsp/voice.h ****   float lpg_colour;
 130:eurorack/plaits/dsp/voice.h **** };
 131:eurorack/plaits/dsp/voice.h **** 
ARM GAS  /var/folders/9s/8rp0_f2s1n31qbztm3b5_fdh0000gn/T//cc00qguF.s 			page 54


 132:eurorack/plaits/dsp/voice.h **** struct Modulations {
 133:eurorack/plaits/dsp/voice.h ****   float engine;
 134:eurorack/plaits/dsp/voice.h ****   float note;
 135:eurorack/plaits/dsp/voice.h ****   float frequency;
 136:eurorack/plaits/dsp/voice.h ****   float harmonics;
 137:eurorack/plaits/dsp/voice.h ****   float timbre;
 138:eurorack/plaits/dsp/voice.h ****   float morph;
 139:eurorack/plaits/dsp/voice.h ****   float trigger;
 140:eurorack/plaits/dsp/voice.h ****   float level;
 141:eurorack/plaits/dsp/voice.h **** 
 142:eurorack/plaits/dsp/voice.h ****   bool frequency_patched;
 143:eurorack/plaits/dsp/voice.h ****   bool timbre_patched;
 144:eurorack/plaits/dsp/voice.h ****   bool morph_patched;
 145:eurorack/plaits/dsp/voice.h ****   bool trigger_patched;
 146:eurorack/plaits/dsp/voice.h ****   bool level_patched;
 147:eurorack/plaits/dsp/voice.h **** };
 148:eurorack/plaits/dsp/voice.h **** 
 149:eurorack/plaits/dsp/voice.h **** class Voice {
 150:eurorack/plaits/dsp/voice.h ****  public:
 151:eurorack/plaits/dsp/voice.h ****   Voice() { }
 152:eurorack/plaits/dsp/voice.h ****   ~Voice() { }
 153:eurorack/plaits/dsp/voice.h ****   
 154:eurorack/plaits/dsp/voice.h ****   struct Frame {
 155:eurorack/plaits/dsp/voice.h ****     short out;
 156:eurorack/plaits/dsp/voice.h ****     short aux;
 157:eurorack/plaits/dsp/voice.h ****   };
 158:eurorack/plaits/dsp/voice.h ****   
 159:eurorack/plaits/dsp/voice.h ****   void Init(stmlib::BufferAllocator* allocator);
 160:eurorack/plaits/dsp/voice.h ****   void Render(
 161:eurorack/plaits/dsp/voice.h ****       const Patch& patch,
 162:eurorack/plaits/dsp/voice.h ****       const Modulations& modulations,
 163:eurorack/plaits/dsp/voice.h ****       Frame* frames,
 164:eurorack/plaits/dsp/voice.h ****       size_t size);
 165:eurorack/plaits/dsp/voice.h ****   inline int active_engine() const { return previous_engine_index_; }
 166:eurorack/plaits/dsp/voice.h ****   
 167:eurorack/plaits/dsp/voice.h ****   inline int GetNumEngines() const{ return engines_.size(); }
 168:eurorack/plaits/dsp/voice.h **** 
 169:eurorack/plaits/dsp/voice.h ****  private:
 170:eurorack/plaits/dsp/voice.h ****   void ComputeDecayParameters(const Patch& settings);
 171:eurorack/plaits/dsp/voice.h ****   
 172:eurorack/plaits/dsp/voice.h ****   inline float ApplyModulations(
 173:eurorack/plaits/dsp/voice.h ****       float base_value,
 174:eurorack/plaits/dsp/voice.h ****       float modulation_amount,
 175:eurorack/plaits/dsp/voice.h ****       bool use_external_modulation,
 176:eurorack/plaits/dsp/voice.h ****       float external_modulation,
 177:eurorack/plaits/dsp/voice.h ****       bool use_internal_envelope,
 178:eurorack/plaits/dsp/voice.h ****       float envelope,
 179:eurorack/plaits/dsp/voice.h ****       float default_internal_modulation,
 180:eurorack/plaits/dsp/voice.h ****       float minimum_value,
 181:eurorack/plaits/dsp/voice.h ****       float maximum_value) {
 182:eurorack/plaits/dsp/voice.h ****     float value = base_value;
 183:eurorack/plaits/dsp/voice.h ****     modulation_amount *= std::max(fabsf(modulation_amount) - 0.05f, 0.05f);
 1309              		.loc 3 183 40 view .LVU400
 1310 0220 F0EEC65A 		vabs.f32	s11, s12
 1311              	.LBE324:
 1312              	.LBE323:
 164:eurorack/plaits/dsp/voice.cc ****       patch.note + note,
ARM GAS  /var/folders/9s/8rp0_f2s1n31qbztm3b5_fdh0000gn/T//cc00qguF.s 			page 55


 1313              		.loc 9 164 28 view .LVU401
 1314 0224 D6ED007A 		vldr.32	s15, [r6]
 1315              	.LBB334:
 1316              	.LBB329:
 184:eurorack/plaits/dsp/voice.h ****     modulation_amount *= 1.05f;
 1317              		.loc 3 184 23 view .LVU402
 1318 0228 DFED643A 		vldr.32	s7, .L115+24
 1319              	.LBE329:
 1320              	.LBE334:
 167:eurorack/plaits/dsp/voice.cc ****       modulations.frequency,
 1321              		.loc 9 167 19 view .LVU403
 1322 022c 95F82030 		ldrb	r3, [r5, #32]	@ zero_extendqisi2
 164:eurorack/plaits/dsp/voice.cc ****       patch.note + note,
 1323              		.loc 9 164 28 view .LVU404
 1324 0230 78EE277A 		vadd.f32	s15, s16, s15
 1325              	.LBB335:
 1326              	.LBB330:
 183:eurorack/plaits/dsp/voice.h ****     modulation_amount *= 1.05f;
 1327              		.loc 3 183 60 view .LVU405
 1328 0234 75EEE65A 		vsub.f32	s11, s11, s13
 1329              	.LBE330:
 1330              	.LBE335:
 168:eurorack/plaits/dsp/voice.cc ****       use_internal_envelope,
 1331              		.loc 9 168 19 view .LVU406
 1332 0238 D5ED024A 		vldr.32	s9, [r5, #8]
 1333              	.LVL99:
 117:eurorack/plaits/dsp/envelope.h ****   }
 118:eurorack/plaits/dsp/envelope.h ****   
 119:eurorack/plaits/dsp/envelope.h ****   inline float value() const { return value_; }
 1334              		.loc 2 119 32 is_stmt 1 view .LVU407
 1335              		.loc 2 119 32 view .LVU408
 1336              	.LBB336:
 1337              	.LBI323:
 172:eurorack/plaits/dsp/voice.h ****       float base_value,
 1338              		.loc 3 172 16 view .LVU409
 1339              	.LBB331:
 182:eurorack/plaits/dsp/voice.h ****     modulation_amount *= std::max(fabsf(modulation_amount) - 0.05f, 0.05f);
 1340              		.loc 3 182 5 view .LVU410
 183:eurorack/plaits/dsp/voice.h ****     modulation_amount *= 1.05f;
 1341              		.loc 3 183 5 view .LVU411
 1342              	.LBB328:
 1343              	.LBI325:
 254:/Library/DaisyToolchain/0.2.0/arm/arm-none-eabi/include/c++/10.3.1/bits/stl_algobase.h ****     {
 1344              		.loc 13 254 5 view .LVU412
 1345              	.LBB327:
 1346              		.loc 13 260 9 is_stmt 0 view .LVU413
 1347 023c F4EE665A 		vcmp.f32	s11, s13
 1348 0240 F1EE10FA 		vmrs	APSR_nzcv, FPSCR
 1349 0244 48BF     		it	mi
 1350 0246 F0EE445A 		vmovmi.f32	s11, s8
 1351              	.LVL100:
 1352              		.loc 13 260 9 view .LVU414
 1353              	.LBE327:
 1354              	.LBE328:
 183:eurorack/plaits/dsp/voice.h ****     modulation_amount *= 1.05f;
 1355              		.loc 3 183 23 view .LVU415
 1356 024a 66EE255A 		vmul.f32	s11, s12, s11
ARM GAS  /var/folders/9s/8rp0_f2s1n31qbztm3b5_fdh0000gn/T//cc00qguF.s 			page 56


 1357              	.LVL101:
 1358              		.loc 3 184 5 is_stmt 1 view .LVU416
 1359              		.loc 3 184 23 is_stmt 0 view .LVU417
 1360 024e 65EEA35A 		vmul.f32	s11, s11, s7
 1361              	.LVL102:
 185:eurorack/plaits/dsp/voice.h ****     
 186:eurorack/plaits/dsp/voice.h ****     float modulation = use_external_modulation
 1362              		.loc 3 186 5 is_stmt 1 view .LVU418
 187:eurorack/plaits/dsp/voice.h ****         ? external_modulation
 1363              		.loc 3 187 9 is_stmt 0 view .LVU419
 1364 0252 4BB9     		cbnz	r3, .L58
 188:eurorack/plaits/dsp/voice.h ****         : (use_internal_envelope ? envelope : default_internal_modulation);
 1365              		.loc 3 188 34 view .LVU420
 1366 0254 B9F1000F 		cmp	r9, #0
 1367 0258 00F03181 		beq	.L85
 1368              	.LBE331:
 1369              	.LBE336:
 171:eurorack/plaits/dsp/voice.cc ****           decay_envelope_.value() * decay_envelope_.value() * 48.0f,
 1370              		.loc 9 171 35 view .LVU421
 1371 025c 67EE054A 		vmul.f32	s9, s14, s10
 1372              	.LVL103:
 164:eurorack/plaits/dsp/voice.cc ****       patch.note + note,
 1373              		.loc 9 164 28 view .LVU422
 1374 0260 9FED576A 		vldr.32	s12, .L115+28
 1375 0264 64EE864A 		vmul.f32	s9, s9, s12
 1376              	.LVL104:
 1377              	.L58:
 1378              	.LBB337:
 1379              	.LBB332:
 189:eurorack/plaits/dsp/voice.h ****     value += modulation_amount * modulation;
 1380              		.loc 3 189 5 is_stmt 1 view .LVU423
 1381              		.loc 3 189 11 is_stmt 0 view .LVU424
 1382 0268 E5EEA47A 		vfma.f32	s15, s11, s9
 1383              	.LVL105:
 190:eurorack/plaits/dsp/voice.h ****     CONSTRAIN(value, minimum_value, maximum_value);
 1384              		.loc 3 190 5 is_stmt 1 view .LVU425
 1385 026c 9FED556A 		vldr.32	s12, .L115+32
 1386 0270 F4EEC67A 		vcmpe.f32	s15, s12
 1387 0274 F1EE10FA 		vmrs	APSR_nzcv, FPSCR
 1388 0278 00F12481 		bmi	.L86
 1389              		.loc 3 190 5 view .LVU426
 1390 027c 9FED526A 		vldr.32	s12, .L115+36
 1391 0280 F4EE467A 		vcmp.f32	s15, s12
 1392 0284 F1EE10FA 		vmrs	APSR_nzcv, FPSCR
 1393 0288 76FE277A 		vselgt.f32	s15, s12, s15
 1394              	.LVL106:
 1395              	.L59:
 1396              		.loc 3 190 51 view .LVU427
 191:eurorack/plaits/dsp/voice.h ****     return value;
 1397              		.loc 3 191 5 view .LVU428
 1398              		.loc 3 191 5 is_stmt 0 view .LVU429
 1399              	.LBE332:
 1400              	.LBE337:
 172:eurorack/plaits/dsp/voice.cc ****       1.0f,
 173:eurorack/plaits/dsp/voice.cc ****       -119.0f,
 174:eurorack/plaits/dsp/voice.cc ****       120.0f);
 175:eurorack/plaits/dsp/voice.cc **** 
ARM GAS  /var/folders/9s/8rp0_f2s1n31qbztm3b5_fdh0000gn/T//cc00qguF.s 			page 57


 176:eurorack/plaits/dsp/voice.cc ****   p.timbre = ApplyModulations(
 177:eurorack/plaits/dsp/voice.cc ****       patch.timbre,
 178:eurorack/plaits/dsp/voice.cc ****       patch.timbre_modulation_amount,
 1401              		.loc 9 178 13 view .LVU430
 1402 028c D6ED055A 		vldr.32	s11, [r6, #20]
 1403              	.LBB338:
 1404              	.LBB339:
 1405              	.LBB340:
 1406              	.LBB341:
 1407              		.loc 13 260 9 view .LVU431
 1408 0290 9FED476A 		vldr.32	s12, .L115+12
 1409              	.LBE341:
 1410              	.LBE340:
 183:eurorack/plaits/dsp/voice.h ****     modulation_amount *= 1.05f;
 1411              		.loc 3 183 40 view .LVU432
 1412 0294 F0EEE54A 		vabs.f32	s9, s11
 1413              	.LVL107:
 183:eurorack/plaits/dsp/voice.h ****     modulation_amount *= 1.05f;
 1414              		.loc 3 183 40 view .LVU433
 1415              	.LBE339:
 1416              	.LBE338:
 179:eurorack/plaits/dsp/voice.cc ****       modulations.timbre_patched,
 1417              		.loc 9 179 19 view .LVU434
 1418 0298 95F82130 		ldrb	r3, [r5, #33]	@ zero_extendqisi2
 164:eurorack/plaits/dsp/voice.cc ****       patch.note + note,
 1419              		.loc 9 164 10 view .LVU435
 1420 029c CDED097A 		vstr.32	s15, [sp, #36]
 176:eurorack/plaits/dsp/voice.cc ****       patch.timbre,
 1421              		.loc 9 176 3 is_stmt 1 view .LVU436
 180:eurorack/plaits/dsp/voice.cc ****       modulations.timbre,
 1422              		.loc 9 180 19 is_stmt 0 view .LVU437
 1423 02a0 95ED044A 		vldr.32	s8, [r5, #16]
 1424              	.LVL108:
 1425              		.loc 2 119 32 is_stmt 1 view .LVU438
 1426              	.LBB347:
 1427              	.LBB344:
 183:eurorack/plaits/dsp/voice.h ****     modulation_amount *= 1.05f;
 1428              		.loc 3 183 60 is_stmt 0 view .LVU439
 1429 02a4 74EEE64A 		vsub.f32	s9, s9, s13
 1430              	.LBE344:
 1431              	.LBE347:
 177:eurorack/plaits/dsp/voice.cc ****       patch.timbre_modulation_amount,
 1432              		.loc 9 177 13 view .LVU440
 1433 02a8 D6ED027A 		vldr.32	s15, [r6, #8]
 1434              	.LVL109:
 1435              	.LBB348:
 1436              	.LBI338:
 172:eurorack/plaits/dsp/voice.h ****       float base_value,
 1437              		.loc 3 172 16 is_stmt 1 view .LVU441
 1438              	.LBB345:
 182:eurorack/plaits/dsp/voice.h ****     modulation_amount *= std::max(fabsf(modulation_amount) - 0.05f, 0.05f);
 1439              		.loc 3 182 5 view .LVU442
 183:eurorack/plaits/dsp/voice.h ****     modulation_amount *= 1.05f;
 1440              		.loc 3 183 5 view .LVU443
 1441              	.LBB343:
 1442              	.LBI340:
 254:/Library/DaisyToolchain/0.2.0/arm/arm-none-eabi/include/c++/10.3.1/bits/stl_algobase.h ****     {
ARM GAS  /var/folders/9s/8rp0_f2s1n31qbztm3b5_fdh0000gn/T//cc00qguF.s 			page 58


 1443              		.loc 13 254 5 view .LVU444
 1444              	.LBB342:
 1445              		.loc 13 260 9 is_stmt 0 view .LVU445
 1446 02ac F4EE664A 		vcmp.f32	s9, s13
 1447 02b0 F1EE10FA 		vmrs	APSR_nzcv, FPSCR
 1448 02b4 48BF     		it	mi
 1449 02b6 F0EE464A 		vmovmi.f32	s9, s12
 1450              	.LVL110:
 1451              		.loc 13 260 9 view .LVU446
 1452              	.LBE342:
 1453              	.LBE343:
 183:eurorack/plaits/dsp/voice.h ****     modulation_amount *= 1.05f;
 1454              		.loc 3 183 23 view .LVU447
 1455 02ba 65EEA45A 		vmul.f32	s11, s11, s9
 1456              	.LVL111:
 184:eurorack/plaits/dsp/voice.h ****     
 1457              		.loc 3 184 5 is_stmt 1 view .LVU448
 184:eurorack/plaits/dsp/voice.h ****     
 1458              		.loc 3 184 23 is_stmt 0 view .LVU449
 1459 02be 65EEA35A 		vmul.f32	s11, s11, s7
 1460              	.LVL112:
 186:eurorack/plaits/dsp/voice.h ****         ? external_modulation
 1461              		.loc 3 186 5 is_stmt 1 view .LVU450
 187:eurorack/plaits/dsp/voice.h ****         : (use_internal_envelope ? envelope : default_internal_modulation);
 1462              		.loc 3 187 9 is_stmt 0 view .LVU451
 1463 02c2 2BB9     		cbnz	r3, .L62
 188:eurorack/plaits/dsp/voice.h ****     value += modulation_amount * modulation;
 1464              		.loc 3 188 34 view .LVU452
 1465 02c4 B9F1000F 		cmp	r9, #0
 1466 02c8 9FED364A 		vldr.32	s8, .L115
 1467              	.LVL113:
 188:eurorack/plaits/dsp/voice.h ****     value += modulation_amount * modulation;
 1468              		.loc 3 188 34 view .LVU453
 1469 02cc 04FE054A 		vseleq.f32	s8, s8, s10
 1470              	.L62:
 1471              	.LVL114:
 189:eurorack/plaits/dsp/voice.h ****     CONSTRAIN(value, minimum_value, maximum_value);
 1472              		.loc 3 189 5 is_stmt 1 view .LVU454
 189:eurorack/plaits/dsp/voice.h ****     CONSTRAIN(value, minimum_value, maximum_value);
 1473              		.loc 3 189 11 is_stmt 0 view .LVU455
 1474 02d0 E5EE847A 		vfma.f32	s15, s11, s8
 1475              	.LVL115:
 190:eurorack/plaits/dsp/voice.h ****     return value;
 1476              		.loc 3 190 5 is_stmt 1 view .LVU456
 1477 02d4 F5EEC07A 		vcmpe.f32	s15, #0
 1478 02d8 F1EE10FA 		vmrs	APSR_nzcv, FPSCR
 1479 02dc 00F1F580 		bmi	.L89
 190:eurorack/plaits/dsp/voice.h ****     return value;
 1480              		.loc 3 190 5 view .LVU457
 1481 02e0 F4EE687A 		vcmp.f32	s15, s17
 1482 02e4 B7EE006A 		vmov.f32	s12, #1.0e+0
 1483 02e8 F1EE10FA 		vmrs	APSR_nzcv, FPSCR
 1484 02ec 76FE277A 		vselgt.f32	s15, s12, s15
 1485              	.LVL116:
 1486              	.L63:
 190:eurorack/plaits/dsp/voice.h ****     return value;
 1487              		.loc 3 190 51 view .LVU458
ARM GAS  /var/folders/9s/8rp0_f2s1n31qbztm3b5_fdh0000gn/T//cc00qguF.s 			page 59


 1488              		.loc 3 191 5 view .LVU459
 1489              		.loc 3 191 5 is_stmt 0 view .LVU460
 1490              	.LBE345:
 1491              	.LBE348:
 181:eurorack/plaits/dsp/voice.cc ****       use_internal_envelope,
 182:eurorack/plaits/dsp/voice.cc ****       decay_envelope_.value(),
 183:eurorack/plaits/dsp/voice.cc ****       0.0f,
 184:eurorack/plaits/dsp/voice.cc ****       0.0f,
 185:eurorack/plaits/dsp/voice.cc ****       1.0f);
 186:eurorack/plaits/dsp/voice.cc **** 
 187:eurorack/plaits/dsp/voice.cc ****   p.morph = ApplyModulations(
 188:eurorack/plaits/dsp/voice.cc ****       patch.morph,
 189:eurorack/plaits/dsp/voice.cc ****       patch.morph_modulation_amount,
 1492              		.loc 9 189 13 view .LVU461
 1493 02f0 96ED066A 		vldr.32	s12, [r6, #24]
 190:eurorack/plaits/dsp/voice.cc ****       modulations.morph_patched,
 1494              		.loc 9 190 19 view .LVU462
 1495 02f4 95F82230 		ldrb	r3, [r5, #34]	@ zero_extendqisi2
 1496              	.LBB349:
 1497              	.LBB350:
 183:eurorack/plaits/dsp/voice.h ****     modulation_amount *= 1.05f;
 1498              		.loc 3 183 40 view .LVU463
 1499 02f8 F0EEC65A 		vabs.f32	s11, s12
 1500              	.LBE350:
 1501              	.LBE349:
 176:eurorack/plaits/dsp/voice.cc ****       patch.timbre,
 1502              		.loc 9 176 12 view .LVU464
 1503 02fc CDED0A7A 		vstr.32	s15, [sp, #40]
 187:eurorack/plaits/dsp/voice.cc ****       patch.morph,
 1504              		.loc 9 187 3 is_stmt 1 view .LVU465
 191:eurorack/plaits/dsp/voice.cc ****       modulations.morph,
 1505              		.loc 9 191 19 is_stmt 0 view .LVU466
 1506 0300 95ED055A 		vldr.32	s10, [r5, #20]
 1507              	.LVL117:
 1508              		.loc 2 119 32 is_stmt 1 view .LVU467
 188:eurorack/plaits/dsp/voice.cc ****       patch.morph_modulation_amount,
 1509              		.loc 9 188 13 is_stmt 0 view .LVU468
 1510 0304 D6ED037A 		vldr.32	s15, [r6, #12]
 1511              	.LVL118:
 1512              	.LBB355:
 1513              	.LBI349:
 172:eurorack/plaits/dsp/voice.h ****       float base_value,
 1514              		.loc 3 172 16 is_stmt 1 view .LVU469
 1515              	.LBB353:
 182:eurorack/plaits/dsp/voice.h ****     modulation_amount *= std::max(fabsf(modulation_amount) - 0.05f, 0.05f);
 1516              		.loc 3 182 5 view .LVU470
 183:eurorack/plaits/dsp/voice.h ****     modulation_amount *= 1.05f;
 1517              		.loc 3 183 5 view .LVU471
 183:eurorack/plaits/dsp/voice.h ****     modulation_amount *= 1.05f;
 1518              		.loc 3 183 60 is_stmt 0 view .LVU472
 1519 0308 75EEE65A 		vsub.f32	s11, s11, s13
 1520              	.LVL119:
 1521              	.LBB351:
 1522              	.LBI351:
 254:/Library/DaisyToolchain/0.2.0/arm/arm-none-eabi/include/c++/10.3.1/bits/stl_algobase.h ****     {
 1523              		.loc 13 254 5 is_stmt 1 view .LVU473
 1524              	.LBB352:
ARM GAS  /var/folders/9s/8rp0_f2s1n31qbztm3b5_fdh0000gn/T//cc00qguF.s 			page 60


 1525              		.loc 13 260 9 is_stmt 0 view .LVU474
 1526 030c F4EE665A 		vcmp.f32	s11, s13
 1527 0310 DFED276A 		vldr.32	s13, .L115+12
 1528 0314 F1EE10FA 		vmrs	APSR_nzcv, FPSCR
 1529 0318 48BF     		it	mi
 1530 031a F0EE665A 		vmovmi.f32	s11, s13
 1531              	.LVL120:
 1532              		.loc 13 260 9 view .LVU475
 1533              	.LBE352:
 1534              	.LBE351:
 183:eurorack/plaits/dsp/voice.h ****     modulation_amount *= 1.05f;
 1535              		.loc 3 183 23 view .LVU476
 1536 031e 26EE256A 		vmul.f32	s12, s12, s11
 1537              	.LVL121:
 184:eurorack/plaits/dsp/voice.h ****     
 1538              		.loc 3 184 5 is_stmt 1 view .LVU477
 184:eurorack/plaits/dsp/voice.h ****     
 1539              		.loc 3 184 23 is_stmt 0 view .LVU478
 1540 0322 26EE236A 		vmul.f32	s12, s12, s7
 1541              	.LVL122:
 186:eurorack/plaits/dsp/voice.h ****         ? external_modulation
 1542              		.loc 3 186 5 is_stmt 1 view .LVU479
 187:eurorack/plaits/dsp/voice.h ****         : (use_internal_envelope ? envelope : default_internal_modulation);
 1543              		.loc 3 187 9 is_stmt 0 view .LVU480
 1544 0326 2BB9     		cbnz	r3, .L66
 188:eurorack/plaits/dsp/voice.h ****     value += modulation_amount * modulation;
 1545              		.loc 3 188 34 view .LVU481
 1546 0328 B9F1000F 		cmp	r9, #0
 1547 032c 9FED1D5A 		vldr.32	s10, .L115
 1548              	.LVL123:
 188:eurorack/plaits/dsp/voice.h ****     value += modulation_amount * modulation;
 1549              		.loc 3 188 34 view .LVU482
 1550 0330 05FE075A 		vseleq.f32	s10, s10, s14
 1551              	.L66:
 1552              	.LVL124:
 189:eurorack/plaits/dsp/voice.h ****     CONSTRAIN(value, minimum_value, maximum_value);
 1553              		.loc 3 189 5 is_stmt 1 view .LVU483
 189:eurorack/plaits/dsp/voice.h ****     CONSTRAIN(value, minimum_value, maximum_value);
 1554              		.loc 3 189 11 is_stmt 0 view .LVU484
 1555 0334 E6EE057A 		vfma.f32	s15, s12, s10
 1556              	.LVL125:
 190:eurorack/plaits/dsp/voice.h ****     return value;
 1557              		.loc 3 190 5 is_stmt 1 view .LVU485
 1558 0338 F5EEC07A 		vcmpe.f32	s15, #0
 1559 033c F1EE10FA 		vmrs	APSR_nzcv, FPSCR
 1560 0340 00F1C680 		bmi	.L92
 190:eurorack/plaits/dsp/voice.h ****     return value;
 1561              		.loc 3 190 5 view .LVU486
 1562 0344 F4EE687A 		vcmp.f32	s15, s17
 1563 0348 B7EE007A 		vmov.f32	s14, #1.0e+0
 1564              	.LVL126:
 190:eurorack/plaits/dsp/voice.h ****     return value;
 1565              		.loc 3 190 5 is_stmt 0 view .LVU487
 1566 034c F1EE10FA 		vmrs	APSR_nzcv, FPSCR
 1567 0350 77FE277A 		vselgt.f32	s15, s14, s15
 1568              	.LVL127:
 1569              	.L67:
ARM GAS  /var/folders/9s/8rp0_f2s1n31qbztm3b5_fdh0000gn/T//cc00qguF.s 			page 61


 190:eurorack/plaits/dsp/voice.h ****     return value;
 1570              		.loc 3 190 51 is_stmt 1 view .LVU488
 1571              		.loc 3 191 5 view .LVU489
 1572              		.loc 3 191 5 is_stmt 0 view .LVU490
 1573              	.LBE353:
 1574              	.LBE355:
 192:eurorack/plaits/dsp/voice.cc ****       use_internal_envelope,
 193:eurorack/plaits/dsp/voice.cc ****       internal_envelope_amplitude * decay_envelope_.value(),
 194:eurorack/plaits/dsp/voice.cc ****       0.0f,
 195:eurorack/plaits/dsp/voice.cc ****       0.0f,
 196:eurorack/plaits/dsp/voice.cc ****       1.0f);
 197:eurorack/plaits/dsp/voice.cc **** 
 198:eurorack/plaits/dsp/voice.cc ****   bool already_enveloped = pp_s.already_enveloped;
 1575              		.loc 9 198 8 view .LVU491
 1576 0354 98F80C30 		ldrb	r3, [r8, #12]	@ zero_extendqisi2
 199:eurorack/plaits/dsp/voice.cc ****   e->Render(p, out_buffer_, aux_buffer_, size, &already_enveloped);
 1577              		.loc 9 199 12 view .LVU492
 1578 0358 0DF11F02 		add	r2, sp, #31
 1579              		.loc 9 199 16 view .LVU493
 1580 035c 04F54F69 		add	r9, r4, #3312
 1581              	.LVL128:
 1582              		.loc 9 199 29 view .LVU494
 1583 0360 04F5556A 		add	r10, r4, #3408
 198:eurorack/plaits/dsp/voice.cc ****   e->Render(p, out_buffer_, aux_buffer_, size, &already_enveloped);
 1584              		.loc 9 198 8 view .LVU495
 1585 0364 8DF81F30 		strb	r3, [sp, #31]
 1586              		.loc 9 199 12 view .LVU496
 1587 0368 08A9     		add	r1, sp, #32
 1588              		.loc 9 199 66 view .LVU497
 1589 036a D8F80030 		ldr	r3, [r8]
 1590              		.loc 9 199 12 view .LVU498
 1591 036e 4046     		mov	r0, r8
 1592 0370 0192     		str	r2, [sp, #4]
 1593 0372 209A     		ldr	r2, [sp, #128]
 187:eurorack/plaits/dsp/voice.cc ****       patch.morph,
 1594              		.loc 9 187 11 view .LVU499
 1595 0374 CDED0B7A 		vstr.32	s15, [sp, #44]
 198:eurorack/plaits/dsp/voice.cc ****   e->Render(p, out_buffer_, aux_buffer_, size, &already_enveloped);
 1596              		.loc 9 198 3 is_stmt 1 view .LVU500
 1597              		.loc 9 199 3 view .LVU501
 1598              		.loc 9 199 12 is_stmt 0 view .LVU502
 1599 0378 0092     		str	r2, [sp]
 1600 037a 4A46     		mov	r2, r9
 1601 037c 9F68     		ldr	r7, [r3, #8]
 1602              	.LVL129:
 1603              		.loc 9 199 12 view .LVU503
 1604 037e 5346     		mov	r3, r10
 1605 0380 B847     		blx	r7
 1606              	.LVL130:
 200:eurorack/plaits/dsp/voice.cc ****   
 201:eurorack/plaits/dsp/voice.cc ****   bool lpg_bypass = already_enveloped || \
 1607              		.loc 9 201 3 is_stmt 1 view .LVU504
 1608              		.loc 9 201 39 is_stmt 0 view .LVU505
 1609 0382 9DF81FB0 		ldrb	fp, [sp, #31]	@ zero_extendqisi2
 1610 0386 04F63847 		addw	r7, r4, #3128
 1611 038a BBF1000F 		cmp	fp, #0
 1612 038e 4ED1     		bne	.L69
ARM GAS  /var/folders/9s/8rp0_f2s1n31qbztm3b5_fdh0000gn/T//cc00qguF.s 			page 62


 202:eurorack/plaits/dsp/voice.cc ****       (!modulations.level_patched && !modulations.trigger_patched);
 1613              		.loc 9 202 21 discriminator 2 view .LVU506
 1614 0390 95F82430 		ldrb	r3, [r5, #36]	@ zero_extendqisi2
 201:eurorack/plaits/dsp/voice.cc ****       (!modulations.level_patched && !modulations.trigger_patched);
 1615              		.loc 9 201 39 discriminator 2 view .LVU507
 1616 0394 43BB     		cbnz	r3, .L70
 1617              		.loc 9 202 35 view .LVU508
 1618 0396 95F82320 		ldrb	r2, [r5, #35]	@ zero_extendqisi2
 1619 039a 002A     		cmp	r2, #0
 1620 039c 00F0E180 		beq	.L93
 1621 03a0 22E0     		b	.L116
 1622              	.L117:
 1623 03a2 00BF     		.align	2
 1624              	.L115:
 1625 03a4 00000000 		.word	0
 1626 03a8 9A99993E 		.word	1050253722
 1627 03ac 0000C0C2 		.word	-1027604480
 1628 03b0 CDCC4C3D 		.word	1028443341
 1629 03b4 6666A63F 		.word	1067869798
 1630 03b8 CDCC4C3F 		.word	1061997773
 1631 03bc 6666863F 		.word	1065772646
 1632 03c0 00004042 		.word	1111490560
 1633 03c4 0000EEC2 		.word	-1024589824
 1634 03c8 0000F042 		.word	1123024896
 1635 03cc 000090C2 		.word	-1030750208
 1636 03d0 0AD7A33B 		.word	1000593162
 1637 03d4 CDCCCC3D 		.word	1036831949
 1638 03d8 000000C3 		.word	-1023410176
 1639 03dc 0000FE42 		.word	1123942400
 1640 03e0 51969639 		.word	966170193
 1641 03e4 00000000 		.word	0
 1642              	.L116:
 1643              	.L70:
 1644              	.LBB356:
 203:eurorack/plaits/dsp/voice.cc ****   
 204:eurorack/plaits/dsp/voice.cc ****   // Compute LPG parameters.
 205:eurorack/plaits/dsp/voice.cc ****   if (!lpg_bypass) {
 206:eurorack/plaits/dsp/voice.cc ****     const float hf = patch.lpg_colour;
 207:eurorack/plaits/dsp/voice.cc ****     const float decay_tail = (20.0f * kBlockSize) / kSampleRate *
 208:eurorack/plaits/dsp/voice.cc ****         SemitonesToRatio(-72.0f * patch.decay + 12.0f * hf) - short_decay;
 1645              		.loc 9 208 55 view .LVU509
 1646 03e8 B2EE088A 		vmov.f32	s16, #1.2e+1
 1647              	.LVL131:
 206:eurorack/plaits/dsp/voice.cc ****     const float decay_tail = (20.0f * kBlockSize) / kSampleRate *
 1648              		.loc 9 206 17 view .LVU510
 1649 03ec D6ED091A 		vldr.32	s3, [r6, #36]
 1650              		.loc 9 208 25 view .LVU511
 1651 03f0 5FED0A7A 		vldr.32	s15, .L115+40
 1652 03f4 96ED087A 		vldr.32	s14, [r6, #32]
 1653              		.loc 9 208 55 view .LVU512
 1654 03f8 21EE880A 		vmul.f32	s0, s3, s16
 1655 03fc 0593     		str	r3, [sp, #20]
 1656              	.LVL132:
 1657              		.loc 9 208 55 view .LVU513
 1658              	.LBE356:
 205:eurorack/plaits/dsp/voice.cc ****     const float hf = patch.lpg_colour;
 1659              		.loc 9 205 3 is_stmt 1 view .LVU514
ARM GAS  /var/folders/9s/8rp0_f2s1n31qbztm3b5_fdh0000gn/T//cc00qguF.s 			page 63


 1660              	.LBB387:
 206:eurorack/plaits/dsp/voice.cc ****     const float decay_tail = (20.0f * kBlockSize) / kSampleRate *
 1661              		.loc 9 206 5 view .LVU515
 207:eurorack/plaits/dsp/voice.cc ****         SemitonesToRatio(-72.0f * patch.decay + 12.0f * hf) - short_decay;
 1662              		.loc 9 207 5 view .LVU516
 1663              		.loc 9 208 55 is_stmt 0 view .LVU517
 1664 03fe CDED041A 		vstr.32	s3, [sp, #16]	@ int
 1665              		.loc 9 208 25 view .LVU518
 1666 0402 A7EE270A 		vfma.f32	s0, s14, s15
 1667 0406 FFF7FEFF 		bl	_ZN6stmlib16SemitonesToRatioEf
 1668              	.LVL133:
 1669              		.loc 9 208 63 view .LVU519
 1670 040a B0EE691A 		vmov.f32	s2, s19
 1671 040e 5FED107A 		vldr.32	s15, .L115+44
 1672              	.LBB357:
 209:eurorack/plaits/dsp/voice.cc ****     
 210:eurorack/plaits/dsp/voice.cc ****     if (modulations.level_patched) {
 1673              		.loc 9 210 5 view .LVU520
 1674 0412 059B     		ldr	r3, [sp, #20]
 1675              	.LBE357:
 208:eurorack/plaits/dsp/voice.cc ****     
 1676              		.loc 9 208 63 view .LVU521
 1677 0414 A0EE271A 		vfma.f32	s2, s0, s15
 1678              	.LVL134:
 1679              		.loc 9 210 5 is_stmt 1 view .LVU522
 1680              	.LBB384:
 1681 0418 DDED041A 		vldr.32	s3, [sp, #16]	@ int
 1682 041c 002B     		cmp	r3, #0
 1683 041e 5AD0     		beq	.L71
 1684              	.LVL135:
 211:eurorack/plaits/dsp/voice.cc ****       lpg_envelope_.ProcessLP(compressed_level, short_decay, decay_tail, hf);
 1685              		.loc 9 211 7 view .LVU523
 1686              		.loc 9 211 30 is_stmt 0 view .LVU524
 1687 0420 F0EE4A0A 		vmov.f32	s1, s20
 1688 0424 3846     		mov	r0, r7
 1689 0426 B0EE6A0A 		vmov.f32	s0, s21
 1690 042a FFF7FEFF 		bl	_ZN6plaits11LPGEnvelope9ProcessLPEffff
 1691              	.LVL136:
 1692              	.L69:
 1693              		.loc 9 211 30 view .LVU525
 1694              	.LBE384:
 1695              	.LBE387:
 212:eurorack/plaits/dsp/voice.cc ****     } else {
 213:eurorack/plaits/dsp/voice.cc ****       const float attack = NoteToFrequency(p.note) * float(kBlockSize) * 2.0f;
 214:eurorack/plaits/dsp/voice.cc ****       lpg_envelope_.ProcessPing(attack, short_decay, decay_tail, hf);
 215:eurorack/plaits/dsp/voice.cc ****     }
 216:eurorack/plaits/dsp/voice.cc ****   }
 217:eurorack/plaits/dsp/voice.cc ****   
 218:eurorack/plaits/dsp/voice.cc ****   out_post_processor_.Process(
 1696              		.loc 9 218 3 is_stmt 1 view .LVU526
 1697              	.LBB388:
 1698              	.LBI388:
  88:eurorack/plaits/dsp/envelope.h ****   inline float frequency() const { return frequency_; }
 1699              		.loc 2 88 16 view .LVU527
 1700              	.LBB389:
  88:eurorack/plaits/dsp/envelope.h ****   inline float frequency() const { return frequency_; }
 1701              		.loc 2 88 31 view .LVU528
ARM GAS  /var/folders/9s/8rp0_f2s1n31qbztm3b5_fdh0000gn/T//cc00qguF.s 			page 64


  88:eurorack/plaits/dsp/envelope.h ****   inline float frequency() const { return frequency_; }
 1702              		.loc 2 88 31 is_stmt 0 view .LVU529
 1703              	.LBE389:
 1704              	.LBE388:
 1705              	.LBB390:
 1706              	.LBI390:
  89:eurorack/plaits/dsp/envelope.h ****   inline float hf_bleed() const { return hf_bleed_; }
 1707              		.loc 2 89 16 is_stmt 1 view .LVU530
 1708              	.LBB391:
  89:eurorack/plaits/dsp/envelope.h ****   inline float hf_bleed() const { return hf_bleed_; }
 1709              		.loc 2 89 36 view .LVU531
  89:eurorack/plaits/dsp/envelope.h ****   inline float hf_bleed() const { return hf_bleed_; }
 1710              		.loc 2 89 36 is_stmt 0 view .LVU532
 1711              	.LBE391:
 1712              	.LBE390:
 1713              	.LBB392:
 1714              	.LBI392:
  90:eurorack/plaits/dsp/envelope.h ****   
 1715              		.loc 2 90 16 is_stmt 1 view .LVU533
 1716              	.LBB393:
  90:eurorack/plaits/dsp/envelope.h ****   
 1717              		.loc 2 90 35 view .LVU534
  90:eurorack/plaits/dsp/envelope.h ****   
 1718              		.loc 2 90 35 is_stmt 0 view .LVU535
 1719              	.LBE393:
 1720              	.LBE392:
 1721              		.loc 9 218 30 view .LVU536
 1722 042e 0225     		movs	r5, #2
 1723              	.LVL137:
 1724              		.loc 9 218 30 view .LVU537
 1725 0430 209B     		ldr	r3, [sp, #128]
 1726 0432 4A46     		mov	r2, r9
 1727 0434 5946     		mov	r1, fp
 1728 0436 0093     		str	r3, [sp]
 1729 0438 0195     		str	r5, [sp, #4]
 1730 043a 029B     		ldr	r3, [sp, #8]
 1731 043c D7ED031A 		vldr.32	s3, [r7, #12]
 1732 0440 97ED021A 		vldr.32	s2, [r7, #8]
 1733 0444 D7ED010A 		vldr.32	s1, [r7, #4]
 1734 0448 98ED010A 		vldr.32	s0, [r8, #4]
 1735 044c 0398     		ldr	r0, [sp, #12]
 1736 044e FFF7FEFF 		bl	_ZN6plaits20ChannelPostProcessor7ProcessEfbfffPfPsjj
 1737              	.LVL138:
 219:eurorack/plaits/dsp/voice.cc ****       pp_s.out_gain,
 220:eurorack/plaits/dsp/voice.cc ****       lpg_bypass,
 221:eurorack/plaits/dsp/voice.cc ****       lpg_envelope_.gain(),
 222:eurorack/plaits/dsp/voice.cc ****       lpg_envelope_.frequency(),
 223:eurorack/plaits/dsp/voice.cc ****       lpg_envelope_.hf_bleed(),
 224:eurorack/plaits/dsp/voice.cc ****       out_buffer_,
 225:eurorack/plaits/dsp/voice.cc ****       &frames->out,
 226:eurorack/plaits/dsp/voice.cc ****       size,
 227:eurorack/plaits/dsp/voice.cc ****       2);
 228:eurorack/plaits/dsp/voice.cc **** 
 229:eurorack/plaits/dsp/voice.cc ****   aux_post_processor_.Process(
 1738              		.loc 9 229 3 is_stmt 1 view .LVU538
 1739              	.LBB394:
 1740              	.LBI394:
ARM GAS  /var/folders/9s/8rp0_f2s1n31qbztm3b5_fdh0000gn/T//cc00qguF.s 			page 65


  88:eurorack/plaits/dsp/envelope.h ****   inline float frequency() const { return frequency_; }
 1741              		.loc 2 88 16 view .LVU539
 1742              	.LBB395:
  88:eurorack/plaits/dsp/envelope.h ****   inline float frequency() const { return frequency_; }
 1743              		.loc 2 88 31 view .LVU540
  88:eurorack/plaits/dsp/envelope.h ****   inline float frequency() const { return frequency_; }
 1744              		.loc 2 88 31 is_stmt 0 view .LVU541
 1745              	.LBE395:
 1746              	.LBE394:
 1747              	.LBB396:
 1748              	.LBI396:
  89:eurorack/plaits/dsp/envelope.h ****   inline float hf_bleed() const { return hf_bleed_; }
 1749              		.loc 2 89 16 is_stmt 1 view .LVU542
 1750              	.LBB397:
  89:eurorack/plaits/dsp/envelope.h ****   inline float hf_bleed() const { return hf_bleed_; }
 1751              		.loc 2 89 36 view .LVU543
  89:eurorack/plaits/dsp/envelope.h ****   inline float hf_bleed() const { return hf_bleed_; }
 1752              		.loc 2 89 36 is_stmt 0 view .LVU544
 1753              	.LBE397:
 1754              	.LBE396:
 1755              	.LBB398:
 1756              	.LBI398:
  90:eurorack/plaits/dsp/envelope.h ****   
 1757              		.loc 2 90 16 is_stmt 1 view .LVU545
 1758              	.LBB399:
  90:eurorack/plaits/dsp/envelope.h ****   
 1759              		.loc 2 90 35 view .LVU546
  90:eurorack/plaits/dsp/envelope.h ****   
 1760              		.loc 2 90 35 is_stmt 0 view .LVU547
 1761              	.LBE399:
 1762              	.LBE398:
 1763              		.loc 9 229 30 view .LVU548
 1764 0452 209B     		ldr	r3, [sp, #128]
 1765 0454 0195     		str	r5, [sp, #4]
 1766 0456 5246     		mov	r2, r10
 1767 0458 0093     		str	r3, [sp]
 1768 045a 5946     		mov	r1, fp
 1769 045c 029B     		ldr	r3, [sp, #8]
 1770 045e 04F54960 		add	r0, r4, #3216
 1771 0462 D7ED031A 		vldr.32	s3, [r7, #12]
 1772 0466 2B44     		add	r3, r3, r5
 1773 0468 97ED021A 		vldr.32	s2, [r7, #8]
 1774 046c D7ED010A 		vldr.32	s1, [r7, #4]
 1775 0470 98ED020A 		vldr.32	s0, [r8, #8]
 1776 0474 FFF7FEFF 		bl	_ZN6plaits20ChannelPostProcessor7ProcessEfbfffPfPsjj
 1777              	.LVL139:
 230:eurorack/plaits/dsp/voice.cc ****       pp_s.aux_gain,
 231:eurorack/plaits/dsp/voice.cc ****       lpg_bypass,
 232:eurorack/plaits/dsp/voice.cc ****       lpg_envelope_.gain(),
 233:eurorack/plaits/dsp/voice.cc ****       lpg_envelope_.frequency(),
 234:eurorack/plaits/dsp/voice.cc ****       lpg_envelope_.hf_bleed(),
 235:eurorack/plaits/dsp/voice.cc ****       aux_buffer_,
 236:eurorack/plaits/dsp/voice.cc ****       &frames->aux,
 237:eurorack/plaits/dsp/voice.cc ****       size,
 238:eurorack/plaits/dsp/voice.cc ****       2);
 239:eurorack/plaits/dsp/voice.cc **** }
 1778              		.loc 9 239 1 view .LVU549
ARM GAS  /var/folders/9s/8rp0_f2s1n31qbztm3b5_fdh0000gn/T//cc00qguF.s 			page 66


 1779 0478 0FB0     		add	sp, sp, #60
 1780              		.cfi_remember_state
 1781              		.cfi_def_cfa_offset 68
 1782              		@ sp needed
 1783 047a BDEC088B 		vldm	sp!, {d8-d11}
 1784              		.cfi_restore 86
 1785              		.cfi_restore 87
 1786              		.cfi_restore 84
 1787              		.cfi_restore 85
 1788              		.cfi_restore 82
 1789              		.cfi_restore 83
 1790              		.cfi_restore 80
 1791              		.cfi_restore 81
 1792              		.cfi_def_cfa_offset 36
 1793              	.LVL140:
 1794              		.loc 9 239 1 view .LVU550
 1795 047e BDE8F08F 		pop	{r4, r5, r6, r7, r8, r9, r10, fp, pc}
 1796              	.LVL141:
 1797              	.L36:
 1798              		.cfi_restore_state
 100:eurorack/plaits/dsp/voice.cc ****       trigger_state_ = false;
 1799              		.loc 9 100 5 is_stmt 1 view .LVU551
 1800 0482 1FED2C7A 		vldr.32	s14, .L115+48
 1801 0486 F4EEC77A 		vcmpe.f32	s15, s14
 1802 048a F1EE10FA 		vmrs	APSR_nzcv, FPSCR
 101:eurorack/plaits/dsp/voice.cc ****     }
 1803              		.loc 9 101 7 view .LVU552
 101:eurorack/plaits/dsp/voice.cc ****     }
 1804              		.loc 9 101 22 is_stmt 0 view .LVU553
 1805 048e 44BF     		itt	mi
 1806 0490 0022     		movmi	r2, #0
 1807 0492 84F8302C 		strbmi	r2, [r4, #3120]
 1808 0496 FCE5     		b	.L37
 1809              	.LVL142:
 1810              	.L79:
 1811              	.LBB400:
 1812              	.LBB300:
  61:eurorack/stmlib/dsp/hysteresis_quantizer.h ****     quantized_value_ = q;
 1813              		.loc 12 61 5 view .LVU554
 1814 0498 0027     		movs	r7, #0
 1815              	.LVL143:
  61:eurorack/stmlib/dsp/hysteresis_quantizer.h ****     quantized_value_ = q;
 1816              		.loc 12 61 5 view .LVU555
 1817 049a 2EE6     		b	.L44
 1818              	.LVL144:
 1819              	.L47:
  61:eurorack/stmlib/dsp/hysteresis_quantizer.h ****     quantized_value_ = q;
 1820              		.loc 12 61 5 view .LVU556
 1821              	.LBE300:
 1822              	.LBE400:
 132:eurorack/plaits/dsp/voice.cc ****   }
 1823              		.loc 9 132 5 is_stmt 1 view .LVU557
 132:eurorack/plaits/dsp/voice.cc ****   }
 1824              		.loc 9 132 15 is_stmt 0 view .LVU558
 1825 049c 0223     		movs	r3, #2
 1826              	.LVL145:
 132:eurorack/plaits/dsp/voice.cc ****   }
ARM GAS  /var/folders/9s/8rp0_f2s1n31qbztm3b5_fdh0000gn/T//cc00qguF.s 			page 67


 1827              		.loc 9 132 15 view .LVU559
 1828 049e 5AE6     		b	.L114
 1829              	.LVL146:
 1830              	.L111:
 150:eurorack/plaits/dsp/voice.cc **** 
 1831              		.loc 9 150 3 is_stmt 1 discriminator 2 view .LVU560
 149:eurorack/plaits/dsp/voice.cc ****   CONSTRAIN(p.harmonics, 0.0f, 1.0f);
 1832              		.loc 9 149 15 is_stmt 0 discriminator 2 view .LVU561
 1833 04a0 F4EEE87A 		vcmpe.f32	s15, s17
 1834 04a4 F1EE10FA 		vmrs	APSR_nzcv, FPSCR
 1835 04a8 78FEA77A 		vselgt.f32	s15, s17, s15
 1836 04ac CDED0C7A 		vstr.32	s15, [sp, #48]
 1837 04b0 97E6     		b	.L53
 1838              	.LVL147:
 1839              	.L82:
 152:eurorack/plaits/dsp/voice.cc ****   if (engine_index == 7) {
 1840              		.loc 9 152 9 view .LVU562
 1841 04b2 B7EE007A 		vmov.f32	s14, #1.0e+0
 1842 04b6 ADE6     		b	.L55
 1843              	.LVL148:
 1844              	.L83:
 155:eurorack/plaits/dsp/voice.cc ****     //speech_engine_.set_prosody_amount(
 1845              		.loc 9 155 5 view .LVU563
 1846 04b8 1FED367A 		vldr.32	s14, .L115+64
 1847              	.LVL149:
 155:eurorack/plaits/dsp/voice.cc ****     //speech_engine_.set_prosody_amount(
 1848              		.loc 9 155 5 view .LVU564
 1849 04bc AAE6     		b	.L55
 1850              	.LVL150:
 1851              	.L85:
 1852              	.LBB401:
 1853              	.LBB333:
 188:eurorack/plaits/dsp/voice.h ****     value += modulation_amount * modulation;
 1854              		.loc 3 188 34 view .LVU565
 1855 04be F7EE004A 		vmov.f32	s9, #1.0e+0
 1856              	.LVL151:
 188:eurorack/plaits/dsp/voice.h ****     value += modulation_amount * modulation;
 1857              		.loc 3 188 34 view .LVU566
 1858 04c2 D1E6     		b	.L58
 1859              	.LVL152:
 1860              	.L86:
 190:eurorack/plaits/dsp/voice.h ****     return value;
 1861              		.loc 3 190 5 view .LVU567
 1862 04c4 F0EE467A 		vmov.f32	s15, s12
 1863              	.LVL153:
 190:eurorack/plaits/dsp/voice.h ****     return value;
 1864              		.loc 3 190 5 view .LVU568
 1865 04c8 E0E6     		b	.L59
 1866              	.LVL154:
 1867              	.L89:
 190:eurorack/plaits/dsp/voice.h ****     return value;
 1868              		.loc 3 190 5 view .LVU569
 1869              	.LBE333:
 1870              	.LBE401:
 1871              	.LBB402:
 1872              	.LBB346:
 1873 04ca 5FED3A7A 		vldr.32	s15, .L115+64
ARM GAS  /var/folders/9s/8rp0_f2s1n31qbztm3b5_fdh0000gn/T//cc00qguF.s 			page 68


 1874              	.LVL155:
 190:eurorack/plaits/dsp/voice.h ****     return value;
 1875              		.loc 3 190 5 view .LVU570
 1876 04ce 0FE7     		b	.L63
 1877              	.LVL156:
 1878              	.L92:
 190:eurorack/plaits/dsp/voice.h ****     return value;
 1879              		.loc 3 190 5 view .LVU571
 1880              	.LBE346:
 1881              	.LBE402:
 1882              	.LBB403:
 1883              	.LBB354:
 1884 04d0 5FED3C7A 		vldr.32	s15, .L115+64
 1885              	.LVL157:
 190:eurorack/plaits/dsp/voice.h ****     return value;
 1886              		.loc 3 190 5 view .LVU572
 1887 04d4 3EE7     		b	.L67
 1888              	.LVL158:
 1889              	.L71:
 190:eurorack/plaits/dsp/voice.h ****     return value;
 1890              		.loc 3 190 5 view .LVU573
 1891              	.LBE354:
 1892              	.LBE403:
 1893              	.LBB404:
 1894              	.LBB385:
 1895              	.LBB358:
 213:eurorack/plaits/dsp/voice.cc ****       lpg_envelope_.ProcessPing(attack, short_decay, decay_tail, hf);
 1896              		.loc 9 213 7 is_stmt 1 view .LVU574
 1897              	.LBB359:
 1898              	.LBI359:
  39:eurorack/plaits/dsp/engine/engine.h ****   midi_note -= 9.0f;
 1899              		.loc 11 39 14 view .LVU575
 1900              	.LBB360:
  40:eurorack/plaits/dsp/engine/engine.h ****   CONSTRAIN(midi_note, -128.0f, 127.0f);
 1901              		.loc 11 40 3 view .LVU576
  40:eurorack/plaits/dsp/engine/engine.h ****   CONSTRAIN(midi_note, -128.0f, 127.0f);
 1902              		.loc 11 40 13 is_stmt 0 view .LVU577
 1903 04d6 B2EE020A 		vmov.f32	s0, #9.0e+0
 1904 04da DDED097A 		vldr.32	s15, [sp, #36]
 1905 04de 37EEC00A 		vsub.f32	s0, s15, s0
 1906              	.LVL159:
  41:eurorack/plaits/dsp/engine/engine.h ****   return a0 * 0.25f * stmlib::SemitonesToRatio(midi_note);
 1907              		.loc 11 41 3 is_stmt 1 view .LVU578
 1908 04e2 5FED437A 		vldr.32	s15, .L115+52
 1909 04e6 B4EEE70A 		vcmpe.f32	s0, s15
 1910 04ea F1EE10FA 		vmrs	APSR_nzcv, FPSCR
 1911 04ee 2BD4     		bmi	.L94
  41:eurorack/plaits/dsp/engine/engine.h ****   return a0 * 0.25f * stmlib::SemitonesToRatio(midi_note);
 1912              		.loc 11 41 3 view .LVU579
 1913 04f0 5FED467A 		vldr.32	s15, .L115+56
 1914 04f4 B4EE670A 		vcmp.f32	s0, s15
 1915 04f8 F1EE10FA 		vmrs	APSR_nzcv, FPSCR
 1916 04fc 37FE800A 		vselgt.f32	s0, s15, s0
 1917              	.LVL160:
 1918              	.L72:
  41:eurorack/plaits/dsp/engine/engine.h ****   return a0 * 0.25f * stmlib::SemitonesToRatio(midi_note);
 1919              		.loc 11 41 40 view .LVU580
ARM GAS  /var/folders/9s/8rp0_f2s1n31qbztm3b5_fdh0000gn/T//cc00qguF.s 			page 69


  42:eurorack/plaits/dsp/engine/engine.h **** }
 1920              		.loc 11 42 3 view .LVU581
  42:eurorack/plaits/dsp/engine/engine.h **** }
 1921              		.loc 11 42 3 is_stmt 0 view .LVU582
 1922              	.LBE360:
 1923              	.LBE359:
 214:eurorack/plaits/dsp/voice.cc ****     }
 1924              		.loc 9 214 7 is_stmt 1 view .LVU583
 1925              	.LBB365:
 1926              	.LBI365:
  52:eurorack/plaits/dsp/envelope.h ****       float attack,
 1927              		.loc 2 52 15 view .LVU584
 1928              	.LBB366:
  57:eurorack/plaits/dsp/envelope.h ****       vactrol_state_ += attack;
 1929              		.loc 2 57 5 view .LVU585
 1930 0500 94F8483C 		ldrb	r3, [r4, #3144]	@ zero_extendqisi2
 1931 0504 EBB1     		cbz	r3, .L74
 1932 0506 8DED051A 		vstr.32	s2, [sp, #20]	@ int
 1933 050a CDED041A 		vstr.32	s3, [sp, #16]	@ int
 1934              	.LBE366:
 1935              	.LBE365:
 1936              	.LBB373:
 1937              	.LBB361:
  42:eurorack/plaits/dsp/engine/engine.h **** }
 1938              		.loc 11 42 47 is_stmt 0 view .LVU586
 1939 050e FFF7FEFF 		bl	_ZN6stmlib16SemitonesToRatioEf
 1940              	.LVL161:
  42:eurorack/plaits/dsp/engine/engine.h **** }
 1941              		.loc 11 42 47 view .LVU587
 1942              	.LBE361:
 1943              	.LBE373:
 1944              	.LBB374:
 1945              	.LBB367:
  58:eurorack/plaits/dsp/envelope.h ****       if (vactrol_state_ >= 1.0f) {
 1946              		.loc 2 58 7 is_stmt 1 view .LVU588
 1947              	.LBE367:
 1948              	.LBE374:
 1949              	.LBB375:
 1950              	.LBB362:
  42:eurorack/plaits/dsp/engine/engine.h **** }
 1951              		.loc 11 42 57 is_stmt 0 view .LVU589
 1952 0512 5FED4D7A 		vldr.32	s15, .L115+60
 1953              	.LBE362:
 1954              	.LBE375:
 1955              	.LBB376:
 1956              	.LBB368:
  59:eurorack/plaits/dsp/envelope.h ****         vactrol_state_ = 1.0f;
 1957              		.loc 2 59 7 view .LVU590
 1958 0516 DDED041A 		vldr.32	s3, [sp, #16]	@ int
 1959              	.LBE368:
 1960              	.LBE376:
 1961              	.LBB377:
 1962              	.LBB363:
  42:eurorack/plaits/dsp/engine/engine.h **** }
 1963              		.loc 11 42 57 view .LVU591
 1964 051a 20EE270A 		vmul.f32	s0, s0, s15
 1965              	.LBE363:
ARM GAS  /var/folders/9s/8rp0_f2s1n31qbztm3b5_fdh0000gn/T//cc00qguF.s 			page 70


 1966              	.LBE377:
 1967              	.LBB378:
 1968              	.LBB369:
  59:eurorack/plaits/dsp/envelope.h ****         vactrol_state_ = 1.0f;
 1969              		.loc 2 59 7 view .LVU592
 1970 051e 9DED051A 		vldr.32	s2, [sp, #20]	@ int
 1971              	.LBE369:
 1972              	.LBE378:
 213:eurorack/plaits/dsp/voice.cc ****       lpg_envelope_.ProcessPing(attack, short_decay, decay_tail, hf);
 1973              		.loc 9 213 52 view .LVU593
 1974 0522 60EE087A 		vmul.f32	s15, s0, s16
 1975              	.LBB379:
 1976              	.LBB370:
  58:eurorack/plaits/dsp/envelope.h ****       if (vactrol_state_ >= 1.0f) {
 1977              		.loc 2 58 22 view .LVU594
 1978 0526 97ED000A 		vldr.32	s0, [r7]
 1979 052a A7EE890A 		vfma.f32	s0, s15, s18
  59:eurorack/plaits/dsp/envelope.h ****         vactrol_state_ = 1.0f;
 1980              		.loc 2 59 7 is_stmt 1 view .LVU595
 1981 052e B4EEE80A 		vcmpe.f32	s0, s17
 1982 0532 F1EE10FA 		vmrs	APSR_nzcv, FPSCR
 1983 0536 0ADB     		blt	.L112
  60:eurorack/plaits/dsp/envelope.h ****         ramp_up_ = false;
 1984              		.loc 2 60 9 view .LVU596
  61:eurorack/plaits/dsp/envelope.h ****       }
 1985              		.loc 2 61 18 is_stmt 0 view .LVU597
 1986 0538 0023     		movs	r3, #0
  60:eurorack/plaits/dsp/envelope.h ****         ramp_up_ = false;
 1987              		.loc 2 60 24 view .LVU598
 1988 053a C7ED008A 		vstr.32	s17, [r7]
  61:eurorack/plaits/dsp/envelope.h ****       }
 1989              		.loc 2 61 9 is_stmt 1 view .LVU599
  61:eurorack/plaits/dsp/envelope.h ****       }
 1990              		.loc 2 61 18 is_stmt 0 view .LVU600
 1991 053e 84F8483C 		strb	r3, [r4, #3144]
 1992              	.L74:
  64:eurorack/plaits/dsp/envelope.h ****   }
 1993              		.loc 2 64 5 is_stmt 1 view .LVU601
  64:eurorack/plaits/dsp/envelope.h ****   }
 1994              		.loc 2 64 14 is_stmt 0 view .LVU602
 1995 0542 1FED580A 		vldr.32	s0, .L115+64
 1996 0546 04E0     		b	.L77
 1997              	.LVL162:
 1998              	.L94:
  64:eurorack/plaits/dsp/envelope.h ****   }
 1999              		.loc 2 64 14 view .LVU603
 2000              	.LBE370:
 2001              	.LBE379:
 2002              	.LBB380:
 2003              	.LBB364:
  41:eurorack/plaits/dsp/engine/engine.h ****   return a0 * 0.25f * stmlib::SemitonesToRatio(midi_note);
 2004              		.loc 11 41 3 view .LVU604
 2005 0548 B0EE670A 		vmov.f32	s0, s15
 2006              	.LVL163:
  41:eurorack/plaits/dsp/engine/engine.h ****   return a0 * 0.25f * stmlib::SemitonesToRatio(midi_note);
 2007              		.loc 11 41 3 view .LVU605
 2008 054c D8E7     		b	.L72
ARM GAS  /var/folders/9s/8rp0_f2s1n31qbztm3b5_fdh0000gn/T//cc00qguF.s 			page 71


 2009              	.LVL164:
 2010              	.L112:
  41:eurorack/plaits/dsp/engine/engine.h ****   return a0 * 0.25f * stmlib::SemitonesToRatio(midi_note);
 2011              		.loc 11 41 3 view .LVU606
 2012              	.LBE364:
 2013              	.LBE380:
 2014              	.LBB381:
 2015              	.LBB371:
  58:eurorack/plaits/dsp/envelope.h ****       if (vactrol_state_ >= 1.0f) {
 2016              		.loc 2 58 22 view .LVU607
 2017 054e 87ED000A 		vstr.32	s0, [r7]
 2018              	.L77:
  64:eurorack/plaits/dsp/envelope.h ****   }
 2019              		.loc 2 64 14 view .LVU608
 2020 0552 F0EE4A0A 		vmov.f32	s1, s20
 2021 0556 3846     		mov	r0, r7
 2022              	.LBE371:
 2023              	.LBE381:
 2024              	.LBE358:
 2025              	.LBE385:
 2026              	.LBE404:
 201:eurorack/plaits/dsp/voice.cc ****       (!modulations.level_patched && !modulations.trigger_patched);
 2027              		.loc 9 201 39 view .LVU609
 2028 0558 4FF0000B 		mov	fp, #0
 2029              	.LBB405:
 2030              	.LBB386:
 2031              	.LBB383:
 2032              	.LBB382:
 2033              	.LBB372:
  64:eurorack/plaits/dsp/envelope.h ****   }
 2034              		.loc 2 64 14 view .LVU610
 2035 055c FFF7FEFF 		bl	_ZN6plaits11LPGEnvelope9ProcessLPEffff
 2036              	.LVL165:
  65:eurorack/plaits/dsp/envelope.h ****   
 2037              		.loc 2 65 3 view .LVU611
 2038 0560 65E7     		b	.L69
 2039              	.LVL166:
 2040              	.L93:
  65:eurorack/plaits/dsp/envelope.h ****   
 2041              		.loc 2 65 3 view .LVU612
 2042              	.LBE372:
 2043              	.LBE382:
 2044              	.LBE383:
 2045              	.LBE386:
 2046              	.LBE405:
 201:eurorack/plaits/dsp/voice.cc ****       (!modulations.level_patched && !modulations.trigger_patched);
 2047              		.loc 9 201 39 view .LVU613
 2048 0562 4FF0010B 		mov	fp, #1
 2049 0566 62E7     		b	.L69
 2050              		.cfi_endproc
 2051              	.LFE2027:
 2053              		.section	.text._ZN6plaits14EngineRegistryILi16EE16RegisterInstanceEPNS_6EngineEbff,"axG",%progbits
 2054              		.align	1
 2055              		.weak	_ZN6plaits14EngineRegistryILi16EE16RegisterInstanceEPNS_6EngineEbff
 2056              		.syntax unified
 2057              		.thumb
 2058              		.thumb_func
ARM GAS  /var/folders/9s/8rp0_f2s1n31qbztm3b5_fdh0000gn/T//cc00qguF.s 			page 72


 2060              	_ZN6plaits14EngineRegistryILi16EE16RegisterInstanceEPNS_6EngineEbff:
 2061              	.LVL167:
 2062              	.LFB2150:
 107:eurorack/plaits/dsp/engine/engine.h ****       Engine* instance,
 2063              		.loc 11 107 8 is_stmt 1 view -0
 2064              		.cfi_startproc
 2065              		@ args = 0, pretend = 0, frame = 0
 2066              		@ frame_needed = 0, uses_anonymous_args = 0
 2067              		@ link register save eliminated.
 112:eurorack/plaits/dsp/engine/engine.h ****       return;
 2068              		.loc 11 112 9 is_stmt 0 view .LVU615
 2069 0000 036C     		ldr	r3, [r0, #64]
 112:eurorack/plaits/dsp/engine/engine.h ****       return;
 2070              		.loc 11 112 5 view .LVU616
 2071 0002 0F2B     		cmp	r3, #15
 2072 0004 08DC     		bgt	.L118
 115:eurorack/plaits/dsp/engine/engine.h ****     PostProcessingSettings* s = &instance->post_processing_settings;
 2073              		.loc 11 115 27 view .LVU617
 2074 0006 40F82310 		str	r1, [r0, r3, lsl #2]
 2075              	.LVL168:
 120:eurorack/plaits/dsp/engine/engine.h ****   }
 2076              		.loc 11 120 5 view .LVU618
 2077 000a 0133     		adds	r3, r3, #1
 117:eurorack/plaits/dsp/engine/engine.h ****     s->out_gain = out_gain;
 2078              		.loc 11 117 26 view .LVU619
 2079 000c 0A73     		strb	r2, [r1, #12]
 118:eurorack/plaits/dsp/engine/engine.h ****     s->aux_gain = aux_gain;
 2080              		.loc 11 118 17 view .LVU620
 2081 000e 81ED010A 		vstr.32	s0, [r1, #4]
 119:eurorack/plaits/dsp/engine/engine.h ****     ++num_engines_;
 2082              		.loc 11 119 17 view .LVU621
 2083 0012 C1ED020A 		vstr.32	s1, [r1, #8]
 120:eurorack/plaits/dsp/engine/engine.h ****   }
 2084              		.loc 11 120 5 view .LVU622
 2085 0016 0364     		str	r3, [r0, #64]
 2086              	.LVL169:
 2087              	.L118:
 121:eurorack/plaits/dsp/engine/engine.h ****   
 2088              		.loc 11 121 3 view .LVU623
 2089 0018 7047     		bx	lr
 2090              		.cfi_endproc
 2091              	.LFE2150:
 2093              		.section	.text._ZN6plaits5Voice4InitEPN6stmlib15BufferAllocatorE,"ax",%progbits
 2094              		.align	1
 2095              		.global	_ZN6plaits5Voice4InitEPN6stmlib15BufferAllocatorE
 2096              		.syntax unified
 2097              		.thumb
 2098              		.thumb_func
 2100              	_ZN6plaits5Voice4InitEPN6stmlib15BufferAllocatorE:
 2101              	.LVL170:
 2102              	.LFB2026:
  36:eurorack/plaits/dsp/voice.cc ****   engines_.Init();
 2103              		.loc 9 36 46 is_stmt 1 view -0
 2104              		.cfi_startproc
 2105              		@ args = 0, pretend = 0, frame = 0
 2106              		@ frame_needed = 0, uses_anonymous_args = 0
  37:eurorack/plaits/dsp/voice.cc ****   engines_.RegisterInstance(&virtual_analog_engine_, false, 0.8f, 0.8f);
ARM GAS  /var/folders/9s/8rp0_f2s1n31qbztm3b5_fdh0000gn/T//cc00qguF.s 			page 73


 2107              		.loc 9 37 3 view .LVU625
 2108              	.LBB430:
 2109              	.LBI430:
  99:eurorack/plaits/dsp/engine/engine.h ****     num_engines_ = 0;
 2110              		.loc 11 99 8 view .LVU626
 2111              	.LBE430:
  36:eurorack/plaits/dsp/voice.cc ****   engines_.Init();
 2112              		.loc 9 36 46 is_stmt 0 view .LVU627
 2113 0000 F8B5     		push	{r3, r4, r5, r6, r7, lr}
 2114              		.cfi_def_cfa_offset 24
 2115              		.cfi_offset 3, -24
 2116              		.cfi_offset 4, -20
 2117              		.cfi_offset 5, -16
 2118              		.cfi_offset 6, -12
 2119              		.cfi_offset 7, -8
 2120              		.cfi_offset 14, -4
  38:eurorack/plaits/dsp/voice.cc ****   engines_.RegisterInstance(&waveshaping_engine_, false, 0.7f, 0.6f);
 2121              		.loc 9 38 28 view .LVU628
 2122 0002 DFED640A 		vldr.32	s1, .L123
 2123 0006 00F6AC46 		addw	r6, r0, #3244
 2124              	.LVL171:
 2125              	.LBB433:
 2126              	.LBB431:
 100:eurorack/plaits/dsp/engine/engine.h ****   }
 2127              		.loc 11 100 18 view .LVU629
 2128 000a 0025     		movs	r5, #0
 2129              	.LBE431:
 2130              	.LBE433:
  36:eurorack/plaits/dsp/voice.cc ****   engines_.Init();
 2131              		.loc 9 36 46 view .LVU630
 2132 000c 0446     		mov	r4, r0
  38:eurorack/plaits/dsp/voice.cc ****   engines_.RegisterInstance(&waveshaping_engine_, false, 0.7f, 0.6f);
 2133              		.loc 9 38 28 view .LVU631
 2134 000e B0EE600A 		vmov.f32	s0, s1
  36:eurorack/plaits/dsp/voice.cc ****   engines_.Init();
 2135              		.loc 9 36 46 view .LVU632
 2136 0012 0F46     		mov	r7, r1
  38:eurorack/plaits/dsp/voice.cc ****   engines_.RegisterInstance(&waveshaping_engine_, false, 0.7f, 0.6f);
 2137              		.loc 9 38 28 view .LVU633
 2138 0014 2A46     		mov	r2, r5
 2139 0016 00F62831 		addw	r1, r0, #2856
 2140              	.LVL172:
 2141              	.LBB434:
 2142              	.LBB432:
 100:eurorack/plaits/dsp/engine/engine.h ****   }
 2143              		.loc 11 100 18 view .LVU634
 2144 001a C0F8EC5C 		str	r5, [r0, #3308]
 2145              	.LVL173:
 100:eurorack/plaits/dsp/engine/engine.h ****   }
 2146              		.loc 11 100 18 view .LVU635
 2147              	.LBE432:
 2148              	.LBE434:
  38:eurorack/plaits/dsp/voice.cc ****   engines_.RegisterInstance(&waveshaping_engine_, false, 0.7f, 0.6f);
 2149              		.loc 9 38 3 is_stmt 1 view .LVU636
  38:eurorack/plaits/dsp/voice.cc ****   engines_.RegisterInstance(&waveshaping_engine_, false, 0.7f, 0.6f);
 2150              		.loc 9 38 28 is_stmt 0 view .LVU637
 2151 001e 3046     		mov	r0, r6
ARM GAS  /var/folders/9s/8rp0_f2s1n31qbztm3b5_fdh0000gn/T//cc00qguF.s 			page 74


 2152              	.LVL174:
  38:eurorack/plaits/dsp/voice.cc ****   engines_.RegisterInstance(&waveshaping_engine_, false, 0.7f, 0.6f);
 2153              		.loc 9 38 28 view .LVU638
 2154 0020 FFF7FEFF 		bl	_ZN6plaits14EngineRegistryILi16EE16RegisterInstanceEPNS_6EngineEbff
 2155              	.LVL175:
  39:eurorack/plaits/dsp/voice.cc ****   engines_.RegisterInstance(&fm_engine_, false, 0.6f, 0.6f);
 2156              		.loc 9 39 3 is_stmt 1 view .LVU639
  39:eurorack/plaits/dsp/voice.cc ****   engines_.RegisterInstance(&fm_engine_, false, 0.6f, 0.6f);
 2157              		.loc 9 39 28 is_stmt 0 view .LVU640
 2158 0024 DFED5C0A 		vldr.32	s1, .L123+4
 2159 0028 9FED5C0A 		vldr.32	s0, .L123+8
 2160 002c 2A46     		mov	r2, r5
 2161 002e 04F6CC31 		addw	r1, r4, #3020
 2162 0032 3046     		mov	r0, r6
 2163 0034 FFF7FEFF 		bl	_ZN6plaits14EngineRegistryILi16EE16RegisterInstanceEPNS_6EngineEbff
 2164              	.LVL176:
  40:eurorack/plaits/dsp/voice.cc ****   engines_.RegisterInstance(&grain_engine_, false, 0.7f, 0.6f);
 2165              		.loc 9 40 3 is_stmt 1 view .LVU641
  40:eurorack/plaits/dsp/voice.cc ****   engines_.RegisterInstance(&grain_engine_, false, 0.7f, 0.6f);
 2166              		.loc 9 40 28 is_stmt 0 view .LVU642
 2167 0038 DFED570A 		vldr.32	s1, .L123+4
 2168 003c 2A46     		mov	r2, r5
 2169 003e 04F50071 		add	r1, r4, #512
 2170 0042 B0EE600A 		vmov.f32	s0, s1
 2171 0046 3046     		mov	r0, r6
 2172 0048 FFF7FEFF 		bl	_ZN6plaits14EngineRegistryILi16EE16RegisterInstanceEPNS_6EngineEbff
 2173              	.LVL177:
  41:eurorack/plaits/dsp/voice.cc ****   engines_.RegisterInstance(&additive_engine_, false, 0.8f, 0.8f);
 2174              		.loc 9 41 3 is_stmt 1 view .LVU643
  41:eurorack/plaits/dsp/voice.cc ****   engines_.RegisterInstance(&additive_engine_, false, 0.8f, 0.8f);
 2175              		.loc 9 41 28 is_stmt 0 view .LVU644
 2176 004c DFED520A 		vldr.32	s1, .L123+4
 2177 0050 9FED520A 		vldr.32	s0, .L123+8
 2178 0054 2A46     		mov	r2, r5
 2179 0056 04F50E71 		add	r1, r4, #568
 2180 005a 3046     		mov	r0, r6
 2181 005c FFF7FEFF 		bl	_ZN6plaits14EngineRegistryILi16EE16RegisterInstanceEPNS_6EngineEbff
 2182              	.LVL178:
  42:eurorack/plaits/dsp/voice.cc ****   //engines_.RegisterInstance(&wavetable_engine_, false, 0.6f, 0.6f);  // bad
 2183              		.loc 9 42 3 is_stmt 1 view .LVU645
  42:eurorack/plaits/dsp/voice.cc ****   //engines_.RegisterInstance(&wavetable_engine_, false, 0.6f, 0.6f);  // bad
 2184              		.loc 9 42 28 is_stmt 0 view .LVU646
 2185 0060 DFED4C0A 		vldr.32	s1, .L123
 2186 0064 2A46     		mov	r2, r5
 2187 0066 2146     		mov	r1, r4
 2188 0068 B0EE600A 		vmov.f32	s0, s1
 2189 006c 3046     		mov	r0, r6
 2190 006e FFF7FEFF 		bl	_ZN6plaits14EngineRegistryILi16EE16RegisterInstanceEPNS_6EngineEbff
 2191              	.LVL179:
  47:eurorack/plaits/dsp/voice.cc ****   engines_.RegisterInstance(&noise_engine_, false, -1.0f, -1.0f);
 2192              		.loc 9 47 3 is_stmt 1 view .LVU647
  47:eurorack/plaits/dsp/voice.cc ****   engines_.RegisterInstance(&noise_engine_, false, -1.0f, -1.0f);
 2193              		.loc 9 47 28 is_stmt 0 view .LVU648
 2194 0072 F7EE000A 		vmov.f32	s1, #1.0e+0
 2195 0076 B8EE080A 		vmov.f32	s0, #-3.0e+0
 2196 007a 2A46     		mov	r2, r5
 2197 007c 04F61811 		addw	r1, r4, #2328
ARM GAS  /var/folders/9s/8rp0_f2s1n31qbztm3b5_fdh0000gn/T//cc00qguF.s 			page 75


 2198 0080 3046     		mov	r0, r6
 2199 0082 FFF7FEFF 		bl	_ZN6plaits14EngineRegistryILi16EE16RegisterInstanceEPNS_6EngineEbff
 2200              	.LVL180:
  48:eurorack/plaits/dsp/voice.cc ****   engines_.RegisterInstance(&particle_engine_, false, -2.0f, 1.0f);
 2201              		.loc 9 48 3 is_stmt 1 view .LVU649
  48:eurorack/plaits/dsp/voice.cc ****   engines_.RegisterInstance(&particle_engine_, false, -2.0f, 1.0f);
 2202              		.loc 9 48 28 is_stmt 0 view .LVU650
 2203 0086 FFEE000A 		vmov.f32	s1, #-1.0e+0
 2204 008a 2A46     		mov	r2, r5
 2205 008c 04F5A961 		add	r1, r4, #1352
 2206 0090 3046     		mov	r0, r6
 2207 0092 B0EE600A 		vmov.f32	s0, s1
 2208 0096 FFF7FEFF 		bl	_ZN6plaits14EngineRegistryILi16EE16RegisterInstanceEPNS_6EngineEbff
 2209              	.LVL181:
  49:eurorack/plaits/dsp/voice.cc ****   engines_.RegisterInstance(&string_engine_, true, -1.0f, 0.8f);
 2210              		.loc 9 49 3 is_stmt 1 view .LVU651
  49:eurorack/plaits/dsp/voice.cc ****   engines_.RegisterInstance(&string_engine_, true, -1.0f, 0.8f);
 2211              		.loc 9 49 28 is_stmt 0 view .LVU652
 2212 009a F7EE000A 		vmov.f32	s1, #1.0e+0
 2213 009e B8EE000A 		vmov.f32	s0, #-2.0e+0
 2214 00a2 2A46     		mov	r2, r5
 2215 00a4 04F5B961 		add	r1, r4, #1480
 2216 00a8 3046     		mov	r0, r6
 2217 00aa FFF7FEFF 		bl	_ZN6plaits14EngineRegistryILi16EE16RegisterInstanceEPNS_6EngineEbff
 2218              	.LVL182:
  50:eurorack/plaits/dsp/voice.cc ****   engines_.RegisterInstance(&modal_engine_, true, -1.0f, 0.8f);
 2219              		.loc 9 50 3 is_stmt 1 view .LVU653
  50:eurorack/plaits/dsp/voice.cc ****   engines_.RegisterInstance(&modal_engine_, true, -1.0f, 0.8f);
 2220              		.loc 9 50 28 is_stmt 0 view .LVU654
 2221 00ae BFEE000A 		vmov.f32	s0, #-1.0e+0
 2222 00b2 DFED380A 		vldr.32	s1, .L123
 2223 00b6 0122     		movs	r2, #1
 2224 00b8 04F2CC71 		addw	r1, r4, #1996
 2225 00bc 3046     		mov	r0, r6
 2226 00be FFF7FEFF 		bl	_ZN6plaits14EngineRegistryILi16EE16RegisterInstanceEPNS_6EngineEbff
 2227              	.LVL183:
  51:eurorack/plaits/dsp/voice.cc ****   engines_.RegisterInstance(&bass_drum_engine_, true, 0.8f, 0.8f);
 2228              		.loc 9 51 3 is_stmt 1 view .LVU655
  51:eurorack/plaits/dsp/voice.cc ****   engines_.RegisterInstance(&bass_drum_engine_, true, 0.8f, 0.8f);
 2229              		.loc 9 51 28 is_stmt 0 view .LVU656
 2230 00c2 BFEE000A 		vmov.f32	s0, #-1.0e+0
 2231 00c6 DFED330A 		vldr.32	s1, .L123
 2232 00ca 0122     		movs	r2, #1
 2233 00cc 04F20441 		addw	r1, r4, #1028
 2234 00d0 3046     		mov	r0, r6
 2235 00d2 FFF7FEFF 		bl	_ZN6plaits14EngineRegistryILi16EE16RegisterInstanceEPNS_6EngineEbff
 2236              	.LVL184:
  52:eurorack/plaits/dsp/voice.cc ****   engines_.RegisterInstance(&snare_drum_engine_, true, 0.8f, 0.8f);
 2237              		.loc 9 52 3 is_stmt 1 view .LVU657
  52:eurorack/plaits/dsp/voice.cc ****   engines_.RegisterInstance(&snare_drum_engine_, true, 0.8f, 0.8f);
 2238              		.loc 9 52 28 is_stmt 0 view .LVU658
 2239 00d6 DFED2F0A 		vldr.32	s1, .L123
 2240 00da 0122     		movs	r2, #1
 2241 00dc 04F5A471 		add	r1, r4, #328
 2242 00e0 B0EE600A 		vmov.f32	s0, s1
 2243 00e4 3046     		mov	r0, r6
 2244 00e6 FFF7FEFF 		bl	_ZN6plaits14EngineRegistryILi16EE16RegisterInstanceEPNS_6EngineEbff
ARM GAS  /var/folders/9s/8rp0_f2s1n31qbztm3b5_fdh0000gn/T//cc00qguF.s 			page 76


 2245              	.LVL185:
  53:eurorack/plaits/dsp/voice.cc ****   engines_.RegisterInstance(&hi_hat_engine_, true, 0.8f, 0.8f);
 2246              		.loc 9 53 3 is_stmt 1 view .LVU659
  53:eurorack/plaits/dsp/voice.cc ****   engines_.RegisterInstance(&hi_hat_engine_, true, 0.8f, 0.8f);
 2247              		.loc 9 53 28 is_stmt 0 view .LVU660
 2248 00ea DFED2A0A 		vldr.32	s1, .L123
 2249 00ee 0122     		movs	r2, #1
 2250 00f0 04F5D561 		add	r1, r4, #1704
 2251 00f4 B0EE600A 		vmov.f32	s0, s1
 2252 00f8 3046     		mov	r0, r6
 2253 00fa FFF7FEFF 		bl	_ZN6plaits14EngineRegistryILi16EE16RegisterInstanceEPNS_6EngineEbff
 2254              	.LVL186:
  54:eurorack/plaits/dsp/voice.cc ****   for (int i = 0; i < engines_.size(); ++i) {
 2255              		.loc 9 54 3 is_stmt 1 view .LVU661
  54:eurorack/plaits/dsp/voice.cc ****   for (int i = 0; i < engines_.size(); ++i) {
 2256              		.loc 9 54 28 is_stmt 0 view .LVU662
 2257 00fe DFED250A 		vldr.32	s1, .L123
 2258 0102 0122     		movs	r2, #1
 2259 0104 04F52F71 		add	r1, r4, #700
 2260 0108 B0EE600A 		vmov.f32	s0, s1
 2261 010c 3046     		mov	r0, r6
 2262 010e FFF7FEFF 		bl	_ZN6plaits14EngineRegistryILi16EE16RegisterInstanceEPNS_6EngineEbff
 2263              	.LVL187:
  55:eurorack/plaits/dsp/voice.cc ****     // All engines will share the same RAM space.
 2264              		.loc 9 55 3 is_stmt 1 view .LVU663
 2265              	.L122:
 2266              	.LBB435:
  55:eurorack/plaits/dsp/voice.cc ****     // All engines will share the same RAM space.
 2267              		.loc 9 55 21 discriminator 3 view .LVU664
 2268              	.LBB436:
 2269              	.LBI436:
 2270              		.loc 11 123 14 discriminator 3 view .LVU665
 2271              		.loc 11 123 14 is_stmt 0 discriminator 3 view .LVU666
 2272              	.LBE436:
  55:eurorack/plaits/dsp/voice.cc ****     // All engines will share the same RAM space.
 2273              		.loc 9 55 21 discriminator 3 view .LVU667
 2274 0112 D4F8EC3C 		ldr	r3, [r4, #3308]
 2275 0116 9D42     		cmp	r5, r3
 2276 0118 0BDA     		bge	.L121
  57:eurorack/plaits/dsp/voice.cc ****     engines_.get(i)->Init(allocator);
 2277              		.loc 9 57 5 is_stmt 1 view .LVU668
 2278              	.LVL188:
 2279              	.LBB437:
 2280              	.LBI437:
 2281              		.file 14 "eurorack/stmlib/utils/buffer_allocator.h"
   1:eurorack/stmlib/utils/buffer_allocator.h **** // Copyright 2014 Emilie Gillet.
   2:eurorack/stmlib/utils/buffer_allocator.h **** //
   3:eurorack/stmlib/utils/buffer_allocator.h **** // Author: Emilie Gillet (emilie.o.gillet@gmail.com)
   4:eurorack/stmlib/utils/buffer_allocator.h **** //
   5:eurorack/stmlib/utils/buffer_allocator.h **** // Permission is hereby granted, free of charge, to any person obtaining a copy
   6:eurorack/stmlib/utils/buffer_allocator.h **** // of this software and associated documentation files (the "Software"), to deal
   7:eurorack/stmlib/utils/buffer_allocator.h **** // in the Software without restriction, including without limitation the rights
   8:eurorack/stmlib/utils/buffer_allocator.h **** // to use, copy, modify, merge, publish, distribute, sublicense, and/or sell
   9:eurorack/stmlib/utils/buffer_allocator.h **** // copies of the Software, and to permit persons to whom the Software is
  10:eurorack/stmlib/utils/buffer_allocator.h **** // furnished to do so, subject to the following conditions:
  11:eurorack/stmlib/utils/buffer_allocator.h **** // 
  12:eurorack/stmlib/utils/buffer_allocator.h **** // The above copyright notice and this permission notice shall be included in
ARM GAS  /var/folders/9s/8rp0_f2s1n31qbztm3b5_fdh0000gn/T//cc00qguF.s 			page 77


  13:eurorack/stmlib/utils/buffer_allocator.h **** // all copies or substantial portions of the Software.
  14:eurorack/stmlib/utils/buffer_allocator.h **** // 
  15:eurorack/stmlib/utils/buffer_allocator.h **** // THE SOFTWARE IS PROVIDED "AS IS", WITHOUT WARRANTY OF ANY KIND, EXPRESS OR
  16:eurorack/stmlib/utils/buffer_allocator.h **** // IMPLIED, INCLUDING BUT NOT LIMITED TO THE WARRANTIES OF MERCHANTABILITY,
  17:eurorack/stmlib/utils/buffer_allocator.h **** // FITNESS FOR A PARTICULAR PURPOSE AND NONINFRINGEMENT. IN NO EVENT SHALL THE
  18:eurorack/stmlib/utils/buffer_allocator.h **** // AUTHORS OR COPYRIGHT HOLDERS BE LIABLE FOR ANY CLAIM, DAMAGES OR OTHER
  19:eurorack/stmlib/utils/buffer_allocator.h **** // LIABILITY, WHETHER IN AN ACTION OF CONTRACT, TORT OR OTHERWISE, ARISING FROM,
  20:eurorack/stmlib/utils/buffer_allocator.h **** // OUT OF OR IN CONNECTION WITH THE SOFTWARE OR THE USE OR OTHER DEALINGS IN
  21:eurorack/stmlib/utils/buffer_allocator.h **** // THE SOFTWARE.
  22:eurorack/stmlib/utils/buffer_allocator.h **** // 
  23:eurorack/stmlib/utils/buffer_allocator.h **** // See http://creativecommons.org/licenses/MIT/ for more information.
  24:eurorack/stmlib/utils/buffer_allocator.h **** //
  25:eurorack/stmlib/utils/buffer_allocator.h **** // -----------------------------------------------------------------------------
  26:eurorack/stmlib/utils/buffer_allocator.h **** //
  27:eurorack/stmlib/utils/buffer_allocator.h **** // Stream buffer for serialization.
  28:eurorack/stmlib/utils/buffer_allocator.h **** 
  29:eurorack/stmlib/utils/buffer_allocator.h **** #ifndef STMLIB_UTILS_BUFFER_ALLOCATOR_H_
  30:eurorack/stmlib/utils/buffer_allocator.h **** #define STMLIB_UTILS_BUFFER_ALLOCATOR_H_
  31:eurorack/stmlib/utils/buffer_allocator.h **** 
  32:eurorack/stmlib/utils/buffer_allocator.h **** #include "stmlib/stmlib.h"
  33:eurorack/stmlib/utils/buffer_allocator.h **** 
  34:eurorack/stmlib/utils/buffer_allocator.h **** namespace stmlib {
  35:eurorack/stmlib/utils/buffer_allocator.h **** 
  36:eurorack/stmlib/utils/buffer_allocator.h **** class BufferAllocator {
  37:eurorack/stmlib/utils/buffer_allocator.h ****  public:
  38:eurorack/stmlib/utils/buffer_allocator.h ****   BufferAllocator() { }
  39:eurorack/stmlib/utils/buffer_allocator.h ****   ~BufferAllocator() { }
  40:eurorack/stmlib/utils/buffer_allocator.h ****   
  41:eurorack/stmlib/utils/buffer_allocator.h ****   BufferAllocator(void* buffer, size_t size) {
  42:eurorack/stmlib/utils/buffer_allocator.h ****     Init(buffer, size);
  43:eurorack/stmlib/utils/buffer_allocator.h ****   }
  44:eurorack/stmlib/utils/buffer_allocator.h ****   
  45:eurorack/stmlib/utils/buffer_allocator.h ****   inline void Init(void* buffer, size_t size) {
  46:eurorack/stmlib/utils/buffer_allocator.h ****     buffer_ = static_cast<uint8_t*>(buffer);
  47:eurorack/stmlib/utils/buffer_allocator.h ****     size_ = size;
  48:eurorack/stmlib/utils/buffer_allocator.h ****     Free();
  49:eurorack/stmlib/utils/buffer_allocator.h ****   }
  50:eurorack/stmlib/utils/buffer_allocator.h **** 
  51:eurorack/stmlib/utils/buffer_allocator.h ****   template<typename T>
  52:eurorack/stmlib/utils/buffer_allocator.h ****   inline T* Allocate() {
  53:eurorack/stmlib/utils/buffer_allocator.h ****     return Allocate<T>(1);
  54:eurorack/stmlib/utils/buffer_allocator.h ****   }
  55:eurorack/stmlib/utils/buffer_allocator.h ****   
  56:eurorack/stmlib/utils/buffer_allocator.h ****   template<typename T>
  57:eurorack/stmlib/utils/buffer_allocator.h ****   inline T* Allocate(size_t size) {
  58:eurorack/stmlib/utils/buffer_allocator.h ****     size_t size_bytes = sizeof(T) * size;
  59:eurorack/stmlib/utils/buffer_allocator.h ****     if (size_bytes <= free_) {
  60:eurorack/stmlib/utils/buffer_allocator.h ****       T* start = static_cast<T*>(static_cast<void*>(next_));
  61:eurorack/stmlib/utils/buffer_allocator.h ****       next_ += size_bytes;
  62:eurorack/stmlib/utils/buffer_allocator.h ****       free_ -= size_bytes;
  63:eurorack/stmlib/utils/buffer_allocator.h ****       return start;
  64:eurorack/stmlib/utils/buffer_allocator.h ****     } else {
  65:eurorack/stmlib/utils/buffer_allocator.h ****       return NULL;
  66:eurorack/stmlib/utils/buffer_allocator.h ****     }
  67:eurorack/stmlib/utils/buffer_allocator.h ****   }
  68:eurorack/stmlib/utils/buffer_allocator.h ****   
  69:eurorack/stmlib/utils/buffer_allocator.h ****   inline void Free() {
ARM GAS  /var/folders/9s/8rp0_f2s1n31qbztm3b5_fdh0000gn/T//cc00qguF.s 			page 78


 2282              		.loc 14 69 15 view .LVU669
 2283              	.LBB438:
  70:eurorack/stmlib/utils/buffer_allocator.h ****     next_ = buffer_;
 2284              		.loc 14 70 5 view .LVU670
 2285              		.loc 14 70 11 is_stmt 0 view .LVU671
 2286 011a 7B68     		ldr	r3, [r7, #4]
 2287              	.LBE438:
 2288              	.LBE437:
  58:eurorack/plaits/dsp/voice.cc ****   }
 2289              		.loc 9 58 26 view .LVU672
 2290 011c 3946     		mov	r1, r7
 2291              	.LBB440:
 2292              	.LBB441:
 104:eurorack/plaits/dsp/engine/engine.h ****   }
 2293              		.loc 11 104 25 view .LVU673
 2294 011e 56F8040B 		ldr	r0, [r6], #4
 2295              	.LBE441:
 2296              	.LBE440:
  55:eurorack/plaits/dsp/voice.cc ****     // All engines will share the same RAM space.
 2297              		.loc 9 55 3 view .LVU674
 2298 0122 0135     		adds	r5, r5, #1
 2299              	.LVL189:
 2300              	.LBB442:
 2301              	.LBB439:
 2302              		.loc 14 70 11 view .LVU675
 2303 0124 3B60     		str	r3, [r7]
  71:eurorack/stmlib/utils/buffer_allocator.h ****     free_ = size_;
 2304              		.loc 14 71 5 is_stmt 1 view .LVU676
 2305              		.loc 14 71 11 is_stmt 0 view .LVU677
 2306 0126 FB68     		ldr	r3, [r7, #12]
 2307 0128 BB60     		str	r3, [r7, #8]
 2308              	.LVL190:
 2309              		.loc 14 71 11 view .LVU678
 2310              	.LBE439:
 2311              	.LBE442:
  58:eurorack/plaits/dsp/voice.cc ****   }
 2312              		.loc 9 58 5 is_stmt 1 view .LVU679
 2313              	.LBB443:
 2314              	.LBI440:
 103:eurorack/plaits/dsp/engine/engine.h ****     return engine_[index];
 2315              		.loc 11 103 18 view .LVU680
 103:eurorack/plaits/dsp/engine/engine.h ****     return engine_[index];
 2316              		.loc 11 103 18 is_stmt 0 view .LVU681
 2317              	.LBE443:
  58:eurorack/plaits/dsp/voice.cc ****   }
 2318              		.loc 9 58 36 view .LVU682
 2319 012a 0368     		ldr	r3, [r0]
  58:eurorack/plaits/dsp/voice.cc ****   }
 2320              		.loc 9 58 26 view .LVU683
 2321 012c 1B68     		ldr	r3, [r3]
 2322 012e 9847     		blx	r3
 2323              	.LVL191:
  55:eurorack/plaits/dsp/voice.cc ****     // All engines will share the same RAM space.
 2324              		.loc 9 55 3 is_stmt 1 view .LVU684
  55:eurorack/plaits/dsp/voice.cc ****     // All engines will share the same RAM space.
 2325              		.loc 9 55 3 is_stmt 0 view .LVU685
 2326 0130 EFE7     		b	.L122
ARM GAS  /var/folders/9s/8rp0_f2s1n31qbztm3b5_fdh0000gn/T//cc00qguF.s 			page 79


 2327              	.L121:
  55:eurorack/plaits/dsp/voice.cc ****     // All engines will share the same RAM space.
 2328              		.loc 9 55 3 view .LVU686
 2329              	.LBE435:
  61:eurorack/plaits/dsp/voice.cc ****   previous_engine_index_ = -1;
 2330              		.loc 9 61 3 is_stmt 1 view .LVU687
 2331              	.LVL192:
 2332              	.LBB444:
 2333              	.LBI444:
  42:eurorack/stmlib/dsp/hysteresis_quantizer.h ****     quantized_value_ = 0;
 2334              		.loc 12 42 8 view .LVU688
 2335              	.LBB445:
  43:eurorack/stmlib/dsp/hysteresis_quantizer.h ****   }
 2336              		.loc 12 43 5 view .LVU689
 2337              	.LBE445:
 2338              	.LBE444:
  62:eurorack/plaits/dsp/voice.cc ****   engine_cv_ = 0.0f;
 2339              		.loc 9 62 26 is_stmt 0 view .LVU690
 2340 0132 4FF0FF33 		mov	r3, #-1
  63:eurorack/plaits/dsp/voice.cc ****   
 2341              		.loc 9 63 14 view .LVU691
 2342 0136 0025     		movs	r5, #0
 2343              	.LVL193:
 2344              	.LBB448:
 2345              	.LBB446:
  43:eurorack/stmlib/dsp/hysteresis_quantizer.h ****   }
 2346              		.loc 12 43 22 view .LVU692
 2347 0138 0026     		movs	r6, #0
 2348              	.LBE446:
 2349              	.LBE448:
  65:eurorack/plaits/dsp/voice.cc ****   aux_post_processor_.Init();
 2350              		.loc 9 65 27 view .LVU693
 2351 013a 04F67440 		addw	r0, r4, #3188
  62:eurorack/plaits/dsp/voice.cc ****   engine_cv_ = 0.0f;
 2352              		.loc 9 62 26 view .LVU694
 2353 013e C4F8243C 		str	r3, [r4, #3108]
  63:eurorack/plaits/dsp/voice.cc ****   
 2354              		.loc 9 63 14 view .LVU695
 2355 0142 04F62843 		addw	r3, r4, #3112
 2356              	.LBB449:
 2357              	.LBB447:
  43:eurorack/stmlib/dsp/hysteresis_quantizer.h ****   }
 2358              		.loc 12 43 22 view .LVU696
 2359 0146 C4F8206C 		str	r6, [r4, #3104]
 2360              	.LVL194:
  43:eurorack/stmlib/dsp/hysteresis_quantizer.h ****   }
 2361              		.loc 12 43 22 view .LVU697
 2362              	.LBE447:
 2363              	.LBE449:
  62:eurorack/plaits/dsp/voice.cc ****   engine_cv_ = 0.0f;
 2364              		.loc 9 62 3 is_stmt 1 view .LVU698
  63:eurorack/plaits/dsp/voice.cc ****   
 2365              		.loc 9 63 3 view .LVU699
  63:eurorack/plaits/dsp/voice.cc ****   
 2366              		.loc 9 63 14 is_stmt 0 view .LVU700
 2367 014a 1D60     		str	r5, [r3]	@ float
  65:eurorack/plaits/dsp/voice.cc ****   aux_post_processor_.Init();
ARM GAS  /var/folders/9s/8rp0_f2s1n31qbztm3b5_fdh0000gn/T//cc00qguF.s 			page 80


 2368              		.loc 9 65 3 is_stmt 1 view .LVU701
  65:eurorack/plaits/dsp/voice.cc ****   aux_post_processor_.Init();
 2369              		.loc 9 65 27 is_stmt 0 view .LVU702
 2370 014c FFF7FEFF 		bl	_ZN6plaits20ChannelPostProcessor4InitEv
 2371              	.LVL195:
  66:eurorack/plaits/dsp/voice.cc **** 
 2372              		.loc 9 66 3 is_stmt 1 view .LVU703
  66:eurorack/plaits/dsp/voice.cc **** 
 2373              		.loc 9 66 27 is_stmt 0 view .LVU704
 2374 0150 04F54960 		add	r0, r4, #3216
 2375 0154 FFF7FEFF 		bl	_ZN6plaits20ChannelPostProcessor4InitEv
 2376              	.LVL196:
  68:eurorack/plaits/dsp/voice.cc ****   lpg_envelope_.Init();
 2377              		.loc 9 68 3 is_stmt 1 view .LVU705
 2378              	.LBB450:
 2379              	.LBI450:
 107:eurorack/plaits/dsp/envelope.h ****     value_ = 0.0f;
 2380              		.loc 2 107 15 view .LVU706
 2381              	.LBB451:
 108:eurorack/plaits/dsp/envelope.h ****   }
 2382              		.loc 2 108 5 view .LVU707
 108:eurorack/plaits/dsp/envelope.h ****   }
 2383              		.loc 2 108 12 is_stmt 0 view .LVU708
 2384 0158 04F63443 		addw	r3, r4, #3124
 2385              	.LVL197:
 108:eurorack/plaits/dsp/envelope.h ****   }
 2386              		.loc 2 108 12 view .LVU709
 2387              	.LBE451:
 2388              	.LBE450:
 2389              	.LBB453:
 2390              	.LBB454:
  43:eurorack/plaits/dsp/envelope.h ****     frequency_ = 0.5f;
 2391              		.loc 2 43 11 view .LVU710
 2392 015c 4FF07E52 		mov	r2, #1065353216
 2393              	.LBE454:
 2394              	.LBE453:
  74:eurorack/plaits/dsp/voice.cc **** }
 2395              		.loc 9 74 23 view .LVU711
 2396 0160 04F64C40 		addw	r0, r4, #3148
 2397              	.LBB458:
 2398              	.LBB452:
 108:eurorack/plaits/dsp/envelope.h ****   }
 2399              		.loc 2 108 12 view .LVU712
 2400 0164 1D60     		str	r5, [r3]	@ float
 2401              	.LVL198:
 108:eurorack/plaits/dsp/envelope.h ****   }
 2402              		.loc 2 108 12 view .LVU713
 2403              	.LBE452:
 2404              	.LBE458:
  69:eurorack/plaits/dsp/voice.cc ****   
 2405              		.loc 9 69 3 is_stmt 1 view .LVU714
 2406              	.LBB459:
 2407              	.LBI453:
  41:eurorack/plaits/dsp/envelope.h ****     vactrol_state_ = 0.0f;
 2408              		.loc 2 41 15 view .LVU715
 2409              	.LBB455:
  42:eurorack/plaits/dsp/envelope.h ****     gain_ = 1.0f;
ARM GAS  /var/folders/9s/8rp0_f2s1n31qbztm3b5_fdh0000gn/T//cc00qguF.s 			page 81


 2410              		.loc 2 42 5 view .LVU716
  42:eurorack/plaits/dsp/envelope.h ****     gain_ = 1.0f;
 2411              		.loc 2 42 20 is_stmt 0 view .LVU717
 2412 0166 04F63843 		addw	r3, r4, #3128
 2413              	.LVL199:
  42:eurorack/plaits/dsp/envelope.h ****     gain_ = 1.0f;
 2414              		.loc 2 42 20 view .LVU718
 2415              	.LBE455:
 2416              	.LBE459:
 2417              	.LBB460:
 2418              	.LBB461:
 2419              	.LBB462:
 2420              	.LBB463:
 2421              	.LBB464:
 2422              	.LBB465:
 2423              	.LBB466:
 2424              	.LBB467:
 261:/Library/DaisyToolchain/0.2.0/arm/arm-none-eabi/include/c++/10.3.1/bits/stl_algobase.h ****       return __a;
 262:/Library/DaisyToolchain/0.2.0/arm/arm-none-eabi/include/c++/10.3.1/bits/stl_algobase.h ****     }
 263:/Library/DaisyToolchain/0.2.0/arm/arm-none-eabi/include/c++/10.3.1/bits/stl_algobase.h **** 
 264:/Library/DaisyToolchain/0.2.0/arm/arm-none-eabi/include/c++/10.3.1/bits/stl_algobase.h ****   /**
 265:/Library/DaisyToolchain/0.2.0/arm/arm-none-eabi/include/c++/10.3.1/bits/stl_algobase.h ****    *  @brief This does what you think it does.
 266:/Library/DaisyToolchain/0.2.0/arm/arm-none-eabi/include/c++/10.3.1/bits/stl_algobase.h ****    *  @ingroup sorting_algorithms
 267:/Library/DaisyToolchain/0.2.0/arm/arm-none-eabi/include/c++/10.3.1/bits/stl_algobase.h ****    *  @param  __a  A thing of arbitrary type.
 268:/Library/DaisyToolchain/0.2.0/arm/arm-none-eabi/include/c++/10.3.1/bits/stl_algobase.h ****    *  @param  __b  Another thing of arbitrary type.
 269:/Library/DaisyToolchain/0.2.0/arm/arm-none-eabi/include/c++/10.3.1/bits/stl_algobase.h ****    *  @param  __comp  A @link comparison_functors comparison functor@endlink.
 270:/Library/DaisyToolchain/0.2.0/arm/arm-none-eabi/include/c++/10.3.1/bits/stl_algobase.h ****    *  @return   The lesser of the parameters.
 271:/Library/DaisyToolchain/0.2.0/arm/arm-none-eabi/include/c++/10.3.1/bits/stl_algobase.h ****    *
 272:/Library/DaisyToolchain/0.2.0/arm/arm-none-eabi/include/c++/10.3.1/bits/stl_algobase.h ****    *  This will work on temporary expressions, since they are only evaluated
 273:/Library/DaisyToolchain/0.2.0/arm/arm-none-eabi/include/c++/10.3.1/bits/stl_algobase.h ****    *  once, unlike a preprocessor macro.
 274:/Library/DaisyToolchain/0.2.0/arm/arm-none-eabi/include/c++/10.3.1/bits/stl_algobase.h ****   */
 275:/Library/DaisyToolchain/0.2.0/arm/arm-none-eabi/include/c++/10.3.1/bits/stl_algobase.h ****   template<typename _Tp, typename _Compare>
 276:/Library/DaisyToolchain/0.2.0/arm/arm-none-eabi/include/c++/10.3.1/bits/stl_algobase.h ****     _GLIBCXX14_CONSTEXPR
 277:/Library/DaisyToolchain/0.2.0/arm/arm-none-eabi/include/c++/10.3.1/bits/stl_algobase.h ****     inline const _Tp&
 278:/Library/DaisyToolchain/0.2.0/arm/arm-none-eabi/include/c++/10.3.1/bits/stl_algobase.h ****     min(const _Tp& __a, const _Tp& __b, _Compare __comp)
 279:/Library/DaisyToolchain/0.2.0/arm/arm-none-eabi/include/c++/10.3.1/bits/stl_algobase.h ****     {
 280:/Library/DaisyToolchain/0.2.0/arm/arm-none-eabi/include/c++/10.3.1/bits/stl_algobase.h ****       //return __comp(__b, __a) ? __b : __a;
 281:/Library/DaisyToolchain/0.2.0/arm/arm-none-eabi/include/c++/10.3.1/bits/stl_algobase.h ****       if (__comp(__b, __a))
 282:/Library/DaisyToolchain/0.2.0/arm/arm-none-eabi/include/c++/10.3.1/bits/stl_algobase.h **** 	return __b;
 283:/Library/DaisyToolchain/0.2.0/arm/arm-none-eabi/include/c++/10.3.1/bits/stl_algobase.h ****       return __a;
 284:/Library/DaisyToolchain/0.2.0/arm/arm-none-eabi/include/c++/10.3.1/bits/stl_algobase.h ****     }
 285:/Library/DaisyToolchain/0.2.0/arm/arm-none-eabi/include/c++/10.3.1/bits/stl_algobase.h **** 
 286:/Library/DaisyToolchain/0.2.0/arm/arm-none-eabi/include/c++/10.3.1/bits/stl_algobase.h ****   /**
 287:/Library/DaisyToolchain/0.2.0/arm/arm-none-eabi/include/c++/10.3.1/bits/stl_algobase.h ****    *  @brief This does what you think it does.
 288:/Library/DaisyToolchain/0.2.0/arm/arm-none-eabi/include/c++/10.3.1/bits/stl_algobase.h ****    *  @ingroup sorting_algorithms
 289:/Library/DaisyToolchain/0.2.0/arm/arm-none-eabi/include/c++/10.3.1/bits/stl_algobase.h ****    *  @param  __a  A thing of arbitrary type.
 290:/Library/DaisyToolchain/0.2.0/arm/arm-none-eabi/include/c++/10.3.1/bits/stl_algobase.h ****    *  @param  __b  Another thing of arbitrary type.
 291:/Library/DaisyToolchain/0.2.0/arm/arm-none-eabi/include/c++/10.3.1/bits/stl_algobase.h ****    *  @param  __comp  A @link comparison_functors comparison functor@endlink.
 292:/Library/DaisyToolchain/0.2.0/arm/arm-none-eabi/include/c++/10.3.1/bits/stl_algobase.h ****    *  @return   The greater of the parameters.
 293:/Library/DaisyToolchain/0.2.0/arm/arm-none-eabi/include/c++/10.3.1/bits/stl_algobase.h ****    *
 294:/Library/DaisyToolchain/0.2.0/arm/arm-none-eabi/include/c++/10.3.1/bits/stl_algobase.h ****    *  This will work on temporary expressions, since they are only evaluated
 295:/Library/DaisyToolchain/0.2.0/arm/arm-none-eabi/include/c++/10.3.1/bits/stl_algobase.h ****    *  once, unlike a preprocessor macro.
 296:/Library/DaisyToolchain/0.2.0/arm/arm-none-eabi/include/c++/10.3.1/bits/stl_algobase.h ****   */
 297:/Library/DaisyToolchain/0.2.0/arm/arm-none-eabi/include/c++/10.3.1/bits/stl_algobase.h ****   template<typename _Tp, typename _Compare>
 298:/Library/DaisyToolchain/0.2.0/arm/arm-none-eabi/include/c++/10.3.1/bits/stl_algobase.h ****     _GLIBCXX14_CONSTEXPR
 299:/Library/DaisyToolchain/0.2.0/arm/arm-none-eabi/include/c++/10.3.1/bits/stl_algobase.h ****     inline const _Tp&
 300:/Library/DaisyToolchain/0.2.0/arm/arm-none-eabi/include/c++/10.3.1/bits/stl_algobase.h ****     max(const _Tp& __a, const _Tp& __b, _Compare __comp)
ARM GAS  /var/folders/9s/8rp0_f2s1n31qbztm3b5_fdh0000gn/T//cc00qguF.s 			page 82


 301:/Library/DaisyToolchain/0.2.0/arm/arm-none-eabi/include/c++/10.3.1/bits/stl_algobase.h ****     {
 302:/Library/DaisyToolchain/0.2.0/arm/arm-none-eabi/include/c++/10.3.1/bits/stl_algobase.h ****       //return __comp(__a, __b) ? __b : __a;
 303:/Library/DaisyToolchain/0.2.0/arm/arm-none-eabi/include/c++/10.3.1/bits/stl_algobase.h ****       if (__comp(__a, __b))
 304:/Library/DaisyToolchain/0.2.0/arm/arm-none-eabi/include/c++/10.3.1/bits/stl_algobase.h **** 	return __b;
 305:/Library/DaisyToolchain/0.2.0/arm/arm-none-eabi/include/c++/10.3.1/bits/stl_algobase.h ****       return __a;
 306:/Library/DaisyToolchain/0.2.0/arm/arm-none-eabi/include/c++/10.3.1/bits/stl_algobase.h ****     }
 307:/Library/DaisyToolchain/0.2.0/arm/arm-none-eabi/include/c++/10.3.1/bits/stl_algobase.h **** 
 308:/Library/DaisyToolchain/0.2.0/arm/arm-none-eabi/include/c++/10.3.1/bits/stl_algobase.h ****   // Fallback implementation of the function in bits/stl_iterator.h used to
 309:/Library/DaisyToolchain/0.2.0/arm/arm-none-eabi/include/c++/10.3.1/bits/stl_algobase.h ****   // remove the __normal_iterator wrapper. See copy, fill, ...
 310:/Library/DaisyToolchain/0.2.0/arm/arm-none-eabi/include/c++/10.3.1/bits/stl_algobase.h ****   template<typename _Iterator>
 311:/Library/DaisyToolchain/0.2.0/arm/arm-none-eabi/include/c++/10.3.1/bits/stl_algobase.h ****     _GLIBCXX20_CONSTEXPR
 312:/Library/DaisyToolchain/0.2.0/arm/arm-none-eabi/include/c++/10.3.1/bits/stl_algobase.h ****     inline _Iterator
 313:/Library/DaisyToolchain/0.2.0/arm/arm-none-eabi/include/c++/10.3.1/bits/stl_algobase.h ****     __niter_base(_Iterator __it)
 314:/Library/DaisyToolchain/0.2.0/arm/arm-none-eabi/include/c++/10.3.1/bits/stl_algobase.h ****     _GLIBCXX_NOEXCEPT_IF(std::is_nothrow_copy_constructible<_Iterator>::value)
 315:/Library/DaisyToolchain/0.2.0/arm/arm-none-eabi/include/c++/10.3.1/bits/stl_algobase.h ****     { return __it; }
 316:/Library/DaisyToolchain/0.2.0/arm/arm-none-eabi/include/c++/10.3.1/bits/stl_algobase.h **** 
 317:/Library/DaisyToolchain/0.2.0/arm/arm-none-eabi/include/c++/10.3.1/bits/stl_algobase.h ****   // Reverse the __niter_base transformation to get a
 318:/Library/DaisyToolchain/0.2.0/arm/arm-none-eabi/include/c++/10.3.1/bits/stl_algobase.h ****   // __normal_iterator back again (this assumes that __normal_iterator
 319:/Library/DaisyToolchain/0.2.0/arm/arm-none-eabi/include/c++/10.3.1/bits/stl_algobase.h ****   // is only used to wrap random access iterators, like pointers).
 320:/Library/DaisyToolchain/0.2.0/arm/arm-none-eabi/include/c++/10.3.1/bits/stl_algobase.h ****   template<typename _From, typename _To>
 321:/Library/DaisyToolchain/0.2.0/arm/arm-none-eabi/include/c++/10.3.1/bits/stl_algobase.h ****     _GLIBCXX20_CONSTEXPR
 322:/Library/DaisyToolchain/0.2.0/arm/arm-none-eabi/include/c++/10.3.1/bits/stl_algobase.h ****     inline _From
 323:/Library/DaisyToolchain/0.2.0/arm/arm-none-eabi/include/c++/10.3.1/bits/stl_algobase.h ****     __niter_wrap(_From __from, _To __res)
 324:/Library/DaisyToolchain/0.2.0/arm/arm-none-eabi/include/c++/10.3.1/bits/stl_algobase.h ****     { return __from + (__res - std::__niter_base(__from)); }
 325:/Library/DaisyToolchain/0.2.0/arm/arm-none-eabi/include/c++/10.3.1/bits/stl_algobase.h **** 
 326:/Library/DaisyToolchain/0.2.0/arm/arm-none-eabi/include/c++/10.3.1/bits/stl_algobase.h ****   // No need to wrap, iterator already has the right type.
 327:/Library/DaisyToolchain/0.2.0/arm/arm-none-eabi/include/c++/10.3.1/bits/stl_algobase.h ****   template<typename _Iterator>
 328:/Library/DaisyToolchain/0.2.0/arm/arm-none-eabi/include/c++/10.3.1/bits/stl_algobase.h ****     _GLIBCXX20_CONSTEXPR
 329:/Library/DaisyToolchain/0.2.0/arm/arm-none-eabi/include/c++/10.3.1/bits/stl_algobase.h ****     inline _Iterator
 330:/Library/DaisyToolchain/0.2.0/arm/arm-none-eabi/include/c++/10.3.1/bits/stl_algobase.h ****     __niter_wrap(const _Iterator&, _Iterator __res)
 331:/Library/DaisyToolchain/0.2.0/arm/arm-none-eabi/include/c++/10.3.1/bits/stl_algobase.h ****     { return __res; }
 332:/Library/DaisyToolchain/0.2.0/arm/arm-none-eabi/include/c++/10.3.1/bits/stl_algobase.h **** 
 333:/Library/DaisyToolchain/0.2.0/arm/arm-none-eabi/include/c++/10.3.1/bits/stl_algobase.h ****   // All of these auxiliary structs serve two purposes.  (1) Replace
 334:/Library/DaisyToolchain/0.2.0/arm/arm-none-eabi/include/c++/10.3.1/bits/stl_algobase.h ****   // calls to copy with memmove whenever possible.  (Memmove, not memcpy,
 335:/Library/DaisyToolchain/0.2.0/arm/arm-none-eabi/include/c++/10.3.1/bits/stl_algobase.h ****   // because the input and output ranges are permitted to overlap.)
 336:/Library/DaisyToolchain/0.2.0/arm/arm-none-eabi/include/c++/10.3.1/bits/stl_algobase.h ****   // (2) If we're using random access iterators, then write the loop as
 337:/Library/DaisyToolchain/0.2.0/arm/arm-none-eabi/include/c++/10.3.1/bits/stl_algobase.h ****   // a for loop with an explicit count.
 338:/Library/DaisyToolchain/0.2.0/arm/arm-none-eabi/include/c++/10.3.1/bits/stl_algobase.h **** 
 339:/Library/DaisyToolchain/0.2.0/arm/arm-none-eabi/include/c++/10.3.1/bits/stl_algobase.h ****   template<bool _IsMove, bool _IsSimple, typename _Category>
 340:/Library/DaisyToolchain/0.2.0/arm/arm-none-eabi/include/c++/10.3.1/bits/stl_algobase.h ****     struct __copy_move
 341:/Library/DaisyToolchain/0.2.0/arm/arm-none-eabi/include/c++/10.3.1/bits/stl_algobase.h ****     {
 342:/Library/DaisyToolchain/0.2.0/arm/arm-none-eabi/include/c++/10.3.1/bits/stl_algobase.h ****       template<typename _II, typename _OI>
 343:/Library/DaisyToolchain/0.2.0/arm/arm-none-eabi/include/c++/10.3.1/bits/stl_algobase.h **** 	_GLIBCXX20_CONSTEXPR
 344:/Library/DaisyToolchain/0.2.0/arm/arm-none-eabi/include/c++/10.3.1/bits/stl_algobase.h **** 	static _OI
 345:/Library/DaisyToolchain/0.2.0/arm/arm-none-eabi/include/c++/10.3.1/bits/stl_algobase.h **** 	__copy_m(_II __first, _II __last, _OI __result)
 346:/Library/DaisyToolchain/0.2.0/arm/arm-none-eabi/include/c++/10.3.1/bits/stl_algobase.h **** 	{
 347:/Library/DaisyToolchain/0.2.0/arm/arm-none-eabi/include/c++/10.3.1/bits/stl_algobase.h **** 	  for (; __first != __last; ++__result, (void)++__first)
 348:/Library/DaisyToolchain/0.2.0/arm/arm-none-eabi/include/c++/10.3.1/bits/stl_algobase.h **** 	    *__result = *__first;
 349:/Library/DaisyToolchain/0.2.0/arm/arm-none-eabi/include/c++/10.3.1/bits/stl_algobase.h **** 	  return __result;
 350:/Library/DaisyToolchain/0.2.0/arm/arm-none-eabi/include/c++/10.3.1/bits/stl_algobase.h **** 	}
 351:/Library/DaisyToolchain/0.2.0/arm/arm-none-eabi/include/c++/10.3.1/bits/stl_algobase.h ****     };
 352:/Library/DaisyToolchain/0.2.0/arm/arm-none-eabi/include/c++/10.3.1/bits/stl_algobase.h **** 
 353:/Library/DaisyToolchain/0.2.0/arm/arm-none-eabi/include/c++/10.3.1/bits/stl_algobase.h **** #if __cplusplus >= 201103L
 354:/Library/DaisyToolchain/0.2.0/arm/arm-none-eabi/include/c++/10.3.1/bits/stl_algobase.h ****   template<typename _Category>
 355:/Library/DaisyToolchain/0.2.0/arm/arm-none-eabi/include/c++/10.3.1/bits/stl_algobase.h ****     struct __copy_move<true, false, _Category>
 356:/Library/DaisyToolchain/0.2.0/arm/arm-none-eabi/include/c++/10.3.1/bits/stl_algobase.h ****     {
 357:/Library/DaisyToolchain/0.2.0/arm/arm-none-eabi/include/c++/10.3.1/bits/stl_algobase.h ****       template<typename _II, typename _OI>
ARM GAS  /var/folders/9s/8rp0_f2s1n31qbztm3b5_fdh0000gn/T//cc00qguF.s 			page 83


 358:/Library/DaisyToolchain/0.2.0/arm/arm-none-eabi/include/c++/10.3.1/bits/stl_algobase.h **** 	_GLIBCXX20_CONSTEXPR
 359:/Library/DaisyToolchain/0.2.0/arm/arm-none-eabi/include/c++/10.3.1/bits/stl_algobase.h **** 	static _OI
 360:/Library/DaisyToolchain/0.2.0/arm/arm-none-eabi/include/c++/10.3.1/bits/stl_algobase.h **** 	__copy_m(_II __first, _II __last, _OI __result)
 361:/Library/DaisyToolchain/0.2.0/arm/arm-none-eabi/include/c++/10.3.1/bits/stl_algobase.h **** 	{
 362:/Library/DaisyToolchain/0.2.0/arm/arm-none-eabi/include/c++/10.3.1/bits/stl_algobase.h **** 	  for (; __first != __last; ++__result, (void)++__first)
 363:/Library/DaisyToolchain/0.2.0/arm/arm-none-eabi/include/c++/10.3.1/bits/stl_algobase.h **** 	    *__result = std::move(*__first);
 364:/Library/DaisyToolchain/0.2.0/arm/arm-none-eabi/include/c++/10.3.1/bits/stl_algobase.h **** 	  return __result;
 365:/Library/DaisyToolchain/0.2.0/arm/arm-none-eabi/include/c++/10.3.1/bits/stl_algobase.h **** 	}
 366:/Library/DaisyToolchain/0.2.0/arm/arm-none-eabi/include/c++/10.3.1/bits/stl_algobase.h ****     };
 367:/Library/DaisyToolchain/0.2.0/arm/arm-none-eabi/include/c++/10.3.1/bits/stl_algobase.h **** #endif
 368:/Library/DaisyToolchain/0.2.0/arm/arm-none-eabi/include/c++/10.3.1/bits/stl_algobase.h **** 
 369:/Library/DaisyToolchain/0.2.0/arm/arm-none-eabi/include/c++/10.3.1/bits/stl_algobase.h ****   template<>
 370:/Library/DaisyToolchain/0.2.0/arm/arm-none-eabi/include/c++/10.3.1/bits/stl_algobase.h ****     struct __copy_move<false, false, random_access_iterator_tag>
 371:/Library/DaisyToolchain/0.2.0/arm/arm-none-eabi/include/c++/10.3.1/bits/stl_algobase.h ****     {
 372:/Library/DaisyToolchain/0.2.0/arm/arm-none-eabi/include/c++/10.3.1/bits/stl_algobase.h ****       template<typename _II, typename _OI>
 373:/Library/DaisyToolchain/0.2.0/arm/arm-none-eabi/include/c++/10.3.1/bits/stl_algobase.h **** 	_GLIBCXX20_CONSTEXPR
 374:/Library/DaisyToolchain/0.2.0/arm/arm-none-eabi/include/c++/10.3.1/bits/stl_algobase.h **** 	static _OI
 375:/Library/DaisyToolchain/0.2.0/arm/arm-none-eabi/include/c++/10.3.1/bits/stl_algobase.h **** 	__copy_m(_II __first, _II __last, _OI __result)
 376:/Library/DaisyToolchain/0.2.0/arm/arm-none-eabi/include/c++/10.3.1/bits/stl_algobase.h **** 	{
 377:/Library/DaisyToolchain/0.2.0/arm/arm-none-eabi/include/c++/10.3.1/bits/stl_algobase.h **** 	  typedef typename iterator_traits<_II>::difference_type _Distance;
 378:/Library/DaisyToolchain/0.2.0/arm/arm-none-eabi/include/c++/10.3.1/bits/stl_algobase.h **** 	  for(_Distance __n = __last - __first; __n > 0; --__n)
 379:/Library/DaisyToolchain/0.2.0/arm/arm-none-eabi/include/c++/10.3.1/bits/stl_algobase.h **** 	    {
 380:/Library/DaisyToolchain/0.2.0/arm/arm-none-eabi/include/c++/10.3.1/bits/stl_algobase.h **** 	      *__result = *__first;
 381:/Library/DaisyToolchain/0.2.0/arm/arm-none-eabi/include/c++/10.3.1/bits/stl_algobase.h **** 	      ++__first;
 382:/Library/DaisyToolchain/0.2.0/arm/arm-none-eabi/include/c++/10.3.1/bits/stl_algobase.h **** 	      ++__result;
 383:/Library/DaisyToolchain/0.2.0/arm/arm-none-eabi/include/c++/10.3.1/bits/stl_algobase.h **** 	    }
 384:/Library/DaisyToolchain/0.2.0/arm/arm-none-eabi/include/c++/10.3.1/bits/stl_algobase.h **** 	  return __result;
 385:/Library/DaisyToolchain/0.2.0/arm/arm-none-eabi/include/c++/10.3.1/bits/stl_algobase.h **** 	}
 386:/Library/DaisyToolchain/0.2.0/arm/arm-none-eabi/include/c++/10.3.1/bits/stl_algobase.h ****     };
 387:/Library/DaisyToolchain/0.2.0/arm/arm-none-eabi/include/c++/10.3.1/bits/stl_algobase.h **** 
 388:/Library/DaisyToolchain/0.2.0/arm/arm-none-eabi/include/c++/10.3.1/bits/stl_algobase.h **** #if __cplusplus >= 201103L
 389:/Library/DaisyToolchain/0.2.0/arm/arm-none-eabi/include/c++/10.3.1/bits/stl_algobase.h ****   template<>
 390:/Library/DaisyToolchain/0.2.0/arm/arm-none-eabi/include/c++/10.3.1/bits/stl_algobase.h ****     struct __copy_move<true, false, random_access_iterator_tag>
 391:/Library/DaisyToolchain/0.2.0/arm/arm-none-eabi/include/c++/10.3.1/bits/stl_algobase.h ****     {
 392:/Library/DaisyToolchain/0.2.0/arm/arm-none-eabi/include/c++/10.3.1/bits/stl_algobase.h ****       template<typename _II, typename _OI>
 393:/Library/DaisyToolchain/0.2.0/arm/arm-none-eabi/include/c++/10.3.1/bits/stl_algobase.h **** 	_GLIBCXX20_CONSTEXPR
 394:/Library/DaisyToolchain/0.2.0/arm/arm-none-eabi/include/c++/10.3.1/bits/stl_algobase.h **** 	static _OI
 395:/Library/DaisyToolchain/0.2.0/arm/arm-none-eabi/include/c++/10.3.1/bits/stl_algobase.h **** 	__copy_m(_II __first, _II __last, _OI __result)
 396:/Library/DaisyToolchain/0.2.0/arm/arm-none-eabi/include/c++/10.3.1/bits/stl_algobase.h **** 	{
 397:/Library/DaisyToolchain/0.2.0/arm/arm-none-eabi/include/c++/10.3.1/bits/stl_algobase.h **** 	  typedef typename iterator_traits<_II>::difference_type _Distance;
 398:/Library/DaisyToolchain/0.2.0/arm/arm-none-eabi/include/c++/10.3.1/bits/stl_algobase.h **** 	  for(_Distance __n = __last - __first; __n > 0; --__n)
 399:/Library/DaisyToolchain/0.2.0/arm/arm-none-eabi/include/c++/10.3.1/bits/stl_algobase.h **** 	    {
 400:/Library/DaisyToolchain/0.2.0/arm/arm-none-eabi/include/c++/10.3.1/bits/stl_algobase.h **** 	      *__result = std::move(*__first);
 401:/Library/DaisyToolchain/0.2.0/arm/arm-none-eabi/include/c++/10.3.1/bits/stl_algobase.h **** 	      ++__first;
 402:/Library/DaisyToolchain/0.2.0/arm/arm-none-eabi/include/c++/10.3.1/bits/stl_algobase.h **** 	      ++__result;
 403:/Library/DaisyToolchain/0.2.0/arm/arm-none-eabi/include/c++/10.3.1/bits/stl_algobase.h **** 	    }
 404:/Library/DaisyToolchain/0.2.0/arm/arm-none-eabi/include/c++/10.3.1/bits/stl_algobase.h **** 	  return __result;
 405:/Library/DaisyToolchain/0.2.0/arm/arm-none-eabi/include/c++/10.3.1/bits/stl_algobase.h **** 	}
 406:/Library/DaisyToolchain/0.2.0/arm/arm-none-eabi/include/c++/10.3.1/bits/stl_algobase.h ****     };
 407:/Library/DaisyToolchain/0.2.0/arm/arm-none-eabi/include/c++/10.3.1/bits/stl_algobase.h **** #endif
 408:/Library/DaisyToolchain/0.2.0/arm/arm-none-eabi/include/c++/10.3.1/bits/stl_algobase.h **** 
 409:/Library/DaisyToolchain/0.2.0/arm/arm-none-eabi/include/c++/10.3.1/bits/stl_algobase.h ****   template<bool _IsMove>
 410:/Library/DaisyToolchain/0.2.0/arm/arm-none-eabi/include/c++/10.3.1/bits/stl_algobase.h ****     struct __copy_move<_IsMove, true, random_access_iterator_tag>
 411:/Library/DaisyToolchain/0.2.0/arm/arm-none-eabi/include/c++/10.3.1/bits/stl_algobase.h ****     {
 412:/Library/DaisyToolchain/0.2.0/arm/arm-none-eabi/include/c++/10.3.1/bits/stl_algobase.h ****       template<typename _Tp>
 413:/Library/DaisyToolchain/0.2.0/arm/arm-none-eabi/include/c++/10.3.1/bits/stl_algobase.h **** 	_GLIBCXX20_CONSTEXPR
 414:/Library/DaisyToolchain/0.2.0/arm/arm-none-eabi/include/c++/10.3.1/bits/stl_algobase.h **** 	static _Tp*
ARM GAS  /var/folders/9s/8rp0_f2s1n31qbztm3b5_fdh0000gn/T//cc00qguF.s 			page 84


 415:/Library/DaisyToolchain/0.2.0/arm/arm-none-eabi/include/c++/10.3.1/bits/stl_algobase.h **** 	__copy_m(const _Tp* __first, const _Tp* __last, _Tp* __result)
 416:/Library/DaisyToolchain/0.2.0/arm/arm-none-eabi/include/c++/10.3.1/bits/stl_algobase.h **** 	{
 417:/Library/DaisyToolchain/0.2.0/arm/arm-none-eabi/include/c++/10.3.1/bits/stl_algobase.h **** #if __cplusplus >= 201103L
 418:/Library/DaisyToolchain/0.2.0/arm/arm-none-eabi/include/c++/10.3.1/bits/stl_algobase.h **** 	  using __assignable = conditional<_IsMove,
 419:/Library/DaisyToolchain/0.2.0/arm/arm-none-eabi/include/c++/10.3.1/bits/stl_algobase.h **** 					   is_move_assignable<_Tp>,
 420:/Library/DaisyToolchain/0.2.0/arm/arm-none-eabi/include/c++/10.3.1/bits/stl_algobase.h **** 					   is_copy_assignable<_Tp>>;
 421:/Library/DaisyToolchain/0.2.0/arm/arm-none-eabi/include/c++/10.3.1/bits/stl_algobase.h **** 	  // trivial types can have deleted assignment
 422:/Library/DaisyToolchain/0.2.0/arm/arm-none-eabi/include/c++/10.3.1/bits/stl_algobase.h **** 	  static_assert( __assignable::type::value, "type is not assignable" );
 423:/Library/DaisyToolchain/0.2.0/arm/arm-none-eabi/include/c++/10.3.1/bits/stl_algobase.h **** #endif
 424:/Library/DaisyToolchain/0.2.0/arm/arm-none-eabi/include/c++/10.3.1/bits/stl_algobase.h **** 	  const ptrdiff_t _Num = __last - __first;
 425:/Library/DaisyToolchain/0.2.0/arm/arm-none-eabi/include/c++/10.3.1/bits/stl_algobase.h **** 	  if (_Num)
 426:/Library/DaisyToolchain/0.2.0/arm/arm-none-eabi/include/c++/10.3.1/bits/stl_algobase.h **** 	    __builtin_memmove(__result, __first, sizeof(_Tp) * _Num);
 427:/Library/DaisyToolchain/0.2.0/arm/arm-none-eabi/include/c++/10.3.1/bits/stl_algobase.h **** 	  return __result + _Num;
 428:/Library/DaisyToolchain/0.2.0/arm/arm-none-eabi/include/c++/10.3.1/bits/stl_algobase.h **** 	}
 429:/Library/DaisyToolchain/0.2.0/arm/arm-none-eabi/include/c++/10.3.1/bits/stl_algobase.h ****     };
 430:/Library/DaisyToolchain/0.2.0/arm/arm-none-eabi/include/c++/10.3.1/bits/stl_algobase.h **** 
 431:/Library/DaisyToolchain/0.2.0/arm/arm-none-eabi/include/c++/10.3.1/bits/stl_algobase.h ****   // Helpers for streambuf iterators (either istream or ostream).
 432:/Library/DaisyToolchain/0.2.0/arm/arm-none-eabi/include/c++/10.3.1/bits/stl_algobase.h ****   // NB: avoid including <iosfwd>, relatively large.
 433:/Library/DaisyToolchain/0.2.0/arm/arm-none-eabi/include/c++/10.3.1/bits/stl_algobase.h ****   template<typename _CharT>
 434:/Library/DaisyToolchain/0.2.0/arm/arm-none-eabi/include/c++/10.3.1/bits/stl_algobase.h ****     struct char_traits;
 435:/Library/DaisyToolchain/0.2.0/arm/arm-none-eabi/include/c++/10.3.1/bits/stl_algobase.h **** 
 436:/Library/DaisyToolchain/0.2.0/arm/arm-none-eabi/include/c++/10.3.1/bits/stl_algobase.h ****   template<typename _CharT, typename _Traits>
 437:/Library/DaisyToolchain/0.2.0/arm/arm-none-eabi/include/c++/10.3.1/bits/stl_algobase.h ****     class istreambuf_iterator;
 438:/Library/DaisyToolchain/0.2.0/arm/arm-none-eabi/include/c++/10.3.1/bits/stl_algobase.h **** 
 439:/Library/DaisyToolchain/0.2.0/arm/arm-none-eabi/include/c++/10.3.1/bits/stl_algobase.h ****   template<typename _CharT, typename _Traits>
 440:/Library/DaisyToolchain/0.2.0/arm/arm-none-eabi/include/c++/10.3.1/bits/stl_algobase.h ****     class ostreambuf_iterator;
 441:/Library/DaisyToolchain/0.2.0/arm/arm-none-eabi/include/c++/10.3.1/bits/stl_algobase.h **** 
 442:/Library/DaisyToolchain/0.2.0/arm/arm-none-eabi/include/c++/10.3.1/bits/stl_algobase.h ****   template<bool _IsMove, typename _CharT>
 443:/Library/DaisyToolchain/0.2.0/arm/arm-none-eabi/include/c++/10.3.1/bits/stl_algobase.h ****     typename __gnu_cxx::__enable_if<__is_char<_CharT>::__value,
 444:/Library/DaisyToolchain/0.2.0/arm/arm-none-eabi/include/c++/10.3.1/bits/stl_algobase.h **** 	     ostreambuf_iterator<_CharT, char_traits<_CharT> > >::__type
 445:/Library/DaisyToolchain/0.2.0/arm/arm-none-eabi/include/c++/10.3.1/bits/stl_algobase.h ****     __copy_move_a2(_CharT*, _CharT*,
 446:/Library/DaisyToolchain/0.2.0/arm/arm-none-eabi/include/c++/10.3.1/bits/stl_algobase.h **** 		   ostreambuf_iterator<_CharT, char_traits<_CharT> >);
 447:/Library/DaisyToolchain/0.2.0/arm/arm-none-eabi/include/c++/10.3.1/bits/stl_algobase.h **** 
 448:/Library/DaisyToolchain/0.2.0/arm/arm-none-eabi/include/c++/10.3.1/bits/stl_algobase.h ****   template<bool _IsMove, typename _CharT>
 449:/Library/DaisyToolchain/0.2.0/arm/arm-none-eabi/include/c++/10.3.1/bits/stl_algobase.h ****     typename __gnu_cxx::__enable_if<__is_char<_CharT>::__value,
 450:/Library/DaisyToolchain/0.2.0/arm/arm-none-eabi/include/c++/10.3.1/bits/stl_algobase.h **** 	     ostreambuf_iterator<_CharT, char_traits<_CharT> > >::__type
 451:/Library/DaisyToolchain/0.2.0/arm/arm-none-eabi/include/c++/10.3.1/bits/stl_algobase.h ****     __copy_move_a2(const _CharT*, const _CharT*,
 452:/Library/DaisyToolchain/0.2.0/arm/arm-none-eabi/include/c++/10.3.1/bits/stl_algobase.h **** 		   ostreambuf_iterator<_CharT, char_traits<_CharT> >);
 453:/Library/DaisyToolchain/0.2.0/arm/arm-none-eabi/include/c++/10.3.1/bits/stl_algobase.h **** 
 454:/Library/DaisyToolchain/0.2.0/arm/arm-none-eabi/include/c++/10.3.1/bits/stl_algobase.h ****   template<bool _IsMove, typename _CharT>
 455:/Library/DaisyToolchain/0.2.0/arm/arm-none-eabi/include/c++/10.3.1/bits/stl_algobase.h ****     typename __gnu_cxx::__enable_if<__is_char<_CharT>::__value,
 456:/Library/DaisyToolchain/0.2.0/arm/arm-none-eabi/include/c++/10.3.1/bits/stl_algobase.h **** 				    _CharT*>::__type
 457:/Library/DaisyToolchain/0.2.0/arm/arm-none-eabi/include/c++/10.3.1/bits/stl_algobase.h ****     __copy_move_a2(istreambuf_iterator<_CharT, char_traits<_CharT> >,
 458:/Library/DaisyToolchain/0.2.0/arm/arm-none-eabi/include/c++/10.3.1/bits/stl_algobase.h **** 		   istreambuf_iterator<_CharT, char_traits<_CharT> >, _CharT*);
 459:/Library/DaisyToolchain/0.2.0/arm/arm-none-eabi/include/c++/10.3.1/bits/stl_algobase.h **** 
 460:/Library/DaisyToolchain/0.2.0/arm/arm-none-eabi/include/c++/10.3.1/bits/stl_algobase.h ****   template<bool _IsMove, typename _II, typename _OI>
 461:/Library/DaisyToolchain/0.2.0/arm/arm-none-eabi/include/c++/10.3.1/bits/stl_algobase.h ****     _GLIBCXX20_CONSTEXPR
 462:/Library/DaisyToolchain/0.2.0/arm/arm-none-eabi/include/c++/10.3.1/bits/stl_algobase.h ****     inline _OI
 463:/Library/DaisyToolchain/0.2.0/arm/arm-none-eabi/include/c++/10.3.1/bits/stl_algobase.h ****     __copy_move_a2(_II __first, _II __last, _OI __result)
 464:/Library/DaisyToolchain/0.2.0/arm/arm-none-eabi/include/c++/10.3.1/bits/stl_algobase.h ****     {
 465:/Library/DaisyToolchain/0.2.0/arm/arm-none-eabi/include/c++/10.3.1/bits/stl_algobase.h ****       typedef typename iterator_traits<_II>::iterator_category _Category;
 466:/Library/DaisyToolchain/0.2.0/arm/arm-none-eabi/include/c++/10.3.1/bits/stl_algobase.h **** #ifdef __cpp_lib_is_constant_evaluated
 467:/Library/DaisyToolchain/0.2.0/arm/arm-none-eabi/include/c++/10.3.1/bits/stl_algobase.h ****       if (std::is_constant_evaluated())
 468:/Library/DaisyToolchain/0.2.0/arm/arm-none-eabi/include/c++/10.3.1/bits/stl_algobase.h **** 	return std::__copy_move<_IsMove, false, _Category>::
 469:/Library/DaisyToolchain/0.2.0/arm/arm-none-eabi/include/c++/10.3.1/bits/stl_algobase.h **** 	  __copy_m(__first, __last, __result);
 470:/Library/DaisyToolchain/0.2.0/arm/arm-none-eabi/include/c++/10.3.1/bits/stl_algobase.h **** #endif
 471:/Library/DaisyToolchain/0.2.0/arm/arm-none-eabi/include/c++/10.3.1/bits/stl_algobase.h ****       return std::__copy_move<_IsMove, __memcpyable<_OI, _II>::__value,
ARM GAS  /var/folders/9s/8rp0_f2s1n31qbztm3b5_fdh0000gn/T//cc00qguF.s 			page 85


 472:/Library/DaisyToolchain/0.2.0/arm/arm-none-eabi/include/c++/10.3.1/bits/stl_algobase.h **** 			      _Category>::__copy_m(__first, __last, __result);
 473:/Library/DaisyToolchain/0.2.0/arm/arm-none-eabi/include/c++/10.3.1/bits/stl_algobase.h ****     }
 474:/Library/DaisyToolchain/0.2.0/arm/arm-none-eabi/include/c++/10.3.1/bits/stl_algobase.h **** 
 475:/Library/DaisyToolchain/0.2.0/arm/arm-none-eabi/include/c++/10.3.1/bits/stl_algobase.h **** _GLIBCXX_BEGIN_NAMESPACE_CONTAINER
 476:/Library/DaisyToolchain/0.2.0/arm/arm-none-eabi/include/c++/10.3.1/bits/stl_algobase.h **** 
 477:/Library/DaisyToolchain/0.2.0/arm/arm-none-eabi/include/c++/10.3.1/bits/stl_algobase.h ****   template<typename _Tp, typename _Ref, typename _Ptr>
 478:/Library/DaisyToolchain/0.2.0/arm/arm-none-eabi/include/c++/10.3.1/bits/stl_algobase.h ****     struct _Deque_iterator;
 479:/Library/DaisyToolchain/0.2.0/arm/arm-none-eabi/include/c++/10.3.1/bits/stl_algobase.h **** 
 480:/Library/DaisyToolchain/0.2.0/arm/arm-none-eabi/include/c++/10.3.1/bits/stl_algobase.h **** _GLIBCXX_END_NAMESPACE_CONTAINER
 481:/Library/DaisyToolchain/0.2.0/arm/arm-none-eabi/include/c++/10.3.1/bits/stl_algobase.h **** 
 482:/Library/DaisyToolchain/0.2.0/arm/arm-none-eabi/include/c++/10.3.1/bits/stl_algobase.h ****   template<bool _IsMove,
 483:/Library/DaisyToolchain/0.2.0/arm/arm-none-eabi/include/c++/10.3.1/bits/stl_algobase.h **** 	   typename _Tp, typename _Ref, typename _Ptr, typename _OI>
 484:/Library/DaisyToolchain/0.2.0/arm/arm-none-eabi/include/c++/10.3.1/bits/stl_algobase.h ****     _OI
 485:/Library/DaisyToolchain/0.2.0/arm/arm-none-eabi/include/c++/10.3.1/bits/stl_algobase.h ****     __copy_move_a1(_GLIBCXX_STD_C::_Deque_iterator<_Tp, _Ref, _Ptr>,
 486:/Library/DaisyToolchain/0.2.0/arm/arm-none-eabi/include/c++/10.3.1/bits/stl_algobase.h **** 		   _GLIBCXX_STD_C::_Deque_iterator<_Tp, _Ref, _Ptr>,
 487:/Library/DaisyToolchain/0.2.0/arm/arm-none-eabi/include/c++/10.3.1/bits/stl_algobase.h **** 		   _OI);
 488:/Library/DaisyToolchain/0.2.0/arm/arm-none-eabi/include/c++/10.3.1/bits/stl_algobase.h **** 
 489:/Library/DaisyToolchain/0.2.0/arm/arm-none-eabi/include/c++/10.3.1/bits/stl_algobase.h ****   template<bool _IsMove,
 490:/Library/DaisyToolchain/0.2.0/arm/arm-none-eabi/include/c++/10.3.1/bits/stl_algobase.h **** 	   typename _ITp, typename _IRef, typename _IPtr, typename _OTp>
 491:/Library/DaisyToolchain/0.2.0/arm/arm-none-eabi/include/c++/10.3.1/bits/stl_algobase.h ****     _GLIBCXX_STD_C::_Deque_iterator<_OTp, _OTp&, _OTp*>
 492:/Library/DaisyToolchain/0.2.0/arm/arm-none-eabi/include/c++/10.3.1/bits/stl_algobase.h ****     __copy_move_a1(_GLIBCXX_STD_C::_Deque_iterator<_ITp, _IRef, _IPtr>,
 493:/Library/DaisyToolchain/0.2.0/arm/arm-none-eabi/include/c++/10.3.1/bits/stl_algobase.h **** 		   _GLIBCXX_STD_C::_Deque_iterator<_ITp, _IRef, _IPtr>,
 494:/Library/DaisyToolchain/0.2.0/arm/arm-none-eabi/include/c++/10.3.1/bits/stl_algobase.h **** 		   _GLIBCXX_STD_C::_Deque_iterator<_OTp, _OTp&, _OTp*>);
 495:/Library/DaisyToolchain/0.2.0/arm/arm-none-eabi/include/c++/10.3.1/bits/stl_algobase.h **** 
 496:/Library/DaisyToolchain/0.2.0/arm/arm-none-eabi/include/c++/10.3.1/bits/stl_algobase.h ****   template<bool _IsMove, typename _II, typename _Tp>
 497:/Library/DaisyToolchain/0.2.0/arm/arm-none-eabi/include/c++/10.3.1/bits/stl_algobase.h ****     typename __gnu_cxx::__enable_if<
 498:/Library/DaisyToolchain/0.2.0/arm/arm-none-eabi/include/c++/10.3.1/bits/stl_algobase.h ****       __is_random_access_iter<_II>::__value,
 499:/Library/DaisyToolchain/0.2.0/arm/arm-none-eabi/include/c++/10.3.1/bits/stl_algobase.h ****       _GLIBCXX_STD_C::_Deque_iterator<_Tp, _Tp&, _Tp*> >::__type
 500:/Library/DaisyToolchain/0.2.0/arm/arm-none-eabi/include/c++/10.3.1/bits/stl_algobase.h ****     __copy_move_a1(_II, _II, _GLIBCXX_STD_C::_Deque_iterator<_Tp, _Tp&, _Tp*>);
 501:/Library/DaisyToolchain/0.2.0/arm/arm-none-eabi/include/c++/10.3.1/bits/stl_algobase.h **** 
 502:/Library/DaisyToolchain/0.2.0/arm/arm-none-eabi/include/c++/10.3.1/bits/stl_algobase.h ****   template<bool _IsMove, typename _II, typename _OI>
 503:/Library/DaisyToolchain/0.2.0/arm/arm-none-eabi/include/c++/10.3.1/bits/stl_algobase.h ****     _GLIBCXX20_CONSTEXPR
 504:/Library/DaisyToolchain/0.2.0/arm/arm-none-eabi/include/c++/10.3.1/bits/stl_algobase.h ****     inline _OI
 505:/Library/DaisyToolchain/0.2.0/arm/arm-none-eabi/include/c++/10.3.1/bits/stl_algobase.h ****     __copy_move_a1(_II __first, _II __last, _OI __result)
 506:/Library/DaisyToolchain/0.2.0/arm/arm-none-eabi/include/c++/10.3.1/bits/stl_algobase.h ****     { return std::__copy_move_a2<_IsMove>(__first, __last, __result); }
 507:/Library/DaisyToolchain/0.2.0/arm/arm-none-eabi/include/c++/10.3.1/bits/stl_algobase.h **** 
 508:/Library/DaisyToolchain/0.2.0/arm/arm-none-eabi/include/c++/10.3.1/bits/stl_algobase.h ****   template<bool _IsMove, typename _II, typename _OI>
 509:/Library/DaisyToolchain/0.2.0/arm/arm-none-eabi/include/c++/10.3.1/bits/stl_algobase.h ****     _GLIBCXX20_CONSTEXPR
 510:/Library/DaisyToolchain/0.2.0/arm/arm-none-eabi/include/c++/10.3.1/bits/stl_algobase.h ****     inline _OI
 511:/Library/DaisyToolchain/0.2.0/arm/arm-none-eabi/include/c++/10.3.1/bits/stl_algobase.h ****     __copy_move_a(_II __first, _II __last, _OI __result)
 512:/Library/DaisyToolchain/0.2.0/arm/arm-none-eabi/include/c++/10.3.1/bits/stl_algobase.h ****     {
 513:/Library/DaisyToolchain/0.2.0/arm/arm-none-eabi/include/c++/10.3.1/bits/stl_algobase.h ****       return std::__niter_wrap(__result,
 514:/Library/DaisyToolchain/0.2.0/arm/arm-none-eabi/include/c++/10.3.1/bits/stl_algobase.h **** 		std::__copy_move_a1<_IsMove>(std::__niter_base(__first),
 515:/Library/DaisyToolchain/0.2.0/arm/arm-none-eabi/include/c++/10.3.1/bits/stl_algobase.h **** 					     std::__niter_base(__last),
 516:/Library/DaisyToolchain/0.2.0/arm/arm-none-eabi/include/c++/10.3.1/bits/stl_algobase.h **** 					     std::__niter_base(__result)));
 517:/Library/DaisyToolchain/0.2.0/arm/arm-none-eabi/include/c++/10.3.1/bits/stl_algobase.h ****     }
 518:/Library/DaisyToolchain/0.2.0/arm/arm-none-eabi/include/c++/10.3.1/bits/stl_algobase.h **** 
 519:/Library/DaisyToolchain/0.2.0/arm/arm-none-eabi/include/c++/10.3.1/bits/stl_algobase.h ****   template<bool _IsMove,
 520:/Library/DaisyToolchain/0.2.0/arm/arm-none-eabi/include/c++/10.3.1/bits/stl_algobase.h **** 	   typename _Ite, typename _Seq, typename _Cat, typename _OI>
 521:/Library/DaisyToolchain/0.2.0/arm/arm-none-eabi/include/c++/10.3.1/bits/stl_algobase.h ****     _OI
 522:/Library/DaisyToolchain/0.2.0/arm/arm-none-eabi/include/c++/10.3.1/bits/stl_algobase.h ****     __copy_move_a(const ::__gnu_debug::_Safe_iterator<_Ite, _Seq, _Cat>&,
 523:/Library/DaisyToolchain/0.2.0/arm/arm-none-eabi/include/c++/10.3.1/bits/stl_algobase.h **** 		  const ::__gnu_debug::_Safe_iterator<_Ite, _Seq, _Cat>&,
 524:/Library/DaisyToolchain/0.2.0/arm/arm-none-eabi/include/c++/10.3.1/bits/stl_algobase.h **** 		  _OI);
 525:/Library/DaisyToolchain/0.2.0/arm/arm-none-eabi/include/c++/10.3.1/bits/stl_algobase.h **** 
 526:/Library/DaisyToolchain/0.2.0/arm/arm-none-eabi/include/c++/10.3.1/bits/stl_algobase.h ****   template<bool _IsMove,
 527:/Library/DaisyToolchain/0.2.0/arm/arm-none-eabi/include/c++/10.3.1/bits/stl_algobase.h **** 	   typename _II, typename _Ite, typename _Seq, typename _Cat>
 528:/Library/DaisyToolchain/0.2.0/arm/arm-none-eabi/include/c++/10.3.1/bits/stl_algobase.h ****     __gnu_debug::_Safe_iterator<_Ite, _Seq, _Cat>
ARM GAS  /var/folders/9s/8rp0_f2s1n31qbztm3b5_fdh0000gn/T//cc00qguF.s 			page 86


 529:/Library/DaisyToolchain/0.2.0/arm/arm-none-eabi/include/c++/10.3.1/bits/stl_algobase.h ****     __copy_move_a(_II, _II,
 530:/Library/DaisyToolchain/0.2.0/arm/arm-none-eabi/include/c++/10.3.1/bits/stl_algobase.h **** 		  const ::__gnu_debug::_Safe_iterator<_Ite, _Seq, _Cat>&);
 531:/Library/DaisyToolchain/0.2.0/arm/arm-none-eabi/include/c++/10.3.1/bits/stl_algobase.h **** 
 532:/Library/DaisyToolchain/0.2.0/arm/arm-none-eabi/include/c++/10.3.1/bits/stl_algobase.h ****   template<bool _IsMove,
 533:/Library/DaisyToolchain/0.2.0/arm/arm-none-eabi/include/c++/10.3.1/bits/stl_algobase.h **** 	   typename _IIte, typename _ISeq, typename _ICat,
 534:/Library/DaisyToolchain/0.2.0/arm/arm-none-eabi/include/c++/10.3.1/bits/stl_algobase.h **** 	   typename _OIte, typename _OSeq, typename _OCat>
 535:/Library/DaisyToolchain/0.2.0/arm/arm-none-eabi/include/c++/10.3.1/bits/stl_algobase.h ****     ::__gnu_debug::_Safe_iterator<_OIte, _OSeq, _OCat>
 536:/Library/DaisyToolchain/0.2.0/arm/arm-none-eabi/include/c++/10.3.1/bits/stl_algobase.h ****     __copy_move_a(const ::__gnu_debug::_Safe_iterator<_IIte, _ISeq, _ICat>&,
 537:/Library/DaisyToolchain/0.2.0/arm/arm-none-eabi/include/c++/10.3.1/bits/stl_algobase.h **** 		  const ::__gnu_debug::_Safe_iterator<_IIte, _ISeq, _ICat>&,
 538:/Library/DaisyToolchain/0.2.0/arm/arm-none-eabi/include/c++/10.3.1/bits/stl_algobase.h **** 		  const ::__gnu_debug::_Safe_iterator<_OIte, _OSeq, _OCat>&);
 539:/Library/DaisyToolchain/0.2.0/arm/arm-none-eabi/include/c++/10.3.1/bits/stl_algobase.h **** 
 540:/Library/DaisyToolchain/0.2.0/arm/arm-none-eabi/include/c++/10.3.1/bits/stl_algobase.h ****   /**
 541:/Library/DaisyToolchain/0.2.0/arm/arm-none-eabi/include/c++/10.3.1/bits/stl_algobase.h ****    *  @brief Copies the range [first,last) into result.
 542:/Library/DaisyToolchain/0.2.0/arm/arm-none-eabi/include/c++/10.3.1/bits/stl_algobase.h ****    *  @ingroup mutating_algorithms
 543:/Library/DaisyToolchain/0.2.0/arm/arm-none-eabi/include/c++/10.3.1/bits/stl_algobase.h ****    *  @param  __first  An input iterator.
 544:/Library/DaisyToolchain/0.2.0/arm/arm-none-eabi/include/c++/10.3.1/bits/stl_algobase.h ****    *  @param  __last   An input iterator.
 545:/Library/DaisyToolchain/0.2.0/arm/arm-none-eabi/include/c++/10.3.1/bits/stl_algobase.h ****    *  @param  __result An output iterator.
 546:/Library/DaisyToolchain/0.2.0/arm/arm-none-eabi/include/c++/10.3.1/bits/stl_algobase.h ****    *  @return   result + (last - first)
 547:/Library/DaisyToolchain/0.2.0/arm/arm-none-eabi/include/c++/10.3.1/bits/stl_algobase.h ****    *
 548:/Library/DaisyToolchain/0.2.0/arm/arm-none-eabi/include/c++/10.3.1/bits/stl_algobase.h ****    *  This inline function will boil down to a call to @c memmove whenever
 549:/Library/DaisyToolchain/0.2.0/arm/arm-none-eabi/include/c++/10.3.1/bits/stl_algobase.h ****    *  possible.  Failing that, if random access iterators are passed, then the
 550:/Library/DaisyToolchain/0.2.0/arm/arm-none-eabi/include/c++/10.3.1/bits/stl_algobase.h ****    *  loop count will be known (and therefore a candidate for compiler
 551:/Library/DaisyToolchain/0.2.0/arm/arm-none-eabi/include/c++/10.3.1/bits/stl_algobase.h ****    *  optimizations such as unrolling).  Result may not be contained within
 552:/Library/DaisyToolchain/0.2.0/arm/arm-none-eabi/include/c++/10.3.1/bits/stl_algobase.h ****    *  [first,last); the copy_backward function should be used instead.
 553:/Library/DaisyToolchain/0.2.0/arm/arm-none-eabi/include/c++/10.3.1/bits/stl_algobase.h ****    *
 554:/Library/DaisyToolchain/0.2.0/arm/arm-none-eabi/include/c++/10.3.1/bits/stl_algobase.h ****    *  Note that the end of the output range is permitted to be contained
 555:/Library/DaisyToolchain/0.2.0/arm/arm-none-eabi/include/c++/10.3.1/bits/stl_algobase.h ****    *  within [first,last).
 556:/Library/DaisyToolchain/0.2.0/arm/arm-none-eabi/include/c++/10.3.1/bits/stl_algobase.h ****   */
 557:/Library/DaisyToolchain/0.2.0/arm/arm-none-eabi/include/c++/10.3.1/bits/stl_algobase.h ****   template<typename _II, typename _OI>
 558:/Library/DaisyToolchain/0.2.0/arm/arm-none-eabi/include/c++/10.3.1/bits/stl_algobase.h ****     _GLIBCXX20_CONSTEXPR
 559:/Library/DaisyToolchain/0.2.0/arm/arm-none-eabi/include/c++/10.3.1/bits/stl_algobase.h ****     inline _OI
 560:/Library/DaisyToolchain/0.2.0/arm/arm-none-eabi/include/c++/10.3.1/bits/stl_algobase.h ****     copy(_II __first, _II __last, _OI __result)
 561:/Library/DaisyToolchain/0.2.0/arm/arm-none-eabi/include/c++/10.3.1/bits/stl_algobase.h ****     {
 562:/Library/DaisyToolchain/0.2.0/arm/arm-none-eabi/include/c++/10.3.1/bits/stl_algobase.h ****       // concept requirements
 563:/Library/DaisyToolchain/0.2.0/arm/arm-none-eabi/include/c++/10.3.1/bits/stl_algobase.h ****       __glibcxx_function_requires(_InputIteratorConcept<_II>)
 564:/Library/DaisyToolchain/0.2.0/arm/arm-none-eabi/include/c++/10.3.1/bits/stl_algobase.h ****       __glibcxx_function_requires(_OutputIteratorConcept<_OI,
 565:/Library/DaisyToolchain/0.2.0/arm/arm-none-eabi/include/c++/10.3.1/bits/stl_algobase.h **** 	    typename iterator_traits<_II>::value_type>)
 566:/Library/DaisyToolchain/0.2.0/arm/arm-none-eabi/include/c++/10.3.1/bits/stl_algobase.h ****       __glibcxx_requires_can_increment_range(__first, __last, __result);
 567:/Library/DaisyToolchain/0.2.0/arm/arm-none-eabi/include/c++/10.3.1/bits/stl_algobase.h **** 
 568:/Library/DaisyToolchain/0.2.0/arm/arm-none-eabi/include/c++/10.3.1/bits/stl_algobase.h ****       return std::__copy_move_a<__is_move_iterator<_II>::__value>
 569:/Library/DaisyToolchain/0.2.0/arm/arm-none-eabi/include/c++/10.3.1/bits/stl_algobase.h **** 	     (std::__miter_base(__first), std::__miter_base(__last), __result);
 570:/Library/DaisyToolchain/0.2.0/arm/arm-none-eabi/include/c++/10.3.1/bits/stl_algobase.h ****     }
 571:/Library/DaisyToolchain/0.2.0/arm/arm-none-eabi/include/c++/10.3.1/bits/stl_algobase.h **** 
 572:/Library/DaisyToolchain/0.2.0/arm/arm-none-eabi/include/c++/10.3.1/bits/stl_algobase.h **** #if __cplusplus >= 201103L
 573:/Library/DaisyToolchain/0.2.0/arm/arm-none-eabi/include/c++/10.3.1/bits/stl_algobase.h ****   /**
 574:/Library/DaisyToolchain/0.2.0/arm/arm-none-eabi/include/c++/10.3.1/bits/stl_algobase.h ****    *  @brief Moves the range [first,last) into result.
 575:/Library/DaisyToolchain/0.2.0/arm/arm-none-eabi/include/c++/10.3.1/bits/stl_algobase.h ****    *  @ingroup mutating_algorithms
 576:/Library/DaisyToolchain/0.2.0/arm/arm-none-eabi/include/c++/10.3.1/bits/stl_algobase.h ****    *  @param  __first  An input iterator.
 577:/Library/DaisyToolchain/0.2.0/arm/arm-none-eabi/include/c++/10.3.1/bits/stl_algobase.h ****    *  @param  __last   An input iterator.
 578:/Library/DaisyToolchain/0.2.0/arm/arm-none-eabi/include/c++/10.3.1/bits/stl_algobase.h ****    *  @param  __result An output iterator.
 579:/Library/DaisyToolchain/0.2.0/arm/arm-none-eabi/include/c++/10.3.1/bits/stl_algobase.h ****    *  @return   result + (last - first)
 580:/Library/DaisyToolchain/0.2.0/arm/arm-none-eabi/include/c++/10.3.1/bits/stl_algobase.h ****    *
 581:/Library/DaisyToolchain/0.2.0/arm/arm-none-eabi/include/c++/10.3.1/bits/stl_algobase.h ****    *  This inline function will boil down to a call to @c memmove whenever
 582:/Library/DaisyToolchain/0.2.0/arm/arm-none-eabi/include/c++/10.3.1/bits/stl_algobase.h ****    *  possible.  Failing that, if random access iterators are passed, then the
 583:/Library/DaisyToolchain/0.2.0/arm/arm-none-eabi/include/c++/10.3.1/bits/stl_algobase.h ****    *  loop count will be known (and therefore a candidate for compiler
 584:/Library/DaisyToolchain/0.2.0/arm/arm-none-eabi/include/c++/10.3.1/bits/stl_algobase.h ****    *  optimizations such as unrolling).  Result may not be contained within
 585:/Library/DaisyToolchain/0.2.0/arm/arm-none-eabi/include/c++/10.3.1/bits/stl_algobase.h ****    *  [first,last); the move_backward function should be used instead.
ARM GAS  /var/folders/9s/8rp0_f2s1n31qbztm3b5_fdh0000gn/T//cc00qguF.s 			page 87


 586:/Library/DaisyToolchain/0.2.0/arm/arm-none-eabi/include/c++/10.3.1/bits/stl_algobase.h ****    *
 587:/Library/DaisyToolchain/0.2.0/arm/arm-none-eabi/include/c++/10.3.1/bits/stl_algobase.h ****    *  Note that the end of the output range is permitted to be contained
 588:/Library/DaisyToolchain/0.2.0/arm/arm-none-eabi/include/c++/10.3.1/bits/stl_algobase.h ****    *  within [first,last).
 589:/Library/DaisyToolchain/0.2.0/arm/arm-none-eabi/include/c++/10.3.1/bits/stl_algobase.h ****   */
 590:/Library/DaisyToolchain/0.2.0/arm/arm-none-eabi/include/c++/10.3.1/bits/stl_algobase.h ****   template<typename _II, typename _OI>
 591:/Library/DaisyToolchain/0.2.0/arm/arm-none-eabi/include/c++/10.3.1/bits/stl_algobase.h ****     _GLIBCXX20_CONSTEXPR
 592:/Library/DaisyToolchain/0.2.0/arm/arm-none-eabi/include/c++/10.3.1/bits/stl_algobase.h ****     inline _OI
 593:/Library/DaisyToolchain/0.2.0/arm/arm-none-eabi/include/c++/10.3.1/bits/stl_algobase.h ****     move(_II __first, _II __last, _OI __result)
 594:/Library/DaisyToolchain/0.2.0/arm/arm-none-eabi/include/c++/10.3.1/bits/stl_algobase.h ****     {
 595:/Library/DaisyToolchain/0.2.0/arm/arm-none-eabi/include/c++/10.3.1/bits/stl_algobase.h ****       // concept requirements
 596:/Library/DaisyToolchain/0.2.0/arm/arm-none-eabi/include/c++/10.3.1/bits/stl_algobase.h ****       __glibcxx_function_requires(_InputIteratorConcept<_II>)
 597:/Library/DaisyToolchain/0.2.0/arm/arm-none-eabi/include/c++/10.3.1/bits/stl_algobase.h ****       __glibcxx_function_requires(_OutputIteratorConcept<_OI,
 598:/Library/DaisyToolchain/0.2.0/arm/arm-none-eabi/include/c++/10.3.1/bits/stl_algobase.h **** 	    typename iterator_traits<_II>::value_type>)
 599:/Library/DaisyToolchain/0.2.0/arm/arm-none-eabi/include/c++/10.3.1/bits/stl_algobase.h ****       __glibcxx_requires_can_increment_range(__first, __last, __result);
 600:/Library/DaisyToolchain/0.2.0/arm/arm-none-eabi/include/c++/10.3.1/bits/stl_algobase.h **** 
 601:/Library/DaisyToolchain/0.2.0/arm/arm-none-eabi/include/c++/10.3.1/bits/stl_algobase.h ****       return std::__copy_move_a<true>(std::__miter_base(__first),
 602:/Library/DaisyToolchain/0.2.0/arm/arm-none-eabi/include/c++/10.3.1/bits/stl_algobase.h **** 				      std::__miter_base(__last), __result);
 603:/Library/DaisyToolchain/0.2.0/arm/arm-none-eabi/include/c++/10.3.1/bits/stl_algobase.h ****     }
 604:/Library/DaisyToolchain/0.2.0/arm/arm-none-eabi/include/c++/10.3.1/bits/stl_algobase.h **** 
 605:/Library/DaisyToolchain/0.2.0/arm/arm-none-eabi/include/c++/10.3.1/bits/stl_algobase.h **** #define _GLIBCXX_MOVE3(_Tp, _Up, _Vp) std::move(_Tp, _Up, _Vp)
 606:/Library/DaisyToolchain/0.2.0/arm/arm-none-eabi/include/c++/10.3.1/bits/stl_algobase.h **** #else
 607:/Library/DaisyToolchain/0.2.0/arm/arm-none-eabi/include/c++/10.3.1/bits/stl_algobase.h **** #define _GLIBCXX_MOVE3(_Tp, _Up, _Vp) std::copy(_Tp, _Up, _Vp)
 608:/Library/DaisyToolchain/0.2.0/arm/arm-none-eabi/include/c++/10.3.1/bits/stl_algobase.h **** #endif
 609:/Library/DaisyToolchain/0.2.0/arm/arm-none-eabi/include/c++/10.3.1/bits/stl_algobase.h **** 
 610:/Library/DaisyToolchain/0.2.0/arm/arm-none-eabi/include/c++/10.3.1/bits/stl_algobase.h ****   template<bool _IsMove, bool _IsSimple, typename _Category>
 611:/Library/DaisyToolchain/0.2.0/arm/arm-none-eabi/include/c++/10.3.1/bits/stl_algobase.h ****     struct __copy_move_backward
 612:/Library/DaisyToolchain/0.2.0/arm/arm-none-eabi/include/c++/10.3.1/bits/stl_algobase.h ****     {
 613:/Library/DaisyToolchain/0.2.0/arm/arm-none-eabi/include/c++/10.3.1/bits/stl_algobase.h ****       template<typename _BI1, typename _BI2>
 614:/Library/DaisyToolchain/0.2.0/arm/arm-none-eabi/include/c++/10.3.1/bits/stl_algobase.h **** 	_GLIBCXX20_CONSTEXPR
 615:/Library/DaisyToolchain/0.2.0/arm/arm-none-eabi/include/c++/10.3.1/bits/stl_algobase.h **** 	static _BI2
 616:/Library/DaisyToolchain/0.2.0/arm/arm-none-eabi/include/c++/10.3.1/bits/stl_algobase.h **** 	__copy_move_b(_BI1 __first, _BI1 __last, _BI2 __result)
 617:/Library/DaisyToolchain/0.2.0/arm/arm-none-eabi/include/c++/10.3.1/bits/stl_algobase.h **** 	{
 618:/Library/DaisyToolchain/0.2.0/arm/arm-none-eabi/include/c++/10.3.1/bits/stl_algobase.h **** 	  while (__first != __last)
 619:/Library/DaisyToolchain/0.2.0/arm/arm-none-eabi/include/c++/10.3.1/bits/stl_algobase.h **** 	    *--__result = *--__last;
 620:/Library/DaisyToolchain/0.2.0/arm/arm-none-eabi/include/c++/10.3.1/bits/stl_algobase.h **** 	  return __result;
 621:/Library/DaisyToolchain/0.2.0/arm/arm-none-eabi/include/c++/10.3.1/bits/stl_algobase.h **** 	}
 622:/Library/DaisyToolchain/0.2.0/arm/arm-none-eabi/include/c++/10.3.1/bits/stl_algobase.h ****     };
 623:/Library/DaisyToolchain/0.2.0/arm/arm-none-eabi/include/c++/10.3.1/bits/stl_algobase.h **** 
 624:/Library/DaisyToolchain/0.2.0/arm/arm-none-eabi/include/c++/10.3.1/bits/stl_algobase.h **** #if __cplusplus >= 201103L
 625:/Library/DaisyToolchain/0.2.0/arm/arm-none-eabi/include/c++/10.3.1/bits/stl_algobase.h ****   template<typename _Category>
 626:/Library/DaisyToolchain/0.2.0/arm/arm-none-eabi/include/c++/10.3.1/bits/stl_algobase.h ****     struct __copy_move_backward<true, false, _Category>
 627:/Library/DaisyToolchain/0.2.0/arm/arm-none-eabi/include/c++/10.3.1/bits/stl_algobase.h ****     {
 628:/Library/DaisyToolchain/0.2.0/arm/arm-none-eabi/include/c++/10.3.1/bits/stl_algobase.h ****       template<typename _BI1, typename _BI2>
 629:/Library/DaisyToolchain/0.2.0/arm/arm-none-eabi/include/c++/10.3.1/bits/stl_algobase.h **** 	_GLIBCXX20_CONSTEXPR
 630:/Library/DaisyToolchain/0.2.0/arm/arm-none-eabi/include/c++/10.3.1/bits/stl_algobase.h **** 	static _BI2
 631:/Library/DaisyToolchain/0.2.0/arm/arm-none-eabi/include/c++/10.3.1/bits/stl_algobase.h **** 	__copy_move_b(_BI1 __first, _BI1 __last, _BI2 __result)
 632:/Library/DaisyToolchain/0.2.0/arm/arm-none-eabi/include/c++/10.3.1/bits/stl_algobase.h **** 	{
 633:/Library/DaisyToolchain/0.2.0/arm/arm-none-eabi/include/c++/10.3.1/bits/stl_algobase.h **** 	  while (__first != __last)
 634:/Library/DaisyToolchain/0.2.0/arm/arm-none-eabi/include/c++/10.3.1/bits/stl_algobase.h **** 	    *--__result = std::move(*--__last);
 635:/Library/DaisyToolchain/0.2.0/arm/arm-none-eabi/include/c++/10.3.1/bits/stl_algobase.h **** 	  return __result;
 636:/Library/DaisyToolchain/0.2.0/arm/arm-none-eabi/include/c++/10.3.1/bits/stl_algobase.h **** 	}
 637:/Library/DaisyToolchain/0.2.0/arm/arm-none-eabi/include/c++/10.3.1/bits/stl_algobase.h ****     };
 638:/Library/DaisyToolchain/0.2.0/arm/arm-none-eabi/include/c++/10.3.1/bits/stl_algobase.h **** #endif
 639:/Library/DaisyToolchain/0.2.0/arm/arm-none-eabi/include/c++/10.3.1/bits/stl_algobase.h **** 
 640:/Library/DaisyToolchain/0.2.0/arm/arm-none-eabi/include/c++/10.3.1/bits/stl_algobase.h ****   template<>
 641:/Library/DaisyToolchain/0.2.0/arm/arm-none-eabi/include/c++/10.3.1/bits/stl_algobase.h ****     struct __copy_move_backward<false, false, random_access_iterator_tag>
 642:/Library/DaisyToolchain/0.2.0/arm/arm-none-eabi/include/c++/10.3.1/bits/stl_algobase.h ****     {
ARM GAS  /var/folders/9s/8rp0_f2s1n31qbztm3b5_fdh0000gn/T//cc00qguF.s 			page 88


 643:/Library/DaisyToolchain/0.2.0/arm/arm-none-eabi/include/c++/10.3.1/bits/stl_algobase.h ****       template<typename _BI1, typename _BI2>
 644:/Library/DaisyToolchain/0.2.0/arm/arm-none-eabi/include/c++/10.3.1/bits/stl_algobase.h **** 	_GLIBCXX20_CONSTEXPR
 645:/Library/DaisyToolchain/0.2.0/arm/arm-none-eabi/include/c++/10.3.1/bits/stl_algobase.h **** 	static _BI2
 646:/Library/DaisyToolchain/0.2.0/arm/arm-none-eabi/include/c++/10.3.1/bits/stl_algobase.h **** 	__copy_move_b(_BI1 __first, _BI1 __last, _BI2 __result)
 647:/Library/DaisyToolchain/0.2.0/arm/arm-none-eabi/include/c++/10.3.1/bits/stl_algobase.h **** 	{
 648:/Library/DaisyToolchain/0.2.0/arm/arm-none-eabi/include/c++/10.3.1/bits/stl_algobase.h **** 	  typename iterator_traits<_BI1>::difference_type
 649:/Library/DaisyToolchain/0.2.0/arm/arm-none-eabi/include/c++/10.3.1/bits/stl_algobase.h **** 	    __n = __last - __first;
 650:/Library/DaisyToolchain/0.2.0/arm/arm-none-eabi/include/c++/10.3.1/bits/stl_algobase.h **** 	  for (; __n > 0; --__n)
 651:/Library/DaisyToolchain/0.2.0/arm/arm-none-eabi/include/c++/10.3.1/bits/stl_algobase.h **** 	    *--__result = *--__last;
 652:/Library/DaisyToolchain/0.2.0/arm/arm-none-eabi/include/c++/10.3.1/bits/stl_algobase.h **** 	  return __result;
 653:/Library/DaisyToolchain/0.2.0/arm/arm-none-eabi/include/c++/10.3.1/bits/stl_algobase.h **** 	}
 654:/Library/DaisyToolchain/0.2.0/arm/arm-none-eabi/include/c++/10.3.1/bits/stl_algobase.h ****     };
 655:/Library/DaisyToolchain/0.2.0/arm/arm-none-eabi/include/c++/10.3.1/bits/stl_algobase.h **** 
 656:/Library/DaisyToolchain/0.2.0/arm/arm-none-eabi/include/c++/10.3.1/bits/stl_algobase.h **** #if __cplusplus >= 201103L
 657:/Library/DaisyToolchain/0.2.0/arm/arm-none-eabi/include/c++/10.3.1/bits/stl_algobase.h ****   template<>
 658:/Library/DaisyToolchain/0.2.0/arm/arm-none-eabi/include/c++/10.3.1/bits/stl_algobase.h ****     struct __copy_move_backward<true, false, random_access_iterator_tag>
 659:/Library/DaisyToolchain/0.2.0/arm/arm-none-eabi/include/c++/10.3.1/bits/stl_algobase.h ****     {
 660:/Library/DaisyToolchain/0.2.0/arm/arm-none-eabi/include/c++/10.3.1/bits/stl_algobase.h ****       template<typename _BI1, typename _BI2>
 661:/Library/DaisyToolchain/0.2.0/arm/arm-none-eabi/include/c++/10.3.1/bits/stl_algobase.h **** 	_GLIBCXX20_CONSTEXPR
 662:/Library/DaisyToolchain/0.2.0/arm/arm-none-eabi/include/c++/10.3.1/bits/stl_algobase.h **** 	static _BI2
 663:/Library/DaisyToolchain/0.2.0/arm/arm-none-eabi/include/c++/10.3.1/bits/stl_algobase.h **** 	__copy_move_b(_BI1 __first, _BI1 __last, _BI2 __result)
 664:/Library/DaisyToolchain/0.2.0/arm/arm-none-eabi/include/c++/10.3.1/bits/stl_algobase.h **** 	{
 665:/Library/DaisyToolchain/0.2.0/arm/arm-none-eabi/include/c++/10.3.1/bits/stl_algobase.h **** 	  typename iterator_traits<_BI1>::difference_type
 666:/Library/DaisyToolchain/0.2.0/arm/arm-none-eabi/include/c++/10.3.1/bits/stl_algobase.h **** 	    __n = __last - __first;
 667:/Library/DaisyToolchain/0.2.0/arm/arm-none-eabi/include/c++/10.3.1/bits/stl_algobase.h **** 	  for (; __n > 0; --__n)
 668:/Library/DaisyToolchain/0.2.0/arm/arm-none-eabi/include/c++/10.3.1/bits/stl_algobase.h **** 	    *--__result = std::move(*--__last);
 669:/Library/DaisyToolchain/0.2.0/arm/arm-none-eabi/include/c++/10.3.1/bits/stl_algobase.h **** 	  return __result;
 670:/Library/DaisyToolchain/0.2.0/arm/arm-none-eabi/include/c++/10.3.1/bits/stl_algobase.h **** 	}
 671:/Library/DaisyToolchain/0.2.0/arm/arm-none-eabi/include/c++/10.3.1/bits/stl_algobase.h ****     };
 672:/Library/DaisyToolchain/0.2.0/arm/arm-none-eabi/include/c++/10.3.1/bits/stl_algobase.h **** #endif
 673:/Library/DaisyToolchain/0.2.0/arm/arm-none-eabi/include/c++/10.3.1/bits/stl_algobase.h **** 
 674:/Library/DaisyToolchain/0.2.0/arm/arm-none-eabi/include/c++/10.3.1/bits/stl_algobase.h ****   template<bool _IsMove>
 675:/Library/DaisyToolchain/0.2.0/arm/arm-none-eabi/include/c++/10.3.1/bits/stl_algobase.h ****     struct __copy_move_backward<_IsMove, true, random_access_iterator_tag>
 676:/Library/DaisyToolchain/0.2.0/arm/arm-none-eabi/include/c++/10.3.1/bits/stl_algobase.h ****     {
 677:/Library/DaisyToolchain/0.2.0/arm/arm-none-eabi/include/c++/10.3.1/bits/stl_algobase.h ****       template<typename _Tp>
 678:/Library/DaisyToolchain/0.2.0/arm/arm-none-eabi/include/c++/10.3.1/bits/stl_algobase.h **** 	_GLIBCXX20_CONSTEXPR
 679:/Library/DaisyToolchain/0.2.0/arm/arm-none-eabi/include/c++/10.3.1/bits/stl_algobase.h **** 	static _Tp*
 680:/Library/DaisyToolchain/0.2.0/arm/arm-none-eabi/include/c++/10.3.1/bits/stl_algobase.h **** 	__copy_move_b(const _Tp* __first, const _Tp* __last, _Tp* __result)
 681:/Library/DaisyToolchain/0.2.0/arm/arm-none-eabi/include/c++/10.3.1/bits/stl_algobase.h **** 	{
 682:/Library/DaisyToolchain/0.2.0/arm/arm-none-eabi/include/c++/10.3.1/bits/stl_algobase.h **** #if __cplusplus >= 201103L
 683:/Library/DaisyToolchain/0.2.0/arm/arm-none-eabi/include/c++/10.3.1/bits/stl_algobase.h **** 	  using __assignable = conditional<_IsMove,
 684:/Library/DaisyToolchain/0.2.0/arm/arm-none-eabi/include/c++/10.3.1/bits/stl_algobase.h **** 					   is_move_assignable<_Tp>,
 685:/Library/DaisyToolchain/0.2.0/arm/arm-none-eabi/include/c++/10.3.1/bits/stl_algobase.h **** 					   is_copy_assignable<_Tp>>;
 686:/Library/DaisyToolchain/0.2.0/arm/arm-none-eabi/include/c++/10.3.1/bits/stl_algobase.h **** 	  // trivial types can have deleted assignment
 687:/Library/DaisyToolchain/0.2.0/arm/arm-none-eabi/include/c++/10.3.1/bits/stl_algobase.h **** 	  static_assert( __assignable::type::value, "type is not assignable" );
 688:/Library/DaisyToolchain/0.2.0/arm/arm-none-eabi/include/c++/10.3.1/bits/stl_algobase.h **** #endif
 689:/Library/DaisyToolchain/0.2.0/arm/arm-none-eabi/include/c++/10.3.1/bits/stl_algobase.h **** 	  const ptrdiff_t _Num = __last - __first;
 690:/Library/DaisyToolchain/0.2.0/arm/arm-none-eabi/include/c++/10.3.1/bits/stl_algobase.h **** 	  if (_Num)
 691:/Library/DaisyToolchain/0.2.0/arm/arm-none-eabi/include/c++/10.3.1/bits/stl_algobase.h **** 	    __builtin_memmove(__result - _Num, __first, sizeof(_Tp) * _Num);
 692:/Library/DaisyToolchain/0.2.0/arm/arm-none-eabi/include/c++/10.3.1/bits/stl_algobase.h **** 	  return __result - _Num;
 693:/Library/DaisyToolchain/0.2.0/arm/arm-none-eabi/include/c++/10.3.1/bits/stl_algobase.h **** 	}
 694:/Library/DaisyToolchain/0.2.0/arm/arm-none-eabi/include/c++/10.3.1/bits/stl_algobase.h ****     };
 695:/Library/DaisyToolchain/0.2.0/arm/arm-none-eabi/include/c++/10.3.1/bits/stl_algobase.h **** 
 696:/Library/DaisyToolchain/0.2.0/arm/arm-none-eabi/include/c++/10.3.1/bits/stl_algobase.h ****   template<bool _IsMove, typename _BI1, typename _BI2>
 697:/Library/DaisyToolchain/0.2.0/arm/arm-none-eabi/include/c++/10.3.1/bits/stl_algobase.h ****     _GLIBCXX20_CONSTEXPR
 698:/Library/DaisyToolchain/0.2.0/arm/arm-none-eabi/include/c++/10.3.1/bits/stl_algobase.h ****     inline _BI2
 699:/Library/DaisyToolchain/0.2.0/arm/arm-none-eabi/include/c++/10.3.1/bits/stl_algobase.h ****     __copy_move_backward_a2(_BI1 __first, _BI1 __last, _BI2 __result)
ARM GAS  /var/folders/9s/8rp0_f2s1n31qbztm3b5_fdh0000gn/T//cc00qguF.s 			page 89


 700:/Library/DaisyToolchain/0.2.0/arm/arm-none-eabi/include/c++/10.3.1/bits/stl_algobase.h ****     {
 701:/Library/DaisyToolchain/0.2.0/arm/arm-none-eabi/include/c++/10.3.1/bits/stl_algobase.h ****       typedef typename iterator_traits<_BI1>::iterator_category _Category;
 702:/Library/DaisyToolchain/0.2.0/arm/arm-none-eabi/include/c++/10.3.1/bits/stl_algobase.h **** #ifdef __cpp_lib_is_constant_evaluated
 703:/Library/DaisyToolchain/0.2.0/arm/arm-none-eabi/include/c++/10.3.1/bits/stl_algobase.h ****       if (std::is_constant_evaluated())
 704:/Library/DaisyToolchain/0.2.0/arm/arm-none-eabi/include/c++/10.3.1/bits/stl_algobase.h **** 	return std::__copy_move_backward<_IsMove, false, _Category>::
 705:/Library/DaisyToolchain/0.2.0/arm/arm-none-eabi/include/c++/10.3.1/bits/stl_algobase.h **** 	  __copy_move_b(__first, __last, __result);
 706:/Library/DaisyToolchain/0.2.0/arm/arm-none-eabi/include/c++/10.3.1/bits/stl_algobase.h **** #endif
 707:/Library/DaisyToolchain/0.2.0/arm/arm-none-eabi/include/c++/10.3.1/bits/stl_algobase.h ****       return std::__copy_move_backward<_IsMove,
 708:/Library/DaisyToolchain/0.2.0/arm/arm-none-eabi/include/c++/10.3.1/bits/stl_algobase.h **** 				       __memcpyable<_BI2, _BI1>::__value,
 709:/Library/DaisyToolchain/0.2.0/arm/arm-none-eabi/include/c++/10.3.1/bits/stl_algobase.h **** 				       _Category>::__copy_move_b(__first,
 710:/Library/DaisyToolchain/0.2.0/arm/arm-none-eabi/include/c++/10.3.1/bits/stl_algobase.h **** 								 __last,
 711:/Library/DaisyToolchain/0.2.0/arm/arm-none-eabi/include/c++/10.3.1/bits/stl_algobase.h **** 								 __result);
 712:/Library/DaisyToolchain/0.2.0/arm/arm-none-eabi/include/c++/10.3.1/bits/stl_algobase.h ****     }
 713:/Library/DaisyToolchain/0.2.0/arm/arm-none-eabi/include/c++/10.3.1/bits/stl_algobase.h **** 
 714:/Library/DaisyToolchain/0.2.0/arm/arm-none-eabi/include/c++/10.3.1/bits/stl_algobase.h ****   template<bool _IsMove, typename _BI1, typename _BI2>
 715:/Library/DaisyToolchain/0.2.0/arm/arm-none-eabi/include/c++/10.3.1/bits/stl_algobase.h ****     _GLIBCXX20_CONSTEXPR
 716:/Library/DaisyToolchain/0.2.0/arm/arm-none-eabi/include/c++/10.3.1/bits/stl_algobase.h ****     inline _BI2
 717:/Library/DaisyToolchain/0.2.0/arm/arm-none-eabi/include/c++/10.3.1/bits/stl_algobase.h ****     __copy_move_backward_a1(_BI1 __first, _BI1 __last, _BI2 __result)
 718:/Library/DaisyToolchain/0.2.0/arm/arm-none-eabi/include/c++/10.3.1/bits/stl_algobase.h ****     { return std::__copy_move_backward_a2<_IsMove>(__first, __last, __result); }
 719:/Library/DaisyToolchain/0.2.0/arm/arm-none-eabi/include/c++/10.3.1/bits/stl_algobase.h **** 
 720:/Library/DaisyToolchain/0.2.0/arm/arm-none-eabi/include/c++/10.3.1/bits/stl_algobase.h ****   template<bool _IsMove,
 721:/Library/DaisyToolchain/0.2.0/arm/arm-none-eabi/include/c++/10.3.1/bits/stl_algobase.h **** 	   typename _Tp, typename _Ref, typename _Ptr, typename _OI>
 722:/Library/DaisyToolchain/0.2.0/arm/arm-none-eabi/include/c++/10.3.1/bits/stl_algobase.h ****     _OI
 723:/Library/DaisyToolchain/0.2.0/arm/arm-none-eabi/include/c++/10.3.1/bits/stl_algobase.h ****     __copy_move_backward_a1(_GLIBCXX_STD_C::_Deque_iterator<_Tp, _Ref, _Ptr>,
 724:/Library/DaisyToolchain/0.2.0/arm/arm-none-eabi/include/c++/10.3.1/bits/stl_algobase.h **** 			    _GLIBCXX_STD_C::_Deque_iterator<_Tp, _Ref, _Ptr>,
 725:/Library/DaisyToolchain/0.2.0/arm/arm-none-eabi/include/c++/10.3.1/bits/stl_algobase.h **** 			    _OI);
 726:/Library/DaisyToolchain/0.2.0/arm/arm-none-eabi/include/c++/10.3.1/bits/stl_algobase.h **** 
 727:/Library/DaisyToolchain/0.2.0/arm/arm-none-eabi/include/c++/10.3.1/bits/stl_algobase.h ****   template<bool _IsMove,
 728:/Library/DaisyToolchain/0.2.0/arm/arm-none-eabi/include/c++/10.3.1/bits/stl_algobase.h **** 	   typename _ITp, typename _IRef, typename _IPtr, typename _OTp>
 729:/Library/DaisyToolchain/0.2.0/arm/arm-none-eabi/include/c++/10.3.1/bits/stl_algobase.h ****     _GLIBCXX_STD_C::_Deque_iterator<_OTp, _OTp&, _OTp*>
 730:/Library/DaisyToolchain/0.2.0/arm/arm-none-eabi/include/c++/10.3.1/bits/stl_algobase.h ****     __copy_move_backward_a1(
 731:/Library/DaisyToolchain/0.2.0/arm/arm-none-eabi/include/c++/10.3.1/bits/stl_algobase.h **** 			_GLIBCXX_STD_C::_Deque_iterator<_ITp, _IRef, _IPtr>,
 732:/Library/DaisyToolchain/0.2.0/arm/arm-none-eabi/include/c++/10.3.1/bits/stl_algobase.h **** 			_GLIBCXX_STD_C::_Deque_iterator<_ITp, _IRef, _IPtr>,
 733:/Library/DaisyToolchain/0.2.0/arm/arm-none-eabi/include/c++/10.3.1/bits/stl_algobase.h **** 			_GLIBCXX_STD_C::_Deque_iterator<_OTp, _OTp&, _OTp*>);
 734:/Library/DaisyToolchain/0.2.0/arm/arm-none-eabi/include/c++/10.3.1/bits/stl_algobase.h **** 
 735:/Library/DaisyToolchain/0.2.0/arm/arm-none-eabi/include/c++/10.3.1/bits/stl_algobase.h ****   template<bool _IsMove, typename _II, typename _Tp>
 736:/Library/DaisyToolchain/0.2.0/arm/arm-none-eabi/include/c++/10.3.1/bits/stl_algobase.h ****     typename __gnu_cxx::__enable_if<
 737:/Library/DaisyToolchain/0.2.0/arm/arm-none-eabi/include/c++/10.3.1/bits/stl_algobase.h ****       __is_random_access_iter<_II>::__value,
 738:/Library/DaisyToolchain/0.2.0/arm/arm-none-eabi/include/c++/10.3.1/bits/stl_algobase.h ****       _GLIBCXX_STD_C::_Deque_iterator<_Tp, _Tp&, _Tp*> >::__type
 739:/Library/DaisyToolchain/0.2.0/arm/arm-none-eabi/include/c++/10.3.1/bits/stl_algobase.h ****     __copy_move_backward_a1(_II, _II,
 740:/Library/DaisyToolchain/0.2.0/arm/arm-none-eabi/include/c++/10.3.1/bits/stl_algobase.h **** 			    _GLIBCXX_STD_C::_Deque_iterator<_Tp, _Tp&, _Tp*>);
 741:/Library/DaisyToolchain/0.2.0/arm/arm-none-eabi/include/c++/10.3.1/bits/stl_algobase.h **** 
 742:/Library/DaisyToolchain/0.2.0/arm/arm-none-eabi/include/c++/10.3.1/bits/stl_algobase.h ****   template<bool _IsMove, typename _II, typename _OI>
 743:/Library/DaisyToolchain/0.2.0/arm/arm-none-eabi/include/c++/10.3.1/bits/stl_algobase.h ****     _GLIBCXX20_CONSTEXPR
 744:/Library/DaisyToolchain/0.2.0/arm/arm-none-eabi/include/c++/10.3.1/bits/stl_algobase.h ****     inline _OI
 745:/Library/DaisyToolchain/0.2.0/arm/arm-none-eabi/include/c++/10.3.1/bits/stl_algobase.h ****     __copy_move_backward_a(_II __first, _II __last, _OI __result)
 746:/Library/DaisyToolchain/0.2.0/arm/arm-none-eabi/include/c++/10.3.1/bits/stl_algobase.h ****     {
 747:/Library/DaisyToolchain/0.2.0/arm/arm-none-eabi/include/c++/10.3.1/bits/stl_algobase.h ****       return std::__niter_wrap(__result,
 748:/Library/DaisyToolchain/0.2.0/arm/arm-none-eabi/include/c++/10.3.1/bits/stl_algobase.h **** 		std::__copy_move_backward_a1<_IsMove>
 749:/Library/DaisyToolchain/0.2.0/arm/arm-none-eabi/include/c++/10.3.1/bits/stl_algobase.h **** 		  (std::__niter_base(__first), std::__niter_base(__last),
 750:/Library/DaisyToolchain/0.2.0/arm/arm-none-eabi/include/c++/10.3.1/bits/stl_algobase.h **** 		   std::__niter_base(__result)));
 751:/Library/DaisyToolchain/0.2.0/arm/arm-none-eabi/include/c++/10.3.1/bits/stl_algobase.h ****     }
 752:/Library/DaisyToolchain/0.2.0/arm/arm-none-eabi/include/c++/10.3.1/bits/stl_algobase.h **** 
 753:/Library/DaisyToolchain/0.2.0/arm/arm-none-eabi/include/c++/10.3.1/bits/stl_algobase.h ****   template<bool _IsMove,
 754:/Library/DaisyToolchain/0.2.0/arm/arm-none-eabi/include/c++/10.3.1/bits/stl_algobase.h **** 	   typename _Ite, typename _Seq, typename _Cat, typename _OI>
 755:/Library/DaisyToolchain/0.2.0/arm/arm-none-eabi/include/c++/10.3.1/bits/stl_algobase.h ****     _OI
 756:/Library/DaisyToolchain/0.2.0/arm/arm-none-eabi/include/c++/10.3.1/bits/stl_algobase.h ****     __copy_move_backward_a(
ARM GAS  /var/folders/9s/8rp0_f2s1n31qbztm3b5_fdh0000gn/T//cc00qguF.s 			page 90


 757:/Library/DaisyToolchain/0.2.0/arm/arm-none-eabi/include/c++/10.3.1/bits/stl_algobase.h **** 		const ::__gnu_debug::_Safe_iterator<_Ite, _Seq, _Cat>&,
 758:/Library/DaisyToolchain/0.2.0/arm/arm-none-eabi/include/c++/10.3.1/bits/stl_algobase.h **** 		const ::__gnu_debug::_Safe_iterator<_Ite, _Seq, _Cat>&,
 759:/Library/DaisyToolchain/0.2.0/arm/arm-none-eabi/include/c++/10.3.1/bits/stl_algobase.h **** 		_OI);
 760:/Library/DaisyToolchain/0.2.0/arm/arm-none-eabi/include/c++/10.3.1/bits/stl_algobase.h **** 
 761:/Library/DaisyToolchain/0.2.0/arm/arm-none-eabi/include/c++/10.3.1/bits/stl_algobase.h ****   template<bool _IsMove,
 762:/Library/DaisyToolchain/0.2.0/arm/arm-none-eabi/include/c++/10.3.1/bits/stl_algobase.h **** 	   typename _II, typename _Ite, typename _Seq, typename _Cat>
 763:/Library/DaisyToolchain/0.2.0/arm/arm-none-eabi/include/c++/10.3.1/bits/stl_algobase.h ****     __gnu_debug::_Safe_iterator<_Ite, _Seq, _Cat>
 764:/Library/DaisyToolchain/0.2.0/arm/arm-none-eabi/include/c++/10.3.1/bits/stl_algobase.h ****     __copy_move_backward_a(_II, _II,
 765:/Library/DaisyToolchain/0.2.0/arm/arm-none-eabi/include/c++/10.3.1/bits/stl_algobase.h **** 		const ::__gnu_debug::_Safe_iterator<_Ite, _Seq, _Cat>&);
 766:/Library/DaisyToolchain/0.2.0/arm/arm-none-eabi/include/c++/10.3.1/bits/stl_algobase.h **** 
 767:/Library/DaisyToolchain/0.2.0/arm/arm-none-eabi/include/c++/10.3.1/bits/stl_algobase.h ****   template<bool _IsMove,
 768:/Library/DaisyToolchain/0.2.0/arm/arm-none-eabi/include/c++/10.3.1/bits/stl_algobase.h **** 	   typename _IIte, typename _ISeq, typename _ICat,
 769:/Library/DaisyToolchain/0.2.0/arm/arm-none-eabi/include/c++/10.3.1/bits/stl_algobase.h **** 	   typename _OIte, typename _OSeq, typename _OCat>
 770:/Library/DaisyToolchain/0.2.0/arm/arm-none-eabi/include/c++/10.3.1/bits/stl_algobase.h ****     ::__gnu_debug::_Safe_iterator<_OIte, _OSeq, _OCat>
 771:/Library/DaisyToolchain/0.2.0/arm/arm-none-eabi/include/c++/10.3.1/bits/stl_algobase.h ****     __copy_move_backward_a(
 772:/Library/DaisyToolchain/0.2.0/arm/arm-none-eabi/include/c++/10.3.1/bits/stl_algobase.h **** 		const ::__gnu_debug::_Safe_iterator<_IIte, _ISeq, _ICat>&,
 773:/Library/DaisyToolchain/0.2.0/arm/arm-none-eabi/include/c++/10.3.1/bits/stl_algobase.h **** 		const ::__gnu_debug::_Safe_iterator<_IIte, _ISeq, _ICat>&,
 774:/Library/DaisyToolchain/0.2.0/arm/arm-none-eabi/include/c++/10.3.1/bits/stl_algobase.h **** 		const ::__gnu_debug::_Safe_iterator<_OIte, _OSeq, _OCat>&);
 775:/Library/DaisyToolchain/0.2.0/arm/arm-none-eabi/include/c++/10.3.1/bits/stl_algobase.h **** 
 776:/Library/DaisyToolchain/0.2.0/arm/arm-none-eabi/include/c++/10.3.1/bits/stl_algobase.h ****   /**
 777:/Library/DaisyToolchain/0.2.0/arm/arm-none-eabi/include/c++/10.3.1/bits/stl_algobase.h ****    *  @brief Copies the range [first,last) into result.
 778:/Library/DaisyToolchain/0.2.0/arm/arm-none-eabi/include/c++/10.3.1/bits/stl_algobase.h ****    *  @ingroup mutating_algorithms
 779:/Library/DaisyToolchain/0.2.0/arm/arm-none-eabi/include/c++/10.3.1/bits/stl_algobase.h ****    *  @param  __first  A bidirectional iterator.
 780:/Library/DaisyToolchain/0.2.0/arm/arm-none-eabi/include/c++/10.3.1/bits/stl_algobase.h ****    *  @param  __last   A bidirectional iterator.
 781:/Library/DaisyToolchain/0.2.0/arm/arm-none-eabi/include/c++/10.3.1/bits/stl_algobase.h ****    *  @param  __result A bidirectional iterator.
 782:/Library/DaisyToolchain/0.2.0/arm/arm-none-eabi/include/c++/10.3.1/bits/stl_algobase.h ****    *  @return   result - (last - first)
 783:/Library/DaisyToolchain/0.2.0/arm/arm-none-eabi/include/c++/10.3.1/bits/stl_algobase.h ****    *
 784:/Library/DaisyToolchain/0.2.0/arm/arm-none-eabi/include/c++/10.3.1/bits/stl_algobase.h ****    *  The function has the same effect as copy, but starts at the end of the
 785:/Library/DaisyToolchain/0.2.0/arm/arm-none-eabi/include/c++/10.3.1/bits/stl_algobase.h ****    *  range and works its way to the start, returning the start of the result.
 786:/Library/DaisyToolchain/0.2.0/arm/arm-none-eabi/include/c++/10.3.1/bits/stl_algobase.h ****    *  This inline function will boil down to a call to @c memmove whenever
 787:/Library/DaisyToolchain/0.2.0/arm/arm-none-eabi/include/c++/10.3.1/bits/stl_algobase.h ****    *  possible.  Failing that, if random access iterators are passed, then the
 788:/Library/DaisyToolchain/0.2.0/arm/arm-none-eabi/include/c++/10.3.1/bits/stl_algobase.h ****    *  loop count will be known (and therefore a candidate for compiler
 789:/Library/DaisyToolchain/0.2.0/arm/arm-none-eabi/include/c++/10.3.1/bits/stl_algobase.h ****    *  optimizations such as unrolling).
 790:/Library/DaisyToolchain/0.2.0/arm/arm-none-eabi/include/c++/10.3.1/bits/stl_algobase.h ****    *
 791:/Library/DaisyToolchain/0.2.0/arm/arm-none-eabi/include/c++/10.3.1/bits/stl_algobase.h ****    *  Result may not be in the range (first,last].  Use copy instead.  Note
 792:/Library/DaisyToolchain/0.2.0/arm/arm-none-eabi/include/c++/10.3.1/bits/stl_algobase.h ****    *  that the start of the output range may overlap [first,last).
 793:/Library/DaisyToolchain/0.2.0/arm/arm-none-eabi/include/c++/10.3.1/bits/stl_algobase.h ****   */
 794:/Library/DaisyToolchain/0.2.0/arm/arm-none-eabi/include/c++/10.3.1/bits/stl_algobase.h ****   template<typename _BI1, typename _BI2>
 795:/Library/DaisyToolchain/0.2.0/arm/arm-none-eabi/include/c++/10.3.1/bits/stl_algobase.h ****     _GLIBCXX20_CONSTEXPR
 796:/Library/DaisyToolchain/0.2.0/arm/arm-none-eabi/include/c++/10.3.1/bits/stl_algobase.h ****     inline _BI2
 797:/Library/DaisyToolchain/0.2.0/arm/arm-none-eabi/include/c++/10.3.1/bits/stl_algobase.h ****     copy_backward(_BI1 __first, _BI1 __last, _BI2 __result)
 798:/Library/DaisyToolchain/0.2.0/arm/arm-none-eabi/include/c++/10.3.1/bits/stl_algobase.h ****     {
 799:/Library/DaisyToolchain/0.2.0/arm/arm-none-eabi/include/c++/10.3.1/bits/stl_algobase.h ****       // concept requirements
 800:/Library/DaisyToolchain/0.2.0/arm/arm-none-eabi/include/c++/10.3.1/bits/stl_algobase.h ****       __glibcxx_function_requires(_BidirectionalIteratorConcept<_BI1>)
 801:/Library/DaisyToolchain/0.2.0/arm/arm-none-eabi/include/c++/10.3.1/bits/stl_algobase.h ****       __glibcxx_function_requires(_Mutable_BidirectionalIteratorConcept<_BI2>)
 802:/Library/DaisyToolchain/0.2.0/arm/arm-none-eabi/include/c++/10.3.1/bits/stl_algobase.h ****       __glibcxx_function_requires(_ConvertibleConcept<
 803:/Library/DaisyToolchain/0.2.0/arm/arm-none-eabi/include/c++/10.3.1/bits/stl_algobase.h **** 	    typename iterator_traits<_BI1>::value_type,
 804:/Library/DaisyToolchain/0.2.0/arm/arm-none-eabi/include/c++/10.3.1/bits/stl_algobase.h **** 	    typename iterator_traits<_BI2>::value_type>)
 805:/Library/DaisyToolchain/0.2.0/arm/arm-none-eabi/include/c++/10.3.1/bits/stl_algobase.h ****       __glibcxx_requires_can_decrement_range(__first, __last, __result);
 806:/Library/DaisyToolchain/0.2.0/arm/arm-none-eabi/include/c++/10.3.1/bits/stl_algobase.h **** 
 807:/Library/DaisyToolchain/0.2.0/arm/arm-none-eabi/include/c++/10.3.1/bits/stl_algobase.h ****       return std::__copy_move_backward_a<__is_move_iterator<_BI1>::__value>
 808:/Library/DaisyToolchain/0.2.0/arm/arm-none-eabi/include/c++/10.3.1/bits/stl_algobase.h **** 	     (std::__miter_base(__first), std::__miter_base(__last), __result);
 809:/Library/DaisyToolchain/0.2.0/arm/arm-none-eabi/include/c++/10.3.1/bits/stl_algobase.h ****     }
 810:/Library/DaisyToolchain/0.2.0/arm/arm-none-eabi/include/c++/10.3.1/bits/stl_algobase.h **** 
 811:/Library/DaisyToolchain/0.2.0/arm/arm-none-eabi/include/c++/10.3.1/bits/stl_algobase.h **** #if __cplusplus >= 201103L
 812:/Library/DaisyToolchain/0.2.0/arm/arm-none-eabi/include/c++/10.3.1/bits/stl_algobase.h ****   /**
 813:/Library/DaisyToolchain/0.2.0/arm/arm-none-eabi/include/c++/10.3.1/bits/stl_algobase.h ****    *  @brief Moves the range [first,last) into result.
ARM GAS  /var/folders/9s/8rp0_f2s1n31qbztm3b5_fdh0000gn/T//cc00qguF.s 			page 91


 814:/Library/DaisyToolchain/0.2.0/arm/arm-none-eabi/include/c++/10.3.1/bits/stl_algobase.h ****    *  @ingroup mutating_algorithms
 815:/Library/DaisyToolchain/0.2.0/arm/arm-none-eabi/include/c++/10.3.1/bits/stl_algobase.h ****    *  @param  __first  A bidirectional iterator.
 816:/Library/DaisyToolchain/0.2.0/arm/arm-none-eabi/include/c++/10.3.1/bits/stl_algobase.h ****    *  @param  __last   A bidirectional iterator.
 817:/Library/DaisyToolchain/0.2.0/arm/arm-none-eabi/include/c++/10.3.1/bits/stl_algobase.h ****    *  @param  __result A bidirectional iterator.
 818:/Library/DaisyToolchain/0.2.0/arm/arm-none-eabi/include/c++/10.3.1/bits/stl_algobase.h ****    *  @return   result - (last - first)
 819:/Library/DaisyToolchain/0.2.0/arm/arm-none-eabi/include/c++/10.3.1/bits/stl_algobase.h ****    *
 820:/Library/DaisyToolchain/0.2.0/arm/arm-none-eabi/include/c++/10.3.1/bits/stl_algobase.h ****    *  The function has the same effect as move, but starts at the end of the
 821:/Library/DaisyToolchain/0.2.0/arm/arm-none-eabi/include/c++/10.3.1/bits/stl_algobase.h ****    *  range and works its way to the start, returning the start of the result.
 822:/Library/DaisyToolchain/0.2.0/arm/arm-none-eabi/include/c++/10.3.1/bits/stl_algobase.h ****    *  This inline function will boil down to a call to @c memmove whenever
 823:/Library/DaisyToolchain/0.2.0/arm/arm-none-eabi/include/c++/10.3.1/bits/stl_algobase.h ****    *  possible.  Failing that, if random access iterators are passed, then the
 824:/Library/DaisyToolchain/0.2.0/arm/arm-none-eabi/include/c++/10.3.1/bits/stl_algobase.h ****    *  loop count will be known (and therefore a candidate for compiler
 825:/Library/DaisyToolchain/0.2.0/arm/arm-none-eabi/include/c++/10.3.1/bits/stl_algobase.h ****    *  optimizations such as unrolling).
 826:/Library/DaisyToolchain/0.2.0/arm/arm-none-eabi/include/c++/10.3.1/bits/stl_algobase.h ****    *
 827:/Library/DaisyToolchain/0.2.0/arm/arm-none-eabi/include/c++/10.3.1/bits/stl_algobase.h ****    *  Result may not be in the range (first,last].  Use move instead.  Note
 828:/Library/DaisyToolchain/0.2.0/arm/arm-none-eabi/include/c++/10.3.1/bits/stl_algobase.h ****    *  that the start of the output range may overlap [first,last).
 829:/Library/DaisyToolchain/0.2.0/arm/arm-none-eabi/include/c++/10.3.1/bits/stl_algobase.h ****   */
 830:/Library/DaisyToolchain/0.2.0/arm/arm-none-eabi/include/c++/10.3.1/bits/stl_algobase.h ****   template<typename _BI1, typename _BI2>
 831:/Library/DaisyToolchain/0.2.0/arm/arm-none-eabi/include/c++/10.3.1/bits/stl_algobase.h ****     _GLIBCXX20_CONSTEXPR
 832:/Library/DaisyToolchain/0.2.0/arm/arm-none-eabi/include/c++/10.3.1/bits/stl_algobase.h ****     inline _BI2
 833:/Library/DaisyToolchain/0.2.0/arm/arm-none-eabi/include/c++/10.3.1/bits/stl_algobase.h ****     move_backward(_BI1 __first, _BI1 __last, _BI2 __result)
 834:/Library/DaisyToolchain/0.2.0/arm/arm-none-eabi/include/c++/10.3.1/bits/stl_algobase.h ****     {
 835:/Library/DaisyToolchain/0.2.0/arm/arm-none-eabi/include/c++/10.3.1/bits/stl_algobase.h ****       // concept requirements
 836:/Library/DaisyToolchain/0.2.0/arm/arm-none-eabi/include/c++/10.3.1/bits/stl_algobase.h ****       __glibcxx_function_requires(_BidirectionalIteratorConcept<_BI1>)
 837:/Library/DaisyToolchain/0.2.0/arm/arm-none-eabi/include/c++/10.3.1/bits/stl_algobase.h ****       __glibcxx_function_requires(_Mutable_BidirectionalIteratorConcept<_BI2>)
 838:/Library/DaisyToolchain/0.2.0/arm/arm-none-eabi/include/c++/10.3.1/bits/stl_algobase.h ****       __glibcxx_function_requires(_ConvertibleConcept<
 839:/Library/DaisyToolchain/0.2.0/arm/arm-none-eabi/include/c++/10.3.1/bits/stl_algobase.h **** 	    typename iterator_traits<_BI1>::value_type,
 840:/Library/DaisyToolchain/0.2.0/arm/arm-none-eabi/include/c++/10.3.1/bits/stl_algobase.h **** 	    typename iterator_traits<_BI2>::value_type>)
 841:/Library/DaisyToolchain/0.2.0/arm/arm-none-eabi/include/c++/10.3.1/bits/stl_algobase.h ****       __glibcxx_requires_can_decrement_range(__first, __last, __result);
 842:/Library/DaisyToolchain/0.2.0/arm/arm-none-eabi/include/c++/10.3.1/bits/stl_algobase.h **** 
 843:/Library/DaisyToolchain/0.2.0/arm/arm-none-eabi/include/c++/10.3.1/bits/stl_algobase.h ****       return std::__copy_move_backward_a<true>(std::__miter_base(__first),
 844:/Library/DaisyToolchain/0.2.0/arm/arm-none-eabi/include/c++/10.3.1/bits/stl_algobase.h **** 					       std::__miter_base(__last),
 845:/Library/DaisyToolchain/0.2.0/arm/arm-none-eabi/include/c++/10.3.1/bits/stl_algobase.h **** 					       __result);
 846:/Library/DaisyToolchain/0.2.0/arm/arm-none-eabi/include/c++/10.3.1/bits/stl_algobase.h ****     }
 847:/Library/DaisyToolchain/0.2.0/arm/arm-none-eabi/include/c++/10.3.1/bits/stl_algobase.h **** 
 848:/Library/DaisyToolchain/0.2.0/arm/arm-none-eabi/include/c++/10.3.1/bits/stl_algobase.h **** #define _GLIBCXX_MOVE_BACKWARD3(_Tp, _Up, _Vp) std::move_backward(_Tp, _Up, _Vp)
 849:/Library/DaisyToolchain/0.2.0/arm/arm-none-eabi/include/c++/10.3.1/bits/stl_algobase.h **** #else
 850:/Library/DaisyToolchain/0.2.0/arm/arm-none-eabi/include/c++/10.3.1/bits/stl_algobase.h **** #define _GLIBCXX_MOVE_BACKWARD3(_Tp, _Up, _Vp) std::copy_backward(_Tp, _Up, _Vp)
 851:/Library/DaisyToolchain/0.2.0/arm/arm-none-eabi/include/c++/10.3.1/bits/stl_algobase.h **** #endif
 852:/Library/DaisyToolchain/0.2.0/arm/arm-none-eabi/include/c++/10.3.1/bits/stl_algobase.h **** 
 853:/Library/DaisyToolchain/0.2.0/arm/arm-none-eabi/include/c++/10.3.1/bits/stl_algobase.h ****   template<typename _ForwardIterator, typename _Tp>
 854:/Library/DaisyToolchain/0.2.0/arm/arm-none-eabi/include/c++/10.3.1/bits/stl_algobase.h ****     _GLIBCXX20_CONSTEXPR
 855:/Library/DaisyToolchain/0.2.0/arm/arm-none-eabi/include/c++/10.3.1/bits/stl_algobase.h ****     inline typename
 856:/Library/DaisyToolchain/0.2.0/arm/arm-none-eabi/include/c++/10.3.1/bits/stl_algobase.h ****     __gnu_cxx::__enable_if<!__is_scalar<_Tp>::__value, void>::__type
 857:/Library/DaisyToolchain/0.2.0/arm/arm-none-eabi/include/c++/10.3.1/bits/stl_algobase.h ****     __fill_a1(_ForwardIterator __first, _ForwardIterator __last,
 858:/Library/DaisyToolchain/0.2.0/arm/arm-none-eabi/include/c++/10.3.1/bits/stl_algobase.h **** 	      const _Tp& __value)
 859:/Library/DaisyToolchain/0.2.0/arm/arm-none-eabi/include/c++/10.3.1/bits/stl_algobase.h ****     {
 860:/Library/DaisyToolchain/0.2.0/arm/arm-none-eabi/include/c++/10.3.1/bits/stl_algobase.h ****       for (; __first != __last; ++__first)
 861:/Library/DaisyToolchain/0.2.0/arm/arm-none-eabi/include/c++/10.3.1/bits/stl_algobase.h **** 	*__first = __value;
 862:/Library/DaisyToolchain/0.2.0/arm/arm-none-eabi/include/c++/10.3.1/bits/stl_algobase.h ****     }
 863:/Library/DaisyToolchain/0.2.0/arm/arm-none-eabi/include/c++/10.3.1/bits/stl_algobase.h **** 
 864:/Library/DaisyToolchain/0.2.0/arm/arm-none-eabi/include/c++/10.3.1/bits/stl_algobase.h ****   template<typename _ForwardIterator, typename _Tp>
 865:/Library/DaisyToolchain/0.2.0/arm/arm-none-eabi/include/c++/10.3.1/bits/stl_algobase.h ****     _GLIBCXX20_CONSTEXPR
 866:/Library/DaisyToolchain/0.2.0/arm/arm-none-eabi/include/c++/10.3.1/bits/stl_algobase.h ****     inline typename
 867:/Library/DaisyToolchain/0.2.0/arm/arm-none-eabi/include/c++/10.3.1/bits/stl_algobase.h ****     __gnu_cxx::__enable_if<__is_scalar<_Tp>::__value, void>::__type
 868:/Library/DaisyToolchain/0.2.0/arm/arm-none-eabi/include/c++/10.3.1/bits/stl_algobase.h ****     __fill_a1(_ForwardIterator __first, _ForwardIterator __last,
 869:/Library/DaisyToolchain/0.2.0/arm/arm-none-eabi/include/c++/10.3.1/bits/stl_algobase.h **** 	      const _Tp& __value)
 870:/Library/DaisyToolchain/0.2.0/arm/arm-none-eabi/include/c++/10.3.1/bits/stl_algobase.h ****     {
ARM GAS  /var/folders/9s/8rp0_f2s1n31qbztm3b5_fdh0000gn/T//cc00qguF.s 			page 92


 871:/Library/DaisyToolchain/0.2.0/arm/arm-none-eabi/include/c++/10.3.1/bits/stl_algobase.h ****       const _Tp __tmp = __value;
 872:/Library/DaisyToolchain/0.2.0/arm/arm-none-eabi/include/c++/10.3.1/bits/stl_algobase.h ****       for (; __first != __last; ++__first)
 873:/Library/DaisyToolchain/0.2.0/arm/arm-none-eabi/include/c++/10.3.1/bits/stl_algobase.h **** 	*__first = __tmp;
 2425              		.loc 13 873 11 view .LVU719
 2426 016a 3146     		mov	r1, r6
 2427              	.LBE467:
 2428              	.LBE466:
 2429              	.LBE465:
 2430              	.LBE464:
 2431              	.LBE463:
 2432              	.LBE462:
 2433              	.LBE461:
 2434              	.LBE460:
 2435              	.LBB482:
 2436              	.LBB456:
  43:eurorack/plaits/dsp/envelope.h ****     frequency_ = 0.5f;
 2437              		.loc 2 43 11 view .LVU720
 2438 016c 5A60     		str	r2, [r3, #4]	@ float
  44:eurorack/plaits/dsp/envelope.h ****     hf_bleed_ = 0.0f;
 2439              		.loc 2 44 16 view .LVU721
 2440 016e 4FF07C52 		mov	r2, #1056964608
  42:eurorack/plaits/dsp/envelope.h ****     gain_ = 1.0f;
 2441              		.loc 2 42 20 view .LVU722
 2442 0172 1D60     		str	r5, [r3]	@ float
  43:eurorack/plaits/dsp/envelope.h ****     frequency_ = 0.5f;
 2443              		.loc 2 43 5 is_stmt 1 view .LVU723
  44:eurorack/plaits/dsp/envelope.h ****     hf_bleed_ = 0.0f;
 2444              		.loc 2 44 5 view .LVU724
  44:eurorack/plaits/dsp/envelope.h ****     hf_bleed_ = 0.0f;
 2445              		.loc 2 44 16 is_stmt 0 view .LVU725
 2446 0174 9A60     		str	r2, [r3, #8]	@ float
  45:eurorack/plaits/dsp/envelope.h ****   }
 2447              		.loc 2 45 5 is_stmt 1 view .LVU726
 2448              	.LBE456:
 2449              	.LBE482:
 2450              	.LBB483:
 2451              	.LBB480:
 2452              	.LBB478:
 2453              	.LBB476:
 2454              	.LBB474:
 2455              	.LBB472:
 2456              	.LBB470:
 2457              	.LBB468:
 2458              		.loc 13 873 11 is_stmt 0 view .LVU727
 2459 0176 2022     		movs	r2, #32
 2460              	.LBE468:
 2461              	.LBE470:
 2462              	.LBE472:
 2463              	.LBE474:
 2464              	.LBE476:
 2465              	.LBE478:
 2466              	.LBE480:
 2467              	.LBE483:
 2468              	.LBB484:
 2469              	.LBB457:
  45:eurorack/plaits/dsp/envelope.h ****   }
 2470              		.loc 2 45 15 view .LVU728
ARM GAS  /var/folders/9s/8rp0_f2s1n31qbztm3b5_fdh0000gn/T//cc00qguF.s 			page 93


 2471 0178 DD60     		str	r5, [r3, #12]	@ float
 2472              	.LVL200:
  45:eurorack/plaits/dsp/envelope.h ****   }
 2473              		.loc 2 45 15 view .LVU729
 2474              	.LBE457:
 2475              	.LBE484:
  71:eurorack/plaits/dsp/voice.cc ****   previous_note_ = 0.0f;
 2476              		.loc 9 71 3 is_stmt 1 view .LVU730
  72:eurorack/plaits/dsp/voice.cc ****   
 2477              		.loc 9 72 18 is_stmt 0 view .LVU731
 2478 017a 04F62C43 		addw	r3, r4, #3116
  71:eurorack/plaits/dsp/voice.cc ****   previous_note_ = 0.0f;
 2479              		.loc 9 71 18 view .LVU732
 2480 017e 84F8306C 		strb	r6, [r4, #3120]
  72:eurorack/plaits/dsp/voice.cc ****   
 2481              		.loc 9 72 3 is_stmt 1 view .LVU733
  72:eurorack/plaits/dsp/voice.cc ****   
 2482              		.loc 9 72 18 is_stmt 0 view .LVU734
 2483 0182 1D60     		str	r5, [r3]	@ float
  74:eurorack/plaits/dsp/voice.cc **** }
 2484              		.loc 9 74 3 is_stmt 1 view .LVU735
 2485              	.LVL201:
 2486              	.LBB485:
 2487              	.LBI460:
  44:eurorack/plaits/dsp/physical_modelling/delay_line.h ****     line_ = buffer;
 2488              		.loc 10 44 8 view .LVU736
 2489              	.LBB481:
  45:eurorack/plaits/dsp/physical_modelling/delay_line.h ****     Reset();
 2490              		.loc 10 45 11 is_stmt 0 view .LVU737
 2491 0184 C4F8700C 		str	r0, [r4, #3184]
 2492              	.LVL202:
 2493              	.LBB479:
 2494              	.LBI462:
  49:eurorack/plaits/dsp/physical_modelling/delay_line.h ****     std::fill(&line_[0], &line_[max_delay], T(0));
 2495              		.loc 10 49 8 is_stmt 1 view .LVU738
 2496              	.LBB477:
 2497              	.LBB475:
 2498              	.LBI464:
 874:/Library/DaisyToolchain/0.2.0/arm/arm-none-eabi/include/c++/10.3.1/bits/stl_algobase.h ****     }
 875:/Library/DaisyToolchain/0.2.0/arm/arm-none-eabi/include/c++/10.3.1/bits/stl_algobase.h **** 
 876:/Library/DaisyToolchain/0.2.0/arm/arm-none-eabi/include/c++/10.3.1/bits/stl_algobase.h ****   // Specialization: for char types we can use memset.
 877:/Library/DaisyToolchain/0.2.0/arm/arm-none-eabi/include/c++/10.3.1/bits/stl_algobase.h ****   template<typename _Tp>
 878:/Library/DaisyToolchain/0.2.0/arm/arm-none-eabi/include/c++/10.3.1/bits/stl_algobase.h ****     _GLIBCXX20_CONSTEXPR
 879:/Library/DaisyToolchain/0.2.0/arm/arm-none-eabi/include/c++/10.3.1/bits/stl_algobase.h ****     inline typename
 880:/Library/DaisyToolchain/0.2.0/arm/arm-none-eabi/include/c++/10.3.1/bits/stl_algobase.h ****     __gnu_cxx::__enable_if<__is_byte<_Tp>::__value, void>::__type
 881:/Library/DaisyToolchain/0.2.0/arm/arm-none-eabi/include/c++/10.3.1/bits/stl_algobase.h ****     __fill_a1(_Tp* __first, _Tp* __last, const _Tp& __c)
 882:/Library/DaisyToolchain/0.2.0/arm/arm-none-eabi/include/c++/10.3.1/bits/stl_algobase.h ****     {
 883:/Library/DaisyToolchain/0.2.0/arm/arm-none-eabi/include/c++/10.3.1/bits/stl_algobase.h ****       const _Tp __tmp = __c;
 884:/Library/DaisyToolchain/0.2.0/arm/arm-none-eabi/include/c++/10.3.1/bits/stl_algobase.h **** #if __cpp_lib_is_constant_evaluated
 885:/Library/DaisyToolchain/0.2.0/arm/arm-none-eabi/include/c++/10.3.1/bits/stl_algobase.h ****       if (std::is_constant_evaluated())
 886:/Library/DaisyToolchain/0.2.0/arm/arm-none-eabi/include/c++/10.3.1/bits/stl_algobase.h **** 	{
 887:/Library/DaisyToolchain/0.2.0/arm/arm-none-eabi/include/c++/10.3.1/bits/stl_algobase.h **** 	  for (; __first != __last; ++__first)
 888:/Library/DaisyToolchain/0.2.0/arm/arm-none-eabi/include/c++/10.3.1/bits/stl_algobase.h **** 	    *__first = __tmp;
 889:/Library/DaisyToolchain/0.2.0/arm/arm-none-eabi/include/c++/10.3.1/bits/stl_algobase.h **** 	  return;
 890:/Library/DaisyToolchain/0.2.0/arm/arm-none-eabi/include/c++/10.3.1/bits/stl_algobase.h **** 	}
 891:/Library/DaisyToolchain/0.2.0/arm/arm-none-eabi/include/c++/10.3.1/bits/stl_algobase.h **** #endif
 892:/Library/DaisyToolchain/0.2.0/arm/arm-none-eabi/include/c++/10.3.1/bits/stl_algobase.h ****       if (const size_t __len = __last - __first)
ARM GAS  /var/folders/9s/8rp0_f2s1n31qbztm3b5_fdh0000gn/T//cc00qguF.s 			page 94


 893:/Library/DaisyToolchain/0.2.0/arm/arm-none-eabi/include/c++/10.3.1/bits/stl_algobase.h **** 	__builtin_memset(__first, static_cast<unsigned char>(__tmp), __len);
 894:/Library/DaisyToolchain/0.2.0/arm/arm-none-eabi/include/c++/10.3.1/bits/stl_algobase.h ****     }
 895:/Library/DaisyToolchain/0.2.0/arm/arm-none-eabi/include/c++/10.3.1/bits/stl_algobase.h **** 
 896:/Library/DaisyToolchain/0.2.0/arm/arm-none-eabi/include/c++/10.3.1/bits/stl_algobase.h ****   template<typename _Ite, typename _Cont, typename _Tp>
 897:/Library/DaisyToolchain/0.2.0/arm/arm-none-eabi/include/c++/10.3.1/bits/stl_algobase.h ****     _GLIBCXX20_CONSTEXPR
 898:/Library/DaisyToolchain/0.2.0/arm/arm-none-eabi/include/c++/10.3.1/bits/stl_algobase.h ****     inline void
 899:/Library/DaisyToolchain/0.2.0/arm/arm-none-eabi/include/c++/10.3.1/bits/stl_algobase.h ****     __fill_a1(::__gnu_cxx::__normal_iterator<_Ite, _Cont> __first,
 900:/Library/DaisyToolchain/0.2.0/arm/arm-none-eabi/include/c++/10.3.1/bits/stl_algobase.h **** 	      ::__gnu_cxx::__normal_iterator<_Ite, _Cont> __last,
 901:/Library/DaisyToolchain/0.2.0/arm/arm-none-eabi/include/c++/10.3.1/bits/stl_algobase.h **** 	      const _Tp& __value)
 902:/Library/DaisyToolchain/0.2.0/arm/arm-none-eabi/include/c++/10.3.1/bits/stl_algobase.h ****     { std::__fill_a1(__first.base(), __last.base(), __value); }
 903:/Library/DaisyToolchain/0.2.0/arm/arm-none-eabi/include/c++/10.3.1/bits/stl_algobase.h **** 
 904:/Library/DaisyToolchain/0.2.0/arm/arm-none-eabi/include/c++/10.3.1/bits/stl_algobase.h ****   template<typename _Tp, typename _VTp>
 905:/Library/DaisyToolchain/0.2.0/arm/arm-none-eabi/include/c++/10.3.1/bits/stl_algobase.h ****     void
 906:/Library/DaisyToolchain/0.2.0/arm/arm-none-eabi/include/c++/10.3.1/bits/stl_algobase.h ****     __fill_a1(const _GLIBCXX_STD_C::_Deque_iterator<_Tp, _Tp&, _Tp*>&,
 907:/Library/DaisyToolchain/0.2.0/arm/arm-none-eabi/include/c++/10.3.1/bits/stl_algobase.h **** 	      const _GLIBCXX_STD_C::_Deque_iterator<_Tp, _Tp&, _Tp*>&,
 908:/Library/DaisyToolchain/0.2.0/arm/arm-none-eabi/include/c++/10.3.1/bits/stl_algobase.h **** 	      const _VTp&);
 909:/Library/DaisyToolchain/0.2.0/arm/arm-none-eabi/include/c++/10.3.1/bits/stl_algobase.h **** 
 910:/Library/DaisyToolchain/0.2.0/arm/arm-none-eabi/include/c++/10.3.1/bits/stl_algobase.h ****   template<typename _FIte, typename _Tp>
 911:/Library/DaisyToolchain/0.2.0/arm/arm-none-eabi/include/c++/10.3.1/bits/stl_algobase.h ****     _GLIBCXX20_CONSTEXPR
 912:/Library/DaisyToolchain/0.2.0/arm/arm-none-eabi/include/c++/10.3.1/bits/stl_algobase.h ****     inline void
 913:/Library/DaisyToolchain/0.2.0/arm/arm-none-eabi/include/c++/10.3.1/bits/stl_algobase.h ****     __fill_a(_FIte __first, _FIte __last, const _Tp& __value)
 914:/Library/DaisyToolchain/0.2.0/arm/arm-none-eabi/include/c++/10.3.1/bits/stl_algobase.h ****     { std::__fill_a1(__first, __last, __value); }
 915:/Library/DaisyToolchain/0.2.0/arm/arm-none-eabi/include/c++/10.3.1/bits/stl_algobase.h **** 
 916:/Library/DaisyToolchain/0.2.0/arm/arm-none-eabi/include/c++/10.3.1/bits/stl_algobase.h ****   template<typename _Ite, typename _Seq, typename _Cat, typename _Tp>
 917:/Library/DaisyToolchain/0.2.0/arm/arm-none-eabi/include/c++/10.3.1/bits/stl_algobase.h ****     void
 918:/Library/DaisyToolchain/0.2.0/arm/arm-none-eabi/include/c++/10.3.1/bits/stl_algobase.h ****     __fill_a(const ::__gnu_debug::_Safe_iterator<_Ite, _Seq, _Cat>&,
 919:/Library/DaisyToolchain/0.2.0/arm/arm-none-eabi/include/c++/10.3.1/bits/stl_algobase.h **** 	     const ::__gnu_debug::_Safe_iterator<_Ite, _Seq, _Cat>&,
 920:/Library/DaisyToolchain/0.2.0/arm/arm-none-eabi/include/c++/10.3.1/bits/stl_algobase.h **** 	     const _Tp&);
 921:/Library/DaisyToolchain/0.2.0/arm/arm-none-eabi/include/c++/10.3.1/bits/stl_algobase.h **** 
 922:/Library/DaisyToolchain/0.2.0/arm/arm-none-eabi/include/c++/10.3.1/bits/stl_algobase.h ****   /**
 923:/Library/DaisyToolchain/0.2.0/arm/arm-none-eabi/include/c++/10.3.1/bits/stl_algobase.h ****    *  @brief Fills the range [first,last) with copies of value.
 924:/Library/DaisyToolchain/0.2.0/arm/arm-none-eabi/include/c++/10.3.1/bits/stl_algobase.h ****    *  @ingroup mutating_algorithms
 925:/Library/DaisyToolchain/0.2.0/arm/arm-none-eabi/include/c++/10.3.1/bits/stl_algobase.h ****    *  @param  __first  A forward iterator.
 926:/Library/DaisyToolchain/0.2.0/arm/arm-none-eabi/include/c++/10.3.1/bits/stl_algobase.h ****    *  @param  __last   A forward iterator.
 927:/Library/DaisyToolchain/0.2.0/arm/arm-none-eabi/include/c++/10.3.1/bits/stl_algobase.h ****    *  @param  __value  A reference-to-const of arbitrary type.
 928:/Library/DaisyToolchain/0.2.0/arm/arm-none-eabi/include/c++/10.3.1/bits/stl_algobase.h ****    *  @return   Nothing.
 929:/Library/DaisyToolchain/0.2.0/arm/arm-none-eabi/include/c++/10.3.1/bits/stl_algobase.h ****    *
 930:/Library/DaisyToolchain/0.2.0/arm/arm-none-eabi/include/c++/10.3.1/bits/stl_algobase.h ****    *  This function fills a range with copies of the same value.  For char
 931:/Library/DaisyToolchain/0.2.0/arm/arm-none-eabi/include/c++/10.3.1/bits/stl_algobase.h ****    *  types filling contiguous areas of memory, this becomes an inline call
 932:/Library/DaisyToolchain/0.2.0/arm/arm-none-eabi/include/c++/10.3.1/bits/stl_algobase.h ****    *  to @c memset or @c wmemset.
 933:/Library/DaisyToolchain/0.2.0/arm/arm-none-eabi/include/c++/10.3.1/bits/stl_algobase.h ****   */
 934:/Library/DaisyToolchain/0.2.0/arm/arm-none-eabi/include/c++/10.3.1/bits/stl_algobase.h ****   template<typename _ForwardIterator, typename _Tp>
 935:/Library/DaisyToolchain/0.2.0/arm/arm-none-eabi/include/c++/10.3.1/bits/stl_algobase.h ****     _GLIBCXX20_CONSTEXPR
 936:/Library/DaisyToolchain/0.2.0/arm/arm-none-eabi/include/c++/10.3.1/bits/stl_algobase.h ****     inline void
 937:/Library/DaisyToolchain/0.2.0/arm/arm-none-eabi/include/c++/10.3.1/bits/stl_algobase.h ****     fill(_ForwardIterator __first, _ForwardIterator __last, const _Tp& __value)
 2499              		.loc 13 937 5 view .LVU739
 2500              	.LBB473:
 2501              	.LBI465:
 913:/Library/DaisyToolchain/0.2.0/arm/arm-none-eabi/include/c++/10.3.1/bits/stl_algobase.h ****     { std::__fill_a1(__first, __last, __value); }
 2502              		.loc 13 913 5 view .LVU740
 2503              	.LBB471:
 2504              	.LBI466:
 868:/Library/DaisyToolchain/0.2.0/arm/arm-none-eabi/include/c++/10.3.1/bits/stl_algobase.h **** 	      const _Tp& __value)
 2505              		.loc 13 868 5 view .LVU741
 2506              	.LBB469:
 873:/Library/DaisyToolchain/0.2.0/arm/arm-none-eabi/include/c++/10.3.1/bits/stl_algobase.h ****     }
 2507              		.loc 13 873 11 is_stmt 0 view .LVU742
ARM GAS  /var/folders/9s/8rp0_f2s1n31qbztm3b5_fdh0000gn/T//cc00qguF.s 			page 95


 2508 0188 FFF7FEFF 		bl	memset
 2509              	.LVL203:
 873:/Library/DaisyToolchain/0.2.0/arm/arm-none-eabi/include/c++/10.3.1/bits/stl_algobase.h ****     }
 2510              		.loc 13 873 11 view .LVU743
 2511              	.LBE469:
 2512              	.LBE471:
 2513              	.LBE473:
 2514              	.LBE475:
  51:eurorack/plaits/dsp/physical_modelling/delay_line.h ****   }
 2515              		.loc 10 51 16 view .LVU744
 2516 018c C4F86C6C 		str	r6, [r4, #3180]
 2517              	.LVL204:
  51:eurorack/plaits/dsp/physical_modelling/delay_line.h ****   }
 2518              		.loc 10 51 16 view .LVU745
 2519              	.LBE477:
 2520              	.LBE479:
 2521              	.LBE481:
 2522              	.LBE485:
  75:eurorack/plaits/dsp/voice.cc **** 
 2523              		.loc 9 75 1 view .LVU746
 2524 0190 F8BD     		pop	{r3, r4, r5, r6, r7, pc}
 2525              	.LVL205:
 2526              	.L124:
  75:eurorack/plaits/dsp/voice.cc **** 
 2527              		.loc 9 75 1 view .LVU747
 2528 0192 00BF     		.align	2
 2529              	.L123:
 2530 0194 CDCC4C3F 		.word	1061997773
 2531 0198 9A99193F 		.word	1058642330
 2532 019c 3333333F 		.word	1060320051
 2533              		.cfi_endproc
 2534              	.LFE2026:
 2536              		.text
 2537              	.Letext0:
 2538              		.file 15 "/Library/DaisyToolchain/0.2.0/arm/arm-none-eabi/include/machine/_default_types.h"
 2539              		.file 16 "/Library/DaisyToolchain/0.2.0/arm/arm-none-eabi/include/sys/_stdint.h"
 2540              		.file 17 "/Library/DaisyToolchain/0.2.0/arm/lib/gcc/arm-none-eabi/10.3.1/include/stddef.h"
 2541              		.file 18 "/Library/DaisyToolchain/0.2.0/arm/arm-none-eabi/include/c++/10.3.1/cmath"
 2542              		.file 19 "/Library/DaisyToolchain/0.2.0/arm/arm-none-eabi/include/c++/10.3.1/bits/std_abs.h"
 2543              		.file 20 "/Library/DaisyToolchain/0.2.0/arm/arm-none-eabi/include/c++/10.3.1/type_traits"
 2544              		.file 21 "/Library/DaisyToolchain/0.2.0/arm/arm-none-eabi/include/c++/10.3.1/debug/debug.h"
 2545              		.file 22 "/Library/DaisyToolchain/0.2.0/arm/arm-none-eabi/include/c++/10.3.1/cstdlib"
 2546              		.file 23 "/Library/DaisyToolchain/0.2.0/arm/arm-none-eabi/include/c++/10.3.1/arm-none-eabi/thumb/v
 2547              		.file 24 "/Library/DaisyToolchain/0.2.0/arm/arm-none-eabi/include/c++/10.3.1/bits/algorithmfwd.h"
 2548              		.file 25 "/Library/DaisyToolchain/0.2.0/arm/arm-none-eabi/include/c++/10.3.1/bits/stl_pair.h"
 2549              		.file 26 "/Library/DaisyToolchain/0.2.0/arm/arm-none-eabi/include/c++/10.3.1/bits/exception_ptr.h"
 2550              		.file 27 "/Library/DaisyToolchain/0.2.0/arm/arm-none-eabi/include/c++/10.3.1/bits/predefined_ops.h
 2551              		.file 28 "/Library/DaisyToolchain/0.2.0/arm/arm-none-eabi/include/math.h"
 2552              		.file 29 "/Library/DaisyToolchain/0.2.0/arm/arm-none-eabi/include/stdlib.h"
 2553              		.file 30 "/Library/DaisyToolchain/0.2.0/arm/arm-none-eabi/include/c++/10.3.1/math.h"
 2554              		.file 31 "eurorack/stmlib/stmlib.h"
 2555              		.file 32 "eurorack/plaits/dsp/dsp.h"
 2556              		.file 33 "eurorack/plaits/dsp/engine/additive_engine.h"
 2557              		.file 34 "eurorack/plaits/dsp/oscillator/oscillator.h"
 2558              		.file 35 "eurorack/plaits/dsp/engine/chord_engine.h"
 2559              		.file 36 "eurorack/plaits/dsp/physical_modelling/resonator.h"
 2560              		.file 37 "eurorack/plaits/dsp/engine/particle_engine.h"
ARM GAS  /var/folders/9s/8rp0_f2s1n31qbztm3b5_fdh0000gn/T//cc00qguF.s 			page 96


 2561              		.file 38 "eurorack/plaits/dsp/physical_modelling/string.h"
 2562              		.file 39 "eurorack/plaits/dsp/engine/string_engine.h"
 2563              		.file 40 "eurorack/plaits/dsp/engine/swarm_engine.h"
 2564              		.file 41 "eurorack/plaits/dsp/oscillator/variable_saw_oscillator.h"
 2565              		.file 42 "<built-in>"
ARM GAS  /var/folders/9s/8rp0_f2s1n31qbztm3b5_fdh0000gn/T//cc00qguF.s 			page 97


DEFINED SYMBOLS
                            *ABS*:0000000000000000 voice.cc
/var/folders/9s/8rp0_f2s1n31qbztm3b5_fdh0000gn/T//cc00qguF.s:19     .text._ZN6stmlib16SemitonesToRatioEf:0000000000000000 $t
/var/folders/9s/8rp0_f2s1n31qbztm3b5_fdh0000gn/T//cc00qguF.s:25     .text._ZN6stmlib16SemitonesToRatioEf:0000000000000000 _ZN6stmlib16SemitonesToRatioEf
/var/folders/9s/8rp0_f2s1n31qbztm3b5_fdh0000gn/T//cc00qguF.s:73     .text._ZN6stmlib16SemitonesToRatioEf:000000000000003c $d
/var/folders/9s/8rp0_f2s1n31qbztm3b5_fdh0000gn/T//cc00qguF.s:80     .text._ZN6plaits11LPGEnvelope9ProcessLPEffff:0000000000000000 $t
/var/folders/9s/8rp0_f2s1n31qbztm3b5_fdh0000gn/T//cc00qguF.s:86     .text._ZN6plaits11LPGEnvelope9ProcessLPEffff:0000000000000000 _ZN6plaits11LPGEnvelope9ProcessLPEffff
/var/folders/9s/8rp0_f2s1n31qbztm3b5_fdh0000gn/T//cc00qguF.s:175    .text._ZN6plaits11LPGEnvelope9ProcessLPEffff:0000000000000070 $d
/var/folders/9s/8rp0_f2s1n31qbztm3b5_fdh0000gn/T//cc00qguF.s:183    .text._ZN6plaits20ChannelPostProcessor4InitEv:0000000000000000 $t
/var/folders/9s/8rp0_f2s1n31qbztm3b5_fdh0000gn/T//cc00qguF.s:189    .text._ZN6plaits20ChannelPostProcessor4InitEv:0000000000000000 _ZN6plaits20ChannelPostProcessor4InitEv
/var/folders/9s/8rp0_f2s1n31qbztm3b5_fdh0000gn/T//cc00qguF.s:331    .text._ZN6plaits20ChannelPostProcessor4InitEv:000000000000001c $d
/var/folders/9s/8rp0_f2s1n31qbztm3b5_fdh0000gn/T//cc00qguF.s:338    .text._ZN6plaits20ChannelPostProcessor7ProcessEfbfffPfPsjj:0000000000000000 $t
/var/folders/9s/8rp0_f2s1n31qbztm3b5_fdh0000gn/T//cc00qguF.s:344    .text._ZN6plaits20ChannelPostProcessor7ProcessEfbfffPfPsjj:0000000000000000 _ZN6plaits20ChannelPostProcessor7ProcessEfbfffPfPsjj
/var/folders/9s/8rp0_f2s1n31qbztm3b5_fdh0000gn/T//cc00qguF.s:783    .text._ZN6plaits20ChannelPostProcessor7ProcessEfbfffPfPsjj:0000000000000168 $d
/var/folders/9s/8rp0_f2s1n31qbztm3b5_fdh0000gn/T//cc00qguF.s:793    .text._ZN6plaits5Voice6RenderERKNS_5PatchERKNS_11ModulationsEPNS0_5FrameEj:0000000000000000 $t
/var/folders/9s/8rp0_f2s1n31qbztm3b5_fdh0000gn/T//cc00qguF.s:799    .text._ZN6plaits5Voice6RenderERKNS_5PatchERKNS_11ModulationsEPNS0_5FrameEj:0000000000000000 _ZN6plaits5Voice6RenderERKNS_5PatchERKNS_11ModulationsEPNS0_5FrameEj
/var/folders/9s/8rp0_f2s1n31qbztm3b5_fdh0000gn/T//cc00qguF.s:1625   .text._ZN6plaits5Voice6RenderERKNS_5PatchERKNS_11ModulationsEPNS0_5FrameEj:00000000000003a4 $d
/var/folders/9s/8rp0_f2s1n31qbztm3b5_fdh0000gn/T//cc00qguF.s:1646   .text._ZN6plaits5Voice6RenderERKNS_5PatchERKNS_11ModulationsEPNS0_5FrameEj:00000000000003e8 $t
/var/folders/9s/8rp0_f2s1n31qbztm3b5_fdh0000gn/T//cc00qguF.s:2054   .text._ZN6plaits14EngineRegistryILi16EE16RegisterInstanceEPNS_6EngineEbff:0000000000000000 $t
/var/folders/9s/8rp0_f2s1n31qbztm3b5_fdh0000gn/T//cc00qguF.s:2060   .text._ZN6plaits14EngineRegistryILi16EE16RegisterInstanceEPNS_6EngineEbff:0000000000000000 _ZN6plaits14EngineRegistryILi16EE16RegisterInstanceEPNS_6EngineEbff
/var/folders/9s/8rp0_f2s1n31qbztm3b5_fdh0000gn/T//cc00qguF.s:2094   .text._ZN6plaits5Voice4InitEPN6stmlib15BufferAllocatorE:0000000000000000 $t
/var/folders/9s/8rp0_f2s1n31qbztm3b5_fdh0000gn/T//cc00qguF.s:2100   .text._ZN6plaits5Voice4InitEPN6stmlib15BufferAllocatorE:0000000000000000 _ZN6plaits5Voice4InitEPN6stmlib15BufferAllocatorE
/var/folders/9s/8rp0_f2s1n31qbztm3b5_fdh0000gn/T//cc00qguF.s:2530   .text._ZN6plaits5Voice4InitEPN6stmlib15BufferAllocatorE:0000000000000194 $d

UNDEFINED SYMBOLS
_ZN6stmlib19lut_pitch_ratio_lowE
_ZN6stmlib20lut_pitch_ratio_highE
memset
