ARM GAS  /var/folders/9s/8rp0_f2s1n31qbztm3b5_fdh0000gn/T//ccySFkLz.s 			page 1


   1              		.cpu cortex-m7
   2              		.arch armv7e-m
   3              		.fpu fpv5-d16
   4              		.eabi_attribute 28, 1
   5              		.eabi_attribute 20, 1
   6              		.eabi_attribute 21, 1
   7              		.eabi_attribute 23, 3
   8              		.eabi_attribute 24, 1
   9              		.eabi_attribute 25, 1
  10              		.eabi_attribute 26, 1
  11              		.eabi_attribute 30, 4
  12              		.eabi_attribute 34, 1
  13              		.eabi_attribute 18, 4
  14              		.file	"wavetable_engine.cc"
  15              		.text
  16              	.Ltext0:
  17              		.cfi_sections	.debug_frame
  18              		.section	.text._ZN6plaits15WavetableEngine4InitEPN6stmlib15BufferAllocatorE,"ax",%progbits
  19              		.align	1
  20              		.global	_ZN6plaits15WavetableEngine4InitEPN6stmlib15BufferAllocatorE
  21              		.syntax unified
  22              		.thumb
  23              		.thumb_func
  25              	_ZN6plaits15WavetableEngine4InitEPN6stmlib15BufferAllocatorE:
  26              	.LVL0:
  27              	.LFB1535:
  28              		.file 1 "eurorack/plaits/dsp/engine/wavetable_engine.cc"
   1:eurorack/plaits/dsp/engine/wavetable_engine.cc **** // Copyright 2016 Emilie Gillet.
   2:eurorack/plaits/dsp/engine/wavetable_engine.cc **** //
   3:eurorack/plaits/dsp/engine/wavetable_engine.cc **** // Author: Emilie Gillet (emilie.o.gillet@gmail.com)
   4:eurorack/plaits/dsp/engine/wavetable_engine.cc **** //
   5:eurorack/plaits/dsp/engine/wavetable_engine.cc **** // Permission is hereby granted, free of charge, to any person obtaining a copy
   6:eurorack/plaits/dsp/engine/wavetable_engine.cc **** // of this software and associated documentation files (the "Software"), to deal
   7:eurorack/plaits/dsp/engine/wavetable_engine.cc **** // in the Software without restriction, including without limitation the rights
   8:eurorack/plaits/dsp/engine/wavetable_engine.cc **** // to use, copy, modify, merge, publish, distribute, sublicense, and/or sell
   9:eurorack/plaits/dsp/engine/wavetable_engine.cc **** // copies of the Software, and to permit persons to whom the Software is
  10:eurorack/plaits/dsp/engine/wavetable_engine.cc **** // furnished to do so, subject to the following conditions:
  11:eurorack/plaits/dsp/engine/wavetable_engine.cc **** // 
  12:eurorack/plaits/dsp/engine/wavetable_engine.cc **** // The above copyright notice and this permission notice shall be included in
  13:eurorack/plaits/dsp/engine/wavetable_engine.cc **** // all copies or substantial portions of the Software.
  14:eurorack/plaits/dsp/engine/wavetable_engine.cc **** // 
  15:eurorack/plaits/dsp/engine/wavetable_engine.cc **** // THE SOFTWARE IS PROVIDED "AS IS", WITHOUT WARRANTY OF ANY KIND, EXPRESS OR
  16:eurorack/plaits/dsp/engine/wavetable_engine.cc **** // IMPLIED, INCLUDING BUT NOT LIMITED TO THE WARRANTIES OF MERCHANTABILITY,
  17:eurorack/plaits/dsp/engine/wavetable_engine.cc **** // FITNESS FOR A PARTICULAR PURPOSE AND NONINFRINGEMENT. IN NO EVENT SHALL THE
  18:eurorack/plaits/dsp/engine/wavetable_engine.cc **** // AUTHORS OR COPYRIGHT HOLDERS BE LIABLE FOR ANY CLAIM, DAMAGES OR OTHER
  19:eurorack/plaits/dsp/engine/wavetable_engine.cc **** // LIABILITY, WHETHER IN AN ACTION OF CONTRACT, TORT OR OTHERWISE, ARISING FROM,
  20:eurorack/plaits/dsp/engine/wavetable_engine.cc **** // OUT OF OR IN CONNECTION WITH THE SOFTWARE OR THE USE OR OTHER DEALINGS IN
  21:eurorack/plaits/dsp/engine/wavetable_engine.cc **** // THE SOFTWARE.
  22:eurorack/plaits/dsp/engine/wavetable_engine.cc **** // 
  23:eurorack/plaits/dsp/engine/wavetable_engine.cc **** // See http://creativecommons.org/licenses/MIT/ for more information.
  24:eurorack/plaits/dsp/engine/wavetable_engine.cc **** //
  25:eurorack/plaits/dsp/engine/wavetable_engine.cc **** // -----------------------------------------------------------------------------
  26:eurorack/plaits/dsp/engine/wavetable_engine.cc **** //
  27:eurorack/plaits/dsp/engine/wavetable_engine.cc **** // 8x8x3 wave terrain.
  28:eurorack/plaits/dsp/engine/wavetable_engine.cc **** 
  29:eurorack/plaits/dsp/engine/wavetable_engine.cc **** #include "plaits/dsp/engine/wavetable_engine.h"
  30:eurorack/plaits/dsp/engine/wavetable_engine.cc **** 
ARM GAS  /var/folders/9s/8rp0_f2s1n31qbztm3b5_fdh0000gn/T//ccySFkLz.s 			page 2


  31:eurorack/plaits/dsp/engine/wavetable_engine.cc **** #include <algorithm>
  32:eurorack/plaits/dsp/engine/wavetable_engine.cc **** 
  33:eurorack/plaits/dsp/engine/wavetable_engine.cc **** #include "plaits/resources.h"
  34:eurorack/plaits/dsp/engine/wavetable_engine.cc **** 
  35:eurorack/plaits/dsp/engine/wavetable_engine.cc **** namespace plaits {
  36:eurorack/plaits/dsp/engine/wavetable_engine.cc **** 
  37:eurorack/plaits/dsp/engine/wavetable_engine.cc **** using namespace std;
  38:eurorack/plaits/dsp/engine/wavetable_engine.cc **** using namespace stmlib;
  39:eurorack/plaits/dsp/engine/wavetable_engine.cc **** 
  40:eurorack/plaits/dsp/engine/wavetable_engine.cc **** void WavetableEngine::Init(BufferAllocator* allocator) {
  29              		.loc 1 40 56 view -0
  30              		.cfi_startproc
  31              		@ args = 0, pretend = 0, frame = 0
  32              		@ frame_needed = 0, uses_anonymous_args = 0
  33              		@ link register save eliminated.
  41:eurorack/plaits/dsp/engine/wavetable_engine.cc ****   phase_ = 0.0f;
  34              		.loc 1 41 3 view .LVU1
  35              		.loc 1 41 10 is_stmt 0 view .LVU2
  36 0000 0023     		movs	r3, #0
  42:eurorack/plaits/dsp/engine/wavetable_engine.cc **** 
  43:eurorack/plaits/dsp/engine/wavetable_engine.cc ****   x_lp_ = 0.0f;
  44:eurorack/plaits/dsp/engine/wavetable_engine.cc ****   y_lp_ = 0.0f;
  45:eurorack/plaits/dsp/engine/wavetable_engine.cc ****   z_lp_ = 0.0f;
  46:eurorack/plaits/dsp/engine/wavetable_engine.cc ****   
  47:eurorack/plaits/dsp/engine/wavetable_engine.cc ****   x_pre_lp_ = 0.0f;
  48:eurorack/plaits/dsp/engine/wavetable_engine.cc ****   y_pre_lp_ = 0.0f;
  49:eurorack/plaits/dsp/engine/wavetable_engine.cc ****   z_pre_lp_ = 0.0f;
  50:eurorack/plaits/dsp/engine/wavetable_engine.cc **** 
  51:eurorack/plaits/dsp/engine/wavetable_engine.cc ****   previous_x_ = 0.0f;
  52:eurorack/plaits/dsp/engine/wavetable_engine.cc ****   previous_y_ = 0.0f;
  53:eurorack/plaits/dsp/engine/wavetable_engine.cc ****   previous_z_ = 0.0f;
  54:eurorack/plaits/dsp/engine/wavetable_engine.cc ****   previous_f0_ = a0;
  37              		.loc 1 54 16 view .LVU3
  38 0002 074A     		ldr	r2, .L2
  41:eurorack/plaits/dsp/engine/wavetable_engine.cc ****   phase_ = 0.0f;
  39              		.loc 1 41 10 view .LVU4
  40 0004 0361     		str	r3, [r0, #16]	@ float
  43:eurorack/plaits/dsp/engine/wavetable_engine.cc ****   y_lp_ = 0.0f;
  41              		.loc 1 43 3 is_stmt 1 view .LVU5
  43:eurorack/plaits/dsp/engine/wavetable_engine.cc ****   y_lp_ = 0.0f;
  42              		.loc 1 43 9 is_stmt 0 view .LVU6
  43 0006 0362     		str	r3, [r0, #32]	@ float
  44:eurorack/plaits/dsp/engine/wavetable_engine.cc ****   z_lp_ = 0.0f;
  44              		.loc 1 44 3 is_stmt 1 view .LVU7
  44:eurorack/plaits/dsp/engine/wavetable_engine.cc ****   z_lp_ = 0.0f;
  45              		.loc 1 44 9 is_stmt 0 view .LVU8
  46 0008 4362     		str	r3, [r0, #36]	@ float
  45:eurorack/plaits/dsp/engine/wavetable_engine.cc ****   
  47              		.loc 1 45 3 is_stmt 1 view .LVU9
  45:eurorack/plaits/dsp/engine/wavetable_engine.cc ****   
  48              		.loc 1 45 9 is_stmt 0 view .LVU10
  49 000a 8362     		str	r3, [r0, #40]	@ float
  47:eurorack/plaits/dsp/engine/wavetable_engine.cc ****   y_pre_lp_ = 0.0f;
  50              		.loc 1 47 3 is_stmt 1 view .LVU11
  47:eurorack/plaits/dsp/engine/wavetable_engine.cc ****   y_pre_lp_ = 0.0f;
  51              		.loc 1 47 13 is_stmt 0 view .LVU12
  52 000c 4361     		str	r3, [r0, #20]	@ float
ARM GAS  /var/folders/9s/8rp0_f2s1n31qbztm3b5_fdh0000gn/T//ccySFkLz.s 			page 3


  48:eurorack/plaits/dsp/engine/wavetable_engine.cc ****   z_pre_lp_ = 0.0f;
  53              		.loc 1 48 3 is_stmt 1 view .LVU13
  48:eurorack/plaits/dsp/engine/wavetable_engine.cc ****   z_pre_lp_ = 0.0f;
  54              		.loc 1 48 13 is_stmt 0 view .LVU14
  55 000e 8361     		str	r3, [r0, #24]	@ float
  49:eurorack/plaits/dsp/engine/wavetable_engine.cc **** 
  56              		.loc 1 49 3 is_stmt 1 view .LVU15
  49:eurorack/plaits/dsp/engine/wavetable_engine.cc **** 
  57              		.loc 1 49 13 is_stmt 0 view .LVU16
  58 0010 C361     		str	r3, [r0, #28]	@ float
  51:eurorack/plaits/dsp/engine/wavetable_engine.cc ****   previous_y_ = 0.0f;
  59              		.loc 1 51 3 is_stmt 1 view .LVU17
  51:eurorack/plaits/dsp/engine/wavetable_engine.cc ****   previous_y_ = 0.0f;
  60              		.loc 1 51 15 is_stmt 0 view .LVU18
  61 0012 C362     		str	r3, [r0, #44]	@ float
  52:eurorack/plaits/dsp/engine/wavetable_engine.cc ****   previous_z_ = 0.0f;
  62              		.loc 1 52 3 is_stmt 1 view .LVU19
  52:eurorack/plaits/dsp/engine/wavetable_engine.cc ****   previous_z_ = 0.0f;
  63              		.loc 1 52 15 is_stmt 0 view .LVU20
  64 0014 0363     		str	r3, [r0, #48]	@ float
  53:eurorack/plaits/dsp/engine/wavetable_engine.cc ****   previous_f0_ = a0;
  65              		.loc 1 53 3 is_stmt 1 view .LVU21
  53:eurorack/plaits/dsp/engine/wavetable_engine.cc ****   previous_f0_ = a0;
  66              		.loc 1 53 15 is_stmt 0 view .LVU22
  67 0016 4363     		str	r3, [r0, #52]	@ float
  68              		.loc 1 54 3 is_stmt 1 view .LVU23
  69              		.loc 1 54 16 is_stmt 0 view .LVU24
  70 0018 8263     		str	r2, [r0, #56]	@ float
  55:eurorack/plaits/dsp/engine/wavetable_engine.cc **** 
  56:eurorack/plaits/dsp/engine/wavetable_engine.cc ****   diff_out_.Init();
  71              		.loc 1 56 3 is_stmt 1 view .LVU25
  72              	.LVL1:
  73              	.LBB48:
  74              	.LBI48:
  75              		.file 2 "eurorack/plaits/dsp/oscillator/wavetable_oscillator.h"
   1:eurorack/plaits/dsp/oscillator/wavetable_oscillator.h **** // Copyright 2016 Emilie Gillet.
   2:eurorack/plaits/dsp/oscillator/wavetable_oscillator.h **** //
   3:eurorack/plaits/dsp/oscillator/wavetable_oscillator.h **** // Author: Emilie Gillet (emilie.o.gillet@gmail.com)
   4:eurorack/plaits/dsp/oscillator/wavetable_oscillator.h **** //
   5:eurorack/plaits/dsp/oscillator/wavetable_oscillator.h **** // Permission is hereby granted, free of charge, to any person obtaining a copy
   6:eurorack/plaits/dsp/oscillator/wavetable_oscillator.h **** // of this software and associated documentation files (the "Software"), to deal
   7:eurorack/plaits/dsp/oscillator/wavetable_oscillator.h **** // in the Software without restriction, including without limitation the rights
   8:eurorack/plaits/dsp/oscillator/wavetable_oscillator.h **** // to use, copy, modify, merge, publish, distribute, sublicense, and/or sell
   9:eurorack/plaits/dsp/oscillator/wavetable_oscillator.h **** // copies of the Software, and to permit persons to whom the Software is
  10:eurorack/plaits/dsp/oscillator/wavetable_oscillator.h **** // furnished to do so, subject to the following conditions:
  11:eurorack/plaits/dsp/oscillator/wavetable_oscillator.h **** // 
  12:eurorack/plaits/dsp/oscillator/wavetable_oscillator.h **** // The above copyright notice and this permission notice shall be included in
  13:eurorack/plaits/dsp/oscillator/wavetable_oscillator.h **** // all copies or substantial portions of the Software.
  14:eurorack/plaits/dsp/oscillator/wavetable_oscillator.h **** // 
  15:eurorack/plaits/dsp/oscillator/wavetable_oscillator.h **** // THE SOFTWARE IS PROVIDED "AS IS", WITHOUT WARRANTY OF ANY KIND, EXPRESS OR
  16:eurorack/plaits/dsp/oscillator/wavetable_oscillator.h **** // IMPLIED, INCLUDING BUT NOT LIMITED TO THE WARRANTIES OF MERCHANTABILITY,
  17:eurorack/plaits/dsp/oscillator/wavetable_oscillator.h **** // FITNESS FOR A PARTICULAR PURPOSE AND NONINFRINGEMENT. IN NO EVENT SHALL THE
  18:eurorack/plaits/dsp/oscillator/wavetable_oscillator.h **** // AUTHORS OR COPYRIGHT HOLDERS BE LIABLE FOR ANY CLAIM, DAMAGES OR OTHER
  19:eurorack/plaits/dsp/oscillator/wavetable_oscillator.h **** // LIABILITY, WHETHER IN AN ACTION OF CONTRACT, TORT OR OTHERWISE, ARISING FROM,
  20:eurorack/plaits/dsp/oscillator/wavetable_oscillator.h **** // OUT OF OR IN CONNECTION WITH THE SOFTWARE OR THE USE OR OTHER DEALINGS IN
  21:eurorack/plaits/dsp/oscillator/wavetable_oscillator.h **** // THE SOFTWARE.
  22:eurorack/plaits/dsp/oscillator/wavetable_oscillator.h **** // 
ARM GAS  /var/folders/9s/8rp0_f2s1n31qbztm3b5_fdh0000gn/T//ccySFkLz.s 			page 4


  23:eurorack/plaits/dsp/oscillator/wavetable_oscillator.h **** // See http://creativecommons.org/licenses/MIT/ for more information.
  24:eurorack/plaits/dsp/oscillator/wavetable_oscillator.h **** //
  25:eurorack/plaits/dsp/oscillator/wavetable_oscillator.h **** // -----------------------------------------------------------------------------
  26:eurorack/plaits/dsp/oscillator/wavetable_oscillator.h **** //
  27:eurorack/plaits/dsp/oscillator/wavetable_oscillator.h **** // Integrated wavetable synthesis.
  28:eurorack/plaits/dsp/oscillator/wavetable_oscillator.h **** 
  29:eurorack/plaits/dsp/oscillator/wavetable_oscillator.h **** #ifndef PLAITS_DSP_OSCILLATOR_WAVETABLE_OSCILLATOR_H_
  30:eurorack/plaits/dsp/oscillator/wavetable_oscillator.h **** #define PLAITS_DSP_OSCILLATOR_WAVETABLE_OSCILLATOR_H_
  31:eurorack/plaits/dsp/oscillator/wavetable_oscillator.h **** 
  32:eurorack/plaits/dsp/oscillator/wavetable_oscillator.h **** #include <algorithm>
  33:eurorack/plaits/dsp/oscillator/wavetable_oscillator.h **** 
  34:eurorack/plaits/dsp/oscillator/wavetable_oscillator.h **** #include "stmlib/dsp/dsp.h"
  35:eurorack/plaits/dsp/oscillator/wavetable_oscillator.h **** #include "stmlib/dsp/parameter_interpolator.h"
  36:eurorack/plaits/dsp/oscillator/wavetable_oscillator.h **** 
  37:eurorack/plaits/dsp/oscillator/wavetable_oscillator.h **** #include "plaits/dsp/oscillator/oscillator.h"
  38:eurorack/plaits/dsp/oscillator/wavetable_oscillator.h **** 
  39:eurorack/plaits/dsp/oscillator/wavetable_oscillator.h **** namespace plaits {
  40:eurorack/plaits/dsp/oscillator/wavetable_oscillator.h **** 
  41:eurorack/plaits/dsp/oscillator/wavetable_oscillator.h **** class Differentiator {
  42:eurorack/plaits/dsp/oscillator/wavetable_oscillator.h ****  public:
  43:eurorack/plaits/dsp/oscillator/wavetable_oscillator.h ****   Differentiator() { }
  44:eurorack/plaits/dsp/oscillator/wavetable_oscillator.h ****   ~Differentiator() { }
  45:eurorack/plaits/dsp/oscillator/wavetable_oscillator.h **** 
  46:eurorack/plaits/dsp/oscillator/wavetable_oscillator.h ****   void Init() {
  76              		.loc 2 46 8 view .LVU26
  77              	.LBB49:
  47:eurorack/plaits/dsp/oscillator/wavetable_oscillator.h ****     previous_ = 0.0f;
  78              		.loc 2 47 5 view .LVU27
  79              		.loc 2 47 15 is_stmt 0 view .LVU28
  80 001a 0364     		str	r3, [r0, #64]	@ float
  48:eurorack/plaits/dsp/oscillator/wavetable_oscillator.h ****     lp_ = 0.0f;
  81              		.loc 2 48 5 is_stmt 1 view .LVU29
  82              		.loc 2 48 9 is_stmt 0 view .LVU30
  83 001c C363     		str	r3, [r0, #60]	@ float
  84              	.LVL2:
  85              		.loc 2 48 9 view .LVU31
  86              	.LBE49:
  87              	.LBE48:
  57:eurorack/plaits/dsp/engine/wavetable_engine.cc **** }
  88              		.loc 1 57 1 view .LVU32
  89 001e 7047     		bx	lr
  90              	.L3:
  91              		.align	2
  92              	.L2:
  93 0020 5196963A 		.word	982947409
  94              		.cfi_endproc
  95              	.LFE1535:
  97              		.section	.text._ZN6plaits15WavetableEngine5ResetEv,"ax",%progbits
  98              		.align	1
  99              		.global	_ZN6plaits15WavetableEngine5ResetEv
 100              		.syntax unified
 101              		.thumb
 102              		.thumb_func
 104              	_ZN6plaits15WavetableEngine5ResetEv:
 105              	.LVL3:
 106              	.LFB1536:
  58:eurorack/plaits/dsp/engine/wavetable_engine.cc **** 
ARM GAS  /var/folders/9s/8rp0_f2s1n31qbztm3b5_fdh0000gn/T//ccySFkLz.s 			page 5


  59:eurorack/plaits/dsp/engine/wavetable_engine.cc **** void WavetableEngine::Reset() {
 107              		.loc 1 59 31 is_stmt 1 view -0
 108              		.cfi_startproc
 109              		@ args = 0, pretend = 0, frame = 0
 110              		@ frame_needed = 0, uses_anonymous_args = 0
 111              		@ link register save eliminated.
  60:eurorack/plaits/dsp/engine/wavetable_engine.cc ****   
  61:eurorack/plaits/dsp/engine/wavetable_engine.cc **** }
 112              		.loc 1 61 1 is_stmt 0 view .LVU34
 113 0000 7047     		bx	lr
 114              		.cfi_endproc
 115              	.LFE1536:
 117              		.section	.text._ZN6plaits5ClampEff,"axG",%progbits,_ZN6plaits5ClampEff,comdat
 118              		.align	1
 119              		.weak	_ZN6plaits5ClampEff
 120              		.syntax unified
 121              		.thumb
 122              		.thumb_func
 124              	_ZN6plaits5ClampEff:
 125              	.LVL4:
 126              	.LFB1537:
  62:eurorack/plaits/dsp/engine/wavetable_engine.cc **** 
  63:eurorack/plaits/dsp/engine/wavetable_engine.cc **** inline float Clamp(float x, float amount) {
 127              		.loc 1 63 43 is_stmt 1 view -0
 128              		.cfi_startproc
 129              		@ args = 0, pretend = 0, frame = 0
 130              		@ frame_needed = 0, uses_anonymous_args = 0
 131              		@ link register save eliminated.
  64:eurorack/plaits/dsp/engine/wavetable_engine.cc ****   x = x - 0.5f;
 132              		.loc 1 64 3 view .LVU36
 133              		.loc 1 64 5 is_stmt 0 view .LVU37
 134 0000 F6EE007A 		vmov.f32	s15, #5.0e-1
  65:eurorack/plaits/dsp/engine/wavetable_engine.cc ****   x *= amount;
  66:eurorack/plaits/dsp/engine/wavetable_engine.cc ****   CONSTRAIN(x, -0.5f, 0.5f);
 135              		.loc 1 66 3 view .LVU38
 136 0004 BEEE007A 		vmov.f32	s14, #-5.0e-1
  64:eurorack/plaits/dsp/engine/wavetable_engine.cc ****   x = x - 0.5f;
 137              		.loc 1 64 5 view .LVU39
 138 0008 30EE670A 		vsub.f32	s0, s0, s15
 139              	.LVL5:
  65:eurorack/plaits/dsp/engine/wavetable_engine.cc ****   x *= amount;
 140              		.loc 1 65 3 is_stmt 1 view .LVU40
  65:eurorack/plaits/dsp/engine/wavetable_engine.cc ****   x *= amount;
 141              		.loc 1 65 5 is_stmt 0 view .LVU41
 142 000c 20EE200A 		vmul.f32	s0, s0, s1
 143              	.LVL6:
 144              		.loc 1 66 3 is_stmt 1 view .LVU42
 145 0010 B4EEC70A 		vcmpe.f32	s0, s14
 146 0014 F1EE10FA 		vmrs	APSR_nzcv, FPSCR
 147 0018 08D4     		bmi	.L8
 148              		.loc 1 66 3 discriminator 2 view .LVU43
 149 001a B4EE670A 		vcmp.f32	s0, s15
 150 001e F1EE10FA 		vmrs	APSR_nzcv, FPSCR
 151 0022 37FE800A 		vselgt.f32	s0, s15, s0
 152              	.LVL7:
 153              	.L6:
 154              		.loc 1 66 28 discriminator 6 view .LVU44
ARM GAS  /var/folders/9s/8rp0_f2s1n31qbztm3b5_fdh0000gn/T//ccySFkLz.s 			page 6


  67:eurorack/plaits/dsp/engine/wavetable_engine.cc ****   x += 0.5f;
 155              		.loc 1 67 3 discriminator 6 view .LVU45
  68:eurorack/plaits/dsp/engine/wavetable_engine.cc ****   return x;
 156              		.loc 1 68 3 discriminator 6 view .LVU46
  69:eurorack/plaits/dsp/engine/wavetable_engine.cc **** }
 157              		.loc 1 69 1 is_stmt 0 discriminator 6 view .LVU47
 158 0026 30EE270A 		vadd.f32	s0, s0, s15
 159              	.LVL8:
 160              		.loc 1 69 1 discriminator 6 view .LVU48
 161 002a 7047     		bx	lr
 162              	.LVL9:
 163              	.L8:
  66:eurorack/plaits/dsp/engine/wavetable_engine.cc ****   x += 0.5f;
 164              		.loc 1 66 3 view .LVU49
 165 002c B0EE470A 		vmov.f32	s0, s14
 166              	.LVL10:
  66:eurorack/plaits/dsp/engine/wavetable_engine.cc ****   x += 0.5f;
 167              		.loc 1 66 3 view .LVU50
 168 0030 F9E7     		b	.L6
 169              		.cfi_endproc
 170              	.LFE1537:
 172              		.section	.text._ZN6plaits8ReadWaveEiiiiif,"axG",%progbits,_ZN6plaits8ReadWaveEiiiiif,comdat
 173              		.align	1
 174              		.weak	_ZN6plaits8ReadWaveEiiiiif
 175              		.syntax unified
 176              		.thumb
 177              		.thumb_func
 179              	_ZN6plaits8ReadWaveEiiiiif:
 180              	.LVL11:
 181              	.LFB1538:
  70:eurorack/plaits/dsp/engine/wavetable_engine.cc **** 
  71:eurorack/plaits/dsp/engine/wavetable_engine.cc **** const size_t table_size = 256;
  72:eurorack/plaits/dsp/engine/wavetable_engine.cc **** const float table_size_f = float(table_size);
  73:eurorack/plaits/dsp/engine/wavetable_engine.cc **** 
  74:eurorack/plaits/dsp/engine/wavetable_engine.cc **** inline float ReadWave(
  75:eurorack/plaits/dsp/engine/wavetable_engine.cc ****     int x,
  76:eurorack/plaits/dsp/engine/wavetable_engine.cc ****     int y,
  77:eurorack/plaits/dsp/engine/wavetable_engine.cc ****     int z,
  78:eurorack/plaits/dsp/engine/wavetable_engine.cc ****     int randomize,
  79:eurorack/plaits/dsp/engine/wavetable_engine.cc ****     int phase_integral,
  80:eurorack/plaits/dsp/engine/wavetable_engine.cc ****     float phase_fractional) {
 182              		.loc 1 80 29 is_stmt 1 view -0
 183              		.cfi_startproc
 184              		@ args = 4, pretend = 0, frame = 0
 185              		@ frame_needed = 0, uses_anonymous_args = 0
  81:eurorack/plaits/dsp/engine/wavetable_engine.cc ****   int wave = ((x + y * 8 + z * 64) * randomize) % 192;
 186              		.loc 1 81 3 view .LVU52
  82:eurorack/plaits/dsp/engine/wavetable_engine.cc ****   return InterpolateWaveHermite(
 187              		.loc 1 82 3 view .LVU53
  81:eurorack/plaits/dsp/engine/wavetable_engine.cc ****   int wave = ((x + y * 8 + z * 64) * randomize) % 192;
 188              		.loc 1 81 18 is_stmt 0 view .LVU54
 189 0000 00EBC101 		add	r1, r0, r1, lsl #3
 190              	.LVL12:
 191              	.LBB52:
 192              	.LBB53:
  49:eurorack/plaits/dsp/oscillator/wavetable_oscillator.h ****   }
  50:eurorack/plaits/dsp/oscillator/wavetable_oscillator.h ****   
ARM GAS  /var/folders/9s/8rp0_f2s1n31qbztm3b5_fdh0000gn/T//ccySFkLz.s 			page 7


  51:eurorack/plaits/dsp/oscillator/wavetable_oscillator.h ****   float Process(float coefficient, float s) {
  52:eurorack/plaits/dsp/oscillator/wavetable_oscillator.h ****     ONE_POLE(lp_, s - previous_, coefficient);
  53:eurorack/plaits/dsp/oscillator/wavetable_oscillator.h ****     previous_ = s;
  54:eurorack/plaits/dsp/oscillator/wavetable_oscillator.h ****     return lp_;
  55:eurorack/plaits/dsp/oscillator/wavetable_oscillator.h ****   }
  56:eurorack/plaits/dsp/oscillator/wavetable_oscillator.h ****  private:
  57:eurorack/plaits/dsp/oscillator/wavetable_oscillator.h ****   float lp_;
  58:eurorack/plaits/dsp/oscillator/wavetable_oscillator.h ****   float previous_;
  59:eurorack/plaits/dsp/oscillator/wavetable_oscillator.h **** 
  60:eurorack/plaits/dsp/oscillator/wavetable_oscillator.h ****   DISALLOW_COPY_AND_ASSIGN(Differentiator);
  61:eurorack/plaits/dsp/oscillator/wavetable_oscillator.h **** };
  62:eurorack/plaits/dsp/oscillator/wavetable_oscillator.h **** 
  63:eurorack/plaits/dsp/oscillator/wavetable_oscillator.h **** inline float InterpolateWave(
  64:eurorack/plaits/dsp/oscillator/wavetable_oscillator.h ****     const int16_t* table,
  65:eurorack/plaits/dsp/oscillator/wavetable_oscillator.h ****     int32_t index_integral,
  66:eurorack/plaits/dsp/oscillator/wavetable_oscillator.h ****     float index_fractional) {
  67:eurorack/plaits/dsp/oscillator/wavetable_oscillator.h ****   float a = static_cast<float>(table[index_integral]);
  68:eurorack/plaits/dsp/oscillator/wavetable_oscillator.h ****   float b = static_cast<float>(table[index_integral + 1]);
  69:eurorack/plaits/dsp/oscillator/wavetable_oscillator.h ****   float t = index_fractional;
  70:eurorack/plaits/dsp/oscillator/wavetable_oscillator.h ****   return a + (b - a) * t;
  71:eurorack/plaits/dsp/oscillator/wavetable_oscillator.h **** }
  72:eurorack/plaits/dsp/oscillator/wavetable_oscillator.h **** 
  73:eurorack/plaits/dsp/oscillator/wavetable_oscillator.h **** inline float InterpolateWaveHermite(
  74:eurorack/plaits/dsp/oscillator/wavetable_oscillator.h ****     const int16_t* table,
  75:eurorack/plaits/dsp/oscillator/wavetable_oscillator.h ****     int32_t index_integral,
  76:eurorack/plaits/dsp/oscillator/wavetable_oscillator.h ****     float index_fractional) {
  77:eurorack/plaits/dsp/oscillator/wavetable_oscillator.h ****   const float xm1 = table[index_integral];
  78:eurorack/plaits/dsp/oscillator/wavetable_oscillator.h ****   const float x0 = table[index_integral + 1];
  79:eurorack/plaits/dsp/oscillator/wavetable_oscillator.h ****   const float x1 = table[index_integral + 2];
  80:eurorack/plaits/dsp/oscillator/wavetable_oscillator.h ****   const float x2 = table[index_integral + 3];
  81:eurorack/plaits/dsp/oscillator/wavetable_oscillator.h ****   const float c = (x1 - xm1) * 0.5f;
  82:eurorack/plaits/dsp/oscillator/wavetable_oscillator.h ****   const float v = x0 - x1;
  83:eurorack/plaits/dsp/oscillator/wavetable_oscillator.h ****   const float w = c + v;
 193              		.loc 2 83 15 view .LVU55
 194 0004 B6EE005A 		vmov.f32	s10, #5.0e-1
 195              	.LBE53:
 196              	.LBE52:
  81:eurorack/plaits/dsp/engine/wavetable_engine.cc ****   return InterpolateWaveHermite(
 197              		.loc 1 81 26 view .LVU56
 198 0008 01EB8212 		add	r2, r1, r2, lsl #6
 199              	.LVL13:
  81:eurorack/plaits/dsp/engine/wavetable_engine.cc ****   return InterpolateWaveHermite(
 200              		.loc 1 81 36 view .LVU57
 201 000c 5343     		muls	r3, r2, r3
 202              	.LVL14:
  81:eurorack/plaits/dsp/engine/wavetable_engine.cc ****   return InterpolateWaveHermite(
 203              		.loc 1 81 7 view .LVU58
 204 000e C022     		movs	r2, #192
 205 0010 93FBF2F1 		sdiv	r1, r3, r2
 206 0014 02FB1133 		mls	r3, r2, r1, r3
 207              		.loc 1 82 32 view .LVU59
 208 0018 4FF40271 		mov	r1, #520
 209 001c 1C4A     		ldr	r2, .L11
  80:eurorack/plaits/dsp/engine/wavetable_engine.cc ****   int wave = ((x + y * 8 + z * 64) * randomize) % 192;
 210              		.loc 1 80 29 view .LVU60
 211 001e 10B5     		push	{r4, lr}
 212              		.cfi_def_cfa_offset 8
ARM GAS  /var/folders/9s/8rp0_f2s1n31qbztm3b5_fdh0000gn/T//ccySFkLz.s 			page 8


 213              		.cfi_offset 4, -8
 214              		.cfi_offset 14, -4
  80:eurorack/plaits/dsp/engine/wavetable_engine.cc ****   int wave = ((x + y * 8 + z * 64) * randomize) % 192;
 215              		.loc 1 80 29 view .LVU61
 216 0020 029C     		ldr	r4, [sp, #8]
 217              		.loc 1 82 32 view .LVU62
 218 0022 01FB0323 		mla	r3, r1, r3, r2
 219              	.LVL15:
 220              	.LBB55:
 221              	.LBI52:
  73:eurorack/plaits/dsp/oscillator/wavetable_oscillator.h ****     const int16_t* table,
 222              		.loc 2 73 14 is_stmt 1 view .LVU63
 223              	.LBB54:
  77:eurorack/plaits/dsp/oscillator/wavetable_oscillator.h ****   const float x0 = table[index_integral + 1];
 224              		.loc 2 77 3 view .LVU64
  78:eurorack/plaits/dsp/oscillator/wavetable_oscillator.h ****   const float x1 = table[index_integral + 2];
 225              		.loc 2 78 3 view .LVU65
  78:eurorack/plaits/dsp/oscillator/wavetable_oscillator.h ****   const float x1 = table[index_integral + 2];
 226              		.loc 2 78 44 is_stmt 0 view .LVU66
 227 0026 03EB4402 		add	r2, r3, r4, lsl #1
  77:eurorack/plaits/dsp/oscillator/wavetable_oscillator.h ****   const float x0 = table[index_integral + 1];
 228              		.loc 2 77 15 view .LVU67
 229 002a 33F91430 		ldrsh	r3, [r3, r4, lsl #1]
 230              	.LVL16:
  78:eurorack/plaits/dsp/oscillator/wavetable_oscillator.h ****   const float x1 = table[index_integral + 2];
 231              		.loc 2 78 15 view .LVU68
 232 002e B2F90210 		ldrsh	r1, [r2, #2]
 233              	.LVL17:
  77:eurorack/plaits/dsp/oscillator/wavetable_oscillator.h ****   const float x0 = table[index_integral + 1];
 234              		.loc 2 77 15 view .LVU69
 235 0032 06EE903A 		vmov	s13, r3	@ int
  80:eurorack/plaits/dsp/oscillator/wavetable_oscillator.h ****   const float c = (x1 - xm1) * 0.5f;
 236              		.loc 2 80 15 view .LVU70
 237 0036 B2F90630 		ldrsh	r3, [r2, #6]
 238              	.LVL18:
  78:eurorack/plaits/dsp/oscillator/wavetable_oscillator.h ****   const float x1 = table[index_integral + 2];
 239              		.loc 2 78 15 view .LVU71
 240 003a 06EE101A 		vmov	s12, r1	@ int
  79:eurorack/plaits/dsp/oscillator/wavetable_oscillator.h ****   const float x2 = table[index_integral + 3];
 241              		.loc 2 79 15 view .LVU72
 242 003e B2F90410 		ldrsh	r1, [r2, #4]
  77:eurorack/plaits/dsp/oscillator/wavetable_oscillator.h ****   const float x0 = table[index_integral + 1];
 243              		.loc 2 77 15 view .LVU73
 244 0042 F8EEE66A 		vcvt.f32.s32	s13, s13
 245              	.LVL19:
  80:eurorack/plaits/dsp/oscillator/wavetable_oscillator.h ****   const float c = (x1 - xm1) * 0.5f;
 246              		.loc 2 80 15 view .LVU74
 247 0046 05EE903A 		vmov	s11, r3	@ int
  79:eurorack/plaits/dsp/oscillator/wavetable_oscillator.h ****   const float x2 = table[index_integral + 3];
 248              		.loc 2 79 15 view .LVU75
 249 004a 07EE901A 		vmov	s15, r1	@ int
  78:eurorack/plaits/dsp/oscillator/wavetable_oscillator.h ****   const float x1 = table[index_integral + 2];
 250              		.loc 2 78 15 view .LVU76
 251 004e B8EEC66A 		vcvt.f32.s32	s12, s12
 252              	.LVL20:
  79:eurorack/plaits/dsp/oscillator/wavetable_oscillator.h ****   const float x2 = table[index_integral + 3];
 253              		.loc 2 79 3 is_stmt 1 view .LVU77
ARM GAS  /var/folders/9s/8rp0_f2s1n31qbztm3b5_fdh0000gn/T//ccySFkLz.s 			page 9


  80:eurorack/plaits/dsp/oscillator/wavetable_oscillator.h ****   const float c = (x1 - xm1) * 0.5f;
 254              		.loc 2 80 15 is_stmt 0 view .LVU78
 255 0052 F8EEE55A 		vcvt.f32.s32	s11, s11
  79:eurorack/plaits/dsp/oscillator/wavetable_oscillator.h ****   const float x2 = table[index_integral + 3];
 256              		.loc 2 79 15 view .LVU79
 257 0056 F8EEE77A 		vcvt.f32.s32	s15, s15
 258              	.LVL21:
  80:eurorack/plaits/dsp/oscillator/wavetable_oscillator.h ****   const float c = (x1 - xm1) * 0.5f;
 259              		.loc 2 80 3 is_stmt 1 view .LVU80
  81:eurorack/plaits/dsp/oscillator/wavetable_oscillator.h ****   const float v = x0 - x1;
 260              		.loc 2 81 3 view .LVU81
  84:eurorack/plaits/dsp/oscillator/wavetable_oscillator.h ****   const float a = w + v + (x2 - x0) * 0.5f;
 261              		.loc 2 84 31 is_stmt 0 view .LVU82
 262 005a 75EEC65A 		vsub.f32	s11, s11, s12
  81:eurorack/plaits/dsp/oscillator/wavetable_oscillator.h ****   const float v = x0 - x1;
 263              		.loc 2 81 23 view .LVU83
 264 005e 77EEE66A 		vsub.f32	s13, s15, s13
 265              	.LVL22:
  82:eurorack/plaits/dsp/oscillator/wavetable_oscillator.h ****   const float w = c + v;
 266              		.loc 2 82 3 is_stmt 1 view .LVU84
  82:eurorack/plaits/dsp/oscillator/wavetable_oscillator.h ****   const float w = c + v;
 267              		.loc 2 82 15 is_stmt 0 view .LVU85
 268 0062 76EE677A 		vsub.f32	s15, s12, s15
 269              	.LVL23:
  83:eurorack/plaits/dsp/oscillator/wavetable_oscillator.h ****   const float a = w + v + (x2 - x0) * 0.5f;
 270              		.loc 2 83 3 is_stmt 1 view .LVU86
  83:eurorack/plaits/dsp/oscillator/wavetable_oscillator.h ****   const float a = w + v + (x2 - x0) * 0.5f;
 271              		.loc 2 83 15 is_stmt 0 view .LVU87
 272 0066 B0EE677A 		vmov.f32	s14, s15
 273 006a A6EE857A 		vfma.f32	s14, s13, s10
 274              	.LVL24:
 275              		.loc 2 84 3 is_stmt 1 view .LVU88
 276              		.loc 2 84 21 is_stmt 0 view .LVU89
 277 006e 77EE877A 		vadd.f32	s15, s15, s14
 278              	.LVL25:
 279              		.loc 2 84 15 view .LVU90
 280 0072 E5EE857A 		vfma.f32	s15, s11, s10
 281              	.LVL26:
  85:eurorack/plaits/dsp/oscillator/wavetable_oscillator.h ****   const float b_neg = w + a;
 282              		.loc 2 85 3 is_stmt 1 view .LVU91
  86:eurorack/plaits/dsp/oscillator/wavetable_oscillator.h ****   const float f = index_fractional;
 283              		.loc 2 86 3 view .LVU92
  87:eurorack/plaits/dsp/oscillator/wavetable_oscillator.h ****   return (((a * f) - b_neg) * f + c) * f + x0;
 284              		.loc 2 87 3 view .LVU93
  85:eurorack/plaits/dsp/oscillator/wavetable_oscillator.h ****   const float b_neg = w + a;
 285              		.loc 2 85 15 is_stmt 0 view .LVU94
 286 0076 37EE277A 		vadd.f32	s14, s14, s15
 287              		.loc 2 87 20 view .LVU95
 288 007a 90EE277A 		vfnms.f32	s14, s0, s15
 289              		.loc 2 87 29 view .LVU96
 290 007e 20EE077A 		vmul.f32	s14, s0, s14
 291              		.loc 2 87 33 view .LVU97
 292 0082 A6EE857A 		vfma.f32	s14, s13, s10
 293              	.LBE54:
 294              	.LBE55:
  83:eurorack/plaits/dsp/engine/wavetable_engine.cc ****       wav_integrated_waves + wave * (table_size + 4),
  84:eurorack/plaits/dsp/engine/wavetable_engine.cc ****       phase_integral,
ARM GAS  /var/folders/9s/8rp0_f2s1n31qbztm3b5_fdh0000gn/T//ccySFkLz.s 			page 10


  85:eurorack/plaits/dsp/engine/wavetable_engine.cc ****       phase_fractional);
  86:eurorack/plaits/dsp/engine/wavetable_engine.cc **** }
 295              		.loc 1 86 1 view .LVU98
 296 0086 A0EE076A 		vfma.f32	s12, s0, s14
 297 008a B0EE460A 		vmov.f32	s0, s12
 298              	.LVL27:
 299              		.loc 1 86 1 view .LVU99
 300 008e 10BD     		pop	{r4, pc}
 301              	.LVL28:
 302              	.L12:
 303              		.loc 1 86 1 view .LVU100
 304              		.align	2
 305              	.L11:
 306 0090 00000000 		.word	_ZN6plaits20wav_integrated_wavesE
 307              		.cfi_endproc
 308              	.LFE1538:
 310              		.section	.text._ZN6plaits15WavetableEngine6RenderERKNS_16EngineParametersEPfS4_jPb,"ax",%progbits
 311              		.align	1
 312              		.global	_ZN6plaits15WavetableEngine6RenderERKNS_16EngineParametersEPfS4_jPb
 313              		.syntax unified
 314              		.thumb
 315              		.thumb_func
 317              	_ZN6plaits15WavetableEngine6RenderERKNS_16EngineParametersEPfS4_jPb:
 318              	.LVL29:
 319              	.LFB1539:
  87:eurorack/plaits/dsp/engine/wavetable_engine.cc **** 
  88:eurorack/plaits/dsp/engine/wavetable_engine.cc **** void WavetableEngine::Render(
  89:eurorack/plaits/dsp/engine/wavetable_engine.cc ****     const EngineParameters& parameters,
  90:eurorack/plaits/dsp/engine/wavetable_engine.cc ****     float* out,
  91:eurorack/plaits/dsp/engine/wavetable_engine.cc ****     float* aux,
  92:eurorack/plaits/dsp/engine/wavetable_engine.cc ****     size_t size,
  93:eurorack/plaits/dsp/engine/wavetable_engine.cc ****     bool* already_enveloped) {
 320              		.loc 1 93 30 is_stmt 1 view -0
 321              		.cfi_startproc
 322              		@ args = 8, pretend = 0, frame = 48
 323              		@ frame_needed = 0, uses_anonymous_args = 0
  94:eurorack/plaits/dsp/engine/wavetable_engine.cc ****   const float f0 = NoteToFrequency(parameters.note);
 324              		.loc 1 94 3 view .LVU102
 325              	.LBB110:
 326              	.LBI110:
 327              		.file 3 "eurorack/plaits/dsp/engine/engine.h"
   1:eurorack/plaits/dsp/engine/engine.h **** // Copyright 2016 Emilie Gillet.
   2:eurorack/plaits/dsp/engine/engine.h **** //
   3:eurorack/plaits/dsp/engine/engine.h **** // Author: Emilie Gillet (emilie.o.gillet@gmail.com)
   4:eurorack/plaits/dsp/engine/engine.h **** //
   5:eurorack/plaits/dsp/engine/engine.h **** // Permission is hereby granted, free of charge, to any person obtaining a copy
   6:eurorack/plaits/dsp/engine/engine.h **** // of this software and associated documentation files (the "Software"), to deal
   7:eurorack/plaits/dsp/engine/engine.h **** // in the Software without restriction, including without limitation the rights
   8:eurorack/plaits/dsp/engine/engine.h **** // to use, copy, modify, merge, publish, distribute, sublicense, and/or sell
   9:eurorack/plaits/dsp/engine/engine.h **** // copies of the Software, and to permit persons to whom the Software is
  10:eurorack/plaits/dsp/engine/engine.h **** // furnished to do so, subject to the following conditions:
  11:eurorack/plaits/dsp/engine/engine.h **** // 
  12:eurorack/plaits/dsp/engine/engine.h **** // The above copyright notice and this permission notice shall be included in
  13:eurorack/plaits/dsp/engine/engine.h **** // all copies or substantial portions of the Software.
  14:eurorack/plaits/dsp/engine/engine.h **** // 
  15:eurorack/plaits/dsp/engine/engine.h **** // THE SOFTWARE IS PROVIDED "AS IS", WITHOUT WARRANTY OF ANY KIND, EXPRESS OR
  16:eurorack/plaits/dsp/engine/engine.h **** // IMPLIED, INCLUDING BUT NOT LIMITED TO THE WARRANTIES OF MERCHANTABILITY,
ARM GAS  /var/folders/9s/8rp0_f2s1n31qbztm3b5_fdh0000gn/T//ccySFkLz.s 			page 11


  17:eurorack/plaits/dsp/engine/engine.h **** // FITNESS FOR A PARTICULAR PURPOSE AND NONINFRINGEMENT. IN NO EVENT SHALL THE
  18:eurorack/plaits/dsp/engine/engine.h **** // AUTHORS OR COPYRIGHT HOLDERS BE LIABLE FOR ANY CLAIM, DAMAGES OR OTHER
  19:eurorack/plaits/dsp/engine/engine.h **** // LIABILITY, WHETHER IN AN ACTION OF CONTRACT, TORT OR OTHERWISE, ARISING FROM,
  20:eurorack/plaits/dsp/engine/engine.h **** // OUT OF OR IN CONNECTION WITH THE SOFTWARE OR THE USE OR OTHER DEALINGS IN
  21:eurorack/plaits/dsp/engine/engine.h **** // THE SOFTWARE.
  22:eurorack/plaits/dsp/engine/engine.h **** // 
  23:eurorack/plaits/dsp/engine/engine.h **** // See http://creativecommons.org/licenses/MIT/ for more information.
  24:eurorack/plaits/dsp/engine/engine.h **** //
  25:eurorack/plaits/dsp/engine/engine.h **** // -----------------------------------------------------------------------------
  26:eurorack/plaits/dsp/engine/engine.h **** //
  27:eurorack/plaits/dsp/engine/engine.h **** // Base class for all engines.
  28:eurorack/plaits/dsp/engine/engine.h **** 
  29:eurorack/plaits/dsp/engine/engine.h **** #ifndef PLAITS_DSP_ENGINE_ENGINE_H_
  30:eurorack/plaits/dsp/engine/engine.h **** #define PLAITS_DSP_ENGINE_ENGINE_H_
  31:eurorack/plaits/dsp/engine/engine.h **** 
  32:eurorack/plaits/dsp/engine/engine.h **** #include "plaits/dsp/dsp.h"
  33:eurorack/plaits/dsp/engine/engine.h **** 
  34:eurorack/plaits/dsp/engine/engine.h **** #include "stmlib/dsp/units.h"
  35:eurorack/plaits/dsp/engine/engine.h **** #include "stmlib/utils/buffer_allocator.h"
  36:eurorack/plaits/dsp/engine/engine.h **** 
  37:eurorack/plaits/dsp/engine/engine.h **** namespace plaits {
  38:eurorack/plaits/dsp/engine/engine.h **** 
  39:eurorack/plaits/dsp/engine/engine.h **** inline float NoteToFrequency(float midi_note) {
 328              		.loc 3 39 14 view .LVU103
 329              	.LBB111:
  40:eurorack/plaits/dsp/engine/engine.h ****   midi_note -= 9.0f;
 330              		.loc 3 40 3 view .LVU104
 331              		.loc 3 40 13 is_stmt 0 view .LVU105
 332 0000 B2EE027A 		vmov.f32	s14, #9.0e+0
 333 0004 D1ED017A 		vldr.32	s15, [r1, #4]
 334              	.LBE111:
 335              	.LBE110:
  93:eurorack/plaits/dsp/engine/wavetable_engine.cc ****   const float f0 = NoteToFrequency(parameters.note);
 336              		.loc 1 93 30 view .LVU106
 337 0008 2DE9F04F 		push	{r4, r5, r6, r7, r8, r9, r10, fp, lr}
 338              		.cfi_def_cfa_offset 36
 339              		.cfi_offset 4, -36
 340              		.cfi_offset 5, -32
 341              		.cfi_offset 6, -28
 342              		.cfi_offset 7, -24
 343              		.cfi_offset 8, -20
 344              		.cfi_offset 9, -16
 345              		.cfi_offset 10, -12
 346              		.cfi_offset 11, -8
 347              		.cfi_offset 14, -4
 348              	.LBB141:
 349              	.LBB128:
 350              		.loc 3 40 13 view .LVU107
 351 000c 77EEC77A 		vsub.f32	s15, s15, s14
 352              	.LVL30:
  41:eurorack/plaits/dsp/engine/engine.h ****   CONSTRAIN(midi_note, -128.0f, 127.0f);
 353              		.loc 3 41 3 is_stmt 1 view .LVU108
 354 0010 9FEDF07A 		vldr.32	s14, .L47
 355              	.LBE128:
 356              	.LBE141:
  93:eurorack/plaits/dsp/engine/wavetable_engine.cc ****   const float f0 = NoteToFrequency(parameters.note);
 357              		.loc 1 93 30 is_stmt 0 view .LVU109
ARM GAS  /var/folders/9s/8rp0_f2s1n31qbztm3b5_fdh0000gn/T//ccySFkLz.s 			page 12


 358 0014 0446     		mov	r4, r0
 359              	.LBB142:
 360              	.LBB129:
 361              		.loc 3 41 3 view .LVU110
 362 0016 F4EEC77A 		vcmpe.f32	s15, s14
 363              	.LBE129:
 364              	.LBE142:
  93:eurorack/plaits/dsp/engine/wavetable_engine.cc ****   const float f0 = NoteToFrequency(parameters.note);
 365              		.loc 1 93 30 view .LVU111
 366 001a 2DED108B 		vpush.64	{d8, d9, d10, d11, d12, d13, d14, d15}
 367              		.cfi_def_cfa_offset 100
 368              		.cfi_offset 80, -100
 369              		.cfi_offset 81, -96
 370              		.cfi_offset 82, -92
 371              		.cfi_offset 83, -88
 372              		.cfi_offset 84, -84
 373              		.cfi_offset 85, -80
 374              		.cfi_offset 86, -76
 375              		.cfi_offset 87, -72
 376              		.cfi_offset 88, -68
 377              		.cfi_offset 89, -64
 378              		.cfi_offset 90, -60
 379              		.cfi_offset 91, -56
 380              		.cfi_offset 92, -52
 381              		.cfi_offset 93, -48
 382              		.cfi_offset 94, -44
 383              		.cfi_offset 95, -40
 384              	.LBB143:
 385              	.LBB130:
 386              		.loc 3 41 3 view .LVU112
 387 001e F1EE10FA 		vmrs	APSR_nzcv, FPSCR
 388              	.LBE130:
 389              	.LBE143:
  93:eurorack/plaits/dsp/engine/wavetable_engine.cc ****   const float f0 = NoteToFrequency(parameters.note);
 390              		.loc 1 93 30 view .LVU113
 391 0022 8FB0     		sub	sp, sp, #60
 392              		.cfi_def_cfa_offset 160
  93:eurorack/plaits/dsp/engine/wavetable_engine.cc ****   const float f0 = NoteToFrequency(parameters.note);
 393              		.loc 1 93 30 view .LVU114
 394 0024 CDE90223 		strd	r2, r3, [sp, #8]
 395              	.LBB144:
 396              	.LBB131:
 397              		.loc 3 41 3 view .LVU115
 398 0028 00F12582 		bmi	.L33
 399              		.loc 3 41 3 is_stmt 1 view .LVU116
 400 002c 9FEDEA7A 		vldr.32	s14, .L47+4
 401 0030 F4EE477A 		vcmp.f32	s15, s14
 402 0034 F1EE10FA 		vmrs	APSR_nzcv, FPSCR
 403 0038 77FE277A 		vselgt.f32	s15, s14, s15
 404              	.LVL31:
 405              	.L14:
 406              		.loc 3 41 40 view .LVU117
  42:eurorack/plaits/dsp/engine/engine.h ****   return a0 * 0.25f * stmlib::SemitonesToRatio(midi_note);
 407              		.loc 3 42 3 view .LVU118
 408              	.LBB112:
 409              	.LBI112:
 410              		.file 4 "eurorack/stmlib/dsp/units.h"
ARM GAS  /var/folders/9s/8rp0_f2s1n31qbztm3b5_fdh0000gn/T//ccySFkLz.s 			page 13


   1:eurorack/stmlib/dsp/units.h **** // Copyright 2014 Emilie Gillet.
   2:eurorack/stmlib/dsp/units.h **** //
   3:eurorack/stmlib/dsp/units.h **** // Author: Emilie Gillet (emilie.o.gillet@gmail.com)
   4:eurorack/stmlib/dsp/units.h **** //
   5:eurorack/stmlib/dsp/units.h **** // Permission is hereby granted, free of charge, to any person obtaining a copy
   6:eurorack/stmlib/dsp/units.h **** // of this software and associated documentation files (the "Software"), to deal
   7:eurorack/stmlib/dsp/units.h **** // in the Software without restriction, including without limitation the rights
   8:eurorack/stmlib/dsp/units.h **** // to use, copy, modify, merge, publish, distribute, sublicense, and/or sell
   9:eurorack/stmlib/dsp/units.h **** // copies of the Software, and to permit persons to whom the Software is
  10:eurorack/stmlib/dsp/units.h **** // furnished to do so, subject to the following conditions:
  11:eurorack/stmlib/dsp/units.h **** // 
  12:eurorack/stmlib/dsp/units.h **** // The above copyright notice and this permission notice shall be included in
  13:eurorack/stmlib/dsp/units.h **** // all copies or substantial portions of the Software.
  14:eurorack/stmlib/dsp/units.h **** // 
  15:eurorack/stmlib/dsp/units.h **** // THE SOFTWARE IS PROVIDED "AS IS", WITHOUT WARRANTY OF ANY KIND, EXPRESS OR
  16:eurorack/stmlib/dsp/units.h **** // IMPLIED, INCLUDING BUT NOT LIMITED TO THE WARRANTIES OF MERCHANTABILITY,
  17:eurorack/stmlib/dsp/units.h **** // FITNESS FOR A PARTICULAR PURPOSE AND NONINFRINGEMENT. IN NO EVENT SHALL THE
  18:eurorack/stmlib/dsp/units.h **** // AUTHORS OR COPYRIGHT HOLDERS BE LIABLE FOR ANY CLAIM, DAMAGES OR OTHER
  19:eurorack/stmlib/dsp/units.h **** // LIABILITY, WHETHER IN AN ACTION OF CONTRACT, TORT OR OTHERWISE, ARISING FROM,
  20:eurorack/stmlib/dsp/units.h **** // OUT OF OR IN CONNECTION WITH THE SOFTWARE OR THE USE OR OTHER DEALINGS IN
  21:eurorack/stmlib/dsp/units.h **** // THE SOFTWARE.
  22:eurorack/stmlib/dsp/units.h **** // 
  23:eurorack/stmlib/dsp/units.h **** // See http://creativecommons.org/licenses/MIT/ for more information.
  24:eurorack/stmlib/dsp/units.h **** //
  25:eurorack/stmlib/dsp/units.h **** // -----------------------------------------------------------------------------
  26:eurorack/stmlib/dsp/units.h **** //
  27:eurorack/stmlib/dsp/units.h **** // Conversion from semitones to frequency ratio.
  28:eurorack/stmlib/dsp/units.h **** 
  29:eurorack/stmlib/dsp/units.h **** #ifndef STMLIB_DSP_UNITS_H_
  30:eurorack/stmlib/dsp/units.h **** #define STMLIB_DSP_UNITS_H_
  31:eurorack/stmlib/dsp/units.h **** 
  32:eurorack/stmlib/dsp/units.h **** #include "stmlib/stmlib.h"
  33:eurorack/stmlib/dsp/units.h **** #include "stmlib/dsp/dsp.h"
  34:eurorack/stmlib/dsp/units.h **** 
  35:eurorack/stmlib/dsp/units.h **** namespace stmlib {
  36:eurorack/stmlib/dsp/units.h **** 
  37:eurorack/stmlib/dsp/units.h **** extern const float lut_pitch_ratio_high[257];
  38:eurorack/stmlib/dsp/units.h **** extern const float lut_pitch_ratio_low[257];
  39:eurorack/stmlib/dsp/units.h **** 
  40:eurorack/stmlib/dsp/units.h **** inline float SemitonesToRatio(float semitones) {
 411              		.loc 4 40 14 view .LVU119
 412              	.LBB113:
  41:eurorack/stmlib/dsp/units.h ****   float pitch = semitones + 128.0f;
 413              		.loc 4 41 3 view .LVU120
 414              		.loc 4 41 9 is_stmt 0 view .LVU121
 415 003c 9FEDE77A 		vldr.32	s14, .L47+8
 416              	.LBE113:
 417              	.LBE112:
 418              	.LBE131:
 419              	.LBE144:
  95:eurorack/plaits/dsp/engine/wavetable_engine.cc ****   
  96:eurorack/plaits/dsp/engine/wavetable_engine.cc ****   ONE_POLE(x_pre_lp_, parameters.timbre * 6.9999f, 0.2f);
  97:eurorack/plaits/dsp/engine/wavetable_engine.cc ****   ONE_POLE(y_pre_lp_, parameters.morph * 6.9999f, 0.2f);
  98:eurorack/plaits/dsp/engine/wavetable_engine.cc ****   ONE_POLE(z_pre_lp_, parameters.harmonics * 6.9999f, 0.05f);
  99:eurorack/plaits/dsp/engine/wavetable_engine.cc ****   
 100:eurorack/plaits/dsp/engine/wavetable_engine.cc ****   const float x = x_pre_lp_;
 101:eurorack/plaits/dsp/engine/wavetable_engine.cc ****   const float y = y_pre_lp_;
ARM GAS  /var/folders/9s/8rp0_f2s1n31qbztm3b5_fdh0000gn/T//ccySFkLz.s 			page 14


 102:eurorack/plaits/dsp/engine/wavetable_engine.cc ****   const float z = z_pre_lp_;
 103:eurorack/plaits/dsp/engine/wavetable_engine.cc ****   
 104:eurorack/plaits/dsp/engine/wavetable_engine.cc ****   const float quantization = min(max(z - 3.0f, 0.0f), 1.0f);
 420              		.loc 1 104 55 view .LVU122
 421 0040 B7EE00BA 		vmov.f32	s22, #1.0e+0
 422              	.LBB145:
 423              	.LBB132:
 424              	.LBB121:
 425              	.LBB114:
  42:eurorack/stmlib/dsp/units.h ****   MAKE_INTEGRAL_FRACTIONAL(pitch)
  43:eurorack/stmlib/dsp/units.h **** 
  44:eurorack/stmlib/dsp/units.h ****   return lut_pitch_ratio_high[pitch_integral] * \
  45:eurorack/stmlib/dsp/units.h ****       lut_pitch_ratio_low[static_cast<int32_t>(pitch_fractional * 256.0f)];
 426              		.loc 4 45 74 view .LVU123
 427 0044 E64A     		ldr	r2, .L47+12
 428              	.LVL32:
 429              		.loc 4 45 74 view .LVU124
 430              	.LBE114:
 431              	.LBE121:
 432              	.LBE132:
 433              	.LBE145:
 105:eurorack/plaits/dsp/engine/wavetable_engine.cc ****   const float lp_coefficient = min(
 106:eurorack/plaits/dsp/engine/wavetable_engine.cc ****       max(2.0f * f0 * (4.0f - 3.0f * quantization), 0.01f), 0.1f);
 107:eurorack/plaits/dsp/engine/wavetable_engine.cc ****   
 108:eurorack/plaits/dsp/engine/wavetable_engine.cc ****   MAKE_INTEGRAL_FRACTIONAL(x);
 109:eurorack/plaits/dsp/engine/wavetable_engine.cc ****   MAKE_INTEGRAL_FRACTIONAL(y);
 110:eurorack/plaits/dsp/engine/wavetable_engine.cc ****   MAKE_INTEGRAL_FRACTIONAL(z);
 111:eurorack/plaits/dsp/engine/wavetable_engine.cc ****   
 112:eurorack/plaits/dsp/engine/wavetable_engine.cc ****   x_fractional += quantization * (Clamp(x_fractional, 16.0f) - x_fractional);
 434              		.loc 1 112 40 view .LVU125
 435 0046 F3EE000A 		vmov.f32	s1, #1.6e+1
 436              	.LBB146:
 437              	.LBB133:
 438              	.LBB122:
 439              	.LBB115:
  41:eurorack/stmlib/dsp/units.h ****   MAKE_INTEGRAL_FRACTIONAL(pitch)
 440              		.loc 4 41 9 view .LVU126
 441 004a 77EE877A 		vadd.f32	s15, s15, s14
 442              	.LVL33:
  42:eurorack/stmlib/dsp/units.h ****   MAKE_INTEGRAL_FRACTIONAL(pitch)
 443              		.loc 4 42 3 is_stmt 1 view .LVU127
 444              	.LBE115:
 445              	.LBE122:
 446              	.LBE133:
 447              	.LBE146:
  96:eurorack/plaits/dsp/engine/wavetable_engine.cc ****   ONE_POLE(y_pre_lp_, parameters.morph * 6.9999f, 0.2f);
 448              		.loc 1 96 3 is_stmt 0 view .LVU128
 449 004e 94ED059A 		vldr.32	s18, [r4, #20]
  97:eurorack/plaits/dsp/engine/wavetable_engine.cc ****   ONE_POLE(z_pre_lp_, parameters.harmonics * 6.9999f, 0.05f);
 450              		.loc 1 97 3 view .LVU129
 451 0052 D4ED068A 		vldr.32	s17, [r4, #24]
 452 0056 91ED036A 		vldr.32	s12, [r1, #12]
 453              	.LBB147:
 454              	.LBB134:
 455              	.LBB123:
 456              	.LBB116:
  42:eurorack/stmlib/dsp/units.h **** 
ARM GAS  /var/folders/9s/8rp0_f2s1n31qbztm3b5_fdh0000gn/T//ccySFkLz.s 			page 15


 457              		.loc 4 42 3 view .LVU130
 458 005a BDEEE77A 		vcvt.s32.f32	s14, s15
 459              	.LVL34:
  42:eurorack/stmlib/dsp/units.h **** 
 460              		.loc 4 42 3 is_stmt 1 view .LVU131
  44:eurorack/stmlib/dsp/units.h ****       lut_pitch_ratio_low[static_cast<int32_t>(pitch_fractional * 256.0f)];
 461              		.loc 4 44 3 view .LVU132
  44:eurorack/stmlib/dsp/units.h ****       lut_pitch_ratio_low[static_cast<int32_t>(pitch_fractional * 256.0f)];
 462              		.loc 4 44 3 is_stmt 0 view .LVU133
 463              	.LBE116:
 464              	.LBE123:
 465              	.LBE134:
 466              	.LBE147:
 104:eurorack/plaits/dsp/engine/wavetable_engine.cc ****   const float lp_coefficient = min(
 467              		.loc 1 104 55 view .LVU134
 468 005e 8DED0DBA 		vstr.32	s22, [sp, #52]
 469              	.LBB148:
 470              	.LBB135:
 471              	.LBB124:
 472              	.LBB117:
 473              		.loc 4 45 65 view .LVU135
 474 0062 DFEDE09A 		vldr.32	s19, .L47+16
  42:eurorack/stmlib/dsp/units.h **** 
 475              		.loc 4 42 3 view .LVU136
 476 0066 F8EEC76A 		vcvt.f32.s32	s13, s14
  44:eurorack/stmlib/dsp/units.h ****       lut_pitch_ratio_low[static_cast<int32_t>(pitch_fractional * 256.0f)];
 477              		.loc 4 44 45 view .LVU137
 478 006a 17EE100A 		vmov	r0, s14	@ int
 479              	.LVL35:
  44:eurorack/stmlib/dsp/units.h ****       lut_pitch_ratio_low[static_cast<int32_t>(pitch_fractional * 256.0f)];
 480              		.loc 4 44 45 view .LVU138
 481              	.LBE117:
 482              	.LBE124:
 483              	.LBE135:
 484              	.LBE148:
  96:eurorack/plaits/dsp/engine/wavetable_engine.cc ****   ONE_POLE(y_pre_lp_, parameters.morph * 6.9999f, 0.2f);
 485              		.loc 1 96 3 view .LVU139
 486 006e 9FEDDE7A 		vldr.32	s14, .L47+20
 487              	.LBB149:
 488              	.LBB136:
 489              	.LBB125:
 490              	.LBB118:
  42:eurorack/stmlib/dsp/units.h **** 
 491              		.loc 4 42 3 view .LVU140
 492 0072 77EEE67A 		vsub.f32	s15, s15, s13
 493              	.LBE118:
 494              	.LBE125:
 495              	.LBE136:
 496              	.LBE149:
  96:eurorack/plaits/dsp/engine/wavetable_engine.cc ****   ONE_POLE(y_pre_lp_, parameters.morph * 6.9999f, 0.2f);
 497              		.loc 1 96 3 view .LVU141
 498 0076 F0EE496A 		vmov.f32	s13, s18
 499              	.LBB150:
 500              	.LBB137:
 501              	.LBB126:
 502              	.LBB119:
 503              		.loc 4 45 27 view .LVU142
ARM GAS  /var/folders/9s/8rp0_f2s1n31qbztm3b5_fdh0000gn/T//ccySFkLz.s 			page 16


 504 007a FEEECC7A 		vcvt.s32.f32	s15, s15, #8
 505              		.loc 4 45 74 view .LVU143
 506 007e 17EE903A 		vmov	r3, s15	@ int
 507              	.LVL36:
 508              		.loc 4 45 74 view .LVU144
 509 0082 02EB8302 		add	r2, r2, r3, lsl #2
  44:eurorack/stmlib/dsp/units.h ****       lut_pitch_ratio_low[static_cast<int32_t>(pitch_fractional * 256.0f)];
 510              		.loc 4 44 45 view .LVU145
 511 0086 D94B     		ldr	r3, .L47+24
 512 0088 03EB8003 		add	r3, r3, r0, lsl #2
 513              		.loc 4 45 74 view .LVU146
 514 008c D2ED00DA 		vldr.32	s27, [r2]
 515 0090 D3ED007A 		vldr.32	s15, [r3]
 516              	.LBE119:
 517              	.LBE126:
 518              	.LBE137:
 519              	.LBE150:
 104:eurorack/plaits/dsp/engine/wavetable_engine.cc ****   const float lp_coefficient = min(
 520              		.loc 1 104 48 view .LVU147
 521 0094 0023     		movs	r3, #0
 522              	.LBB151:
 523              	.LBB138:
 524              	.LBB127:
 525              	.LBB120:
 526              		.loc 4 45 74 view .LVU148
 527 0096 6DEEA7DA 		vmul.f32	s27, s27, s15
 528              	.LBE120:
 529              	.LBE127:
 530              		.loc 3 42 57 view .LVU149
 531 009a DFEDD57A 		vldr.32	s15, .L47+28
 532              	.LBE138:
 533              	.LBE151:
 104:eurorack/plaits/dsp/engine/wavetable_engine.cc ****   const float lp_coefficient = min(
 534              		.loc 1 104 48 view .LVU150
 535 009e 0C93     		str	r3, [sp, #48]	@ float
 536              	.LBB152:
 537              	.LBB139:
 538              		.loc 3 42 57 view .LVU151
 539 00a0 6DEEA7DA 		vmul.f32	s27, s27, s15
 540              	.LVL37:
 541              		.loc 3 42 57 view .LVU152
 542              	.LBE139:
 543              	.LBE152:
  96:eurorack/plaits/dsp/engine/wavetable_engine.cc ****   ONE_POLE(y_pre_lp_, parameters.morph * 6.9999f, 0.2f);
 544              		.loc 1 96 3 is_stmt 1 view .LVU153
 545 00a4 D1ED027A 		vldr.32	s15, [r1, #8]
 546 00a8 D7EE876A 		vfnms.f32	s13, s15, s14
 547 00ac DFEDD17A 		vldr.32	s15, .L47+32
 548 00b0 A6EEA79A 		vfma.f32	s18, s13, s15
  97:eurorack/plaits/dsp/engine/wavetable_engine.cc ****   ONE_POLE(z_pre_lp_, parameters.harmonics * 6.9999f, 0.05f);
 549              		.loc 1 97 3 is_stmt 0 view .LVU154
 550 00b4 F0EE686A 		vmov.f32	s13, s17
 551 00b8 D6EE076A 		vfnms.f32	s13, s12, s14
  98:eurorack/plaits/dsp/engine/wavetable_engine.cc ****   
 552              		.loc 1 98 3 view .LVU155
 553 00bc 91ED046A 		vldr.32	s12, [r1, #16]
 108:eurorack/plaits/dsp/engine/wavetable_engine.cc ****   MAKE_INTEGRAL_FRACTIONAL(y);
ARM GAS  /var/folders/9s/8rp0_f2s1n31qbztm3b5_fdh0000gn/T//ccySFkLz.s 			page 17


 554              		.loc 1 108 3 view .LVU156
 555 00c0 FDEEC9CA 		vcvt.s32.f32	s25, s18
  96:eurorack/plaits/dsp/engine/wavetable_engine.cc ****   ONE_POLE(y_pre_lp_, parameters.morph * 6.9999f, 0.2f);
 556              		.loc 1 96 3 view .LVU157
 557 00c4 84ED059A 		vstr.32	s18, [r4, #20]
  96:eurorack/plaits/dsp/engine/wavetable_engine.cc ****   ONE_POLE(y_pre_lp_, parameters.morph * 6.9999f, 0.2f);
 558              		.loc 1 96 57 is_stmt 1 view .LVU158
  97:eurorack/plaits/dsp/engine/wavetable_engine.cc ****   ONE_POLE(z_pre_lp_, parameters.harmonics * 6.9999f, 0.05f);
 559              		.loc 1 97 3 view .LVU159
 108:eurorack/plaits/dsp/engine/wavetable_engine.cc ****   MAKE_INTEGRAL_FRACTIONAL(y);
 560              		.loc 1 108 3 is_stmt 0 view .LVU160
 561 00c8 F8EEECCA 		vcvt.f32.s32	s25, s25
  97:eurorack/plaits/dsp/engine/wavetable_engine.cc ****   ONE_POLE(z_pre_lp_, parameters.harmonics * 6.9999f, 0.05f);
 562              		.loc 1 97 3 view .LVU161
 563 00cc E6EEA78A 		vfma.f32	s17, s13, s15
  98:eurorack/plaits/dsp/engine/wavetable_engine.cc ****   
 564              		.loc 1 98 3 view .LVU162
 565 00d0 D4ED077A 		vldr.32	s15, [r4, #28]
 566 00d4 F0EE676A 		vmov.f32	s13, s15
 108:eurorack/plaits/dsp/engine/wavetable_engine.cc ****   MAKE_INTEGRAL_FRACTIONAL(y);
 567              		.loc 1 108 3 view .LVU163
 568 00d8 39EE6C9A 		vsub.f32	s18, s18, s25
  98:eurorack/plaits/dsp/engine/wavetable_engine.cc ****   
 569              		.loc 1 98 3 view .LVU164
 570 00dc D6EE076A 		vfnms.f32	s13, s12, s14
 571 00e0 9FEDC57A 		vldr.32	s14, .L47+36
 104:eurorack/plaits/dsp/engine/wavetable_engine.cc ****   const float lp_coefficient = min(
 572              		.loc 1 104 40 view .LVU165
 573 00e4 B0EE086A 		vmov.f32	s12, #3.0e+0
  97:eurorack/plaits/dsp/engine/wavetable_engine.cc ****   ONE_POLE(z_pre_lp_, parameters.harmonics * 6.9999f, 0.05f);
 574              		.loc 1 97 3 view .LVU166
 575 00e8 C4ED068A 		vstr.32	s17, [r4, #24]
  97:eurorack/plaits/dsp/engine/wavetable_engine.cc ****   ONE_POLE(z_pre_lp_, parameters.harmonics * 6.9999f, 0.05f);
 576              		.loc 1 97 56 is_stmt 1 view .LVU167
  98:eurorack/plaits/dsp/engine/wavetable_engine.cc ****   
 577              		.loc 1 98 3 view .LVU168
 109:eurorack/plaits/dsp/engine/wavetable_engine.cc ****   MAKE_INTEGRAL_FRACTIONAL(z);
 578              		.loc 1 109 3 is_stmt 0 view .LVU169
 579 00ec FDEEE8AA 		vcvt.s32.f32	s21, s17
 580              		.loc 1 112 40 view .LVU170
 581 00f0 B0EE490A 		vmov.f32	s0, s18
 109:eurorack/plaits/dsp/engine/wavetable_engine.cc ****   MAKE_INTEGRAL_FRACTIONAL(z);
 582              		.loc 1 109 3 view .LVU171
 583 00f4 F8EEEAAA 		vcvt.f32.s32	s21, s21
  98:eurorack/plaits/dsp/engine/wavetable_engine.cc ****   
 584              		.loc 1 98 3 view .LVU172
 585 00f8 E6EE877A 		vfma.f32	s15, s13, s14
 109:eurorack/plaits/dsp/engine/wavetable_engine.cc ****   MAKE_INTEGRAL_FRACTIONAL(z);
 586              		.loc 1 109 3 view .LVU173
 587 00fc 78EEEA8A 		vsub.f32	s17, s17, s21
 104:eurorack/plaits/dsp/engine/wavetable_engine.cc ****   const float lp_coefficient = min(
 588              		.loc 1 104 40 view .LVU174
 589 0100 37EEC67A 		vsub.f32	s14, s15, s12
  98:eurorack/plaits/dsp/engine/wavetable_engine.cc ****   
 590              		.loc 1 98 3 view .LVU175
 591 0104 C4ED077A 		vstr.32	s15, [r4, #28]
  98:eurorack/plaits/dsp/engine/wavetable_engine.cc ****   
ARM GAS  /var/folders/9s/8rp0_f2s1n31qbztm3b5_fdh0000gn/T//ccySFkLz.s 			page 18


 592              		.loc 1 98 61 is_stmt 1 view .LVU176
 100:eurorack/plaits/dsp/engine/wavetable_engine.cc ****   const float y = y_pre_lp_;
 593              		.loc 1 100 3 view .LVU177
 101:eurorack/plaits/dsp/engine/wavetable_engine.cc ****   const float z = z_pre_lp_;
 594              		.loc 1 101 3 view .LVU178
 102:eurorack/plaits/dsp/engine/wavetable_engine.cc ****   
 595              		.loc 1 102 3 view .LVU179
 596              	.LVL38:
 104:eurorack/plaits/dsp/engine/wavetable_engine.cc ****   const float lp_coefficient = min(
 597              		.loc 1 104 3 view .LVU180
 598              	.LBB153:
 599              	.LBI153:
 600              		.file 5 "/Library/DaisyToolchain/0.2.0/arm/arm-none-eabi/include/c++/10.3.1/bits/stl_algobase.h"
   1:/Library/DaisyToolchain/0.2.0/arm/arm-none-eabi/include/c++/10.3.1/bits/stl_algobase.h **** // Core algorithmic facilities -*- C++ -*-
   2:/Library/DaisyToolchain/0.2.0/arm/arm-none-eabi/include/c++/10.3.1/bits/stl_algobase.h **** 
   3:/Library/DaisyToolchain/0.2.0/arm/arm-none-eabi/include/c++/10.3.1/bits/stl_algobase.h **** // Copyright (C) 2001-2020 Free Software Foundation, Inc.
   4:/Library/DaisyToolchain/0.2.0/arm/arm-none-eabi/include/c++/10.3.1/bits/stl_algobase.h **** //
   5:/Library/DaisyToolchain/0.2.0/arm/arm-none-eabi/include/c++/10.3.1/bits/stl_algobase.h **** // This file is part of the GNU ISO C++ Library.  This library is free
   6:/Library/DaisyToolchain/0.2.0/arm/arm-none-eabi/include/c++/10.3.1/bits/stl_algobase.h **** // software; you can redistribute it and/or modify it under the
   7:/Library/DaisyToolchain/0.2.0/arm/arm-none-eabi/include/c++/10.3.1/bits/stl_algobase.h **** // terms of the GNU General Public License as published by the
   8:/Library/DaisyToolchain/0.2.0/arm/arm-none-eabi/include/c++/10.3.1/bits/stl_algobase.h **** // Free Software Foundation; either version 3, or (at your option)
   9:/Library/DaisyToolchain/0.2.0/arm/arm-none-eabi/include/c++/10.3.1/bits/stl_algobase.h **** // any later version.
  10:/Library/DaisyToolchain/0.2.0/arm/arm-none-eabi/include/c++/10.3.1/bits/stl_algobase.h **** 
  11:/Library/DaisyToolchain/0.2.0/arm/arm-none-eabi/include/c++/10.3.1/bits/stl_algobase.h **** // This library is distributed in the hope that it will be useful,
  12:/Library/DaisyToolchain/0.2.0/arm/arm-none-eabi/include/c++/10.3.1/bits/stl_algobase.h **** // but WITHOUT ANY WARRANTY; without even the implied warranty of
  13:/Library/DaisyToolchain/0.2.0/arm/arm-none-eabi/include/c++/10.3.1/bits/stl_algobase.h **** // MERCHANTABILITY or FITNESS FOR A PARTICULAR PURPOSE.  See the
  14:/Library/DaisyToolchain/0.2.0/arm/arm-none-eabi/include/c++/10.3.1/bits/stl_algobase.h **** // GNU General Public License for more details.
  15:/Library/DaisyToolchain/0.2.0/arm/arm-none-eabi/include/c++/10.3.1/bits/stl_algobase.h **** 
  16:/Library/DaisyToolchain/0.2.0/arm/arm-none-eabi/include/c++/10.3.1/bits/stl_algobase.h **** // Under Section 7 of GPL version 3, you are granted additional
  17:/Library/DaisyToolchain/0.2.0/arm/arm-none-eabi/include/c++/10.3.1/bits/stl_algobase.h **** // permissions described in the GCC Runtime Library Exception, version
  18:/Library/DaisyToolchain/0.2.0/arm/arm-none-eabi/include/c++/10.3.1/bits/stl_algobase.h **** // 3.1, as published by the Free Software Foundation.
  19:/Library/DaisyToolchain/0.2.0/arm/arm-none-eabi/include/c++/10.3.1/bits/stl_algobase.h **** 
  20:/Library/DaisyToolchain/0.2.0/arm/arm-none-eabi/include/c++/10.3.1/bits/stl_algobase.h **** // You should have received a copy of the GNU General Public License and
  21:/Library/DaisyToolchain/0.2.0/arm/arm-none-eabi/include/c++/10.3.1/bits/stl_algobase.h **** // a copy of the GCC Runtime Library Exception along with this program;
  22:/Library/DaisyToolchain/0.2.0/arm/arm-none-eabi/include/c++/10.3.1/bits/stl_algobase.h **** // see the files COPYING3 and COPYING.RUNTIME respectively.  If not, see
  23:/Library/DaisyToolchain/0.2.0/arm/arm-none-eabi/include/c++/10.3.1/bits/stl_algobase.h **** // <http://www.gnu.org/licenses/>.
  24:/Library/DaisyToolchain/0.2.0/arm/arm-none-eabi/include/c++/10.3.1/bits/stl_algobase.h **** 
  25:/Library/DaisyToolchain/0.2.0/arm/arm-none-eabi/include/c++/10.3.1/bits/stl_algobase.h **** /*
  26:/Library/DaisyToolchain/0.2.0/arm/arm-none-eabi/include/c++/10.3.1/bits/stl_algobase.h ****  *
  27:/Library/DaisyToolchain/0.2.0/arm/arm-none-eabi/include/c++/10.3.1/bits/stl_algobase.h ****  * Copyright (c) 1994
  28:/Library/DaisyToolchain/0.2.0/arm/arm-none-eabi/include/c++/10.3.1/bits/stl_algobase.h ****  * Hewlett-Packard Company
  29:/Library/DaisyToolchain/0.2.0/arm/arm-none-eabi/include/c++/10.3.1/bits/stl_algobase.h ****  *
  30:/Library/DaisyToolchain/0.2.0/arm/arm-none-eabi/include/c++/10.3.1/bits/stl_algobase.h ****  * Permission to use, copy, modify, distribute and sell this software
  31:/Library/DaisyToolchain/0.2.0/arm/arm-none-eabi/include/c++/10.3.1/bits/stl_algobase.h ****  * and its documentation for any purpose is hereby granted without fee,
  32:/Library/DaisyToolchain/0.2.0/arm/arm-none-eabi/include/c++/10.3.1/bits/stl_algobase.h ****  * provided that the above copyright notice appear in all copies and
  33:/Library/DaisyToolchain/0.2.0/arm/arm-none-eabi/include/c++/10.3.1/bits/stl_algobase.h ****  * that both that copyright notice and this permission notice appear
  34:/Library/DaisyToolchain/0.2.0/arm/arm-none-eabi/include/c++/10.3.1/bits/stl_algobase.h ****  * in supporting documentation.  Hewlett-Packard Company makes no
  35:/Library/DaisyToolchain/0.2.0/arm/arm-none-eabi/include/c++/10.3.1/bits/stl_algobase.h ****  * representations about the suitability of this software for any
  36:/Library/DaisyToolchain/0.2.0/arm/arm-none-eabi/include/c++/10.3.1/bits/stl_algobase.h ****  * purpose.  It is provided "as is" without express or implied warranty.
  37:/Library/DaisyToolchain/0.2.0/arm/arm-none-eabi/include/c++/10.3.1/bits/stl_algobase.h ****  *
  38:/Library/DaisyToolchain/0.2.0/arm/arm-none-eabi/include/c++/10.3.1/bits/stl_algobase.h ****  *
  39:/Library/DaisyToolchain/0.2.0/arm/arm-none-eabi/include/c++/10.3.1/bits/stl_algobase.h ****  * Copyright (c) 1996-1998
  40:/Library/DaisyToolchain/0.2.0/arm/arm-none-eabi/include/c++/10.3.1/bits/stl_algobase.h ****  * Silicon Graphics Computer Systems, Inc.
  41:/Library/DaisyToolchain/0.2.0/arm/arm-none-eabi/include/c++/10.3.1/bits/stl_algobase.h ****  *
  42:/Library/DaisyToolchain/0.2.0/arm/arm-none-eabi/include/c++/10.3.1/bits/stl_algobase.h ****  * Permission to use, copy, modify, distribute and sell this software
  43:/Library/DaisyToolchain/0.2.0/arm/arm-none-eabi/include/c++/10.3.1/bits/stl_algobase.h ****  * and its documentation for any purpose is hereby granted without fee,
  44:/Library/DaisyToolchain/0.2.0/arm/arm-none-eabi/include/c++/10.3.1/bits/stl_algobase.h ****  * provided that the above copyright notice appear in all copies and
ARM GAS  /var/folders/9s/8rp0_f2s1n31qbztm3b5_fdh0000gn/T//ccySFkLz.s 			page 19


  45:/Library/DaisyToolchain/0.2.0/arm/arm-none-eabi/include/c++/10.3.1/bits/stl_algobase.h ****  * that both that copyright notice and this permission notice appear
  46:/Library/DaisyToolchain/0.2.0/arm/arm-none-eabi/include/c++/10.3.1/bits/stl_algobase.h ****  * in supporting documentation.  Silicon Graphics makes no
  47:/Library/DaisyToolchain/0.2.0/arm/arm-none-eabi/include/c++/10.3.1/bits/stl_algobase.h ****  * representations about the suitability of this software for any
  48:/Library/DaisyToolchain/0.2.0/arm/arm-none-eabi/include/c++/10.3.1/bits/stl_algobase.h ****  * purpose.  It is provided "as is" without express or implied warranty.
  49:/Library/DaisyToolchain/0.2.0/arm/arm-none-eabi/include/c++/10.3.1/bits/stl_algobase.h ****  */
  50:/Library/DaisyToolchain/0.2.0/arm/arm-none-eabi/include/c++/10.3.1/bits/stl_algobase.h **** 
  51:/Library/DaisyToolchain/0.2.0/arm/arm-none-eabi/include/c++/10.3.1/bits/stl_algobase.h **** /** @file bits/stl_algobase.h
  52:/Library/DaisyToolchain/0.2.0/arm/arm-none-eabi/include/c++/10.3.1/bits/stl_algobase.h ****  *  This is an internal header file, included by other library headers.
  53:/Library/DaisyToolchain/0.2.0/arm/arm-none-eabi/include/c++/10.3.1/bits/stl_algobase.h ****  *  Do not attempt to use it directly. @headername{algorithm}
  54:/Library/DaisyToolchain/0.2.0/arm/arm-none-eabi/include/c++/10.3.1/bits/stl_algobase.h ****  */
  55:/Library/DaisyToolchain/0.2.0/arm/arm-none-eabi/include/c++/10.3.1/bits/stl_algobase.h **** 
  56:/Library/DaisyToolchain/0.2.0/arm/arm-none-eabi/include/c++/10.3.1/bits/stl_algobase.h **** #ifndef _STL_ALGOBASE_H
  57:/Library/DaisyToolchain/0.2.0/arm/arm-none-eabi/include/c++/10.3.1/bits/stl_algobase.h **** #define _STL_ALGOBASE_H 1
  58:/Library/DaisyToolchain/0.2.0/arm/arm-none-eabi/include/c++/10.3.1/bits/stl_algobase.h **** 
  59:/Library/DaisyToolchain/0.2.0/arm/arm-none-eabi/include/c++/10.3.1/bits/stl_algobase.h **** #include <bits/c++config.h>
  60:/Library/DaisyToolchain/0.2.0/arm/arm-none-eabi/include/c++/10.3.1/bits/stl_algobase.h **** #include <bits/functexcept.h>
  61:/Library/DaisyToolchain/0.2.0/arm/arm-none-eabi/include/c++/10.3.1/bits/stl_algobase.h **** #include <bits/cpp_type_traits.h>
  62:/Library/DaisyToolchain/0.2.0/arm/arm-none-eabi/include/c++/10.3.1/bits/stl_algobase.h **** #include <ext/type_traits.h>
  63:/Library/DaisyToolchain/0.2.0/arm/arm-none-eabi/include/c++/10.3.1/bits/stl_algobase.h **** #include <ext/numeric_traits.h>
  64:/Library/DaisyToolchain/0.2.0/arm/arm-none-eabi/include/c++/10.3.1/bits/stl_algobase.h **** #include <bits/stl_pair.h>
  65:/Library/DaisyToolchain/0.2.0/arm/arm-none-eabi/include/c++/10.3.1/bits/stl_algobase.h **** #include <bits/stl_iterator_base_types.h>
  66:/Library/DaisyToolchain/0.2.0/arm/arm-none-eabi/include/c++/10.3.1/bits/stl_algobase.h **** #include <bits/stl_iterator_base_funcs.h>
  67:/Library/DaisyToolchain/0.2.0/arm/arm-none-eabi/include/c++/10.3.1/bits/stl_algobase.h **** #include <bits/stl_iterator.h>
  68:/Library/DaisyToolchain/0.2.0/arm/arm-none-eabi/include/c++/10.3.1/bits/stl_algobase.h **** #include <bits/concept_check.h>
  69:/Library/DaisyToolchain/0.2.0/arm/arm-none-eabi/include/c++/10.3.1/bits/stl_algobase.h **** #include <debug/debug.h>
  70:/Library/DaisyToolchain/0.2.0/arm/arm-none-eabi/include/c++/10.3.1/bits/stl_algobase.h **** #include <bits/move.h> // For std::swap
  71:/Library/DaisyToolchain/0.2.0/arm/arm-none-eabi/include/c++/10.3.1/bits/stl_algobase.h **** #include <bits/predefined_ops.h>
  72:/Library/DaisyToolchain/0.2.0/arm/arm-none-eabi/include/c++/10.3.1/bits/stl_algobase.h **** #if __cplusplus >= 201103L
  73:/Library/DaisyToolchain/0.2.0/arm/arm-none-eabi/include/c++/10.3.1/bits/stl_algobase.h **** # include <type_traits>
  74:/Library/DaisyToolchain/0.2.0/arm/arm-none-eabi/include/c++/10.3.1/bits/stl_algobase.h **** #endif
  75:/Library/DaisyToolchain/0.2.0/arm/arm-none-eabi/include/c++/10.3.1/bits/stl_algobase.h **** #if __cplusplus > 201703L
  76:/Library/DaisyToolchain/0.2.0/arm/arm-none-eabi/include/c++/10.3.1/bits/stl_algobase.h **** # include <compare>
  77:/Library/DaisyToolchain/0.2.0/arm/arm-none-eabi/include/c++/10.3.1/bits/stl_algobase.h **** #endif
  78:/Library/DaisyToolchain/0.2.0/arm/arm-none-eabi/include/c++/10.3.1/bits/stl_algobase.h **** 
  79:/Library/DaisyToolchain/0.2.0/arm/arm-none-eabi/include/c++/10.3.1/bits/stl_algobase.h **** namespace std _GLIBCXX_VISIBILITY(default)
  80:/Library/DaisyToolchain/0.2.0/arm/arm-none-eabi/include/c++/10.3.1/bits/stl_algobase.h **** {
  81:/Library/DaisyToolchain/0.2.0/arm/arm-none-eabi/include/c++/10.3.1/bits/stl_algobase.h **** _GLIBCXX_BEGIN_NAMESPACE_VERSION
  82:/Library/DaisyToolchain/0.2.0/arm/arm-none-eabi/include/c++/10.3.1/bits/stl_algobase.h **** 
  83:/Library/DaisyToolchain/0.2.0/arm/arm-none-eabi/include/c++/10.3.1/bits/stl_algobase.h ****   /*
  84:/Library/DaisyToolchain/0.2.0/arm/arm-none-eabi/include/c++/10.3.1/bits/stl_algobase.h ****    * A constexpr wrapper for __builtin_memcmp.
  85:/Library/DaisyToolchain/0.2.0/arm/arm-none-eabi/include/c++/10.3.1/bits/stl_algobase.h ****    * @param __num The number of elements of type _Tp (not bytes).
  86:/Library/DaisyToolchain/0.2.0/arm/arm-none-eabi/include/c++/10.3.1/bits/stl_algobase.h ****    */
  87:/Library/DaisyToolchain/0.2.0/arm/arm-none-eabi/include/c++/10.3.1/bits/stl_algobase.h ****   template<typename _Tp, typename _Up>
  88:/Library/DaisyToolchain/0.2.0/arm/arm-none-eabi/include/c++/10.3.1/bits/stl_algobase.h ****     _GLIBCXX14_CONSTEXPR
  89:/Library/DaisyToolchain/0.2.0/arm/arm-none-eabi/include/c++/10.3.1/bits/stl_algobase.h ****     inline int
  90:/Library/DaisyToolchain/0.2.0/arm/arm-none-eabi/include/c++/10.3.1/bits/stl_algobase.h ****     __memcmp(const _Tp* __first1, const _Up* __first2, size_t __num)
  91:/Library/DaisyToolchain/0.2.0/arm/arm-none-eabi/include/c++/10.3.1/bits/stl_algobase.h ****     {
  92:/Library/DaisyToolchain/0.2.0/arm/arm-none-eabi/include/c++/10.3.1/bits/stl_algobase.h **** #if __cplusplus >= 201103L
  93:/Library/DaisyToolchain/0.2.0/arm/arm-none-eabi/include/c++/10.3.1/bits/stl_algobase.h ****       static_assert(sizeof(_Tp) == sizeof(_Up), "can be compared with memcmp");
  94:/Library/DaisyToolchain/0.2.0/arm/arm-none-eabi/include/c++/10.3.1/bits/stl_algobase.h **** #endif
  95:/Library/DaisyToolchain/0.2.0/arm/arm-none-eabi/include/c++/10.3.1/bits/stl_algobase.h **** #ifdef __cpp_lib_is_constant_evaluated
  96:/Library/DaisyToolchain/0.2.0/arm/arm-none-eabi/include/c++/10.3.1/bits/stl_algobase.h ****       if (std::is_constant_evaluated())
  97:/Library/DaisyToolchain/0.2.0/arm/arm-none-eabi/include/c++/10.3.1/bits/stl_algobase.h **** 	{
  98:/Library/DaisyToolchain/0.2.0/arm/arm-none-eabi/include/c++/10.3.1/bits/stl_algobase.h **** 	  for(; __num > 0; ++__first1, ++__first2, --__num)
  99:/Library/DaisyToolchain/0.2.0/arm/arm-none-eabi/include/c++/10.3.1/bits/stl_algobase.h **** 	    if (*__first1 != *__first2)
 100:/Library/DaisyToolchain/0.2.0/arm/arm-none-eabi/include/c++/10.3.1/bits/stl_algobase.h **** 	      return *__first1 < *__first2 ? -1 : 1;
 101:/Library/DaisyToolchain/0.2.0/arm/arm-none-eabi/include/c++/10.3.1/bits/stl_algobase.h **** 	  return 0;
ARM GAS  /var/folders/9s/8rp0_f2s1n31qbztm3b5_fdh0000gn/T//ccySFkLz.s 			page 20


 102:/Library/DaisyToolchain/0.2.0/arm/arm-none-eabi/include/c++/10.3.1/bits/stl_algobase.h **** 	}
 103:/Library/DaisyToolchain/0.2.0/arm/arm-none-eabi/include/c++/10.3.1/bits/stl_algobase.h ****       else
 104:/Library/DaisyToolchain/0.2.0/arm/arm-none-eabi/include/c++/10.3.1/bits/stl_algobase.h **** #endif
 105:/Library/DaisyToolchain/0.2.0/arm/arm-none-eabi/include/c++/10.3.1/bits/stl_algobase.h **** 	return __builtin_memcmp(__first1, __first2, sizeof(_Tp) * __num);
 106:/Library/DaisyToolchain/0.2.0/arm/arm-none-eabi/include/c++/10.3.1/bits/stl_algobase.h ****     }
 107:/Library/DaisyToolchain/0.2.0/arm/arm-none-eabi/include/c++/10.3.1/bits/stl_algobase.h **** 
 108:/Library/DaisyToolchain/0.2.0/arm/arm-none-eabi/include/c++/10.3.1/bits/stl_algobase.h **** #if __cplusplus < 201103L
 109:/Library/DaisyToolchain/0.2.0/arm/arm-none-eabi/include/c++/10.3.1/bits/stl_algobase.h ****   // See http://gcc.gnu.org/ml/libstdc++/2004-08/msg00167.html: in a
 110:/Library/DaisyToolchain/0.2.0/arm/arm-none-eabi/include/c++/10.3.1/bits/stl_algobase.h ****   // nutshell, we are partially implementing the resolution of DR 187,
 111:/Library/DaisyToolchain/0.2.0/arm/arm-none-eabi/include/c++/10.3.1/bits/stl_algobase.h ****   // when it's safe, i.e., the value_types are equal.
 112:/Library/DaisyToolchain/0.2.0/arm/arm-none-eabi/include/c++/10.3.1/bits/stl_algobase.h ****   template<bool _BoolType>
 113:/Library/DaisyToolchain/0.2.0/arm/arm-none-eabi/include/c++/10.3.1/bits/stl_algobase.h ****     struct __iter_swap
 114:/Library/DaisyToolchain/0.2.0/arm/arm-none-eabi/include/c++/10.3.1/bits/stl_algobase.h ****     {
 115:/Library/DaisyToolchain/0.2.0/arm/arm-none-eabi/include/c++/10.3.1/bits/stl_algobase.h ****       template<typename _ForwardIterator1, typename _ForwardIterator2>
 116:/Library/DaisyToolchain/0.2.0/arm/arm-none-eabi/include/c++/10.3.1/bits/stl_algobase.h **** 	static void
 117:/Library/DaisyToolchain/0.2.0/arm/arm-none-eabi/include/c++/10.3.1/bits/stl_algobase.h **** 	iter_swap(_ForwardIterator1 __a, _ForwardIterator2 __b)
 118:/Library/DaisyToolchain/0.2.0/arm/arm-none-eabi/include/c++/10.3.1/bits/stl_algobase.h **** 	{
 119:/Library/DaisyToolchain/0.2.0/arm/arm-none-eabi/include/c++/10.3.1/bits/stl_algobase.h **** 	  typedef typename iterator_traits<_ForwardIterator1>::value_type
 120:/Library/DaisyToolchain/0.2.0/arm/arm-none-eabi/include/c++/10.3.1/bits/stl_algobase.h **** 	    _ValueType1;
 121:/Library/DaisyToolchain/0.2.0/arm/arm-none-eabi/include/c++/10.3.1/bits/stl_algobase.h **** 	  _ValueType1 __tmp = *__a;
 122:/Library/DaisyToolchain/0.2.0/arm/arm-none-eabi/include/c++/10.3.1/bits/stl_algobase.h **** 	  *__a = *__b;
 123:/Library/DaisyToolchain/0.2.0/arm/arm-none-eabi/include/c++/10.3.1/bits/stl_algobase.h **** 	  *__b = __tmp;
 124:/Library/DaisyToolchain/0.2.0/arm/arm-none-eabi/include/c++/10.3.1/bits/stl_algobase.h **** 	}
 125:/Library/DaisyToolchain/0.2.0/arm/arm-none-eabi/include/c++/10.3.1/bits/stl_algobase.h ****     };
 126:/Library/DaisyToolchain/0.2.0/arm/arm-none-eabi/include/c++/10.3.1/bits/stl_algobase.h **** 
 127:/Library/DaisyToolchain/0.2.0/arm/arm-none-eabi/include/c++/10.3.1/bits/stl_algobase.h ****   template<>
 128:/Library/DaisyToolchain/0.2.0/arm/arm-none-eabi/include/c++/10.3.1/bits/stl_algobase.h ****     struct __iter_swap<true>
 129:/Library/DaisyToolchain/0.2.0/arm/arm-none-eabi/include/c++/10.3.1/bits/stl_algobase.h ****     {
 130:/Library/DaisyToolchain/0.2.0/arm/arm-none-eabi/include/c++/10.3.1/bits/stl_algobase.h ****       template<typename _ForwardIterator1, typename _ForwardIterator2>
 131:/Library/DaisyToolchain/0.2.0/arm/arm-none-eabi/include/c++/10.3.1/bits/stl_algobase.h **** 	static void
 132:/Library/DaisyToolchain/0.2.0/arm/arm-none-eabi/include/c++/10.3.1/bits/stl_algobase.h **** 	iter_swap(_ForwardIterator1 __a, _ForwardIterator2 __b)
 133:/Library/DaisyToolchain/0.2.0/arm/arm-none-eabi/include/c++/10.3.1/bits/stl_algobase.h **** 	{
 134:/Library/DaisyToolchain/0.2.0/arm/arm-none-eabi/include/c++/10.3.1/bits/stl_algobase.h **** 	  swap(*__a, *__b);
 135:/Library/DaisyToolchain/0.2.0/arm/arm-none-eabi/include/c++/10.3.1/bits/stl_algobase.h **** 	}
 136:/Library/DaisyToolchain/0.2.0/arm/arm-none-eabi/include/c++/10.3.1/bits/stl_algobase.h ****     };
 137:/Library/DaisyToolchain/0.2.0/arm/arm-none-eabi/include/c++/10.3.1/bits/stl_algobase.h **** #endif // C++03
 138:/Library/DaisyToolchain/0.2.0/arm/arm-none-eabi/include/c++/10.3.1/bits/stl_algobase.h **** 
 139:/Library/DaisyToolchain/0.2.0/arm/arm-none-eabi/include/c++/10.3.1/bits/stl_algobase.h ****   /**
 140:/Library/DaisyToolchain/0.2.0/arm/arm-none-eabi/include/c++/10.3.1/bits/stl_algobase.h ****    *  @brief Swaps the contents of two iterators.
 141:/Library/DaisyToolchain/0.2.0/arm/arm-none-eabi/include/c++/10.3.1/bits/stl_algobase.h ****    *  @ingroup mutating_algorithms
 142:/Library/DaisyToolchain/0.2.0/arm/arm-none-eabi/include/c++/10.3.1/bits/stl_algobase.h ****    *  @param  __a  An iterator.
 143:/Library/DaisyToolchain/0.2.0/arm/arm-none-eabi/include/c++/10.3.1/bits/stl_algobase.h ****    *  @param  __b  Another iterator.
 144:/Library/DaisyToolchain/0.2.0/arm/arm-none-eabi/include/c++/10.3.1/bits/stl_algobase.h ****    *  @return   Nothing.
 145:/Library/DaisyToolchain/0.2.0/arm/arm-none-eabi/include/c++/10.3.1/bits/stl_algobase.h ****    *
 146:/Library/DaisyToolchain/0.2.0/arm/arm-none-eabi/include/c++/10.3.1/bits/stl_algobase.h ****    *  This function swaps the values pointed to by two iterators, not the
 147:/Library/DaisyToolchain/0.2.0/arm/arm-none-eabi/include/c++/10.3.1/bits/stl_algobase.h ****    *  iterators themselves.
 148:/Library/DaisyToolchain/0.2.0/arm/arm-none-eabi/include/c++/10.3.1/bits/stl_algobase.h ****   */
 149:/Library/DaisyToolchain/0.2.0/arm/arm-none-eabi/include/c++/10.3.1/bits/stl_algobase.h ****   template<typename _ForwardIterator1, typename _ForwardIterator2>
 150:/Library/DaisyToolchain/0.2.0/arm/arm-none-eabi/include/c++/10.3.1/bits/stl_algobase.h ****     _GLIBCXX20_CONSTEXPR
 151:/Library/DaisyToolchain/0.2.0/arm/arm-none-eabi/include/c++/10.3.1/bits/stl_algobase.h ****     inline void
 152:/Library/DaisyToolchain/0.2.0/arm/arm-none-eabi/include/c++/10.3.1/bits/stl_algobase.h ****     iter_swap(_ForwardIterator1 __a, _ForwardIterator2 __b)
 153:/Library/DaisyToolchain/0.2.0/arm/arm-none-eabi/include/c++/10.3.1/bits/stl_algobase.h ****     {
 154:/Library/DaisyToolchain/0.2.0/arm/arm-none-eabi/include/c++/10.3.1/bits/stl_algobase.h ****       // concept requirements
 155:/Library/DaisyToolchain/0.2.0/arm/arm-none-eabi/include/c++/10.3.1/bits/stl_algobase.h ****       __glibcxx_function_requires(_Mutable_ForwardIteratorConcept<
 156:/Library/DaisyToolchain/0.2.0/arm/arm-none-eabi/include/c++/10.3.1/bits/stl_algobase.h **** 				  _ForwardIterator1>)
 157:/Library/DaisyToolchain/0.2.0/arm/arm-none-eabi/include/c++/10.3.1/bits/stl_algobase.h ****       __glibcxx_function_requires(_Mutable_ForwardIteratorConcept<
 158:/Library/DaisyToolchain/0.2.0/arm/arm-none-eabi/include/c++/10.3.1/bits/stl_algobase.h **** 				  _ForwardIterator2>)
ARM GAS  /var/folders/9s/8rp0_f2s1n31qbztm3b5_fdh0000gn/T//ccySFkLz.s 			page 21


 159:/Library/DaisyToolchain/0.2.0/arm/arm-none-eabi/include/c++/10.3.1/bits/stl_algobase.h **** 
 160:/Library/DaisyToolchain/0.2.0/arm/arm-none-eabi/include/c++/10.3.1/bits/stl_algobase.h **** #if __cplusplus < 201103L
 161:/Library/DaisyToolchain/0.2.0/arm/arm-none-eabi/include/c++/10.3.1/bits/stl_algobase.h ****       typedef typename iterator_traits<_ForwardIterator1>::value_type
 162:/Library/DaisyToolchain/0.2.0/arm/arm-none-eabi/include/c++/10.3.1/bits/stl_algobase.h **** 	_ValueType1;
 163:/Library/DaisyToolchain/0.2.0/arm/arm-none-eabi/include/c++/10.3.1/bits/stl_algobase.h ****       typedef typename iterator_traits<_ForwardIterator2>::value_type
 164:/Library/DaisyToolchain/0.2.0/arm/arm-none-eabi/include/c++/10.3.1/bits/stl_algobase.h **** 	_ValueType2;
 165:/Library/DaisyToolchain/0.2.0/arm/arm-none-eabi/include/c++/10.3.1/bits/stl_algobase.h **** 
 166:/Library/DaisyToolchain/0.2.0/arm/arm-none-eabi/include/c++/10.3.1/bits/stl_algobase.h ****       __glibcxx_function_requires(_ConvertibleConcept<_ValueType1,
 167:/Library/DaisyToolchain/0.2.0/arm/arm-none-eabi/include/c++/10.3.1/bits/stl_algobase.h **** 				  _ValueType2>)
 168:/Library/DaisyToolchain/0.2.0/arm/arm-none-eabi/include/c++/10.3.1/bits/stl_algobase.h ****       __glibcxx_function_requires(_ConvertibleConcept<_ValueType2,
 169:/Library/DaisyToolchain/0.2.0/arm/arm-none-eabi/include/c++/10.3.1/bits/stl_algobase.h **** 				  _ValueType1>)
 170:/Library/DaisyToolchain/0.2.0/arm/arm-none-eabi/include/c++/10.3.1/bits/stl_algobase.h **** 
 171:/Library/DaisyToolchain/0.2.0/arm/arm-none-eabi/include/c++/10.3.1/bits/stl_algobase.h ****       typedef typename iterator_traits<_ForwardIterator1>::reference
 172:/Library/DaisyToolchain/0.2.0/arm/arm-none-eabi/include/c++/10.3.1/bits/stl_algobase.h **** 	_ReferenceType1;
 173:/Library/DaisyToolchain/0.2.0/arm/arm-none-eabi/include/c++/10.3.1/bits/stl_algobase.h ****       typedef typename iterator_traits<_ForwardIterator2>::reference
 174:/Library/DaisyToolchain/0.2.0/arm/arm-none-eabi/include/c++/10.3.1/bits/stl_algobase.h **** 	_ReferenceType2;
 175:/Library/DaisyToolchain/0.2.0/arm/arm-none-eabi/include/c++/10.3.1/bits/stl_algobase.h ****       std::__iter_swap<__are_same<_ValueType1, _ValueType2>::__value
 176:/Library/DaisyToolchain/0.2.0/arm/arm-none-eabi/include/c++/10.3.1/bits/stl_algobase.h **** 	&& __are_same<_ValueType1&, _ReferenceType1>::__value
 177:/Library/DaisyToolchain/0.2.0/arm/arm-none-eabi/include/c++/10.3.1/bits/stl_algobase.h **** 	&& __are_same<_ValueType2&, _ReferenceType2>::__value>::
 178:/Library/DaisyToolchain/0.2.0/arm/arm-none-eabi/include/c++/10.3.1/bits/stl_algobase.h **** 	iter_swap(__a, __b);
 179:/Library/DaisyToolchain/0.2.0/arm/arm-none-eabi/include/c++/10.3.1/bits/stl_algobase.h **** #else
 180:/Library/DaisyToolchain/0.2.0/arm/arm-none-eabi/include/c++/10.3.1/bits/stl_algobase.h ****       // _GLIBCXX_RESOLVE_LIB_DEFECTS
 181:/Library/DaisyToolchain/0.2.0/arm/arm-none-eabi/include/c++/10.3.1/bits/stl_algobase.h ****       // 187. iter_swap underspecified
 182:/Library/DaisyToolchain/0.2.0/arm/arm-none-eabi/include/c++/10.3.1/bits/stl_algobase.h ****       swap(*__a, *__b);
 183:/Library/DaisyToolchain/0.2.0/arm/arm-none-eabi/include/c++/10.3.1/bits/stl_algobase.h **** #endif
 184:/Library/DaisyToolchain/0.2.0/arm/arm-none-eabi/include/c++/10.3.1/bits/stl_algobase.h ****     }
 185:/Library/DaisyToolchain/0.2.0/arm/arm-none-eabi/include/c++/10.3.1/bits/stl_algobase.h **** 
 186:/Library/DaisyToolchain/0.2.0/arm/arm-none-eabi/include/c++/10.3.1/bits/stl_algobase.h ****   /**
 187:/Library/DaisyToolchain/0.2.0/arm/arm-none-eabi/include/c++/10.3.1/bits/stl_algobase.h ****    *  @brief Swap the elements of two sequences.
 188:/Library/DaisyToolchain/0.2.0/arm/arm-none-eabi/include/c++/10.3.1/bits/stl_algobase.h ****    *  @ingroup mutating_algorithms
 189:/Library/DaisyToolchain/0.2.0/arm/arm-none-eabi/include/c++/10.3.1/bits/stl_algobase.h ****    *  @param  __first1  A forward iterator.
 190:/Library/DaisyToolchain/0.2.0/arm/arm-none-eabi/include/c++/10.3.1/bits/stl_algobase.h ****    *  @param  __last1   A forward iterator.
 191:/Library/DaisyToolchain/0.2.0/arm/arm-none-eabi/include/c++/10.3.1/bits/stl_algobase.h ****    *  @param  __first2  A forward iterator.
 192:/Library/DaisyToolchain/0.2.0/arm/arm-none-eabi/include/c++/10.3.1/bits/stl_algobase.h ****    *  @return   An iterator equal to @p first2+(last1-first1).
 193:/Library/DaisyToolchain/0.2.0/arm/arm-none-eabi/include/c++/10.3.1/bits/stl_algobase.h ****    *
 194:/Library/DaisyToolchain/0.2.0/arm/arm-none-eabi/include/c++/10.3.1/bits/stl_algobase.h ****    *  Swaps each element in the range @p [first1,last1) with the
 195:/Library/DaisyToolchain/0.2.0/arm/arm-none-eabi/include/c++/10.3.1/bits/stl_algobase.h ****    *  corresponding element in the range @p [first2,(last1-first1)).
 196:/Library/DaisyToolchain/0.2.0/arm/arm-none-eabi/include/c++/10.3.1/bits/stl_algobase.h ****    *  The ranges must not overlap.
 197:/Library/DaisyToolchain/0.2.0/arm/arm-none-eabi/include/c++/10.3.1/bits/stl_algobase.h ****   */
 198:/Library/DaisyToolchain/0.2.0/arm/arm-none-eabi/include/c++/10.3.1/bits/stl_algobase.h ****   template<typename _ForwardIterator1, typename _ForwardIterator2>
 199:/Library/DaisyToolchain/0.2.0/arm/arm-none-eabi/include/c++/10.3.1/bits/stl_algobase.h ****     _GLIBCXX20_CONSTEXPR
 200:/Library/DaisyToolchain/0.2.0/arm/arm-none-eabi/include/c++/10.3.1/bits/stl_algobase.h ****     _ForwardIterator2
 201:/Library/DaisyToolchain/0.2.0/arm/arm-none-eabi/include/c++/10.3.1/bits/stl_algobase.h ****     swap_ranges(_ForwardIterator1 __first1, _ForwardIterator1 __last1,
 202:/Library/DaisyToolchain/0.2.0/arm/arm-none-eabi/include/c++/10.3.1/bits/stl_algobase.h **** 		_ForwardIterator2 __first2)
 203:/Library/DaisyToolchain/0.2.0/arm/arm-none-eabi/include/c++/10.3.1/bits/stl_algobase.h ****     {
 204:/Library/DaisyToolchain/0.2.0/arm/arm-none-eabi/include/c++/10.3.1/bits/stl_algobase.h ****       // concept requirements
 205:/Library/DaisyToolchain/0.2.0/arm/arm-none-eabi/include/c++/10.3.1/bits/stl_algobase.h ****       __glibcxx_function_requires(_Mutable_ForwardIteratorConcept<
 206:/Library/DaisyToolchain/0.2.0/arm/arm-none-eabi/include/c++/10.3.1/bits/stl_algobase.h **** 				  _ForwardIterator1>)
 207:/Library/DaisyToolchain/0.2.0/arm/arm-none-eabi/include/c++/10.3.1/bits/stl_algobase.h ****       __glibcxx_function_requires(_Mutable_ForwardIteratorConcept<
 208:/Library/DaisyToolchain/0.2.0/arm/arm-none-eabi/include/c++/10.3.1/bits/stl_algobase.h **** 				  _ForwardIterator2>)
 209:/Library/DaisyToolchain/0.2.0/arm/arm-none-eabi/include/c++/10.3.1/bits/stl_algobase.h ****       __glibcxx_requires_valid_range(__first1, __last1);
 210:/Library/DaisyToolchain/0.2.0/arm/arm-none-eabi/include/c++/10.3.1/bits/stl_algobase.h **** 
 211:/Library/DaisyToolchain/0.2.0/arm/arm-none-eabi/include/c++/10.3.1/bits/stl_algobase.h ****       for (; __first1 != __last1; ++__first1, (void)++__first2)
 212:/Library/DaisyToolchain/0.2.0/arm/arm-none-eabi/include/c++/10.3.1/bits/stl_algobase.h **** 	std::iter_swap(__first1, __first2);
 213:/Library/DaisyToolchain/0.2.0/arm/arm-none-eabi/include/c++/10.3.1/bits/stl_algobase.h ****       return __first2;
 214:/Library/DaisyToolchain/0.2.0/arm/arm-none-eabi/include/c++/10.3.1/bits/stl_algobase.h ****     }
 215:/Library/DaisyToolchain/0.2.0/arm/arm-none-eabi/include/c++/10.3.1/bits/stl_algobase.h **** 
ARM GAS  /var/folders/9s/8rp0_f2s1n31qbztm3b5_fdh0000gn/T//ccySFkLz.s 			page 22


 216:/Library/DaisyToolchain/0.2.0/arm/arm-none-eabi/include/c++/10.3.1/bits/stl_algobase.h ****   /**
 217:/Library/DaisyToolchain/0.2.0/arm/arm-none-eabi/include/c++/10.3.1/bits/stl_algobase.h ****    *  @brief This does what you think it does.
 218:/Library/DaisyToolchain/0.2.0/arm/arm-none-eabi/include/c++/10.3.1/bits/stl_algobase.h ****    *  @ingroup sorting_algorithms
 219:/Library/DaisyToolchain/0.2.0/arm/arm-none-eabi/include/c++/10.3.1/bits/stl_algobase.h ****    *  @param  __a  A thing of arbitrary type.
 220:/Library/DaisyToolchain/0.2.0/arm/arm-none-eabi/include/c++/10.3.1/bits/stl_algobase.h ****    *  @param  __b  Another thing of arbitrary type.
 221:/Library/DaisyToolchain/0.2.0/arm/arm-none-eabi/include/c++/10.3.1/bits/stl_algobase.h ****    *  @return   The lesser of the parameters.
 222:/Library/DaisyToolchain/0.2.0/arm/arm-none-eabi/include/c++/10.3.1/bits/stl_algobase.h ****    *
 223:/Library/DaisyToolchain/0.2.0/arm/arm-none-eabi/include/c++/10.3.1/bits/stl_algobase.h ****    *  This is the simple classic generic implementation.  It will work on
 224:/Library/DaisyToolchain/0.2.0/arm/arm-none-eabi/include/c++/10.3.1/bits/stl_algobase.h ****    *  temporary expressions, since they are only evaluated once, unlike a
 225:/Library/DaisyToolchain/0.2.0/arm/arm-none-eabi/include/c++/10.3.1/bits/stl_algobase.h ****    *  preprocessor macro.
 226:/Library/DaisyToolchain/0.2.0/arm/arm-none-eabi/include/c++/10.3.1/bits/stl_algobase.h ****   */
 227:/Library/DaisyToolchain/0.2.0/arm/arm-none-eabi/include/c++/10.3.1/bits/stl_algobase.h ****   template<typename _Tp>
 228:/Library/DaisyToolchain/0.2.0/arm/arm-none-eabi/include/c++/10.3.1/bits/stl_algobase.h ****     _GLIBCXX14_CONSTEXPR
 229:/Library/DaisyToolchain/0.2.0/arm/arm-none-eabi/include/c++/10.3.1/bits/stl_algobase.h ****     inline const _Tp&
 230:/Library/DaisyToolchain/0.2.0/arm/arm-none-eabi/include/c++/10.3.1/bits/stl_algobase.h ****     min(const _Tp& __a, const _Tp& __b)
 231:/Library/DaisyToolchain/0.2.0/arm/arm-none-eabi/include/c++/10.3.1/bits/stl_algobase.h ****     {
 232:/Library/DaisyToolchain/0.2.0/arm/arm-none-eabi/include/c++/10.3.1/bits/stl_algobase.h ****       // concept requirements
 233:/Library/DaisyToolchain/0.2.0/arm/arm-none-eabi/include/c++/10.3.1/bits/stl_algobase.h ****       __glibcxx_function_requires(_LessThanComparableConcept<_Tp>)
 234:/Library/DaisyToolchain/0.2.0/arm/arm-none-eabi/include/c++/10.3.1/bits/stl_algobase.h ****       //return __b < __a ? __b : __a;
 235:/Library/DaisyToolchain/0.2.0/arm/arm-none-eabi/include/c++/10.3.1/bits/stl_algobase.h ****       if (__b < __a)
 236:/Library/DaisyToolchain/0.2.0/arm/arm-none-eabi/include/c++/10.3.1/bits/stl_algobase.h **** 	return __b;
 237:/Library/DaisyToolchain/0.2.0/arm/arm-none-eabi/include/c++/10.3.1/bits/stl_algobase.h ****       return __a;
 238:/Library/DaisyToolchain/0.2.0/arm/arm-none-eabi/include/c++/10.3.1/bits/stl_algobase.h ****     }
 239:/Library/DaisyToolchain/0.2.0/arm/arm-none-eabi/include/c++/10.3.1/bits/stl_algobase.h **** 
 240:/Library/DaisyToolchain/0.2.0/arm/arm-none-eabi/include/c++/10.3.1/bits/stl_algobase.h ****   /**
 241:/Library/DaisyToolchain/0.2.0/arm/arm-none-eabi/include/c++/10.3.1/bits/stl_algobase.h ****    *  @brief This does what you think it does.
 242:/Library/DaisyToolchain/0.2.0/arm/arm-none-eabi/include/c++/10.3.1/bits/stl_algobase.h ****    *  @ingroup sorting_algorithms
 243:/Library/DaisyToolchain/0.2.0/arm/arm-none-eabi/include/c++/10.3.1/bits/stl_algobase.h ****    *  @param  __a  A thing of arbitrary type.
 244:/Library/DaisyToolchain/0.2.0/arm/arm-none-eabi/include/c++/10.3.1/bits/stl_algobase.h ****    *  @param  __b  Another thing of arbitrary type.
 245:/Library/DaisyToolchain/0.2.0/arm/arm-none-eabi/include/c++/10.3.1/bits/stl_algobase.h ****    *  @return   The greater of the parameters.
 246:/Library/DaisyToolchain/0.2.0/arm/arm-none-eabi/include/c++/10.3.1/bits/stl_algobase.h ****    *
 247:/Library/DaisyToolchain/0.2.0/arm/arm-none-eabi/include/c++/10.3.1/bits/stl_algobase.h ****    *  This is the simple classic generic implementation.  It will work on
 248:/Library/DaisyToolchain/0.2.0/arm/arm-none-eabi/include/c++/10.3.1/bits/stl_algobase.h ****    *  temporary expressions, since they are only evaluated once, unlike a
 249:/Library/DaisyToolchain/0.2.0/arm/arm-none-eabi/include/c++/10.3.1/bits/stl_algobase.h ****    *  preprocessor macro.
 250:/Library/DaisyToolchain/0.2.0/arm/arm-none-eabi/include/c++/10.3.1/bits/stl_algobase.h ****   */
 251:/Library/DaisyToolchain/0.2.0/arm/arm-none-eabi/include/c++/10.3.1/bits/stl_algobase.h ****   template<typename _Tp>
 252:/Library/DaisyToolchain/0.2.0/arm/arm-none-eabi/include/c++/10.3.1/bits/stl_algobase.h ****     _GLIBCXX14_CONSTEXPR
 253:/Library/DaisyToolchain/0.2.0/arm/arm-none-eabi/include/c++/10.3.1/bits/stl_algobase.h ****     inline const _Tp&
 254:/Library/DaisyToolchain/0.2.0/arm/arm-none-eabi/include/c++/10.3.1/bits/stl_algobase.h ****     max(const _Tp& __a, const _Tp& __b)
 601              		.loc 5 254 5 view .LVU181
 602              	.LBE153:
 110:eurorack/plaits/dsp/engine/wavetable_engine.cc ****   
 603              		.loc 1 110 3 is_stmt 0 view .LVU182
 604 0108 BDEEE7AA 		vcvt.s32.f32	s20, s15
 605              	.LBB157:
 606              	.LBB154:
 255:/Library/DaisyToolchain/0.2.0/arm/arm-none-eabi/include/c++/10.3.1/bits/stl_algobase.h ****     {
 256:/Library/DaisyToolchain/0.2.0/arm/arm-none-eabi/include/c++/10.3.1/bits/stl_algobase.h ****       // concept requirements
 257:/Library/DaisyToolchain/0.2.0/arm/arm-none-eabi/include/c++/10.3.1/bits/stl_algobase.h ****       __glibcxx_function_requires(_LessThanComparableConcept<_Tp>)
 258:/Library/DaisyToolchain/0.2.0/arm/arm-none-eabi/include/c++/10.3.1/bits/stl_algobase.h ****       //return  __a < __b ? __b : __a;
 259:/Library/DaisyToolchain/0.2.0/arm/arm-none-eabi/include/c++/10.3.1/bits/stl_algobase.h ****       if (__a < __b)
 607              		.loc 5 259 7 view .LVU183
 608 010c B5EEC07A 		vcmpe.f32	s14, #0
 609              	.LBE154:
 610              	.LBE157:
 104:eurorack/plaits/dsp/engine/wavetable_engine.cc ****   const float lp_coefficient = min(
 611              		.loc 1 104 40 view .LVU184
ARM GAS  /var/folders/9s/8rp0_f2s1n31qbztm3b5_fdh0000gn/T//ccySFkLz.s 			page 23


 612 0110 8DED0B7A 		vstr.32	s14, [sp, #44]
 110:eurorack/plaits/dsp/engine/wavetable_engine.cc ****   
 613              		.loc 1 110 3 view .LVU185
 614 0114 B8EECAAA 		vcvt.f32.s32	s20, s20
 615              	.LBB158:
 616              	.LBB155:
 617              		.loc 5 259 7 view .LVU186
 618 0118 F1EE10FA 		vmrs	APSR_nzcv, FPSCR
 619              	.LBE155:
 620              	.LBE158:
 110:eurorack/plaits/dsp/engine/wavetable_engine.cc ****   
 621              		.loc 1 110 3 view .LVU187
 622 011c 37EECA8A 		vsub.f32	s16, s15, s20
 623              	.LBB159:
 624              	.LBB156:
 260:/Library/DaisyToolchain/0.2.0/arm/arm-none-eabi/include/c++/10.3.1/bits/stl_algobase.h **** 	return __b;
 625              		.loc 5 260 9 view .LVU188
 626 0120 4CBF     		ite	mi
 627 0122 0CAB     		addmi	r3, sp, #48
 261:/Library/DaisyToolchain/0.2.0/arm/arm-none-eabi/include/c++/10.3.1/bits/stl_algobase.h ****       return __a;
 628              		.loc 5 261 14 view .LVU189
 629 0124 0BAB     		addpl	r3, sp, #44
 630              	.LVL39:
 631              		.loc 5 261 14 view .LVU190
 632              	.LBE156:
 633              	.LBE159:
 634              	.LBB160:
 635              	.LBI160:
 230:/Library/DaisyToolchain/0.2.0/arm/arm-none-eabi/include/c++/10.3.1/bits/stl_algobase.h ****     {
 636              		.loc 5 230 5 is_stmt 1 view .LVU191
 637              	.LBB161:
 235:/Library/DaisyToolchain/0.2.0/arm/arm-none-eabi/include/c++/10.3.1/bits/stl_algobase.h **** 	return __b;
 638              		.loc 5 235 7 is_stmt 0 view .LVU192
 639 0126 93ED007A 		vldr.32	s14, [r3]
 640 012a B4EECB7A 		vcmpe.f32	s14, s22
 641              	.LBE161:
 642              	.LBE160:
 106:eurorack/plaits/dsp/engine/wavetable_engine.cc ****   
 643              		.loc 1 106 29 view .LVU193
 644 012e B1EE007A 		vmov.f32	s14, #4.0e+0
 645              	.LBB163:
 646              	.LBB162:
 235:/Library/DaisyToolchain/0.2.0/arm/arm-none-eabi/include/c++/10.3.1/bits/stl_algobase.h **** 	return __b;
 647              		.loc 5 235 7 view .LVU194
 648 0132 F1EE10FA 		vmrs	APSR_nzcv, FPSCR
 236:/Library/DaisyToolchain/0.2.0/arm/arm-none-eabi/include/c++/10.3.1/bits/stl_algobase.h ****       return __a;
 649              		.loc 5 236 9 view .LVU195
 650 0136 C8BF     		it	gt
 651 0138 0DAB     		addgt	r3, sp, #52
 652              	.LVL40:
 236:/Library/DaisyToolchain/0.2.0/arm/arm-none-eabi/include/c++/10.3.1/bits/stl_algobase.h ****       return __a;
 653              		.loc 5 236 9 view .LVU196
 654              	.LBE162:
 655              	.LBE163:
 104:eurorack/plaits/dsp/engine/wavetable_engine.cc ****   const float lp_coefficient = min(
 656              		.loc 1 104 59 view .LVU197
 657 013a 93ED00CA 		vldr.32	s24, [r3]
ARM GAS  /var/folders/9s/8rp0_f2s1n31qbztm3b5_fdh0000gn/T//ccySFkLz.s 			page 24


 658              	.LVL41:
 105:eurorack/plaits/dsp/engine/wavetable_engine.cc ****       max(2.0f * f0 * (4.0f - 3.0f * quantization), 0.01f), 0.1f);
 659              		.loc 1 105 3 is_stmt 1 view .LVU198
 106:eurorack/plaits/dsp/engine/wavetable_engine.cc ****   
 660              		.loc 1 106 29 is_stmt 0 view .LVU199
 661 013e ACEE467A 		vfms.f32	s14, s24, s12
 662 0142 F0EE476A 		vmov.f32	s13, s14
 106:eurorack/plaits/dsp/engine/wavetable_engine.cc ****   
 663              		.loc 1 106 16 view .LVU200
 664 0146 3DEEAD7A 		vadd.f32	s14, s27, s27
 106:eurorack/plaits/dsp/engine/wavetable_engine.cc ****   
 665              		.loc 1 106 21 view .LVU201
 666 014a 27EE267A 		vmul.f32	s14, s14, s13
 106:eurorack/plaits/dsp/engine/wavetable_engine.cc ****   
 667              		.loc 1 106 53 view .LVU202
 668 014e DFEDAB6A 		vldr.32	s13, .L47+40
 669 0152 CDED0C6A 		vstr.32	s13, [sp, #48]
 670              	.LVL42:
 671              	.LBB164:
 672              	.LBI164:
 254:/Library/DaisyToolchain/0.2.0/arm/arm-none-eabi/include/c++/10.3.1/bits/stl_algobase.h ****     {
 673              		.loc 5 254 5 is_stmt 1 view .LVU203
 674              	.LBB165:
 259:/Library/DaisyToolchain/0.2.0/arm/arm-none-eabi/include/c++/10.3.1/bits/stl_algobase.h **** 	return __b;
 675              		.loc 5 259 7 is_stmt 0 view .LVU204
 676 0156 B4EEE67A 		vcmpe.f32	s14, s13
 677              	.LBE165:
 678              	.LBE164:
 106:eurorack/plaits/dsp/engine/wavetable_engine.cc ****   
 679              		.loc 1 106 21 view .LVU205
 680 015a 8DED0B7A 		vstr.32	s14, [sp, #44]
 106:eurorack/plaits/dsp/engine/wavetable_engine.cc ****   
 681              		.loc 1 106 61 view .LVU206
 682 015e 9FEDA87A 		vldr.32	s14, .L47+44
 683              	.LBB168:
 684              	.LBB166:
 259:/Library/DaisyToolchain/0.2.0/arm/arm-none-eabi/include/c++/10.3.1/bits/stl_algobase.h **** 	return __b;
 685              		.loc 5 259 7 view .LVU207
 686 0162 F1EE10FA 		vmrs	APSR_nzcv, FPSCR
 687              	.LBE166:
 688              	.LBE168:
 106:eurorack/plaits/dsp/engine/wavetable_engine.cc ****   
 689              		.loc 1 106 61 view .LVU208
 690 0166 8DED0D7A 		vstr.32	s14, [sp, #52]
 691              	.LBB169:
 692              	.LBB167:
 260:/Library/DaisyToolchain/0.2.0/arm/arm-none-eabi/include/c++/10.3.1/bits/stl_algobase.h ****       return __a;
 693              		.loc 5 260 9 view .LVU209
 694 016a 4CBF     		ite	mi
 695 016c 0CAB     		addmi	r3, sp, #48
 696              		.loc 5 261 14 view .LVU210
 697 016e 0BAB     		addpl	r3, sp, #44
 698              	.LVL43:
 699              		.loc 5 261 14 view .LVU211
 700              	.LBE167:
 701              	.LBE169:
 702              	.LBB170:
ARM GAS  /var/folders/9s/8rp0_f2s1n31qbztm3b5_fdh0000gn/T//ccySFkLz.s 			page 25


 703              	.LBI170:
 230:/Library/DaisyToolchain/0.2.0/arm/arm-none-eabi/include/c++/10.3.1/bits/stl_algobase.h ****     {
 704              		.loc 5 230 5 is_stmt 1 view .LVU212
 705              	.LBB171:
 235:/Library/DaisyToolchain/0.2.0/arm/arm-none-eabi/include/c++/10.3.1/bits/stl_algobase.h **** 	return __b;
 706              		.loc 5 235 7 is_stmt 0 view .LVU213
 707 0170 D3ED006A 		vldr.32	s13, [r3]
 708 0174 F4EEC76A 		vcmpe.f32	s13, s14
 709 0178 F1EE10FA 		vmrs	APSR_nzcv, FPSCR
 236:/Library/DaisyToolchain/0.2.0/arm/arm-none-eabi/include/c++/10.3.1/bits/stl_algobase.h ****       return __a;
 710              		.loc 5 236 9 view .LVU214
 711 017c C8BF     		it	gt
 712 017e 0DAB     		addgt	r3, sp, #52
 713              	.LVL44:
 236:/Library/DaisyToolchain/0.2.0/arm/arm-none-eabi/include/c++/10.3.1/bits/stl_algobase.h ****       return __a;
 714              		.loc 5 236 9 view .LVU215
 715              	.LBE171:
 716              	.LBE170:
 106:eurorack/plaits/dsp/engine/wavetable_engine.cc ****   
 717              		.loc 1 106 65 view .LVU216
 718 0180 D3ED00BA 		vldr.32	s23, [r3]
 719              	.LVL45:
 108:eurorack/plaits/dsp/engine/wavetable_engine.cc ****   MAKE_INTEGRAL_FRACTIONAL(y);
 720              		.loc 1 108 3 is_stmt 1 view .LVU217
 108:eurorack/plaits/dsp/engine/wavetable_engine.cc ****   MAKE_INTEGRAL_FRACTIONAL(y);
 721              		.loc 1 108 3 view .LVU218
 108:eurorack/plaits/dsp/engine/wavetable_engine.cc ****   MAKE_INTEGRAL_FRACTIONAL(y);
 722              		.loc 1 108 30 view .LVU219
 109:eurorack/plaits/dsp/engine/wavetable_engine.cc ****   MAKE_INTEGRAL_FRACTIONAL(z);
 723              		.loc 1 109 3 view .LVU220
 109:eurorack/plaits/dsp/engine/wavetable_engine.cc ****   MAKE_INTEGRAL_FRACTIONAL(z);
 724              		.loc 1 109 3 view .LVU221
 109:eurorack/plaits/dsp/engine/wavetable_engine.cc ****   MAKE_INTEGRAL_FRACTIONAL(z);
 725              		.loc 1 109 30 view .LVU222
 110:eurorack/plaits/dsp/engine/wavetable_engine.cc ****   
 726              		.loc 1 110 3 view .LVU223
 110:eurorack/plaits/dsp/engine/wavetable_engine.cc ****   
 727              		.loc 1 110 3 view .LVU224
 110:eurorack/plaits/dsp/engine/wavetable_engine.cc ****   
 728              		.loc 1 110 30 view .LVU225
 729              		.loc 1 112 3 view .LVU226
 730              		.loc 1 112 40 is_stmt 0 view .LVU227
 731 0184 FFF7FEFF 		bl	_ZN6plaits5ClampEff
 732              	.LVL46:
 733              		.loc 1 112 62 view .LVU228
 734 0188 30EE490A 		vsub.f32	s0, s0, s18
 113:eurorack/plaits/dsp/engine/wavetable_engine.cc ****   y_fractional += quantization * (Clamp(y_fractional, 16.0f) - y_fractional);
 735              		.loc 1 113 40 view .LVU229
 736 018c F3EE000A 		vmov.f32	s1, #1.6e+1
 112:eurorack/plaits/dsp/engine/wavetable_engine.cc ****   y_fractional += quantization * (Clamp(y_fractional, 16.0f) - y_fractional);
 737              		.loc 1 112 16 view .LVU230
 738 0190 A0EE0C9A 		vfma.f32	s18, s0, s24
 739              	.LVL47:
 740              		.loc 1 113 3 is_stmt 1 view .LVU231
 741              		.loc 1 113 40 is_stmt 0 view .LVU232
 742 0194 B0EE680A 		vmov.f32	s0, s17
 743 0198 FFF7FEFF 		bl	_ZN6plaits5ClampEff
ARM GAS  /var/folders/9s/8rp0_f2s1n31qbztm3b5_fdh0000gn/T//ccySFkLz.s 			page 26


 744              	.LVL48:
 745              		.loc 1 113 62 view .LVU233
 746 019c 30EE680A 		vsub.f32	s0, s0, s17
 114:eurorack/plaits/dsp/engine/wavetable_engine.cc ****   z_fractional += quantization * (Clamp(z_fractional, 16.0f) - z_fractional);
 747              		.loc 1 114 40 view .LVU234
 748 01a0 F3EE000A 		vmov.f32	s1, #1.6e+1
 113:eurorack/plaits/dsp/engine/wavetable_engine.cc ****   y_fractional += quantization * (Clamp(y_fractional, 16.0f) - y_fractional);
 749              		.loc 1 113 16 view .LVU235
 750 01a4 E0EE0C8A 		vfma.f32	s17, s0, s24
 751              	.LVL49:
 752              		.loc 1 114 3 is_stmt 1 view .LVU236
 753              		.loc 1 114 40 is_stmt 0 view .LVU237
 754 01a8 B0EE480A 		vmov.f32	s0, s16
 755 01ac FFF7FEFF 		bl	_ZN6plaits5ClampEff
 756              	.LVL50:
 757              		.loc 1 114 16 view .LVU238
 758 01b0 F0EE487A 		vmov.f32	s15, s16
 759              		.loc 1 114 62 view .LVU239
 760 01b4 30EE480A 		vsub.f32	s0, s0, s16
 761              	.LBB172:
 762              	.LBB173:
 763              	.LBB174:
 764              		.file 6 "eurorack/stmlib/dsp/parameter_interpolator.h"
   1:eurorack/stmlib/dsp/parameter_interpolator.h **** // Copyright 2015 Emilie Gillet.
   2:eurorack/stmlib/dsp/parameter_interpolator.h **** //
   3:eurorack/stmlib/dsp/parameter_interpolator.h **** // Author: Emilie Gillet (emilie.o.gillet@gmail.com)
   4:eurorack/stmlib/dsp/parameter_interpolator.h **** //
   5:eurorack/stmlib/dsp/parameter_interpolator.h **** // Permission is hereby granted, free of charge, to any person obtaining a copy
   6:eurorack/stmlib/dsp/parameter_interpolator.h **** // of this software and associated documentation files (the "Software"), to deal
   7:eurorack/stmlib/dsp/parameter_interpolator.h **** // in the Software without restriction, including without limitation the rights
   8:eurorack/stmlib/dsp/parameter_interpolator.h **** // to use, copy, modify, merge, publish, distribute, sublicense, and/or sell
   9:eurorack/stmlib/dsp/parameter_interpolator.h **** // copies of the Software, and to permit persons to whom the Software is
  10:eurorack/stmlib/dsp/parameter_interpolator.h **** // furnished to do so, subject to the following conditions:
  11:eurorack/stmlib/dsp/parameter_interpolator.h **** // 
  12:eurorack/stmlib/dsp/parameter_interpolator.h **** // The above copyright notice and this permission notice shall be included in
  13:eurorack/stmlib/dsp/parameter_interpolator.h **** // all copies or substantial portions of the Software.
  14:eurorack/stmlib/dsp/parameter_interpolator.h **** // 
  15:eurorack/stmlib/dsp/parameter_interpolator.h **** // THE SOFTWARE IS PROVIDED "AS IS", WITHOUT WARRANTY OF ANY KIND, EXPRESS OR
  16:eurorack/stmlib/dsp/parameter_interpolator.h **** // IMPLIED, INCLUDING BUT NOT LIMITED TO THE WARRANTIES OF MERCHANTABILITY,
  17:eurorack/stmlib/dsp/parameter_interpolator.h **** // FITNESS FOR A PARTICULAR PURPOSE AND NONINFRINGEMENT. IN NO EVENT SHALL THE
  18:eurorack/stmlib/dsp/parameter_interpolator.h **** // AUTHORS OR COPYRIGHT HOLDERS BE LIABLE FOR ANY CLAIM, DAMAGES OR OTHER
  19:eurorack/stmlib/dsp/parameter_interpolator.h **** // LIABILITY, WHETHER IN AN ACTION OF CONTRACT, TORT OR OTHERWISE, ARISING FROM,
  20:eurorack/stmlib/dsp/parameter_interpolator.h **** // OUT OF OR IN CONNECTION WITH THE SOFTWARE OR THE USE OR OTHER DEALINGS IN
  21:eurorack/stmlib/dsp/parameter_interpolator.h **** // THE SOFTWARE.
  22:eurorack/stmlib/dsp/parameter_interpolator.h **** // 
  23:eurorack/stmlib/dsp/parameter_interpolator.h **** // See http://creativecommons.org/licenses/MIT/ for more information.
  24:eurorack/stmlib/dsp/parameter_interpolator.h **** //
  25:eurorack/stmlib/dsp/parameter_interpolator.h **** // -----------------------------------------------------------------------------
  26:eurorack/stmlib/dsp/parameter_interpolator.h **** //
  27:eurorack/stmlib/dsp/parameter_interpolator.h **** // Linear interpolation of parameters in rendering loops.
  28:eurorack/stmlib/dsp/parameter_interpolator.h **** 
  29:eurorack/stmlib/dsp/parameter_interpolator.h **** #ifndef STMLIB_DSP_PARAMETER_INTERPOLATOR_H_
  30:eurorack/stmlib/dsp/parameter_interpolator.h **** #define STMLIB_DSP_PARAMETER_INTERPOLATOR_H_
  31:eurorack/stmlib/dsp/parameter_interpolator.h **** 
  32:eurorack/stmlib/dsp/parameter_interpolator.h **** #include "stmlib/stmlib.h"
  33:eurorack/stmlib/dsp/parameter_interpolator.h **** 
  34:eurorack/stmlib/dsp/parameter_interpolator.h **** namespace stmlib {
ARM GAS  /var/folders/9s/8rp0_f2s1n31qbztm3b5_fdh0000gn/T//ccySFkLz.s 			page 27


  35:eurorack/stmlib/dsp/parameter_interpolator.h **** 
  36:eurorack/stmlib/dsp/parameter_interpolator.h **** class ParameterInterpolator {
  37:eurorack/stmlib/dsp/parameter_interpolator.h ****  public:
  38:eurorack/stmlib/dsp/parameter_interpolator.h ****   ParameterInterpolator() { }
  39:eurorack/stmlib/dsp/parameter_interpolator.h ****   ParameterInterpolator(float* state, float new_value, size_t size) {
  40:eurorack/stmlib/dsp/parameter_interpolator.h ****     Init(state, new_value, size);
  41:eurorack/stmlib/dsp/parameter_interpolator.h ****   }
  42:eurorack/stmlib/dsp/parameter_interpolator.h **** 
  43:eurorack/stmlib/dsp/parameter_interpolator.h ****   ParameterInterpolator(float* state, float new_value, float step) {
  44:eurorack/stmlib/dsp/parameter_interpolator.h ****     state_ = state;
  45:eurorack/stmlib/dsp/parameter_interpolator.h ****     value_ = *state;
  46:eurorack/stmlib/dsp/parameter_interpolator.h ****     increment_ = (new_value - *state) * step;
  47:eurorack/stmlib/dsp/parameter_interpolator.h ****   }
  48:eurorack/stmlib/dsp/parameter_interpolator.h **** 
  49:eurorack/stmlib/dsp/parameter_interpolator.h ****   ~ParameterInterpolator() {
  50:eurorack/stmlib/dsp/parameter_interpolator.h ****     *state_ = value_;
  51:eurorack/stmlib/dsp/parameter_interpolator.h ****   }
  52:eurorack/stmlib/dsp/parameter_interpolator.h ****   
  53:eurorack/stmlib/dsp/parameter_interpolator.h ****   inline void Init(float* state, float new_value, size_t size) {
  54:eurorack/stmlib/dsp/parameter_interpolator.h ****     state_ = state;
  55:eurorack/stmlib/dsp/parameter_interpolator.h ****     value_ = *state;
  56:eurorack/stmlib/dsp/parameter_interpolator.h ****     increment_ = (new_value - *state) / static_cast<float>(size);
 765              		.loc 6 56 39 view .LVU240
 766 01b8 9DED287A 		vldr.32	s14, [sp, #160]	@ int
 767              	.LBE174:
 768              	.LBE173:
 769              	.LBE172:
 770              	.LBB183:
 771              	.LBB184:
 772              	.LBB185:
  55:eurorack/stmlib/dsp/parameter_interpolator.h ****     increment_ = (new_value - *state) / static_cast<float>(size);
 773              		.loc 6 55 14 view .LVU241
 774 01bc D4ED0DEA 		vldr.32	s29, [r4, #52]
 775              	.LBE185:
 776              	.LBE184:
 777              	.LBE183:
 115:eurorack/plaits/dsp/engine/wavetable_engine.cc ****   
 116:eurorack/plaits/dsp/engine/wavetable_engine.cc ****   ParameterInterpolator x_modulation(
 117:eurorack/plaits/dsp/engine/wavetable_engine.cc ****       &previous_x_, static_cast<float>(x_integral) + x_fractional, size);
 778              		.loc 1 117 72 view .LVU242
 779 01c0 3CEE899A 		vadd.f32	s18, s25, s18
 780              	.LVL51:
 781              	.LBB190:
 782              	.LBB179:
 783              	.LBB175:
 784              		.loc 6 56 39 view .LVU243
 785 01c4 B8EE477A 		vcvt.f32.u32	s14, s14
 786              	.LBE175:
 787              	.LBE179:
 788              	.LBE190:
 789              	.LBB191:
 790              	.LBB192:
 791              	.LBB193:
  55:eurorack/stmlib/dsp/parameter_interpolator.h ****     increment_ = (new_value - *state) / static_cast<float>(size);
 792              		.loc 6 55 14 view .LVU244
 793 01c8 94ED0CDA 		vldr.32	s26, [r4, #48]
 794              	.LBE193:
ARM GAS  /var/folders/9s/8rp0_f2s1n31qbztm3b5_fdh0000gn/T//ccySFkLz.s 			page 28


 795              	.LBE192:
 796              	.LBE191:
 114:eurorack/plaits/dsp/engine/wavetable_engine.cc ****   
 797              		.loc 1 114 16 view .LVU245
 798 01cc E0EE0C7A 		vfma.f32	s15, s0, s24
 799              	.LVL52:
 116:eurorack/plaits/dsp/engine/wavetable_engine.cc ****       &previous_x_, static_cast<float>(x_integral) + x_fractional, size);
 800              		.loc 1 116 3 is_stmt 1 view .LVU246
 801              	.LBB200:
 802              	.LBI172:
  39:eurorack/stmlib/dsp/parameter_interpolator.h ****     Init(state, new_value, size);
 803              		.loc 6 39 3 view .LVU247
 804              	.LBE200:
  40:eurorack/stmlib/dsp/parameter_interpolator.h ****   }
 805              		.loc 6 40 5 view .LVU248
 806              	.LBB201:
 807              	.LBB180:
 808              	.LBI173:
  53:eurorack/stmlib/dsp/parameter_interpolator.h ****     state_ = state;
 809              		.loc 6 53 15 view .LVU249
 810              	.LBB176:
  54:eurorack/stmlib/dsp/parameter_interpolator.h ****     value_ = *state;
 811              		.loc 6 54 5 view .LVU250
  55:eurorack/stmlib/dsp/parameter_interpolator.h ****     increment_ = (new_value - *state) / static_cast<float>(size);
 812              		.loc 6 55 5 view .LVU251
 813              	.LBE176:
 814              	.LBE180:
 815              	.LBE201:
 816              	.LBB202:
 817              	.LBB203:
 818              	.LBB204:
  55:eurorack/stmlib/dsp/parameter_interpolator.h ****     increment_ = (new_value - *state) / static_cast<float>(size);
 819              		.loc 6 55 14 is_stmt 0 view .LVU252
 820 01d0 94ED0EFA 		vldr.32	s30, [r4, #56]
 821              	.LBE204:
 822              	.LBE203:
 823              	.LBE202:
 118:eurorack/plaits/dsp/engine/wavetable_engine.cc ****   ParameterInterpolator y_modulation(
 119:eurorack/plaits/dsp/engine/wavetable_engine.cc ****       &previous_y_, static_cast<float>(y_integral) + y_fractional, size);
 824              		.loc 1 119 72 view .LVU253
 825 01d4 7AEEA88A 		vadd.f32	s17, s21, s17
 826              	.LVL53:
 827              	.LBB207:
 828              	.LBB181:
 829              	.LBB177:
  55:eurorack/stmlib/dsp/parameter_interpolator.h ****     increment_ = (new_value - *state) / static_cast<float>(size);
 830              		.loc 6 55 14 view .LVU254
 831 01d8 94ED0BCA 		vldr.32	s24, [r4, #44]
 832              	.LVL54:
 833              		.loc 6 56 5 is_stmt 1 view .LVU255
 834              		.loc 6 56 29 is_stmt 0 view .LVU256
 835 01dc 39EE4C9A 		vsub.f32	s18, s18, s24
 836              	.LBE177:
 837              	.LBE181:
 838              	.LBE207:
 839              	.LBB208:
 840              	.LBB197:
ARM GAS  /var/folders/9s/8rp0_f2s1n31qbztm3b5_fdh0000gn/T//ccySFkLz.s 			page 29


 841              	.LBB194:
 842 01e0 78EECD8A 		vsub.f32	s17, s17, s26
 843              	.LBE194:
 844              	.LBE197:
 845              	.LBE208:
 120:eurorack/plaits/dsp/engine/wavetable_engine.cc ****   ParameterInterpolator z_modulation(
 121:eurorack/plaits/dsp/engine/wavetable_engine.cc ****       &previous_z_, static_cast<float>(z_integral) + z_fractional, size);
 846              		.loc 1 121 72 view .LVU257
 847 01e4 7AEE277A 		vadd.f32	s15, s20, s15
 848              	.LVL55:
 849              	.LBB209:
 850              	.LBB182:
 851              	.LBB178:
 852              		.loc 6 56 39 view .LVU258
 853 01e8 89EE075A 		vdiv.f32	s10, s18, s14
 854              	.LVL56:
 855              		.loc 6 56 39 view .LVU259
 856              	.LBE178:
 857              	.LBE182:
 858              	.LBE209:
 118:eurorack/plaits/dsp/engine/wavetable_engine.cc ****   ParameterInterpolator y_modulation(
 859              		.loc 1 118 3 is_stmt 1 view .LVU260
 860              	.LBB210:
 861              	.LBI191:
  39:eurorack/stmlib/dsp/parameter_interpolator.h ****     Init(state, new_value, size);
 862              		.loc 6 39 3 view .LVU261
 863              	.LBE210:
  40:eurorack/stmlib/dsp/parameter_interpolator.h ****   }
 864              		.loc 6 40 5 view .LVU262
 865              	.LBB211:
 866              	.LBB198:
 867              	.LBI192:
  53:eurorack/stmlib/dsp/parameter_interpolator.h ****     state_ = state;
 868              		.loc 6 53 15 view .LVU263
 869              	.LBB195:
  54:eurorack/stmlib/dsp/parameter_interpolator.h ****     value_ = *state;
 870              		.loc 6 54 5 view .LVU264
  55:eurorack/stmlib/dsp/parameter_interpolator.h ****     increment_ = (new_value - *state) / static_cast<float>(size);
 871              		.loc 6 55 5 view .LVU265
 872              		.loc 6 56 5 view .LVU266
 873              	.LBE195:
 874              	.LBE198:
 875              	.LBE211:
 876              	.LBB212:
 877              	.LBB188:
 878              	.LBB186:
 879              		.loc 6 56 29 is_stmt 0 view .LVU267
 880 01ec 77EEEE7A 		vsub.f32	s15, s15, s29
 881              	.LBE186:
 882              	.LBE188:
 883              	.LBE212:
 884              	.LBB213:
 885              	.LBB199:
 886              	.LBB196:
 887              		.loc 6 56 39 view .LVU268
 888 01f0 88EE87EA 		vdiv.f32	s28, s17, s14
 889              	.LVL57:
ARM GAS  /var/folders/9s/8rp0_f2s1n31qbztm3b5_fdh0000gn/T//ccySFkLz.s 			page 30


 890              		.loc 6 56 39 view .LVU269
 891              	.LBE196:
 892              	.LBE199:
 893              	.LBE213:
 120:eurorack/plaits/dsp/engine/wavetable_engine.cc ****       &previous_z_, static_cast<float>(z_integral) + z_fractional, size);
 894              		.loc 1 120 3 is_stmt 1 view .LVU270
 895              	.LBB214:
 896              	.LBI183:
  39:eurorack/stmlib/dsp/parameter_interpolator.h ****     Init(state, new_value, size);
 897              		.loc 6 39 3 view .LVU271
 898              	.LBE214:
  40:eurorack/stmlib/dsp/parameter_interpolator.h ****   }
 899              		.loc 6 40 5 view .LVU272
 900              	.LBB215:
 901              	.LBB189:
 902              	.LBI184:
  53:eurorack/stmlib/dsp/parameter_interpolator.h ****     state_ = state;
 903              		.loc 6 53 15 view .LVU273
 904              	.LBB187:
  54:eurorack/stmlib/dsp/parameter_interpolator.h ****     value_ = *state;
 905              		.loc 6 54 5 view .LVU274
  55:eurorack/stmlib/dsp/parameter_interpolator.h ****     increment_ = (new_value - *state) / static_cast<float>(size);
 906              		.loc 6 55 5 view .LVU275
 907              		.loc 6 56 5 view .LVU276
 908              		.loc 6 56 39 is_stmt 0 view .LVU277
 909 01f4 C7EE87FA 		vdiv.f32	s31, s15, s14
 910              	.LVL58:
 911              		.loc 6 56 39 view .LVU278
 912              	.LBE187:
 913              	.LBE189:
 914              	.LBE215:
 122:eurorack/plaits/dsp/engine/wavetable_engine.cc **** 
 123:eurorack/plaits/dsp/engine/wavetable_engine.cc ****   ParameterInterpolator f0_modulation(&previous_f0_, f0, size);
 915              		.loc 1 123 3 is_stmt 1 view .LVU279
 916              	.LBB216:
 917              	.LBI202:
  39:eurorack/stmlib/dsp/parameter_interpolator.h ****     Init(state, new_value, size);
 918              		.loc 6 39 3 view .LVU280
 919              	.LBE216:
  40:eurorack/stmlib/dsp/parameter_interpolator.h ****   }
 920              		.loc 6 40 5 view .LVU281
 921              	.LBB217:
 922              	.LBB206:
 923              	.LBI203:
  53:eurorack/stmlib/dsp/parameter_interpolator.h ****     state_ = state;
 924              		.loc 6 53 15 view .LVU282
 925              	.LBB205:
  54:eurorack/stmlib/dsp/parameter_interpolator.h ****     value_ = *state;
 926              		.loc 6 54 5 view .LVU283
  55:eurorack/stmlib/dsp/parameter_interpolator.h ****     increment_ = (new_value - *state) / static_cast<float>(size);
 927              		.loc 6 55 5 view .LVU284
 928              		.loc 6 56 5 view .LVU285
 929              		.loc 6 56 29 is_stmt 0 view .LVU286
 930 01f8 7DEECF7A 		vsub.f32	s15, s27, s30
 931              		.loc 6 56 39 view .LVU287
 932 01fc C7EE87DA 		vdiv.f32	s27, s15, s14
 933              	.LVL59:
ARM GAS  /var/folders/9s/8rp0_f2s1n31qbztm3b5_fdh0000gn/T//ccySFkLz.s 			page 31


 934              	.L32:
 935              		.loc 6 56 39 view .LVU288
 936              	.LBE205:
 937              	.LBE206:
 938              	.LBE217:
 124:eurorack/plaits/dsp/engine/wavetable_engine.cc ****   
 125:eurorack/plaits/dsp/engine/wavetable_engine.cc ****   while (size--) {
 939              		.loc 1 125 3 is_stmt 1 view .LVU289
 940              		.loc 1 125 14 view .LVU290
 941 0200 289B     		ldr	r3, [sp, #160]
 942 0202 013B     		subs	r3, r3, #1
 943 0204 5A1C     		adds	r2, r3, #1
 944 0206 2893     		str	r3, [sp, #160]
 945              	.LVL60:
 946              		.loc 1 125 14 is_stmt 0 view .LVU291
 947 0208 00F03881 		beq	.L24
 948              	.LBB218:
 126:eurorack/plaits/dsp/engine/wavetable_engine.cc ****     const float f0 = f0_modulation.Next();
 949              		.loc 1 126 5 is_stmt 1 view .LVU292
 950              	.LVL61:
 951              	.LBB219:
 952              	.LBI219:
  57:eurorack/stmlib/dsp/parameter_interpolator.h ****   }
  58:eurorack/stmlib/dsp/parameter_interpolator.h **** 
  59:eurorack/stmlib/dsp/parameter_interpolator.h ****   inline float Next() {
 953              		.loc 6 59 16 view .LVU293
 954              	.LBB220:
  60:eurorack/stmlib/dsp/parameter_interpolator.h ****     value_ += increment_;
 955              		.loc 6 60 5 view .LVU294
 956              		.loc 6 60 12 is_stmt 0 view .LVU295
 957 020c 3FEE2DFA 		vadd.f32	s30, s30, s27
 958              	.LVL62:
  61:eurorack/stmlib/dsp/parameter_interpolator.h ****     return value_;
 959              		.loc 6 61 5 is_stmt 1 view .LVU296
 960              		.loc 6 61 5 is_stmt 0 view .LVU297
 961              	.LBE220:
 962              	.LBE219:
 127:eurorack/plaits/dsp/engine/wavetable_engine.cc ****     
 128:eurorack/plaits/dsp/engine/wavetable_engine.cc ****     const float gain = (1.0f / (f0 * 131072.0f)) * (0.95f - f0);
 963              		.loc 1 128 5 is_stmt 1 view .LVU298
 964              		.loc 1 128 36 is_stmt 0 view .LVU299
 965 0210 DFED7C6A 		vldr.32	s13, .L47+48
 966              		.loc 1 128 59 view .LVU300
 967 0214 DFED7C7A 		vldr.32	s15, .L47+52
 968              	.LBB221:
 969              	.LBB222:
  60:eurorack/stmlib/dsp/parameter_interpolator.h ****     return value_;
 970              		.loc 6 60 12 view .LVU301
 971 0218 3CEE05CA 		vadd.f32	s24, s24, s10
 972              	.LVL63:
  60:eurorack/stmlib/dsp/parameter_interpolator.h ****     return value_;
 973              		.loc 6 60 12 view .LVU302
 974              	.LBE222:
 975              	.LBE221:
 129:eurorack/plaits/dsp/engine/wavetable_engine.cc ****     const float cutoff = min(table_size_f * f0, 1.0f);
 130:eurorack/plaits/dsp/engine/wavetable_engine.cc ****     
 131:eurorack/plaits/dsp/engine/wavetable_engine.cc ****     ONE_POLE(x_lp_, x_modulation.Next(), lp_coefficient);
ARM GAS  /var/folders/9s/8rp0_f2s1n31qbztm3b5_fdh0000gn/T//ccySFkLz.s 			page 32


 976              		.loc 1 131 5 view .LVU303
 977 021c 94ED089A 		vldr.32	s18, [r4, #32]
 978              	.LBB224:
 979              	.LBB225:
  60:eurorack/stmlib/dsp/parameter_interpolator.h ****     return value_;
 980              		.loc 6 60 12 view .LVU304
 981 0220 3DEE0EDA 		vadd.f32	s26, s26, s28
 982              	.LVL64:
  60:eurorack/stmlib/dsp/parameter_interpolator.h ****     return value_;
 983              		.loc 6 60 12 view .LVU305
 984              	.LBE225:
 985              	.LBE224:
 128:eurorack/plaits/dsp/engine/wavetable_engine.cc ****     const float cutoff = min(table_size_f * f0, 1.0f);
 986              		.loc 1 128 36 view .LVU306
 987 0224 6FEE266A 		vmul.f32	s13, s30, s13
 132:eurorack/plaits/dsp/engine/wavetable_engine.cc ****     ONE_POLE(y_lp_, y_modulation.Next(), lp_coefficient);
 988              		.loc 1 132 5 view .LVU307
 989 0228 94ED09AA 		vldr.32	s20, [r4, #36]
 128:eurorack/plaits/dsp/engine/wavetable_engine.cc ****     const float cutoff = min(table_size_f * f0, 1.0f);
 990              		.loc 1 128 59 view .LVU308
 991 022c 77EECF7A 		vsub.f32	s15, s15, s30
 992 0230 8DED095A 		vstr.32	s10, [sp, #36]	@ int
 993              	.LBB227:
 994              	.LBB228:
  60:eurorack/stmlib/dsp/parameter_interpolator.h ****     return value_;
 995              		.loc 6 60 12 view .LVU309
 996 0234 7EEEAFEA 		vadd.f32	s29, s29, s31
 997              	.LVL65:
  60:eurorack/stmlib/dsp/parameter_interpolator.h ****     return value_;
 998              		.loc 6 60 12 view .LVU310
 999              	.LBE228:
 1000              	.LBE227:
 128:eurorack/plaits/dsp/engine/wavetable_engine.cc ****     const float cutoff = min(table_size_f * f0, 1.0f);
 1001              		.loc 1 128 30 view .LVU311
 1002 0238 8BEE267A 		vdiv.f32	s14, s22, s13
 129:eurorack/plaits/dsp/engine/wavetable_engine.cc ****     
 1003              		.loc 1 129 43 view .LVU312
 1004 023c 6FEE296A 		vmul.f32	s13, s30, s19
 1005              	.LBB230:
 1006              	.LBB231:
 236:/Library/DaisyToolchain/0.2.0/arm/arm-none-eabi/include/c++/10.3.1/bits/stl_algobase.h ****       return __a;
 1007              		.loc 5 236 9 view .LVU313
 1008 0240 F4EE4B6A 		vcmp.f32	s13, s22
 1009 0244 F1EE10FA 		vmrs	APSR_nzcv, FPSCR
 1010              	.LBE231:
 1011              	.LBE230:
 128:eurorack/plaits/dsp/engine/wavetable_engine.cc ****     const float cutoff = min(table_size_f * f0, 1.0f);
 1012              		.loc 1 128 17 view .LVU314
 1013 0248 27EE277A 		vmul.f32	s14, s14, s15
 1014              	.LVL66:
 129:eurorack/plaits/dsp/engine/wavetable_engine.cc ****     
 1015              		.loc 1 129 5 is_stmt 1 view .LVU315
 1016              	.LBB233:
 1017              	.LBI230:
 230:/Library/DaisyToolchain/0.2.0/arm/arm-none-eabi/include/c++/10.3.1/bits/stl_algobase.h ****     {
 1018              		.loc 5 230 5 view .LVU316
 1019              	.LBB232:
ARM GAS  /var/folders/9s/8rp0_f2s1n31qbztm3b5_fdh0000gn/T//ccySFkLz.s 			page 33


 236:/Library/DaisyToolchain/0.2.0/arm/arm-none-eabi/include/c++/10.3.1/bits/stl_algobase.h ****       return __a;
 1020              		.loc 5 236 9 is_stmt 0 view .LVU317
 1021 024c F7EE007A 		vmov.f32	s15, #1.0e+0
 1022 0250 8DED077A 		vstr.32	s14, [sp, #28]	@ int
 1023 0254 77FEA66A 		vselgt.f32	s13, s15, s13
 1024              	.LVL67:
 236:/Library/DaisyToolchain/0.2.0/arm/arm-none-eabi/include/c++/10.3.1/bits/stl_algobase.h ****       return __a;
 1025              		.loc 5 236 9 view .LVU318
 1026              	.LBE232:
 1027              	.LBE233:
 131:eurorack/plaits/dsp/engine/wavetable_engine.cc ****     ONE_POLE(y_lp_, y_modulation.Next(), lp_coefficient);
 1028              		.loc 1 131 5 is_stmt 1 view .LVU319
 1029              	.LBB234:
 1030              	.LBI221:
  59:eurorack/stmlib/dsp/parameter_interpolator.h ****     value_ += increment_;
 1031              		.loc 6 59 16 view .LVU320
 1032              	.LBB223:
  60:eurorack/stmlib/dsp/parameter_interpolator.h ****     return value_;
 1033              		.loc 6 60 5 view .LVU321
 1034              		.loc 6 61 5 view .LVU322
 1035              		.loc 6 61 5 is_stmt 0 view .LVU323
 1036              	.LBE223:
 1037              	.LBE234:
 131:eurorack/plaits/dsp/engine/wavetable_engine.cc ****     ONE_POLE(y_lp_, y_modulation.Next(), lp_coefficient);
 1038              		.loc 1 131 5 view .LVU324
 1039 0258 7CEE497A 		vsub.f32	s15, s24, s18
 1040 025c CDED066A 		vstr.32	s13, [sp, #24]	@ int
 1041 0260 A7EEAB9A 		vfma.f32	s18, s15, s23
 1042              		.loc 1 132 5 view .LVU325
 1043 0264 7DEE4A7A 		vsub.f32	s15, s26, s20
 1044 0268 A7EEABAA 		vfma.f32	s20, s15, s23
 133:eurorack/plaits/dsp/engine/wavetable_engine.cc ****     ONE_POLE(z_lp_, z_modulation.Next(), lp_coefficient);
 1045              		.loc 1 133 5 view .LVU326
 1046 026c D4ED0A7A 		vldr.32	s15, [r4, #40]
 1047 0270 3EEEE76A 		vsub.f32	s12, s29, s15
 131:eurorack/plaits/dsp/engine/wavetable_engine.cc ****     ONE_POLE(y_lp_, y_modulation.Next(), lp_coefficient);
 1048              		.loc 1 131 5 view .LVU327
 1049 0274 84ED089A 		vstr.32	s18, [r4, #32]
 131:eurorack/plaits/dsp/engine/wavetable_engine.cc ****     ONE_POLE(y_lp_, y_modulation.Next(), lp_coefficient);
 1050              		.loc 1 131 57 is_stmt 1 view .LVU328
 132:eurorack/plaits/dsp/engine/wavetable_engine.cc ****     ONE_POLE(z_lp_, z_modulation.Next(), lp_coefficient);
 1051              		.loc 1 132 5 view .LVU329
 1052              	.LVL68:
 1053              	.LBB235:
 1054              	.LBI224:
  59:eurorack/stmlib/dsp/parameter_interpolator.h ****     value_ += increment_;
 1055              		.loc 6 59 16 view .LVU330
 1056              	.LBB226:
  60:eurorack/stmlib/dsp/parameter_interpolator.h ****     return value_;
 1057              		.loc 6 60 5 view .LVU331
 1058              		.loc 6 61 5 view .LVU332
 1059              		.loc 6 61 5 is_stmt 0 view .LVU333
 1060              	.LBE226:
 1061              	.LBE235:
 1062              		.loc 1 133 5 view .LVU334
 1063 0278 E6EE2B7A 		vfma.f32	s15, s12, s23
 134:eurorack/plaits/dsp/engine/wavetable_engine.cc ****     
ARM GAS  /var/folders/9s/8rp0_f2s1n31qbztm3b5_fdh0000gn/T//ccySFkLz.s 			page 34


 135:eurorack/plaits/dsp/engine/wavetable_engine.cc ****     const float x = x_lp_;
 136:eurorack/plaits/dsp/engine/wavetable_engine.cc ****     const float y = y_lp_;
 137:eurorack/plaits/dsp/engine/wavetable_engine.cc ****     const float z = z_lp_;
 138:eurorack/plaits/dsp/engine/wavetable_engine.cc **** 
 139:eurorack/plaits/dsp/engine/wavetable_engine.cc ****     MAKE_INTEGRAL_FRACTIONAL(x);
 1064              		.loc 1 139 5 view .LVU335
 1065 027c BDEEC96A 		vcvt.s32.f32	s12, s18
 132:eurorack/plaits/dsp/engine/wavetable_engine.cc ****     ONE_POLE(z_lp_, z_modulation.Next(), lp_coefficient);
 1066              		.loc 1 132 5 view .LVU336
 1067 0280 84ED09AA 		vstr.32	s20, [r4, #36]
 132:eurorack/plaits/dsp/engine/wavetable_engine.cc ****     ONE_POLE(z_lp_, z_modulation.Next(), lp_coefficient);
 1068              		.loc 1 132 57 is_stmt 1 view .LVU337
 133:eurorack/plaits/dsp/engine/wavetable_engine.cc ****     
 1069              		.loc 1 133 5 view .LVU338
 1070              	.LVL69:
 1071              	.LBB236:
 1072              	.LBI227:
  59:eurorack/stmlib/dsp/parameter_interpolator.h ****     value_ += increment_;
 1073              		.loc 6 59 16 view .LVU339
 1074              	.LBB229:
  60:eurorack/stmlib/dsp/parameter_interpolator.h ****     return value_;
 1075              		.loc 6 60 5 view .LVU340
 1076              		.loc 6 61 5 view .LVU341
 1077              		.loc 6 61 5 is_stmt 0 view .LVU342
 1078              	.LBE229:
 1079              	.LBE236:
 1080              		.loc 1 139 5 view .LVU343
 1081 0284 16EE107A 		vmov	r7, s12	@ int
 1082 0288 B8EEC66A 		vcvt.f32.s32	s12, s12
 133:eurorack/plaits/dsp/engine/wavetable_engine.cc ****     
 1083              		.loc 1 133 5 view .LVU344
 1084 028c C4ED0A7A 		vstr.32	s15, [r4, #40]
 133:eurorack/plaits/dsp/engine/wavetable_engine.cc ****     
 1085              		.loc 1 133 57 is_stmt 1 view .LVU345
 135:eurorack/plaits/dsp/engine/wavetable_engine.cc ****     const float y = y_lp_;
 1086              		.loc 1 135 5 view .LVU346
 1087              	.LVL70:
 136:eurorack/plaits/dsp/engine/wavetable_engine.cc ****     const float z = z_lp_;
 1088              		.loc 1 136 5 view .LVU347
 137:eurorack/plaits/dsp/engine/wavetable_engine.cc **** 
 1089              		.loc 1 137 5 view .LVU348
 1090              		.loc 1 139 5 view .LVU349
 1091              		.loc 1 139 5 view .LVU350
 1092              	.LBB237:
 140:eurorack/plaits/dsp/engine/wavetable_engine.cc ****     MAKE_INTEGRAL_FRACTIONAL(y);
 141:eurorack/plaits/dsp/engine/wavetable_engine.cc ****     MAKE_INTEGRAL_FRACTIONAL(z);
 142:eurorack/plaits/dsp/engine/wavetable_engine.cc **** 
 143:eurorack/plaits/dsp/engine/wavetable_engine.cc ****     phase_ += f0;
 144:eurorack/plaits/dsp/engine/wavetable_engine.cc ****     if (phase_ >= 1.0f) {
 145:eurorack/plaits/dsp/engine/wavetable_engine.cc ****       phase_ -= 1.0f;
 146:eurorack/plaits/dsp/engine/wavetable_engine.cc ****     }
 147:eurorack/plaits/dsp/engine/wavetable_engine.cc ****     
 148:eurorack/plaits/dsp/engine/wavetable_engine.cc ****     const float p = phase_ * table_size_f;
 149:eurorack/plaits/dsp/engine/wavetable_engine.cc ****     MAKE_INTEGRAL_FRACTIONAL(p);
 150:eurorack/plaits/dsp/engine/wavetable_engine.cc ****     
 151:eurorack/plaits/dsp/engine/wavetable_engine.cc ****     {
 152:eurorack/plaits/dsp/engine/wavetable_engine.cc ****       int x0 = x_integral;
ARM GAS  /var/folders/9s/8rp0_f2s1n31qbztm3b5_fdh0000gn/T//ccySFkLz.s 			page 35


 153:eurorack/plaits/dsp/engine/wavetable_engine.cc ****       int x1 = x_integral + 1;
 154:eurorack/plaits/dsp/engine/wavetable_engine.cc ****       int y0 = y_integral;
 155:eurorack/plaits/dsp/engine/wavetable_engine.cc ****       int y1 = y_integral + 1;
 156:eurorack/plaits/dsp/engine/wavetable_engine.cc ****       int z0 = z_integral;
 157:eurorack/plaits/dsp/engine/wavetable_engine.cc ****       int z1 = z_integral + 1;
 158:eurorack/plaits/dsp/engine/wavetable_engine.cc ****       
 159:eurorack/plaits/dsp/engine/wavetable_engine.cc ****       if (z0 >= 4) {
 160:eurorack/plaits/dsp/engine/wavetable_engine.cc ****         z0 = 7 - z0;
 161:eurorack/plaits/dsp/engine/wavetable_engine.cc ****       }
 162:eurorack/plaits/dsp/engine/wavetable_engine.cc ****       if (z1 >= 4) {
 163:eurorack/plaits/dsp/engine/wavetable_engine.cc ****         z1 = 7 - z1;
 164:eurorack/plaits/dsp/engine/wavetable_engine.cc ****       }
 165:eurorack/plaits/dsp/engine/wavetable_engine.cc ****       
 166:eurorack/plaits/dsp/engine/wavetable_engine.cc ****       int r0 = z0 == 3 ? 101 : 1;
 167:eurorack/plaits/dsp/engine/wavetable_engine.cc ****       int r1 = z1 == 3 ? 101 : 1;
 168:eurorack/plaits/dsp/engine/wavetable_engine.cc **** 
 169:eurorack/plaits/dsp/engine/wavetable_engine.cc ****       float x0y0z0 = ReadWave(x0, y0, z0, r0, p_integral, p_fractional);
 1093              		.loc 1 169 30 is_stmt 0 view .LVU351
 1094 0290 3846     		mov	r0, r7
 1095              	.LBE237:
 139:eurorack/plaits/dsp/engine/wavetable_engine.cc ****     MAKE_INTEGRAL_FRACTIONAL(y);
 1096              		.loc 1 139 5 view .LVU352
 1097 0292 39EE469A 		vsub.f32	s18, s18, s12
 1098              	.LVL71:
 139:eurorack/plaits/dsp/engine/wavetable_engine.cc ****     MAKE_INTEGRAL_FRACTIONAL(y);
 1099              		.loc 1 139 32 is_stmt 1 view .LVU353
 140:eurorack/plaits/dsp/engine/wavetable_engine.cc ****     MAKE_INTEGRAL_FRACTIONAL(y);
 1100              		.loc 1 140 5 view .LVU354
 1101              	.LBB244:
 153:eurorack/plaits/dsp/engine/wavetable_engine.cc ****       int y0 = y_integral;
 1102              		.loc 1 153 11 is_stmt 0 view .LVU355
 1103 0296 07F10109 		add	r9, r7, #1
 1104              	.LBE244:
 140:eurorack/plaits/dsp/engine/wavetable_engine.cc ****     MAKE_INTEGRAL_FRACTIONAL(y);
 1105              		.loc 1 140 5 view .LVU356
 1106 029a BDEECA6A 		vcvt.s32.f32	s12, s20
 1107 029e 16EE108A 		vmov	r8, s12	@ int
 1108              	.LVL72:
 140:eurorack/plaits/dsp/engine/wavetable_engine.cc ****     MAKE_INTEGRAL_FRACTIONAL(y);
 1109              		.loc 1 140 5 is_stmt 1 view .LVU357
 1110 02a2 B8EEC66A 		vcvt.f32.s32	s12, s12
 1111              	.LBB245:
 1112              		.loc 1 169 30 is_stmt 0 view .LVU358
 1113 02a6 4146     		mov	r1, r8
 155:eurorack/plaits/dsp/engine/wavetable_engine.cc ****       int z0 = z_integral;
 1114              		.loc 1 155 11 view .LVU359
 1115 02a8 08F1010A 		add	r10, r8, #1
 1116              	.LBE245:
 140:eurorack/plaits/dsp/engine/wavetable_engine.cc ****     MAKE_INTEGRAL_FRACTIONAL(z);
 1117              		.loc 1 140 5 view .LVU360
 1118 02ac 3AEE46AA 		vsub.f32	s20, s20, s12
 1119              	.LVL73:
 140:eurorack/plaits/dsp/engine/wavetable_engine.cc ****     MAKE_INTEGRAL_FRACTIONAL(z);
 1120              		.loc 1 140 32 is_stmt 1 view .LVU361
 141:eurorack/plaits/dsp/engine/wavetable_engine.cc **** 
 1121              		.loc 1 141 5 view .LVU362
 1122 02b0 BDEEE76A 		vcvt.s32.f32	s12, s15
ARM GAS  /var/folders/9s/8rp0_f2s1n31qbztm3b5_fdh0000gn/T//ccySFkLz.s 			page 36


 1123 02b4 16EE102A 		vmov	r2, s12	@ int
 1124              	.LVL74:
 141:eurorack/plaits/dsp/engine/wavetable_engine.cc **** 
 1125              		.loc 1 141 5 view .LVU363
 1126 02b8 B8EEC66A 		vcvt.f32.s32	s12, s12
 1127              	.LBB246:
 157:eurorack/plaits/dsp/engine/wavetable_engine.cc ****       
 1128              		.loc 1 157 11 is_stmt 0 view .LVU364
 1129 02bc 561C     		adds	r6, r2, #1
 1130              	.LBE246:
 141:eurorack/plaits/dsp/engine/wavetable_engine.cc **** 
 1131              		.loc 1 141 5 view .LVU365
 1132 02be 77EEC67A 		vsub.f32	s15, s15, s12
 1133              	.LVL75:
 141:eurorack/plaits/dsp/engine/wavetable_engine.cc **** 
 1134              		.loc 1 141 32 is_stmt 1 view .LVU366
 143:eurorack/plaits/dsp/engine/wavetable_engine.cc ****     if (phase_ >= 1.0f) {
 1135              		.loc 1 143 5 view .LVU367
 143:eurorack/plaits/dsp/engine/wavetable_engine.cc ****     if (phase_ >= 1.0f) {
 1136              		.loc 1 143 12 is_stmt 0 view .LVU368
 1137 02c2 94ED046A 		vldr.32	s12, [r4, #16]
 1138 02c6 3FEE066A 		vadd.f32	s12, s30, s12
 144:eurorack/plaits/dsp/engine/wavetable_engine.cc ****       phase_ -= 1.0f;
 1139              		.loc 1 144 5 is_stmt 1 view .LVU369
 1140 02ca CDED087A 		vstr.32	s15, [sp, #32]	@ int
 1141 02ce B4EECB6A 		vcmpe.f32	s12, s22
 1142 02d2 F1EE10FA 		vmrs	APSR_nzcv, FPSCR
 145:eurorack/plaits/dsp/engine/wavetable_engine.cc ****     }
 1143              		.loc 1 145 7 view .LVU370
 145:eurorack/plaits/dsp/engine/wavetable_engine.cc ****     }
 1144              		.loc 1 145 14 is_stmt 0 view .LVU371
 1145 02d6 A8BF     		it	ge
 1146 02d8 36EE4B6A 		vsubge.f32	s12, s12, s22
 1147              	.LBB247:
 159:eurorack/plaits/dsp/engine/wavetable_engine.cc ****         z0 = 7 - z0;
 1148              		.loc 1 159 7 view .LVU372
 1149 02dc 032A     		cmp	r2, #3
 160:eurorack/plaits/dsp/engine/wavetable_engine.cc ****       }
 1150              		.loc 1 160 12 view .LVU373
 1151 02de C8BF     		it	gt
 1152 02e0 C2F10702 		rsbgt	r2, r2, #7
 1153              	.LVL76:
 162:eurorack/plaits/dsp/engine/wavetable_engine.cc ****         z1 = 7 - z1;
 1154              		.loc 1 162 7 view .LVU374
 1155 02e4 032E     		cmp	r6, #3
 1156              	.LBE247:
 145:eurorack/plaits/dsp/engine/wavetable_engine.cc ****     }
 1157              		.loc 1 145 14 view .LVU375
 1158 02e6 84ED046A 		vstr.32	s12, [r4, #16]
 148:eurorack/plaits/dsp/engine/wavetable_engine.cc ****     MAKE_INTEGRAL_FRACTIONAL(p);
 1159              		.loc 1 148 5 is_stmt 1 view .LVU376
 148:eurorack/plaits/dsp/engine/wavetable_engine.cc ****     MAKE_INTEGRAL_FRACTIONAL(p);
 1160              		.loc 1 148 17 is_stmt 0 view .LVU377
 1161 02ea 94ED046A 		vldr.32	s12, [r4, #16]
 1162              	.LBB248:
 163:eurorack/plaits/dsp/engine/wavetable_engine.cc ****       }
 1163              		.loc 1 163 12 view .LVU378
ARM GAS  /var/folders/9s/8rp0_f2s1n31qbztm3b5_fdh0000gn/T//ccySFkLz.s 			page 37


 1164 02ee C8BF     		it	gt
 1165 02f0 C6F10706 		rsbgt	r6, r6, #7
 1166              	.LVL77:
 166:eurorack/plaits/dsp/engine/wavetable_engine.cc ****       int r1 = z1 == 3 ? 101 : 1;
 1167              		.loc 1 166 24 view .LVU379
 1168 02f4 032A     		cmp	r2, #3
 1169              	.LBE248:
 148:eurorack/plaits/dsp/engine/wavetable_engine.cc ****     MAKE_INTEGRAL_FRACTIONAL(p);
 1170              		.loc 1 148 17 view .LVU380
 1171 02f6 26EE296A 		vmul.f32	s12, s12, s19
 1172              	.LVL78:
 149:eurorack/plaits/dsp/engine/wavetable_engine.cc ****     
 1173              		.loc 1 149 5 is_stmt 1 view .LVU381
 1174              	.LBB249:
 166:eurorack/plaits/dsp/engine/wavetable_engine.cc ****       int r1 = z1 == 3 ? 101 : 1;
 1175              		.loc 1 166 24 is_stmt 0 view .LVU382
 1176 02fa 0CBF     		ite	eq
 1177 02fc 6523     		moveq	r3, #101
 1178              	.LVL79:
 166:eurorack/plaits/dsp/engine/wavetable_engine.cc ****       int r1 = z1 == 3 ? 101 : 1;
 1179              		.loc 1 166 24 view .LVU383
 1180 02fe 0123     		movne	r3, #1
 167:eurorack/plaits/dsp/engine/wavetable_engine.cc **** 
 1181              		.loc 1 167 24 view .LVU384
 1182 0300 032E     		cmp	r6, #3
 1183              	.LBE249:
 149:eurorack/plaits/dsp/engine/wavetable_engine.cc ****     
 1184              		.loc 1 149 5 view .LVU385
 1185 0302 FDEEC65A 		vcvt.s32.f32	s11, s12
 1186              	.LBB250:
 167:eurorack/plaits/dsp/engine/wavetable_engine.cc **** 
 1187              		.loc 1 167 24 view .LVU386
 1188 0306 0CBF     		ite	eq
 1189 0308 4FF0650B 		moveq	fp, #101
 1190 030c 4FF0010B 		movne	fp, #1
 1191              	.LBE250:
 149:eurorack/plaits/dsp/engine/wavetable_engine.cc ****     
 1192              		.loc 1 149 5 view .LVU387
 1193 0310 15EE905A 		vmov	r5, s11	@ int
 1194              	.LVL80:
 149:eurorack/plaits/dsp/engine/wavetable_engine.cc ****     
 1195              		.loc 1 149 5 is_stmt 1 view .LVU388
 1196 0314 F8EEE55A 		vcvt.f32.s32	s11, s11
 1197              	.LBB251:
 1198              		.loc 1 169 30 is_stmt 0 view .LVU389
 1199 0318 0095     		str	r5, [sp]
 1200              	.LVL81:
 1201              		.loc 1 169 30 view .LVU390
 1202              	.LBE251:
 149:eurorack/plaits/dsp/engine/wavetable_engine.cc ****     
 1203              		.loc 1 149 5 view .LVU391
 1204 031a 76EE65CA 		vsub.f32	s25, s12, s11
 1205              	.LVL82:
 149:eurorack/plaits/dsp/engine/wavetable_engine.cc ****     
 1206              		.loc 1 149 32 is_stmt 1 view .LVU392
 151:eurorack/plaits/dsp/engine/wavetable_engine.cc ****       int x0 = x_integral;
 1207              		.loc 1 151 5 view .LVU393
ARM GAS  /var/folders/9s/8rp0_f2s1n31qbztm3b5_fdh0000gn/T//ccySFkLz.s 			page 38


 1208              	.LBB252:
 152:eurorack/plaits/dsp/engine/wavetable_engine.cc ****       int x1 = x_integral + 1;
 1209              		.loc 1 152 7 view .LVU394
 153:eurorack/plaits/dsp/engine/wavetable_engine.cc ****       int y0 = y_integral;
 1210              		.loc 1 153 7 view .LVU395
 154:eurorack/plaits/dsp/engine/wavetable_engine.cc ****       int y1 = y_integral + 1;
 1211              		.loc 1 154 7 view .LVU396
 155:eurorack/plaits/dsp/engine/wavetable_engine.cc ****       int z0 = z_integral;
 1212              		.loc 1 155 7 view .LVU397
 156:eurorack/plaits/dsp/engine/wavetable_engine.cc ****       int z1 = z_integral + 1;
 1213              		.loc 1 156 7 view .LVU398
 157:eurorack/plaits/dsp/engine/wavetable_engine.cc ****       
 1214              		.loc 1 157 7 view .LVU399
 159:eurorack/plaits/dsp/engine/wavetable_engine.cc ****         z0 = 7 - z0;
 1215              		.loc 1 159 7 view .LVU400
 160:eurorack/plaits/dsp/engine/wavetable_engine.cc ****       }
 1216              		.loc 1 160 9 view .LVU401
 162:eurorack/plaits/dsp/engine/wavetable_engine.cc ****         z1 = 7 - z1;
 1217              		.loc 1 162 7 view .LVU402
 163:eurorack/plaits/dsp/engine/wavetable_engine.cc ****       }
 1218              		.loc 1 163 9 view .LVU403
 166:eurorack/plaits/dsp/engine/wavetable_engine.cc ****       int r1 = z1 == 3 ? 101 : 1;
 1219              		.loc 1 166 7 view .LVU404
 167:eurorack/plaits/dsp/engine/wavetable_engine.cc **** 
 1220              		.loc 1 167 7 view .LVU405
 1221              		.loc 1 169 7 view .LVU406
 1222              		.loc 1 169 30 is_stmt 0 view .LVU407
 1223 031e CDE90423 		strd	r2, r3, [sp, #16]
 1224 0322 B0EE6C0A 		vmov.f32	s0, s25
 1225 0326 FFF7FEFF 		bl	_ZN6plaits8ReadWaveEiiiiif
 1226              	.LVL83:
 1227              		.loc 1 169 30 view .LVU408
 1228 032a B0EE408A 		vmov.f32	s16, s0
 1229              	.LVL84:
 170:eurorack/plaits/dsp/engine/wavetable_engine.cc ****       float x1y0z0 = ReadWave(x1, y0, z0, r0, p_integral, p_fractional);
 1230              		.loc 1 170 7 is_stmt 1 view .LVU409
 1231              		.loc 1 170 30 is_stmt 0 view .LVU410
 1232 032e 4146     		mov	r1, r8
 1233 0330 4846     		mov	r0, r9
 1234 0332 B0EE6C0A 		vmov.f32	s0, s25
 1235              	.LVL85:
 1236              		.loc 1 170 30 view .LVU411
 1237 0336 0095     		str	r5, [sp]
 1238 0338 DDE90423 		ldrd	r2, r3, [sp, #16]
 1239 033c FFF7FEFF 		bl	_ZN6plaits8ReadWaveEiiiiif
 1240              	.LVL86:
 171:eurorack/plaits/dsp/engine/wavetable_engine.cc ****       float xy0z0 = x0y0z0 + (x1y0z0 - x0y0z0) * x_fractional;
 1241              		.loc 1 171 7 is_stmt 1 view .LVU412
 1242              		.loc 1 171 38 is_stmt 0 view .LVU413
 1243 0340 30EE480A 		vsub.f32	s0, s0, s16
 1244              	.LVL87:
 172:eurorack/plaits/dsp/engine/wavetable_engine.cc **** 
 173:eurorack/plaits/dsp/engine/wavetable_engine.cc ****       float x0y1z0 = ReadWave(x0, y1, z0, r0, p_integral, p_fractional); 
 1245              		.loc 1 173 30 view .LVU414
 1246 0344 5146     		mov	r1, r10
 1247 0346 3846     		mov	r0, r7
 1248 0348 0095     		str	r5, [sp]
ARM GAS  /var/folders/9s/8rp0_f2s1n31qbztm3b5_fdh0000gn/T//ccySFkLz.s 			page 39


 171:eurorack/plaits/dsp/engine/wavetable_engine.cc ****       float xy0z0 = x0y0z0 + (x1y0z0 - x0y0z0) * x_fractional;
 1249              		.loc 1 171 13 view .LVU415
 1250 034a A0EE098A 		vfma.f32	s16, s0, s18
 1251              	.LVL88:
 1252              		.loc 1 173 7 is_stmt 1 view .LVU416
 1253              		.loc 1 173 30 is_stmt 0 view .LVU417
 1254 034e B0EE6C0A 		vmov.f32	s0, s25
 1255 0352 DDE90423 		ldrd	r2, r3, [sp, #16]
 1256 0356 FFF7FEFF 		bl	_ZN6plaits8ReadWaveEiiiiif
 1257              	.LVL89:
 1258 035a F0EE408A 		vmov.f32	s17, s0
 1259              	.LVL90:
 174:eurorack/plaits/dsp/engine/wavetable_engine.cc ****       float x1y1z0 = ReadWave(x1, y1, z0, r0, p_integral, p_fractional);
 1260              		.loc 1 174 7 is_stmt 1 view .LVU418
 1261              		.loc 1 174 30 is_stmt 0 view .LVU419
 1262 035e 5146     		mov	r1, r10
 1263 0360 4846     		mov	r0, r9
 1264 0362 B0EE6C0A 		vmov.f32	s0, s25
 1265              	.LVL91:
 1266              		.loc 1 174 30 view .LVU420
 1267 0366 0095     		str	r5, [sp]
 1268 0368 DDE90423 		ldrd	r2, r3, [sp, #16]
 1269 036c FFF7FEFF 		bl	_ZN6plaits8ReadWaveEiiiiif
 1270              	.LVL92:
 175:eurorack/plaits/dsp/engine/wavetable_engine.cc ****       float xy1z0 = x0y1z0 + (x1y1z0 - x0y1z0) * x_fractional;
 1271              		.loc 1 175 7 is_stmt 1 view .LVU421
 1272              		.loc 1 175 38 is_stmt 0 view .LVU422
 1273 0370 30EE680A 		vsub.f32	s0, s0, s17
 1274              	.LVL93:
 176:eurorack/plaits/dsp/engine/wavetable_engine.cc **** 
 177:eurorack/plaits/dsp/engine/wavetable_engine.cc ****       float xyz0 = xy0z0 + (xy1z0 - xy0z0) * y_fractional;
 178:eurorack/plaits/dsp/engine/wavetable_engine.cc **** 
 179:eurorack/plaits/dsp/engine/wavetable_engine.cc ****       float x0y0z1 = ReadWave(x0, y0, z1, r1, p_integral, p_fractional);
 1275              		.loc 1 179 30 view .LVU423
 1276 0374 5B46     		mov	r3, fp
 1277 0376 3246     		mov	r2, r6
 1278 0378 4146     		mov	r1, r8
 1279 037a 3846     		mov	r0, r7
 175:eurorack/plaits/dsp/engine/wavetable_engine.cc ****       float xy1z0 = x0y1z0 + (x1y1z0 - x0y1z0) * x_fractional;
 1280              		.loc 1 175 13 view .LVU424
 1281 037c E0EE098A 		vfma.f32	s17, s0, s18
 1282              	.LVL94:
 177:eurorack/plaits/dsp/engine/wavetable_engine.cc **** 
 1283              		.loc 1 177 7 is_stmt 1 view .LVU425
 1284              		.loc 1 179 30 is_stmt 0 view .LVU426
 1285 0380 0095     		str	r5, [sp]
 1286 0382 B0EE6C0A 		vmov.f32	s0, s25
 1287 0386 FFF7FEFF 		bl	_ZN6plaits8ReadWaveEiiiiif
 1288              	.LVL95:
 180:eurorack/plaits/dsp/engine/wavetable_engine.cc ****       float x1y0z1 = ReadWave(x1, y0, z1, r1, p_integral, p_fractional);
 1289              		.loc 1 180 30 view .LVU427
 1290 038a 5B46     		mov	r3, fp
 1291 038c 3246     		mov	r2, r6
 1292 038e 4146     		mov	r1, r8
 1293 0390 4846     		mov	r0, r9
 1294 0392 0095     		str	r5, [sp]
 177:eurorack/plaits/dsp/engine/wavetable_engine.cc **** 
ARM GAS  /var/folders/9s/8rp0_f2s1n31qbztm3b5_fdh0000gn/T//ccySFkLz.s 			page 40


 1295              		.loc 1 177 35 view .LVU428
 1296 0394 78EEC88A 		vsub.f32	s17, s17, s16
 1297              	.LVL96:
 177:eurorack/plaits/dsp/engine/wavetable_engine.cc **** 
 1298              		.loc 1 177 13 view .LVU429
 1299 0398 A8EE8A8A 		vfma.f32	s16, s17, s20
 1300              	.LVL97:
 179:eurorack/plaits/dsp/engine/wavetable_engine.cc ****       float x1y0z1 = ReadWave(x1, y0, z1, r1, p_integral, p_fractional);
 1301              		.loc 1 179 7 is_stmt 1 view .LVU430
 179:eurorack/plaits/dsp/engine/wavetable_engine.cc ****       float x1y0z1 = ReadWave(x1, y0, z1, r1, p_integral, p_fractional);
 1302              		.loc 1 179 30 is_stmt 0 view .LVU431
 1303 039c F0EE408A 		vmov.f32	s17, s0
 1304              	.LVL98:
 1305              		.loc 1 180 7 is_stmt 1 view .LVU432
 1306              		.loc 1 180 30 is_stmt 0 view .LVU433
 1307 03a0 B0EE6C0A 		vmov.f32	s0, s25
 1308              	.LVL99:
 1309              		.loc 1 180 30 view .LVU434
 1310 03a4 FFF7FEFF 		bl	_ZN6plaits8ReadWaveEiiiiif
 1311              	.LVL100:
 181:eurorack/plaits/dsp/engine/wavetable_engine.cc ****       float xy0z1 = x0y0z1 + (x1y0z1 - x0y0z1) * x_fractional;
 1312              		.loc 1 181 7 is_stmt 1 view .LVU435
 182:eurorack/plaits/dsp/engine/wavetable_engine.cc **** 
 183:eurorack/plaits/dsp/engine/wavetable_engine.cc ****       float x0y1z1 = ReadWave(x0, y1, z1, r1, p_integral, p_fractional);
 1313              		.loc 1 183 30 is_stmt 0 view .LVU436
 1314 03a8 5B46     		mov	r3, fp
 181:eurorack/plaits/dsp/engine/wavetable_engine.cc ****       float xy0z1 = x0y0z1 + (x1y0z1 - x0y0z1) * x_fractional;
 1315              		.loc 1 181 38 view .LVU437
 1316 03aa 30EE680A 		vsub.f32	s0, s0, s17
 1317              	.LVL101:
 1318              		.loc 1 183 30 view .LVU438
 1319 03ae 3246     		mov	r2, r6
 1320 03b0 5146     		mov	r1, r10
 1321 03b2 3846     		mov	r0, r7
 1322 03b4 0095     		str	r5, [sp]
 181:eurorack/plaits/dsp/engine/wavetable_engine.cc ****       float xy0z1 = x0y0z1 + (x1y0z1 - x0y0z1) * x_fractional;
 1323              		.loc 1 181 13 view .LVU439
 1324 03b6 E0EE098A 		vfma.f32	s17, s0, s18
 1325              	.LVL102:
 1326              		.loc 1 183 7 is_stmt 1 view .LVU440
 1327              		.loc 1 183 30 is_stmt 0 view .LVU441
 1328 03ba B0EE6C0A 		vmov.f32	s0, s25
 1329 03be FFF7FEFF 		bl	_ZN6plaits8ReadWaveEiiiiif
 1330              	.LVL103:
 1331 03c2 F0EE40AA 		vmov.f32	s21, s0
 1332              	.LVL104:
 184:eurorack/plaits/dsp/engine/wavetable_engine.cc ****       float x1y1z1 = ReadWave(x1, y1, z1, r1, p_integral, p_fractional);
 1333              		.loc 1 184 7 is_stmt 1 view .LVU442
 1334              		.loc 1 184 30 is_stmt 0 view .LVU443
 1335 03c6 5B46     		mov	r3, fp
 1336 03c8 B0EE6C0A 		vmov.f32	s0, s25
 1337              	.LVL105:
 1338              		.loc 1 184 30 view .LVU444
 1339 03cc 3246     		mov	r2, r6
 1340 03ce 5146     		mov	r1, r10
 1341 03d0 1CE0     		b	.L48
 1342              	.L49:
ARM GAS  /var/folders/9s/8rp0_f2s1n31qbztm3b5_fdh0000gn/T//ccySFkLz.s 			page 41


 1343 03d2 00BF     		.align	2
 1344              	.L47:
 1345 03d4 000000C3 		.word	-1023410176
 1346 03d8 0000FE42 		.word	1123942400
 1347 03dc 00000043 		.word	1124073472
 1348 03e0 00000000 		.word	_ZN6stmlib19lut_pitch_ratio_lowE
 1349 03e4 00008043 		.word	1132462080
 1350 03e8 2EFFDF40 		.word	1088421678
 1351 03ec 00000000 		.word	_ZN6stmlib20lut_pitch_ratio_highE
 1352 03f0 51969639 		.word	966170193
 1353 03f4 CDCC4C3E 		.word	1045220557
 1354 03f8 CDCC4C3D 		.word	1028443341
 1355 03fc 0AD7233C 		.word	1008981770
 1356 0400 CDCCCC3D 		.word	1036831949
 1357 0404 00000048 		.word	1207959552
 1358 0408 3333733F 		.word	1064514355
 1359              	.L48:
 1360 040c 4846     		mov	r0, r9
 1361 040e 0095     		str	r5, [sp]
 1362 0410 FFF7FEFF 		bl	_ZN6plaits8ReadWaveEiiiiif
 1363              	.LVL106:
 185:eurorack/plaits/dsp/engine/wavetable_engine.cc ****       float xy1z1 = x0y1z1 + (x1y1z1 - x0y1z1) * x_fractional;
 1364              		.loc 1 185 7 is_stmt 1 view .LVU445
 1365              		.loc 1 185 38 is_stmt 0 view .LVU446
 1366 0414 30EE6A0A 		vsub.f32	s0, s0, s21
 1367              	.LVL107:
 186:eurorack/plaits/dsp/engine/wavetable_engine.cc ****       
 187:eurorack/plaits/dsp/engine/wavetable_engine.cc ****       float xyz1 = xy0z1 + (xy1z1 - xy0z1) * y_fractional;
 188:eurorack/plaits/dsp/engine/wavetable_engine.cc **** 
 189:eurorack/plaits/dsp/engine/wavetable_engine.cc ****       float mix = xyz0 + (xyz1 - xyz0) * z_fractional;
 1368              		.loc 1 189 13 view .LVU447
 1369 0418 DDED087A 		vldr.32	s15, [sp, #32]	@ int
 1370              	.LBB238:
 1371              	.LBB239:
  52:eurorack/plaits/dsp/oscillator/wavetable_oscillator.h ****     previous_ = s;
 1372              		.loc 2 52 5 view .LVU448
 1373 041c 94ED106A 		vldr.32	s12, [r4, #64]
 1374              	.LBE239:
 1375              	.LBE238:
 185:eurorack/plaits/dsp/engine/wavetable_engine.cc ****       float xy1z1 = x0y1z1 + (x1y1z1 - x0y1z1) * x_fractional;
 1376              		.loc 1 185 13 view .LVU449
 1377 0420 E0EE09AA 		vfma.f32	s21, s0, s18
 1378              	.LVL108:
 187:eurorack/plaits/dsp/engine/wavetable_engine.cc **** 
 1379              		.loc 1 187 7 is_stmt 1 view .LVU450
 1380              	.LBB242:
 1381              	.LBB240:
  52:eurorack/plaits/dsp/oscillator/wavetable_oscillator.h ****     previous_ = s;
 1382              		.loc 2 52 5 is_stmt 0 view .LVU451
 1383 0424 DDED066A 		vldr.32	s13, [sp, #24]	@ int
 1384              	.LBE240:
 1385              	.LBE242:
 187:eurorack/plaits/dsp/engine/wavetable_engine.cc **** 
 1386              		.loc 1 187 35 view .LVU452
 1387 0428 7AEEE8AA 		vsub.f32	s21, s21, s17
 1388              	.LVL109:
 187:eurorack/plaits/dsp/engine/wavetable_engine.cc **** 
ARM GAS  /var/folders/9s/8rp0_f2s1n31qbztm3b5_fdh0000gn/T//ccySFkLz.s 			page 42


 1389              		.loc 1 187 13 view .LVU453
 1390 042c EAEE8A8A 		vfma.f32	s17, s21, s20
 1391              	.LVL110:
 1392              		.loc 1 189 7 is_stmt 1 view .LVU454
 1393              		.loc 1 189 32 is_stmt 0 view .LVU455
 1394 0430 78EEC88A 		vsub.f32	s17, s17, s16
 1395              	.LVL111:
 1396              		.loc 1 189 13 view .LVU456
 1397 0434 A8EEA78A 		vfma.f32	s16, s17, s15
 1398              	.LVL112:
 190:eurorack/plaits/dsp/engine/wavetable_engine.cc ****       mix = diff_out_.Process(cutoff, mix) * gain;
 1399              		.loc 1 190 7 is_stmt 1 view .LVU457
 1400              	.LBB243:
 1401              	.LBI238:
  51:eurorack/plaits/dsp/oscillator/wavetable_oscillator.h ****     ONE_POLE(lp_, s - previous_, coefficient);
 1402              		.loc 2 51 9 view .LVU458
 1403              	.LBB241:
  52:eurorack/plaits/dsp/oscillator/wavetable_oscillator.h ****     previous_ = s;
 1404              		.loc 2 52 5 view .LVU459
 1405 0438 D4ED0F7A 		vldr.32	s15, [r4, #60]
 1406 043c 38EE466A 		vsub.f32	s12, s16, s12
 1407 0440 36EE676A 		vsub.f32	s12, s12, s15
 1408 0444 E6EE867A 		vfma.f32	s15, s13, s12
 1409 0448 C4ED0F7A 		vstr.32	s15, [r4, #60]
  52:eurorack/plaits/dsp/oscillator/wavetable_oscillator.h ****     previous_ = s;
 1410              		.loc 2 52 46 view .LVU460
  53:eurorack/plaits/dsp/oscillator/wavetable_oscillator.h ****     return lp_;
 1411              		.loc 2 53 5 view .LVU461
  53:eurorack/plaits/dsp/oscillator/wavetable_oscillator.h ****     return lp_;
 1412              		.loc 2 53 15 is_stmt 0 view .LVU462
 1413 044c 84ED108A 		vstr.32	s16, [r4, #64]
  54:eurorack/plaits/dsp/oscillator/wavetable_oscillator.h ****   }
 1414              		.loc 2 54 5 is_stmt 1 view .LVU463
 1415              	.LVL113:
  54:eurorack/plaits/dsp/oscillator/wavetable_oscillator.h ****   }
 1416              		.loc 2 54 5 is_stmt 0 view .LVU464
 1417              	.LBE241:
 1418              	.LBE243:
 1419              		.loc 1 190 11 view .LVU465
 1420 0450 9DED077A 		vldr.32	s14, [sp, #28]	@ int
 191:eurorack/plaits/dsp/engine/wavetable_engine.cc ****       *out++ = mix;
 1421              		.loc 1 191 14 view .LVU466
 1422 0454 029B     		ldr	r3, [sp, #8]
 190:eurorack/plaits/dsp/engine/wavetable_engine.cc ****       *out++ = mix;
 1423              		.loc 1 190 11 view .LVU467
 1424 0456 67EE277A 		vmul.f32	s15, s14, s15
 1425              	.LVL114:
 1426              		.loc 1 191 7 is_stmt 1 view .LVU468
 1427              		.loc 1 191 7 is_stmt 0 view .LVU469
 1428              	.LBE252:
 1429              	.LBE218:
 125:eurorack/plaits/dsp/engine/wavetable_engine.cc ****     const float f0 = f0_modulation.Next();
 1430              		.loc 1 125 3 view .LVU470
 1431 045a 9DED095A 		vldr.32	s10, [sp, #36]	@ int
 1432              	.LBB254:
 1433              	.LBB253:
 1434              		.loc 1 191 14 view .LVU471
ARM GAS  /var/folders/9s/8rp0_f2s1n31qbztm3b5_fdh0000gn/T//ccySFkLz.s 			page 43


 1435 045e E3EC017A 		vstmia.32	r3!, {s15}
 1436              	.LVL115:
 192:eurorack/plaits/dsp/engine/wavetable_engine.cc ****       *aux++ = static_cast<float>(static_cast<int>(mix * 32.0f)) / 32.0f;
 1437              		.loc 1 192 35 view .LVU472
 1438 0462 FEEEED7A 		vcvt.s32.f32	s15, s15, #5
 1439              	.LVL116:
 191:eurorack/plaits/dsp/engine/wavetable_engine.cc ****       *aux++ = static_cast<float>(static_cast<int>(mix * 32.0f)) / 32.0f;
 1440              		.loc 1 191 14 view .LVU473
 1441 0466 0293     		str	r3, [sp, #8]
 1442              	.LVL117:
 1443              		.loc 1 192 7 is_stmt 1 view .LVU474
 1444              		.loc 1 192 14 is_stmt 0 view .LVU475
 1445 0468 039B     		ldr	r3, [sp, #12]
 1446              	.LVL118:
 1447              		.loc 1 192 66 view .LVU476
 1448 046a FAEEED7A 		vcvt.f32.s32	s15, s15, #5
 1449              		.loc 1 192 14 view .LVU477
 1450 046e E3EC017A 		vstmia.32	r3!, {s15}
 1451              	.LVL119:
 1452              		.loc 1 192 14 view .LVU478
 1453 0472 0393     		str	r3, [sp, #12]
 1454              	.LBE253:
 1455              	.LBE254:
 125:eurorack/plaits/dsp/engine/wavetable_engine.cc ****     const float f0 = f0_modulation.Next();
 1456              		.loc 1 125 3 view .LVU479
 1457 0474 C4E6     		b	.L32
 1458              	.LVL120:
 1459              	.L33:
 1460              	.LBB255:
 1461              	.LBB140:
  41:eurorack/plaits/dsp/engine/engine.h ****   return a0 * 0.25f * stmlib::SemitonesToRatio(midi_note);
 1462              		.loc 3 41 3 view .LVU480
 1463 0476 F0EE477A 		vmov.f32	s15, s14
 1464              	.LVL121:
  41:eurorack/plaits/dsp/engine/engine.h ****   return a0 * 0.25f * stmlib::SemitonesToRatio(midi_note);
 1465              		.loc 3 41 3 view .LVU481
 1466 047a DFE5     		b	.L14
 1467              	.LVL122:
 1468              	.L24:
  41:eurorack/plaits/dsp/engine/engine.h ****   return a0 * 0.25f * stmlib::SemitonesToRatio(midi_note);
 1469              		.loc 3 41 3 view .LVU482
 1470              	.LBE140:
 1471              	.LBE255:
 1472              	.LBB256:
 1473              	.LBI256:
  49:eurorack/stmlib/dsp/parameter_interpolator.h ****     *state_ = value_;
 1474              		.loc 6 49 3 is_stmt 1 view .LVU483
 1475              	.LBB257:
  50:eurorack/stmlib/dsp/parameter_interpolator.h ****   }
 1476              		.loc 6 50 5 view .LVU484
  50:eurorack/stmlib/dsp/parameter_interpolator.h ****   }
 1477              		.loc 6 50 13 is_stmt 0 view .LVU485
 1478 047c 84ED0EFA 		vstr.32	s30, [r4, #56]
 1479              	.LVL123:
  50:eurorack/stmlib/dsp/parameter_interpolator.h ****   }
 1480              		.loc 6 50 13 view .LVU486
 1481              	.LBE257:
ARM GAS  /var/folders/9s/8rp0_f2s1n31qbztm3b5_fdh0000gn/T//ccySFkLz.s 			page 44


 1482              	.LBE256:
 1483              	.LBB258:
 1484              	.LBI258:
  49:eurorack/stmlib/dsp/parameter_interpolator.h ****     *state_ = value_;
 1485              		.loc 6 49 3 is_stmt 1 view .LVU487
 1486              	.LBB259:
  50:eurorack/stmlib/dsp/parameter_interpolator.h ****   }
 1487              		.loc 6 50 5 view .LVU488
  50:eurorack/stmlib/dsp/parameter_interpolator.h ****   }
 1488              		.loc 6 50 13 is_stmt 0 view .LVU489
 1489 0480 C4ED0DEA 		vstr.32	s29, [r4, #52]
 1490              	.LVL124:
  50:eurorack/stmlib/dsp/parameter_interpolator.h ****   }
 1491              		.loc 6 50 13 view .LVU490
 1492              	.LBE259:
 1493              	.LBE258:
 1494              	.LBB260:
 1495              	.LBI260:
  49:eurorack/stmlib/dsp/parameter_interpolator.h ****     *state_ = value_;
 1496              		.loc 6 49 3 is_stmt 1 view .LVU491
 1497              	.LBB261:
  50:eurorack/stmlib/dsp/parameter_interpolator.h ****   }
 1498              		.loc 6 50 5 view .LVU492
  50:eurorack/stmlib/dsp/parameter_interpolator.h ****   }
 1499              		.loc 6 50 13 is_stmt 0 view .LVU493
 1500 0484 84ED0CDA 		vstr.32	s26, [r4, #48]
 1501              	.LVL125:
  50:eurorack/stmlib/dsp/parameter_interpolator.h ****   }
 1502              		.loc 6 50 13 view .LVU494
 1503              	.LBE261:
 1504              	.LBE260:
 1505              	.LBB262:
 1506              	.LBI262:
  49:eurorack/stmlib/dsp/parameter_interpolator.h ****     *state_ = value_;
 1507              		.loc 6 49 3 is_stmt 1 view .LVU495
 1508              	.LBB263:
  50:eurorack/stmlib/dsp/parameter_interpolator.h ****   }
 1509              		.loc 6 50 5 view .LVU496
  50:eurorack/stmlib/dsp/parameter_interpolator.h ****   }
 1510              		.loc 6 50 13 is_stmt 0 view .LVU497
 1511 0488 84ED0BCA 		vstr.32	s24, [r4, #44]
 1512              	.LVL126:
  50:eurorack/stmlib/dsp/parameter_interpolator.h ****   }
 1513              		.loc 6 50 13 view .LVU498
 1514              	.LBE263:
 1515              	.LBE262:
 193:eurorack/plaits/dsp/engine/wavetable_engine.cc ****     }
 194:eurorack/plaits/dsp/engine/wavetable_engine.cc ****   }
 195:eurorack/plaits/dsp/engine/wavetable_engine.cc **** }
 1516              		.loc 1 195 1 view .LVU499
 1517 048c 0FB0     		add	sp, sp, #60
 1518              		.cfi_def_cfa_offset 100
 1519              		@ sp needed
 1520 048e BDEC108B 		vldm	sp!, {d8-d15}
 1521              		.cfi_restore 94
 1522              		.cfi_restore 95
 1523              		.cfi_restore 92
ARM GAS  /var/folders/9s/8rp0_f2s1n31qbztm3b5_fdh0000gn/T//ccySFkLz.s 			page 45


 1524              		.cfi_restore 93
 1525              		.cfi_restore 90
 1526              		.cfi_restore 91
 1527              		.cfi_restore 88
 1528              		.cfi_restore 89
 1529              		.cfi_restore 86
 1530              		.cfi_restore 87
 1531              		.cfi_restore 84
 1532              		.cfi_restore 85
 1533              		.cfi_restore 82
 1534              		.cfi_restore 83
 1535              		.cfi_restore 80
 1536              		.cfi_restore 81
 1537              		.cfi_def_cfa_offset 36
 1538              	.LVL127:
 1539              		.loc 1 195 1 view .LVU500
 1540 0492 BDE8F08F 		pop	{r4, r5, r6, r7, r8, r9, r10, fp, pc}
 1541              		.loc 1 195 1 view .LVU501
 1542              		.cfi_endproc
 1543              	.LFE1539:
 1545              		.global	_ZTVN6plaits15WavetableEngineE
 1546 0496 00BF     		.section	.rodata._ZTVN6plaits15WavetableEngineE,"a"
 1547              		.align	2
 1550              	_ZTVN6plaits15WavetableEngineE:
 1551 0000 00000000 		.word	0
 1552 0004 00000000 		.word	0
 1553 0008 00000000 		.word	_ZN6plaits15WavetableEngine4InitEPN6stmlib15BufferAllocatorE
 1554 000c 00000000 		.word	_ZN6plaits15WavetableEngine5ResetEv
 1555 0010 00000000 		.word	_ZN6plaits15WavetableEngine6RenderERKNS_16EngineParametersEPfS4_jPb
 1556              		.text
 1557              	.Letext0:
 1558              		.file 7 "/Library/DaisyToolchain/0.2.0/arm/arm-none-eabi/include/machine/_default_types.h"
 1559              		.file 8 "/Library/DaisyToolchain/0.2.0/arm/arm-none-eabi/include/sys/_stdint.h"
 1560              		.file 9 "/Library/DaisyToolchain/0.2.0/arm/lib/gcc/arm-none-eabi/10.3.1/include/stddef.h"
 1561              		.file 10 "/Library/DaisyToolchain/0.2.0/arm/arm-none-eabi/include/c++/10.3.1/cmath"
 1562              		.file 11 "/Library/DaisyToolchain/0.2.0/arm/arm-none-eabi/include/c++/10.3.1/bits/std_abs.h"
 1563              		.file 12 "/Library/DaisyToolchain/0.2.0/arm/arm-none-eabi/include/c++/10.3.1/type_traits"
 1564              		.file 13 "/Library/DaisyToolchain/0.2.0/arm/arm-none-eabi/include/c++/10.3.1/debug/debug.h"
 1565              		.file 14 "/Library/DaisyToolchain/0.2.0/arm/arm-none-eabi/include/c++/10.3.1/cstdlib"
 1566              		.file 15 "/Library/DaisyToolchain/0.2.0/arm/arm-none-eabi/include/c++/10.3.1/arm-none-eabi/thumb/v
 1567              		.file 16 "/Library/DaisyToolchain/0.2.0/arm/arm-none-eabi/include/c++/10.3.1/bits/algorithmfwd.h"
 1568              		.file 17 "/Library/DaisyToolchain/0.2.0/arm/arm-none-eabi/include/c++/10.3.1/bits/stl_pair.h"
 1569              		.file 18 "/Library/DaisyToolchain/0.2.0/arm/arm-none-eabi/include/c++/10.3.1/bits/exception_ptr.h"
 1570              		.file 19 "/Library/DaisyToolchain/0.2.0/arm/arm-none-eabi/include/c++/10.3.1/bits/predefined_ops.h
 1571              		.file 20 "/Library/DaisyToolchain/0.2.0/arm/arm-none-eabi/include/math.h"
 1572              		.file 21 "/Library/DaisyToolchain/0.2.0/arm/arm-none-eabi/include/stdlib.h"
 1573              		.file 22 "/Library/DaisyToolchain/0.2.0/arm/arm-none-eabi/include/c++/10.3.1/math.h"
 1574              		.file 23 "eurorack/stmlib/stmlib.h"
 1575              		.file 24 "eurorack/stmlib/utils/buffer_allocator.h"
 1576              		.file 25 "eurorack/plaits/dsp/dsp.h"
 1577              		.file 26 "eurorack/plaits/dsp/oscillator/oscillator.h"
 1578              		.file 27 "eurorack/plaits/resources.h"
 1579              		.file 28 "eurorack/plaits/dsp/engine/wavetable_engine.h"
 1580              		.file 29 "/Library/DaisyToolchain/0.2.0/arm/arm-none-eabi/include/c++/10.3.1/stdlib.h"
 1581              		.file 30 "lib/libdaisy/src/daisy_core.h"
 1582              		.file 31 "<built-in>"
ARM GAS  /var/folders/9s/8rp0_f2s1n31qbztm3b5_fdh0000gn/T//ccySFkLz.s 			page 46

