ARM GAS  /var/folders/9s/8rp0_f2s1n31qbztm3b5_fdh0000gn/T//ccHPFdxP.s 			page 1


   1              		.cpu cortex-m7
   2              		.arch armv7e-m
   3              		.fpu fpv5-d16
   4              		.eabi_attribute 28, 1
   5              		.eabi_attribute 20, 1
   6              		.eabi_attribute 21, 1
   7              		.eabi_attribute 23, 3
   8              		.eabi_attribute 24, 1
   9              		.eabi_attribute 25, 1
  10              		.eabi_attribute 26, 1
  11              		.eabi_attribute 30, 4
  12              		.eabi_attribute 34, 1
  13              		.eabi_attribute 18, 4
  14              		.file	"lpc_speech_synth_controller.cc"
  15              		.text
  16              	.Ltext0:
  17              		.cfi_sections	.debug_frame
  18              		.section	.text._ZN6plaits14LPCSpeechSynth9PlayFrameEPKNS0_5FrameEfb,"axG",%progbits,_ZN6plaits14LP
  19              		.align	1
  20              		.weak	_ZN6plaits14LPCSpeechSynth9PlayFrameEPKNS0_5FrameEfb
  21              		.syntax unified
  22              		.thumb
  23              		.thumb_func
  25              	_ZN6plaits14LPCSpeechSynth9PlayFrameEPKNS0_5FrameEfb:
  26              	.LVL0:
  27              	.LFB579:
  28              		.file 1 "eurorack/plaits/dsp/speech/lpc_speech_synth.h"
   1:eurorack/plaits/dsp/speech/lpc_speech_synth.h **** // Copyright 2016 Emilie Gillet.
   2:eurorack/plaits/dsp/speech/lpc_speech_synth.h **** //
   3:eurorack/plaits/dsp/speech/lpc_speech_synth.h **** // Author: Emilie Gillet (emilie.o.gillet@gmail.com)
   4:eurorack/plaits/dsp/speech/lpc_speech_synth.h **** //
   5:eurorack/plaits/dsp/speech/lpc_speech_synth.h **** // Permission is hereby granted, free of charge, to any person obtaining a copy
   6:eurorack/plaits/dsp/speech/lpc_speech_synth.h **** // of this software and associated documentation files (the "Software"), to deal
   7:eurorack/plaits/dsp/speech/lpc_speech_synth.h **** // in the Software without restriction, including without limitation the rights
   8:eurorack/plaits/dsp/speech/lpc_speech_synth.h **** // to use, copy, modify, merge, publish, distribute, sublicense, and/or sell
   9:eurorack/plaits/dsp/speech/lpc_speech_synth.h **** // copies of the Software, and to permit persons to whom the Software is
  10:eurorack/plaits/dsp/speech/lpc_speech_synth.h **** // furnished to do so, subject to the following conditions:
  11:eurorack/plaits/dsp/speech/lpc_speech_synth.h **** // 
  12:eurorack/plaits/dsp/speech/lpc_speech_synth.h **** // The above copyright notice and this permission notice shall be included in
  13:eurorack/plaits/dsp/speech/lpc_speech_synth.h **** // all copies or substantial portions of the Software.
  14:eurorack/plaits/dsp/speech/lpc_speech_synth.h **** // 
  15:eurorack/plaits/dsp/speech/lpc_speech_synth.h **** // THE SOFTWARE IS PROVIDED "AS IS", WITHOUT WARRANTY OF ANY KIND, EXPRESS OR
  16:eurorack/plaits/dsp/speech/lpc_speech_synth.h **** // IMPLIED, INCLUDING BUT NOT LIMITED TO THE WARRANTIES OF MERCHANTABILITY,
  17:eurorack/plaits/dsp/speech/lpc_speech_synth.h **** // FITNESS FOR A PARTICULAR PURPOSE AND NONINFRINGEMENT. IN NO EVENT SHALL THE
  18:eurorack/plaits/dsp/speech/lpc_speech_synth.h **** // AUTHORS OR COPYRIGHT HOLDERS BE LIABLE FOR ANY CLAIM, DAMAGES OR OTHER
  19:eurorack/plaits/dsp/speech/lpc_speech_synth.h **** // LIABILITY, WHETHER IN AN ACTION OF CONTRACT, TORT OR OTHERWISE, ARISING FROM,
  20:eurorack/plaits/dsp/speech/lpc_speech_synth.h **** // OUT OF OR IN CONNECTION WITH THE SOFTWARE OR THE USE OR OTHER DEALINGS IN
  21:eurorack/plaits/dsp/speech/lpc_speech_synth.h **** // THE SOFTWARE.
  22:eurorack/plaits/dsp/speech/lpc_speech_synth.h **** // 
  23:eurorack/plaits/dsp/speech/lpc_speech_synth.h **** // See http://creativecommons.org/licenses/MIT/ for more information.
  24:eurorack/plaits/dsp/speech/lpc_speech_synth.h **** //
  25:eurorack/plaits/dsp/speech/lpc_speech_synth.h **** // -----------------------------------------------------------------------------
  26:eurorack/plaits/dsp/speech/lpc_speech_synth.h **** //
  27:eurorack/plaits/dsp/speech/lpc_speech_synth.h **** // LPC10 speech synth.
  28:eurorack/plaits/dsp/speech/lpc_speech_synth.h **** 
  29:eurorack/plaits/dsp/speech/lpc_speech_synth.h **** #ifndef PLAITS_DSP_SPEECH_LPC_SPEECH_SYNTH_H_
  30:eurorack/plaits/dsp/speech/lpc_speech_synth.h **** #define PLAITS_DSP_SPEECH_LPC_SPEECH_SYNTH_H_
ARM GAS  /var/folders/9s/8rp0_f2s1n31qbztm3b5_fdh0000gn/T//ccHPFdxP.s 			page 2


  31:eurorack/plaits/dsp/speech/lpc_speech_synth.h **** 
  32:eurorack/plaits/dsp/speech/lpc_speech_synth.h **** #include "stmlib/dsp/dsp.h"
  33:eurorack/plaits/dsp/speech/lpc_speech_synth.h **** 
  34:eurorack/plaits/dsp/speech/lpc_speech_synth.h **** #include "plaits/dsp/dsp.h"
  35:eurorack/plaits/dsp/speech/lpc_speech_synth.h **** 
  36:eurorack/plaits/dsp/speech/lpc_speech_synth.h **** namespace plaits {
  37:eurorack/plaits/dsp/speech/lpc_speech_synth.h **** 
  38:eurorack/plaits/dsp/speech/lpc_speech_synth.h **** const int kLPCOrder = 10;
  39:eurorack/plaits/dsp/speech/lpc_speech_synth.h **** 
  40:eurorack/plaits/dsp/speech/lpc_speech_synth.h **** const float kLPCSpeechSynthDefaultF0 = 100.0f;
  41:eurorack/plaits/dsp/speech/lpc_speech_synth.h **** 
  42:eurorack/plaits/dsp/speech/lpc_speech_synth.h **** class LPCSpeechSynth {
  43:eurorack/plaits/dsp/speech/lpc_speech_synth.h ****  public:
  44:eurorack/plaits/dsp/speech/lpc_speech_synth.h ****   LPCSpeechSynth() { }
  45:eurorack/plaits/dsp/speech/lpc_speech_synth.h ****   ~LPCSpeechSynth() { }
  46:eurorack/plaits/dsp/speech/lpc_speech_synth.h **** 
  47:eurorack/plaits/dsp/speech/lpc_speech_synth.h ****   struct Frame {
  48:eurorack/plaits/dsp/speech/lpc_speech_synth.h ****     // 14 bytes.
  49:eurorack/plaits/dsp/speech/lpc_speech_synth.h ****     uint8_t energy;
  50:eurorack/plaits/dsp/speech/lpc_speech_synth.h ****     uint8_t period;
  51:eurorack/plaits/dsp/speech/lpc_speech_synth.h ****     int16_t k0;
  52:eurorack/plaits/dsp/speech/lpc_speech_synth.h ****     int16_t k1;
  53:eurorack/plaits/dsp/speech/lpc_speech_synth.h ****     int8_t k2;
  54:eurorack/plaits/dsp/speech/lpc_speech_synth.h ****     int8_t k3;
  55:eurorack/plaits/dsp/speech/lpc_speech_synth.h ****     int8_t k4;
  56:eurorack/plaits/dsp/speech/lpc_speech_synth.h ****     int8_t k5;
  57:eurorack/plaits/dsp/speech/lpc_speech_synth.h ****     int8_t k6;
  58:eurorack/plaits/dsp/speech/lpc_speech_synth.h ****     int8_t k7;
  59:eurorack/plaits/dsp/speech/lpc_speech_synth.h ****     int8_t k8;
  60:eurorack/plaits/dsp/speech/lpc_speech_synth.h ****     int8_t k9;
  61:eurorack/plaits/dsp/speech/lpc_speech_synth.h ****   };
  62:eurorack/plaits/dsp/speech/lpc_speech_synth.h **** 
  63:eurorack/plaits/dsp/speech/lpc_speech_synth.h ****   void Init();
  64:eurorack/plaits/dsp/speech/lpc_speech_synth.h ****   
  65:eurorack/plaits/dsp/speech/lpc_speech_synth.h ****   void Render(
  66:eurorack/plaits/dsp/speech/lpc_speech_synth.h ****       float prosody_amount,
  67:eurorack/plaits/dsp/speech/lpc_speech_synth.h ****       float pitch_shift,
  68:eurorack/plaits/dsp/speech/lpc_speech_synth.h ****       float* excitation,
  69:eurorack/plaits/dsp/speech/lpc_speech_synth.h ****       float* output,
  70:eurorack/plaits/dsp/speech/lpc_speech_synth.h ****       size_t size);
  71:eurorack/plaits/dsp/speech/lpc_speech_synth.h ****   
  72:eurorack/plaits/dsp/speech/lpc_speech_synth.h ****   void PlayFrame(const Frame* frames, float frame, bool interpolate) {
  29              		.loc 1 72 8 view -0
  30              		.cfi_startproc
  31              		@ args = 0, pretend = 0, frame = 0
  32              		@ frame_needed = 0, uses_anonymous_args = 0
  33              		@ link register save eliminated.
  73:eurorack/plaits/dsp/speech/lpc_speech_synth.h ****     MAKE_INTEGRAL_FRACTIONAL(frame);
  34              		.loc 1 73 5 view .LVU1
  35 0000 FDEEC07A 		vcvt.s32.f32	s15, s0
  36              	.LVL1:
  37              		.loc 1 73 5 view .LVU2
  38              		.loc 1 73 36 view .LVU3
  74:eurorack/plaits/dsp/speech/lpc_speech_synth.h ****     
  75:eurorack/plaits/dsp/speech/lpc_speech_synth.h ****     if (!interpolate) {
  39              		.loc 1 75 5 view .LVU4
  40 0004 6AB1     		cbz	r2, .L3
ARM GAS  /var/folders/9s/8rp0_f2s1n31qbztm3b5_fdh0000gn/T//ccHPFdxP.s 			page 3


  73:eurorack/plaits/dsp/speech/lpc_speech_synth.h ****     MAKE_INTEGRAL_FRACTIONAL(frame);
  41              		.loc 1 73 5 is_stmt 0 view .LVU5
  42 0006 B8EEE77A 		vcvt.f32.s32	s14, s15
  43              	.LVL2:
  73:eurorack/plaits/dsp/speech/lpc_speech_synth.h ****     MAKE_INTEGRAL_FRACTIONAL(frame);
  44              		.loc 1 73 5 view .LVU6
  45 000a 30EE470A 		vsub.f32	s0, s0, s14
  46              	.LVL3:
  47              	.L2:
  76:eurorack/plaits/dsp/speech/lpc_speech_synth.h ****       frame_fractional = 0.0f;
  77:eurorack/plaits/dsp/speech/lpc_speech_synth.h ****     }
  78:eurorack/plaits/dsp/speech/lpc_speech_synth.h ****     PlayFrame(
  48              		.loc 1 78 5 is_stmt 1 view .LVU7
  79:eurorack/plaits/dsp/speech/lpc_speech_synth.h ****         frames[frame_integral],
  49              		.loc 1 79 30 is_stmt 0 view .LVU8
  50 000e 0E23     		movs	r3, #14
  51 0010 17EE902A 		vmov	r2, s15	@ int
  52              	.LVL4:
  53              		.loc 1 79 30 view .LVU9
  54 0014 5A43     		muls	r2, r3, r2
  55 0016 1346     		mov	r3, r2
  78:eurorack/plaits/dsp/speech/lpc_speech_synth.h ****         frames[frame_integral],
  56              		.loc 1 78 14 view .LVU10
  57 0018 0E32     		adds	r2, r2, #14
  58 001a 0A44     		add	r2, r2, r1
  59 001c 1944     		add	r1, r1, r3
  60              	.LVL5:
  78:eurorack/plaits/dsp/speech/lpc_speech_synth.h ****         frames[frame_integral],
  61              		.loc 1 78 14 view .LVU11
  62 001e FFF7FEBF 		b	_ZN6plaits14LPCSpeechSynth9PlayFrameERKNS0_5FrameES3_f
  63              	.LVL6:
  64              	.L3:
  76:eurorack/plaits/dsp/speech/lpc_speech_synth.h ****       frame_fractional = 0.0f;
  65              		.loc 1 76 24 view .LVU12
  66 0022 9FED010A 		vldr.32	s0, .L4
  67              	.LVL7:
  76:eurorack/plaits/dsp/speech/lpc_speech_synth.h ****       frame_fractional = 0.0f;
  68              		.loc 1 76 24 view .LVU13
  69 0026 F2E7     		b	.L2
  70              	.L5:
  71              		.align	2
  72              	.L4:
  73 0028 00000000 		.word	0
  74              		.cfi_endproc
  75              	.LFE579:
  77              		.section	.text._ZN6plaits9BitStream7GetBitsEi,"axG",%progbits,_ZN6plaits9BitStream7GetBitsEi,comda
  78              		.align	1
  79              		.weak	_ZN6plaits9BitStream7GetBitsEi
  80              		.syntax unified
  81              		.thumb
  82              		.thumb_func
  84              	_ZN6plaits9BitStream7GetBitsEi:
  85              	.LVL8:
  86              	.LFB603:
  87              		.file 2 "eurorack/plaits/dsp/speech/lpc_speech_synth_controller.h"
   1:eurorack/plaits/dsp/speech/lpc_speech_synth_controller.h **** // Copyright 2016 Emilie Gillet.
   2:eurorack/plaits/dsp/speech/lpc_speech_synth_controller.h **** //
ARM GAS  /var/folders/9s/8rp0_f2s1n31qbztm3b5_fdh0000gn/T//ccHPFdxP.s 			page 4


   3:eurorack/plaits/dsp/speech/lpc_speech_synth_controller.h **** // Author: Emilie Gillet (emilie.o.gillet@gmail.com)
   4:eurorack/plaits/dsp/speech/lpc_speech_synth_controller.h **** //
   5:eurorack/plaits/dsp/speech/lpc_speech_synth_controller.h **** // Permission is hereby granted, free of charge, to any person obtaining a copy
   6:eurorack/plaits/dsp/speech/lpc_speech_synth_controller.h **** // of this software and associated documentation files (the "Software"), to deal
   7:eurorack/plaits/dsp/speech/lpc_speech_synth_controller.h **** // in the Software without restriction, including without limitation the rights
   8:eurorack/plaits/dsp/speech/lpc_speech_synth_controller.h **** // to use, copy, modify, merge, publish, distribute, sublicense, and/or sell
   9:eurorack/plaits/dsp/speech/lpc_speech_synth_controller.h **** // copies of the Software, and to permit persons to whom the Software is
  10:eurorack/plaits/dsp/speech/lpc_speech_synth_controller.h **** // furnished to do so, subject to the following conditions:
  11:eurorack/plaits/dsp/speech/lpc_speech_synth_controller.h **** // 
  12:eurorack/plaits/dsp/speech/lpc_speech_synth_controller.h **** // The above copyright notice and this permission notice shall be included in
  13:eurorack/plaits/dsp/speech/lpc_speech_synth_controller.h **** // all copies or substantial portions of the Software.
  14:eurorack/plaits/dsp/speech/lpc_speech_synth_controller.h **** // 
  15:eurorack/plaits/dsp/speech/lpc_speech_synth_controller.h **** // THE SOFTWARE IS PROVIDED "AS IS", WITHOUT WARRANTY OF ANY KIND, EXPRESS OR
  16:eurorack/plaits/dsp/speech/lpc_speech_synth_controller.h **** // IMPLIED, INCLUDING BUT NOT LIMITED TO THE WARRANTIES OF MERCHANTABILITY,
  17:eurorack/plaits/dsp/speech/lpc_speech_synth_controller.h **** // FITNESS FOR A PARTICULAR PURPOSE AND NONINFRINGEMENT. IN NO EVENT SHALL THE
  18:eurorack/plaits/dsp/speech/lpc_speech_synth_controller.h **** // AUTHORS OR COPYRIGHT HOLDERS BE LIABLE FOR ANY CLAIM, DAMAGES OR OTHER
  19:eurorack/plaits/dsp/speech/lpc_speech_synth_controller.h **** // LIABILITY, WHETHER IN AN ACTION OF CONTRACT, TORT OR OTHERWISE, ARISING FROM,
  20:eurorack/plaits/dsp/speech/lpc_speech_synth_controller.h **** // OUT OF OR IN CONNECTION WITH THE SOFTWARE OR THE USE OR OTHER DEALINGS IN
  21:eurorack/plaits/dsp/speech/lpc_speech_synth_controller.h **** // THE SOFTWARE.
  22:eurorack/plaits/dsp/speech/lpc_speech_synth_controller.h **** // 
  23:eurorack/plaits/dsp/speech/lpc_speech_synth_controller.h **** // See http://creativecommons.org/licenses/MIT/ for more information.
  24:eurorack/plaits/dsp/speech/lpc_speech_synth_controller.h **** //
  25:eurorack/plaits/dsp/speech/lpc_speech_synth_controller.h **** // -----------------------------------------------------------------------------
  26:eurorack/plaits/dsp/speech/lpc_speech_synth_controller.h **** //
  27:eurorack/plaits/dsp/speech/lpc_speech_synth_controller.h **** // Feeds frames to the LPC10 speech synth.
  28:eurorack/plaits/dsp/speech/lpc_speech_synth_controller.h **** 
  29:eurorack/plaits/dsp/speech/lpc_speech_synth_controller.h **** #ifndef PLAITS_DSP_SPEECH_LPC_SPEECH_SYNTH_CONTROLLER_H_
  30:eurorack/plaits/dsp/speech/lpc_speech_synth_controller.h **** #define PLAITS_DSP_SPEECH_LPC_SPEECH_SYNTH_CONTROLLER_H_
  31:eurorack/plaits/dsp/speech/lpc_speech_synth_controller.h **** 
  32:eurorack/plaits/dsp/speech/lpc_speech_synth_controller.h **** #include "plaits/dsp/speech/lpc_speech_synth.h"
  33:eurorack/plaits/dsp/speech/lpc_speech_synth_controller.h **** 
  34:eurorack/plaits/dsp/speech/lpc_speech_synth_controller.h **** #include "stmlib/utils/buffer_allocator.h"
  35:eurorack/plaits/dsp/speech/lpc_speech_synth_controller.h **** 
  36:eurorack/plaits/dsp/speech/lpc_speech_synth_controller.h **** namespace plaits {
  37:eurorack/plaits/dsp/speech/lpc_speech_synth_controller.h **** 
  38:eurorack/plaits/dsp/speech/lpc_speech_synth_controller.h **** class BitStream {
  39:eurorack/plaits/dsp/speech/lpc_speech_synth_controller.h ****  public:
  40:eurorack/plaits/dsp/speech/lpc_speech_synth_controller.h ****   BitStream() { }
  41:eurorack/plaits/dsp/speech/lpc_speech_synth_controller.h ****   ~BitStream() { }
  42:eurorack/plaits/dsp/speech/lpc_speech_synth_controller.h **** 
  43:eurorack/plaits/dsp/speech/lpc_speech_synth_controller.h ****   inline void Init(const uint8_t* p) {
  44:eurorack/plaits/dsp/speech/lpc_speech_synth_controller.h ****     p_ = p;
  45:eurorack/plaits/dsp/speech/lpc_speech_synth_controller.h ****     available_ = 0;
  46:eurorack/plaits/dsp/speech/lpc_speech_synth_controller.h ****     bits_ = 0;
  47:eurorack/plaits/dsp/speech/lpc_speech_synth_controller.h ****   }
  48:eurorack/plaits/dsp/speech/lpc_speech_synth_controller.h **** 
  49:eurorack/plaits/dsp/speech/lpc_speech_synth_controller.h ****   inline void Flush() {
  50:eurorack/plaits/dsp/speech/lpc_speech_synth_controller.h ****     while (available_) {
  51:eurorack/plaits/dsp/speech/lpc_speech_synth_controller.h ****       GetBits(1);
  52:eurorack/plaits/dsp/speech/lpc_speech_synth_controller.h ****     }
  53:eurorack/plaits/dsp/speech/lpc_speech_synth_controller.h ****   }
  54:eurorack/plaits/dsp/speech/lpc_speech_synth_controller.h **** 
  55:eurorack/plaits/dsp/speech/lpc_speech_synth_controller.h ****   inline uint8_t GetBits(int num_bits) {
  88              		.loc 2 55 18 is_stmt 1 view -0
  89              		.cfi_startproc
  90              		@ args = 0, pretend = 0, frame = 0
  91              		@ frame_needed = 0, uses_anonymous_args = 0
ARM GAS  /var/folders/9s/8rp0_f2s1n31qbztm3b5_fdh0000gn/T//ccHPFdxP.s 			page 5


  56:eurorack/plaits/dsp/speech/lpc_speech_synth_controller.h ****     int shift = num_bits;
  92              		.loc 2 56 5 view .LVU15
  57:eurorack/plaits/dsp/speech/lpc_speech_synth_controller.h ****     if (num_bits > available_) {
  93              		.loc 2 57 5 view .LVU16
  55:eurorack/plaits/dsp/speech/lpc_speech_synth_controller.h ****     int shift = num_bits;
  94              		.loc 2 55 18 is_stmt 0 view .LVU17
  95 0000 F0B5     		push	{r4, r5, r6, r7, lr}
  96              		.cfi_def_cfa_offset 20
  97              		.cfi_offset 4, -20
  98              		.cfi_offset 5, -16
  99              		.cfi_offset 6, -12
 100              		.cfi_offset 7, -8
 101              		.cfi_offset 14, -4
 102              		.loc 2 57 20 view .LVU18
 103 0002 4668     		ldr	r6, [r0, #4]
 104              		.loc 2 57 5 view .LVU19
 105 0004 8E42     		cmp	r6, r1
 106 0006 28DA     		bge	.L8
  58:eurorack/plaits/dsp/speech/lpc_speech_synth_controller.h ****       bits_ <<= available_;
 107              		.loc 2 58 7 is_stmt 1 view .LVU20
 108              		.loc 2 58 13 is_stmt 0 view .LVU21
 109 0008 0489     		ldrh	r4, [r0, #8]
  59:eurorack/plaits/dsp/speech/lpc_speech_synth_controller.h ****       shift -= available_;
 110              		.loc 2 59 13 view .LVU22
 111 000a 8D1B     		subs	r5, r1, r6
  60:eurorack/plaits/dsp/speech/lpc_speech_synth_controller.h ****       bits_ |= Reverse(*p_++);
 112              		.loc 2 60 25 view .LVU23
 113 000c 0368     		ldr	r3, [r0]
  58:eurorack/plaits/dsp/speech/lpc_speech_synth_controller.h ****       bits_ <<= available_;
 114              		.loc 2 58 13 view .LVU24
 115 000e B440     		lsls	r4, r4, r6
  61:eurorack/plaits/dsp/speech/lpc_speech_synth_controller.h ****       available_ += 8;
 116              		.loc 2 61 18 view .LVU25
 117 0010 0836     		adds	r6, r6, #8
  60:eurorack/plaits/dsp/speech/lpc_speech_synth_controller.h ****       bits_ |= Reverse(*p_++);
 118              		.loc 2 60 27 view .LVU26
 119 0012 5A1C     		adds	r2, r3, #1
  58:eurorack/plaits/dsp/speech/lpc_speech_synth_controller.h ****       shift -= available_;
 120              		.loc 2 58 13 view .LVU27
 121 0014 A4B2     		uxth	r4, r4
  60:eurorack/plaits/dsp/speech/lpc_speech_synth_controller.h ****       bits_ |= Reverse(*p_++);
 122              		.loc 2 60 27 view .LVU28
 123 0016 0260     		str	r2, [r0]
  58:eurorack/plaits/dsp/speech/lpc_speech_synth_controller.h ****       shift -= available_;
 124              		.loc 2 58 13 view .LVU29
 125 0018 0481     		strh	r4, [r0, #8]	@ movhi
  59:eurorack/plaits/dsp/speech/lpc_speech_synth_controller.h ****       bits_ |= Reverse(*p_++);
 126              		.loc 2 59 7 is_stmt 1 view .LVU30
 127              	.LVL9:
  60:eurorack/plaits/dsp/speech/lpc_speech_synth_controller.h ****       available_ += 8;
 128              		.loc 2 60 7 view .LVU31
  60:eurorack/plaits/dsp/speech/lpc_speech_synth_controller.h ****       available_ += 8;
 129              		.loc 2 60 23 is_stmt 0 view .LVU32
 130 001a 1B78     		ldrb	r3, [r3]	@ zero_extendqisi2
 131              	.LVL10:
 132              	.LBB102:
 133              	.LBI102:
ARM GAS  /var/folders/9s/8rp0_f2s1n31qbztm3b5_fdh0000gn/T//ccHPFdxP.s 			page 6


  62:eurorack/plaits/dsp/speech/lpc_speech_synth_controller.h ****     }
  63:eurorack/plaits/dsp/speech/lpc_speech_synth_controller.h ****     bits_ <<= shift;
  64:eurorack/plaits/dsp/speech/lpc_speech_synth_controller.h ****     uint8_t result = bits_ >> 8;
  65:eurorack/plaits/dsp/speech/lpc_speech_synth_controller.h ****     bits_ &= 0xff;
  66:eurorack/plaits/dsp/speech/lpc_speech_synth_controller.h ****     available_ -= num_bits;
  67:eurorack/plaits/dsp/speech/lpc_speech_synth_controller.h ****     return result;
  68:eurorack/plaits/dsp/speech/lpc_speech_synth_controller.h ****   }
  69:eurorack/plaits/dsp/speech/lpc_speech_synth_controller.h **** 
  70:eurorack/plaits/dsp/speech/lpc_speech_synth_controller.h ****   inline const uint8_t* ptr() const { return p_; }
  71:eurorack/plaits/dsp/speech/lpc_speech_synth_controller.h **** 
  72:eurorack/plaits/dsp/speech/lpc_speech_synth_controller.h ****  private:
  73:eurorack/plaits/dsp/speech/lpc_speech_synth_controller.h ****   inline uint8_t Reverse(uint8_t b) const {
 134              		.loc 2 73 18 is_stmt 1 view .LVU33
 135              	.LBB103:
  74:eurorack/plaits/dsp/speech/lpc_speech_synth_controller.h ****     b = (b >> 4) | (b << 4);
 136              		.loc 2 74 5 view .LVU34
 137              	.LBE103:
 138              	.LBE102:
  61:eurorack/plaits/dsp/speech/lpc_speech_synth_controller.h ****     }
 139              		.loc 2 61 18 is_stmt 0 view .LVU35
 140 001c 4660     		str	r6, [r0, #4]
 141              	.LBB105:
 142              	.LBB104:
 143              		.loc 2 74 23 view .LVU36
 144 001e 1A01     		lsls	r2, r3, #4
 145              		.loc 2 74 18 view .LVU37
 146 0020 42EA1312 		orr	r2, r2, r3, lsr #4
 147              	.LVL11:
  75:eurorack/plaits/dsp/speech/lpc_speech_synth_controller.h ****   	b = ((b & 0xcc) >> 2) | ((b & 0x33) << 2);
 148              		.loc 2 75 4 is_stmt 1 view .LVU38
 149              		.loc 2 75 20 is_stmt 0 view .LVU39
 150 0024 C2F38503 		ubfx	r3, r2, #2, #6
 151 0028 03F03307 		and	r7, r3, #51
 152              		.loc 2 75 40 view .LVU40
 153 002c 9300     		lsls	r3, r2, #2
 154              		.loc 2 75 26 view .LVU41
 155 002e 03F0CC03 		and	r3, r3, #204
 156              		.loc 2 75 6 view .LVU42
 157 0032 3B43     		orrs	r3, r3, r7
 158              	.LVL12:
  76:eurorack/plaits/dsp/speech/lpc_speech_synth_controller.h ****   	b = ((b & 0xaa) >> 1) | ((b & 0x55) << 1);
 159              		.loc 2 76 4 is_stmt 1 view .LVU43
 160              		.loc 2 76 20 is_stmt 0 view .LVU44
 161 0034 5A08     		lsrs	r2, r3, #1
 162              		.loc 2 76 40 view .LVU45
 163 0036 5B00     		lsls	r3, r3, #1
 164              	.LVL13:
 165              		.loc 2 76 20 view .LVU46
 166 0038 02F05502 		and	r2, r2, #85
 167              		.loc 2 76 26 view .LVU47
 168 003c 03F0AA03 		and	r3, r3, #170
  77:eurorack/plaits/dsp/speech/lpc_speech_synth_controller.h ****     return b;
 169              		.loc 2 77 5 is_stmt 1 view .LVU48
 170              	.LVL14:
 171              		.loc 2 77 5 is_stmt 0 view .LVU49
 172              	.LBE104:
 173              	.LBE105:
ARM GAS  /var/folders/9s/8rp0_f2s1n31qbztm3b5_fdh0000gn/T//ccHPFdxP.s 			page 7


  60:eurorack/plaits/dsp/speech/lpc_speech_synth_controller.h ****       available_ += 8;
 174              		.loc 2 60 13 view .LVU50
 175 0040 1343     		orrs	r3, r3, r2
 176 0042 1C43     		orrs	r4, r4, r3
 177 0044 0481     		strh	r4, [r0, #8]	@ movhi
  61:eurorack/plaits/dsp/speech/lpc_speech_synth_controller.h ****     }
 178              		.loc 2 61 7 is_stmt 1 view .LVU51
 179              	.L7:
  63:eurorack/plaits/dsp/speech/lpc_speech_synth_controller.h ****     uint8_t result = bits_ >> 8;
 180              		.loc 2 63 5 view .LVU52
  64:eurorack/plaits/dsp/speech/lpc_speech_synth_controller.h ****     bits_ &= 0xff;
 181              		.loc 2 64 5 view .LVU53
  63:eurorack/plaits/dsp/speech/lpc_speech_synth_controller.h ****     uint8_t result = bits_ >> 8;
 182              		.loc 2 63 11 is_stmt 0 view .LVU54
 183 0046 0389     		ldrh	r3, [r0, #8]
 184 0048 AB40     		lsls	r3, r3, r5
 185              	.LVL15:
  65:eurorack/plaits/dsp/speech/lpc_speech_synth_controller.h ****     available_ -= num_bits;
 186              		.loc 2 65 5 is_stmt 1 view .LVU55
  65:eurorack/plaits/dsp/speech/lpc_speech_synth_controller.h ****     available_ -= num_bits;
 187              		.loc 2 65 11 is_stmt 0 view .LVU56
 188 004a DAB2     		uxtb	r2, r3
 189 004c 0281     		strh	r2, [r0, #8]	@ movhi
  66:eurorack/plaits/dsp/speech/lpc_speech_synth_controller.h ****     return result;
 190              		.loc 2 66 5 is_stmt 1 view .LVU57
  66:eurorack/plaits/dsp/speech/lpc_speech_synth_controller.h ****     return result;
 191              		.loc 2 66 16 is_stmt 0 view .LVU58
 192 004e 4268     		ldr	r2, [r0, #4]
 193 0050 511A     		subs	r1, r2, r1
 194              	.LVL16:
  66:eurorack/plaits/dsp/speech/lpc_speech_synth_controller.h ****     return result;
 195              		.loc 2 66 16 view .LVU59
 196 0052 4160     		str	r1, [r0, #4]
  67:eurorack/plaits/dsp/speech/lpc_speech_synth_controller.h ****   }
 197              		.loc 2 67 5 is_stmt 1 view .LVU60
  68:eurorack/plaits/dsp/speech/lpc_speech_synth_controller.h **** 
 198              		.loc 2 68 3 is_stmt 0 view .LVU61
 199 0054 C3F30720 		ubfx	r0, r3, #8, #8
 200              	.LVL17:
  68:eurorack/plaits/dsp/speech/lpc_speech_synth_controller.h **** 
 201              		.loc 2 68 3 view .LVU62
 202 0058 F0BD     		pop	{r4, r5, r6, r7, pc}
 203              	.LVL18:
 204              	.L8:
  68:eurorack/plaits/dsp/speech/lpc_speech_synth_controller.h **** 
 205              		.loc 2 68 3 view .LVU63
 206 005a 0D46     		mov	r5, r1
 207 005c F3E7     		b	.L7
 208              		.cfi_endproc
 209              	.LFE603:
 211              		.section	.text._ZN6stmlib16SemitonesToRatioEf,"axG",%progbits,_ZN6stmlib16SemitonesToRatioEf,comda
 212              		.align	1
 213              		.weak	_ZN6stmlib16SemitonesToRatioEf
 214              		.syntax unified
 215              		.thumb
 216              		.thumb_func
 218              	_ZN6stmlib16SemitonesToRatioEf:
ARM GAS  /var/folders/9s/8rp0_f2s1n31qbztm3b5_fdh0000gn/T//ccHPFdxP.s 			page 8


 219              	.LVL19:
 220              	.LFB1460:
 221              		.file 3 "eurorack/stmlib/dsp/units.h"
   1:eurorack/stmlib/dsp/units.h **** // Copyright 2014 Emilie Gillet.
   2:eurorack/stmlib/dsp/units.h **** //
   3:eurorack/stmlib/dsp/units.h **** // Author: Emilie Gillet (emilie.o.gillet@gmail.com)
   4:eurorack/stmlib/dsp/units.h **** //
   5:eurorack/stmlib/dsp/units.h **** // Permission is hereby granted, free of charge, to any person obtaining a copy
   6:eurorack/stmlib/dsp/units.h **** // of this software and associated documentation files (the "Software"), to deal
   7:eurorack/stmlib/dsp/units.h **** // in the Software without restriction, including without limitation the rights
   8:eurorack/stmlib/dsp/units.h **** // to use, copy, modify, merge, publish, distribute, sublicense, and/or sell
   9:eurorack/stmlib/dsp/units.h **** // copies of the Software, and to permit persons to whom the Software is
  10:eurorack/stmlib/dsp/units.h **** // furnished to do so, subject to the following conditions:
  11:eurorack/stmlib/dsp/units.h **** // 
  12:eurorack/stmlib/dsp/units.h **** // The above copyright notice and this permission notice shall be included in
  13:eurorack/stmlib/dsp/units.h **** // all copies or substantial portions of the Software.
  14:eurorack/stmlib/dsp/units.h **** // 
  15:eurorack/stmlib/dsp/units.h **** // THE SOFTWARE IS PROVIDED "AS IS", WITHOUT WARRANTY OF ANY KIND, EXPRESS OR
  16:eurorack/stmlib/dsp/units.h **** // IMPLIED, INCLUDING BUT NOT LIMITED TO THE WARRANTIES OF MERCHANTABILITY,
  17:eurorack/stmlib/dsp/units.h **** // FITNESS FOR A PARTICULAR PURPOSE AND NONINFRINGEMENT. IN NO EVENT SHALL THE
  18:eurorack/stmlib/dsp/units.h **** // AUTHORS OR COPYRIGHT HOLDERS BE LIABLE FOR ANY CLAIM, DAMAGES OR OTHER
  19:eurorack/stmlib/dsp/units.h **** // LIABILITY, WHETHER IN AN ACTION OF CONTRACT, TORT OR OTHERWISE, ARISING FROM,
  20:eurorack/stmlib/dsp/units.h **** // OUT OF OR IN CONNECTION WITH THE SOFTWARE OR THE USE OR OTHER DEALINGS IN
  21:eurorack/stmlib/dsp/units.h **** // THE SOFTWARE.
  22:eurorack/stmlib/dsp/units.h **** // 
  23:eurorack/stmlib/dsp/units.h **** // See http://creativecommons.org/licenses/MIT/ for more information.
  24:eurorack/stmlib/dsp/units.h **** //
  25:eurorack/stmlib/dsp/units.h **** // -----------------------------------------------------------------------------
  26:eurorack/stmlib/dsp/units.h **** //
  27:eurorack/stmlib/dsp/units.h **** // Conversion from semitones to frequency ratio.
  28:eurorack/stmlib/dsp/units.h **** 
  29:eurorack/stmlib/dsp/units.h **** #ifndef STMLIB_DSP_UNITS_H_
  30:eurorack/stmlib/dsp/units.h **** #define STMLIB_DSP_UNITS_H_
  31:eurorack/stmlib/dsp/units.h **** 
  32:eurorack/stmlib/dsp/units.h **** #include "stmlib/stmlib.h"
  33:eurorack/stmlib/dsp/units.h **** #include "stmlib/dsp/dsp.h"
  34:eurorack/stmlib/dsp/units.h **** 
  35:eurorack/stmlib/dsp/units.h **** namespace stmlib {
  36:eurorack/stmlib/dsp/units.h **** 
  37:eurorack/stmlib/dsp/units.h **** extern const float lut_pitch_ratio_high[257];
  38:eurorack/stmlib/dsp/units.h **** extern const float lut_pitch_ratio_low[257];
  39:eurorack/stmlib/dsp/units.h **** 
  40:eurorack/stmlib/dsp/units.h **** inline float SemitonesToRatio(float semitones) {
 222              		.loc 3 40 48 is_stmt 1 view -0
 223              		.cfi_startproc
 224              		@ args = 0, pretend = 0, frame = 0
 225              		@ frame_needed = 0, uses_anonymous_args = 0
 226              		@ link register save eliminated.
  41:eurorack/stmlib/dsp/units.h ****   float pitch = semitones + 128.0f;
 227              		.loc 3 41 3 view .LVU65
 228              		.loc 3 41 9 is_stmt 0 view .LVU66
 229 0000 DFED0E7A 		vldr.32	s15, .L10
  42:eurorack/stmlib/dsp/units.h ****   MAKE_INTEGRAL_FRACTIONAL(pitch)
  43:eurorack/stmlib/dsp/units.h **** 
  44:eurorack/stmlib/dsp/units.h ****   return lut_pitch_ratio_high[pitch_integral] * \
  45:eurorack/stmlib/dsp/units.h ****       lut_pitch_ratio_low[static_cast<int32_t>(pitch_fractional * 256.0f)];
 230              		.loc 3 45 74 view .LVU67
ARM GAS  /var/folders/9s/8rp0_f2s1n31qbztm3b5_fdh0000gn/T//ccHPFdxP.s 			page 9


 231 0004 0E4A     		ldr	r2, .L10+4
  41:eurorack/stmlib/dsp/units.h ****   float pitch = semitones + 128.0f;
 232              		.loc 3 41 9 view .LVU68
 233 0006 30EE270A 		vadd.f32	s0, s0, s15
 234              	.LVL20:
  42:eurorack/stmlib/dsp/units.h ****   MAKE_INTEGRAL_FRACTIONAL(pitch)
 235              		.loc 3 42 3 is_stmt 1 view .LVU69
 236 000a FDEEC07A 		vcvt.s32.f32	s15, s0
 237              	.LVL21:
  42:eurorack/stmlib/dsp/units.h ****   MAKE_INTEGRAL_FRACTIONAL(pitch)
 238              		.loc 3 42 3 view .LVU70
  44:eurorack/stmlib/dsp/units.h ****       lut_pitch_ratio_low[static_cast<int32_t>(pitch_fractional * 256.0f)];
 239              		.loc 3 44 3 view .LVU71
  42:eurorack/stmlib/dsp/units.h ****   MAKE_INTEGRAL_FRACTIONAL(pitch)
 240              		.loc 3 42 3 is_stmt 0 view .LVU72
 241 000e B8EEE77A 		vcvt.f32.s32	s14, s15
  44:eurorack/stmlib/dsp/units.h ****       lut_pitch_ratio_low[static_cast<int32_t>(pitch_fractional * 256.0f)];
 242              		.loc 3 44 45 view .LVU73
 243 0012 17EE901A 		vmov	r1, s15	@ int
  42:eurorack/stmlib/dsp/units.h ****   MAKE_INTEGRAL_FRACTIONAL(pitch)
 244              		.loc 3 42 3 view .LVU74
 245 0016 30EE470A 		vsub.f32	s0, s0, s14
 246              	.LVL22:
 247              		.loc 3 45 27 view .LVU75
 248 001a BEEECC0A 		vcvt.s32.f32	s0, s0, #8
 249              	.LVL23:
 250              		.loc 3 45 74 view .LVU76
 251 001e 10EE103A 		vmov	r3, s0	@ int
 252 0022 02EB8302 		add	r2, r2, r3, lsl #2
  44:eurorack/stmlib/dsp/units.h ****       lut_pitch_ratio_low[static_cast<int32_t>(pitch_fractional * 256.0f)];
 253              		.loc 3 44 45 view .LVU77
 254 0026 074B     		ldr	r3, .L10+8
 255 0028 03EB8103 		add	r3, r3, r1, lsl #2
 256              		.loc 3 45 74 view .LVU78
 257 002c 92ED000A 		vldr.32	s0, [r2]
 258 0030 D3ED007A 		vldr.32	s15, [r3]
 259              	.LVL24:
  46:eurorack/stmlib/dsp/units.h **** }
 260              		.loc 3 46 1 view .LVU79
 261 0034 20EE270A 		vmul.f32	s0, s0, s15
 262 0038 7047     		bx	lr
 263              	.L11:
 264 003a 00BF     		.align	2
 265              	.L10:
 266 003c 00000043 		.word	1124073472
 267 0040 00000000 		.word	_ZN6stmlib19lut_pitch_ratio_lowE
 268 0044 00000000 		.word	_ZN6stmlib20lut_pitch_ratio_highE
 269              		.cfi_endproc
 270              	.LFE1460:
 272              		.section	.text._ZN6plaits22LPCSpeechSynthWordBank5ResetEv,"ax",%progbits
 273              		.align	1
 274              		.global	_ZN6plaits22LPCSpeechSynthWordBank5ResetEv
 275              		.syntax unified
 276              		.thumb
 277              		.thumb_func
 279              	_ZN6plaits22LPCSpeechSynthWordBank5ResetEv:
 280              	.LVL25:
ARM GAS  /var/folders/9s/8rp0_f2s1n31qbztm3b5_fdh0000gn/T//ccHPFdxP.s 			page 10


 281              	.LFB1498:
 282              		.file 4 "eurorack/plaits/dsp/speech/lpc_speech_synth_controller.cc"
   1:eurorack/plaits/dsp/speech/lpc_speech_synth_controller.cc **** // Copyright 2016 Emilie Gillet.
   2:eurorack/plaits/dsp/speech/lpc_speech_synth_controller.cc **** //
   3:eurorack/plaits/dsp/speech/lpc_speech_synth_controller.cc **** // Author: Emilie Gillet (emilie.o.gillet@gmail.com)
   4:eurorack/plaits/dsp/speech/lpc_speech_synth_controller.cc **** //
   5:eurorack/plaits/dsp/speech/lpc_speech_synth_controller.cc **** // Permission is hereby granted, free of charge, to any person obtaining a copy
   6:eurorack/plaits/dsp/speech/lpc_speech_synth_controller.cc **** // of this software and associated documentation files (the "Software"), to deal
   7:eurorack/plaits/dsp/speech/lpc_speech_synth_controller.cc **** // in the Software without restriction, including without limitation the rights
   8:eurorack/plaits/dsp/speech/lpc_speech_synth_controller.cc **** // to use, copy, modify, merge, publish, distribute, sublicense, and/or sell
   9:eurorack/plaits/dsp/speech/lpc_speech_synth_controller.cc **** // copies of the Software, and to permit persons to whom the Software is
  10:eurorack/plaits/dsp/speech/lpc_speech_synth_controller.cc **** // furnished to do so, subject to the following conditions:
  11:eurorack/plaits/dsp/speech/lpc_speech_synth_controller.cc **** // 
  12:eurorack/plaits/dsp/speech/lpc_speech_synth_controller.cc **** // The above copyright notice and this permission notice shall be included in
  13:eurorack/plaits/dsp/speech/lpc_speech_synth_controller.cc **** // all copies or substantial portions of the Software.
  14:eurorack/plaits/dsp/speech/lpc_speech_synth_controller.cc **** // 
  15:eurorack/plaits/dsp/speech/lpc_speech_synth_controller.cc **** // THE SOFTWARE IS PROVIDED "AS IS", WITHOUT WARRANTY OF ANY KIND, EXPRESS OR
  16:eurorack/plaits/dsp/speech/lpc_speech_synth_controller.cc **** // IMPLIED, INCLUDING BUT NOT LIMITED TO THE WARRANTIES OF MERCHANTABILITY,
  17:eurorack/plaits/dsp/speech/lpc_speech_synth_controller.cc **** // FITNESS FOR A PARTICULAR PURPOSE AND NONINFRINGEMENT. IN NO EVENT SHALL THE
  18:eurorack/plaits/dsp/speech/lpc_speech_synth_controller.cc **** // AUTHORS OR COPYRIGHT HOLDERS BE LIABLE FOR ANY CLAIM, DAMAGES OR OTHER
  19:eurorack/plaits/dsp/speech/lpc_speech_synth_controller.cc **** // LIABILITY, WHETHER IN AN ACTION OF CONTRACT, TORT OR OTHERWISE, ARISING FROM,
  20:eurorack/plaits/dsp/speech/lpc_speech_synth_controller.cc **** // OUT OF OR IN CONNECTION WITH THE SOFTWARE OR THE USE OR OTHER DEALINGS IN
  21:eurorack/plaits/dsp/speech/lpc_speech_synth_controller.cc **** // THE SOFTWARE.
  22:eurorack/plaits/dsp/speech/lpc_speech_synth_controller.cc **** // 
  23:eurorack/plaits/dsp/speech/lpc_speech_synth_controller.cc **** // See http://creativecommons.org/licenses/MIT/ for more information.
  24:eurorack/plaits/dsp/speech/lpc_speech_synth_controller.cc **** //
  25:eurorack/plaits/dsp/speech/lpc_speech_synth_controller.cc **** // -----------------------------------------------------------------------------
  26:eurorack/plaits/dsp/speech/lpc_speech_synth_controller.cc **** //
  27:eurorack/plaits/dsp/speech/lpc_speech_synth_controller.cc **** // Feeds frames to the LPC10 speech synth.
  28:eurorack/plaits/dsp/speech/lpc_speech_synth_controller.cc **** 
  29:eurorack/plaits/dsp/speech/lpc_speech_synth_controller.cc **** #include "plaits/dsp/speech/lpc_speech_synth_controller.h"
  30:eurorack/plaits/dsp/speech/lpc_speech_synth_controller.cc **** 
  31:eurorack/plaits/dsp/speech/lpc_speech_synth_controller.cc **** #include <algorithm>
  32:eurorack/plaits/dsp/speech/lpc_speech_synth_controller.cc **** 
  33:eurorack/plaits/dsp/speech/lpc_speech_synth_controller.cc **** #include "stmlib/dsp/units.h"
  34:eurorack/plaits/dsp/speech/lpc_speech_synth_controller.cc **** #include "stmlib/utils/random.h"
  35:eurorack/plaits/dsp/speech/lpc_speech_synth_controller.cc **** 
  36:eurorack/plaits/dsp/speech/lpc_speech_synth_controller.cc **** #include "plaits/dsp/oscillator/oscillator.h"
  37:eurorack/plaits/dsp/speech/lpc_speech_synth_controller.cc **** 
  38:eurorack/plaits/dsp/speech/lpc_speech_synth_controller.cc **** namespace plaits {
  39:eurorack/plaits/dsp/speech/lpc_speech_synth_controller.cc **** 
  40:eurorack/plaits/dsp/speech/lpc_speech_synth_controller.cc **** using namespace std;
  41:eurorack/plaits/dsp/speech/lpc_speech_synth_controller.cc **** using namespace stmlib;
  42:eurorack/plaits/dsp/speech/lpc_speech_synth_controller.cc **** 
  43:eurorack/plaits/dsp/speech/lpc_speech_synth_controller.cc **** /* static */
  44:eurorack/plaits/dsp/speech/lpc_speech_synth_controller.cc **** const uint8_t LPCSpeechSynthWordBank::energy_lut_[16] = {
  45:eurorack/plaits/dsp/speech/lpc_speech_synth_controller.cc ****   0x00, 0x02, 0x03, 0x04, 0x05, 0x07, 0x0a, 0x0f,
  46:eurorack/plaits/dsp/speech/lpc_speech_synth_controller.cc ****   0x14, 0x20, 0x29, 0x39, 0x51, 0x72, 0xa1, 0xff
  47:eurorack/plaits/dsp/speech/lpc_speech_synth_controller.cc **** };
  48:eurorack/plaits/dsp/speech/lpc_speech_synth_controller.cc **** 
  49:eurorack/plaits/dsp/speech/lpc_speech_synth_controller.cc **** /* static */
  50:eurorack/plaits/dsp/speech/lpc_speech_synth_controller.cc **** const uint8_t LPCSpeechSynthWordBank::period_lut_[64] = {
  51:eurorack/plaits/dsp/speech/lpc_speech_synth_controller.cc ****   0, 16, 17, 18, 19, 20, 21, 22, 23, 24, 25, 26, 27, 28, 29, 30, 31,
  52:eurorack/plaits/dsp/speech/lpc_speech_synth_controller.cc ****  32, 33, 34, 35, 36, 37, 38, 39, 40, 41, 42, 43, 45, 47, 49, 51, 53,
  53:eurorack/plaits/dsp/speech/lpc_speech_synth_controller.cc ****  54, 57, 59, 61, 63, 66, 69, 71, 73, 77, 79, 81, 85, 87, 92, 95, 99,
  54:eurorack/plaits/dsp/speech/lpc_speech_synth_controller.cc ****  102, 106, 110, 115, 119, 123, 128, 133, 138, 143, 149, 154, 160
  55:eurorack/plaits/dsp/speech/lpc_speech_synth_controller.cc **** };
ARM GAS  /var/folders/9s/8rp0_f2s1n31qbztm3b5_fdh0000gn/T//ccHPFdxP.s 			page 11


  56:eurorack/plaits/dsp/speech/lpc_speech_synth_controller.cc **** 
  57:eurorack/plaits/dsp/speech/lpc_speech_synth_controller.cc **** /* static */
  58:eurorack/plaits/dsp/speech/lpc_speech_synth_controller.cc **** const int16_t LPCSpeechSynthWordBank::k0_lut_[32] = {
  59:eurorack/plaits/dsp/speech/lpc_speech_synth_controller.cc ****   -32064, -31872, -31808, -31680, -31552, -31424, -31232, -30848,
  60:eurorack/plaits/dsp/speech/lpc_speech_synth_controller.cc ****   -30592, -30336, -30016, -29696, -29376, -28928, -28480, -27968,
  61:eurorack/plaits/dsp/speech/lpc_speech_synth_controller.cc ****   -26368, -24256, -21632, -18368, -14528, -10048,  -5184,      0,
  62:eurorack/plaits/dsp/speech/lpc_speech_synth_controller.cc ****     5184,  10048,  14528,  18368,  21632,  24256,  26368,  27968
  63:eurorack/plaits/dsp/speech/lpc_speech_synth_controller.cc **** };
  64:eurorack/plaits/dsp/speech/lpc_speech_synth_controller.cc **** 
  65:eurorack/plaits/dsp/speech/lpc_speech_synth_controller.cc **** /* static */
  66:eurorack/plaits/dsp/speech/lpc_speech_synth_controller.cc **** const int16_t LPCSpeechSynthWordBank::k1_lut_[32] = {
  67:eurorack/plaits/dsp/speech/lpc_speech_synth_controller.cc ****   -20992, -19328, -17536, -15552, -13440, -11200,  -8768,  -6272,
  68:eurorack/plaits/dsp/speech/lpc_speech_synth_controller.cc ****   -3712,   -1088,   1536,   4160,   6720,   9216,  11584,  13824,
  69:eurorack/plaits/dsp/speech/lpc_speech_synth_controller.cc ****   15936,   17856,  19648,  21248,  22656,  24000,  25152,  26176,
  70:eurorack/plaits/dsp/speech/lpc_speech_synth_controller.cc ****   27072,   27840,  28544,  29120,  29632,  30080,  30464,  32384
  71:eurorack/plaits/dsp/speech/lpc_speech_synth_controller.cc **** };
  72:eurorack/plaits/dsp/speech/lpc_speech_synth_controller.cc **** 
  73:eurorack/plaits/dsp/speech/lpc_speech_synth_controller.cc **** /* static */
  74:eurorack/plaits/dsp/speech/lpc_speech_synth_controller.cc **** const int8_t LPCSpeechSynthWordBank::k2_lut_[16] = {
  75:eurorack/plaits/dsp/speech/lpc_speech_synth_controller.cc **** -110, -97, -83, -70, -56, -43, -29, -16, -2, 11, 25, 38, 52, 65, 79, 92
  76:eurorack/plaits/dsp/speech/lpc_speech_synth_controller.cc **** };
  77:eurorack/plaits/dsp/speech/lpc_speech_synth_controller.cc **** 
  78:eurorack/plaits/dsp/speech/lpc_speech_synth_controller.cc **** /* static */
  79:eurorack/plaits/dsp/speech/lpc_speech_synth_controller.cc **** const int8_t LPCSpeechSynthWordBank::k3_lut_[16] = {
  80:eurorack/plaits/dsp/speech/lpc_speech_synth_controller.cc **** -82, -68, -54, -40, -26, -12, 1, 15, 29, 43, 57, 71, 85, 99, 113, 126
  81:eurorack/plaits/dsp/speech/lpc_speech_synth_controller.cc **** };
  82:eurorack/plaits/dsp/speech/lpc_speech_synth_controller.cc **** 
  83:eurorack/plaits/dsp/speech/lpc_speech_synth_controller.cc **** /* static */
  84:eurorack/plaits/dsp/speech/lpc_speech_synth_controller.cc **** const int8_t LPCSpeechSynthWordBank::k4_lut_[16] = {
  85:eurorack/plaits/dsp/speech/lpc_speech_synth_controller.cc ****  -82, -70, -59, -47, -35, -24, -12, -1, 11, 23, 34, 46, 57, 69, 81, 92
  86:eurorack/plaits/dsp/speech/lpc_speech_synth_controller.cc **** };
  87:eurorack/plaits/dsp/speech/lpc_speech_synth_controller.cc **** 
  88:eurorack/plaits/dsp/speech/lpc_speech_synth_controller.cc **** /* static */
  89:eurorack/plaits/dsp/speech/lpc_speech_synth_controller.cc **** const int8_t LPCSpeechSynthWordBank::k5_lut_[16] = {
  90:eurorack/plaits/dsp/speech/lpc_speech_synth_controller.cc ****   -64, -53, -42, -31, -20, -9, 3, 14, 25, 36, 47, 58, 69, 80, 91, 102
  91:eurorack/plaits/dsp/speech/lpc_speech_synth_controller.cc **** };
  92:eurorack/plaits/dsp/speech/lpc_speech_synth_controller.cc **** 
  93:eurorack/plaits/dsp/speech/lpc_speech_synth_controller.cc **** /* static */
  94:eurorack/plaits/dsp/speech/lpc_speech_synth_controller.cc **** const int8_t LPCSpeechSynthWordBank::k6_lut_[16] = {
  95:eurorack/plaits/dsp/speech/lpc_speech_synth_controller.cc ****   -77, -65, -53, -41, -29, -17, -5, 7, 19, 31, 43, 55, 67, 79, 90, 102
  96:eurorack/plaits/dsp/speech/lpc_speech_synth_controller.cc **** };
  97:eurorack/plaits/dsp/speech/lpc_speech_synth_controller.cc **** 
  98:eurorack/plaits/dsp/speech/lpc_speech_synth_controller.cc **** /* static */
  99:eurorack/plaits/dsp/speech/lpc_speech_synth_controller.cc **** const int8_t LPCSpeechSynthWordBank::k7_lut_[8] = {
 100:eurorack/plaits/dsp/speech/lpc_speech_synth_controller.cc **** -64, -40, -16, 7, 31, 55, 79, 102
 101:eurorack/plaits/dsp/speech/lpc_speech_synth_controller.cc **** };
 102:eurorack/plaits/dsp/speech/lpc_speech_synth_controller.cc **** 
 103:eurorack/plaits/dsp/speech/lpc_speech_synth_controller.cc **** /* static */
 104:eurorack/plaits/dsp/speech/lpc_speech_synth_controller.cc **** const int8_t LPCSpeechSynthWordBank::k8_lut_[8] = {
 105:eurorack/plaits/dsp/speech/lpc_speech_synth_controller.cc ****   -64, -44, -24, -4, 16, 37, 57, 77
 106:eurorack/plaits/dsp/speech/lpc_speech_synth_controller.cc **** };
 107:eurorack/plaits/dsp/speech/lpc_speech_synth_controller.cc **** 
 108:eurorack/plaits/dsp/speech/lpc_speech_synth_controller.cc **** /* static */
 109:eurorack/plaits/dsp/speech/lpc_speech_synth_controller.cc **** const int8_t LPCSpeechSynthWordBank::k9_lut_[8] = {
 110:eurorack/plaits/dsp/speech/lpc_speech_synth_controller.cc ****   -51, -33, -15, 4, 22, 32, 59, 77
 111:eurorack/plaits/dsp/speech/lpc_speech_synth_controller.cc **** };
 112:eurorack/plaits/dsp/speech/lpc_speech_synth_controller.cc **** 
ARM GAS  /var/folders/9s/8rp0_f2s1n31qbztm3b5_fdh0000gn/T//ccHPFdxP.s 			page 12


 113:eurorack/plaits/dsp/speech/lpc_speech_synth_controller.cc **** void LPCSpeechSynthWordBank::Init(
 114:eurorack/plaits/dsp/speech/lpc_speech_synth_controller.cc ****     const LPCSpeechSynthWordBankData* word_banks,
 115:eurorack/plaits/dsp/speech/lpc_speech_synth_controller.cc ****     int num_banks,
 116:eurorack/plaits/dsp/speech/lpc_speech_synth_controller.cc ****     BufferAllocator* allocator) {
 117:eurorack/plaits/dsp/speech/lpc_speech_synth_controller.cc ****   word_banks_ = word_banks;
 118:eurorack/plaits/dsp/speech/lpc_speech_synth_controller.cc ****   num_banks_ = num_banks;
 119:eurorack/plaits/dsp/speech/lpc_speech_synth_controller.cc ****   frames_ = allocator->Allocate<LPCSpeechSynth::Frame>(
 120:eurorack/plaits/dsp/speech/lpc_speech_synth_controller.cc ****       kLPCSpeechSynthMaxFrames);
 121:eurorack/plaits/dsp/speech/lpc_speech_synth_controller.cc ****   word_boundaries_ = allocator->Allocate<int>(kLPCSpeechSynthMaxWords);
 122:eurorack/plaits/dsp/speech/lpc_speech_synth_controller.cc ****   Reset();
 123:eurorack/plaits/dsp/speech/lpc_speech_synth_controller.cc **** }
 124:eurorack/plaits/dsp/speech/lpc_speech_synth_controller.cc **** 
 125:eurorack/plaits/dsp/speech/lpc_speech_synth_controller.cc **** void LPCSpeechSynthWordBank::Reset() {
 283              		.loc 4 125 38 is_stmt 1 view -0
 284              		.cfi_startproc
 285              		@ args = 0, pretend = 0, frame = 0
 286              		@ frame_needed = 0, uses_anonymous_args = 0
 287              		@ link register save eliminated.
 126:eurorack/plaits/dsp/speech/lpc_speech_synth_controller.cc ****   loaded_bank_ = -1;
 288              		.loc 4 126 3 view .LVU81
 127:eurorack/plaits/dsp/speech/lpc_speech_synth_controller.cc ****   num_frames_ = 0;
 289              		.loc 4 127 15 is_stmt 0 view .LVU82
 290 0000 0021     		movs	r1, #0
 291 0002 4FF0FF33 		mov	r3, #-1
 292              	.LBB111:
 293              	.LBB112:
 294              	.LBB113:
 295              	.LBB114:
 296              		.file 5 "/Library/DaisyToolchain/0.2.0/arm/arm-none-eabi/include/c++/10.3.1/bits/stl_algobase.h"
   1:/Library/DaisyToolchain/0.2.0/arm/arm-none-eabi/include/c++/10.3.1/bits/stl_algobase.h **** // Core algorithmic facilities -*- C++ -*-
   2:/Library/DaisyToolchain/0.2.0/arm/arm-none-eabi/include/c++/10.3.1/bits/stl_algobase.h **** 
   3:/Library/DaisyToolchain/0.2.0/arm/arm-none-eabi/include/c++/10.3.1/bits/stl_algobase.h **** // Copyright (C) 2001-2020 Free Software Foundation, Inc.
   4:/Library/DaisyToolchain/0.2.0/arm/arm-none-eabi/include/c++/10.3.1/bits/stl_algobase.h **** //
   5:/Library/DaisyToolchain/0.2.0/arm/arm-none-eabi/include/c++/10.3.1/bits/stl_algobase.h **** // This file is part of the GNU ISO C++ Library.  This library is free
   6:/Library/DaisyToolchain/0.2.0/arm/arm-none-eabi/include/c++/10.3.1/bits/stl_algobase.h **** // software; you can redistribute it and/or modify it under the
   7:/Library/DaisyToolchain/0.2.0/arm/arm-none-eabi/include/c++/10.3.1/bits/stl_algobase.h **** // terms of the GNU General Public License as published by the
   8:/Library/DaisyToolchain/0.2.0/arm/arm-none-eabi/include/c++/10.3.1/bits/stl_algobase.h **** // Free Software Foundation; either version 3, or (at your option)
   9:/Library/DaisyToolchain/0.2.0/arm/arm-none-eabi/include/c++/10.3.1/bits/stl_algobase.h **** // any later version.
  10:/Library/DaisyToolchain/0.2.0/arm/arm-none-eabi/include/c++/10.3.1/bits/stl_algobase.h **** 
  11:/Library/DaisyToolchain/0.2.0/arm/arm-none-eabi/include/c++/10.3.1/bits/stl_algobase.h **** // This library is distributed in the hope that it will be useful,
  12:/Library/DaisyToolchain/0.2.0/arm/arm-none-eabi/include/c++/10.3.1/bits/stl_algobase.h **** // but WITHOUT ANY WARRANTY; without even the implied warranty of
  13:/Library/DaisyToolchain/0.2.0/arm/arm-none-eabi/include/c++/10.3.1/bits/stl_algobase.h **** // MERCHANTABILITY or FITNESS FOR A PARTICULAR PURPOSE.  See the
  14:/Library/DaisyToolchain/0.2.0/arm/arm-none-eabi/include/c++/10.3.1/bits/stl_algobase.h **** // GNU General Public License for more details.
  15:/Library/DaisyToolchain/0.2.0/arm/arm-none-eabi/include/c++/10.3.1/bits/stl_algobase.h **** 
  16:/Library/DaisyToolchain/0.2.0/arm/arm-none-eabi/include/c++/10.3.1/bits/stl_algobase.h **** // Under Section 7 of GPL version 3, you are granted additional
  17:/Library/DaisyToolchain/0.2.0/arm/arm-none-eabi/include/c++/10.3.1/bits/stl_algobase.h **** // permissions described in the GCC Runtime Library Exception, version
  18:/Library/DaisyToolchain/0.2.0/arm/arm-none-eabi/include/c++/10.3.1/bits/stl_algobase.h **** // 3.1, as published by the Free Software Foundation.
  19:/Library/DaisyToolchain/0.2.0/arm/arm-none-eabi/include/c++/10.3.1/bits/stl_algobase.h **** 
  20:/Library/DaisyToolchain/0.2.0/arm/arm-none-eabi/include/c++/10.3.1/bits/stl_algobase.h **** // You should have received a copy of the GNU General Public License and
  21:/Library/DaisyToolchain/0.2.0/arm/arm-none-eabi/include/c++/10.3.1/bits/stl_algobase.h **** // a copy of the GCC Runtime Library Exception along with this program;
  22:/Library/DaisyToolchain/0.2.0/arm/arm-none-eabi/include/c++/10.3.1/bits/stl_algobase.h **** // see the files COPYING3 and COPYING.RUNTIME respectively.  If not, see
  23:/Library/DaisyToolchain/0.2.0/arm/arm-none-eabi/include/c++/10.3.1/bits/stl_algobase.h **** // <http://www.gnu.org/licenses/>.
  24:/Library/DaisyToolchain/0.2.0/arm/arm-none-eabi/include/c++/10.3.1/bits/stl_algobase.h **** 
  25:/Library/DaisyToolchain/0.2.0/arm/arm-none-eabi/include/c++/10.3.1/bits/stl_algobase.h **** /*
  26:/Library/DaisyToolchain/0.2.0/arm/arm-none-eabi/include/c++/10.3.1/bits/stl_algobase.h ****  *
  27:/Library/DaisyToolchain/0.2.0/arm/arm-none-eabi/include/c++/10.3.1/bits/stl_algobase.h ****  * Copyright (c) 1994
  28:/Library/DaisyToolchain/0.2.0/arm/arm-none-eabi/include/c++/10.3.1/bits/stl_algobase.h ****  * Hewlett-Packard Company
ARM GAS  /var/folders/9s/8rp0_f2s1n31qbztm3b5_fdh0000gn/T//ccHPFdxP.s 			page 13


  29:/Library/DaisyToolchain/0.2.0/arm/arm-none-eabi/include/c++/10.3.1/bits/stl_algobase.h ****  *
  30:/Library/DaisyToolchain/0.2.0/arm/arm-none-eabi/include/c++/10.3.1/bits/stl_algobase.h ****  * Permission to use, copy, modify, distribute and sell this software
  31:/Library/DaisyToolchain/0.2.0/arm/arm-none-eabi/include/c++/10.3.1/bits/stl_algobase.h ****  * and its documentation for any purpose is hereby granted without fee,
  32:/Library/DaisyToolchain/0.2.0/arm/arm-none-eabi/include/c++/10.3.1/bits/stl_algobase.h ****  * provided that the above copyright notice appear in all copies and
  33:/Library/DaisyToolchain/0.2.0/arm/arm-none-eabi/include/c++/10.3.1/bits/stl_algobase.h ****  * that both that copyright notice and this permission notice appear
  34:/Library/DaisyToolchain/0.2.0/arm/arm-none-eabi/include/c++/10.3.1/bits/stl_algobase.h ****  * in supporting documentation.  Hewlett-Packard Company makes no
  35:/Library/DaisyToolchain/0.2.0/arm/arm-none-eabi/include/c++/10.3.1/bits/stl_algobase.h ****  * representations about the suitability of this software for any
  36:/Library/DaisyToolchain/0.2.0/arm/arm-none-eabi/include/c++/10.3.1/bits/stl_algobase.h ****  * purpose.  It is provided "as is" without express or implied warranty.
  37:/Library/DaisyToolchain/0.2.0/arm/arm-none-eabi/include/c++/10.3.1/bits/stl_algobase.h ****  *
  38:/Library/DaisyToolchain/0.2.0/arm/arm-none-eabi/include/c++/10.3.1/bits/stl_algobase.h ****  *
  39:/Library/DaisyToolchain/0.2.0/arm/arm-none-eabi/include/c++/10.3.1/bits/stl_algobase.h ****  * Copyright (c) 1996-1998
  40:/Library/DaisyToolchain/0.2.0/arm/arm-none-eabi/include/c++/10.3.1/bits/stl_algobase.h ****  * Silicon Graphics Computer Systems, Inc.
  41:/Library/DaisyToolchain/0.2.0/arm/arm-none-eabi/include/c++/10.3.1/bits/stl_algobase.h ****  *
  42:/Library/DaisyToolchain/0.2.0/arm/arm-none-eabi/include/c++/10.3.1/bits/stl_algobase.h ****  * Permission to use, copy, modify, distribute and sell this software
  43:/Library/DaisyToolchain/0.2.0/arm/arm-none-eabi/include/c++/10.3.1/bits/stl_algobase.h ****  * and its documentation for any purpose is hereby granted without fee,
  44:/Library/DaisyToolchain/0.2.0/arm/arm-none-eabi/include/c++/10.3.1/bits/stl_algobase.h ****  * provided that the above copyright notice appear in all copies and
  45:/Library/DaisyToolchain/0.2.0/arm/arm-none-eabi/include/c++/10.3.1/bits/stl_algobase.h ****  * that both that copyright notice and this permission notice appear
  46:/Library/DaisyToolchain/0.2.0/arm/arm-none-eabi/include/c++/10.3.1/bits/stl_algobase.h ****  * in supporting documentation.  Silicon Graphics makes no
  47:/Library/DaisyToolchain/0.2.0/arm/arm-none-eabi/include/c++/10.3.1/bits/stl_algobase.h ****  * representations about the suitability of this software for any
  48:/Library/DaisyToolchain/0.2.0/arm/arm-none-eabi/include/c++/10.3.1/bits/stl_algobase.h ****  * purpose.  It is provided "as is" without express or implied warranty.
  49:/Library/DaisyToolchain/0.2.0/arm/arm-none-eabi/include/c++/10.3.1/bits/stl_algobase.h ****  */
  50:/Library/DaisyToolchain/0.2.0/arm/arm-none-eabi/include/c++/10.3.1/bits/stl_algobase.h **** 
  51:/Library/DaisyToolchain/0.2.0/arm/arm-none-eabi/include/c++/10.3.1/bits/stl_algobase.h **** /** @file bits/stl_algobase.h
  52:/Library/DaisyToolchain/0.2.0/arm/arm-none-eabi/include/c++/10.3.1/bits/stl_algobase.h ****  *  This is an internal header file, included by other library headers.
  53:/Library/DaisyToolchain/0.2.0/arm/arm-none-eabi/include/c++/10.3.1/bits/stl_algobase.h ****  *  Do not attempt to use it directly. @headername{algorithm}
  54:/Library/DaisyToolchain/0.2.0/arm/arm-none-eabi/include/c++/10.3.1/bits/stl_algobase.h ****  */
  55:/Library/DaisyToolchain/0.2.0/arm/arm-none-eabi/include/c++/10.3.1/bits/stl_algobase.h **** 
  56:/Library/DaisyToolchain/0.2.0/arm/arm-none-eabi/include/c++/10.3.1/bits/stl_algobase.h **** #ifndef _STL_ALGOBASE_H
  57:/Library/DaisyToolchain/0.2.0/arm/arm-none-eabi/include/c++/10.3.1/bits/stl_algobase.h **** #define _STL_ALGOBASE_H 1
  58:/Library/DaisyToolchain/0.2.0/arm/arm-none-eabi/include/c++/10.3.1/bits/stl_algobase.h **** 
  59:/Library/DaisyToolchain/0.2.0/arm/arm-none-eabi/include/c++/10.3.1/bits/stl_algobase.h **** #include <bits/c++config.h>
  60:/Library/DaisyToolchain/0.2.0/arm/arm-none-eabi/include/c++/10.3.1/bits/stl_algobase.h **** #include <bits/functexcept.h>
  61:/Library/DaisyToolchain/0.2.0/arm/arm-none-eabi/include/c++/10.3.1/bits/stl_algobase.h **** #include <bits/cpp_type_traits.h>
  62:/Library/DaisyToolchain/0.2.0/arm/arm-none-eabi/include/c++/10.3.1/bits/stl_algobase.h **** #include <ext/type_traits.h>
  63:/Library/DaisyToolchain/0.2.0/arm/arm-none-eabi/include/c++/10.3.1/bits/stl_algobase.h **** #include <ext/numeric_traits.h>
  64:/Library/DaisyToolchain/0.2.0/arm/arm-none-eabi/include/c++/10.3.1/bits/stl_algobase.h **** #include <bits/stl_pair.h>
  65:/Library/DaisyToolchain/0.2.0/arm/arm-none-eabi/include/c++/10.3.1/bits/stl_algobase.h **** #include <bits/stl_iterator_base_types.h>
  66:/Library/DaisyToolchain/0.2.0/arm/arm-none-eabi/include/c++/10.3.1/bits/stl_algobase.h **** #include <bits/stl_iterator_base_funcs.h>
  67:/Library/DaisyToolchain/0.2.0/arm/arm-none-eabi/include/c++/10.3.1/bits/stl_algobase.h **** #include <bits/stl_iterator.h>
  68:/Library/DaisyToolchain/0.2.0/arm/arm-none-eabi/include/c++/10.3.1/bits/stl_algobase.h **** #include <bits/concept_check.h>
  69:/Library/DaisyToolchain/0.2.0/arm/arm-none-eabi/include/c++/10.3.1/bits/stl_algobase.h **** #include <debug/debug.h>
  70:/Library/DaisyToolchain/0.2.0/arm/arm-none-eabi/include/c++/10.3.1/bits/stl_algobase.h **** #include <bits/move.h> // For std::swap
  71:/Library/DaisyToolchain/0.2.0/arm/arm-none-eabi/include/c++/10.3.1/bits/stl_algobase.h **** #include <bits/predefined_ops.h>
  72:/Library/DaisyToolchain/0.2.0/arm/arm-none-eabi/include/c++/10.3.1/bits/stl_algobase.h **** #if __cplusplus >= 201103L
  73:/Library/DaisyToolchain/0.2.0/arm/arm-none-eabi/include/c++/10.3.1/bits/stl_algobase.h **** # include <type_traits>
  74:/Library/DaisyToolchain/0.2.0/arm/arm-none-eabi/include/c++/10.3.1/bits/stl_algobase.h **** #endif
  75:/Library/DaisyToolchain/0.2.0/arm/arm-none-eabi/include/c++/10.3.1/bits/stl_algobase.h **** #if __cplusplus > 201703L
  76:/Library/DaisyToolchain/0.2.0/arm/arm-none-eabi/include/c++/10.3.1/bits/stl_algobase.h **** # include <compare>
  77:/Library/DaisyToolchain/0.2.0/arm/arm-none-eabi/include/c++/10.3.1/bits/stl_algobase.h **** #endif
  78:/Library/DaisyToolchain/0.2.0/arm/arm-none-eabi/include/c++/10.3.1/bits/stl_algobase.h **** 
  79:/Library/DaisyToolchain/0.2.0/arm/arm-none-eabi/include/c++/10.3.1/bits/stl_algobase.h **** namespace std _GLIBCXX_VISIBILITY(default)
  80:/Library/DaisyToolchain/0.2.0/arm/arm-none-eabi/include/c++/10.3.1/bits/stl_algobase.h **** {
  81:/Library/DaisyToolchain/0.2.0/arm/arm-none-eabi/include/c++/10.3.1/bits/stl_algobase.h **** _GLIBCXX_BEGIN_NAMESPACE_VERSION
  82:/Library/DaisyToolchain/0.2.0/arm/arm-none-eabi/include/c++/10.3.1/bits/stl_algobase.h **** 
  83:/Library/DaisyToolchain/0.2.0/arm/arm-none-eabi/include/c++/10.3.1/bits/stl_algobase.h ****   /*
  84:/Library/DaisyToolchain/0.2.0/arm/arm-none-eabi/include/c++/10.3.1/bits/stl_algobase.h ****    * A constexpr wrapper for __builtin_memcmp.
  85:/Library/DaisyToolchain/0.2.0/arm/arm-none-eabi/include/c++/10.3.1/bits/stl_algobase.h ****    * @param __num The number of elements of type _Tp (not bytes).
ARM GAS  /var/folders/9s/8rp0_f2s1n31qbztm3b5_fdh0000gn/T//ccHPFdxP.s 			page 14


  86:/Library/DaisyToolchain/0.2.0/arm/arm-none-eabi/include/c++/10.3.1/bits/stl_algobase.h ****    */
  87:/Library/DaisyToolchain/0.2.0/arm/arm-none-eabi/include/c++/10.3.1/bits/stl_algobase.h ****   template<typename _Tp, typename _Up>
  88:/Library/DaisyToolchain/0.2.0/arm/arm-none-eabi/include/c++/10.3.1/bits/stl_algobase.h ****     _GLIBCXX14_CONSTEXPR
  89:/Library/DaisyToolchain/0.2.0/arm/arm-none-eabi/include/c++/10.3.1/bits/stl_algobase.h ****     inline int
  90:/Library/DaisyToolchain/0.2.0/arm/arm-none-eabi/include/c++/10.3.1/bits/stl_algobase.h ****     __memcmp(const _Tp* __first1, const _Up* __first2, size_t __num)
  91:/Library/DaisyToolchain/0.2.0/arm/arm-none-eabi/include/c++/10.3.1/bits/stl_algobase.h ****     {
  92:/Library/DaisyToolchain/0.2.0/arm/arm-none-eabi/include/c++/10.3.1/bits/stl_algobase.h **** #if __cplusplus >= 201103L
  93:/Library/DaisyToolchain/0.2.0/arm/arm-none-eabi/include/c++/10.3.1/bits/stl_algobase.h ****       static_assert(sizeof(_Tp) == sizeof(_Up), "can be compared with memcmp");
  94:/Library/DaisyToolchain/0.2.0/arm/arm-none-eabi/include/c++/10.3.1/bits/stl_algobase.h **** #endif
  95:/Library/DaisyToolchain/0.2.0/arm/arm-none-eabi/include/c++/10.3.1/bits/stl_algobase.h **** #ifdef __cpp_lib_is_constant_evaluated
  96:/Library/DaisyToolchain/0.2.0/arm/arm-none-eabi/include/c++/10.3.1/bits/stl_algobase.h ****       if (std::is_constant_evaluated())
  97:/Library/DaisyToolchain/0.2.0/arm/arm-none-eabi/include/c++/10.3.1/bits/stl_algobase.h **** 	{
  98:/Library/DaisyToolchain/0.2.0/arm/arm-none-eabi/include/c++/10.3.1/bits/stl_algobase.h **** 	  for(; __num > 0; ++__first1, ++__first2, --__num)
  99:/Library/DaisyToolchain/0.2.0/arm/arm-none-eabi/include/c++/10.3.1/bits/stl_algobase.h **** 	    if (*__first1 != *__first2)
 100:/Library/DaisyToolchain/0.2.0/arm/arm-none-eabi/include/c++/10.3.1/bits/stl_algobase.h **** 	      return *__first1 < *__first2 ? -1 : 1;
 101:/Library/DaisyToolchain/0.2.0/arm/arm-none-eabi/include/c++/10.3.1/bits/stl_algobase.h **** 	  return 0;
 102:/Library/DaisyToolchain/0.2.0/arm/arm-none-eabi/include/c++/10.3.1/bits/stl_algobase.h **** 	}
 103:/Library/DaisyToolchain/0.2.0/arm/arm-none-eabi/include/c++/10.3.1/bits/stl_algobase.h ****       else
 104:/Library/DaisyToolchain/0.2.0/arm/arm-none-eabi/include/c++/10.3.1/bits/stl_algobase.h **** #endif
 105:/Library/DaisyToolchain/0.2.0/arm/arm-none-eabi/include/c++/10.3.1/bits/stl_algobase.h **** 	return __builtin_memcmp(__first1, __first2, sizeof(_Tp) * __num);
 106:/Library/DaisyToolchain/0.2.0/arm/arm-none-eabi/include/c++/10.3.1/bits/stl_algobase.h ****     }
 107:/Library/DaisyToolchain/0.2.0/arm/arm-none-eabi/include/c++/10.3.1/bits/stl_algobase.h **** 
 108:/Library/DaisyToolchain/0.2.0/arm/arm-none-eabi/include/c++/10.3.1/bits/stl_algobase.h **** #if __cplusplus < 201103L
 109:/Library/DaisyToolchain/0.2.0/arm/arm-none-eabi/include/c++/10.3.1/bits/stl_algobase.h ****   // See http://gcc.gnu.org/ml/libstdc++/2004-08/msg00167.html: in a
 110:/Library/DaisyToolchain/0.2.0/arm/arm-none-eabi/include/c++/10.3.1/bits/stl_algobase.h ****   // nutshell, we are partially implementing the resolution of DR 187,
 111:/Library/DaisyToolchain/0.2.0/arm/arm-none-eabi/include/c++/10.3.1/bits/stl_algobase.h ****   // when it's safe, i.e., the value_types are equal.
 112:/Library/DaisyToolchain/0.2.0/arm/arm-none-eabi/include/c++/10.3.1/bits/stl_algobase.h ****   template<bool _BoolType>
 113:/Library/DaisyToolchain/0.2.0/arm/arm-none-eabi/include/c++/10.3.1/bits/stl_algobase.h ****     struct __iter_swap
 114:/Library/DaisyToolchain/0.2.0/arm/arm-none-eabi/include/c++/10.3.1/bits/stl_algobase.h ****     {
 115:/Library/DaisyToolchain/0.2.0/arm/arm-none-eabi/include/c++/10.3.1/bits/stl_algobase.h ****       template<typename _ForwardIterator1, typename _ForwardIterator2>
 116:/Library/DaisyToolchain/0.2.0/arm/arm-none-eabi/include/c++/10.3.1/bits/stl_algobase.h **** 	static void
 117:/Library/DaisyToolchain/0.2.0/arm/arm-none-eabi/include/c++/10.3.1/bits/stl_algobase.h **** 	iter_swap(_ForwardIterator1 __a, _ForwardIterator2 __b)
 118:/Library/DaisyToolchain/0.2.0/arm/arm-none-eabi/include/c++/10.3.1/bits/stl_algobase.h **** 	{
 119:/Library/DaisyToolchain/0.2.0/arm/arm-none-eabi/include/c++/10.3.1/bits/stl_algobase.h **** 	  typedef typename iterator_traits<_ForwardIterator1>::value_type
 120:/Library/DaisyToolchain/0.2.0/arm/arm-none-eabi/include/c++/10.3.1/bits/stl_algobase.h **** 	    _ValueType1;
 121:/Library/DaisyToolchain/0.2.0/arm/arm-none-eabi/include/c++/10.3.1/bits/stl_algobase.h **** 	  _ValueType1 __tmp = *__a;
 122:/Library/DaisyToolchain/0.2.0/arm/arm-none-eabi/include/c++/10.3.1/bits/stl_algobase.h **** 	  *__a = *__b;
 123:/Library/DaisyToolchain/0.2.0/arm/arm-none-eabi/include/c++/10.3.1/bits/stl_algobase.h **** 	  *__b = __tmp;
 124:/Library/DaisyToolchain/0.2.0/arm/arm-none-eabi/include/c++/10.3.1/bits/stl_algobase.h **** 	}
 125:/Library/DaisyToolchain/0.2.0/arm/arm-none-eabi/include/c++/10.3.1/bits/stl_algobase.h ****     };
 126:/Library/DaisyToolchain/0.2.0/arm/arm-none-eabi/include/c++/10.3.1/bits/stl_algobase.h **** 
 127:/Library/DaisyToolchain/0.2.0/arm/arm-none-eabi/include/c++/10.3.1/bits/stl_algobase.h ****   template<>
 128:/Library/DaisyToolchain/0.2.0/arm/arm-none-eabi/include/c++/10.3.1/bits/stl_algobase.h ****     struct __iter_swap<true>
 129:/Library/DaisyToolchain/0.2.0/arm/arm-none-eabi/include/c++/10.3.1/bits/stl_algobase.h ****     {
 130:/Library/DaisyToolchain/0.2.0/arm/arm-none-eabi/include/c++/10.3.1/bits/stl_algobase.h ****       template<typename _ForwardIterator1, typename _ForwardIterator2>
 131:/Library/DaisyToolchain/0.2.0/arm/arm-none-eabi/include/c++/10.3.1/bits/stl_algobase.h **** 	static void
 132:/Library/DaisyToolchain/0.2.0/arm/arm-none-eabi/include/c++/10.3.1/bits/stl_algobase.h **** 	iter_swap(_ForwardIterator1 __a, _ForwardIterator2 __b)
 133:/Library/DaisyToolchain/0.2.0/arm/arm-none-eabi/include/c++/10.3.1/bits/stl_algobase.h **** 	{
 134:/Library/DaisyToolchain/0.2.0/arm/arm-none-eabi/include/c++/10.3.1/bits/stl_algobase.h **** 	  swap(*__a, *__b);
 135:/Library/DaisyToolchain/0.2.0/arm/arm-none-eabi/include/c++/10.3.1/bits/stl_algobase.h **** 	}
 136:/Library/DaisyToolchain/0.2.0/arm/arm-none-eabi/include/c++/10.3.1/bits/stl_algobase.h ****     };
 137:/Library/DaisyToolchain/0.2.0/arm/arm-none-eabi/include/c++/10.3.1/bits/stl_algobase.h **** #endif // C++03
 138:/Library/DaisyToolchain/0.2.0/arm/arm-none-eabi/include/c++/10.3.1/bits/stl_algobase.h **** 
 139:/Library/DaisyToolchain/0.2.0/arm/arm-none-eabi/include/c++/10.3.1/bits/stl_algobase.h ****   /**
 140:/Library/DaisyToolchain/0.2.0/arm/arm-none-eabi/include/c++/10.3.1/bits/stl_algobase.h ****    *  @brief Swaps the contents of two iterators.
 141:/Library/DaisyToolchain/0.2.0/arm/arm-none-eabi/include/c++/10.3.1/bits/stl_algobase.h ****    *  @ingroup mutating_algorithms
 142:/Library/DaisyToolchain/0.2.0/arm/arm-none-eabi/include/c++/10.3.1/bits/stl_algobase.h ****    *  @param  __a  An iterator.
ARM GAS  /var/folders/9s/8rp0_f2s1n31qbztm3b5_fdh0000gn/T//ccHPFdxP.s 			page 15


 143:/Library/DaisyToolchain/0.2.0/arm/arm-none-eabi/include/c++/10.3.1/bits/stl_algobase.h ****    *  @param  __b  Another iterator.
 144:/Library/DaisyToolchain/0.2.0/arm/arm-none-eabi/include/c++/10.3.1/bits/stl_algobase.h ****    *  @return   Nothing.
 145:/Library/DaisyToolchain/0.2.0/arm/arm-none-eabi/include/c++/10.3.1/bits/stl_algobase.h ****    *
 146:/Library/DaisyToolchain/0.2.0/arm/arm-none-eabi/include/c++/10.3.1/bits/stl_algobase.h ****    *  This function swaps the values pointed to by two iterators, not the
 147:/Library/DaisyToolchain/0.2.0/arm/arm-none-eabi/include/c++/10.3.1/bits/stl_algobase.h ****    *  iterators themselves.
 148:/Library/DaisyToolchain/0.2.0/arm/arm-none-eabi/include/c++/10.3.1/bits/stl_algobase.h ****   */
 149:/Library/DaisyToolchain/0.2.0/arm/arm-none-eabi/include/c++/10.3.1/bits/stl_algobase.h ****   template<typename _ForwardIterator1, typename _ForwardIterator2>
 150:/Library/DaisyToolchain/0.2.0/arm/arm-none-eabi/include/c++/10.3.1/bits/stl_algobase.h ****     _GLIBCXX20_CONSTEXPR
 151:/Library/DaisyToolchain/0.2.0/arm/arm-none-eabi/include/c++/10.3.1/bits/stl_algobase.h ****     inline void
 152:/Library/DaisyToolchain/0.2.0/arm/arm-none-eabi/include/c++/10.3.1/bits/stl_algobase.h ****     iter_swap(_ForwardIterator1 __a, _ForwardIterator2 __b)
 153:/Library/DaisyToolchain/0.2.0/arm/arm-none-eabi/include/c++/10.3.1/bits/stl_algobase.h ****     {
 154:/Library/DaisyToolchain/0.2.0/arm/arm-none-eabi/include/c++/10.3.1/bits/stl_algobase.h ****       // concept requirements
 155:/Library/DaisyToolchain/0.2.0/arm/arm-none-eabi/include/c++/10.3.1/bits/stl_algobase.h ****       __glibcxx_function_requires(_Mutable_ForwardIteratorConcept<
 156:/Library/DaisyToolchain/0.2.0/arm/arm-none-eabi/include/c++/10.3.1/bits/stl_algobase.h **** 				  _ForwardIterator1>)
 157:/Library/DaisyToolchain/0.2.0/arm/arm-none-eabi/include/c++/10.3.1/bits/stl_algobase.h ****       __glibcxx_function_requires(_Mutable_ForwardIteratorConcept<
 158:/Library/DaisyToolchain/0.2.0/arm/arm-none-eabi/include/c++/10.3.1/bits/stl_algobase.h **** 				  _ForwardIterator2>)
 159:/Library/DaisyToolchain/0.2.0/arm/arm-none-eabi/include/c++/10.3.1/bits/stl_algobase.h **** 
 160:/Library/DaisyToolchain/0.2.0/arm/arm-none-eabi/include/c++/10.3.1/bits/stl_algobase.h **** #if __cplusplus < 201103L
 161:/Library/DaisyToolchain/0.2.0/arm/arm-none-eabi/include/c++/10.3.1/bits/stl_algobase.h ****       typedef typename iterator_traits<_ForwardIterator1>::value_type
 162:/Library/DaisyToolchain/0.2.0/arm/arm-none-eabi/include/c++/10.3.1/bits/stl_algobase.h **** 	_ValueType1;
 163:/Library/DaisyToolchain/0.2.0/arm/arm-none-eabi/include/c++/10.3.1/bits/stl_algobase.h ****       typedef typename iterator_traits<_ForwardIterator2>::value_type
 164:/Library/DaisyToolchain/0.2.0/arm/arm-none-eabi/include/c++/10.3.1/bits/stl_algobase.h **** 	_ValueType2;
 165:/Library/DaisyToolchain/0.2.0/arm/arm-none-eabi/include/c++/10.3.1/bits/stl_algobase.h **** 
 166:/Library/DaisyToolchain/0.2.0/arm/arm-none-eabi/include/c++/10.3.1/bits/stl_algobase.h ****       __glibcxx_function_requires(_ConvertibleConcept<_ValueType1,
 167:/Library/DaisyToolchain/0.2.0/arm/arm-none-eabi/include/c++/10.3.1/bits/stl_algobase.h **** 				  _ValueType2>)
 168:/Library/DaisyToolchain/0.2.0/arm/arm-none-eabi/include/c++/10.3.1/bits/stl_algobase.h ****       __glibcxx_function_requires(_ConvertibleConcept<_ValueType2,
 169:/Library/DaisyToolchain/0.2.0/arm/arm-none-eabi/include/c++/10.3.1/bits/stl_algobase.h **** 				  _ValueType1>)
 170:/Library/DaisyToolchain/0.2.0/arm/arm-none-eabi/include/c++/10.3.1/bits/stl_algobase.h **** 
 171:/Library/DaisyToolchain/0.2.0/arm/arm-none-eabi/include/c++/10.3.1/bits/stl_algobase.h ****       typedef typename iterator_traits<_ForwardIterator1>::reference
 172:/Library/DaisyToolchain/0.2.0/arm/arm-none-eabi/include/c++/10.3.1/bits/stl_algobase.h **** 	_ReferenceType1;
 173:/Library/DaisyToolchain/0.2.0/arm/arm-none-eabi/include/c++/10.3.1/bits/stl_algobase.h ****       typedef typename iterator_traits<_ForwardIterator2>::reference
 174:/Library/DaisyToolchain/0.2.0/arm/arm-none-eabi/include/c++/10.3.1/bits/stl_algobase.h **** 	_ReferenceType2;
 175:/Library/DaisyToolchain/0.2.0/arm/arm-none-eabi/include/c++/10.3.1/bits/stl_algobase.h ****       std::__iter_swap<__are_same<_ValueType1, _ValueType2>::__value
 176:/Library/DaisyToolchain/0.2.0/arm/arm-none-eabi/include/c++/10.3.1/bits/stl_algobase.h **** 	&& __are_same<_ValueType1&, _ReferenceType1>::__value
 177:/Library/DaisyToolchain/0.2.0/arm/arm-none-eabi/include/c++/10.3.1/bits/stl_algobase.h **** 	&& __are_same<_ValueType2&, _ReferenceType2>::__value>::
 178:/Library/DaisyToolchain/0.2.0/arm/arm-none-eabi/include/c++/10.3.1/bits/stl_algobase.h **** 	iter_swap(__a, __b);
 179:/Library/DaisyToolchain/0.2.0/arm/arm-none-eabi/include/c++/10.3.1/bits/stl_algobase.h **** #else
 180:/Library/DaisyToolchain/0.2.0/arm/arm-none-eabi/include/c++/10.3.1/bits/stl_algobase.h ****       // _GLIBCXX_RESOLVE_LIB_DEFECTS
 181:/Library/DaisyToolchain/0.2.0/arm/arm-none-eabi/include/c++/10.3.1/bits/stl_algobase.h ****       // 187. iter_swap underspecified
 182:/Library/DaisyToolchain/0.2.0/arm/arm-none-eabi/include/c++/10.3.1/bits/stl_algobase.h ****       swap(*__a, *__b);
 183:/Library/DaisyToolchain/0.2.0/arm/arm-none-eabi/include/c++/10.3.1/bits/stl_algobase.h **** #endif
 184:/Library/DaisyToolchain/0.2.0/arm/arm-none-eabi/include/c++/10.3.1/bits/stl_algobase.h ****     }
 185:/Library/DaisyToolchain/0.2.0/arm/arm-none-eabi/include/c++/10.3.1/bits/stl_algobase.h **** 
 186:/Library/DaisyToolchain/0.2.0/arm/arm-none-eabi/include/c++/10.3.1/bits/stl_algobase.h ****   /**
 187:/Library/DaisyToolchain/0.2.0/arm/arm-none-eabi/include/c++/10.3.1/bits/stl_algobase.h ****    *  @brief Swap the elements of two sequences.
 188:/Library/DaisyToolchain/0.2.0/arm/arm-none-eabi/include/c++/10.3.1/bits/stl_algobase.h ****    *  @ingroup mutating_algorithms
 189:/Library/DaisyToolchain/0.2.0/arm/arm-none-eabi/include/c++/10.3.1/bits/stl_algobase.h ****    *  @param  __first1  A forward iterator.
 190:/Library/DaisyToolchain/0.2.0/arm/arm-none-eabi/include/c++/10.3.1/bits/stl_algobase.h ****    *  @param  __last1   A forward iterator.
 191:/Library/DaisyToolchain/0.2.0/arm/arm-none-eabi/include/c++/10.3.1/bits/stl_algobase.h ****    *  @param  __first2  A forward iterator.
 192:/Library/DaisyToolchain/0.2.0/arm/arm-none-eabi/include/c++/10.3.1/bits/stl_algobase.h ****    *  @return   An iterator equal to @p first2+(last1-first1).
 193:/Library/DaisyToolchain/0.2.0/arm/arm-none-eabi/include/c++/10.3.1/bits/stl_algobase.h ****    *
 194:/Library/DaisyToolchain/0.2.0/arm/arm-none-eabi/include/c++/10.3.1/bits/stl_algobase.h ****    *  Swaps each element in the range @p [first1,last1) with the
 195:/Library/DaisyToolchain/0.2.0/arm/arm-none-eabi/include/c++/10.3.1/bits/stl_algobase.h ****    *  corresponding element in the range @p [first2,(last1-first1)).
 196:/Library/DaisyToolchain/0.2.0/arm/arm-none-eabi/include/c++/10.3.1/bits/stl_algobase.h ****    *  The ranges must not overlap.
 197:/Library/DaisyToolchain/0.2.0/arm/arm-none-eabi/include/c++/10.3.1/bits/stl_algobase.h ****   */
 198:/Library/DaisyToolchain/0.2.0/arm/arm-none-eabi/include/c++/10.3.1/bits/stl_algobase.h ****   template<typename _ForwardIterator1, typename _ForwardIterator2>
 199:/Library/DaisyToolchain/0.2.0/arm/arm-none-eabi/include/c++/10.3.1/bits/stl_algobase.h ****     _GLIBCXX20_CONSTEXPR
ARM GAS  /var/folders/9s/8rp0_f2s1n31qbztm3b5_fdh0000gn/T//ccHPFdxP.s 			page 16


 200:/Library/DaisyToolchain/0.2.0/arm/arm-none-eabi/include/c++/10.3.1/bits/stl_algobase.h ****     _ForwardIterator2
 201:/Library/DaisyToolchain/0.2.0/arm/arm-none-eabi/include/c++/10.3.1/bits/stl_algobase.h ****     swap_ranges(_ForwardIterator1 __first1, _ForwardIterator1 __last1,
 202:/Library/DaisyToolchain/0.2.0/arm/arm-none-eabi/include/c++/10.3.1/bits/stl_algobase.h **** 		_ForwardIterator2 __first2)
 203:/Library/DaisyToolchain/0.2.0/arm/arm-none-eabi/include/c++/10.3.1/bits/stl_algobase.h ****     {
 204:/Library/DaisyToolchain/0.2.0/arm/arm-none-eabi/include/c++/10.3.1/bits/stl_algobase.h ****       // concept requirements
 205:/Library/DaisyToolchain/0.2.0/arm/arm-none-eabi/include/c++/10.3.1/bits/stl_algobase.h ****       __glibcxx_function_requires(_Mutable_ForwardIteratorConcept<
 206:/Library/DaisyToolchain/0.2.0/arm/arm-none-eabi/include/c++/10.3.1/bits/stl_algobase.h **** 				  _ForwardIterator1>)
 207:/Library/DaisyToolchain/0.2.0/arm/arm-none-eabi/include/c++/10.3.1/bits/stl_algobase.h ****       __glibcxx_function_requires(_Mutable_ForwardIteratorConcept<
 208:/Library/DaisyToolchain/0.2.0/arm/arm-none-eabi/include/c++/10.3.1/bits/stl_algobase.h **** 				  _ForwardIterator2>)
 209:/Library/DaisyToolchain/0.2.0/arm/arm-none-eabi/include/c++/10.3.1/bits/stl_algobase.h ****       __glibcxx_requires_valid_range(__first1, __last1);
 210:/Library/DaisyToolchain/0.2.0/arm/arm-none-eabi/include/c++/10.3.1/bits/stl_algobase.h **** 
 211:/Library/DaisyToolchain/0.2.0/arm/arm-none-eabi/include/c++/10.3.1/bits/stl_algobase.h ****       for (; __first1 != __last1; ++__first1, (void)++__first2)
 212:/Library/DaisyToolchain/0.2.0/arm/arm-none-eabi/include/c++/10.3.1/bits/stl_algobase.h **** 	std::iter_swap(__first1, __first2);
 213:/Library/DaisyToolchain/0.2.0/arm/arm-none-eabi/include/c++/10.3.1/bits/stl_algobase.h ****       return __first2;
 214:/Library/DaisyToolchain/0.2.0/arm/arm-none-eabi/include/c++/10.3.1/bits/stl_algobase.h ****     }
 215:/Library/DaisyToolchain/0.2.0/arm/arm-none-eabi/include/c++/10.3.1/bits/stl_algobase.h **** 
 216:/Library/DaisyToolchain/0.2.0/arm/arm-none-eabi/include/c++/10.3.1/bits/stl_algobase.h ****   /**
 217:/Library/DaisyToolchain/0.2.0/arm/arm-none-eabi/include/c++/10.3.1/bits/stl_algobase.h ****    *  @brief This does what you think it does.
 218:/Library/DaisyToolchain/0.2.0/arm/arm-none-eabi/include/c++/10.3.1/bits/stl_algobase.h ****    *  @ingroup sorting_algorithms
 219:/Library/DaisyToolchain/0.2.0/arm/arm-none-eabi/include/c++/10.3.1/bits/stl_algobase.h ****    *  @param  __a  A thing of arbitrary type.
 220:/Library/DaisyToolchain/0.2.0/arm/arm-none-eabi/include/c++/10.3.1/bits/stl_algobase.h ****    *  @param  __b  Another thing of arbitrary type.
 221:/Library/DaisyToolchain/0.2.0/arm/arm-none-eabi/include/c++/10.3.1/bits/stl_algobase.h ****    *  @return   The lesser of the parameters.
 222:/Library/DaisyToolchain/0.2.0/arm/arm-none-eabi/include/c++/10.3.1/bits/stl_algobase.h ****    *
 223:/Library/DaisyToolchain/0.2.0/arm/arm-none-eabi/include/c++/10.3.1/bits/stl_algobase.h ****    *  This is the simple classic generic implementation.  It will work on
 224:/Library/DaisyToolchain/0.2.0/arm/arm-none-eabi/include/c++/10.3.1/bits/stl_algobase.h ****    *  temporary expressions, since they are only evaluated once, unlike a
 225:/Library/DaisyToolchain/0.2.0/arm/arm-none-eabi/include/c++/10.3.1/bits/stl_algobase.h ****    *  preprocessor macro.
 226:/Library/DaisyToolchain/0.2.0/arm/arm-none-eabi/include/c++/10.3.1/bits/stl_algobase.h ****   */
 227:/Library/DaisyToolchain/0.2.0/arm/arm-none-eabi/include/c++/10.3.1/bits/stl_algobase.h ****   template<typename _Tp>
 228:/Library/DaisyToolchain/0.2.0/arm/arm-none-eabi/include/c++/10.3.1/bits/stl_algobase.h ****     _GLIBCXX14_CONSTEXPR
 229:/Library/DaisyToolchain/0.2.0/arm/arm-none-eabi/include/c++/10.3.1/bits/stl_algobase.h ****     inline const _Tp&
 230:/Library/DaisyToolchain/0.2.0/arm/arm-none-eabi/include/c++/10.3.1/bits/stl_algobase.h ****     min(const _Tp& __a, const _Tp& __b)
 231:/Library/DaisyToolchain/0.2.0/arm/arm-none-eabi/include/c++/10.3.1/bits/stl_algobase.h ****     {
 232:/Library/DaisyToolchain/0.2.0/arm/arm-none-eabi/include/c++/10.3.1/bits/stl_algobase.h ****       // concept requirements
 233:/Library/DaisyToolchain/0.2.0/arm/arm-none-eabi/include/c++/10.3.1/bits/stl_algobase.h ****       __glibcxx_function_requires(_LessThanComparableConcept<_Tp>)
 234:/Library/DaisyToolchain/0.2.0/arm/arm-none-eabi/include/c++/10.3.1/bits/stl_algobase.h ****       //return __b < __a ? __b : __a;
 235:/Library/DaisyToolchain/0.2.0/arm/arm-none-eabi/include/c++/10.3.1/bits/stl_algobase.h ****       if (__b < __a)
 236:/Library/DaisyToolchain/0.2.0/arm/arm-none-eabi/include/c++/10.3.1/bits/stl_algobase.h **** 	return __b;
 237:/Library/DaisyToolchain/0.2.0/arm/arm-none-eabi/include/c++/10.3.1/bits/stl_algobase.h ****       return __a;
 238:/Library/DaisyToolchain/0.2.0/arm/arm-none-eabi/include/c++/10.3.1/bits/stl_algobase.h ****     }
 239:/Library/DaisyToolchain/0.2.0/arm/arm-none-eabi/include/c++/10.3.1/bits/stl_algobase.h **** 
 240:/Library/DaisyToolchain/0.2.0/arm/arm-none-eabi/include/c++/10.3.1/bits/stl_algobase.h ****   /**
 241:/Library/DaisyToolchain/0.2.0/arm/arm-none-eabi/include/c++/10.3.1/bits/stl_algobase.h ****    *  @brief This does what you think it does.
 242:/Library/DaisyToolchain/0.2.0/arm/arm-none-eabi/include/c++/10.3.1/bits/stl_algobase.h ****    *  @ingroup sorting_algorithms
 243:/Library/DaisyToolchain/0.2.0/arm/arm-none-eabi/include/c++/10.3.1/bits/stl_algobase.h ****    *  @param  __a  A thing of arbitrary type.
 244:/Library/DaisyToolchain/0.2.0/arm/arm-none-eabi/include/c++/10.3.1/bits/stl_algobase.h ****    *  @param  __b  Another thing of arbitrary type.
 245:/Library/DaisyToolchain/0.2.0/arm/arm-none-eabi/include/c++/10.3.1/bits/stl_algobase.h ****    *  @return   The greater of the parameters.
 246:/Library/DaisyToolchain/0.2.0/arm/arm-none-eabi/include/c++/10.3.1/bits/stl_algobase.h ****    *
 247:/Library/DaisyToolchain/0.2.0/arm/arm-none-eabi/include/c++/10.3.1/bits/stl_algobase.h ****    *  This is the simple classic generic implementation.  It will work on
 248:/Library/DaisyToolchain/0.2.0/arm/arm-none-eabi/include/c++/10.3.1/bits/stl_algobase.h ****    *  temporary expressions, since they are only evaluated once, unlike a
 249:/Library/DaisyToolchain/0.2.0/arm/arm-none-eabi/include/c++/10.3.1/bits/stl_algobase.h ****    *  preprocessor macro.
 250:/Library/DaisyToolchain/0.2.0/arm/arm-none-eabi/include/c++/10.3.1/bits/stl_algobase.h ****   */
 251:/Library/DaisyToolchain/0.2.0/arm/arm-none-eabi/include/c++/10.3.1/bits/stl_algobase.h ****   template<typename _Tp>
 252:/Library/DaisyToolchain/0.2.0/arm/arm-none-eabi/include/c++/10.3.1/bits/stl_algobase.h ****     _GLIBCXX14_CONSTEXPR
 253:/Library/DaisyToolchain/0.2.0/arm/arm-none-eabi/include/c++/10.3.1/bits/stl_algobase.h ****     inline const _Tp&
 254:/Library/DaisyToolchain/0.2.0/arm/arm-none-eabi/include/c++/10.3.1/bits/stl_algobase.h ****     max(const _Tp& __a, const _Tp& __b)
 255:/Library/DaisyToolchain/0.2.0/arm/arm-none-eabi/include/c++/10.3.1/bits/stl_algobase.h ****     {
 256:/Library/DaisyToolchain/0.2.0/arm/arm-none-eabi/include/c++/10.3.1/bits/stl_algobase.h ****       // concept requirements
ARM GAS  /var/folders/9s/8rp0_f2s1n31qbztm3b5_fdh0000gn/T//ccHPFdxP.s 			page 17


 257:/Library/DaisyToolchain/0.2.0/arm/arm-none-eabi/include/c++/10.3.1/bits/stl_algobase.h ****       __glibcxx_function_requires(_LessThanComparableConcept<_Tp>)
 258:/Library/DaisyToolchain/0.2.0/arm/arm-none-eabi/include/c++/10.3.1/bits/stl_algobase.h ****       //return  __a < __b ? __b : __a;
 259:/Library/DaisyToolchain/0.2.0/arm/arm-none-eabi/include/c++/10.3.1/bits/stl_algobase.h ****       if (__a < __b)
 260:/Library/DaisyToolchain/0.2.0/arm/arm-none-eabi/include/c++/10.3.1/bits/stl_algobase.h **** 	return __b;
 261:/Library/DaisyToolchain/0.2.0/arm/arm-none-eabi/include/c++/10.3.1/bits/stl_algobase.h ****       return __a;
 262:/Library/DaisyToolchain/0.2.0/arm/arm-none-eabi/include/c++/10.3.1/bits/stl_algobase.h ****     }
 263:/Library/DaisyToolchain/0.2.0/arm/arm-none-eabi/include/c++/10.3.1/bits/stl_algobase.h **** 
 264:/Library/DaisyToolchain/0.2.0/arm/arm-none-eabi/include/c++/10.3.1/bits/stl_algobase.h ****   /**
 265:/Library/DaisyToolchain/0.2.0/arm/arm-none-eabi/include/c++/10.3.1/bits/stl_algobase.h ****    *  @brief This does what you think it does.
 266:/Library/DaisyToolchain/0.2.0/arm/arm-none-eabi/include/c++/10.3.1/bits/stl_algobase.h ****    *  @ingroup sorting_algorithms
 267:/Library/DaisyToolchain/0.2.0/arm/arm-none-eabi/include/c++/10.3.1/bits/stl_algobase.h ****    *  @param  __a  A thing of arbitrary type.
 268:/Library/DaisyToolchain/0.2.0/arm/arm-none-eabi/include/c++/10.3.1/bits/stl_algobase.h ****    *  @param  __b  Another thing of arbitrary type.
 269:/Library/DaisyToolchain/0.2.0/arm/arm-none-eabi/include/c++/10.3.1/bits/stl_algobase.h ****    *  @param  __comp  A @link comparison_functors comparison functor@endlink.
 270:/Library/DaisyToolchain/0.2.0/arm/arm-none-eabi/include/c++/10.3.1/bits/stl_algobase.h ****    *  @return   The lesser of the parameters.
 271:/Library/DaisyToolchain/0.2.0/arm/arm-none-eabi/include/c++/10.3.1/bits/stl_algobase.h ****    *
 272:/Library/DaisyToolchain/0.2.0/arm/arm-none-eabi/include/c++/10.3.1/bits/stl_algobase.h ****    *  This will work on temporary expressions, since they are only evaluated
 273:/Library/DaisyToolchain/0.2.0/arm/arm-none-eabi/include/c++/10.3.1/bits/stl_algobase.h ****    *  once, unlike a preprocessor macro.
 274:/Library/DaisyToolchain/0.2.0/arm/arm-none-eabi/include/c++/10.3.1/bits/stl_algobase.h ****   */
 275:/Library/DaisyToolchain/0.2.0/arm/arm-none-eabi/include/c++/10.3.1/bits/stl_algobase.h ****   template<typename _Tp, typename _Compare>
 276:/Library/DaisyToolchain/0.2.0/arm/arm-none-eabi/include/c++/10.3.1/bits/stl_algobase.h ****     _GLIBCXX14_CONSTEXPR
 277:/Library/DaisyToolchain/0.2.0/arm/arm-none-eabi/include/c++/10.3.1/bits/stl_algobase.h ****     inline const _Tp&
 278:/Library/DaisyToolchain/0.2.0/arm/arm-none-eabi/include/c++/10.3.1/bits/stl_algobase.h ****     min(const _Tp& __a, const _Tp& __b, _Compare __comp)
 279:/Library/DaisyToolchain/0.2.0/arm/arm-none-eabi/include/c++/10.3.1/bits/stl_algobase.h ****     {
 280:/Library/DaisyToolchain/0.2.0/arm/arm-none-eabi/include/c++/10.3.1/bits/stl_algobase.h ****       //return __comp(__b, __a) ? __b : __a;
 281:/Library/DaisyToolchain/0.2.0/arm/arm-none-eabi/include/c++/10.3.1/bits/stl_algobase.h ****       if (__comp(__b, __a))
 282:/Library/DaisyToolchain/0.2.0/arm/arm-none-eabi/include/c++/10.3.1/bits/stl_algobase.h **** 	return __b;
 283:/Library/DaisyToolchain/0.2.0/arm/arm-none-eabi/include/c++/10.3.1/bits/stl_algobase.h ****       return __a;
 284:/Library/DaisyToolchain/0.2.0/arm/arm-none-eabi/include/c++/10.3.1/bits/stl_algobase.h ****     }
 285:/Library/DaisyToolchain/0.2.0/arm/arm-none-eabi/include/c++/10.3.1/bits/stl_algobase.h **** 
 286:/Library/DaisyToolchain/0.2.0/arm/arm-none-eabi/include/c++/10.3.1/bits/stl_algobase.h ****   /**
 287:/Library/DaisyToolchain/0.2.0/arm/arm-none-eabi/include/c++/10.3.1/bits/stl_algobase.h ****    *  @brief This does what you think it does.
 288:/Library/DaisyToolchain/0.2.0/arm/arm-none-eabi/include/c++/10.3.1/bits/stl_algobase.h ****    *  @ingroup sorting_algorithms
 289:/Library/DaisyToolchain/0.2.0/arm/arm-none-eabi/include/c++/10.3.1/bits/stl_algobase.h ****    *  @param  __a  A thing of arbitrary type.
 290:/Library/DaisyToolchain/0.2.0/arm/arm-none-eabi/include/c++/10.3.1/bits/stl_algobase.h ****    *  @param  __b  Another thing of arbitrary type.
 291:/Library/DaisyToolchain/0.2.0/arm/arm-none-eabi/include/c++/10.3.1/bits/stl_algobase.h ****    *  @param  __comp  A @link comparison_functors comparison functor@endlink.
 292:/Library/DaisyToolchain/0.2.0/arm/arm-none-eabi/include/c++/10.3.1/bits/stl_algobase.h ****    *  @return   The greater of the parameters.
 293:/Library/DaisyToolchain/0.2.0/arm/arm-none-eabi/include/c++/10.3.1/bits/stl_algobase.h ****    *
 294:/Library/DaisyToolchain/0.2.0/arm/arm-none-eabi/include/c++/10.3.1/bits/stl_algobase.h ****    *  This will work on temporary expressions, since they are only evaluated
 295:/Library/DaisyToolchain/0.2.0/arm/arm-none-eabi/include/c++/10.3.1/bits/stl_algobase.h ****    *  once, unlike a preprocessor macro.
 296:/Library/DaisyToolchain/0.2.0/arm/arm-none-eabi/include/c++/10.3.1/bits/stl_algobase.h ****   */
 297:/Library/DaisyToolchain/0.2.0/arm/arm-none-eabi/include/c++/10.3.1/bits/stl_algobase.h ****   template<typename _Tp, typename _Compare>
 298:/Library/DaisyToolchain/0.2.0/arm/arm-none-eabi/include/c++/10.3.1/bits/stl_algobase.h ****     _GLIBCXX14_CONSTEXPR
 299:/Library/DaisyToolchain/0.2.0/arm/arm-none-eabi/include/c++/10.3.1/bits/stl_algobase.h ****     inline const _Tp&
 300:/Library/DaisyToolchain/0.2.0/arm/arm-none-eabi/include/c++/10.3.1/bits/stl_algobase.h ****     max(const _Tp& __a, const _Tp& __b, _Compare __comp)
 301:/Library/DaisyToolchain/0.2.0/arm/arm-none-eabi/include/c++/10.3.1/bits/stl_algobase.h ****     {
 302:/Library/DaisyToolchain/0.2.0/arm/arm-none-eabi/include/c++/10.3.1/bits/stl_algobase.h ****       //return __comp(__a, __b) ? __b : __a;
 303:/Library/DaisyToolchain/0.2.0/arm/arm-none-eabi/include/c++/10.3.1/bits/stl_algobase.h ****       if (__comp(__a, __b))
 304:/Library/DaisyToolchain/0.2.0/arm/arm-none-eabi/include/c++/10.3.1/bits/stl_algobase.h **** 	return __b;
 305:/Library/DaisyToolchain/0.2.0/arm/arm-none-eabi/include/c++/10.3.1/bits/stl_algobase.h ****       return __a;
 306:/Library/DaisyToolchain/0.2.0/arm/arm-none-eabi/include/c++/10.3.1/bits/stl_algobase.h ****     }
 307:/Library/DaisyToolchain/0.2.0/arm/arm-none-eabi/include/c++/10.3.1/bits/stl_algobase.h **** 
 308:/Library/DaisyToolchain/0.2.0/arm/arm-none-eabi/include/c++/10.3.1/bits/stl_algobase.h ****   // Fallback implementation of the function in bits/stl_iterator.h used to
 309:/Library/DaisyToolchain/0.2.0/arm/arm-none-eabi/include/c++/10.3.1/bits/stl_algobase.h ****   // remove the __normal_iterator wrapper. See copy, fill, ...
 310:/Library/DaisyToolchain/0.2.0/arm/arm-none-eabi/include/c++/10.3.1/bits/stl_algobase.h ****   template<typename _Iterator>
 311:/Library/DaisyToolchain/0.2.0/arm/arm-none-eabi/include/c++/10.3.1/bits/stl_algobase.h ****     _GLIBCXX20_CONSTEXPR
 312:/Library/DaisyToolchain/0.2.0/arm/arm-none-eabi/include/c++/10.3.1/bits/stl_algobase.h ****     inline _Iterator
 313:/Library/DaisyToolchain/0.2.0/arm/arm-none-eabi/include/c++/10.3.1/bits/stl_algobase.h ****     __niter_base(_Iterator __it)
ARM GAS  /var/folders/9s/8rp0_f2s1n31qbztm3b5_fdh0000gn/T//ccHPFdxP.s 			page 18


 314:/Library/DaisyToolchain/0.2.0/arm/arm-none-eabi/include/c++/10.3.1/bits/stl_algobase.h ****     _GLIBCXX_NOEXCEPT_IF(std::is_nothrow_copy_constructible<_Iterator>::value)
 315:/Library/DaisyToolchain/0.2.0/arm/arm-none-eabi/include/c++/10.3.1/bits/stl_algobase.h ****     { return __it; }
 316:/Library/DaisyToolchain/0.2.0/arm/arm-none-eabi/include/c++/10.3.1/bits/stl_algobase.h **** 
 317:/Library/DaisyToolchain/0.2.0/arm/arm-none-eabi/include/c++/10.3.1/bits/stl_algobase.h ****   // Reverse the __niter_base transformation to get a
 318:/Library/DaisyToolchain/0.2.0/arm/arm-none-eabi/include/c++/10.3.1/bits/stl_algobase.h ****   // __normal_iterator back again (this assumes that __normal_iterator
 319:/Library/DaisyToolchain/0.2.0/arm/arm-none-eabi/include/c++/10.3.1/bits/stl_algobase.h ****   // is only used to wrap random access iterators, like pointers).
 320:/Library/DaisyToolchain/0.2.0/arm/arm-none-eabi/include/c++/10.3.1/bits/stl_algobase.h ****   template<typename _From, typename _To>
 321:/Library/DaisyToolchain/0.2.0/arm/arm-none-eabi/include/c++/10.3.1/bits/stl_algobase.h ****     _GLIBCXX20_CONSTEXPR
 322:/Library/DaisyToolchain/0.2.0/arm/arm-none-eabi/include/c++/10.3.1/bits/stl_algobase.h ****     inline _From
 323:/Library/DaisyToolchain/0.2.0/arm/arm-none-eabi/include/c++/10.3.1/bits/stl_algobase.h ****     __niter_wrap(_From __from, _To __res)
 324:/Library/DaisyToolchain/0.2.0/arm/arm-none-eabi/include/c++/10.3.1/bits/stl_algobase.h ****     { return __from + (__res - std::__niter_base(__from)); }
 325:/Library/DaisyToolchain/0.2.0/arm/arm-none-eabi/include/c++/10.3.1/bits/stl_algobase.h **** 
 326:/Library/DaisyToolchain/0.2.0/arm/arm-none-eabi/include/c++/10.3.1/bits/stl_algobase.h ****   // No need to wrap, iterator already has the right type.
 327:/Library/DaisyToolchain/0.2.0/arm/arm-none-eabi/include/c++/10.3.1/bits/stl_algobase.h ****   template<typename _Iterator>
 328:/Library/DaisyToolchain/0.2.0/arm/arm-none-eabi/include/c++/10.3.1/bits/stl_algobase.h ****     _GLIBCXX20_CONSTEXPR
 329:/Library/DaisyToolchain/0.2.0/arm/arm-none-eabi/include/c++/10.3.1/bits/stl_algobase.h ****     inline _Iterator
 330:/Library/DaisyToolchain/0.2.0/arm/arm-none-eabi/include/c++/10.3.1/bits/stl_algobase.h ****     __niter_wrap(const _Iterator&, _Iterator __res)
 331:/Library/DaisyToolchain/0.2.0/arm/arm-none-eabi/include/c++/10.3.1/bits/stl_algobase.h ****     { return __res; }
 332:/Library/DaisyToolchain/0.2.0/arm/arm-none-eabi/include/c++/10.3.1/bits/stl_algobase.h **** 
 333:/Library/DaisyToolchain/0.2.0/arm/arm-none-eabi/include/c++/10.3.1/bits/stl_algobase.h ****   // All of these auxiliary structs serve two purposes.  (1) Replace
 334:/Library/DaisyToolchain/0.2.0/arm/arm-none-eabi/include/c++/10.3.1/bits/stl_algobase.h ****   // calls to copy with memmove whenever possible.  (Memmove, not memcpy,
 335:/Library/DaisyToolchain/0.2.0/arm/arm-none-eabi/include/c++/10.3.1/bits/stl_algobase.h ****   // because the input and output ranges are permitted to overlap.)
 336:/Library/DaisyToolchain/0.2.0/arm/arm-none-eabi/include/c++/10.3.1/bits/stl_algobase.h ****   // (2) If we're using random access iterators, then write the loop as
 337:/Library/DaisyToolchain/0.2.0/arm/arm-none-eabi/include/c++/10.3.1/bits/stl_algobase.h ****   // a for loop with an explicit count.
 338:/Library/DaisyToolchain/0.2.0/arm/arm-none-eabi/include/c++/10.3.1/bits/stl_algobase.h **** 
 339:/Library/DaisyToolchain/0.2.0/arm/arm-none-eabi/include/c++/10.3.1/bits/stl_algobase.h ****   template<bool _IsMove, bool _IsSimple, typename _Category>
 340:/Library/DaisyToolchain/0.2.0/arm/arm-none-eabi/include/c++/10.3.1/bits/stl_algobase.h ****     struct __copy_move
 341:/Library/DaisyToolchain/0.2.0/arm/arm-none-eabi/include/c++/10.3.1/bits/stl_algobase.h ****     {
 342:/Library/DaisyToolchain/0.2.0/arm/arm-none-eabi/include/c++/10.3.1/bits/stl_algobase.h ****       template<typename _II, typename _OI>
 343:/Library/DaisyToolchain/0.2.0/arm/arm-none-eabi/include/c++/10.3.1/bits/stl_algobase.h **** 	_GLIBCXX20_CONSTEXPR
 344:/Library/DaisyToolchain/0.2.0/arm/arm-none-eabi/include/c++/10.3.1/bits/stl_algobase.h **** 	static _OI
 345:/Library/DaisyToolchain/0.2.0/arm/arm-none-eabi/include/c++/10.3.1/bits/stl_algobase.h **** 	__copy_m(_II __first, _II __last, _OI __result)
 346:/Library/DaisyToolchain/0.2.0/arm/arm-none-eabi/include/c++/10.3.1/bits/stl_algobase.h **** 	{
 347:/Library/DaisyToolchain/0.2.0/arm/arm-none-eabi/include/c++/10.3.1/bits/stl_algobase.h **** 	  for (; __first != __last; ++__result, (void)++__first)
 348:/Library/DaisyToolchain/0.2.0/arm/arm-none-eabi/include/c++/10.3.1/bits/stl_algobase.h **** 	    *__result = *__first;
 349:/Library/DaisyToolchain/0.2.0/arm/arm-none-eabi/include/c++/10.3.1/bits/stl_algobase.h **** 	  return __result;
 350:/Library/DaisyToolchain/0.2.0/arm/arm-none-eabi/include/c++/10.3.1/bits/stl_algobase.h **** 	}
 351:/Library/DaisyToolchain/0.2.0/arm/arm-none-eabi/include/c++/10.3.1/bits/stl_algobase.h ****     };
 352:/Library/DaisyToolchain/0.2.0/arm/arm-none-eabi/include/c++/10.3.1/bits/stl_algobase.h **** 
 353:/Library/DaisyToolchain/0.2.0/arm/arm-none-eabi/include/c++/10.3.1/bits/stl_algobase.h **** #if __cplusplus >= 201103L
 354:/Library/DaisyToolchain/0.2.0/arm/arm-none-eabi/include/c++/10.3.1/bits/stl_algobase.h ****   template<typename _Category>
 355:/Library/DaisyToolchain/0.2.0/arm/arm-none-eabi/include/c++/10.3.1/bits/stl_algobase.h ****     struct __copy_move<true, false, _Category>
 356:/Library/DaisyToolchain/0.2.0/arm/arm-none-eabi/include/c++/10.3.1/bits/stl_algobase.h ****     {
 357:/Library/DaisyToolchain/0.2.0/arm/arm-none-eabi/include/c++/10.3.1/bits/stl_algobase.h ****       template<typename _II, typename _OI>
 358:/Library/DaisyToolchain/0.2.0/arm/arm-none-eabi/include/c++/10.3.1/bits/stl_algobase.h **** 	_GLIBCXX20_CONSTEXPR
 359:/Library/DaisyToolchain/0.2.0/arm/arm-none-eabi/include/c++/10.3.1/bits/stl_algobase.h **** 	static _OI
 360:/Library/DaisyToolchain/0.2.0/arm/arm-none-eabi/include/c++/10.3.1/bits/stl_algobase.h **** 	__copy_m(_II __first, _II __last, _OI __result)
 361:/Library/DaisyToolchain/0.2.0/arm/arm-none-eabi/include/c++/10.3.1/bits/stl_algobase.h **** 	{
 362:/Library/DaisyToolchain/0.2.0/arm/arm-none-eabi/include/c++/10.3.1/bits/stl_algobase.h **** 	  for (; __first != __last; ++__result, (void)++__first)
 363:/Library/DaisyToolchain/0.2.0/arm/arm-none-eabi/include/c++/10.3.1/bits/stl_algobase.h **** 	    *__result = std::move(*__first);
 364:/Library/DaisyToolchain/0.2.0/arm/arm-none-eabi/include/c++/10.3.1/bits/stl_algobase.h **** 	  return __result;
 365:/Library/DaisyToolchain/0.2.0/arm/arm-none-eabi/include/c++/10.3.1/bits/stl_algobase.h **** 	}
 366:/Library/DaisyToolchain/0.2.0/arm/arm-none-eabi/include/c++/10.3.1/bits/stl_algobase.h ****     };
 367:/Library/DaisyToolchain/0.2.0/arm/arm-none-eabi/include/c++/10.3.1/bits/stl_algobase.h **** #endif
 368:/Library/DaisyToolchain/0.2.0/arm/arm-none-eabi/include/c++/10.3.1/bits/stl_algobase.h **** 
 369:/Library/DaisyToolchain/0.2.0/arm/arm-none-eabi/include/c++/10.3.1/bits/stl_algobase.h ****   template<>
 370:/Library/DaisyToolchain/0.2.0/arm/arm-none-eabi/include/c++/10.3.1/bits/stl_algobase.h ****     struct __copy_move<false, false, random_access_iterator_tag>
ARM GAS  /var/folders/9s/8rp0_f2s1n31qbztm3b5_fdh0000gn/T//ccHPFdxP.s 			page 19


 371:/Library/DaisyToolchain/0.2.0/arm/arm-none-eabi/include/c++/10.3.1/bits/stl_algobase.h ****     {
 372:/Library/DaisyToolchain/0.2.0/arm/arm-none-eabi/include/c++/10.3.1/bits/stl_algobase.h ****       template<typename _II, typename _OI>
 373:/Library/DaisyToolchain/0.2.0/arm/arm-none-eabi/include/c++/10.3.1/bits/stl_algobase.h **** 	_GLIBCXX20_CONSTEXPR
 374:/Library/DaisyToolchain/0.2.0/arm/arm-none-eabi/include/c++/10.3.1/bits/stl_algobase.h **** 	static _OI
 375:/Library/DaisyToolchain/0.2.0/arm/arm-none-eabi/include/c++/10.3.1/bits/stl_algobase.h **** 	__copy_m(_II __first, _II __last, _OI __result)
 376:/Library/DaisyToolchain/0.2.0/arm/arm-none-eabi/include/c++/10.3.1/bits/stl_algobase.h **** 	{
 377:/Library/DaisyToolchain/0.2.0/arm/arm-none-eabi/include/c++/10.3.1/bits/stl_algobase.h **** 	  typedef typename iterator_traits<_II>::difference_type _Distance;
 378:/Library/DaisyToolchain/0.2.0/arm/arm-none-eabi/include/c++/10.3.1/bits/stl_algobase.h **** 	  for(_Distance __n = __last - __first; __n > 0; --__n)
 379:/Library/DaisyToolchain/0.2.0/arm/arm-none-eabi/include/c++/10.3.1/bits/stl_algobase.h **** 	    {
 380:/Library/DaisyToolchain/0.2.0/arm/arm-none-eabi/include/c++/10.3.1/bits/stl_algobase.h **** 	      *__result = *__first;
 381:/Library/DaisyToolchain/0.2.0/arm/arm-none-eabi/include/c++/10.3.1/bits/stl_algobase.h **** 	      ++__first;
 382:/Library/DaisyToolchain/0.2.0/arm/arm-none-eabi/include/c++/10.3.1/bits/stl_algobase.h **** 	      ++__result;
 383:/Library/DaisyToolchain/0.2.0/arm/arm-none-eabi/include/c++/10.3.1/bits/stl_algobase.h **** 	    }
 384:/Library/DaisyToolchain/0.2.0/arm/arm-none-eabi/include/c++/10.3.1/bits/stl_algobase.h **** 	  return __result;
 385:/Library/DaisyToolchain/0.2.0/arm/arm-none-eabi/include/c++/10.3.1/bits/stl_algobase.h **** 	}
 386:/Library/DaisyToolchain/0.2.0/arm/arm-none-eabi/include/c++/10.3.1/bits/stl_algobase.h ****     };
 387:/Library/DaisyToolchain/0.2.0/arm/arm-none-eabi/include/c++/10.3.1/bits/stl_algobase.h **** 
 388:/Library/DaisyToolchain/0.2.0/arm/arm-none-eabi/include/c++/10.3.1/bits/stl_algobase.h **** #if __cplusplus >= 201103L
 389:/Library/DaisyToolchain/0.2.0/arm/arm-none-eabi/include/c++/10.3.1/bits/stl_algobase.h ****   template<>
 390:/Library/DaisyToolchain/0.2.0/arm/arm-none-eabi/include/c++/10.3.1/bits/stl_algobase.h ****     struct __copy_move<true, false, random_access_iterator_tag>
 391:/Library/DaisyToolchain/0.2.0/arm/arm-none-eabi/include/c++/10.3.1/bits/stl_algobase.h ****     {
 392:/Library/DaisyToolchain/0.2.0/arm/arm-none-eabi/include/c++/10.3.1/bits/stl_algobase.h ****       template<typename _II, typename _OI>
 393:/Library/DaisyToolchain/0.2.0/arm/arm-none-eabi/include/c++/10.3.1/bits/stl_algobase.h **** 	_GLIBCXX20_CONSTEXPR
 394:/Library/DaisyToolchain/0.2.0/arm/arm-none-eabi/include/c++/10.3.1/bits/stl_algobase.h **** 	static _OI
 395:/Library/DaisyToolchain/0.2.0/arm/arm-none-eabi/include/c++/10.3.1/bits/stl_algobase.h **** 	__copy_m(_II __first, _II __last, _OI __result)
 396:/Library/DaisyToolchain/0.2.0/arm/arm-none-eabi/include/c++/10.3.1/bits/stl_algobase.h **** 	{
 397:/Library/DaisyToolchain/0.2.0/arm/arm-none-eabi/include/c++/10.3.1/bits/stl_algobase.h **** 	  typedef typename iterator_traits<_II>::difference_type _Distance;
 398:/Library/DaisyToolchain/0.2.0/arm/arm-none-eabi/include/c++/10.3.1/bits/stl_algobase.h **** 	  for(_Distance __n = __last - __first; __n > 0; --__n)
 399:/Library/DaisyToolchain/0.2.0/arm/arm-none-eabi/include/c++/10.3.1/bits/stl_algobase.h **** 	    {
 400:/Library/DaisyToolchain/0.2.0/arm/arm-none-eabi/include/c++/10.3.1/bits/stl_algobase.h **** 	      *__result = std::move(*__first);
 401:/Library/DaisyToolchain/0.2.0/arm/arm-none-eabi/include/c++/10.3.1/bits/stl_algobase.h **** 	      ++__first;
 402:/Library/DaisyToolchain/0.2.0/arm/arm-none-eabi/include/c++/10.3.1/bits/stl_algobase.h **** 	      ++__result;
 403:/Library/DaisyToolchain/0.2.0/arm/arm-none-eabi/include/c++/10.3.1/bits/stl_algobase.h **** 	    }
 404:/Library/DaisyToolchain/0.2.0/arm/arm-none-eabi/include/c++/10.3.1/bits/stl_algobase.h **** 	  return __result;
 405:/Library/DaisyToolchain/0.2.0/arm/arm-none-eabi/include/c++/10.3.1/bits/stl_algobase.h **** 	}
 406:/Library/DaisyToolchain/0.2.0/arm/arm-none-eabi/include/c++/10.3.1/bits/stl_algobase.h ****     };
 407:/Library/DaisyToolchain/0.2.0/arm/arm-none-eabi/include/c++/10.3.1/bits/stl_algobase.h **** #endif
 408:/Library/DaisyToolchain/0.2.0/arm/arm-none-eabi/include/c++/10.3.1/bits/stl_algobase.h **** 
 409:/Library/DaisyToolchain/0.2.0/arm/arm-none-eabi/include/c++/10.3.1/bits/stl_algobase.h ****   template<bool _IsMove>
 410:/Library/DaisyToolchain/0.2.0/arm/arm-none-eabi/include/c++/10.3.1/bits/stl_algobase.h ****     struct __copy_move<_IsMove, true, random_access_iterator_tag>
 411:/Library/DaisyToolchain/0.2.0/arm/arm-none-eabi/include/c++/10.3.1/bits/stl_algobase.h ****     {
 412:/Library/DaisyToolchain/0.2.0/arm/arm-none-eabi/include/c++/10.3.1/bits/stl_algobase.h ****       template<typename _Tp>
 413:/Library/DaisyToolchain/0.2.0/arm/arm-none-eabi/include/c++/10.3.1/bits/stl_algobase.h **** 	_GLIBCXX20_CONSTEXPR
 414:/Library/DaisyToolchain/0.2.0/arm/arm-none-eabi/include/c++/10.3.1/bits/stl_algobase.h **** 	static _Tp*
 415:/Library/DaisyToolchain/0.2.0/arm/arm-none-eabi/include/c++/10.3.1/bits/stl_algobase.h **** 	__copy_m(const _Tp* __first, const _Tp* __last, _Tp* __result)
 416:/Library/DaisyToolchain/0.2.0/arm/arm-none-eabi/include/c++/10.3.1/bits/stl_algobase.h **** 	{
 417:/Library/DaisyToolchain/0.2.0/arm/arm-none-eabi/include/c++/10.3.1/bits/stl_algobase.h **** #if __cplusplus >= 201103L
 418:/Library/DaisyToolchain/0.2.0/arm/arm-none-eabi/include/c++/10.3.1/bits/stl_algobase.h **** 	  using __assignable = conditional<_IsMove,
 419:/Library/DaisyToolchain/0.2.0/arm/arm-none-eabi/include/c++/10.3.1/bits/stl_algobase.h **** 					   is_move_assignable<_Tp>,
 420:/Library/DaisyToolchain/0.2.0/arm/arm-none-eabi/include/c++/10.3.1/bits/stl_algobase.h **** 					   is_copy_assignable<_Tp>>;
 421:/Library/DaisyToolchain/0.2.0/arm/arm-none-eabi/include/c++/10.3.1/bits/stl_algobase.h **** 	  // trivial types can have deleted assignment
 422:/Library/DaisyToolchain/0.2.0/arm/arm-none-eabi/include/c++/10.3.1/bits/stl_algobase.h **** 	  static_assert( __assignable::type::value, "type is not assignable" );
 423:/Library/DaisyToolchain/0.2.0/arm/arm-none-eabi/include/c++/10.3.1/bits/stl_algobase.h **** #endif
 424:/Library/DaisyToolchain/0.2.0/arm/arm-none-eabi/include/c++/10.3.1/bits/stl_algobase.h **** 	  const ptrdiff_t _Num = __last - __first;
 425:/Library/DaisyToolchain/0.2.0/arm/arm-none-eabi/include/c++/10.3.1/bits/stl_algobase.h **** 	  if (_Num)
 426:/Library/DaisyToolchain/0.2.0/arm/arm-none-eabi/include/c++/10.3.1/bits/stl_algobase.h **** 	    __builtin_memmove(__result, __first, sizeof(_Tp) * _Num);
 427:/Library/DaisyToolchain/0.2.0/arm/arm-none-eabi/include/c++/10.3.1/bits/stl_algobase.h **** 	  return __result + _Num;
ARM GAS  /var/folders/9s/8rp0_f2s1n31qbztm3b5_fdh0000gn/T//ccHPFdxP.s 			page 20


 428:/Library/DaisyToolchain/0.2.0/arm/arm-none-eabi/include/c++/10.3.1/bits/stl_algobase.h **** 	}
 429:/Library/DaisyToolchain/0.2.0/arm/arm-none-eabi/include/c++/10.3.1/bits/stl_algobase.h ****     };
 430:/Library/DaisyToolchain/0.2.0/arm/arm-none-eabi/include/c++/10.3.1/bits/stl_algobase.h **** 
 431:/Library/DaisyToolchain/0.2.0/arm/arm-none-eabi/include/c++/10.3.1/bits/stl_algobase.h ****   // Helpers for streambuf iterators (either istream or ostream).
 432:/Library/DaisyToolchain/0.2.0/arm/arm-none-eabi/include/c++/10.3.1/bits/stl_algobase.h ****   // NB: avoid including <iosfwd>, relatively large.
 433:/Library/DaisyToolchain/0.2.0/arm/arm-none-eabi/include/c++/10.3.1/bits/stl_algobase.h ****   template<typename _CharT>
 434:/Library/DaisyToolchain/0.2.0/arm/arm-none-eabi/include/c++/10.3.1/bits/stl_algobase.h ****     struct char_traits;
 435:/Library/DaisyToolchain/0.2.0/arm/arm-none-eabi/include/c++/10.3.1/bits/stl_algobase.h **** 
 436:/Library/DaisyToolchain/0.2.0/arm/arm-none-eabi/include/c++/10.3.1/bits/stl_algobase.h ****   template<typename _CharT, typename _Traits>
 437:/Library/DaisyToolchain/0.2.0/arm/arm-none-eabi/include/c++/10.3.1/bits/stl_algobase.h ****     class istreambuf_iterator;
 438:/Library/DaisyToolchain/0.2.0/arm/arm-none-eabi/include/c++/10.3.1/bits/stl_algobase.h **** 
 439:/Library/DaisyToolchain/0.2.0/arm/arm-none-eabi/include/c++/10.3.1/bits/stl_algobase.h ****   template<typename _CharT, typename _Traits>
 440:/Library/DaisyToolchain/0.2.0/arm/arm-none-eabi/include/c++/10.3.1/bits/stl_algobase.h ****     class ostreambuf_iterator;
 441:/Library/DaisyToolchain/0.2.0/arm/arm-none-eabi/include/c++/10.3.1/bits/stl_algobase.h **** 
 442:/Library/DaisyToolchain/0.2.0/arm/arm-none-eabi/include/c++/10.3.1/bits/stl_algobase.h ****   template<bool _IsMove, typename _CharT>
 443:/Library/DaisyToolchain/0.2.0/arm/arm-none-eabi/include/c++/10.3.1/bits/stl_algobase.h ****     typename __gnu_cxx::__enable_if<__is_char<_CharT>::__value,
 444:/Library/DaisyToolchain/0.2.0/arm/arm-none-eabi/include/c++/10.3.1/bits/stl_algobase.h **** 	     ostreambuf_iterator<_CharT, char_traits<_CharT> > >::__type
 445:/Library/DaisyToolchain/0.2.0/arm/arm-none-eabi/include/c++/10.3.1/bits/stl_algobase.h ****     __copy_move_a2(_CharT*, _CharT*,
 446:/Library/DaisyToolchain/0.2.0/arm/arm-none-eabi/include/c++/10.3.1/bits/stl_algobase.h **** 		   ostreambuf_iterator<_CharT, char_traits<_CharT> >);
 447:/Library/DaisyToolchain/0.2.0/arm/arm-none-eabi/include/c++/10.3.1/bits/stl_algobase.h **** 
 448:/Library/DaisyToolchain/0.2.0/arm/arm-none-eabi/include/c++/10.3.1/bits/stl_algobase.h ****   template<bool _IsMove, typename _CharT>
 449:/Library/DaisyToolchain/0.2.0/arm/arm-none-eabi/include/c++/10.3.1/bits/stl_algobase.h ****     typename __gnu_cxx::__enable_if<__is_char<_CharT>::__value,
 450:/Library/DaisyToolchain/0.2.0/arm/arm-none-eabi/include/c++/10.3.1/bits/stl_algobase.h **** 	     ostreambuf_iterator<_CharT, char_traits<_CharT> > >::__type
 451:/Library/DaisyToolchain/0.2.0/arm/arm-none-eabi/include/c++/10.3.1/bits/stl_algobase.h ****     __copy_move_a2(const _CharT*, const _CharT*,
 452:/Library/DaisyToolchain/0.2.0/arm/arm-none-eabi/include/c++/10.3.1/bits/stl_algobase.h **** 		   ostreambuf_iterator<_CharT, char_traits<_CharT> >);
 453:/Library/DaisyToolchain/0.2.0/arm/arm-none-eabi/include/c++/10.3.1/bits/stl_algobase.h **** 
 454:/Library/DaisyToolchain/0.2.0/arm/arm-none-eabi/include/c++/10.3.1/bits/stl_algobase.h ****   template<bool _IsMove, typename _CharT>
 455:/Library/DaisyToolchain/0.2.0/arm/arm-none-eabi/include/c++/10.3.1/bits/stl_algobase.h ****     typename __gnu_cxx::__enable_if<__is_char<_CharT>::__value,
 456:/Library/DaisyToolchain/0.2.0/arm/arm-none-eabi/include/c++/10.3.1/bits/stl_algobase.h **** 				    _CharT*>::__type
 457:/Library/DaisyToolchain/0.2.0/arm/arm-none-eabi/include/c++/10.3.1/bits/stl_algobase.h ****     __copy_move_a2(istreambuf_iterator<_CharT, char_traits<_CharT> >,
 458:/Library/DaisyToolchain/0.2.0/arm/arm-none-eabi/include/c++/10.3.1/bits/stl_algobase.h **** 		   istreambuf_iterator<_CharT, char_traits<_CharT> >, _CharT*);
 459:/Library/DaisyToolchain/0.2.0/arm/arm-none-eabi/include/c++/10.3.1/bits/stl_algobase.h **** 
 460:/Library/DaisyToolchain/0.2.0/arm/arm-none-eabi/include/c++/10.3.1/bits/stl_algobase.h ****   template<bool _IsMove, typename _II, typename _OI>
 461:/Library/DaisyToolchain/0.2.0/arm/arm-none-eabi/include/c++/10.3.1/bits/stl_algobase.h ****     _GLIBCXX20_CONSTEXPR
 462:/Library/DaisyToolchain/0.2.0/arm/arm-none-eabi/include/c++/10.3.1/bits/stl_algobase.h ****     inline _OI
 463:/Library/DaisyToolchain/0.2.0/arm/arm-none-eabi/include/c++/10.3.1/bits/stl_algobase.h ****     __copy_move_a2(_II __first, _II __last, _OI __result)
 464:/Library/DaisyToolchain/0.2.0/arm/arm-none-eabi/include/c++/10.3.1/bits/stl_algobase.h ****     {
 465:/Library/DaisyToolchain/0.2.0/arm/arm-none-eabi/include/c++/10.3.1/bits/stl_algobase.h ****       typedef typename iterator_traits<_II>::iterator_category _Category;
 466:/Library/DaisyToolchain/0.2.0/arm/arm-none-eabi/include/c++/10.3.1/bits/stl_algobase.h **** #ifdef __cpp_lib_is_constant_evaluated
 467:/Library/DaisyToolchain/0.2.0/arm/arm-none-eabi/include/c++/10.3.1/bits/stl_algobase.h ****       if (std::is_constant_evaluated())
 468:/Library/DaisyToolchain/0.2.0/arm/arm-none-eabi/include/c++/10.3.1/bits/stl_algobase.h **** 	return std::__copy_move<_IsMove, false, _Category>::
 469:/Library/DaisyToolchain/0.2.0/arm/arm-none-eabi/include/c++/10.3.1/bits/stl_algobase.h **** 	  __copy_m(__first, __last, __result);
 470:/Library/DaisyToolchain/0.2.0/arm/arm-none-eabi/include/c++/10.3.1/bits/stl_algobase.h **** #endif
 471:/Library/DaisyToolchain/0.2.0/arm/arm-none-eabi/include/c++/10.3.1/bits/stl_algobase.h ****       return std::__copy_move<_IsMove, __memcpyable<_OI, _II>::__value,
 472:/Library/DaisyToolchain/0.2.0/arm/arm-none-eabi/include/c++/10.3.1/bits/stl_algobase.h **** 			      _Category>::__copy_m(__first, __last, __result);
 473:/Library/DaisyToolchain/0.2.0/arm/arm-none-eabi/include/c++/10.3.1/bits/stl_algobase.h ****     }
 474:/Library/DaisyToolchain/0.2.0/arm/arm-none-eabi/include/c++/10.3.1/bits/stl_algobase.h **** 
 475:/Library/DaisyToolchain/0.2.0/arm/arm-none-eabi/include/c++/10.3.1/bits/stl_algobase.h **** _GLIBCXX_BEGIN_NAMESPACE_CONTAINER
 476:/Library/DaisyToolchain/0.2.0/arm/arm-none-eabi/include/c++/10.3.1/bits/stl_algobase.h **** 
 477:/Library/DaisyToolchain/0.2.0/arm/arm-none-eabi/include/c++/10.3.1/bits/stl_algobase.h ****   template<typename _Tp, typename _Ref, typename _Ptr>
 478:/Library/DaisyToolchain/0.2.0/arm/arm-none-eabi/include/c++/10.3.1/bits/stl_algobase.h ****     struct _Deque_iterator;
 479:/Library/DaisyToolchain/0.2.0/arm/arm-none-eabi/include/c++/10.3.1/bits/stl_algobase.h **** 
 480:/Library/DaisyToolchain/0.2.0/arm/arm-none-eabi/include/c++/10.3.1/bits/stl_algobase.h **** _GLIBCXX_END_NAMESPACE_CONTAINER
 481:/Library/DaisyToolchain/0.2.0/arm/arm-none-eabi/include/c++/10.3.1/bits/stl_algobase.h **** 
 482:/Library/DaisyToolchain/0.2.0/arm/arm-none-eabi/include/c++/10.3.1/bits/stl_algobase.h ****   template<bool _IsMove,
 483:/Library/DaisyToolchain/0.2.0/arm/arm-none-eabi/include/c++/10.3.1/bits/stl_algobase.h **** 	   typename _Tp, typename _Ref, typename _Ptr, typename _OI>
 484:/Library/DaisyToolchain/0.2.0/arm/arm-none-eabi/include/c++/10.3.1/bits/stl_algobase.h ****     _OI
ARM GAS  /var/folders/9s/8rp0_f2s1n31qbztm3b5_fdh0000gn/T//ccHPFdxP.s 			page 21


 485:/Library/DaisyToolchain/0.2.0/arm/arm-none-eabi/include/c++/10.3.1/bits/stl_algobase.h ****     __copy_move_a1(_GLIBCXX_STD_C::_Deque_iterator<_Tp, _Ref, _Ptr>,
 486:/Library/DaisyToolchain/0.2.0/arm/arm-none-eabi/include/c++/10.3.1/bits/stl_algobase.h **** 		   _GLIBCXX_STD_C::_Deque_iterator<_Tp, _Ref, _Ptr>,
 487:/Library/DaisyToolchain/0.2.0/arm/arm-none-eabi/include/c++/10.3.1/bits/stl_algobase.h **** 		   _OI);
 488:/Library/DaisyToolchain/0.2.0/arm/arm-none-eabi/include/c++/10.3.1/bits/stl_algobase.h **** 
 489:/Library/DaisyToolchain/0.2.0/arm/arm-none-eabi/include/c++/10.3.1/bits/stl_algobase.h ****   template<bool _IsMove,
 490:/Library/DaisyToolchain/0.2.0/arm/arm-none-eabi/include/c++/10.3.1/bits/stl_algobase.h **** 	   typename _ITp, typename _IRef, typename _IPtr, typename _OTp>
 491:/Library/DaisyToolchain/0.2.0/arm/arm-none-eabi/include/c++/10.3.1/bits/stl_algobase.h ****     _GLIBCXX_STD_C::_Deque_iterator<_OTp, _OTp&, _OTp*>
 492:/Library/DaisyToolchain/0.2.0/arm/arm-none-eabi/include/c++/10.3.1/bits/stl_algobase.h ****     __copy_move_a1(_GLIBCXX_STD_C::_Deque_iterator<_ITp, _IRef, _IPtr>,
 493:/Library/DaisyToolchain/0.2.0/arm/arm-none-eabi/include/c++/10.3.1/bits/stl_algobase.h **** 		   _GLIBCXX_STD_C::_Deque_iterator<_ITp, _IRef, _IPtr>,
 494:/Library/DaisyToolchain/0.2.0/arm/arm-none-eabi/include/c++/10.3.1/bits/stl_algobase.h **** 		   _GLIBCXX_STD_C::_Deque_iterator<_OTp, _OTp&, _OTp*>);
 495:/Library/DaisyToolchain/0.2.0/arm/arm-none-eabi/include/c++/10.3.1/bits/stl_algobase.h **** 
 496:/Library/DaisyToolchain/0.2.0/arm/arm-none-eabi/include/c++/10.3.1/bits/stl_algobase.h ****   template<bool _IsMove, typename _II, typename _Tp>
 497:/Library/DaisyToolchain/0.2.0/arm/arm-none-eabi/include/c++/10.3.1/bits/stl_algobase.h ****     typename __gnu_cxx::__enable_if<
 498:/Library/DaisyToolchain/0.2.0/arm/arm-none-eabi/include/c++/10.3.1/bits/stl_algobase.h ****       __is_random_access_iter<_II>::__value,
 499:/Library/DaisyToolchain/0.2.0/arm/arm-none-eabi/include/c++/10.3.1/bits/stl_algobase.h ****       _GLIBCXX_STD_C::_Deque_iterator<_Tp, _Tp&, _Tp*> >::__type
 500:/Library/DaisyToolchain/0.2.0/arm/arm-none-eabi/include/c++/10.3.1/bits/stl_algobase.h ****     __copy_move_a1(_II, _II, _GLIBCXX_STD_C::_Deque_iterator<_Tp, _Tp&, _Tp*>);
 501:/Library/DaisyToolchain/0.2.0/arm/arm-none-eabi/include/c++/10.3.1/bits/stl_algobase.h **** 
 502:/Library/DaisyToolchain/0.2.0/arm/arm-none-eabi/include/c++/10.3.1/bits/stl_algobase.h ****   template<bool _IsMove, typename _II, typename _OI>
 503:/Library/DaisyToolchain/0.2.0/arm/arm-none-eabi/include/c++/10.3.1/bits/stl_algobase.h ****     _GLIBCXX20_CONSTEXPR
 504:/Library/DaisyToolchain/0.2.0/arm/arm-none-eabi/include/c++/10.3.1/bits/stl_algobase.h ****     inline _OI
 505:/Library/DaisyToolchain/0.2.0/arm/arm-none-eabi/include/c++/10.3.1/bits/stl_algobase.h ****     __copy_move_a1(_II __first, _II __last, _OI __result)
 506:/Library/DaisyToolchain/0.2.0/arm/arm-none-eabi/include/c++/10.3.1/bits/stl_algobase.h ****     { return std::__copy_move_a2<_IsMove>(__first, __last, __result); }
 507:/Library/DaisyToolchain/0.2.0/arm/arm-none-eabi/include/c++/10.3.1/bits/stl_algobase.h **** 
 508:/Library/DaisyToolchain/0.2.0/arm/arm-none-eabi/include/c++/10.3.1/bits/stl_algobase.h ****   template<bool _IsMove, typename _II, typename _OI>
 509:/Library/DaisyToolchain/0.2.0/arm/arm-none-eabi/include/c++/10.3.1/bits/stl_algobase.h ****     _GLIBCXX20_CONSTEXPR
 510:/Library/DaisyToolchain/0.2.0/arm/arm-none-eabi/include/c++/10.3.1/bits/stl_algobase.h ****     inline _OI
 511:/Library/DaisyToolchain/0.2.0/arm/arm-none-eabi/include/c++/10.3.1/bits/stl_algobase.h ****     __copy_move_a(_II __first, _II __last, _OI __result)
 512:/Library/DaisyToolchain/0.2.0/arm/arm-none-eabi/include/c++/10.3.1/bits/stl_algobase.h ****     {
 513:/Library/DaisyToolchain/0.2.0/arm/arm-none-eabi/include/c++/10.3.1/bits/stl_algobase.h ****       return std::__niter_wrap(__result,
 514:/Library/DaisyToolchain/0.2.0/arm/arm-none-eabi/include/c++/10.3.1/bits/stl_algobase.h **** 		std::__copy_move_a1<_IsMove>(std::__niter_base(__first),
 515:/Library/DaisyToolchain/0.2.0/arm/arm-none-eabi/include/c++/10.3.1/bits/stl_algobase.h **** 					     std::__niter_base(__last),
 516:/Library/DaisyToolchain/0.2.0/arm/arm-none-eabi/include/c++/10.3.1/bits/stl_algobase.h **** 					     std::__niter_base(__result)));
 517:/Library/DaisyToolchain/0.2.0/arm/arm-none-eabi/include/c++/10.3.1/bits/stl_algobase.h ****     }
 518:/Library/DaisyToolchain/0.2.0/arm/arm-none-eabi/include/c++/10.3.1/bits/stl_algobase.h **** 
 519:/Library/DaisyToolchain/0.2.0/arm/arm-none-eabi/include/c++/10.3.1/bits/stl_algobase.h ****   template<bool _IsMove,
 520:/Library/DaisyToolchain/0.2.0/arm/arm-none-eabi/include/c++/10.3.1/bits/stl_algobase.h **** 	   typename _Ite, typename _Seq, typename _Cat, typename _OI>
 521:/Library/DaisyToolchain/0.2.0/arm/arm-none-eabi/include/c++/10.3.1/bits/stl_algobase.h ****     _OI
 522:/Library/DaisyToolchain/0.2.0/arm/arm-none-eabi/include/c++/10.3.1/bits/stl_algobase.h ****     __copy_move_a(const ::__gnu_debug::_Safe_iterator<_Ite, _Seq, _Cat>&,
 523:/Library/DaisyToolchain/0.2.0/arm/arm-none-eabi/include/c++/10.3.1/bits/stl_algobase.h **** 		  const ::__gnu_debug::_Safe_iterator<_Ite, _Seq, _Cat>&,
 524:/Library/DaisyToolchain/0.2.0/arm/arm-none-eabi/include/c++/10.3.1/bits/stl_algobase.h **** 		  _OI);
 525:/Library/DaisyToolchain/0.2.0/arm/arm-none-eabi/include/c++/10.3.1/bits/stl_algobase.h **** 
 526:/Library/DaisyToolchain/0.2.0/arm/arm-none-eabi/include/c++/10.3.1/bits/stl_algobase.h ****   template<bool _IsMove,
 527:/Library/DaisyToolchain/0.2.0/arm/arm-none-eabi/include/c++/10.3.1/bits/stl_algobase.h **** 	   typename _II, typename _Ite, typename _Seq, typename _Cat>
 528:/Library/DaisyToolchain/0.2.0/arm/arm-none-eabi/include/c++/10.3.1/bits/stl_algobase.h ****     __gnu_debug::_Safe_iterator<_Ite, _Seq, _Cat>
 529:/Library/DaisyToolchain/0.2.0/arm/arm-none-eabi/include/c++/10.3.1/bits/stl_algobase.h ****     __copy_move_a(_II, _II,
 530:/Library/DaisyToolchain/0.2.0/arm/arm-none-eabi/include/c++/10.3.1/bits/stl_algobase.h **** 		  const ::__gnu_debug::_Safe_iterator<_Ite, _Seq, _Cat>&);
 531:/Library/DaisyToolchain/0.2.0/arm/arm-none-eabi/include/c++/10.3.1/bits/stl_algobase.h **** 
 532:/Library/DaisyToolchain/0.2.0/arm/arm-none-eabi/include/c++/10.3.1/bits/stl_algobase.h ****   template<bool _IsMove,
 533:/Library/DaisyToolchain/0.2.0/arm/arm-none-eabi/include/c++/10.3.1/bits/stl_algobase.h **** 	   typename _IIte, typename _ISeq, typename _ICat,
 534:/Library/DaisyToolchain/0.2.0/arm/arm-none-eabi/include/c++/10.3.1/bits/stl_algobase.h **** 	   typename _OIte, typename _OSeq, typename _OCat>
 535:/Library/DaisyToolchain/0.2.0/arm/arm-none-eabi/include/c++/10.3.1/bits/stl_algobase.h ****     ::__gnu_debug::_Safe_iterator<_OIte, _OSeq, _OCat>
 536:/Library/DaisyToolchain/0.2.0/arm/arm-none-eabi/include/c++/10.3.1/bits/stl_algobase.h ****     __copy_move_a(const ::__gnu_debug::_Safe_iterator<_IIte, _ISeq, _ICat>&,
 537:/Library/DaisyToolchain/0.2.0/arm/arm-none-eabi/include/c++/10.3.1/bits/stl_algobase.h **** 		  const ::__gnu_debug::_Safe_iterator<_IIte, _ISeq, _ICat>&,
 538:/Library/DaisyToolchain/0.2.0/arm/arm-none-eabi/include/c++/10.3.1/bits/stl_algobase.h **** 		  const ::__gnu_debug::_Safe_iterator<_OIte, _OSeq, _OCat>&);
 539:/Library/DaisyToolchain/0.2.0/arm/arm-none-eabi/include/c++/10.3.1/bits/stl_algobase.h **** 
 540:/Library/DaisyToolchain/0.2.0/arm/arm-none-eabi/include/c++/10.3.1/bits/stl_algobase.h ****   /**
 541:/Library/DaisyToolchain/0.2.0/arm/arm-none-eabi/include/c++/10.3.1/bits/stl_algobase.h ****    *  @brief Copies the range [first,last) into result.
ARM GAS  /var/folders/9s/8rp0_f2s1n31qbztm3b5_fdh0000gn/T//ccHPFdxP.s 			page 22


 542:/Library/DaisyToolchain/0.2.0/arm/arm-none-eabi/include/c++/10.3.1/bits/stl_algobase.h ****    *  @ingroup mutating_algorithms
 543:/Library/DaisyToolchain/0.2.0/arm/arm-none-eabi/include/c++/10.3.1/bits/stl_algobase.h ****    *  @param  __first  An input iterator.
 544:/Library/DaisyToolchain/0.2.0/arm/arm-none-eabi/include/c++/10.3.1/bits/stl_algobase.h ****    *  @param  __last   An input iterator.
 545:/Library/DaisyToolchain/0.2.0/arm/arm-none-eabi/include/c++/10.3.1/bits/stl_algobase.h ****    *  @param  __result An output iterator.
 546:/Library/DaisyToolchain/0.2.0/arm/arm-none-eabi/include/c++/10.3.1/bits/stl_algobase.h ****    *  @return   result + (last - first)
 547:/Library/DaisyToolchain/0.2.0/arm/arm-none-eabi/include/c++/10.3.1/bits/stl_algobase.h ****    *
 548:/Library/DaisyToolchain/0.2.0/arm/arm-none-eabi/include/c++/10.3.1/bits/stl_algobase.h ****    *  This inline function will boil down to a call to @c memmove whenever
 549:/Library/DaisyToolchain/0.2.0/arm/arm-none-eabi/include/c++/10.3.1/bits/stl_algobase.h ****    *  possible.  Failing that, if random access iterators are passed, then the
 550:/Library/DaisyToolchain/0.2.0/arm/arm-none-eabi/include/c++/10.3.1/bits/stl_algobase.h ****    *  loop count will be known (and therefore a candidate for compiler
 551:/Library/DaisyToolchain/0.2.0/arm/arm-none-eabi/include/c++/10.3.1/bits/stl_algobase.h ****    *  optimizations such as unrolling).  Result may not be contained within
 552:/Library/DaisyToolchain/0.2.0/arm/arm-none-eabi/include/c++/10.3.1/bits/stl_algobase.h ****    *  [first,last); the copy_backward function should be used instead.
 553:/Library/DaisyToolchain/0.2.0/arm/arm-none-eabi/include/c++/10.3.1/bits/stl_algobase.h ****    *
 554:/Library/DaisyToolchain/0.2.0/arm/arm-none-eabi/include/c++/10.3.1/bits/stl_algobase.h ****    *  Note that the end of the output range is permitted to be contained
 555:/Library/DaisyToolchain/0.2.0/arm/arm-none-eabi/include/c++/10.3.1/bits/stl_algobase.h ****    *  within [first,last).
 556:/Library/DaisyToolchain/0.2.0/arm/arm-none-eabi/include/c++/10.3.1/bits/stl_algobase.h ****   */
 557:/Library/DaisyToolchain/0.2.0/arm/arm-none-eabi/include/c++/10.3.1/bits/stl_algobase.h ****   template<typename _II, typename _OI>
 558:/Library/DaisyToolchain/0.2.0/arm/arm-none-eabi/include/c++/10.3.1/bits/stl_algobase.h ****     _GLIBCXX20_CONSTEXPR
 559:/Library/DaisyToolchain/0.2.0/arm/arm-none-eabi/include/c++/10.3.1/bits/stl_algobase.h ****     inline _OI
 560:/Library/DaisyToolchain/0.2.0/arm/arm-none-eabi/include/c++/10.3.1/bits/stl_algobase.h ****     copy(_II __first, _II __last, _OI __result)
 561:/Library/DaisyToolchain/0.2.0/arm/arm-none-eabi/include/c++/10.3.1/bits/stl_algobase.h ****     {
 562:/Library/DaisyToolchain/0.2.0/arm/arm-none-eabi/include/c++/10.3.1/bits/stl_algobase.h ****       // concept requirements
 563:/Library/DaisyToolchain/0.2.0/arm/arm-none-eabi/include/c++/10.3.1/bits/stl_algobase.h ****       __glibcxx_function_requires(_InputIteratorConcept<_II>)
 564:/Library/DaisyToolchain/0.2.0/arm/arm-none-eabi/include/c++/10.3.1/bits/stl_algobase.h ****       __glibcxx_function_requires(_OutputIteratorConcept<_OI,
 565:/Library/DaisyToolchain/0.2.0/arm/arm-none-eabi/include/c++/10.3.1/bits/stl_algobase.h **** 	    typename iterator_traits<_II>::value_type>)
 566:/Library/DaisyToolchain/0.2.0/arm/arm-none-eabi/include/c++/10.3.1/bits/stl_algobase.h ****       __glibcxx_requires_can_increment_range(__first, __last, __result);
 567:/Library/DaisyToolchain/0.2.0/arm/arm-none-eabi/include/c++/10.3.1/bits/stl_algobase.h **** 
 568:/Library/DaisyToolchain/0.2.0/arm/arm-none-eabi/include/c++/10.3.1/bits/stl_algobase.h ****       return std::__copy_move_a<__is_move_iterator<_II>::__value>
 569:/Library/DaisyToolchain/0.2.0/arm/arm-none-eabi/include/c++/10.3.1/bits/stl_algobase.h **** 	     (std::__miter_base(__first), std::__miter_base(__last), __result);
 570:/Library/DaisyToolchain/0.2.0/arm/arm-none-eabi/include/c++/10.3.1/bits/stl_algobase.h ****     }
 571:/Library/DaisyToolchain/0.2.0/arm/arm-none-eabi/include/c++/10.3.1/bits/stl_algobase.h **** 
 572:/Library/DaisyToolchain/0.2.0/arm/arm-none-eabi/include/c++/10.3.1/bits/stl_algobase.h **** #if __cplusplus >= 201103L
 573:/Library/DaisyToolchain/0.2.0/arm/arm-none-eabi/include/c++/10.3.1/bits/stl_algobase.h ****   /**
 574:/Library/DaisyToolchain/0.2.0/arm/arm-none-eabi/include/c++/10.3.1/bits/stl_algobase.h ****    *  @brief Moves the range [first,last) into result.
 575:/Library/DaisyToolchain/0.2.0/arm/arm-none-eabi/include/c++/10.3.1/bits/stl_algobase.h ****    *  @ingroup mutating_algorithms
 576:/Library/DaisyToolchain/0.2.0/arm/arm-none-eabi/include/c++/10.3.1/bits/stl_algobase.h ****    *  @param  __first  An input iterator.
 577:/Library/DaisyToolchain/0.2.0/arm/arm-none-eabi/include/c++/10.3.1/bits/stl_algobase.h ****    *  @param  __last   An input iterator.
 578:/Library/DaisyToolchain/0.2.0/arm/arm-none-eabi/include/c++/10.3.1/bits/stl_algobase.h ****    *  @param  __result An output iterator.
 579:/Library/DaisyToolchain/0.2.0/arm/arm-none-eabi/include/c++/10.3.1/bits/stl_algobase.h ****    *  @return   result + (last - first)
 580:/Library/DaisyToolchain/0.2.0/arm/arm-none-eabi/include/c++/10.3.1/bits/stl_algobase.h ****    *
 581:/Library/DaisyToolchain/0.2.0/arm/arm-none-eabi/include/c++/10.3.1/bits/stl_algobase.h ****    *  This inline function will boil down to a call to @c memmove whenever
 582:/Library/DaisyToolchain/0.2.0/arm/arm-none-eabi/include/c++/10.3.1/bits/stl_algobase.h ****    *  possible.  Failing that, if random access iterators are passed, then the
 583:/Library/DaisyToolchain/0.2.0/arm/arm-none-eabi/include/c++/10.3.1/bits/stl_algobase.h ****    *  loop count will be known (and therefore a candidate for compiler
 584:/Library/DaisyToolchain/0.2.0/arm/arm-none-eabi/include/c++/10.3.1/bits/stl_algobase.h ****    *  optimizations such as unrolling).  Result may not be contained within
 585:/Library/DaisyToolchain/0.2.0/arm/arm-none-eabi/include/c++/10.3.1/bits/stl_algobase.h ****    *  [first,last); the move_backward function should be used instead.
 586:/Library/DaisyToolchain/0.2.0/arm/arm-none-eabi/include/c++/10.3.1/bits/stl_algobase.h ****    *
 587:/Library/DaisyToolchain/0.2.0/arm/arm-none-eabi/include/c++/10.3.1/bits/stl_algobase.h ****    *  Note that the end of the output range is permitted to be contained
 588:/Library/DaisyToolchain/0.2.0/arm/arm-none-eabi/include/c++/10.3.1/bits/stl_algobase.h ****    *  within [first,last).
 589:/Library/DaisyToolchain/0.2.0/arm/arm-none-eabi/include/c++/10.3.1/bits/stl_algobase.h ****   */
 590:/Library/DaisyToolchain/0.2.0/arm/arm-none-eabi/include/c++/10.3.1/bits/stl_algobase.h ****   template<typename _II, typename _OI>
 591:/Library/DaisyToolchain/0.2.0/arm/arm-none-eabi/include/c++/10.3.1/bits/stl_algobase.h ****     _GLIBCXX20_CONSTEXPR
 592:/Library/DaisyToolchain/0.2.0/arm/arm-none-eabi/include/c++/10.3.1/bits/stl_algobase.h ****     inline _OI
 593:/Library/DaisyToolchain/0.2.0/arm/arm-none-eabi/include/c++/10.3.1/bits/stl_algobase.h ****     move(_II __first, _II __last, _OI __result)
 594:/Library/DaisyToolchain/0.2.0/arm/arm-none-eabi/include/c++/10.3.1/bits/stl_algobase.h ****     {
 595:/Library/DaisyToolchain/0.2.0/arm/arm-none-eabi/include/c++/10.3.1/bits/stl_algobase.h ****       // concept requirements
 596:/Library/DaisyToolchain/0.2.0/arm/arm-none-eabi/include/c++/10.3.1/bits/stl_algobase.h ****       __glibcxx_function_requires(_InputIteratorConcept<_II>)
 597:/Library/DaisyToolchain/0.2.0/arm/arm-none-eabi/include/c++/10.3.1/bits/stl_algobase.h ****       __glibcxx_function_requires(_OutputIteratorConcept<_OI,
 598:/Library/DaisyToolchain/0.2.0/arm/arm-none-eabi/include/c++/10.3.1/bits/stl_algobase.h **** 	    typename iterator_traits<_II>::value_type>)
ARM GAS  /var/folders/9s/8rp0_f2s1n31qbztm3b5_fdh0000gn/T//ccHPFdxP.s 			page 23


 599:/Library/DaisyToolchain/0.2.0/arm/arm-none-eabi/include/c++/10.3.1/bits/stl_algobase.h ****       __glibcxx_requires_can_increment_range(__first, __last, __result);
 600:/Library/DaisyToolchain/0.2.0/arm/arm-none-eabi/include/c++/10.3.1/bits/stl_algobase.h **** 
 601:/Library/DaisyToolchain/0.2.0/arm/arm-none-eabi/include/c++/10.3.1/bits/stl_algobase.h ****       return std::__copy_move_a<true>(std::__miter_base(__first),
 602:/Library/DaisyToolchain/0.2.0/arm/arm-none-eabi/include/c++/10.3.1/bits/stl_algobase.h **** 				      std::__miter_base(__last), __result);
 603:/Library/DaisyToolchain/0.2.0/arm/arm-none-eabi/include/c++/10.3.1/bits/stl_algobase.h ****     }
 604:/Library/DaisyToolchain/0.2.0/arm/arm-none-eabi/include/c++/10.3.1/bits/stl_algobase.h **** 
 605:/Library/DaisyToolchain/0.2.0/arm/arm-none-eabi/include/c++/10.3.1/bits/stl_algobase.h **** #define _GLIBCXX_MOVE3(_Tp, _Up, _Vp) std::move(_Tp, _Up, _Vp)
 606:/Library/DaisyToolchain/0.2.0/arm/arm-none-eabi/include/c++/10.3.1/bits/stl_algobase.h **** #else
 607:/Library/DaisyToolchain/0.2.0/arm/arm-none-eabi/include/c++/10.3.1/bits/stl_algobase.h **** #define _GLIBCXX_MOVE3(_Tp, _Up, _Vp) std::copy(_Tp, _Up, _Vp)
 608:/Library/DaisyToolchain/0.2.0/arm/arm-none-eabi/include/c++/10.3.1/bits/stl_algobase.h **** #endif
 609:/Library/DaisyToolchain/0.2.0/arm/arm-none-eabi/include/c++/10.3.1/bits/stl_algobase.h **** 
 610:/Library/DaisyToolchain/0.2.0/arm/arm-none-eabi/include/c++/10.3.1/bits/stl_algobase.h ****   template<bool _IsMove, bool _IsSimple, typename _Category>
 611:/Library/DaisyToolchain/0.2.0/arm/arm-none-eabi/include/c++/10.3.1/bits/stl_algobase.h ****     struct __copy_move_backward
 612:/Library/DaisyToolchain/0.2.0/arm/arm-none-eabi/include/c++/10.3.1/bits/stl_algobase.h ****     {
 613:/Library/DaisyToolchain/0.2.0/arm/arm-none-eabi/include/c++/10.3.1/bits/stl_algobase.h ****       template<typename _BI1, typename _BI2>
 614:/Library/DaisyToolchain/0.2.0/arm/arm-none-eabi/include/c++/10.3.1/bits/stl_algobase.h **** 	_GLIBCXX20_CONSTEXPR
 615:/Library/DaisyToolchain/0.2.0/arm/arm-none-eabi/include/c++/10.3.1/bits/stl_algobase.h **** 	static _BI2
 616:/Library/DaisyToolchain/0.2.0/arm/arm-none-eabi/include/c++/10.3.1/bits/stl_algobase.h **** 	__copy_move_b(_BI1 __first, _BI1 __last, _BI2 __result)
 617:/Library/DaisyToolchain/0.2.0/arm/arm-none-eabi/include/c++/10.3.1/bits/stl_algobase.h **** 	{
 618:/Library/DaisyToolchain/0.2.0/arm/arm-none-eabi/include/c++/10.3.1/bits/stl_algobase.h **** 	  while (__first != __last)
 619:/Library/DaisyToolchain/0.2.0/arm/arm-none-eabi/include/c++/10.3.1/bits/stl_algobase.h **** 	    *--__result = *--__last;
 620:/Library/DaisyToolchain/0.2.0/arm/arm-none-eabi/include/c++/10.3.1/bits/stl_algobase.h **** 	  return __result;
 621:/Library/DaisyToolchain/0.2.0/arm/arm-none-eabi/include/c++/10.3.1/bits/stl_algobase.h **** 	}
 622:/Library/DaisyToolchain/0.2.0/arm/arm-none-eabi/include/c++/10.3.1/bits/stl_algobase.h ****     };
 623:/Library/DaisyToolchain/0.2.0/arm/arm-none-eabi/include/c++/10.3.1/bits/stl_algobase.h **** 
 624:/Library/DaisyToolchain/0.2.0/arm/arm-none-eabi/include/c++/10.3.1/bits/stl_algobase.h **** #if __cplusplus >= 201103L
 625:/Library/DaisyToolchain/0.2.0/arm/arm-none-eabi/include/c++/10.3.1/bits/stl_algobase.h ****   template<typename _Category>
 626:/Library/DaisyToolchain/0.2.0/arm/arm-none-eabi/include/c++/10.3.1/bits/stl_algobase.h ****     struct __copy_move_backward<true, false, _Category>
 627:/Library/DaisyToolchain/0.2.0/arm/arm-none-eabi/include/c++/10.3.1/bits/stl_algobase.h ****     {
 628:/Library/DaisyToolchain/0.2.0/arm/arm-none-eabi/include/c++/10.3.1/bits/stl_algobase.h ****       template<typename _BI1, typename _BI2>
 629:/Library/DaisyToolchain/0.2.0/arm/arm-none-eabi/include/c++/10.3.1/bits/stl_algobase.h **** 	_GLIBCXX20_CONSTEXPR
 630:/Library/DaisyToolchain/0.2.0/arm/arm-none-eabi/include/c++/10.3.1/bits/stl_algobase.h **** 	static _BI2
 631:/Library/DaisyToolchain/0.2.0/arm/arm-none-eabi/include/c++/10.3.1/bits/stl_algobase.h **** 	__copy_move_b(_BI1 __first, _BI1 __last, _BI2 __result)
 632:/Library/DaisyToolchain/0.2.0/arm/arm-none-eabi/include/c++/10.3.1/bits/stl_algobase.h **** 	{
 633:/Library/DaisyToolchain/0.2.0/arm/arm-none-eabi/include/c++/10.3.1/bits/stl_algobase.h **** 	  while (__first != __last)
 634:/Library/DaisyToolchain/0.2.0/arm/arm-none-eabi/include/c++/10.3.1/bits/stl_algobase.h **** 	    *--__result = std::move(*--__last);
 635:/Library/DaisyToolchain/0.2.0/arm/arm-none-eabi/include/c++/10.3.1/bits/stl_algobase.h **** 	  return __result;
 636:/Library/DaisyToolchain/0.2.0/arm/arm-none-eabi/include/c++/10.3.1/bits/stl_algobase.h **** 	}
 637:/Library/DaisyToolchain/0.2.0/arm/arm-none-eabi/include/c++/10.3.1/bits/stl_algobase.h ****     };
 638:/Library/DaisyToolchain/0.2.0/arm/arm-none-eabi/include/c++/10.3.1/bits/stl_algobase.h **** #endif
 639:/Library/DaisyToolchain/0.2.0/arm/arm-none-eabi/include/c++/10.3.1/bits/stl_algobase.h **** 
 640:/Library/DaisyToolchain/0.2.0/arm/arm-none-eabi/include/c++/10.3.1/bits/stl_algobase.h ****   template<>
 641:/Library/DaisyToolchain/0.2.0/arm/arm-none-eabi/include/c++/10.3.1/bits/stl_algobase.h ****     struct __copy_move_backward<false, false, random_access_iterator_tag>
 642:/Library/DaisyToolchain/0.2.0/arm/arm-none-eabi/include/c++/10.3.1/bits/stl_algobase.h ****     {
 643:/Library/DaisyToolchain/0.2.0/arm/arm-none-eabi/include/c++/10.3.1/bits/stl_algobase.h ****       template<typename _BI1, typename _BI2>
 644:/Library/DaisyToolchain/0.2.0/arm/arm-none-eabi/include/c++/10.3.1/bits/stl_algobase.h **** 	_GLIBCXX20_CONSTEXPR
 645:/Library/DaisyToolchain/0.2.0/arm/arm-none-eabi/include/c++/10.3.1/bits/stl_algobase.h **** 	static _BI2
 646:/Library/DaisyToolchain/0.2.0/arm/arm-none-eabi/include/c++/10.3.1/bits/stl_algobase.h **** 	__copy_move_b(_BI1 __first, _BI1 __last, _BI2 __result)
 647:/Library/DaisyToolchain/0.2.0/arm/arm-none-eabi/include/c++/10.3.1/bits/stl_algobase.h **** 	{
 648:/Library/DaisyToolchain/0.2.0/arm/arm-none-eabi/include/c++/10.3.1/bits/stl_algobase.h **** 	  typename iterator_traits<_BI1>::difference_type
 649:/Library/DaisyToolchain/0.2.0/arm/arm-none-eabi/include/c++/10.3.1/bits/stl_algobase.h **** 	    __n = __last - __first;
 650:/Library/DaisyToolchain/0.2.0/arm/arm-none-eabi/include/c++/10.3.1/bits/stl_algobase.h **** 	  for (; __n > 0; --__n)
 651:/Library/DaisyToolchain/0.2.0/arm/arm-none-eabi/include/c++/10.3.1/bits/stl_algobase.h **** 	    *--__result = *--__last;
 652:/Library/DaisyToolchain/0.2.0/arm/arm-none-eabi/include/c++/10.3.1/bits/stl_algobase.h **** 	  return __result;
 653:/Library/DaisyToolchain/0.2.0/arm/arm-none-eabi/include/c++/10.3.1/bits/stl_algobase.h **** 	}
 654:/Library/DaisyToolchain/0.2.0/arm/arm-none-eabi/include/c++/10.3.1/bits/stl_algobase.h ****     };
 655:/Library/DaisyToolchain/0.2.0/arm/arm-none-eabi/include/c++/10.3.1/bits/stl_algobase.h **** 
ARM GAS  /var/folders/9s/8rp0_f2s1n31qbztm3b5_fdh0000gn/T//ccHPFdxP.s 			page 24


 656:/Library/DaisyToolchain/0.2.0/arm/arm-none-eabi/include/c++/10.3.1/bits/stl_algobase.h **** #if __cplusplus >= 201103L
 657:/Library/DaisyToolchain/0.2.0/arm/arm-none-eabi/include/c++/10.3.1/bits/stl_algobase.h ****   template<>
 658:/Library/DaisyToolchain/0.2.0/arm/arm-none-eabi/include/c++/10.3.1/bits/stl_algobase.h ****     struct __copy_move_backward<true, false, random_access_iterator_tag>
 659:/Library/DaisyToolchain/0.2.0/arm/arm-none-eabi/include/c++/10.3.1/bits/stl_algobase.h ****     {
 660:/Library/DaisyToolchain/0.2.0/arm/arm-none-eabi/include/c++/10.3.1/bits/stl_algobase.h ****       template<typename _BI1, typename _BI2>
 661:/Library/DaisyToolchain/0.2.0/arm/arm-none-eabi/include/c++/10.3.1/bits/stl_algobase.h **** 	_GLIBCXX20_CONSTEXPR
 662:/Library/DaisyToolchain/0.2.0/arm/arm-none-eabi/include/c++/10.3.1/bits/stl_algobase.h **** 	static _BI2
 663:/Library/DaisyToolchain/0.2.0/arm/arm-none-eabi/include/c++/10.3.1/bits/stl_algobase.h **** 	__copy_move_b(_BI1 __first, _BI1 __last, _BI2 __result)
 664:/Library/DaisyToolchain/0.2.0/arm/arm-none-eabi/include/c++/10.3.1/bits/stl_algobase.h **** 	{
 665:/Library/DaisyToolchain/0.2.0/arm/arm-none-eabi/include/c++/10.3.1/bits/stl_algobase.h **** 	  typename iterator_traits<_BI1>::difference_type
 666:/Library/DaisyToolchain/0.2.0/arm/arm-none-eabi/include/c++/10.3.1/bits/stl_algobase.h **** 	    __n = __last - __first;
 667:/Library/DaisyToolchain/0.2.0/arm/arm-none-eabi/include/c++/10.3.1/bits/stl_algobase.h **** 	  for (; __n > 0; --__n)
 668:/Library/DaisyToolchain/0.2.0/arm/arm-none-eabi/include/c++/10.3.1/bits/stl_algobase.h **** 	    *--__result = std::move(*--__last);
 669:/Library/DaisyToolchain/0.2.0/arm/arm-none-eabi/include/c++/10.3.1/bits/stl_algobase.h **** 	  return __result;
 670:/Library/DaisyToolchain/0.2.0/arm/arm-none-eabi/include/c++/10.3.1/bits/stl_algobase.h **** 	}
 671:/Library/DaisyToolchain/0.2.0/arm/arm-none-eabi/include/c++/10.3.1/bits/stl_algobase.h ****     };
 672:/Library/DaisyToolchain/0.2.0/arm/arm-none-eabi/include/c++/10.3.1/bits/stl_algobase.h **** #endif
 673:/Library/DaisyToolchain/0.2.0/arm/arm-none-eabi/include/c++/10.3.1/bits/stl_algobase.h **** 
 674:/Library/DaisyToolchain/0.2.0/arm/arm-none-eabi/include/c++/10.3.1/bits/stl_algobase.h ****   template<bool _IsMove>
 675:/Library/DaisyToolchain/0.2.0/arm/arm-none-eabi/include/c++/10.3.1/bits/stl_algobase.h ****     struct __copy_move_backward<_IsMove, true, random_access_iterator_tag>
 676:/Library/DaisyToolchain/0.2.0/arm/arm-none-eabi/include/c++/10.3.1/bits/stl_algobase.h ****     {
 677:/Library/DaisyToolchain/0.2.0/arm/arm-none-eabi/include/c++/10.3.1/bits/stl_algobase.h ****       template<typename _Tp>
 678:/Library/DaisyToolchain/0.2.0/arm/arm-none-eabi/include/c++/10.3.1/bits/stl_algobase.h **** 	_GLIBCXX20_CONSTEXPR
 679:/Library/DaisyToolchain/0.2.0/arm/arm-none-eabi/include/c++/10.3.1/bits/stl_algobase.h **** 	static _Tp*
 680:/Library/DaisyToolchain/0.2.0/arm/arm-none-eabi/include/c++/10.3.1/bits/stl_algobase.h **** 	__copy_move_b(const _Tp* __first, const _Tp* __last, _Tp* __result)
 681:/Library/DaisyToolchain/0.2.0/arm/arm-none-eabi/include/c++/10.3.1/bits/stl_algobase.h **** 	{
 682:/Library/DaisyToolchain/0.2.0/arm/arm-none-eabi/include/c++/10.3.1/bits/stl_algobase.h **** #if __cplusplus >= 201103L
 683:/Library/DaisyToolchain/0.2.0/arm/arm-none-eabi/include/c++/10.3.1/bits/stl_algobase.h **** 	  using __assignable = conditional<_IsMove,
 684:/Library/DaisyToolchain/0.2.0/arm/arm-none-eabi/include/c++/10.3.1/bits/stl_algobase.h **** 					   is_move_assignable<_Tp>,
 685:/Library/DaisyToolchain/0.2.0/arm/arm-none-eabi/include/c++/10.3.1/bits/stl_algobase.h **** 					   is_copy_assignable<_Tp>>;
 686:/Library/DaisyToolchain/0.2.0/arm/arm-none-eabi/include/c++/10.3.1/bits/stl_algobase.h **** 	  // trivial types can have deleted assignment
 687:/Library/DaisyToolchain/0.2.0/arm/arm-none-eabi/include/c++/10.3.1/bits/stl_algobase.h **** 	  static_assert( __assignable::type::value, "type is not assignable" );
 688:/Library/DaisyToolchain/0.2.0/arm/arm-none-eabi/include/c++/10.3.1/bits/stl_algobase.h **** #endif
 689:/Library/DaisyToolchain/0.2.0/arm/arm-none-eabi/include/c++/10.3.1/bits/stl_algobase.h **** 	  const ptrdiff_t _Num = __last - __first;
 690:/Library/DaisyToolchain/0.2.0/arm/arm-none-eabi/include/c++/10.3.1/bits/stl_algobase.h **** 	  if (_Num)
 691:/Library/DaisyToolchain/0.2.0/arm/arm-none-eabi/include/c++/10.3.1/bits/stl_algobase.h **** 	    __builtin_memmove(__result - _Num, __first, sizeof(_Tp) * _Num);
 692:/Library/DaisyToolchain/0.2.0/arm/arm-none-eabi/include/c++/10.3.1/bits/stl_algobase.h **** 	  return __result - _Num;
 693:/Library/DaisyToolchain/0.2.0/arm/arm-none-eabi/include/c++/10.3.1/bits/stl_algobase.h **** 	}
 694:/Library/DaisyToolchain/0.2.0/arm/arm-none-eabi/include/c++/10.3.1/bits/stl_algobase.h ****     };
 695:/Library/DaisyToolchain/0.2.0/arm/arm-none-eabi/include/c++/10.3.1/bits/stl_algobase.h **** 
 696:/Library/DaisyToolchain/0.2.0/arm/arm-none-eabi/include/c++/10.3.1/bits/stl_algobase.h ****   template<bool _IsMove, typename _BI1, typename _BI2>
 697:/Library/DaisyToolchain/0.2.0/arm/arm-none-eabi/include/c++/10.3.1/bits/stl_algobase.h ****     _GLIBCXX20_CONSTEXPR
 698:/Library/DaisyToolchain/0.2.0/arm/arm-none-eabi/include/c++/10.3.1/bits/stl_algobase.h ****     inline _BI2
 699:/Library/DaisyToolchain/0.2.0/arm/arm-none-eabi/include/c++/10.3.1/bits/stl_algobase.h ****     __copy_move_backward_a2(_BI1 __first, _BI1 __last, _BI2 __result)
 700:/Library/DaisyToolchain/0.2.0/arm/arm-none-eabi/include/c++/10.3.1/bits/stl_algobase.h ****     {
 701:/Library/DaisyToolchain/0.2.0/arm/arm-none-eabi/include/c++/10.3.1/bits/stl_algobase.h ****       typedef typename iterator_traits<_BI1>::iterator_category _Category;
 702:/Library/DaisyToolchain/0.2.0/arm/arm-none-eabi/include/c++/10.3.1/bits/stl_algobase.h **** #ifdef __cpp_lib_is_constant_evaluated
 703:/Library/DaisyToolchain/0.2.0/arm/arm-none-eabi/include/c++/10.3.1/bits/stl_algobase.h ****       if (std::is_constant_evaluated())
 704:/Library/DaisyToolchain/0.2.0/arm/arm-none-eabi/include/c++/10.3.1/bits/stl_algobase.h **** 	return std::__copy_move_backward<_IsMove, false, _Category>::
 705:/Library/DaisyToolchain/0.2.0/arm/arm-none-eabi/include/c++/10.3.1/bits/stl_algobase.h **** 	  __copy_move_b(__first, __last, __result);
 706:/Library/DaisyToolchain/0.2.0/arm/arm-none-eabi/include/c++/10.3.1/bits/stl_algobase.h **** #endif
 707:/Library/DaisyToolchain/0.2.0/arm/arm-none-eabi/include/c++/10.3.1/bits/stl_algobase.h ****       return std::__copy_move_backward<_IsMove,
 708:/Library/DaisyToolchain/0.2.0/arm/arm-none-eabi/include/c++/10.3.1/bits/stl_algobase.h **** 				       __memcpyable<_BI2, _BI1>::__value,
 709:/Library/DaisyToolchain/0.2.0/arm/arm-none-eabi/include/c++/10.3.1/bits/stl_algobase.h **** 				       _Category>::__copy_move_b(__first,
 710:/Library/DaisyToolchain/0.2.0/arm/arm-none-eabi/include/c++/10.3.1/bits/stl_algobase.h **** 								 __last,
 711:/Library/DaisyToolchain/0.2.0/arm/arm-none-eabi/include/c++/10.3.1/bits/stl_algobase.h **** 								 __result);
 712:/Library/DaisyToolchain/0.2.0/arm/arm-none-eabi/include/c++/10.3.1/bits/stl_algobase.h ****     }
ARM GAS  /var/folders/9s/8rp0_f2s1n31qbztm3b5_fdh0000gn/T//ccHPFdxP.s 			page 25


 713:/Library/DaisyToolchain/0.2.0/arm/arm-none-eabi/include/c++/10.3.1/bits/stl_algobase.h **** 
 714:/Library/DaisyToolchain/0.2.0/arm/arm-none-eabi/include/c++/10.3.1/bits/stl_algobase.h ****   template<bool _IsMove, typename _BI1, typename _BI2>
 715:/Library/DaisyToolchain/0.2.0/arm/arm-none-eabi/include/c++/10.3.1/bits/stl_algobase.h ****     _GLIBCXX20_CONSTEXPR
 716:/Library/DaisyToolchain/0.2.0/arm/arm-none-eabi/include/c++/10.3.1/bits/stl_algobase.h ****     inline _BI2
 717:/Library/DaisyToolchain/0.2.0/arm/arm-none-eabi/include/c++/10.3.1/bits/stl_algobase.h ****     __copy_move_backward_a1(_BI1 __first, _BI1 __last, _BI2 __result)
 718:/Library/DaisyToolchain/0.2.0/arm/arm-none-eabi/include/c++/10.3.1/bits/stl_algobase.h ****     { return std::__copy_move_backward_a2<_IsMove>(__first, __last, __result); }
 719:/Library/DaisyToolchain/0.2.0/arm/arm-none-eabi/include/c++/10.3.1/bits/stl_algobase.h **** 
 720:/Library/DaisyToolchain/0.2.0/arm/arm-none-eabi/include/c++/10.3.1/bits/stl_algobase.h ****   template<bool _IsMove,
 721:/Library/DaisyToolchain/0.2.0/arm/arm-none-eabi/include/c++/10.3.1/bits/stl_algobase.h **** 	   typename _Tp, typename _Ref, typename _Ptr, typename _OI>
 722:/Library/DaisyToolchain/0.2.0/arm/arm-none-eabi/include/c++/10.3.1/bits/stl_algobase.h ****     _OI
 723:/Library/DaisyToolchain/0.2.0/arm/arm-none-eabi/include/c++/10.3.1/bits/stl_algobase.h ****     __copy_move_backward_a1(_GLIBCXX_STD_C::_Deque_iterator<_Tp, _Ref, _Ptr>,
 724:/Library/DaisyToolchain/0.2.0/arm/arm-none-eabi/include/c++/10.3.1/bits/stl_algobase.h **** 			    _GLIBCXX_STD_C::_Deque_iterator<_Tp, _Ref, _Ptr>,
 725:/Library/DaisyToolchain/0.2.0/arm/arm-none-eabi/include/c++/10.3.1/bits/stl_algobase.h **** 			    _OI);
 726:/Library/DaisyToolchain/0.2.0/arm/arm-none-eabi/include/c++/10.3.1/bits/stl_algobase.h **** 
 727:/Library/DaisyToolchain/0.2.0/arm/arm-none-eabi/include/c++/10.3.1/bits/stl_algobase.h ****   template<bool _IsMove,
 728:/Library/DaisyToolchain/0.2.0/arm/arm-none-eabi/include/c++/10.3.1/bits/stl_algobase.h **** 	   typename _ITp, typename _IRef, typename _IPtr, typename _OTp>
 729:/Library/DaisyToolchain/0.2.0/arm/arm-none-eabi/include/c++/10.3.1/bits/stl_algobase.h ****     _GLIBCXX_STD_C::_Deque_iterator<_OTp, _OTp&, _OTp*>
 730:/Library/DaisyToolchain/0.2.0/arm/arm-none-eabi/include/c++/10.3.1/bits/stl_algobase.h ****     __copy_move_backward_a1(
 731:/Library/DaisyToolchain/0.2.0/arm/arm-none-eabi/include/c++/10.3.1/bits/stl_algobase.h **** 			_GLIBCXX_STD_C::_Deque_iterator<_ITp, _IRef, _IPtr>,
 732:/Library/DaisyToolchain/0.2.0/arm/arm-none-eabi/include/c++/10.3.1/bits/stl_algobase.h **** 			_GLIBCXX_STD_C::_Deque_iterator<_ITp, _IRef, _IPtr>,
 733:/Library/DaisyToolchain/0.2.0/arm/arm-none-eabi/include/c++/10.3.1/bits/stl_algobase.h **** 			_GLIBCXX_STD_C::_Deque_iterator<_OTp, _OTp&, _OTp*>);
 734:/Library/DaisyToolchain/0.2.0/arm/arm-none-eabi/include/c++/10.3.1/bits/stl_algobase.h **** 
 735:/Library/DaisyToolchain/0.2.0/arm/arm-none-eabi/include/c++/10.3.1/bits/stl_algobase.h ****   template<bool _IsMove, typename _II, typename _Tp>
 736:/Library/DaisyToolchain/0.2.0/arm/arm-none-eabi/include/c++/10.3.1/bits/stl_algobase.h ****     typename __gnu_cxx::__enable_if<
 737:/Library/DaisyToolchain/0.2.0/arm/arm-none-eabi/include/c++/10.3.1/bits/stl_algobase.h ****       __is_random_access_iter<_II>::__value,
 738:/Library/DaisyToolchain/0.2.0/arm/arm-none-eabi/include/c++/10.3.1/bits/stl_algobase.h ****       _GLIBCXX_STD_C::_Deque_iterator<_Tp, _Tp&, _Tp*> >::__type
 739:/Library/DaisyToolchain/0.2.0/arm/arm-none-eabi/include/c++/10.3.1/bits/stl_algobase.h ****     __copy_move_backward_a1(_II, _II,
 740:/Library/DaisyToolchain/0.2.0/arm/arm-none-eabi/include/c++/10.3.1/bits/stl_algobase.h **** 			    _GLIBCXX_STD_C::_Deque_iterator<_Tp, _Tp&, _Tp*>);
 741:/Library/DaisyToolchain/0.2.0/arm/arm-none-eabi/include/c++/10.3.1/bits/stl_algobase.h **** 
 742:/Library/DaisyToolchain/0.2.0/arm/arm-none-eabi/include/c++/10.3.1/bits/stl_algobase.h ****   template<bool _IsMove, typename _II, typename _OI>
 743:/Library/DaisyToolchain/0.2.0/arm/arm-none-eabi/include/c++/10.3.1/bits/stl_algobase.h ****     _GLIBCXX20_CONSTEXPR
 744:/Library/DaisyToolchain/0.2.0/arm/arm-none-eabi/include/c++/10.3.1/bits/stl_algobase.h ****     inline _OI
 745:/Library/DaisyToolchain/0.2.0/arm/arm-none-eabi/include/c++/10.3.1/bits/stl_algobase.h ****     __copy_move_backward_a(_II __first, _II __last, _OI __result)
 746:/Library/DaisyToolchain/0.2.0/arm/arm-none-eabi/include/c++/10.3.1/bits/stl_algobase.h ****     {
 747:/Library/DaisyToolchain/0.2.0/arm/arm-none-eabi/include/c++/10.3.1/bits/stl_algobase.h ****       return std::__niter_wrap(__result,
 748:/Library/DaisyToolchain/0.2.0/arm/arm-none-eabi/include/c++/10.3.1/bits/stl_algobase.h **** 		std::__copy_move_backward_a1<_IsMove>
 749:/Library/DaisyToolchain/0.2.0/arm/arm-none-eabi/include/c++/10.3.1/bits/stl_algobase.h **** 		  (std::__niter_base(__first), std::__niter_base(__last),
 750:/Library/DaisyToolchain/0.2.0/arm/arm-none-eabi/include/c++/10.3.1/bits/stl_algobase.h **** 		   std::__niter_base(__result)));
 751:/Library/DaisyToolchain/0.2.0/arm/arm-none-eabi/include/c++/10.3.1/bits/stl_algobase.h ****     }
 752:/Library/DaisyToolchain/0.2.0/arm/arm-none-eabi/include/c++/10.3.1/bits/stl_algobase.h **** 
 753:/Library/DaisyToolchain/0.2.0/arm/arm-none-eabi/include/c++/10.3.1/bits/stl_algobase.h ****   template<bool _IsMove,
 754:/Library/DaisyToolchain/0.2.0/arm/arm-none-eabi/include/c++/10.3.1/bits/stl_algobase.h **** 	   typename _Ite, typename _Seq, typename _Cat, typename _OI>
 755:/Library/DaisyToolchain/0.2.0/arm/arm-none-eabi/include/c++/10.3.1/bits/stl_algobase.h ****     _OI
 756:/Library/DaisyToolchain/0.2.0/arm/arm-none-eabi/include/c++/10.3.1/bits/stl_algobase.h ****     __copy_move_backward_a(
 757:/Library/DaisyToolchain/0.2.0/arm/arm-none-eabi/include/c++/10.3.1/bits/stl_algobase.h **** 		const ::__gnu_debug::_Safe_iterator<_Ite, _Seq, _Cat>&,
 758:/Library/DaisyToolchain/0.2.0/arm/arm-none-eabi/include/c++/10.3.1/bits/stl_algobase.h **** 		const ::__gnu_debug::_Safe_iterator<_Ite, _Seq, _Cat>&,
 759:/Library/DaisyToolchain/0.2.0/arm/arm-none-eabi/include/c++/10.3.1/bits/stl_algobase.h **** 		_OI);
 760:/Library/DaisyToolchain/0.2.0/arm/arm-none-eabi/include/c++/10.3.1/bits/stl_algobase.h **** 
 761:/Library/DaisyToolchain/0.2.0/arm/arm-none-eabi/include/c++/10.3.1/bits/stl_algobase.h ****   template<bool _IsMove,
 762:/Library/DaisyToolchain/0.2.0/arm/arm-none-eabi/include/c++/10.3.1/bits/stl_algobase.h **** 	   typename _II, typename _Ite, typename _Seq, typename _Cat>
 763:/Library/DaisyToolchain/0.2.0/arm/arm-none-eabi/include/c++/10.3.1/bits/stl_algobase.h ****     __gnu_debug::_Safe_iterator<_Ite, _Seq, _Cat>
 764:/Library/DaisyToolchain/0.2.0/arm/arm-none-eabi/include/c++/10.3.1/bits/stl_algobase.h ****     __copy_move_backward_a(_II, _II,
 765:/Library/DaisyToolchain/0.2.0/arm/arm-none-eabi/include/c++/10.3.1/bits/stl_algobase.h **** 		const ::__gnu_debug::_Safe_iterator<_Ite, _Seq, _Cat>&);
 766:/Library/DaisyToolchain/0.2.0/arm/arm-none-eabi/include/c++/10.3.1/bits/stl_algobase.h **** 
 767:/Library/DaisyToolchain/0.2.0/arm/arm-none-eabi/include/c++/10.3.1/bits/stl_algobase.h ****   template<bool _IsMove,
 768:/Library/DaisyToolchain/0.2.0/arm/arm-none-eabi/include/c++/10.3.1/bits/stl_algobase.h **** 	   typename _IIte, typename _ISeq, typename _ICat,
 769:/Library/DaisyToolchain/0.2.0/arm/arm-none-eabi/include/c++/10.3.1/bits/stl_algobase.h **** 	   typename _OIte, typename _OSeq, typename _OCat>
ARM GAS  /var/folders/9s/8rp0_f2s1n31qbztm3b5_fdh0000gn/T//ccHPFdxP.s 			page 26


 770:/Library/DaisyToolchain/0.2.0/arm/arm-none-eabi/include/c++/10.3.1/bits/stl_algobase.h ****     ::__gnu_debug::_Safe_iterator<_OIte, _OSeq, _OCat>
 771:/Library/DaisyToolchain/0.2.0/arm/arm-none-eabi/include/c++/10.3.1/bits/stl_algobase.h ****     __copy_move_backward_a(
 772:/Library/DaisyToolchain/0.2.0/arm/arm-none-eabi/include/c++/10.3.1/bits/stl_algobase.h **** 		const ::__gnu_debug::_Safe_iterator<_IIte, _ISeq, _ICat>&,
 773:/Library/DaisyToolchain/0.2.0/arm/arm-none-eabi/include/c++/10.3.1/bits/stl_algobase.h **** 		const ::__gnu_debug::_Safe_iterator<_IIte, _ISeq, _ICat>&,
 774:/Library/DaisyToolchain/0.2.0/arm/arm-none-eabi/include/c++/10.3.1/bits/stl_algobase.h **** 		const ::__gnu_debug::_Safe_iterator<_OIte, _OSeq, _OCat>&);
 775:/Library/DaisyToolchain/0.2.0/arm/arm-none-eabi/include/c++/10.3.1/bits/stl_algobase.h **** 
 776:/Library/DaisyToolchain/0.2.0/arm/arm-none-eabi/include/c++/10.3.1/bits/stl_algobase.h ****   /**
 777:/Library/DaisyToolchain/0.2.0/arm/arm-none-eabi/include/c++/10.3.1/bits/stl_algobase.h ****    *  @brief Copies the range [first,last) into result.
 778:/Library/DaisyToolchain/0.2.0/arm/arm-none-eabi/include/c++/10.3.1/bits/stl_algobase.h ****    *  @ingroup mutating_algorithms
 779:/Library/DaisyToolchain/0.2.0/arm/arm-none-eabi/include/c++/10.3.1/bits/stl_algobase.h ****    *  @param  __first  A bidirectional iterator.
 780:/Library/DaisyToolchain/0.2.0/arm/arm-none-eabi/include/c++/10.3.1/bits/stl_algobase.h ****    *  @param  __last   A bidirectional iterator.
 781:/Library/DaisyToolchain/0.2.0/arm/arm-none-eabi/include/c++/10.3.1/bits/stl_algobase.h ****    *  @param  __result A bidirectional iterator.
 782:/Library/DaisyToolchain/0.2.0/arm/arm-none-eabi/include/c++/10.3.1/bits/stl_algobase.h ****    *  @return   result - (last - first)
 783:/Library/DaisyToolchain/0.2.0/arm/arm-none-eabi/include/c++/10.3.1/bits/stl_algobase.h ****    *
 784:/Library/DaisyToolchain/0.2.0/arm/arm-none-eabi/include/c++/10.3.1/bits/stl_algobase.h ****    *  The function has the same effect as copy, but starts at the end of the
 785:/Library/DaisyToolchain/0.2.0/arm/arm-none-eabi/include/c++/10.3.1/bits/stl_algobase.h ****    *  range and works its way to the start, returning the start of the result.
 786:/Library/DaisyToolchain/0.2.0/arm/arm-none-eabi/include/c++/10.3.1/bits/stl_algobase.h ****    *  This inline function will boil down to a call to @c memmove whenever
 787:/Library/DaisyToolchain/0.2.0/arm/arm-none-eabi/include/c++/10.3.1/bits/stl_algobase.h ****    *  possible.  Failing that, if random access iterators are passed, then the
 788:/Library/DaisyToolchain/0.2.0/arm/arm-none-eabi/include/c++/10.3.1/bits/stl_algobase.h ****    *  loop count will be known (and therefore a candidate for compiler
 789:/Library/DaisyToolchain/0.2.0/arm/arm-none-eabi/include/c++/10.3.1/bits/stl_algobase.h ****    *  optimizations such as unrolling).
 790:/Library/DaisyToolchain/0.2.0/arm/arm-none-eabi/include/c++/10.3.1/bits/stl_algobase.h ****    *
 791:/Library/DaisyToolchain/0.2.0/arm/arm-none-eabi/include/c++/10.3.1/bits/stl_algobase.h ****    *  Result may not be in the range (first,last].  Use copy instead.  Note
 792:/Library/DaisyToolchain/0.2.0/arm/arm-none-eabi/include/c++/10.3.1/bits/stl_algobase.h ****    *  that the start of the output range may overlap [first,last).
 793:/Library/DaisyToolchain/0.2.0/arm/arm-none-eabi/include/c++/10.3.1/bits/stl_algobase.h ****   */
 794:/Library/DaisyToolchain/0.2.0/arm/arm-none-eabi/include/c++/10.3.1/bits/stl_algobase.h ****   template<typename _BI1, typename _BI2>
 795:/Library/DaisyToolchain/0.2.0/arm/arm-none-eabi/include/c++/10.3.1/bits/stl_algobase.h ****     _GLIBCXX20_CONSTEXPR
 796:/Library/DaisyToolchain/0.2.0/arm/arm-none-eabi/include/c++/10.3.1/bits/stl_algobase.h ****     inline _BI2
 797:/Library/DaisyToolchain/0.2.0/arm/arm-none-eabi/include/c++/10.3.1/bits/stl_algobase.h ****     copy_backward(_BI1 __first, _BI1 __last, _BI2 __result)
 798:/Library/DaisyToolchain/0.2.0/arm/arm-none-eabi/include/c++/10.3.1/bits/stl_algobase.h ****     {
 799:/Library/DaisyToolchain/0.2.0/arm/arm-none-eabi/include/c++/10.3.1/bits/stl_algobase.h ****       // concept requirements
 800:/Library/DaisyToolchain/0.2.0/arm/arm-none-eabi/include/c++/10.3.1/bits/stl_algobase.h ****       __glibcxx_function_requires(_BidirectionalIteratorConcept<_BI1>)
 801:/Library/DaisyToolchain/0.2.0/arm/arm-none-eabi/include/c++/10.3.1/bits/stl_algobase.h ****       __glibcxx_function_requires(_Mutable_BidirectionalIteratorConcept<_BI2>)
 802:/Library/DaisyToolchain/0.2.0/arm/arm-none-eabi/include/c++/10.3.1/bits/stl_algobase.h ****       __glibcxx_function_requires(_ConvertibleConcept<
 803:/Library/DaisyToolchain/0.2.0/arm/arm-none-eabi/include/c++/10.3.1/bits/stl_algobase.h **** 	    typename iterator_traits<_BI1>::value_type,
 804:/Library/DaisyToolchain/0.2.0/arm/arm-none-eabi/include/c++/10.3.1/bits/stl_algobase.h **** 	    typename iterator_traits<_BI2>::value_type>)
 805:/Library/DaisyToolchain/0.2.0/arm/arm-none-eabi/include/c++/10.3.1/bits/stl_algobase.h ****       __glibcxx_requires_can_decrement_range(__first, __last, __result);
 806:/Library/DaisyToolchain/0.2.0/arm/arm-none-eabi/include/c++/10.3.1/bits/stl_algobase.h **** 
 807:/Library/DaisyToolchain/0.2.0/arm/arm-none-eabi/include/c++/10.3.1/bits/stl_algobase.h ****       return std::__copy_move_backward_a<__is_move_iterator<_BI1>::__value>
 808:/Library/DaisyToolchain/0.2.0/arm/arm-none-eabi/include/c++/10.3.1/bits/stl_algobase.h **** 	     (std::__miter_base(__first), std::__miter_base(__last), __result);
 809:/Library/DaisyToolchain/0.2.0/arm/arm-none-eabi/include/c++/10.3.1/bits/stl_algobase.h ****     }
 810:/Library/DaisyToolchain/0.2.0/arm/arm-none-eabi/include/c++/10.3.1/bits/stl_algobase.h **** 
 811:/Library/DaisyToolchain/0.2.0/arm/arm-none-eabi/include/c++/10.3.1/bits/stl_algobase.h **** #if __cplusplus >= 201103L
 812:/Library/DaisyToolchain/0.2.0/arm/arm-none-eabi/include/c++/10.3.1/bits/stl_algobase.h ****   /**
 813:/Library/DaisyToolchain/0.2.0/arm/arm-none-eabi/include/c++/10.3.1/bits/stl_algobase.h ****    *  @brief Moves the range [first,last) into result.
 814:/Library/DaisyToolchain/0.2.0/arm/arm-none-eabi/include/c++/10.3.1/bits/stl_algobase.h ****    *  @ingroup mutating_algorithms
 815:/Library/DaisyToolchain/0.2.0/arm/arm-none-eabi/include/c++/10.3.1/bits/stl_algobase.h ****    *  @param  __first  A bidirectional iterator.
 816:/Library/DaisyToolchain/0.2.0/arm/arm-none-eabi/include/c++/10.3.1/bits/stl_algobase.h ****    *  @param  __last   A bidirectional iterator.
 817:/Library/DaisyToolchain/0.2.0/arm/arm-none-eabi/include/c++/10.3.1/bits/stl_algobase.h ****    *  @param  __result A bidirectional iterator.
 818:/Library/DaisyToolchain/0.2.0/arm/arm-none-eabi/include/c++/10.3.1/bits/stl_algobase.h ****    *  @return   result - (last - first)
 819:/Library/DaisyToolchain/0.2.0/arm/arm-none-eabi/include/c++/10.3.1/bits/stl_algobase.h ****    *
 820:/Library/DaisyToolchain/0.2.0/arm/arm-none-eabi/include/c++/10.3.1/bits/stl_algobase.h ****    *  The function has the same effect as move, but starts at the end of the
 821:/Library/DaisyToolchain/0.2.0/arm/arm-none-eabi/include/c++/10.3.1/bits/stl_algobase.h ****    *  range and works its way to the start, returning the start of the result.
 822:/Library/DaisyToolchain/0.2.0/arm/arm-none-eabi/include/c++/10.3.1/bits/stl_algobase.h ****    *  This inline function will boil down to a call to @c memmove whenever
 823:/Library/DaisyToolchain/0.2.0/arm/arm-none-eabi/include/c++/10.3.1/bits/stl_algobase.h ****    *  possible.  Failing that, if random access iterators are passed, then the
 824:/Library/DaisyToolchain/0.2.0/arm/arm-none-eabi/include/c++/10.3.1/bits/stl_algobase.h ****    *  loop count will be known (and therefore a candidate for compiler
 825:/Library/DaisyToolchain/0.2.0/arm/arm-none-eabi/include/c++/10.3.1/bits/stl_algobase.h ****    *  optimizations such as unrolling).
 826:/Library/DaisyToolchain/0.2.0/arm/arm-none-eabi/include/c++/10.3.1/bits/stl_algobase.h ****    *
ARM GAS  /var/folders/9s/8rp0_f2s1n31qbztm3b5_fdh0000gn/T//ccHPFdxP.s 			page 27


 827:/Library/DaisyToolchain/0.2.0/arm/arm-none-eabi/include/c++/10.3.1/bits/stl_algobase.h ****    *  Result may not be in the range (first,last].  Use move instead.  Note
 828:/Library/DaisyToolchain/0.2.0/arm/arm-none-eabi/include/c++/10.3.1/bits/stl_algobase.h ****    *  that the start of the output range may overlap [first,last).
 829:/Library/DaisyToolchain/0.2.0/arm/arm-none-eabi/include/c++/10.3.1/bits/stl_algobase.h ****   */
 830:/Library/DaisyToolchain/0.2.0/arm/arm-none-eabi/include/c++/10.3.1/bits/stl_algobase.h ****   template<typename _BI1, typename _BI2>
 831:/Library/DaisyToolchain/0.2.0/arm/arm-none-eabi/include/c++/10.3.1/bits/stl_algobase.h ****     _GLIBCXX20_CONSTEXPR
 832:/Library/DaisyToolchain/0.2.0/arm/arm-none-eabi/include/c++/10.3.1/bits/stl_algobase.h ****     inline _BI2
 833:/Library/DaisyToolchain/0.2.0/arm/arm-none-eabi/include/c++/10.3.1/bits/stl_algobase.h ****     move_backward(_BI1 __first, _BI1 __last, _BI2 __result)
 834:/Library/DaisyToolchain/0.2.0/arm/arm-none-eabi/include/c++/10.3.1/bits/stl_algobase.h ****     {
 835:/Library/DaisyToolchain/0.2.0/arm/arm-none-eabi/include/c++/10.3.1/bits/stl_algobase.h ****       // concept requirements
 836:/Library/DaisyToolchain/0.2.0/arm/arm-none-eabi/include/c++/10.3.1/bits/stl_algobase.h ****       __glibcxx_function_requires(_BidirectionalIteratorConcept<_BI1>)
 837:/Library/DaisyToolchain/0.2.0/arm/arm-none-eabi/include/c++/10.3.1/bits/stl_algobase.h ****       __glibcxx_function_requires(_Mutable_BidirectionalIteratorConcept<_BI2>)
 838:/Library/DaisyToolchain/0.2.0/arm/arm-none-eabi/include/c++/10.3.1/bits/stl_algobase.h ****       __glibcxx_function_requires(_ConvertibleConcept<
 839:/Library/DaisyToolchain/0.2.0/arm/arm-none-eabi/include/c++/10.3.1/bits/stl_algobase.h **** 	    typename iterator_traits<_BI1>::value_type,
 840:/Library/DaisyToolchain/0.2.0/arm/arm-none-eabi/include/c++/10.3.1/bits/stl_algobase.h **** 	    typename iterator_traits<_BI2>::value_type>)
 841:/Library/DaisyToolchain/0.2.0/arm/arm-none-eabi/include/c++/10.3.1/bits/stl_algobase.h ****       __glibcxx_requires_can_decrement_range(__first, __last, __result);
 842:/Library/DaisyToolchain/0.2.0/arm/arm-none-eabi/include/c++/10.3.1/bits/stl_algobase.h **** 
 843:/Library/DaisyToolchain/0.2.0/arm/arm-none-eabi/include/c++/10.3.1/bits/stl_algobase.h ****       return std::__copy_move_backward_a<true>(std::__miter_base(__first),
 844:/Library/DaisyToolchain/0.2.0/arm/arm-none-eabi/include/c++/10.3.1/bits/stl_algobase.h **** 					       std::__miter_base(__last),
 845:/Library/DaisyToolchain/0.2.0/arm/arm-none-eabi/include/c++/10.3.1/bits/stl_algobase.h **** 					       __result);
 846:/Library/DaisyToolchain/0.2.0/arm/arm-none-eabi/include/c++/10.3.1/bits/stl_algobase.h ****     }
 847:/Library/DaisyToolchain/0.2.0/arm/arm-none-eabi/include/c++/10.3.1/bits/stl_algobase.h **** 
 848:/Library/DaisyToolchain/0.2.0/arm/arm-none-eabi/include/c++/10.3.1/bits/stl_algobase.h **** #define _GLIBCXX_MOVE_BACKWARD3(_Tp, _Up, _Vp) std::move_backward(_Tp, _Up, _Vp)
 849:/Library/DaisyToolchain/0.2.0/arm/arm-none-eabi/include/c++/10.3.1/bits/stl_algobase.h **** #else
 850:/Library/DaisyToolchain/0.2.0/arm/arm-none-eabi/include/c++/10.3.1/bits/stl_algobase.h **** #define _GLIBCXX_MOVE_BACKWARD3(_Tp, _Up, _Vp) std::copy_backward(_Tp, _Up, _Vp)
 851:/Library/DaisyToolchain/0.2.0/arm/arm-none-eabi/include/c++/10.3.1/bits/stl_algobase.h **** #endif
 852:/Library/DaisyToolchain/0.2.0/arm/arm-none-eabi/include/c++/10.3.1/bits/stl_algobase.h **** 
 853:/Library/DaisyToolchain/0.2.0/arm/arm-none-eabi/include/c++/10.3.1/bits/stl_algobase.h ****   template<typename _ForwardIterator, typename _Tp>
 854:/Library/DaisyToolchain/0.2.0/arm/arm-none-eabi/include/c++/10.3.1/bits/stl_algobase.h ****     _GLIBCXX20_CONSTEXPR
 855:/Library/DaisyToolchain/0.2.0/arm/arm-none-eabi/include/c++/10.3.1/bits/stl_algobase.h ****     inline typename
 856:/Library/DaisyToolchain/0.2.0/arm/arm-none-eabi/include/c++/10.3.1/bits/stl_algobase.h ****     __gnu_cxx::__enable_if<!__is_scalar<_Tp>::__value, void>::__type
 857:/Library/DaisyToolchain/0.2.0/arm/arm-none-eabi/include/c++/10.3.1/bits/stl_algobase.h ****     __fill_a1(_ForwardIterator __first, _ForwardIterator __last,
 858:/Library/DaisyToolchain/0.2.0/arm/arm-none-eabi/include/c++/10.3.1/bits/stl_algobase.h **** 	      const _Tp& __value)
 859:/Library/DaisyToolchain/0.2.0/arm/arm-none-eabi/include/c++/10.3.1/bits/stl_algobase.h ****     {
 860:/Library/DaisyToolchain/0.2.0/arm/arm-none-eabi/include/c++/10.3.1/bits/stl_algobase.h ****       for (; __first != __last; ++__first)
 861:/Library/DaisyToolchain/0.2.0/arm/arm-none-eabi/include/c++/10.3.1/bits/stl_algobase.h **** 	*__first = __value;
 862:/Library/DaisyToolchain/0.2.0/arm/arm-none-eabi/include/c++/10.3.1/bits/stl_algobase.h ****     }
 863:/Library/DaisyToolchain/0.2.0/arm/arm-none-eabi/include/c++/10.3.1/bits/stl_algobase.h **** 
 864:/Library/DaisyToolchain/0.2.0/arm/arm-none-eabi/include/c++/10.3.1/bits/stl_algobase.h ****   template<typename _ForwardIterator, typename _Tp>
 865:/Library/DaisyToolchain/0.2.0/arm/arm-none-eabi/include/c++/10.3.1/bits/stl_algobase.h ****     _GLIBCXX20_CONSTEXPR
 866:/Library/DaisyToolchain/0.2.0/arm/arm-none-eabi/include/c++/10.3.1/bits/stl_algobase.h ****     inline typename
 867:/Library/DaisyToolchain/0.2.0/arm/arm-none-eabi/include/c++/10.3.1/bits/stl_algobase.h ****     __gnu_cxx::__enable_if<__is_scalar<_Tp>::__value, void>::__type
 868:/Library/DaisyToolchain/0.2.0/arm/arm-none-eabi/include/c++/10.3.1/bits/stl_algobase.h ****     __fill_a1(_ForwardIterator __first, _ForwardIterator __last,
 869:/Library/DaisyToolchain/0.2.0/arm/arm-none-eabi/include/c++/10.3.1/bits/stl_algobase.h **** 	      const _Tp& __value)
 870:/Library/DaisyToolchain/0.2.0/arm/arm-none-eabi/include/c++/10.3.1/bits/stl_algobase.h ****     {
 871:/Library/DaisyToolchain/0.2.0/arm/arm-none-eabi/include/c++/10.3.1/bits/stl_algobase.h ****       const _Tp __tmp = __value;
 872:/Library/DaisyToolchain/0.2.0/arm/arm-none-eabi/include/c++/10.3.1/bits/stl_algobase.h ****       for (; __first != __last; ++__first)
 873:/Library/DaisyToolchain/0.2.0/arm/arm-none-eabi/include/c++/10.3.1/bits/stl_algobase.h **** 	*__first = __tmp;
 297              		.loc 5 873 11 view .LVU83
 298 0006 8022     		movs	r2, #128
 299              	.LBE114:
 300              	.LBE113:
 301              	.LBE112:
 302              	.LBE111:
 128:eurorack/plaits/dsp/speech/lpc_speech_synth_controller.cc ****   num_words_ = 0;
 303              		.loc 4 128 14 view .LVU84
 304 0008 0161     		str	r1, [r0, #16]
 127:eurorack/plaits/dsp/speech/lpc_speech_synth_controller.cc ****   num_frames_ = 0;
ARM GAS  /var/folders/9s/8rp0_f2s1n31qbztm3b5_fdh0000gn/T//ccHPFdxP.s 			page 28


 305              		.loc 4 127 15 view .LVU85
 306 000a C0E90231 		strd	r3, r1, [r0, #8]
 307              		.loc 4 128 3 is_stmt 1 view .LVU86
 129:eurorack/plaits/dsp/speech/lpc_speech_synth_controller.cc ****   fill(
 308              		.loc 4 129 3 view .LVU87
 309              	.LVL26:
 310              	.LBB118:
 311              	.LBI111:
 874:/Library/DaisyToolchain/0.2.0/arm/arm-none-eabi/include/c++/10.3.1/bits/stl_algobase.h ****     }
 875:/Library/DaisyToolchain/0.2.0/arm/arm-none-eabi/include/c++/10.3.1/bits/stl_algobase.h **** 
 876:/Library/DaisyToolchain/0.2.0/arm/arm-none-eabi/include/c++/10.3.1/bits/stl_algobase.h ****   // Specialization: for char types we can use memset.
 877:/Library/DaisyToolchain/0.2.0/arm/arm-none-eabi/include/c++/10.3.1/bits/stl_algobase.h ****   template<typename _Tp>
 878:/Library/DaisyToolchain/0.2.0/arm/arm-none-eabi/include/c++/10.3.1/bits/stl_algobase.h ****     _GLIBCXX20_CONSTEXPR
 879:/Library/DaisyToolchain/0.2.0/arm/arm-none-eabi/include/c++/10.3.1/bits/stl_algobase.h ****     inline typename
 880:/Library/DaisyToolchain/0.2.0/arm/arm-none-eabi/include/c++/10.3.1/bits/stl_algobase.h ****     __gnu_cxx::__enable_if<__is_byte<_Tp>::__value, void>::__type
 881:/Library/DaisyToolchain/0.2.0/arm/arm-none-eabi/include/c++/10.3.1/bits/stl_algobase.h ****     __fill_a1(_Tp* __first, _Tp* __last, const _Tp& __c)
 882:/Library/DaisyToolchain/0.2.0/arm/arm-none-eabi/include/c++/10.3.1/bits/stl_algobase.h ****     {
 883:/Library/DaisyToolchain/0.2.0/arm/arm-none-eabi/include/c++/10.3.1/bits/stl_algobase.h ****       const _Tp __tmp = __c;
 884:/Library/DaisyToolchain/0.2.0/arm/arm-none-eabi/include/c++/10.3.1/bits/stl_algobase.h **** #if __cpp_lib_is_constant_evaluated
 885:/Library/DaisyToolchain/0.2.0/arm/arm-none-eabi/include/c++/10.3.1/bits/stl_algobase.h ****       if (std::is_constant_evaluated())
 886:/Library/DaisyToolchain/0.2.0/arm/arm-none-eabi/include/c++/10.3.1/bits/stl_algobase.h **** 	{
 887:/Library/DaisyToolchain/0.2.0/arm/arm-none-eabi/include/c++/10.3.1/bits/stl_algobase.h **** 	  for (; __first != __last; ++__first)
 888:/Library/DaisyToolchain/0.2.0/arm/arm-none-eabi/include/c++/10.3.1/bits/stl_algobase.h **** 	    *__first = __tmp;
 889:/Library/DaisyToolchain/0.2.0/arm/arm-none-eabi/include/c++/10.3.1/bits/stl_algobase.h **** 	  return;
 890:/Library/DaisyToolchain/0.2.0/arm/arm-none-eabi/include/c++/10.3.1/bits/stl_algobase.h **** 	}
 891:/Library/DaisyToolchain/0.2.0/arm/arm-none-eabi/include/c++/10.3.1/bits/stl_algobase.h **** #endif
 892:/Library/DaisyToolchain/0.2.0/arm/arm-none-eabi/include/c++/10.3.1/bits/stl_algobase.h ****       if (const size_t __len = __last - __first)
 893:/Library/DaisyToolchain/0.2.0/arm/arm-none-eabi/include/c++/10.3.1/bits/stl_algobase.h **** 	__builtin_memset(__first, static_cast<unsigned char>(__tmp), __len);
 894:/Library/DaisyToolchain/0.2.0/arm/arm-none-eabi/include/c++/10.3.1/bits/stl_algobase.h ****     }
 895:/Library/DaisyToolchain/0.2.0/arm/arm-none-eabi/include/c++/10.3.1/bits/stl_algobase.h **** 
 896:/Library/DaisyToolchain/0.2.0/arm/arm-none-eabi/include/c++/10.3.1/bits/stl_algobase.h ****   template<typename _Ite, typename _Cont, typename _Tp>
 897:/Library/DaisyToolchain/0.2.0/arm/arm-none-eabi/include/c++/10.3.1/bits/stl_algobase.h ****     _GLIBCXX20_CONSTEXPR
 898:/Library/DaisyToolchain/0.2.0/arm/arm-none-eabi/include/c++/10.3.1/bits/stl_algobase.h ****     inline void
 899:/Library/DaisyToolchain/0.2.0/arm/arm-none-eabi/include/c++/10.3.1/bits/stl_algobase.h ****     __fill_a1(::__gnu_cxx::__normal_iterator<_Ite, _Cont> __first,
 900:/Library/DaisyToolchain/0.2.0/arm/arm-none-eabi/include/c++/10.3.1/bits/stl_algobase.h **** 	      ::__gnu_cxx::__normal_iterator<_Ite, _Cont> __last,
 901:/Library/DaisyToolchain/0.2.0/arm/arm-none-eabi/include/c++/10.3.1/bits/stl_algobase.h **** 	      const _Tp& __value)
 902:/Library/DaisyToolchain/0.2.0/arm/arm-none-eabi/include/c++/10.3.1/bits/stl_algobase.h ****     { std::__fill_a1(__first.base(), __last.base(), __value); }
 903:/Library/DaisyToolchain/0.2.0/arm/arm-none-eabi/include/c++/10.3.1/bits/stl_algobase.h **** 
 904:/Library/DaisyToolchain/0.2.0/arm/arm-none-eabi/include/c++/10.3.1/bits/stl_algobase.h ****   template<typename _Tp, typename _VTp>
 905:/Library/DaisyToolchain/0.2.0/arm/arm-none-eabi/include/c++/10.3.1/bits/stl_algobase.h ****     void
 906:/Library/DaisyToolchain/0.2.0/arm/arm-none-eabi/include/c++/10.3.1/bits/stl_algobase.h ****     __fill_a1(const _GLIBCXX_STD_C::_Deque_iterator<_Tp, _Tp&, _Tp*>&,
 907:/Library/DaisyToolchain/0.2.0/arm/arm-none-eabi/include/c++/10.3.1/bits/stl_algobase.h **** 	      const _GLIBCXX_STD_C::_Deque_iterator<_Tp, _Tp&, _Tp*>&,
 908:/Library/DaisyToolchain/0.2.0/arm/arm-none-eabi/include/c++/10.3.1/bits/stl_algobase.h **** 	      const _VTp&);
 909:/Library/DaisyToolchain/0.2.0/arm/arm-none-eabi/include/c++/10.3.1/bits/stl_algobase.h **** 
 910:/Library/DaisyToolchain/0.2.0/arm/arm-none-eabi/include/c++/10.3.1/bits/stl_algobase.h ****   template<typename _FIte, typename _Tp>
 911:/Library/DaisyToolchain/0.2.0/arm/arm-none-eabi/include/c++/10.3.1/bits/stl_algobase.h ****     _GLIBCXX20_CONSTEXPR
 912:/Library/DaisyToolchain/0.2.0/arm/arm-none-eabi/include/c++/10.3.1/bits/stl_algobase.h ****     inline void
 913:/Library/DaisyToolchain/0.2.0/arm/arm-none-eabi/include/c++/10.3.1/bits/stl_algobase.h ****     __fill_a(_FIte __first, _FIte __last, const _Tp& __value)
 914:/Library/DaisyToolchain/0.2.0/arm/arm-none-eabi/include/c++/10.3.1/bits/stl_algobase.h ****     { std::__fill_a1(__first, __last, __value); }
 915:/Library/DaisyToolchain/0.2.0/arm/arm-none-eabi/include/c++/10.3.1/bits/stl_algobase.h **** 
 916:/Library/DaisyToolchain/0.2.0/arm/arm-none-eabi/include/c++/10.3.1/bits/stl_algobase.h ****   template<typename _Ite, typename _Seq, typename _Cat, typename _Tp>
 917:/Library/DaisyToolchain/0.2.0/arm/arm-none-eabi/include/c++/10.3.1/bits/stl_algobase.h ****     void
 918:/Library/DaisyToolchain/0.2.0/arm/arm-none-eabi/include/c++/10.3.1/bits/stl_algobase.h ****     __fill_a(const ::__gnu_debug::_Safe_iterator<_Ite, _Seq, _Cat>&,
 919:/Library/DaisyToolchain/0.2.0/arm/arm-none-eabi/include/c++/10.3.1/bits/stl_algobase.h **** 	     const ::__gnu_debug::_Safe_iterator<_Ite, _Seq, _Cat>&,
 920:/Library/DaisyToolchain/0.2.0/arm/arm-none-eabi/include/c++/10.3.1/bits/stl_algobase.h **** 	     const _Tp&);
 921:/Library/DaisyToolchain/0.2.0/arm/arm-none-eabi/include/c++/10.3.1/bits/stl_algobase.h **** 
 922:/Library/DaisyToolchain/0.2.0/arm/arm-none-eabi/include/c++/10.3.1/bits/stl_algobase.h ****   /**
ARM GAS  /var/folders/9s/8rp0_f2s1n31qbztm3b5_fdh0000gn/T//ccHPFdxP.s 			page 29


 923:/Library/DaisyToolchain/0.2.0/arm/arm-none-eabi/include/c++/10.3.1/bits/stl_algobase.h ****    *  @brief Fills the range [first,last) with copies of value.
 924:/Library/DaisyToolchain/0.2.0/arm/arm-none-eabi/include/c++/10.3.1/bits/stl_algobase.h ****    *  @ingroup mutating_algorithms
 925:/Library/DaisyToolchain/0.2.0/arm/arm-none-eabi/include/c++/10.3.1/bits/stl_algobase.h ****    *  @param  __first  A forward iterator.
 926:/Library/DaisyToolchain/0.2.0/arm/arm-none-eabi/include/c++/10.3.1/bits/stl_algobase.h ****    *  @param  __last   A forward iterator.
 927:/Library/DaisyToolchain/0.2.0/arm/arm-none-eabi/include/c++/10.3.1/bits/stl_algobase.h ****    *  @param  __value  A reference-to-const of arbitrary type.
 928:/Library/DaisyToolchain/0.2.0/arm/arm-none-eabi/include/c++/10.3.1/bits/stl_algobase.h ****    *  @return   Nothing.
 929:/Library/DaisyToolchain/0.2.0/arm/arm-none-eabi/include/c++/10.3.1/bits/stl_algobase.h ****    *
 930:/Library/DaisyToolchain/0.2.0/arm/arm-none-eabi/include/c++/10.3.1/bits/stl_algobase.h ****    *  This function fills a range with copies of the same value.  For char
 931:/Library/DaisyToolchain/0.2.0/arm/arm-none-eabi/include/c++/10.3.1/bits/stl_algobase.h ****    *  types filling contiguous areas of memory, this becomes an inline call
 932:/Library/DaisyToolchain/0.2.0/arm/arm-none-eabi/include/c++/10.3.1/bits/stl_algobase.h ****    *  to @c memset or @c wmemset.
 933:/Library/DaisyToolchain/0.2.0/arm/arm-none-eabi/include/c++/10.3.1/bits/stl_algobase.h ****   */
 934:/Library/DaisyToolchain/0.2.0/arm/arm-none-eabi/include/c++/10.3.1/bits/stl_algobase.h ****   template<typename _ForwardIterator, typename _Tp>
 935:/Library/DaisyToolchain/0.2.0/arm/arm-none-eabi/include/c++/10.3.1/bits/stl_algobase.h ****     _GLIBCXX20_CONSTEXPR
 936:/Library/DaisyToolchain/0.2.0/arm/arm-none-eabi/include/c++/10.3.1/bits/stl_algobase.h ****     inline void
 937:/Library/DaisyToolchain/0.2.0/arm/arm-none-eabi/include/c++/10.3.1/bits/stl_algobase.h ****     fill(_ForwardIterator __first, _ForwardIterator __last, const _Tp& __value)
 312              		.loc 5 937 5 view .LVU88
 313              	.LBB117:
 314              	.LBI112:
 913:/Library/DaisyToolchain/0.2.0/arm/arm-none-eabi/include/c++/10.3.1/bits/stl_algobase.h ****     { std::__fill_a1(__first, __last, __value); }
 315              		.loc 5 913 5 view .LVU89
 316              	.LBB116:
 317              	.LBI113:
 868:/Library/DaisyToolchain/0.2.0/arm/arm-none-eabi/include/c++/10.3.1/bits/stl_algobase.h **** 	      const _Tp& __value)
 318              		.loc 5 868 5 view .LVU90
 319              	.LBB115:
 873:/Library/DaisyToolchain/0.2.0/arm/arm-none-eabi/include/c++/10.3.1/bits/stl_algobase.h ****     }
 320              		.loc 5 873 11 is_stmt 0 view .LVU91
 321 000e 4069     		ldr	r0, [r0, #20]
 322              	.LVL27:
 873:/Library/DaisyToolchain/0.2.0/arm/arm-none-eabi/include/c++/10.3.1/bits/stl_algobase.h ****     }
 323              		.loc 5 873 11 view .LVU92
 324 0010 FFF7FEBF 		b	memset
 325              	.LVL28:
 873:/Library/DaisyToolchain/0.2.0/arm/arm-none-eabi/include/c++/10.3.1/bits/stl_algobase.h ****     }
 326              		.loc 5 873 11 view .LVU93
 327              	.LBE115:
 328              	.LBE116:
 329              	.LBE117:
 330              	.LBE118:
 331              		.cfi_endproc
 332              	.LFE1498:
 334              		.section	.text._ZN6plaits22LPCSpeechSynthWordBank4InitEPKNS_26LPCSpeechSynthWordBankDataEiPN6stmli
 335              		.align	1
 336              		.global	_ZN6plaits22LPCSpeechSynthWordBank4InitEPKNS_26LPCSpeechSynthWordBankDataEiPN6stmlib15Buff
 337              		.syntax unified
 338              		.thumb
 339              		.thumb_func
 341              	_ZN6plaits22LPCSpeechSynthWordBank4InitEPKNS_26LPCSpeechSynthWordBankDataEiPN6stmlib15BufferAllocat
 342              	.LVL29:
 343              	.LFB1497:
 116:eurorack/plaits/dsp/speech/lpc_speech_synth_controller.cc ****   word_banks_ = word_banks;
 344              		.loc 4 116 33 is_stmt 1 view -0
 345              		.cfi_startproc
 346              		@ args = 0, pretend = 0, frame = 0
 347              		@ frame_needed = 0, uses_anonymous_args = 0
 348              		@ link register save eliminated.
 117:eurorack/plaits/dsp/speech/lpc_speech_synth_controller.cc ****   num_banks_ = num_banks;
ARM GAS  /var/folders/9s/8rp0_f2s1n31qbztm3b5_fdh0000gn/T//ccHPFdxP.s 			page 30


 349              		.loc 4 117 3 view .LVU95
 118:eurorack/plaits/dsp/speech/lpc_speech_synth_controller.cc ****   frames_ = allocator->Allocate<LPCSpeechSynth::Frame>(
 350              		.loc 4 118 14 is_stmt 0 view .LVU96
 351 0000 C0E90012 		strd	r1, r2, [r0]
 119:eurorack/plaits/dsp/speech/lpc_speech_synth_controller.cc ****       kLPCSpeechSynthMaxFrames);
 352              		.loc 4 119 3 is_stmt 1 view .LVU97
 353              	.LVL30:
 354              	.LBB127:
 355              	.LBI127:
 356              		.file 6 "eurorack/stmlib/utils/buffer_allocator.h"
   1:eurorack/stmlib/utils/buffer_allocator.h **** // Copyright 2014 Emilie Gillet.
   2:eurorack/stmlib/utils/buffer_allocator.h **** //
   3:eurorack/stmlib/utils/buffer_allocator.h **** // Author: Emilie Gillet (emilie.o.gillet@gmail.com)
   4:eurorack/stmlib/utils/buffer_allocator.h **** //
   5:eurorack/stmlib/utils/buffer_allocator.h **** // Permission is hereby granted, free of charge, to any person obtaining a copy
   6:eurorack/stmlib/utils/buffer_allocator.h **** // of this software and associated documentation files (the "Software"), to deal
   7:eurorack/stmlib/utils/buffer_allocator.h **** // in the Software without restriction, including without limitation the rights
   8:eurorack/stmlib/utils/buffer_allocator.h **** // to use, copy, modify, merge, publish, distribute, sublicense, and/or sell
   9:eurorack/stmlib/utils/buffer_allocator.h **** // copies of the Software, and to permit persons to whom the Software is
  10:eurorack/stmlib/utils/buffer_allocator.h **** // furnished to do so, subject to the following conditions:
  11:eurorack/stmlib/utils/buffer_allocator.h **** // 
  12:eurorack/stmlib/utils/buffer_allocator.h **** // The above copyright notice and this permission notice shall be included in
  13:eurorack/stmlib/utils/buffer_allocator.h **** // all copies or substantial portions of the Software.
  14:eurorack/stmlib/utils/buffer_allocator.h **** // 
  15:eurorack/stmlib/utils/buffer_allocator.h **** // THE SOFTWARE IS PROVIDED "AS IS", WITHOUT WARRANTY OF ANY KIND, EXPRESS OR
  16:eurorack/stmlib/utils/buffer_allocator.h **** // IMPLIED, INCLUDING BUT NOT LIMITED TO THE WARRANTIES OF MERCHANTABILITY,
  17:eurorack/stmlib/utils/buffer_allocator.h **** // FITNESS FOR A PARTICULAR PURPOSE AND NONINFRINGEMENT. IN NO EVENT SHALL THE
  18:eurorack/stmlib/utils/buffer_allocator.h **** // AUTHORS OR COPYRIGHT HOLDERS BE LIABLE FOR ANY CLAIM, DAMAGES OR OTHER
  19:eurorack/stmlib/utils/buffer_allocator.h **** // LIABILITY, WHETHER IN AN ACTION OF CONTRACT, TORT OR OTHERWISE, ARISING FROM,
  20:eurorack/stmlib/utils/buffer_allocator.h **** // OUT OF OR IN CONNECTION WITH THE SOFTWARE OR THE USE OR OTHER DEALINGS IN
  21:eurorack/stmlib/utils/buffer_allocator.h **** // THE SOFTWARE.
  22:eurorack/stmlib/utils/buffer_allocator.h **** // 
  23:eurorack/stmlib/utils/buffer_allocator.h **** // See http://creativecommons.org/licenses/MIT/ for more information.
  24:eurorack/stmlib/utils/buffer_allocator.h **** //
  25:eurorack/stmlib/utils/buffer_allocator.h **** // -----------------------------------------------------------------------------
  26:eurorack/stmlib/utils/buffer_allocator.h **** //
  27:eurorack/stmlib/utils/buffer_allocator.h **** // Stream buffer for serialization.
  28:eurorack/stmlib/utils/buffer_allocator.h **** 
  29:eurorack/stmlib/utils/buffer_allocator.h **** #ifndef STMLIB_UTILS_BUFFER_ALLOCATOR_H_
  30:eurorack/stmlib/utils/buffer_allocator.h **** #define STMLIB_UTILS_BUFFER_ALLOCATOR_H_
  31:eurorack/stmlib/utils/buffer_allocator.h **** 
  32:eurorack/stmlib/utils/buffer_allocator.h **** #include "stmlib/stmlib.h"
  33:eurorack/stmlib/utils/buffer_allocator.h **** 
  34:eurorack/stmlib/utils/buffer_allocator.h **** namespace stmlib {
  35:eurorack/stmlib/utils/buffer_allocator.h **** 
  36:eurorack/stmlib/utils/buffer_allocator.h **** class BufferAllocator {
  37:eurorack/stmlib/utils/buffer_allocator.h ****  public:
  38:eurorack/stmlib/utils/buffer_allocator.h ****   BufferAllocator() { }
  39:eurorack/stmlib/utils/buffer_allocator.h ****   ~BufferAllocator() { }
  40:eurorack/stmlib/utils/buffer_allocator.h ****   
  41:eurorack/stmlib/utils/buffer_allocator.h ****   BufferAllocator(void* buffer, size_t size) {
  42:eurorack/stmlib/utils/buffer_allocator.h ****     Init(buffer, size);
  43:eurorack/stmlib/utils/buffer_allocator.h ****   }
  44:eurorack/stmlib/utils/buffer_allocator.h ****   
  45:eurorack/stmlib/utils/buffer_allocator.h ****   inline void Init(void* buffer, size_t size) {
  46:eurorack/stmlib/utils/buffer_allocator.h ****     buffer_ = static_cast<uint8_t*>(buffer);
  47:eurorack/stmlib/utils/buffer_allocator.h ****     size_ = size;
ARM GAS  /var/folders/9s/8rp0_f2s1n31qbztm3b5_fdh0000gn/T//ccHPFdxP.s 			page 31


  48:eurorack/stmlib/utils/buffer_allocator.h ****     Free();
  49:eurorack/stmlib/utils/buffer_allocator.h ****   }
  50:eurorack/stmlib/utils/buffer_allocator.h **** 
  51:eurorack/stmlib/utils/buffer_allocator.h ****   template<typename T>
  52:eurorack/stmlib/utils/buffer_allocator.h ****   inline T* Allocate() {
  53:eurorack/stmlib/utils/buffer_allocator.h ****     return Allocate<T>(1);
  54:eurorack/stmlib/utils/buffer_allocator.h ****   }
  55:eurorack/stmlib/utils/buffer_allocator.h ****   
  56:eurorack/stmlib/utils/buffer_allocator.h ****   template<typename T>
  57:eurorack/stmlib/utils/buffer_allocator.h ****   inline T* Allocate(size_t size) {
 357              		.loc 6 57 13 view .LVU98
 358              	.LBB128:
 359              	.LBB129:
  58:eurorack/stmlib/utils/buffer_allocator.h ****     size_t size_bytes = sizeof(T) * size;
  59:eurorack/stmlib/utils/buffer_allocator.h ****     if (size_bytes <= free_) {
 360              		.loc 6 59 23 is_stmt 0 view .LVU99
 361 0004 9A68     		ldr	r2, [r3, #8]
 362              	.LVL31:
 363              		.loc 6 59 5 view .LVU100
 364 0006 B2F5605F 		cmp	r2, #14336
 365              	.LBB130:
  60:eurorack/stmlib/utils/buffer_allocator.h ****       T* start = static_cast<T*>(static_cast<void*>(next_));
 366              		.loc 6 60 10 view .LVU101
 367 000a 25BF     		ittet	cs
 368 000c 1968     		ldrcs	r1, [r3]
 369              	.LVL32:
  61:eurorack/stmlib/utils/buffer_allocator.h ****       next_ += size_bytes;
  62:eurorack/stmlib/utils/buffer_allocator.h ****       free_ -= size_bytes;
 370              		.loc 6 62 13 view .LVU102
 371 000e A2F56052 		subcs	r2, r2, #14336
 372              	.LBE130:
  63:eurorack/stmlib/utils/buffer_allocator.h ****       return start;
  64:eurorack/stmlib/utils/buffer_allocator.h ****     } else {
  65:eurorack/stmlib/utils/buffer_allocator.h ****       return NULL;
 373              		.loc 6 65 14 view .LVU103
 374 0012 0021     		movcc	r1, #0
 375              	.LVL33:
 376              	.LBB131:
  62:eurorack/stmlib/utils/buffer_allocator.h ****       return start;
 377              		.loc 6 62 13 view .LVU104
 378 0014 9A60     		strcs	r2, [r3, #8]
 379              	.LBE131:
 380              	.LBE129:
 381              	.LBE128:
 382              	.LBE127:
 383              	.LBB135:
 384              	.LBB136:
 385              	.LBB137:
  59:eurorack/stmlib/utils/buffer_allocator.h ****       T* start = static_cast<T*>(static_cast<void*>(next_));
 386              		.loc 6 59 23 view .LVU105
 387 0016 9A68     		ldr	r2, [r3, #8]
 388              	.LBE137:
 389              	.LBE136:
 390              	.LBE135:
 116:eurorack/plaits/dsp/speech/lpc_speech_synth_controller.cc ****   word_banks_ = word_banks;
 391              		.loc 4 116 33 view .LVU106
 392 0018 10B4     		push	{r4}
ARM GAS  /var/folders/9s/8rp0_f2s1n31qbztm3b5_fdh0000gn/T//ccHPFdxP.s 			page 32


 393              		.cfi_def_cfa_offset 4
 394              		.cfi_offset 4, -4
 395              	.LBB144:
 396              	.LBB134:
 397              	.LBB133:
 398              	.LBB132:
  61:eurorack/stmlib/utils/buffer_allocator.h ****       free_ -= size_bytes;
 399              		.loc 6 61 13 view .LVU107
 400 001a 24BF     		itt	cs
 401 001c 01F56054 		addcs	r4, r1, #14336
 402 0020 1C60     		strcs	r4, [r3]
 403              	.LBE132:
 404              	.LBE133:
 405              	.LBE134:
 406              	.LBE144:
 407              	.LBB145:
 408              	.LBB142:
 409              	.LBB140:
  59:eurorack/stmlib/utils/buffer_allocator.h ****       T* start = static_cast<T*>(static_cast<void*>(next_));
 410              		.loc 6 59 5 view .LVU108
 411 0022 7F2A     		cmp	r2, #127
 412              	.LBE140:
 413              	.LBE142:
 414              	.LBE145:
 119:eurorack/plaits/dsp/speech/lpc_speech_synth_controller.cc ****       kLPCSpeechSynthMaxFrames);
 415              		.loc 4 119 11 view .LVU109
 416 0024 8161     		str	r1, [r0, #24]
 121:eurorack/plaits/dsp/speech/lpc_speech_synth_controller.cc ****   Reset();
 417              		.loc 4 121 3 is_stmt 1 view .LVU110
 418              	.LVL34:
 419              	.LBB146:
 420              	.LBI135:
  57:eurorack/stmlib/utils/buffer_allocator.h ****     size_t size_bytes = sizeof(T) * size;
 421              		.loc 6 57 13 view .LVU111
 422              	.LBB143:
 423              	.LBB141:
 424              	.LBB138:
  60:eurorack/stmlib/utils/buffer_allocator.h ****       next_ += size_bytes;
 425              		.loc 6 60 10 is_stmt 0 view .LVU112
 426 0026 85BF     		ittet	hi
 427 0028 1968     		ldrhi	r1, [r3]
 428              	.LVL35:
  62:eurorack/stmlib/utils/buffer_allocator.h ****       return start;
 429              		.loc 6 62 13 view .LVU113
 430 002a 803A     		subhi	r2, r2, #128
 431              	.LBE138:
 432              		.loc 6 65 14 view .LVU114
 433 002c 0021     		movls	r1, #0
 434              	.LVL36:
 435              	.LBB139:
  61:eurorack/stmlib/utils/buffer_allocator.h ****       free_ -= size_bytes;
 436              		.loc 6 61 13 view .LVU115
 437 002e 01F18004 		addhi	r4, r1, #128
  62:eurorack/stmlib/utils/buffer_allocator.h ****       return start;
 438              		.loc 6 62 13 view .LVU116
 439 0032 84BF     		itt	hi
 440 0034 9A60     		strhi	r2, [r3, #8]
ARM GAS  /var/folders/9s/8rp0_f2s1n31qbztm3b5_fdh0000gn/T//ccHPFdxP.s 			page 33


  61:eurorack/stmlib/utils/buffer_allocator.h ****       free_ -= size_bytes;
 441              		.loc 6 61 13 view .LVU117
 442 0036 1C60     		strhi	r4, [r3]
 443              	.LBE139:
 444              	.LBE141:
 445              	.LBE143:
 446              	.LBE146:
 123:eurorack/plaits/dsp/speech/lpc_speech_synth_controller.cc **** 
 447              		.loc 4 123 1 view .LVU118
 448 0038 5DF8044B 		ldr	r4, [sp], #4
 449              		.cfi_restore 4
 450              		.cfi_def_cfa_offset 0
 121:eurorack/plaits/dsp/speech/lpc_speech_synth_controller.cc ****   Reset();
 451              		.loc 4 121 20 view .LVU119
 452 003c 4161     		str	r1, [r0, #20]
 122:eurorack/plaits/dsp/speech/lpc_speech_synth_controller.cc **** }
 453              		.loc 4 122 3 is_stmt 1 view .LVU120
 122:eurorack/plaits/dsp/speech/lpc_speech_synth_controller.cc **** }
 454              		.loc 4 122 8 is_stmt 0 view .LVU121
 455 003e FFF7FEBF 		b	_ZN6plaits22LPCSpeechSynthWordBank5ResetEv
 456              	.LVL37:
 122:eurorack/plaits/dsp/speech/lpc_speech_synth_controller.cc **** }
 457              		.loc 4 122 8 view .LVU122
 458              		.cfi_endproc
 459              	.LFE1497:
 461              		.section	.text._ZN6plaits22LPCSpeechSynthWordBank12LoadNextWordEPKh,"ax",%progbits
 462              		.align	1
 463              		.global	_ZN6plaits22LPCSpeechSynthWordBank12LoadNextWordEPKh
 464              		.syntax unified
 465              		.thumb
 466              		.thumb_func
 468              	_ZN6plaits22LPCSpeechSynthWordBank12LoadNextWordEPKh:
 469              	.LVL38:
 470              	.LFB1499:
 130:eurorack/plaits/dsp/speech/lpc_speech_synth_controller.cc ****       &word_boundaries_[0],
 131:eurorack/plaits/dsp/speech/lpc_speech_synth_controller.cc ****       &word_boundaries_[kLPCSpeechSynthMaxWords], 0);
 132:eurorack/plaits/dsp/speech/lpc_speech_synth_controller.cc **** }
 133:eurorack/plaits/dsp/speech/lpc_speech_synth_controller.cc **** 
 134:eurorack/plaits/dsp/speech/lpc_speech_synth_controller.cc **** size_t LPCSpeechSynthWordBank::LoadNextWord(const uint8_t* data) {
 471              		.loc 4 134 66 is_stmt 1 view -0
 472              		.cfi_startproc
 473              		@ args = 0, pretend = 0, frame = 48
 474              		@ frame_needed = 0, uses_anonymous_args = 0
 135:eurorack/plaits/dsp/speech/lpc_speech_synth_controller.cc ****   BitStream bitstream;
 475              		.loc 4 135 3 view .LVU124
 134:eurorack/plaits/dsp/speech/lpc_speech_synth_controller.cc ****   BitStream bitstream;
 476              		.loc 4 134 66 is_stmt 0 view .LVU125
 477 0000 2DE9F04F 		push	{r4, r5, r6, r7, r8, r9, r10, fp, lr}
 478              		.cfi_def_cfa_offset 36
 479              		.cfi_offset 4, -36
 480              		.cfi_offset 5, -32
 481              		.cfi_offset 6, -28
 482              		.cfi_offset 7, -24
 483              		.cfi_offset 8, -20
 484              		.cfi_offset 9, -16
 485              		.cfi_offset 10, -12
 486              		.cfi_offset 11, -8
ARM GAS  /var/folders/9s/8rp0_f2s1n31qbztm3b5_fdh0000gn/T//ccHPFdxP.s 			page 34


 487              		.cfi_offset 14, -4
 488              	.LBB160:
 489              	.LBB161:
  45:eurorack/plaits/dsp/speech/lpc_speech_synth_controller.h ****     bits_ = 0;
 490              		.loc 2 45 16 view .LVU126
 491 0004 0024     		movs	r4, #0
 492              	.LBE161:
 493              	.LBE160:
 134:eurorack/plaits/dsp/speech/lpc_speech_synth_controller.cc ****   BitStream bitstream;
 494              		.loc 4 134 66 view .LVU127
 495 0006 8DB0     		sub	sp, sp, #52
 496              		.cfi_def_cfa_offset 88
 497              	.LVL39:
 498              	.LBB164:
 499              	.LBI164:
  40:eurorack/plaits/dsp/speech/lpc_speech_synth_controller.h ****   ~BitStream() { }
 500              		.loc 2 40 3 is_stmt 1 view .LVU128
  40:eurorack/plaits/dsp/speech/lpc_speech_synth_controller.h ****   ~BitStream() { }
 501              		.loc 2 40 3 is_stmt 0 view .LVU129
 502              	.LBE164:
 136:eurorack/plaits/dsp/speech/lpc_speech_synth_controller.cc ****   bitstream.Init(data);
 503              		.loc 4 136 3 is_stmt 1 view .LVU130
 504              	.LBB165:
 505              	.LBI160:
  43:eurorack/plaits/dsp/speech/lpc_speech_synth_controller.h ****     p_ = p;
 506              		.loc 2 43 15 view .LVU131
 507              	.LBB162:
  44:eurorack/plaits/dsp/speech/lpc_speech_synth_controller.h ****     available_ = 0;
 508              		.loc 2 44 5 view .LVU132
 509              	.LBE162:
 510              	.LBE165:
 134:eurorack/plaits/dsp/speech/lpc_speech_synth_controller.cc ****   BitStream bitstream;
 511              		.loc 4 134 66 is_stmt 0 view .LVU133
 512 0008 0546     		mov	r5, r0
 137:eurorack/plaits/dsp/speech/lpc_speech_synth_controller.cc **** 
 138:eurorack/plaits/dsp/speech/lpc_speech_synth_controller.cc ****   LPCSpeechSynth::Frame frame;
 139:eurorack/plaits/dsp/speech/lpc_speech_synth_controller.cc ****   frame.energy = 0;
 140:eurorack/plaits/dsp/speech/lpc_speech_synth_controller.cc ****   frame.period = 0;
 141:eurorack/plaits/dsp/speech/lpc_speech_synth_controller.cc ****   frame.k0 = 0;
 142:eurorack/plaits/dsp/speech/lpc_speech_synth_controller.cc ****   frame.k1 = 0;
 143:eurorack/plaits/dsp/speech/lpc_speech_synth_controller.cc ****   frame.k2 = 0;
 144:eurorack/plaits/dsp/speech/lpc_speech_synth_controller.cc ****   frame.k3 = 0;
 145:eurorack/plaits/dsp/speech/lpc_speech_synth_controller.cc ****   frame.k4 = 0;
 146:eurorack/plaits/dsp/speech/lpc_speech_synth_controller.cc ****   frame.k5 = 0;
 147:eurorack/plaits/dsp/speech/lpc_speech_synth_controller.cc ****   frame.k6 = 0;
 148:eurorack/plaits/dsp/speech/lpc_speech_synth_controller.cc ****   frame.k7 = 0;
 149:eurorack/plaits/dsp/speech/lpc_speech_synth_controller.cc ****   frame.k8 = 0;
 513              		.loc 4 149 12 view .LVU134
 514 000a 2746     		mov	r7, r4
 148:eurorack/plaits/dsp/speech/lpc_speech_synth_controller.cc ****   frame.k8 = 0;
 515              		.loc 4 148 12 view .LVU135
 516 000c A046     		mov	r8, r4
 144:eurorack/plaits/dsp/speech/lpc_speech_synth_controller.cc ****   frame.k4 = 0;
 517              		.loc 4 144 12 view .LVU136
 518 000e A146     		mov	r9, r4
 143:eurorack/plaits/dsp/speech/lpc_speech_synth_controller.cc ****   frame.k3 = 0;
 519              		.loc 4 143 12 view .LVU137
ARM GAS  /var/folders/9s/8rp0_f2s1n31qbztm3b5_fdh0000gn/T//ccHPFdxP.s 			page 35


 520 0010 A246     		mov	r10, r4
 142:eurorack/plaits/dsp/speech/lpc_speech_synth_controller.cc ****   frame.k2 = 0;
 521              		.loc 4 142 12 view .LVU138
 522 0012 A346     		mov	fp, r4
 140:eurorack/plaits/dsp/speech/lpc_speech_synth_controller.cc ****   frame.k0 = 0;
 523              		.loc 4 140 16 view .LVU139
 524 0014 2646     		mov	r6, r4
 134:eurorack/plaits/dsp/speech/lpc_speech_synth_controller.cc ****   BitStream bitstream;
 525              		.loc 4 134 66 view .LVU140
 526 0016 0691     		str	r1, [sp, #24]
 527              	.LVL40:
 528              	.LBB166:
 529              	.LBB163:
  44:eurorack/plaits/dsp/speech/lpc_speech_synth_controller.h ****     available_ = 0;
 530              		.loc 2 44 8 view .LVU141
 531 0018 0991     		str	r1, [sp, #36]
  45:eurorack/plaits/dsp/speech/lpc_speech_synth_controller.h ****     bits_ = 0;
 532              		.loc 2 45 5 is_stmt 1 view .LVU142
  45:eurorack/plaits/dsp/speech/lpc_speech_synth_controller.h ****     bits_ = 0;
 533              		.loc 2 45 16 is_stmt 0 view .LVU143
 534 001a 0A94     		str	r4, [sp, #40]
  46:eurorack/plaits/dsp/speech/lpc_speech_synth_controller.h ****   }
 535              		.loc 2 46 5 is_stmt 1 view .LVU144
  46:eurorack/plaits/dsp/speech/lpc_speech_synth_controller.h ****   }
 536              		.loc 2 46 11 is_stmt 0 view .LVU145
 537 001c ADF82C40 		strh	r4, [sp, #44]	@ movhi
 538              	.LVL41:
  46:eurorack/plaits/dsp/speech/lpc_speech_synth_controller.h ****   }
 539              		.loc 2 46 11 view .LVU146
 540              	.LBE163:
 541              	.LBE166:
 138:eurorack/plaits/dsp/speech/lpc_speech_synth_controller.cc ****   frame.energy = 0;
 542              		.loc 4 138 3 is_stmt 1 view .LVU147
 139:eurorack/plaits/dsp/speech/lpc_speech_synth_controller.cc ****   frame.period = 0;
 543              		.loc 4 139 3 view .LVU148
 140:eurorack/plaits/dsp/speech/lpc_speech_synth_controller.cc ****   frame.k0 = 0;
 544              		.loc 4 140 3 view .LVU149
 141:eurorack/plaits/dsp/speech/lpc_speech_synth_controller.cc ****   frame.k1 = 0;
 545              		.loc 4 141 3 view .LVU150
 142:eurorack/plaits/dsp/speech/lpc_speech_synth_controller.cc ****   frame.k2 = 0;
 546              		.loc 4 142 3 view .LVU151
 143:eurorack/plaits/dsp/speech/lpc_speech_synth_controller.cc ****   frame.k3 = 0;
 547              		.loc 4 143 3 view .LVU152
 144:eurorack/plaits/dsp/speech/lpc_speech_synth_controller.cc ****   frame.k4 = 0;
 548              		.loc 4 144 3 view .LVU153
 145:eurorack/plaits/dsp/speech/lpc_speech_synth_controller.cc ****   frame.k5 = 0;
 549              		.loc 4 145 3 view .LVU154
 146:eurorack/plaits/dsp/speech/lpc_speech_synth_controller.cc ****   frame.k6 = 0;
 550              		.loc 4 146 3 view .LVU155
 147:eurorack/plaits/dsp/speech/lpc_speech_synth_controller.cc ****   frame.k7 = 0;
 551              		.loc 4 147 3 view .LVU156
 148:eurorack/plaits/dsp/speech/lpc_speech_synth_controller.cc ****   frame.k8 = 0;
 552              		.loc 4 148 3 view .LVU157
 553              		.loc 4 149 3 view .LVU158
 150:eurorack/plaits/dsp/speech/lpc_speech_synth_controller.cc ****   frame.k9 = 0;
 554              		.loc 4 150 3 view .LVU159
 145:eurorack/plaits/dsp/speech/lpc_speech_synth_controller.cc ****   frame.k5 = 0;
ARM GAS  /var/folders/9s/8rp0_f2s1n31qbztm3b5_fdh0000gn/T//ccHPFdxP.s 			page 36


 555              		.loc 4 145 12 is_stmt 0 view .LVU160
 556 0020 0394     		str	r4, [sp, #12]
 141:eurorack/plaits/dsp/speech/lpc_speech_synth_controller.cc ****   frame.k1 = 0;
 557              		.loc 4 141 12 view .LVU161
 558 0022 0294     		str	r4, [sp, #8]
 146:eurorack/plaits/dsp/speech/lpc_speech_synth_controller.cc ****   frame.k6 = 0;
 559              		.loc 4 146 12 view .LVU162
 560 0024 CDE90444 		strd	r4, r4, [sp, #16]
 561              	.LVL42:
 562              	.L23:
 151:eurorack/plaits/dsp/speech/lpc_speech_synth_controller.cc **** 
 152:eurorack/plaits/dsp/speech/lpc_speech_synth_controller.cc ****   while (true) {
 563              		.loc 4 152 3 is_stmt 1 view .LVU163
 564              	.LBB167:
 153:eurorack/plaits/dsp/speech/lpc_speech_synth_controller.cc ****     int energy = bitstream.GetBits(4);
 565              		.loc 4 153 5 view .LVU164
 566              		.loc 4 153 35 is_stmt 0 view .LVU165
 567 0028 0421     		movs	r1, #4
 568 002a 09A8     		add	r0, sp, #36
 569 002c FFF7FEFF 		bl	_ZN6plaits9BitStream7GetBitsEi
 570              	.LVL43:
 154:eurorack/plaits/dsp/speech/lpc_speech_synth_controller.cc ****     if (energy == 0) {
 571              		.loc 4 154 5 is_stmt 1 view .LVU166
 572              	.LBB168:
 573 0030 0028     		cmp	r0, #0
 574 0032 7DD0     		beq	.L24
 575              	.LBE168:
 576              	.LBE167:
 155:eurorack/plaits/dsp/speech/lpc_speech_synth_controller.cc ****       frame.energy = 0;
 156:eurorack/plaits/dsp/speech/lpc_speech_synth_controller.cc ****     } else if (energy == 0xf) {
 577              		.loc 4 156 12 view .LVU167
 578              	.LBB176:
 579              	.LBB174:
 580              	.LBB169:
 581 0034 0F28     		cmp	r0, #15
 582 0036 07D1     		bne	.L20
 583              	.LVL44:
 584              	.L22:
 585              	.LBB170:
 586              	.LBB171:
  50:eurorack/plaits/dsp/speech/lpc_speech_synth_controller.h ****       GetBits(1);
 587              		.loc 2 50 5 view .LVU168
  50:eurorack/plaits/dsp/speech/lpc_speech_synth_controller.h ****       GetBits(1);
 588              		.loc 2 50 12 view .LVU169
 589 0038 0A9B     		ldr	r3, [sp, #40]
 590 003a 002B     		cmp	r3, #0
 591 003c 7AD0     		beq	.L21
  51:eurorack/plaits/dsp/speech/lpc_speech_synth_controller.h ****     }
 592              		.loc 2 51 7 view .LVU170
  51:eurorack/plaits/dsp/speech/lpc_speech_synth_controller.h ****     }
 593              		.loc 2 51 14 is_stmt 0 view .LVU171
 594 003e 0121     		movs	r1, #1
 595 0040 09A8     		add	r0, sp, #36
 596 0042 FFF7FEFF 		bl	_ZN6plaits9BitStream7GetBitsEi
 597              	.LVL45:
  50:eurorack/plaits/dsp/speech/lpc_speech_synth_controller.h ****       GetBits(1);
 598              		.loc 2 50 5 view .LVU172
ARM GAS  /var/folders/9s/8rp0_f2s1n31qbztm3b5_fdh0000gn/T//ccHPFdxP.s 			page 37


 599 0046 F7E7     		b	.L22
 600              	.LVL46:
 601              	.L20:
  50:eurorack/plaits/dsp/speech/lpc_speech_synth_controller.h ****       GetBits(1);
 602              		.loc 2 50 5 view .LVU173
 603              	.LBE171:
 604              	.LBE170:
 605              	.LBB172:
 157:eurorack/plaits/dsp/speech/lpc_speech_synth_controller.cc ****       bitstream.Flush();
 158:eurorack/plaits/dsp/speech/lpc_speech_synth_controller.cc ****       break;
 159:eurorack/plaits/dsp/speech/lpc_speech_synth_controller.cc ****     } else {
 160:eurorack/plaits/dsp/speech/lpc_speech_synth_controller.cc ****       frame.energy = energy_lut_[energy];
 606              		.loc 4 160 7 is_stmt 1 view .LVU174
 607              		.loc 4 160 40 is_stmt 0 view .LVU175
 608 0048 3D4A     		ldr	r2, .L29
 161:eurorack/plaits/dsp/speech/lpc_speech_synth_controller.cc ****       bool repeat = bitstream.GetBits(1);
 609              		.loc 4 161 38 view .LVU176
 610 004a 0121     		movs	r1, #1
 160:eurorack/plaits/dsp/speech/lpc_speech_synth_controller.cc ****       bool repeat = bitstream.GetBits(1);
 611              		.loc 4 160 40 view .LVU177
 612 004c 135C     		ldrb	r3, [r2, r0]	@ zero_extendqisi2
 613              		.loc 4 161 38 view .LVU178
 614 004e 09A8     		add	r0, sp, #36
 615              	.LVL47:
 160:eurorack/plaits/dsp/speech/lpc_speech_synth_controller.cc ****       bool repeat = bitstream.GetBits(1);
 616              		.loc 4 160 40 view .LVU179
 617 0050 0193     		str	r3, [sp, #4]
 618              	.LVL48:
 619              		.loc 4 161 7 is_stmt 1 view .LVU180
 620              		.loc 4 161 38 is_stmt 0 view .LVU181
 621 0052 FFF7FEFF 		bl	_ZN6plaits9BitStream7GetBitsEi
 622              	.LVL49:
 162:eurorack/plaits/dsp/speech/lpc_speech_synth_controller.cc ****       frame.period = period_lut_[bitstream.GetBits(6)];
 623              		.loc 4 162 51 view .LVU182
 624 0056 0621     		movs	r1, #6
 161:eurorack/plaits/dsp/speech/lpc_speech_synth_controller.cc ****       bool repeat = bitstream.GetBits(1);
 625              		.loc 4 161 38 view .LVU183
 626 0058 0790     		str	r0, [sp, #28]
 627              	.LVL50:
 628              		.loc 4 162 7 is_stmt 1 view .LVU184
 629              		.loc 4 162 51 is_stmt 0 view .LVU185
 630 005a 09A8     		add	r0, sp, #36
 631 005c FFF7FEFF 		bl	_ZN6plaits9BitStream7GetBitsEi
 632              	.LVL51:
 633              		.loc 4 162 54 view .LVU186
 634 0060 3849     		ldr	r1, .L29+4
 163:eurorack/plaits/dsp/speech/lpc_speech_synth_controller.cc ****       if (!repeat) {
 635              		.loc 4 163 7 view .LVU187
 636 0062 079A     		ldr	r2, [sp, #28]
 162:eurorack/plaits/dsp/speech/lpc_speech_synth_controller.cc ****       frame.period = period_lut_[bitstream.GetBits(6)];
 637              		.loc 4 162 54 view .LVU188
 638 0064 0E5C     		ldrb	r6, [r1, r0]	@ zero_extendqisi2
 639              	.LVL52:
 640              		.loc 4 163 7 is_stmt 1 view .LVU189
 641 0066 002A     		cmp	r2, #0
 642 0068 45D1     		bne	.L19
 164:eurorack/plaits/dsp/speech/lpc_speech_synth_controller.cc ****         frame.k0 = k0_lut_[bitstream.GetBits(5)];
ARM GAS  /var/folders/9s/8rp0_f2s1n31qbztm3b5_fdh0000gn/T//ccHPFdxP.s 			page 38


 643              		.loc 4 164 9 view .LVU190
 644              		.loc 4 164 45 is_stmt 0 view .LVU191
 645 006a 0521     		movs	r1, #5
 646 006c 09A8     		add	r0, sp, #36
 647 006e FFF7FEFF 		bl	_ZN6plaits9BitStream7GetBitsEi
 648              	.LVL53:
 649              		.loc 4 164 48 view .LVU192
 650 0072 354A     		ldr	r2, .L29+8
 165:eurorack/plaits/dsp/speech/lpc_speech_synth_controller.cc ****         frame.k1 = k1_lut_[bitstream.GetBits(5)];
 651              		.loc 4 165 45 view .LVU193
 652 0074 0521     		movs	r1, #5
 164:eurorack/plaits/dsp/speech/lpc_speech_synth_controller.cc ****         frame.k0 = k0_lut_[bitstream.GetBits(5)];
 653              		.loc 4 164 48 view .LVU194
 654 0076 32F91030 		ldrsh	r3, [r2, r0, lsl #1]
 655              		.loc 4 165 45 view .LVU195
 656 007a 09A8     		add	r0, sp, #36
 164:eurorack/plaits/dsp/speech/lpc_speech_synth_controller.cc ****         frame.k0 = k0_lut_[bitstream.GetBits(5)];
 657              		.loc 4 164 48 view .LVU196
 658 007c 0293     		str	r3, [sp, #8]
 659              	.LVL54:
 660              		.loc 4 165 9 is_stmt 1 view .LVU197
 661              		.loc 4 165 45 is_stmt 0 view .LVU198
 662 007e FFF7FEFF 		bl	_ZN6plaits9BitStream7GetBitsEi
 663              	.LVL55:
 664              		.loc 4 165 48 view .LVU199
 665 0082 324A     		ldr	r2, .L29+12
 166:eurorack/plaits/dsp/speech/lpc_speech_synth_controller.cc ****         frame.k2 = k2_lut_[bitstream.GetBits(4)];
 666              		.loc 4 166 45 view .LVU200
 667 0084 0421     		movs	r1, #4
 165:eurorack/plaits/dsp/speech/lpc_speech_synth_controller.cc ****         frame.k1 = k1_lut_[bitstream.GetBits(5)];
 668              		.loc 4 165 48 view .LVU201
 669 0086 32F910B0 		ldrsh	fp, [r2, r0, lsl #1]
 670              	.LVL56:
 671              		.loc 4 166 9 is_stmt 1 view .LVU202
 672              		.loc 4 166 45 is_stmt 0 view .LVU203
 673 008a 09A8     		add	r0, sp, #36
 674 008c FFF7FEFF 		bl	_ZN6plaits9BitStream7GetBitsEi
 675              	.LVL57:
 676              		.loc 4 166 48 view .LVU204
 677 0090 2F4A     		ldr	r2, .L29+16
 167:eurorack/plaits/dsp/speech/lpc_speech_synth_controller.cc ****         frame.k3 = k3_lut_[bitstream.GetBits(4)];
 678              		.loc 4 167 45 view .LVU205
 679 0092 0421     		movs	r1, #4
 166:eurorack/plaits/dsp/speech/lpc_speech_synth_controller.cc ****         frame.k2 = k2_lut_[bitstream.GetBits(4)];
 680              		.loc 4 166 48 view .LVU206
 681 0094 12F900A0 		ldrsb	r10, [r2, r0]
 682              	.LVL58:
 683              		.loc 4 167 9 is_stmt 1 view .LVU207
 684              		.loc 4 167 45 is_stmt 0 view .LVU208
 685 0098 09A8     		add	r0, sp, #36
 686 009a FFF7FEFF 		bl	_ZN6plaits9BitStream7GetBitsEi
 687              	.LVL59:
 688              		.loc 4 167 48 view .LVU209
 689 009e 2D4A     		ldr	r2, .L29+20
 690 00a0 12F90090 		ldrsb	r9, [r2, r0]
 691              	.LVL60:
 168:eurorack/plaits/dsp/speech/lpc_speech_synth_controller.cc ****         if (frame.period) {
ARM GAS  /var/folders/9s/8rp0_f2s1n31qbztm3b5_fdh0000gn/T//ccHPFdxP.s 			page 39


 692              		.loc 4 168 9 is_stmt 1 view .LVU210
 693 00a4 3EB3     		cbz	r6, .L19
 169:eurorack/plaits/dsp/speech/lpc_speech_synth_controller.cc ****           frame.k4 = k4_lut_[bitstream.GetBits(4)];
 694              		.loc 4 169 11 view .LVU211
 695              		.loc 4 169 47 is_stmt 0 view .LVU212
 696 00a6 0421     		movs	r1, #4
 697 00a8 09A8     		add	r0, sp, #36
 698 00aa FFF7FEFF 		bl	_ZN6plaits9BitStream7GetBitsEi
 699              	.LVL61:
 700              		.loc 4 169 50 view .LVU213
 701 00ae 2A4B     		ldr	r3, .L29+24
 170:eurorack/plaits/dsp/speech/lpc_speech_synth_controller.cc ****           frame.k5 = k5_lut_[bitstream.GetBits(4)];
 702              		.loc 4 170 47 view .LVU214
 703 00b0 0421     		movs	r1, #4
 169:eurorack/plaits/dsp/speech/lpc_speech_synth_controller.cc ****           frame.k4 = k4_lut_[bitstream.GetBits(4)];
 704              		.loc 4 169 50 view .LVU215
 705 00b2 1B56     		ldrsb	r3, [r3, r0]
 706              		.loc 4 170 47 view .LVU216
 707 00b4 09A8     		add	r0, sp, #36
 169:eurorack/plaits/dsp/speech/lpc_speech_synth_controller.cc ****           frame.k4 = k4_lut_[bitstream.GetBits(4)];
 708              		.loc 4 169 50 view .LVU217
 709 00b6 0393     		str	r3, [sp, #12]
 710              	.LVL62:
 711              		.loc 4 170 11 is_stmt 1 view .LVU218
 712              		.loc 4 170 47 is_stmt 0 view .LVU219
 713 00b8 FFF7FEFF 		bl	_ZN6plaits9BitStream7GetBitsEi
 714              	.LVL63:
 715              		.loc 4 170 50 view .LVU220
 716 00bc 274B     		ldr	r3, .L29+28
 171:eurorack/plaits/dsp/speech/lpc_speech_synth_controller.cc ****           frame.k6 = k6_lut_[bitstream.GetBits(4)];
 717              		.loc 4 171 47 view .LVU221
 718 00be 0421     		movs	r1, #4
 170:eurorack/plaits/dsp/speech/lpc_speech_synth_controller.cc ****           frame.k5 = k5_lut_[bitstream.GetBits(4)];
 719              		.loc 4 170 50 view .LVU222
 720 00c0 1B56     		ldrsb	r3, [r3, r0]
 721              		.loc 4 171 47 view .LVU223
 722 00c2 09A8     		add	r0, sp, #36
 170:eurorack/plaits/dsp/speech/lpc_speech_synth_controller.cc ****           frame.k5 = k5_lut_[bitstream.GetBits(4)];
 723              		.loc 4 170 50 view .LVU224
 724 00c4 0493     		str	r3, [sp, #16]
 725              	.LVL64:
 726              		.loc 4 171 11 is_stmt 1 view .LVU225
 727              		.loc 4 171 47 is_stmt 0 view .LVU226
 728 00c6 FFF7FEFF 		bl	_ZN6plaits9BitStream7GetBitsEi
 729              	.LVL65:
 730              		.loc 4 171 50 view .LVU227
 731 00ca 254B     		ldr	r3, .L29+32
 172:eurorack/plaits/dsp/speech/lpc_speech_synth_controller.cc ****           frame.k7 = k7_lut_[bitstream.GetBits(3)];
 732              		.loc 4 172 47 view .LVU228
 733 00cc 0321     		movs	r1, #3
 171:eurorack/plaits/dsp/speech/lpc_speech_synth_controller.cc ****           frame.k6 = k6_lut_[bitstream.GetBits(4)];
 734              		.loc 4 171 50 view .LVU229
 735 00ce 1B56     		ldrsb	r3, [r3, r0]
 736              		.loc 4 172 47 view .LVU230
 737 00d0 09A8     		add	r0, sp, #36
 171:eurorack/plaits/dsp/speech/lpc_speech_synth_controller.cc ****           frame.k6 = k6_lut_[bitstream.GetBits(4)];
 738              		.loc 4 171 50 view .LVU231
ARM GAS  /var/folders/9s/8rp0_f2s1n31qbztm3b5_fdh0000gn/T//ccHPFdxP.s 			page 40


 739 00d2 0593     		str	r3, [sp, #20]
 740              	.LVL66:
 741              		.loc 4 172 11 is_stmt 1 view .LVU232
 742              		.loc 4 172 47 is_stmt 0 view .LVU233
 743 00d4 FFF7FEFF 		bl	_ZN6plaits9BitStream7GetBitsEi
 744              	.LVL67:
 745              		.loc 4 172 50 view .LVU234
 746 00d8 224B     		ldr	r3, .L29+36
 173:eurorack/plaits/dsp/speech/lpc_speech_synth_controller.cc ****           frame.k8 = k8_lut_[bitstream.GetBits(3)];
 747              		.loc 4 173 47 view .LVU235
 748 00da 0321     		movs	r1, #3
 172:eurorack/plaits/dsp/speech/lpc_speech_synth_controller.cc ****           frame.k7 = k7_lut_[bitstream.GetBits(3)];
 749              		.loc 4 172 50 view .LVU236
 750 00dc 13F90080 		ldrsb	r8, [r3, r0]
 751              	.LVL68:
 752              		.loc 4 173 11 is_stmt 1 view .LVU237
 753              		.loc 4 173 47 is_stmt 0 view .LVU238
 754 00e0 09A8     		add	r0, sp, #36
 755 00e2 FFF7FEFF 		bl	_ZN6plaits9BitStream7GetBitsEi
 756              	.LVL69:
 757              		.loc 4 173 50 view .LVU239
 758 00e6 204B     		ldr	r3, .L29+40
 174:eurorack/plaits/dsp/speech/lpc_speech_synth_controller.cc ****           frame.k9 = k9_lut_[bitstream.GetBits(3)];
 759              		.loc 4 174 47 view .LVU240
 760 00e8 0321     		movs	r1, #3
 173:eurorack/plaits/dsp/speech/lpc_speech_synth_controller.cc ****           frame.k8 = k8_lut_[bitstream.GetBits(3)];
 761              		.loc 4 173 50 view .LVU241
 762 00ea 1F56     		ldrsb	r7, [r3, r0]
 763              	.LVL70:
 764              		.loc 4 174 11 is_stmt 1 view .LVU242
 765              		.loc 4 174 47 is_stmt 0 view .LVU243
 766 00ec 09A8     		add	r0, sp, #36
 767 00ee FFF7FEFF 		bl	_ZN6plaits9BitStream7GetBitsEi
 768              	.LVL71:
 769              		.loc 4 174 50 view .LVU244
 770 00f2 1E4B     		ldr	r3, .L29+44
 771 00f4 1C56     		ldrsb	r4, [r3, r0]
 772              	.LVL72:
 773              	.L19:
 774              		.loc 4 174 50 view .LVU245
 775              	.LBE172:
 776              	.LBE169:
 777              	.LBE174:
 175:eurorack/plaits/dsp/speech/lpc_speech_synth_controller.cc ****         }
 176:eurorack/plaits/dsp/speech/lpc_speech_synth_controller.cc ****       }
 177:eurorack/plaits/dsp/speech/lpc_speech_synth_controller.cc ****     }
 178:eurorack/plaits/dsp/speech/lpc_speech_synth_controller.cc ****     frames_[num_frames_++] = frame;
 778              		.loc 4 178 5 is_stmt 1 view .LVU246
 779              		.loc 4 178 13 is_stmt 0 view .LVU247
 780 00f6 E968     		ldr	r1, [r5, #12]
 781              		.loc 4 178 5 view .LVU248
 782 00f8 A869     		ldr	r0, [r5, #24]
 783              		.loc 4 178 24 view .LVU249
 784 00fa 4A1C     		adds	r2, r1, #1
 785              		.loc 4 178 28 view .LVU250
 786 00fc 019B     		ldr	r3, [sp, #4]
 787              		.loc 4 178 24 view .LVU251
ARM GAS  /var/folders/9s/8rp0_f2s1n31qbztm3b5_fdh0000gn/T//ccHPFdxP.s 			page 41


 788 00fe EA60     		str	r2, [r5, #12]
 789              		.loc 4 178 28 view .LVU252
 790 0100 0E22     		movs	r2, #14
 791 0102 5143     		muls	r1, r2, r1
 792 0104 4354     		strb	r3, [r0, r1]
 793 0106 4218     		adds	r2, r0, r1
 794 0108 029B     		ldr	r3, [sp, #8]
 795 010a 5670     		strb	r6, [r2, #1]
 796 010c 5380     		strh	r3, [r2, #2]	@ movhi
 797 010e 039B     		ldr	r3, [sp, #12]
 798 0110 A2F804B0 		strh	fp, [r2, #4]	@ movhi
 799 0114 1372     		strb	r3, [r2, #8]
 800 0116 049B     		ldr	r3, [sp, #16]
 801 0118 82F806A0 		strb	r10, [r2, #6]
 802 011c 5372     		strb	r3, [r2, #9]
 803 011e 059B     		ldr	r3, [sp, #20]
 804 0120 82F80790 		strb	r9, [r2, #7]
 805 0124 9372     		strb	r3, [r2, #10]
 806 0126 82F80B80 		strb	r8, [r2, #11]
 807 012a 1773     		strb	r7, [r2, #12]
 808 012c 5473     		strb	r4, [r2, #13]
 809              	.LBE176:
 152:eurorack/plaits/dsp/speech/lpc_speech_synth_controller.cc ****     int energy = bitstream.GetBits(4);
 810              		.loc 4 152 3 is_stmt 1 view .LVU253
 179:eurorack/plaits/dsp/speech/lpc_speech_synth_controller.cc ****   }
 811              		.loc 4 179 3 is_stmt 0 view .LVU254
 812 012e 7BE7     		b	.L23
 813              	.LVL73:
 814              	.L24:
 815              	.LBB177:
 816              	.LBB175:
 155:eurorack/plaits/dsp/speech/lpc_speech_synth_controller.cc ****     } else if (energy == 0xf) {
 817              		.loc 4 155 20 view .LVU255
 818 0130 0190     		str	r0, [sp, #4]
 819 0132 E0E7     		b	.L19
 820              	.LVL74:
 821              	.L21:
 822              	.LBB173:
 158:eurorack/plaits/dsp/speech/lpc_speech_synth_controller.cc ****     } else {
 823              		.loc 4 158 7 is_stmt 1 view .LVU256
 824              	.LBE173:
 825              	.LBE175:
 826              	.LBE177:
 180:eurorack/plaits/dsp/speech/lpc_speech_synth_controller.cc ****   return bitstream.ptr() - data;
 827              		.loc 4 180 3 view .LVU257
 828              	.LBB178:
 829              	.LBI178:
  70:eurorack/plaits/dsp/speech/lpc_speech_synth_controller.h **** 
 830              		.loc 2 70 25 view .LVU258
 831              	.LBB179:
  70:eurorack/plaits/dsp/speech/lpc_speech_synth_controller.h **** 
 832              		.loc 2 70 39 view .LVU259
  70:eurorack/plaits/dsp/speech/lpc_speech_synth_controller.h **** 
 833              		.loc 2 70 39 is_stmt 0 view .LVU260
 834              	.LBE179:
 835              	.LBE178:
 836              		.loc 4 180 26 view .LVU261
ARM GAS  /var/folders/9s/8rp0_f2s1n31qbztm3b5_fdh0000gn/T//ccHPFdxP.s 			page 42


 837 0134 0998     		ldr	r0, [sp, #36]
 838 0136 069B     		ldr	r3, [sp, #24]
 839 0138 C01A     		subs	r0, r0, r3
 840              	.LVL75:
 841              	.LBB180:
 842              	.LBI180:
  41:eurorack/plaits/dsp/speech/lpc_speech_synth_controller.h **** 
 843              		.loc 2 41 3 is_stmt 1 view .LVU262
  41:eurorack/plaits/dsp/speech/lpc_speech_synth_controller.h **** 
 844              		.loc 2 41 3 is_stmt 0 view .LVU263
 845              	.LBE180:
 181:eurorack/plaits/dsp/speech/lpc_speech_synth_controller.cc **** }
 846              		.loc 4 181 1 view .LVU264
 847 013a 0DB0     		add	sp, sp, #52
 848              		.cfi_def_cfa_offset 36
 849              		@ sp needed
 850 013c BDE8F08F 		pop	{r4, r5, r6, r7, r8, r9, r10, fp, pc}
 851              	.LVL76:
 852              	.L30:
 853              		.loc 4 181 1 view .LVU265
 854              		.align	2
 855              	.L29:
 856 0140 00000000 		.word	.LANCHOR0
 857 0144 00000000 		.word	.LANCHOR1
 858 0148 00000000 		.word	.LANCHOR2
 859 014c 00000000 		.word	.LANCHOR3
 860 0150 00000000 		.word	.LANCHOR4
 861 0154 00000000 		.word	.LANCHOR5
 862 0158 00000000 		.word	.LANCHOR6
 863 015c 00000000 		.word	.LANCHOR7
 864 0160 00000000 		.word	.LANCHOR8
 865 0164 00000000 		.word	.LANCHOR9
 866 0168 00000000 		.word	.LANCHOR10
 867 016c 00000000 		.word	.LANCHOR11
 868              		.cfi_endproc
 869              	.LFE1499:
 871              		.section	.text._ZN6plaits22LPCSpeechSynthWordBank4LoadEi,"ax",%progbits
 872              		.align	1
 873              		.global	_ZN6plaits22LPCSpeechSynthWordBank4LoadEi
 874              		.syntax unified
 875              		.thumb
 876              		.thumb_func
 878              	_ZN6plaits22LPCSpeechSynthWordBank4LoadEi:
 879              	.LVL77:
 880              	.LFB1500:
 182:eurorack/plaits/dsp/speech/lpc_speech_synth_controller.cc **** 
 183:eurorack/plaits/dsp/speech/lpc_speech_synth_controller.cc **** bool LPCSpeechSynthWordBank::Load(int bank) {
 881              		.loc 4 183 45 is_stmt 1 view -0
 882              		.cfi_startproc
 883              		@ args = 0, pretend = 0, frame = 0
 884              		@ frame_needed = 0, uses_anonymous_args = 0
 184:eurorack/plaits/dsp/speech/lpc_speech_synth_controller.cc ****   if (bank == loaded_bank_ || bank >= num_banks_) {
 885              		.loc 4 184 3 view .LVU267
 183:eurorack/plaits/dsp/speech/lpc_speech_synth_controller.cc ****   if (bank == loaded_bank_ || bank >= num_banks_) {
 886              		.loc 4 183 45 is_stmt 0 view .LVU268
 887 0000 F8B5     		push	{r3, r4, r5, r6, r7, lr}
 888              		.cfi_def_cfa_offset 24
ARM GAS  /var/folders/9s/8rp0_f2s1n31qbztm3b5_fdh0000gn/T//ccHPFdxP.s 			page 43


 889              		.cfi_offset 3, -24
 890              		.cfi_offset 4, -20
 891              		.cfi_offset 5, -16
 892              		.cfi_offset 6, -12
 893              		.cfi_offset 7, -8
 894              		.cfi_offset 14, -4
 895              		.loc 4 184 3 view .LVU269
 896 0002 8368     		ldr	r3, [r0, #8]
 183:eurorack/plaits/dsp/speech/lpc_speech_synth_controller.cc ****   if (bank == loaded_bank_ || bank >= num_banks_) {
 897              		.loc 4 183 45 view .LVU270
 898 0004 0446     		mov	r4, r0
 899 0006 0D46     		mov	r5, r1
 900 0008 0020     		movs	r0, #0
 901              	.LVL78:
 902              		.loc 4 184 3 view .LVU271
 903 000a 8B42     		cmp	r3, r1
 904 000c 1FD0     		beq	.L32
 905              		.loc 4 184 28 discriminator 1 view .LVU272
 906 000e 6368     		ldr	r3, [r4, #4]
 907 0010 8B42     		cmp	r3, r1
 908 0012 1CDD     		ble	.L32
 909              	.LVL79:
 910              	.LBB184:
 911              	.LBI184:
 183:eurorack/plaits/dsp/speech/lpc_speech_synth_controller.cc ****   if (bank == loaded_bank_ || bank >= num_banks_) {
 912              		.loc 4 183 6 is_stmt 1 view .LVU273
 913              	.LBB185:
 185:eurorack/plaits/dsp/speech/lpc_speech_synth_controller.cc ****     return false;
 186:eurorack/plaits/dsp/speech/lpc_speech_synth_controller.cc ****   }
 187:eurorack/plaits/dsp/speech/lpc_speech_synth_controller.cc **** 
 188:eurorack/plaits/dsp/speech/lpc_speech_synth_controller.cc ****   num_frames_ = 0;
 914              		.loc 4 188 3 view .LVU274
 189:eurorack/plaits/dsp/speech/lpc_speech_synth_controller.cc ****   num_words_ = 0;
 190:eurorack/plaits/dsp/speech/lpc_speech_synth_controller.cc ****   
 191:eurorack/plaits/dsp/speech/lpc_speech_synth_controller.cc ****   const uint8_t* data = word_banks_[bank].data;
 915              		.loc 4 191 41 is_stmt 0 view .LVU275
 916 0014 2368     		ldr	r3, [r4]
 917 0016 03EBC102 		add	r2, r3, r1, lsl #3
 918              		.loc 4 191 18 view .LVU276
 919 001a 53F83170 		ldr	r7, [r3, r1, lsl #3]
 192:eurorack/plaits/dsp/speech/lpc_speech_synth_controller.cc ****   size_t size = word_banks_[bank].size;
 920              		.loc 4 192 10 view .LVU277
 921 001e 5668     		ldr	r6, [r2, #4]
 189:eurorack/plaits/dsp/speech/lpc_speech_synth_controller.cc ****   num_words_ = 0;
 922              		.loc 4 189 14 view .LVU278
 923 0020 C4E90300 		strd	r0, r0, [r4, #12]
 191:eurorack/plaits/dsp/speech/lpc_speech_synth_controller.cc ****   size_t size = word_banks_[bank].size;
 924              		.loc 4 191 3 is_stmt 1 view .LVU279
 925              	.LVL80:
 926              		.loc 4 192 3 view .LVU280
 927              	.L34:
 193:eurorack/plaits/dsp/speech/lpc_speech_synth_controller.cc ****   
 194:eurorack/plaits/dsp/speech/lpc_speech_synth_controller.cc ****   while (size) {
 928              		.loc 4 194 3 view .LVU281
 929              		.loc 4 194 10 view .LVU282
 930              	.LBB186:
 195:eurorack/plaits/dsp/speech/lpc_speech_synth_controller.cc ****     word_boundaries_[num_words_] = num_frames_;
ARM GAS  /var/folders/9s/8rp0_f2s1n31qbztm3b5_fdh0000gn/T//ccHPFdxP.s 			page 44


 931              		.loc 4 195 32 is_stmt 0 view .LVU283
 932 0024 D4E90412 		ldrd	r1, r2, [r4, #16]
 933              		.loc 4 195 36 view .LVU284
 934 0028 E368     		ldr	r3, [r4, #12]
 935              		.loc 4 195 32 view .LVU285
 936 002a 02EB8100 		add	r0, r2, r1, lsl #2
 937              	.LBE186:
 194:eurorack/plaits/dsp/speech/lpc_speech_synth_controller.cc ****     word_boundaries_[num_words_] = num_frames_;
 938              		.loc 4 194 10 view .LVU286
 939 002e 5EB1     		cbz	r6, .L33
 940              	.LBB187:
 941              		.loc 4 195 5 is_stmt 1 view .LVU287
 942              		.loc 4 195 34 is_stmt 0 view .LVU288
 943 0030 42F82130 		str	r3, [r2, r1, lsl #2]
 196:eurorack/plaits/dsp/speech/lpc_speech_synth_controller.cc ****     size_t consumed = LoadNextWord(data);
 944              		.loc 4 196 5 is_stmt 1 view .LVU289
 945              		.loc 4 196 35 is_stmt 0 view .LVU290
 946 0034 2046     		mov	r0, r4
 947 0036 3946     		mov	r1, r7
 948 0038 FFF7FEFF 		bl	_ZN6plaits22LPCSpeechSynthWordBank12LoadNextWordEPKh
 949              	.LVL81:
 197:eurorack/plaits/dsp/speech/lpc_speech_synth_controller.cc **** 
 198:eurorack/plaits/dsp/speech/lpc_speech_synth_controller.cc ****     data += consumed;
 950              		.loc 4 198 5 is_stmt 1 view .LVU291
 199:eurorack/plaits/dsp/speech/lpc_speech_synth_controller.cc ****     size -= consumed;
 200:eurorack/plaits/dsp/speech/lpc_speech_synth_controller.cc ****     ++num_words_;
 951              		.loc 4 200 5 is_stmt 0 view .LVU292
 952 003c 2369     		ldr	r3, [r4, #16]
 198:eurorack/plaits/dsp/speech/lpc_speech_synth_controller.cc ****     size -= consumed;
 953              		.loc 4 198 10 view .LVU293
 954 003e 0744     		add	r7, r7, r0
 955              	.LVL82:
 199:eurorack/plaits/dsp/speech/lpc_speech_synth_controller.cc ****     size -= consumed;
 956              		.loc 4 199 5 is_stmt 1 view .LVU294
 199:eurorack/plaits/dsp/speech/lpc_speech_synth_controller.cc ****     size -= consumed;
 957              		.loc 4 199 10 is_stmt 0 view .LVU295
 958 0040 361A     		subs	r6, r6, r0
 959              	.LVL83:
 960              		.loc 4 200 5 is_stmt 1 view .LVU296
 961 0042 0133     		adds	r3, r3, #1
 962 0044 2361     		str	r3, [r4, #16]
 963              	.LBE187:
 194:eurorack/plaits/dsp/speech/lpc_speech_synth_controller.cc ****     word_boundaries_[num_words_] = num_frames_;
 964              		.loc 4 194 3 is_stmt 0 view .LVU297
 965 0046 EDE7     		b	.L34
 966              	.LVL84:
 967              	.L33:
 201:eurorack/plaits/dsp/speech/lpc_speech_synth_controller.cc ****   }
 202:eurorack/plaits/dsp/speech/lpc_speech_synth_controller.cc ****   word_boundaries_[num_words_] = num_frames_;
 968              		.loc 4 202 3 is_stmt 1 view .LVU298
 969              		.loc 4 202 32 is_stmt 0 view .LVU299
 970 0048 0360     		str	r3, [r0]
 203:eurorack/plaits/dsp/speech/lpc_speech_synth_controller.cc ****   loaded_bank_ = bank;
 971              		.loc 4 203 3 is_stmt 1 view .LVU300
 972              		.loc 4 203 16 is_stmt 0 view .LVU301
 973 004a 0120     		movs	r0, #1
 974 004c A560     		str	r5, [r4, #8]
ARM GAS  /var/folders/9s/8rp0_f2s1n31qbztm3b5_fdh0000gn/T//ccHPFdxP.s 			page 45


 204:eurorack/plaits/dsp/speech/lpc_speech_synth_controller.cc ****   return true;
 975              		.loc 4 204 3 is_stmt 1 view .LVU302
 976              	.LVL85:
 977              	.L32:
 978              		.loc 4 204 3 is_stmt 0 view .LVU303
 979              	.LBE185:
 980              	.LBE184:
 205:eurorack/plaits/dsp/speech/lpc_speech_synth_controller.cc **** }
 981              		.loc 4 205 1 view .LVU304
 982 004e F8BD     		pop	{r3, r4, r5, r6, r7, pc}
 983              		.loc 4 205 1 view .LVU305
 984              		.cfi_endproc
 985              	.LFE1500:
 987              		.section	.text._ZN6plaits24LPCSpeechSynthController4InitEPNS_22LPCSpeechSynthWordBankE,"ax",%progb
 988              		.align	1
 989              		.global	_ZN6plaits24LPCSpeechSynthController4InitEPNS_22LPCSpeechSynthWordBankE
 990              		.syntax unified
 991              		.thumb
 992              		.thumb_func
 994              	_ZN6plaits24LPCSpeechSynthController4InitEPNS_22LPCSpeechSynthWordBankE:
 995              	.LVL86:
 996              	.LFB1501:
 206:eurorack/plaits/dsp/speech/lpc_speech_synth_controller.cc **** 
 207:eurorack/plaits/dsp/speech/lpc_speech_synth_controller.cc **** void LPCSpeechSynthController::Init(LPCSpeechSynthWordBank* word_bank) {
 997              		.loc 4 207 72 is_stmt 1 view -0
 998              		.cfi_startproc
 999              		@ args = 0, pretend = 0, frame = 0
 1000              		@ frame_needed = 0, uses_anonymous_args = 0
 1001              		@ link register save eliminated.
 208:eurorack/plaits/dsp/speech/lpc_speech_synth_controller.cc ****   word_bank_ = word_bank;
 1002              		.loc 4 208 3 view .LVU307
 209:eurorack/plaits/dsp/speech/lpc_speech_synth_controller.cc ****   
 210:eurorack/plaits/dsp/speech/lpc_speech_synth_controller.cc ****   clock_phase_ = 0.0f;
 211:eurorack/plaits/dsp/speech/lpc_speech_synth_controller.cc ****   playback_frame_ = -1;
 1003              		.loc 4 211 19 is_stmt 0 view .LVU308
 1004 0000 4FF0FF32 		mov	r2, #-1
 210:eurorack/plaits/dsp/speech/lpc_speech_synth_controller.cc ****   playback_frame_ = -1;
 1005              		.loc 4 210 16 view .LVU309
 1006 0004 0023     		movs	r3, #0
 208:eurorack/plaits/dsp/speech/lpc_speech_synth_controller.cc ****   word_bank_ = word_bank;
 1007              		.loc 4 208 14 view .LVU310
 1008 0006 C0F89010 		str	r1, [r0, #144]
 210:eurorack/plaits/dsp/speech/lpc_speech_synth_controller.cc ****   playback_frame_ = -1;
 1009              		.loc 4 210 3 is_stmt 1 view .LVU311
 210:eurorack/plaits/dsp/speech/lpc_speech_synth_controller.cc ****   playback_frame_ = -1;
 1010              		.loc 4 210 16 is_stmt 0 view .LVU312
 1011 000a 0360     		str	r3, [r0]	@ float
 1012              		.loc 4 211 3 is_stmt 1 view .LVU313
 1013              	.LBB198:
 1014              	.LBB199:
 1015              	.LBB200:
 1016              	.LBB201:
 873:/Library/DaisyToolchain/0.2.0/arm/arm-none-eabi/include/c++/10.3.1/bits/stl_algobase.h ****     }
 1017              		.loc 5 873 11 is_stmt 0 view .LVU314
 1018 000c 4360     		str	r3, [r0, #4]	@ float
 1019 000e 8360     		str	r3, [r0, #8]	@ float
 1020              	.LBE201:
ARM GAS  /var/folders/9s/8rp0_f2s1n31qbztm3b5_fdh0000gn/T//ccHPFdxP.s 			page 46


 1021              	.LBE200:
 1022              	.LBE199:
 1023              	.LBE198:
 1024              	.LBB205:
 1025              	.LBB206:
 1026              	.LBB207:
 1027              	.LBB208:
 1028 0010 C360     		str	r3, [r0, #12]	@ float
 1029 0012 0361     		str	r3, [r0, #16]	@ float
 1030              	.LBE208:
 1031              	.LBE207:
 1032              	.LBE206:
 1033              	.LBE205:
 212:eurorack/plaits/dsp/speech/lpc_speech_synth_controller.cc ****   last_playback_frame_ = -1;
 213:eurorack/plaits/dsp/speech/lpc_speech_synth_controller.cc ****   remaining_frame_samples_ = 0;
 214:eurorack/plaits/dsp/speech/lpc_speech_synth_controller.cc **** 
 215:eurorack/plaits/dsp/speech/lpc_speech_synth_controller.cc ****   fill(&sample_[0], &sample_[2], 0.0f);
 216:eurorack/plaits/dsp/speech/lpc_speech_synth_controller.cc ****   fill(&next_sample_[0], &next_sample_[2], 0.0f);
 217:eurorack/plaits/dsp/speech/lpc_speech_synth_controller.cc **** 
 218:eurorack/plaits/dsp/speech/lpc_speech_synth_controller.cc ****   gain_ = 0.0f;
 1034              		.loc 4 218 9 view .LVU315
 1035 0014 4361     		str	r3, [r0, #20]	@ float
 212:eurorack/plaits/dsp/speech/lpc_speech_synth_controller.cc ****   last_playback_frame_ = -1;
 1036              		.loc 4 212 24 view .LVU316
 1037 0016 C0E92122 		strd	r2, r2, [r0, #132]
 213:eurorack/plaits/dsp/speech/lpc_speech_synth_controller.cc **** 
 1038              		.loc 4 213 3 is_stmt 1 view .LVU317
 213:eurorack/plaits/dsp/speech/lpc_speech_synth_controller.cc **** 
 1039              		.loc 4 213 28 is_stmt 0 view .LVU318
 1040 001a 0022     		movs	r2, #0
 219:eurorack/plaits/dsp/speech/lpc_speech_synth_controller.cc ****   
 220:eurorack/plaits/dsp/speech/lpc_speech_synth_controller.cc ****   synth_.Init();
 1041              		.loc 4 220 14 view .LVU319
 1042 001c 1830     		adds	r0, r0, #24
 1043              	.LVL87:
 213:eurorack/plaits/dsp/speech/lpc_speech_synth_controller.cc **** 
 1044              		.loc 4 213 28 view .LVU320
 1045 001e 4267     		str	r2, [r0, #116]
 215:eurorack/plaits/dsp/speech/lpc_speech_synth_controller.cc ****   fill(&next_sample_[0], &next_sample_[2], 0.0f);
 1046              		.loc 4 215 3 is_stmt 1 view .LVU321
 1047              	.LVL88:
 1048              	.LBB212:
 1049              	.LBI198:
 1050              		.loc 5 937 5 view .LVU322
 1051              	.LBB204:
 1052              	.LBI199:
 913:/Library/DaisyToolchain/0.2.0/arm/arm-none-eabi/include/c++/10.3.1/bits/stl_algobase.h ****     { std::__fill_a1(__first, __last, __value); }
 1053              		.loc 5 913 5 view .LVU323
 1054              	.LBB203:
 1055              	.LBI200:
 868:/Library/DaisyToolchain/0.2.0/arm/arm-none-eabi/include/c++/10.3.1/bits/stl_algobase.h **** 	      const _Tp& __value)
 1056              		.loc 5 868 5 view .LVU324
 1057              	.LBB202:
 872:/Library/DaisyToolchain/0.2.0/arm/arm-none-eabi/include/c++/10.3.1/bits/stl_algobase.h **** 	*__first = __tmp;
 1058              		.loc 5 872 22 view .LVU325
 872:/Library/DaisyToolchain/0.2.0/arm/arm-none-eabi/include/c++/10.3.1/bits/stl_algobase.h **** 	*__first = __tmp;
 1059              		.loc 5 872 7 view .LVU326
ARM GAS  /var/folders/9s/8rp0_f2s1n31qbztm3b5_fdh0000gn/T//ccHPFdxP.s 			page 47


 872:/Library/DaisyToolchain/0.2.0/arm/arm-none-eabi/include/c++/10.3.1/bits/stl_algobase.h **** 	*__first = __tmp;
 1060              		.loc 5 872 22 view .LVU327
 872:/Library/DaisyToolchain/0.2.0/arm/arm-none-eabi/include/c++/10.3.1/bits/stl_algobase.h **** 	*__first = __tmp;
 1061              		.loc 5 872 7 view .LVU328
 872:/Library/DaisyToolchain/0.2.0/arm/arm-none-eabi/include/c++/10.3.1/bits/stl_algobase.h **** 	*__first = __tmp;
 1062              		.loc 5 872 22 view .LVU329
 872:/Library/DaisyToolchain/0.2.0/arm/arm-none-eabi/include/c++/10.3.1/bits/stl_algobase.h **** 	*__first = __tmp;
 1063              		.loc 5 872 22 is_stmt 0 view .LVU330
 1064              	.LBE202:
 1065              	.LBE203:
 1066              	.LBE204:
 1067              	.LBE212:
 216:eurorack/plaits/dsp/speech/lpc_speech_synth_controller.cc **** 
 1068              		.loc 4 216 3 is_stmt 1 view .LVU331
 1069              	.LBB213:
 1070              	.LBI205:
 1071              		.loc 5 937 5 view .LVU332
 1072              	.LBB211:
 1073              	.LBI206:
 913:/Library/DaisyToolchain/0.2.0/arm/arm-none-eabi/include/c++/10.3.1/bits/stl_algobase.h ****     { std::__fill_a1(__first, __last, __value); }
 1074              		.loc 5 913 5 view .LVU333
 1075              	.LBB210:
 1076              	.LBI207:
 868:/Library/DaisyToolchain/0.2.0/arm/arm-none-eabi/include/c++/10.3.1/bits/stl_algobase.h **** 	      const _Tp& __value)
 1077              		.loc 5 868 5 view .LVU334
 1078              	.LBB209:
 872:/Library/DaisyToolchain/0.2.0/arm/arm-none-eabi/include/c++/10.3.1/bits/stl_algobase.h **** 	*__first = __tmp;
 1079              		.loc 5 872 22 view .LVU335
 872:/Library/DaisyToolchain/0.2.0/arm/arm-none-eabi/include/c++/10.3.1/bits/stl_algobase.h **** 	*__first = __tmp;
 1080              		.loc 5 872 7 view .LVU336
 872:/Library/DaisyToolchain/0.2.0/arm/arm-none-eabi/include/c++/10.3.1/bits/stl_algobase.h **** 	*__first = __tmp;
 1081              		.loc 5 872 22 view .LVU337
 872:/Library/DaisyToolchain/0.2.0/arm/arm-none-eabi/include/c++/10.3.1/bits/stl_algobase.h **** 	*__first = __tmp;
 1082              		.loc 5 872 7 view .LVU338
 872:/Library/DaisyToolchain/0.2.0/arm/arm-none-eabi/include/c++/10.3.1/bits/stl_algobase.h **** 	*__first = __tmp;
 1083              		.loc 5 872 22 view .LVU339
 872:/Library/DaisyToolchain/0.2.0/arm/arm-none-eabi/include/c++/10.3.1/bits/stl_algobase.h **** 	*__first = __tmp;
 1084              		.loc 5 872 22 is_stmt 0 view .LVU340
 1085              	.LBE209:
 1086              	.LBE210:
 1087              	.LBE211:
 1088              	.LBE213:
 218:eurorack/plaits/dsp/speech/lpc_speech_synth_controller.cc ****   
 1089              		.loc 4 218 3 is_stmt 1 view .LVU341
 1090              		.loc 4 220 3 view .LVU342
 1091              		.loc 4 220 14 is_stmt 0 view .LVU343
 1092 0020 FFF7FEBF 		b	_ZN6plaits14LPCSpeechSynth4InitEv
 1093              	.LVL89:
 1094              		.loc 4 220 14 view .LVU344
 1095              		.cfi_endproc
 1096              	.LFE1501:
 1098              		.section	.text._ZN6plaits24LPCSpeechSynthController6RenderEbbiffffffPfS1_j,"ax",%progbits
 1099              		.align	1
 1100              		.global	_ZN6plaits24LPCSpeechSynthController6RenderEbbiffffffPfS1_j
 1101              		.syntax unified
 1102              		.thumb
 1103              		.thumb_func
ARM GAS  /var/folders/9s/8rp0_f2s1n31qbztm3b5_fdh0000gn/T//ccHPFdxP.s 			page 48


 1105              	_ZN6plaits24LPCSpeechSynthController6RenderEbbiffffffPfS1_j:
 1106              	.LVL90:
 1107              	.LFB1502:
 221:eurorack/plaits/dsp/speech/lpc_speech_synth_controller.cc **** }
 222:eurorack/plaits/dsp/speech/lpc_speech_synth_controller.cc **** 
 223:eurorack/plaits/dsp/speech/lpc_speech_synth_controller.cc **** void LPCSpeechSynthController::Render(
 224:eurorack/plaits/dsp/speech/lpc_speech_synth_controller.cc ****     bool free_running,
 225:eurorack/plaits/dsp/speech/lpc_speech_synth_controller.cc ****     bool trigger,
 226:eurorack/plaits/dsp/speech/lpc_speech_synth_controller.cc ****     int bank,
 227:eurorack/plaits/dsp/speech/lpc_speech_synth_controller.cc ****     float frequency,
 228:eurorack/plaits/dsp/speech/lpc_speech_synth_controller.cc ****     float prosody_amount,
 229:eurorack/plaits/dsp/speech/lpc_speech_synth_controller.cc ****     float speed,
 230:eurorack/plaits/dsp/speech/lpc_speech_synth_controller.cc ****     float address,
 231:eurorack/plaits/dsp/speech/lpc_speech_synth_controller.cc ****     float formant_shift,
 232:eurorack/plaits/dsp/speech/lpc_speech_synth_controller.cc ****     float gain,
 233:eurorack/plaits/dsp/speech/lpc_speech_synth_controller.cc ****     float* excitation,
 234:eurorack/plaits/dsp/speech/lpc_speech_synth_controller.cc ****     float* output,
 235:eurorack/plaits/dsp/speech/lpc_speech_synth_controller.cc ****     size_t size) {
 1108              		.loc 4 235 18 is_stmt 1 view -0
 1109              		.cfi_startproc
 1110              		@ args = 12, pretend = 0, frame = 16
 1111              		@ frame_needed = 0, uses_anonymous_args = 0
 236:eurorack/plaits/dsp/speech/lpc_speech_synth_controller.cc ****   const float rate_ratio = SemitonesToRatio((formant_shift - 0.5f) * 36.0f);
 1112              		.loc 4 236 3 view .LVU346
 235:eurorack/plaits/dsp/speech/lpc_speech_synth_controller.cc ****   const float rate_ratio = SemitonesToRatio((formant_shift - 0.5f) * 36.0f);
 1113              		.loc 4 235 18 is_stmt 0 view .LVU347
 1114 0000 2DE9F04F 		push	{r4, r5, r6, r7, r8, r9, r10, fp, lr}
 1115              		.cfi_def_cfa_offset 36
 1116              		.cfi_offset 4, -36
 1117              		.cfi_offset 5, -32
 1118              		.cfi_offset 6, -28
 1119              		.cfi_offset 7, -24
 1120              		.cfi_offset 8, -20
 1121              		.cfi_offset 9, -16
 1122              		.cfi_offset 10, -12
 1123              		.cfi_offset 11, -8
 1124              		.cfi_offset 14, -4
 1125 0004 2DED0A8B 		vpush.64	{d8, d9, d10, d11, d12}
 1126              		.cfi_def_cfa_offset 76
 1127              		.cfi_offset 80, -76
 1128              		.cfi_offset 81, -72
 1129              		.cfi_offset 82, -68
 1130              		.cfi_offset 83, -64
 1131              		.cfi_offset 84, -60
 1132              		.cfi_offset 85, -56
 1133              		.cfi_offset 86, -52
 1134              		.cfi_offset 87, -48
 1135              		.cfi_offset 88, -44
 1136              		.cfi_offset 89, -40
 1137              		.loc 4 236 60 view .LVU348
 1138 0008 F6EE009A 		vmov.f32	s19, #5.0e-1
 1139              		.loc 4 236 44 view .LVU349
 1140 000c DFEDC07A 		vldr.32	s15, .L76
 235:eurorack/plaits/dsp/speech/lpc_speech_synth_controller.cc ****   const float rate_ratio = SemitonesToRatio((formant_shift - 0.5f) * 36.0f);
 1141              		.loc 4 235 18 view .LVU350
 1142 0010 F0EE40BA 		vmov.f32	s23, s0
 1143 0014 85B0     		sub	sp, sp, #20
ARM GAS  /var/folders/9s/8rp0_f2s1n31qbztm3b5_fdh0000gn/T//ccHPFdxP.s 			page 49


 1144              		.cfi_def_cfa_offset 96
 235:eurorack/plaits/dsp/speech/lpc_speech_synth_controller.cc ****   const float rate_ratio = SemitonesToRatio((formant_shift - 0.5f) * 36.0f);
 1145              		.loc 4 235 18 view .LVU351
 1146 0016 B0EE41CA 		vmov.f32	s24, s2
 1147 001a 0446     		mov	r4, r0
 1148              		.loc 4 236 60 view .LVU352
 1149 001c 32EE690A 		vsub.f32	s0, s4, s19
 1150              	.LVL91:
 235:eurorack/plaits/dsp/speech/lpc_speech_synth_controller.cc ****   const float rate_ratio = SemitonesToRatio((formant_shift - 0.5f) * 36.0f);
 1151              		.loc 4 235 18 view .LVU353
 1152 0020 8B46     		mov	fp, r1
 1153 0022 B0EE428A 		vmov.f32	s16, s4
 1154 0026 9246     		mov	r10, r2
 1155 0028 F0EE608A 		vmov.f32	s17, s1
 1156 002c 1D46     		mov	r5, r3
 1157              		.loc 4 236 44 view .LVU354
 1158 002e 20EE270A 		vmul.f32	s0, s0, s15
 235:eurorack/plaits/dsp/speech/lpc_speech_synth_controller.cc ****   const float rate_ratio = SemitonesToRatio((formant_shift - 0.5f) * 36.0f);
 1159              		.loc 4 235 18 view .LVU355
 1160 0032 1A9E     		ldr	r6, [sp, #104]
 1161 0034 F0EE61AA 		vmov.f32	s21, s3
 1162 0038 B0EE62BA 		vmov.f32	s22, s5
 1163              		.loc 4 236 44 view .LVU356
 1164 003c FFF7FEFF 		bl	_ZN6stmlib16SemitonesToRatioEf
 1165              	.LVL92:
 237:eurorack/plaits/dsp/speech/lpc_speech_synth_controller.cc ****   const float rate = rate_ratio / 6.0f;
 1166              		.loc 4 237 3 is_stmt 1 view .LVU357
 1167              		.loc 4 237 15 is_stmt 0 view .LVU358
 1168 0040 F1EE087A 		vmov.f32	s15, #6.0e+0
 238:eurorack/plaits/dsp/speech/lpc_speech_synth_controller.cc ****   
 239:eurorack/plaits/dsp/speech/lpc_speech_synth_controller.cc ****   // All utterances have been normalized for an average f0 of 100 Hz.
 240:eurorack/plaits/dsp/speech/lpc_speech_synth_controller.cc ****   const float pitch_shift = frequency / \
 241:eurorack/plaits/dsp/speech/lpc_speech_synth_controller.cc ****       (rate_ratio * kLPCSpeechSynthDefaultF0 / kCorrectedSampleRate);
 1169              		.loc 4 241 46 view .LVU359
 1170 0044 9FEDB37A 		vldr.32	s14, .L76+4
 235:eurorack/plaits/dsp/speech/lpc_speech_synth_controller.cc ****   const float rate_ratio = SemitonesToRatio((formant_shift - 0.5f) * 36.0f);
 1171              		.loc 4 235 18 view .LVU360
 1172 0048 DDE91889 		ldrd	r8, r9, [sp, #96]
 237:eurorack/plaits/dsp/speech/lpc_speech_synth_controller.cc ****   const float rate = rate_ratio / 6.0f;
 1173              		.loc 4 237 15 view .LVU361
 1174 004c 80EE279A 		vdiv.f32	s18, s0, s15
 1175              	.LVL93:
 240:eurorack/plaits/dsp/speech/lpc_speech_synth_controller.cc ****       (rate_ratio * kLPCSpeechSynthDefaultF0 / kCorrectedSampleRate);
 1176              		.loc 4 240 3 is_stmt 1 view .LVU362
 1177              		.loc 4 241 19 is_stmt 0 view .LVU363
 1178 0050 DFEDB17A 		vldr.32	s15, .L76+8
 1179 0054 20EE270A 		vmul.f32	s0, s0, s15
 1180              	.LVL94:
 1181              		.loc 4 241 46 view .LVU364
 1182 0058 C0EE077A 		vdiv.f32	s15, s0, s14
 242:eurorack/plaits/dsp/speech/lpc_speech_synth_controller.cc ****   const float time_stretch = SemitonesToRatio(-speed * 24.0f +
 1183              		.loc 4 242 54 view .LVU365
 1184 005c B3EE080A 		vmov.f32	s0, #2.4e+1
 1185 0060 2CEE400A 		vnmul.f32	s0, s24, s0
 240:eurorack/plaits/dsp/speech/lpc_speech_synth_controller.cc ****       (rate_ratio * kLPCSpeechSynthDefaultF0 / kCorrectedSampleRate);
 1186              		.loc 4 240 15 view .LVU366
 1187 0064 8BEEA7AA 		vdiv.f32	s20, s23, s15
ARM GAS  /var/folders/9s/8rp0_f2s1n31qbztm3b5_fdh0000gn/T//ccHPFdxP.s 			page 50


 1188              	.LVL95:
 1189              		.loc 4 242 3 is_stmt 1 view .LVU367
 243:eurorack/plaits/dsp/speech/lpc_speech_synth_controller.cc ****         (formant_shift < 0.4f ? (formant_shift - 0.4f) * -45.0f
 1190              		.loc 4 243 31 is_stmt 0 view .LVU368
 1191 0068 DFEDAC7A 		vldr.32	s15, .L76+12
 1192 006c B4EEE78A 		vcmpe.f32	s16, s15
 1193 0070 F1EE10FA 		vmrs	APSR_nzcv, FPSCR
 1194 0074 2AD5     		bpl	.L71
 1195              	.L74:
 244:eurorack/plaits/dsp/speech/lpc_speech_synth_controller.cc ****             : (formant_shift > 0.6f ? (formant_shift - 0.6f) * -45.0f : 0.0f)));
 1196              		.loc 4 244 54 discriminator 1 view .LVU369
 1197 0076 78EE677A 		vsub.f32	s15, s16, s15
 1198              		.loc 4 244 37 discriminator 1 view .LVU370
 1199 007a 9FEDA97A 		vldr.32	s14, .L76+16
 1200 007e 67EE877A 		vmul.f32	s15, s15, s14
 1201              	.L41:
 242:eurorack/plaits/dsp/speech/lpc_speech_synth_controller.cc ****   const float time_stretch = SemitonesToRatio(-speed * 24.0f +
 1202              		.loc 4 242 46 view .LVU371
 1203 0082 30EE270A 		vadd.f32	s0, s0, s15
 1204 0086 FFF7FEFF 		bl	_ZN6stmlib16SemitonesToRatioEf
 1205              	.LVL96:
 1206              	.LBB273:
 245:eurorack/plaits/dsp/speech/lpc_speech_synth_controller.cc ****   
 246:eurorack/plaits/dsp/speech/lpc_speech_synth_controller.cc ****   if (bank != -1) {
 1207              		.loc 4 246 3 view .LVU372
 1208 008a 6B1C     		adds	r3, r5, #1
 1209              	.LBE273:
 242:eurorack/plaits/dsp/speech/lpc_speech_synth_controller.cc ****         (formant_shift < 0.4f ? (formant_shift - 0.4f) * -45.0f
 1210              		.loc 4 242 46 view .LVU373
 1211 008c B0EE40CA 		vmov.f32	s24, s0
 1212              	.LVL97:
 1213              		.loc 4 246 3 is_stmt 1 view .LVU374
 1214              	.LBB275:
 1215 0090 00F03681 		beq	.L43
 1216              	.LBB274:
 247:eurorack/plaits/dsp/speech/lpc_speech_synth_controller.cc ****     bool reset_everything = word_bank_->Load(bank);
 1217              		.loc 4 247 5 view .LVU375
 1218              		.loc 4 247 45 is_stmt 0 view .LVU376
 1219 0094 2946     		mov	r1, r5
 1220 0096 D4F89000 		ldr	r0, [r4, #144]
 1221 009a FFF7FEFF 		bl	_ZN6plaits22LPCSpeechSynthWordBank4LoadEi
 1222              	.LVL98:
 248:eurorack/plaits/dsp/speech/lpc_speech_synth_controller.cc ****     if (reset_everything) {
 1223              		.loc 4 248 5 is_stmt 1 view .LVU377
 1224 009e 18B1     		cbz	r0, .L44
 249:eurorack/plaits/dsp/speech/lpc_speech_synth_controller.cc ****       playback_frame_ = -1;
 1225              		.loc 4 249 7 view .LVU378
 1226              		.loc 4 249 23 is_stmt 0 view .LVU379
 1227 00a0 4FF0FF33 		mov	r3, #-1
 250:eurorack/plaits/dsp/speech/lpc_speech_synth_controller.cc ****       last_playback_frame_ = -1;
 1228              		.loc 4 250 28 view .LVU380
 1229 00a4 C4E92133 		strd	r3, r3, [r4, #132]
 1230              	.L44:
 1231              	.LBE274:
 1232              	.LBE275:
 251:eurorack/plaits/dsp/speech/lpc_speech_synth_controller.cc ****     }
 252:eurorack/plaits/dsp/speech/lpc_speech_synth_controller.cc ****   }
ARM GAS  /var/folders/9s/8rp0_f2s1n31qbztm3b5_fdh0000gn/T//ccHPFdxP.s 			page 51


 253:eurorack/plaits/dsp/speech/lpc_speech_synth_controller.cc ****   
 254:eurorack/plaits/dsp/speech/lpc_speech_synth_controller.cc ****   const int num_frames = bank == -1
 1233              		.loc 4 254 3 is_stmt 1 view .LVU381
 255:eurorack/plaits/dsp/speech/lpc_speech_synth_controller.cc ****       ? kLPCSpeechSynthNumVowels
 256:eurorack/plaits/dsp/speech/lpc_speech_synth_controller.cc ****       : word_bank_->num_frames();
 1234              		.loc 4 256 9 is_stmt 0 view .LVU382
 1235 00a8 D4F89020 		ldr	r2, [r4, #144]
 1236              	.LVL99:
 1237              	.LBB276:
 1238              	.LBI276:
  78:eurorack/plaits/dsp/speech/lpc_speech_synth_controller.h ****   }
  79:eurorack/plaits/dsp/speech/lpc_speech_synth_controller.h **** 
  80:eurorack/plaits/dsp/speech/lpc_speech_synth_controller.h ****   const uint8_t* p_;
  81:eurorack/plaits/dsp/speech/lpc_speech_synth_controller.h ****   int available_;
  82:eurorack/plaits/dsp/speech/lpc_speech_synth_controller.h ****   uint16_t bits_;
  83:eurorack/plaits/dsp/speech/lpc_speech_synth_controller.h **** 
  84:eurorack/plaits/dsp/speech/lpc_speech_synth_controller.h ****   DISALLOW_COPY_AND_ASSIGN(BitStream);
  85:eurorack/plaits/dsp/speech/lpc_speech_synth_controller.h **** };
  86:eurorack/plaits/dsp/speech/lpc_speech_synth_controller.h **** 
  87:eurorack/plaits/dsp/speech/lpc_speech_synth_controller.h **** const int kLPCSpeechSynthMaxWords = 32;
  88:eurorack/plaits/dsp/speech/lpc_speech_synth_controller.h **** const int kLPCSpeechSynthMaxFrames = 1024;
  89:eurorack/plaits/dsp/speech/lpc_speech_synth_controller.h **** const int kLPCSpeechSynthNumVowels = 5;
  90:eurorack/plaits/dsp/speech/lpc_speech_synth_controller.h **** const int kLPCSpeechSynthNumConsonants = 10;
  91:eurorack/plaits/dsp/speech/lpc_speech_synth_controller.h **** const int kLPCSpeechSynthNumPhonemes = \
  92:eurorack/plaits/dsp/speech/lpc_speech_synth_controller.h ****     kLPCSpeechSynthNumVowels + kLPCSpeechSynthNumConsonants;
  93:eurorack/plaits/dsp/speech/lpc_speech_synth_controller.h **** const float kLPCSpeechSynthFPS = 40.0f;
  94:eurorack/plaits/dsp/speech/lpc_speech_synth_controller.h **** 
  95:eurorack/plaits/dsp/speech/lpc_speech_synth_controller.h **** struct LPCSpeechSynthWordBankData {
  96:eurorack/plaits/dsp/speech/lpc_speech_synth_controller.h ****   const uint8_t* data;
  97:eurorack/plaits/dsp/speech/lpc_speech_synth_controller.h ****   size_t size;
  98:eurorack/plaits/dsp/speech/lpc_speech_synth_controller.h **** };
  99:eurorack/plaits/dsp/speech/lpc_speech_synth_controller.h **** 
 100:eurorack/plaits/dsp/speech/lpc_speech_synth_controller.h **** class LPCSpeechSynthWordBank {
 101:eurorack/plaits/dsp/speech/lpc_speech_synth_controller.h ****  public:
 102:eurorack/plaits/dsp/speech/lpc_speech_synth_controller.h ****   LPCSpeechSynthWordBank() { }
 103:eurorack/plaits/dsp/speech/lpc_speech_synth_controller.h ****   ~LPCSpeechSynthWordBank() { }
 104:eurorack/plaits/dsp/speech/lpc_speech_synth_controller.h **** 
 105:eurorack/plaits/dsp/speech/lpc_speech_synth_controller.h ****   void Init(
 106:eurorack/plaits/dsp/speech/lpc_speech_synth_controller.h ****       const LPCSpeechSynthWordBankData* word_banks,
 107:eurorack/plaits/dsp/speech/lpc_speech_synth_controller.h ****       int num_banks,
 108:eurorack/plaits/dsp/speech/lpc_speech_synth_controller.h ****       stmlib::BufferAllocator* allocator);
 109:eurorack/plaits/dsp/speech/lpc_speech_synth_controller.h ****   
 110:eurorack/plaits/dsp/speech/lpc_speech_synth_controller.h ****   bool Load(int index);
 111:eurorack/plaits/dsp/speech/lpc_speech_synth_controller.h ****   void Reset();
 112:eurorack/plaits/dsp/speech/lpc_speech_synth_controller.h ****   
 113:eurorack/plaits/dsp/speech/lpc_speech_synth_controller.h ****   inline int num_frames() const { return num_frames_; }
 1239              		.loc 2 113 14 is_stmt 1 view .LVU383
 1240              	.LBB277:
 1241              		.loc 2 113 35 view .LVU384
 1242              		.loc 2 113 42 is_stmt 0 view .LVU385
 1243 00ac D068     		ldr	r0, [r2, #12]
 1244              	.LVL100:
 1245              		.loc 2 113 42 view .LVU386
 1246              	.LBE277:
 1247              	.LBE276:
 257:eurorack/plaits/dsp/speech/lpc_speech_synth_controller.cc **** 
 258:eurorack/plaits/dsp/speech/lpc_speech_synth_controller.cc ****   const LPCSpeechSynth::Frame* frames = bank == -1
ARM GAS  /var/folders/9s/8rp0_f2s1n31qbztm3b5_fdh0000gn/T//ccHPFdxP.s 			page 52


 1248              		.loc 4 258 3 is_stmt 1 view .LVU387
 1249              	.LBB278:
 1250              	.LBI278:
 114:eurorack/plaits/dsp/speech/lpc_speech_synth_controller.h ****   inline const LPCSpeechSynth::Frame* frames() const { return frames_; }
 1251              		.loc 2 114 39 view .LVU388
 1252              	.LBB279:
 1253              		.loc 2 114 56 view .LVU389
 1254              		.loc 2 114 63 is_stmt 0 view .LVU390
 1255 00ae 9169     		ldr	r1, [r2, #24]
 1256              	.LVL101:
 1257              		.loc 2 114 63 view .LVU391
 1258              	.LBE279:
 1259              	.LBE278:
 259:eurorack/plaits/dsp/speech/lpc_speech_synth_controller.cc ****       ? phonemes_
 260:eurorack/plaits/dsp/speech/lpc_speech_synth_controller.cc ****       : word_bank_->frames();
 261:eurorack/plaits/dsp/speech/lpc_speech_synth_controller.cc ****   
 262:eurorack/plaits/dsp/speech/lpc_speech_synth_controller.cc ****   if (trigger) {
 1260              		.loc 4 262 3 is_stmt 1 view .LVU392
 1261              	.LBB280:
 1262 00b0 BAF1000F 		cmp	r10, #0
 1263 00b4 34D0     		beq	.L59
 1264              	.LBB281:
 1265              	.LBB282:
 263:eurorack/plaits/dsp/speech/lpc_speech_synth_controller.cc ****     if (bank == -1) {
 264:eurorack/plaits/dsp/speech/lpc_speech_synth_controller.cc ****       // Pick a pseudo-random consonant, and play it for the duration of a
 265:eurorack/plaits/dsp/speech/lpc_speech_synth_controller.cc ****       // frame.
 266:eurorack/plaits/dsp/speech/lpc_speech_synth_controller.cc ****       int r = (address + 3.0f * formant_shift + 7.0f * frequency) * 8.0f;
 267:eurorack/plaits/dsp/speech/lpc_speech_synth_controller.cc ****       playback_frame_ = (r % kLPCSpeechSynthNumConsonants);
 268:eurorack/plaits/dsp/speech/lpc_speech_synth_controller.cc ****       playback_frame_ += kLPCSpeechSynthNumVowels;
 269:eurorack/plaits/dsp/speech/lpc_speech_synth_controller.cc ****       last_playback_frame_ = playback_frame_ + 1;
 270:eurorack/plaits/dsp/speech/lpc_speech_synth_controller.cc ****     } else {
 271:eurorack/plaits/dsp/speech/lpc_speech_synth_controller.cc ****       word_bank_->GetWordBoundaries(
 1266              		.loc 4 271 7 view .LVU393
 1267              	.LVL102:
 1268              	.LBB283:
 1269              	.LBI283:
 115:eurorack/plaits/dsp/speech/lpc_speech_synth_controller.h ****   
 116:eurorack/plaits/dsp/speech/lpc_speech_synth_controller.h ****   inline void GetWordBoundaries(float address, int* start, int* end) {
 1270              		.loc 2 116 15 view .LVU394
 1271              	.LBE283:
 1272              	.LBE282:
 1273              	.LBE281:
 1274              	.LBE280:
 117:eurorack/plaits/dsp/speech/lpc_speech_synth_controller.h ****     if (num_words_ == 0) {
 1275              		.loc 2 117 5 view .LVU395
 1276              	.LBB302:
 1277              	.LBB297:
 1278              	.LBB292:
 1279              	.LBB287:
 1280              	.LBB284:
 1281              		.loc 2 117 9 is_stmt 0 view .LVU396
 1282 00b6 D2F810C0 		ldr	ip, [r2, #16]
 1283              		.loc 2 117 5 view .LVU397
